
target/riscv32imc-unknown-none-elf/opt-1/examples/complex_no_dynamic:     file format elf32-littleriscv

Sections:
Idx Name          Size      VMA       LMA       File off  Algn
  0 .eh_frame     00000060  000100d4  000100d4  000000d4  2**2
                  CONTENTS, ALLOC, LOAD, READONLY, DATA
  1 .text         0000bda2  00011134  00011134  00000134  2**1
                  CONTENTS, ALLOC, LOAD, READONLY, CODE
  2 .comment      00000099  00000000  00000000  0000bed6  2**0
                  CONTENTS, READONLY
  3 .riscv.attributes 0000002f  00000000  00000000  0000bf6f  2**0
                  CONTENTS, READONLY

Disassembly of section .text:

00011134 <_ZN18complex_no_dynamic3app17h0048fe176af6b0b7E>:
   11134:	7135                	addi	sp,sp,-160
   11136:	cf06                	sw	ra,156(sp)
   11138:	cd22                	sw	s0,152(sp)
   1113a:	cb26                	sw	s1,148(sp)
   1113c:	842a                	mv	s0,a0
   1113e:	00d10513          	addi	a0,sp,13
   11142:	05500613          	li	a2,85
   11146:	0000c097          	auipc	ra,0xc
   1114a:	bea080e7          	jalr	-1046(ra) # 1cd30 <memcpy>
   1114e:	06210513          	addi	a0,sp,98
   11152:	03200613          	li	a2,50
   11156:	4581                	li	a1,0
   11158:	0000c097          	auipc	ra,0xc
   1115c:	b6c080e7          	jalr	-1172(ra) # 1ccc4 <memset>
   11160:	6509                	lui	a0,0x2
   11162:	45a1                	li	a1,8
   11164:	00d10613          	addi	a2,sp,13
   11168:	05500693          	li	a3,85
   1116c:	09550793          	addi	a5,a0,149 # 2095 <.Lline_table_start1+0x1e6a>
   11170:	4711                	li	a4,4
   11172:	4489                	li	s1,2
   11174:	853e                	mv	a0,a5
   11176:	00000073          	ecall
   1117a:	02950b63          	beq	a0,s1,111b0 <_ZN18complex_no_dynamic3app17h0048fe176af6b0b7E+0x7c>
   1117e:	45a1                	li	a1,8
   11180:	06210613          	addi	a2,sp,98
   11184:	03200693          	li	a3,50
   11188:	470d                	li	a4,3
   1118a:	853e                	mv	a0,a5
   1118c:	00000073          	ecall
   11190:	02950063          	beq	a0,s1,111b0 <_ZN18complex_no_dynamic3app17h0048fe176af6b0b7E+0x7c>
   11194:	6509                	lui	a0,0x2
   11196:	45a1                	li	a1,8
   11198:	4621                	li	a2,8
   1119a:	09550793          	addi	a5,a0,149 # 2095 <.Lline_table_start1+0x1e6a>
   1119e:	4709                	li	a4,2
   111a0:	07f00493          	li	s1,127
   111a4:	853e                	mv	a0,a5
   111a6:	4681                	li	a3,0
   111a8:	00000073          	ecall
   111ac:	02a4eb63          	bltu	s1,a0,111e2 <_ZN18complex_no_dynamic3app17h0048fe176af6b0b7E+0xae>
   111b0:	4785                	li	a5,1
   111b2:	c3a9                	beqz	a5,111f4 <_ZN18complex_no_dynamic3app17h0048fe176af6b0b7E+0xc0>
   111b4:	4601                	li	a2,0
   111b6:	4681                	li	a3,0
   111b8:	4505                	li	a0,1
   111ba:	6709                	lui	a4,0x2
   111bc:	87ae                	mv	a5,a1
   111be:	45a1                	li	a1,8
   111c0:	00a40023          	sb	a0,0(s0)
   111c4:	c05c                	sw	a5,4(s0)
   111c6:	09570793          	addi	a5,a4,149 # 2095 <.Lline_table_start1+0x1e6a>
   111ca:	470d                	li	a4,3
   111cc:	853e                	mv	a0,a5
   111ce:	00000073          	ecall
   111d2:	45a1                	li	a1,8
   111d4:	4711                	li	a4,4
   111d6:	853e                	mv	a0,a5
   111d8:	4601                	li	a2,0
   111da:	4681                	li	a3,0
   111dc:	00000073          	ecall
   111e0:	a8b1                	j	1123c <_ZN18complex_no_dynamic3app17h0048fe176af6b0b7E+0x108>
   111e2:	853e                	mv	a0,a5
   111e4:	4601                	li	a2,0
   111e6:	4681                	li	a3,0
   111e8:	4781                	li	a5,0
   111ea:	45a1                	li	a1,8
   111ec:	470d                	li	a4,3
   111ee:	00000073          	ecall
   111f2:	f3e9                	bnez	a5,111b4 <_ZN18complex_no_dynamic3app17h0048fe176af6b0b7E+0x80>
   111f4:	6509                	lui	a0,0x2
   111f6:	09550493          	addi	s1,a0,149 # 2095 <.Lline_table_start1+0x1e6a>
   111fa:	45a1                	li	a1,8
   111fc:	470d                	li	a4,3
   111fe:	8526                	mv	a0,s1
   11200:	4601                	li	a2,0
   11202:	4681                	li	a3,0
   11204:	00000073          	ecall
   11208:	00140513          	addi	a0,s0,1
   1120c:	06210593          	addi	a1,sp,98
   11210:	03200613          	li	a2,50
   11214:	0000c097          	auipc	ra,0xc
   11218:	b1c080e7          	jalr	-1252(ra) # 1cd30 <memcpy>
   1121c:	8526                	mv	a0,s1
   1121e:	4601                	li	a2,0
   11220:	4681                	li	a3,0
   11222:	00040023          	sb	zero,0(s0)
   11226:	45a1                	li	a1,8
   11228:	470d                	li	a4,3
   1122a:	00000073          	ecall
   1122e:	45a1                	li	a1,8
   11230:	4711                	li	a4,4
   11232:	8526                	mv	a0,s1
   11234:	4601                	li	a2,0
   11236:	4681                	li	a3,0
   11238:	00000073          	ecall
   1123c:	40fa                	lw	ra,156(sp)
   1123e:	446a                	lw	s0,152(sp)
   11240:	44da                	lw	s1,148(sp)
   11242:	610d                	addi	sp,sp,160
   11244:	8082                	ret

00011246 <_ZN18complex_no_dynamic3app17h00d9266d05c7cc31E>:
   11246:	7135                	addi	sp,sp,-160
   11248:	cf06                	sw	ra,156(sp)
   1124a:	cd22                	sw	s0,152(sp)
   1124c:	cb26                	sw	s1,148(sp)
   1124e:	842a                	mv	s0,a0
   11250:	0028                	addi	a0,sp,8
   11252:	05000613          	li	a2,80
   11256:	0000c097          	auipc	ra,0xc
   1125a:	ada080e7          	jalr	-1318(ra) # 1cd30 <memcpy>
   1125e:	08a8                	addi	a0,sp,88
   11260:	03c00613          	li	a2,60
   11264:	4581                	li	a1,0
   11266:	0000c097          	auipc	ra,0xc
   1126a:	a5e080e7          	jalr	-1442(ra) # 1ccc4 <memset>
   1126e:	6505                	lui	a0,0x1
   11270:	458d                	li	a1,3
   11272:	0030                	addi	a2,sp,8
   11274:	05000693          	li	a3,80
   11278:	d7a50793          	addi	a5,a0,-646 # d7a <.Lline_table_start1+0xb4f>
   1127c:	4711                	li	a4,4
   1127e:	4489                	li	s1,2
   11280:	853e                	mv	a0,a5
   11282:	00000073          	ecall
   11286:	02950a63          	beq	a0,s1,112ba <_ZN18complex_no_dynamic3app17h00d9266d05c7cc31E+0x74>
   1128a:	45a5                	li	a1,9
   1128c:	08b0                	addi	a2,sp,88
   1128e:	03c00693          	li	a3,60
   11292:	470d                	li	a4,3
   11294:	853e                	mv	a0,a5
   11296:	00000073          	ecall
   1129a:	02950063          	beq	a0,s1,112ba <_ZN18complex_no_dynamic3app17h00d9266d05c7cc31E+0x74>
   1129e:	6505                	lui	a0,0x1
   112a0:	458d                	li	a1,3
   112a2:	4625                	li	a2,9
   112a4:	d7a50793          	addi	a5,a0,-646 # d7a <.Lline_table_start1+0xb4f>
   112a8:	4709                	li	a4,2
   112aa:	07f00493          	li	s1,127
   112ae:	853e                	mv	a0,a5
   112b0:	4681                	li	a3,0
   112b2:	00000073          	ecall
   112b6:	02a4eb63          	bltu	s1,a0,112ec <_ZN18complex_no_dynamic3app17h00d9266d05c7cc31E+0xa6>
   112ba:	4785                	li	a5,1
   112bc:	c3a9                	beqz	a5,112fe <_ZN18complex_no_dynamic3app17h00d9266d05c7cc31E+0xb8>
   112be:	4601                	li	a2,0
   112c0:	4681                	li	a3,0
   112c2:	4505                	li	a0,1
   112c4:	6705                	lui	a4,0x1
   112c6:	87ae                	mv	a5,a1
   112c8:	45a5                	li	a1,9
   112ca:	00a40023          	sb	a0,0(s0)
   112ce:	c05c                	sw	a5,4(s0)
   112d0:	d7a70793          	addi	a5,a4,-646 # d7a <.Lline_table_start1+0xb4f>
   112d4:	470d                	li	a4,3
   112d6:	853e                	mv	a0,a5
   112d8:	00000073          	ecall
   112dc:	458d                	li	a1,3
   112de:	4711                	li	a4,4
   112e0:	853e                	mv	a0,a5
   112e2:	4601                	li	a2,0
   112e4:	4681                	li	a3,0
   112e6:	00000073          	ecall
   112ea:	a8a9                	j	11344 <_ZN18complex_no_dynamic3app17h00d9266d05c7cc31E+0xfe>
   112ec:	853e                	mv	a0,a5
   112ee:	4601                	li	a2,0
   112f0:	4681                	li	a3,0
   112f2:	4781                	li	a5,0
   112f4:	45a5                	li	a1,9
   112f6:	470d                	li	a4,3
   112f8:	00000073          	ecall
   112fc:	f3e9                	bnez	a5,112be <_ZN18complex_no_dynamic3app17h00d9266d05c7cc31E+0x78>
   112fe:	6505                	lui	a0,0x1
   11300:	d7a50493          	addi	s1,a0,-646 # d7a <.Lline_table_start1+0xb4f>
   11304:	45a5                	li	a1,9
   11306:	470d                	li	a4,3
   11308:	8526                	mv	a0,s1
   1130a:	4601                	li	a2,0
   1130c:	4681                	li	a3,0
   1130e:	00000073          	ecall
   11312:	00140513          	addi	a0,s0,1
   11316:	08ac                	addi	a1,sp,88
   11318:	03c00613          	li	a2,60
   1131c:	0000c097          	auipc	ra,0xc
   11320:	a14080e7          	jalr	-1516(ra) # 1cd30 <memcpy>
   11324:	8526                	mv	a0,s1
   11326:	4601                	li	a2,0
   11328:	4681                	li	a3,0
   1132a:	00040023          	sb	zero,0(s0)
   1132e:	45a5                	li	a1,9
   11330:	470d                	li	a4,3
   11332:	00000073          	ecall
   11336:	458d                	li	a1,3
   11338:	4711                	li	a4,4
   1133a:	8526                	mv	a0,s1
   1133c:	4601                	li	a2,0
   1133e:	4681                	li	a3,0
   11340:	00000073          	ecall
   11344:	40fa                	lw	ra,156(sp)
   11346:	446a                	lw	s0,152(sp)
   11348:	44da                	lw	s1,148(sp)
   1134a:	610d                	addi	sp,sp,160
   1134c:	8082                	ret

0001134e <_ZN18complex_no_dynamic3app17h00e0576852cb53daE>:
   1134e:	7119                	addi	sp,sp,-128
   11350:	de86                	sw	ra,124(sp)
   11352:	dca2                	sw	s0,120(sp)
   11354:	daa6                	sw	s1,116(sp)
   11356:	d8ca                	sw	s2,112(sp)
   11358:	892a                	mv	s2,a0
   1135a:	0068                	addi	a0,sp,12
   1135c:	03200613          	li	a2,50
   11360:	0000c097          	auipc	ra,0xc
   11364:	9d0080e7          	jalr	-1584(ra) # 1cd30 <memcpy>
   11368:	03e10513          	addi	a0,sp,62
   1136c:	03200613          	li	a2,50
   11370:	4581                	li	a1,0
   11372:	0000c097          	auipc	ra,0xc
   11376:	952080e7          	jalr	-1710(ra) # 1ccc4 <memset>
   1137a:	6509                	lui	a0,0x2
   1137c:	458d                	li	a1,3
   1137e:	0070                	addi	a2,sp,12
   11380:	03200693          	li	a3,50
   11384:	f0750793          	addi	a5,a0,-249 # 1f07 <.Lline_table_start1+0x1cdc>
   11388:	4711                	li	a4,4
   1138a:	4409                	li	s0,2
   1138c:	853e                	mv	a0,a5
   1138e:	00000073          	ecall
   11392:	00851463          	bne	a0,s0,1139a <_ZN18complex_no_dynamic3app17h00e0576852cb53daE+0x4c>
   11396:	4485                	li	s1,1
   11398:	a0a1                	j	113e0 <_ZN18complex_no_dynamic3app17h00e0576852cb53daE+0x92>
   1139a:	853e                	mv	a0,a5
   1139c:	4485                	li	s1,1
   1139e:	4585                	li	a1,1
   113a0:	03e10613          	addi	a2,sp,62
   113a4:	03200693          	li	a3,50
   113a8:	470d                	li	a4,3
   113aa:	00000073          	ecall
   113ae:	02850963          	beq	a0,s0,113e0 <_ZN18complex_no_dynamic3app17h00e0576852cb53daE+0x92>
   113b2:	4681                	li	a3,0
   113b4:	6509                	lui	a0,0x2
   113b6:	458d                	li	a1,3
   113b8:	4605                	li	a2,1
   113ba:	4709                	li	a4,2
   113bc:	f0750793          	addi	a5,a0,-249 # 1f07 <.Lline_table_start1+0x1cdc>
   113c0:	07f00413          	li	s0,127
   113c4:	853e                	mv	a0,a5
   113c6:	00000073          	ecall
   113ca:	4485                	li	s1,1
   113cc:	00a47a63          	bgeu	s0,a0,113e0 <_ZN18complex_no_dynamic3app17h00e0576852cb53daE+0x92>
   113d0:	853e                	mv	a0,a5
   113d2:	4601                	li	a2,0
   113d4:	4681                	li	a3,0
   113d6:	4481                	li	s1,0
   113d8:	4585                	li	a1,1
   113da:	470d                	li	a4,3
   113dc:	00000073          	ecall
   113e0:	c88d                	beqz	s1,11412 <_ZN18complex_no_dynamic3app17h00e0576852cb53daE+0xc4>
   113e2:	4601                	li	a2,0
   113e4:	4681                	li	a3,0
   113e6:	4505                	li	a0,1
   113e8:	6709                	lui	a4,0x2
   113ea:	87ae                	mv	a5,a1
   113ec:	4585                	li	a1,1
   113ee:	00a90023          	sb	a0,0(s2)
   113f2:	00f92223          	sw	a5,4(s2)
   113f6:	f0770793          	addi	a5,a4,-249 # 1f07 <.Lline_table_start1+0x1cdc>
   113fa:	470d                	li	a4,3
   113fc:	853e                	mv	a0,a5
   113fe:	00000073          	ecall
   11402:	458d                	li	a1,3
   11404:	4711                	li	a4,4
   11406:	853e                	mv	a0,a5
   11408:	4601                	li	a2,0
   1140a:	4681                	li	a3,0
   1140c:	00000073          	ecall
   11410:	a0a9                	j	1145a <_ZN18complex_no_dynamic3app17h00e0576852cb53daE+0x10c>
   11412:	6509                	lui	a0,0x2
   11414:	f0750493          	addi	s1,a0,-249 # 1f07 <.Lline_table_start1+0x1cdc>
   11418:	4585                	li	a1,1
   1141a:	470d                	li	a4,3
   1141c:	8526                	mv	a0,s1
   1141e:	4601                	li	a2,0
   11420:	4681                	li	a3,0
   11422:	00000073          	ecall
   11426:	00190513          	addi	a0,s2,1
   1142a:	03e10593          	addi	a1,sp,62
   1142e:	03200613          	li	a2,50
   11432:	0000c097          	auipc	ra,0xc
   11436:	8fe080e7          	jalr	-1794(ra) # 1cd30 <memcpy>
   1143a:	8526                	mv	a0,s1
   1143c:	4601                	li	a2,0
   1143e:	4681                	li	a3,0
   11440:	00090023          	sb	zero,0(s2)
   11444:	4585                	li	a1,1
   11446:	470d                	li	a4,3
   11448:	00000073          	ecall
   1144c:	458d                	li	a1,3
   1144e:	4711                	li	a4,4
   11450:	8526                	mv	a0,s1
   11452:	4601                	li	a2,0
   11454:	4681                	li	a3,0
   11456:	00000073          	ecall
   1145a:	50f6                	lw	ra,124(sp)
   1145c:	5466                	lw	s0,120(sp)
   1145e:	54d6                	lw	s1,116(sp)
   11460:	5946                	lw	s2,112(sp)
   11462:	6109                	addi	sp,sp,128
   11464:	8082                	ret

00011466 <_ZN18complex_no_dynamic3app17h0144789414a3aa2cE>:
   11466:	711d                	addi	sp,sp,-96
   11468:	ce86                	sw	ra,92(sp)
   1146a:	cca2                	sw	s0,88(sp)
   1146c:	caa6                	sw	s1,84(sp)
   1146e:	842a                	mv	s0,a0
   11470:	00d10513          	addi	a0,sp,13
   11474:	02700613          	li	a2,39
   11478:	0000c097          	auipc	ra,0xc
   1147c:	8b8080e7          	jalr	-1864(ra) # 1cd30 <memcpy>
   11480:	c282                	sw	zero,68(sp)
   11482:	c482                	sw	zero,72(sp)
   11484:	c682                	sw	zero,76(sp)
   11486:	04011823          	sh	zero,80(sp)
   1148a:	da02                	sw	zero,52(sp)
   1148c:	dc02                	sw	zero,56(sp)
   1148e:	de02                	sw	zero,60(sp)
   11490:	c082                	sw	zero,64(sp)
   11492:	6505                	lui	a0,0x1
   11494:	458d                	li	a1,3
   11496:	00d10613          	addi	a2,sp,13
   1149a:	02700693          	li	a3,39
   1149e:	0e250793          	addi	a5,a0,226 # 10e2 <.Lline_table_start1+0xeb7>
   114a2:	4711                	li	a4,4
   114a4:	4489                	li	s1,2
   114a6:	853e                	mv	a0,a5
   114a8:	00000073          	ecall
   114ac:	02950963          	beq	a0,s1,114de <_ZN18complex_no_dynamic3app17h0144789414a3aa2cE+0x78>
   114b0:	458d                	li	a1,3
   114b2:	1850                	addi	a2,sp,52
   114b4:	46f9                	li	a3,30
   114b6:	470d                	li	a4,3
   114b8:	853e                	mv	a0,a5
   114ba:	00000073          	ecall
   114be:	02950063          	beq	a0,s1,114de <_ZN18complex_no_dynamic3app17h0144789414a3aa2cE+0x78>
   114c2:	6505                	lui	a0,0x1
   114c4:	458d                	li	a1,3
   114c6:	460d                	li	a2,3
   114c8:	0e250793          	addi	a5,a0,226 # 10e2 <.Lline_table_start1+0xeb7>
   114cc:	4709                	li	a4,2
   114ce:	07f00493          	li	s1,127
   114d2:	853e                	mv	a0,a5
   114d4:	4681                	li	a3,0
   114d6:	00000073          	ecall
   114da:	02a4eb63          	bltu	s1,a0,11510 <_ZN18complex_no_dynamic3app17h0144789414a3aa2cE+0xaa>
   114de:	4785                	li	a5,1
   114e0:	c3a9                	beqz	a5,11522 <_ZN18complex_no_dynamic3app17h0144789414a3aa2cE+0xbc>
   114e2:	4601                	li	a2,0
   114e4:	4681                	li	a3,0
   114e6:	4505                	li	a0,1
   114e8:	6705                	lui	a4,0x1
   114ea:	87ae                	mv	a5,a1
   114ec:	458d                	li	a1,3
   114ee:	00a40023          	sb	a0,0(s0)
   114f2:	c05c                	sw	a5,4(s0)
   114f4:	0e270793          	addi	a5,a4,226 # 10e2 <.Lline_table_start1+0xeb7>
   114f8:	470d                	li	a4,3
   114fa:	853e                	mv	a0,a5
   114fc:	00000073          	ecall
   11500:	458d                	li	a1,3
   11502:	4711                	li	a4,4
   11504:	853e                	mv	a0,a5
   11506:	4601                	li	a2,0
   11508:	4681                	li	a3,0
   1150a:	00000073          	ecall
   1150e:	a8a1                	j	11566 <_ZN18complex_no_dynamic3app17h0144789414a3aa2cE+0x100>
   11510:	853e                	mv	a0,a5
   11512:	4601                	li	a2,0
   11514:	4681                	li	a3,0
   11516:	4781                	li	a5,0
   11518:	458d                	li	a1,3
   1151a:	470d                	li	a4,3
   1151c:	00000073          	ecall
   11520:	f3e9                	bnez	a5,114e2 <_ZN18complex_no_dynamic3app17h0144789414a3aa2cE+0x7c>
   11522:	6505                	lui	a0,0x1
   11524:	0e250493          	addi	s1,a0,226 # 10e2 <.Lline_table_start1+0xeb7>
   11528:	458d                	li	a1,3
   1152a:	470d                	li	a4,3
   1152c:	8526                	mv	a0,s1
   1152e:	4601                	li	a2,0
   11530:	4681                	li	a3,0
   11532:	00000073          	ecall
   11536:	00140513          	addi	a0,s0,1
   1153a:	184c                	addi	a1,sp,52
   1153c:	4679                	li	a2,30
   1153e:	0000b097          	auipc	ra,0xb
   11542:	7f2080e7          	jalr	2034(ra) # 1cd30 <memcpy>
   11546:	8526                	mv	a0,s1
   11548:	4601                	li	a2,0
   1154a:	4681                	li	a3,0
   1154c:	00040023          	sb	zero,0(s0)
   11550:	458d                	li	a1,3
   11552:	470d                	li	a4,3
   11554:	00000073          	ecall
   11558:	458d                	li	a1,3
   1155a:	4711                	li	a4,4
   1155c:	8526                	mv	a0,s1
   1155e:	4601                	li	a2,0
   11560:	4681                	li	a3,0
   11562:	00000073          	ecall
   11566:	40f6                	lw	ra,92(sp)
   11568:	4466                	lw	s0,88(sp)
   1156a:	44d6                	lw	s1,84(sp)
   1156c:	6125                	addi	sp,sp,96
   1156e:	8082                	ret

00011570 <_ZN18complex_no_dynamic3app17h05e9e40661042985E>:
   11570:	7119                	addi	sp,sp,-128
   11572:	de86                	sw	ra,124(sp)
   11574:	dca2                	sw	s0,120(sp)
   11576:	daa6                	sw	s1,116(sp)
   11578:	d8ca                	sw	s2,112(sp)
   1157a:	892a                	mv	s2,a0
   1157c:	0105c883          	lbu	a7,16(a1)
   11580:	0115c303          	lbu	t1,17(a1)
   11584:	0125c803          	lbu	a6,18(a1)
   11588:	00c5c283          	lbu	t0,12(a1)
   1158c:	00d5c783          	lbu	a5,13(a1)
   11590:	00e5c403          	lbu	s0,14(a1)
   11594:	00f5c483          	lbu	s1,15(a1)
   11598:	0085c503          	lbu	a0,8(a1)
   1159c:	0095c603          	lbu	a2,9(a1)
   115a0:	00a5c703          	lbu	a4,10(a1)
   115a4:	00b5c683          	lbu	a3,11(a1)
   115a8:	0322                	slli	t1,t1,0x8
   115aa:	07a2                	slli	a5,a5,0x8
   115ac:	0442                	slli	s0,s0,0x10
   115ae:	04e2                	slli	s1,s1,0x18
   115b0:	0622                	slli	a2,a2,0x8
   115b2:	011368b3          	or	a7,t1,a7
   115b6:	0057e2b3          	or	t0,a5,t0
   115ba:	8c45                	or	s0,s0,s1
   115bc:	00a66333          	or	t1,a2,a0
   115c0:	0045c603          	lbu	a2,4(a1)
   115c4:	0055c483          	lbu	s1,5(a1)
   115c8:	0065c783          	lbu	a5,6(a1)
   115cc:	0075c503          	lbu	a0,7(a1)
   115d0:	0742                	slli	a4,a4,0x10
   115d2:	06e2                	slli	a3,a3,0x18
   115d4:	04a2                	slli	s1,s1,0x8
   115d6:	07c2                	slli	a5,a5,0x10
   115d8:	0562                	slli	a0,a0,0x18
   115da:	8ed9                	or	a3,a3,a4
   115dc:	8e45                	or	a2,a2,s1
   115de:	0005c703          	lbu	a4,0(a1)
   115e2:	0015c483          	lbu	s1,1(a1)
   115e6:	8d5d                	or	a0,a0,a5
   115e8:	0025c783          	lbu	a5,2(a1)
   115ec:	0035c583          	lbu	a1,3(a1)
   115f0:	04a2                	slli	s1,s1,0x8
   115f2:	8f45                	or	a4,a4,s1
   115f4:	07c2                	slli	a5,a5,0x10
   115f6:	05e2                	slli	a1,a1,0x18
   115f8:	8ddd                	or	a1,a1,a5
   115fa:	01111c23          	sh	a7,24(sp)
   115fe:	01010d23          	sb	a6,26(sp)
   11602:	005467b3          	or	a5,s0,t0
   11606:	0066e6b3          	or	a3,a3,t1
   1160a:	8d51                	or	a0,a0,a2
   1160c:	8dd9                	or	a1,a1,a4
   1160e:	c42e                	sw	a1,8(sp)
   11610:	c62a                	sw	a0,12(sp)
   11612:	c836                	sw	a3,16(sp)
   11614:	ca3e                	sw	a5,20(sp)
   11616:	01b10513          	addi	a0,sp,27
   1161a:	05500613          	li	a2,85
   1161e:	4581                	li	a1,0
   11620:	0000b097          	auipc	ra,0xb
   11624:	6a4080e7          	jalr	1700(ra) # 1ccc4 <memset>
   11628:	32e00513          	li	a0,814
   1162c:	45a5                	li	a1,9
   1162e:	0030                	addi	a2,sp,8
   11630:	46cd                	li	a3,19
   11632:	4711                	li	a4,4
   11634:	4789                	li	a5,2
   11636:	00000073          	ecall
   1163a:	02f50a63          	beq	a0,a5,1166e <_ZN18complex_no_dynamic3app17h05e9e40661042985E+0xfe>
   1163e:	32e00513          	li	a0,814
   11642:	459d                	li	a1,7
   11644:	01b10613          	addi	a2,sp,27
   11648:	05500693          	li	a3,85
   1164c:	470d                	li	a4,3
   1164e:	00000073          	ecall
   11652:	00f50e63          	beq	a0,a5,1166e <_ZN18complex_no_dynamic3app17h05e9e40661042985E+0xfe>
   11656:	32e00513          	li	a0,814
   1165a:	45a5                	li	a1,9
   1165c:	461d                	li	a2,7
   1165e:	4709                	li	a4,2
   11660:	07f00793          	li	a5,127
   11664:	4681                	li	a3,0
   11666:	00000073          	ecall
   1166a:	02a7ea63          	bltu	a5,a0,1169e <_ZN18complex_no_dynamic3app17h05e9e40661042985E+0x12e>
   1166e:	4785                	li	a5,1
   11670:	c3a9                	beqz	a5,116b2 <_ZN18complex_no_dynamic3app17h05e9e40661042985E+0x142>
   11672:	4601                	li	a2,0
   11674:	4681                	li	a3,0
   11676:	4705                	li	a4,1
   11678:	32e00513          	li	a0,814
   1167c:	00e90023          	sb	a4,0(s2)
   11680:	00b92223          	sw	a1,4(s2)
   11684:	459d                	li	a1,7
   11686:	470d                	li	a4,3
   11688:	00000073          	ecall
   1168c:	32e00513          	li	a0,814
   11690:	45a5                	li	a1,9
   11692:	4711                	li	a4,4
   11694:	4601                	li	a2,0
   11696:	4681                	li	a3,0
   11698:	00000073          	ecall
   1169c:	a8b9                	j	116fa <_ZN18complex_no_dynamic3app17h05e9e40661042985E+0x18a>
   1169e:	4601                	li	a2,0
   116a0:	4681                	li	a3,0
   116a2:	4781                	li	a5,0
   116a4:	32e00513          	li	a0,814
   116a8:	459d                	li	a1,7
   116aa:	470d                	li	a4,3
   116ac:	00000073          	ecall
   116b0:	f3e9                	bnez	a5,11672 <_ZN18complex_no_dynamic3app17h05e9e40661042985E+0x102>
   116b2:	32e00513          	li	a0,814
   116b6:	459d                	li	a1,7
   116b8:	470d                	li	a4,3
   116ba:	4601                	li	a2,0
   116bc:	4681                	li	a3,0
   116be:	00000073          	ecall
   116c2:	00190513          	addi	a0,s2,1
   116c6:	01b10593          	addi	a1,sp,27
   116ca:	05500613          	li	a2,85
   116ce:	0000b097          	auipc	ra,0xb
   116d2:	662080e7          	jalr	1634(ra) # 1cd30 <memcpy>
   116d6:	4601                	li	a2,0
   116d8:	4681                	li	a3,0
   116da:	00090023          	sb	zero,0(s2)
   116de:	32e00513          	li	a0,814
   116e2:	459d                	li	a1,7
   116e4:	470d                	li	a4,3
   116e6:	00000073          	ecall
   116ea:	32e00513          	li	a0,814
   116ee:	45a5                	li	a1,9
   116f0:	4711                	li	a4,4
   116f2:	4601                	li	a2,0
   116f4:	4681                	li	a3,0
   116f6:	00000073          	ecall
   116fa:	50f6                	lw	ra,124(sp)
   116fc:	5466                	lw	s0,120(sp)
   116fe:	54d6                	lw	s1,116(sp)
   11700:	5946                	lw	s2,112(sp)
   11702:	6109                	addi	sp,sp,128
   11704:	8082                	ret

00011706 <_ZN18complex_no_dynamic3app17h08713842f6d634eaE>:
   11706:	711d                	addi	sp,sp,-96
   11708:	ce86                	sw	ra,92(sp)
   1170a:	cca2                	sw	s0,88(sp)
   1170c:	caa6                	sw	s1,84(sp)
   1170e:	842a                	mv	s0,a0
   11710:	00110513          	addi	a0,sp,1
   11714:	02400613          	li	a2,36
   11718:	0000b097          	auipc	ra,0xb
   1171c:	618080e7          	jalr	1560(ra) # 1cd30 <memcpy>
   11720:	02510513          	addi	a0,sp,37
   11724:	02f00613          	li	a2,47
   11728:	4581                	li	a1,0
   1172a:	0000b097          	auipc	ra,0xb
   1172e:	59a080e7          	jalr	1434(ra) # 1ccc4 <memset>
   11732:	6505                	lui	a0,0x1
   11734:	4599                	li	a1,6
   11736:	00110613          	addi	a2,sp,1
   1173a:	02400693          	li	a3,36
   1173e:	27350793          	addi	a5,a0,627 # 1273 <.Lline_table_start1+0x1048>
   11742:	4711                	li	a4,4
   11744:	4489                	li	s1,2
   11746:	853e                	mv	a0,a5
   11748:	00000073          	ecall
   1174c:	02950b63          	beq	a0,s1,11782 <_ZN18complex_no_dynamic3app17h08713842f6d634eaE+0x7c>
   11750:	45a5                	li	a1,9
   11752:	02510613          	addi	a2,sp,37
   11756:	02f00693          	li	a3,47
   1175a:	470d                	li	a4,3
   1175c:	853e                	mv	a0,a5
   1175e:	00000073          	ecall
   11762:	02950063          	beq	a0,s1,11782 <_ZN18complex_no_dynamic3app17h08713842f6d634eaE+0x7c>
   11766:	6505                	lui	a0,0x1
   11768:	4599                	li	a1,6
   1176a:	4625                	li	a2,9
   1176c:	27350793          	addi	a5,a0,627 # 1273 <.Lline_table_start1+0x1048>
   11770:	4709                	li	a4,2
   11772:	07f00493          	li	s1,127
   11776:	853e                	mv	a0,a5
   11778:	4681                	li	a3,0
   1177a:	00000073          	ecall
   1177e:	02a4eb63          	bltu	s1,a0,117b4 <_ZN18complex_no_dynamic3app17h08713842f6d634eaE+0xae>
   11782:	4785                	li	a5,1
   11784:	c3a9                	beqz	a5,117c6 <_ZN18complex_no_dynamic3app17h08713842f6d634eaE+0xc0>
   11786:	4601                	li	a2,0
   11788:	4681                	li	a3,0
   1178a:	4505                	li	a0,1
   1178c:	6705                	lui	a4,0x1
   1178e:	87ae                	mv	a5,a1
   11790:	45a5                	li	a1,9
   11792:	00a40023          	sb	a0,0(s0)
   11796:	c05c                	sw	a5,4(s0)
   11798:	27370793          	addi	a5,a4,627 # 1273 <.Lline_table_start1+0x1048>
   1179c:	470d                	li	a4,3
   1179e:	853e                	mv	a0,a5
   117a0:	00000073          	ecall
   117a4:	4599                	li	a1,6
   117a6:	4711                	li	a4,4
   117a8:	853e                	mv	a0,a5
   117aa:	4601                	li	a2,0
   117ac:	4681                	li	a3,0
   117ae:	00000073          	ecall
   117b2:	a8b1                	j	1180e <_ZN18complex_no_dynamic3app17h08713842f6d634eaE+0x108>
   117b4:	853e                	mv	a0,a5
   117b6:	4601                	li	a2,0
   117b8:	4681                	li	a3,0
   117ba:	4781                	li	a5,0
   117bc:	45a5                	li	a1,9
   117be:	470d                	li	a4,3
   117c0:	00000073          	ecall
   117c4:	f3e9                	bnez	a5,11786 <_ZN18complex_no_dynamic3app17h08713842f6d634eaE+0x80>
   117c6:	6505                	lui	a0,0x1
   117c8:	27350493          	addi	s1,a0,627 # 1273 <.Lline_table_start1+0x1048>
   117cc:	45a5                	li	a1,9
   117ce:	470d                	li	a4,3
   117d0:	8526                	mv	a0,s1
   117d2:	4601                	li	a2,0
   117d4:	4681                	li	a3,0
   117d6:	00000073          	ecall
   117da:	00140513          	addi	a0,s0,1
   117de:	02510593          	addi	a1,sp,37
   117e2:	02f00613          	li	a2,47
   117e6:	0000b097          	auipc	ra,0xb
   117ea:	54a080e7          	jalr	1354(ra) # 1cd30 <memcpy>
   117ee:	8526                	mv	a0,s1
   117f0:	4601                	li	a2,0
   117f2:	4681                	li	a3,0
   117f4:	00040023          	sb	zero,0(s0)
   117f8:	45a5                	li	a1,9
   117fa:	470d                	li	a4,3
   117fc:	00000073          	ecall
   11800:	4599                	li	a1,6
   11802:	4711                	li	a4,4
   11804:	8526                	mv	a0,s1
   11806:	4601                	li	a2,0
   11808:	4681                	li	a3,0
   1180a:	00000073          	ecall
   1180e:	40f6                	lw	ra,92(sp)
   11810:	4466                	lw	s0,88(sp)
   11812:	44d6                	lw	s1,84(sp)
   11814:	6125                	addi	sp,sp,96
   11816:	8082                	ret

00011818 <_ZN18complex_no_dynamic3app17h14248556aa41de69E>:
   11818:	7119                	addi	sp,sp,-128
   1181a:	de86                	sw	ra,124(sp)
   1181c:	dca2                	sw	s0,120(sp)
   1181e:	daa6                	sw	s1,116(sp)
   11820:	842a                	mv	s0,a0
   11822:	850a                	mv	a0,sp
   11824:	03500613          	li	a2,53
   11828:	0000b097          	auipc	ra,0xb
   1182c:	508080e7          	jalr	1288(ra) # 1cd30 <memcpy>
   11830:	03510513          	addi	a0,sp,53
   11834:	03f00613          	li	a2,63
   11838:	4581                	li	a1,0
   1183a:	0000b097          	auipc	ra,0xb
   1183e:	48a080e7          	jalr	1162(ra) # 1ccc4 <memset>
   11842:	6505                	lui	a0,0x1
   11844:	860a                	mv	a2,sp
   11846:	03500693          	li	a3,53
   1184a:	e5750793          	addi	a5,a0,-425 # e57 <.Lline_table_start1+0xc2c>
   1184e:	4711                	li	a4,4
   11850:	4489                	li	s1,2
   11852:	853e                	mv	a0,a5
   11854:	4581                	li	a1,0
   11856:	00000073          	ecall
   1185a:	02950b63          	beq	a0,s1,11890 <_ZN18complex_no_dynamic3app17h14248556aa41de69E+0x78>
   1185e:	458d                	li	a1,3
   11860:	03510613          	addi	a2,sp,53
   11864:	03f00693          	li	a3,63
   11868:	470d                	li	a4,3
   1186a:	853e                	mv	a0,a5
   1186c:	00000073          	ecall
   11870:	02950063          	beq	a0,s1,11890 <_ZN18complex_no_dynamic3app17h14248556aa41de69E+0x78>
   11874:	6505                	lui	a0,0x1
   11876:	460d                	li	a2,3
   11878:	e5750793          	addi	a5,a0,-425 # e57 <.Lline_table_start1+0xc2c>
   1187c:	4709                	li	a4,2
   1187e:	07f00493          	li	s1,127
   11882:	853e                	mv	a0,a5
   11884:	4581                	li	a1,0
   11886:	4681                	li	a3,0
   11888:	00000073          	ecall
   1188c:	02a4ea63          	bltu	s1,a0,118c0 <_ZN18complex_no_dynamic3app17h14248556aa41de69E+0xa8>
   11890:	4785                	li	a5,1
   11892:	c3a1                	beqz	a5,118d2 <_ZN18complex_no_dynamic3app17h14248556aa41de69E+0xba>
   11894:	4505                	li	a0,1
   11896:	6605                	lui	a2,0x1
   11898:	00a40023          	sb	a0,0(s0)
   1189c:	c04c                	sw	a1,4(s0)
   1189e:	e5760793          	addi	a5,a2,-425 # e57 <.Lline_table_start1+0xc2c>
   118a2:	458d                	li	a1,3
   118a4:	470d                	li	a4,3
   118a6:	853e                	mv	a0,a5
   118a8:	4601                	li	a2,0
   118aa:	4681                	li	a3,0
   118ac:	00000073          	ecall
   118b0:	4711                	li	a4,4
   118b2:	853e                	mv	a0,a5
   118b4:	4581                	li	a1,0
   118b6:	4601                	li	a2,0
   118b8:	4681                	li	a3,0
   118ba:	00000073          	ecall
   118be:	a8b1                	j	1191a <_ZN18complex_no_dynamic3app17h14248556aa41de69E+0x102>
   118c0:	853e                	mv	a0,a5
   118c2:	4601                	li	a2,0
   118c4:	4681                	li	a3,0
   118c6:	4781                	li	a5,0
   118c8:	458d                	li	a1,3
   118ca:	470d                	li	a4,3
   118cc:	00000073          	ecall
   118d0:	f3f1                	bnez	a5,11894 <_ZN18complex_no_dynamic3app17h14248556aa41de69E+0x7c>
   118d2:	6505                	lui	a0,0x1
   118d4:	e5750493          	addi	s1,a0,-425 # e57 <.Lline_table_start1+0xc2c>
   118d8:	458d                	li	a1,3
   118da:	470d                	li	a4,3
   118dc:	8526                	mv	a0,s1
   118de:	4601                	li	a2,0
   118e0:	4681                	li	a3,0
   118e2:	00000073          	ecall
   118e6:	00140513          	addi	a0,s0,1
   118ea:	03510593          	addi	a1,sp,53
   118ee:	03f00613          	li	a2,63
   118f2:	0000b097          	auipc	ra,0xb
   118f6:	43e080e7          	jalr	1086(ra) # 1cd30 <memcpy>
   118fa:	00040023          	sb	zero,0(s0)
   118fe:	458d                	li	a1,3
   11900:	470d                	li	a4,3
   11902:	8526                	mv	a0,s1
   11904:	4601                	li	a2,0
   11906:	4681                	li	a3,0
   11908:	00000073          	ecall
   1190c:	4711                	li	a4,4
   1190e:	8526                	mv	a0,s1
   11910:	4581                	li	a1,0
   11912:	4601                	li	a2,0
   11914:	4681                	li	a3,0
   11916:	00000073          	ecall
   1191a:	50f6                	lw	ra,124(sp)
   1191c:	5466                	lw	s0,120(sp)
   1191e:	54d6                	lw	s1,116(sp)
   11920:	6109                	addi	sp,sp,128
   11922:	8082                	ret

00011924 <_ZN18complex_no_dynamic3app17h161dd5102ff7c16eE>:
   11924:	7119                	addi	sp,sp,-128
   11926:	de86                	sw	ra,124(sp)
   11928:	dca2                	sw	s0,120(sp)
   1192a:	daa6                	sw	s1,116(sp)
   1192c:	d8ca                	sw	s2,112(sp)
   1192e:	d6ce                	sw	s3,108(sp)
   11930:	d4d2                	sw	s4,104(sp)
   11932:	892a                	mv	s2,a0
   11934:	01c5c303          	lbu	t1,28(a1)
   11938:	01d5c603          	lbu	a2,29(a1)
   1193c:	0185c683          	lbu	a3,24(a1)
   11940:	0195c703          	lbu	a4,25(a1)
   11944:	01a5c803          	lbu	a6,26(a1)
   11948:	01b5c283          	lbu	t0,27(a1)
   1194c:	0145c883          	lbu	a7,20(a1)
   11950:	0155c383          	lbu	t2,21(a1)
   11954:	0165c403          	lbu	s0,22(a1)
   11958:	0175c483          	lbu	s1,23(a1)
   1195c:	0105c503          	lbu	a0,16(a1)
   11960:	0115c783          	lbu	a5,17(a1)
   11964:	0125ce03          	lbu	t3,18(a1)
   11968:	0135ce83          	lbu	t4,19(a1)
   1196c:	0622                	slli	a2,a2,0x8
   1196e:	0722                	slli	a4,a4,0x8
   11970:	00666333          	or	t1,a2,t1
   11974:	00d76f33          	or	t5,a4,a3
   11978:	00c5cf83          	lbu	t6,12(a1)
   1197c:	00d5c683          	lbu	a3,13(a1)
   11980:	00e5c703          	lbu	a4,14(a1)
   11984:	00f5c603          	lbu	a2,15(a1)
   11988:	0842                	slli	a6,a6,0x10
   1198a:	02e2                	slli	t0,t0,0x18
   1198c:	03a2                	slli	t2,t2,0x8
   1198e:	0442                	slli	s0,s0,0x10
   11990:	04e2                	slli	s1,s1,0x18
   11992:	07a2                	slli	a5,a5,0x8
   11994:	0102e2b3          	or	t0,t0,a6
   11998:	0113e833          	or	a6,t2,a7
   1199c:	0084e8b3          	or	a7,s1,s0
   119a0:	00a7e3b3          	or	t2,a5,a0
   119a4:	0085c503          	lbu	a0,8(a1)
   119a8:	0095c783          	lbu	a5,9(a1)
   119ac:	00a5c403          	lbu	s0,10(a1)
   119b0:	00b5c483          	lbu	s1,11(a1)
   119b4:	0e42                	slli	t3,t3,0x10
   119b6:	0ee2                	slli	t4,t4,0x18
   119b8:	06a2                	slli	a3,a3,0x8
   119ba:	0742                	slli	a4,a4,0x10
   119bc:	0662                	slli	a2,a2,0x18
   119be:	07a2                	slli	a5,a5,0x8
   119c0:	01ceee33          	or	t3,t4,t3
   119c4:	01f6eeb3          	or	t4,a3,t6
   119c8:	00e669b3          	or	s3,a2,a4
   119cc:	00a7efb3          	or	t6,a5,a0
   119d0:	0045c703          	lbu	a4,4(a1)
   119d4:	0055c783          	lbu	a5,5(a1)
   119d8:	0065c683          	lbu	a3,6(a1)
   119dc:	0075c503          	lbu	a0,7(a1)
   119e0:	0442                	slli	s0,s0,0x10
   119e2:	04e2                	slli	s1,s1,0x18
   119e4:	07a2                	slli	a5,a5,0x8
   119e6:	06c2                	slli	a3,a3,0x10
   119e8:	0562                	slli	a0,a0,0x18
   119ea:	8c45                	or	s0,s0,s1
   119ec:	00e7ea33          	or	s4,a5,a4
   119f0:	0005c783          	lbu	a5,0(a1)
   119f4:	0015c483          	lbu	s1,1(a1)
   119f8:	8d55                	or	a0,a0,a3
   119fa:	0025c683          	lbu	a3,2(a1)
   119fe:	0035c583          	lbu	a1,3(a1)
   11a02:	04a2                	slli	s1,s1,0x8
   11a04:	8fc5                	or	a5,a5,s1
   11a06:	06c2                	slli	a3,a3,0x10
   11a08:	05e2                	slli	a1,a1,0x18
   11a0a:	8dd5                	or	a1,a1,a3
   11a0c:	01e2e6b3          	or	a3,t0,t5
   11a10:	0108e4b3          	or	s1,a7,a6
   11a14:	007e6633          	or	a2,t3,t2
   11a18:	01d9e733          	or	a4,s3,t4
   11a1c:	01f46433          	or	s0,s0,t6
   11a20:	01456533          	or	a0,a0,s4
   11a24:	8ddd                	or	a1,a1,a5
   11a26:	ce32                	sw	a2,28(sp)
   11a28:	d026                	sw	s1,32(sp)
   11a2a:	d236                	sw	a3,36(sp)
   11a2c:	02611423          	sh	t1,40(sp)
   11a30:	c62e                	sw	a1,12(sp)
   11a32:	c82a                	sw	a0,16(sp)
   11a34:	ca22                	sw	s0,20(sp)
   11a36:	cc3a                	sw	a4,24(sp)
   11a38:	1068                	addi	a0,sp,44
   11a3a:	03c00613          	li	a2,60
   11a3e:	4581                	li	a1,0
   11a40:	0000b097          	auipc	ra,0xb
   11a44:	284080e7          	jalr	644(ra) # 1ccc4 <memset>
   11a48:	6505                	lui	a0,0x1
   11a4a:	4489                	li	s1,2
   11a4c:	4589                	li	a1,2
   11a4e:	0070                	addi	a2,sp,12
   11a50:	b3c50793          	addi	a5,a0,-1220 # b3c <.Lline_table_start1+0x911>
   11a54:	46f9                	li	a3,30
   11a56:	4711                	li	a4,4
   11a58:	853e                	mv	a0,a5
   11a5a:	00000073          	ecall
   11a5e:	02950a63          	beq	a0,s1,11a92 <_ZN18complex_no_dynamic3app17h161dd5102ff7c16eE+0x16e>
   11a62:	458d                	li	a1,3
   11a64:	1070                	addi	a2,sp,44
   11a66:	03c00693          	li	a3,60
   11a6a:	470d                	li	a4,3
   11a6c:	853e                	mv	a0,a5
   11a6e:	00000073          	ecall
   11a72:	02950063          	beq	a0,s1,11a92 <_ZN18complex_no_dynamic3app17h161dd5102ff7c16eE+0x16e>
   11a76:	6505                	lui	a0,0x1
   11a78:	4589                	li	a1,2
   11a7a:	460d                	li	a2,3
   11a7c:	b3c50793          	addi	a5,a0,-1220 # b3c <.Lline_table_start1+0x911>
   11a80:	4709                	li	a4,2
   11a82:	07f00493          	li	s1,127
   11a86:	853e                	mv	a0,a5
   11a88:	4681                	li	a3,0
   11a8a:	00000073          	ecall
   11a8e:	02a4ec63          	bltu	s1,a0,11ac6 <_ZN18complex_no_dynamic3app17h161dd5102ff7c16eE+0x1a2>
   11a92:	4785                	li	a5,1
   11a94:	c3b1                	beqz	a5,11ad8 <_ZN18complex_no_dynamic3app17h161dd5102ff7c16eE+0x1b4>
   11a96:	4601                	li	a2,0
   11a98:	4681                	li	a3,0
   11a9a:	4505                	li	a0,1
   11a9c:	6705                	lui	a4,0x1
   11a9e:	87ae                	mv	a5,a1
   11aa0:	458d                	li	a1,3
   11aa2:	00a90023          	sb	a0,0(s2)
   11aa6:	00f92223          	sw	a5,4(s2)
   11aaa:	b3c70793          	addi	a5,a4,-1220 # b3c <.Lline_table_start1+0x911>
   11aae:	470d                	li	a4,3
   11ab0:	853e                	mv	a0,a5
   11ab2:	00000073          	ecall
   11ab6:	4589                	li	a1,2
   11ab8:	4711                	li	a4,4
   11aba:	853e                	mv	a0,a5
   11abc:	4601                	li	a2,0
   11abe:	4681                	li	a3,0
   11ac0:	00000073          	ecall
   11ac4:	a8a9                	j	11b1e <_ZN18complex_no_dynamic3app17h161dd5102ff7c16eE+0x1fa>
   11ac6:	853e                	mv	a0,a5
   11ac8:	4601                	li	a2,0
   11aca:	4681                	li	a3,0
   11acc:	4781                	li	a5,0
   11ace:	458d                	li	a1,3
   11ad0:	470d                	li	a4,3
   11ad2:	00000073          	ecall
   11ad6:	f3e1                	bnez	a5,11a96 <_ZN18complex_no_dynamic3app17h161dd5102ff7c16eE+0x172>
   11ad8:	6505                	lui	a0,0x1
   11ada:	b3c50493          	addi	s1,a0,-1220 # b3c <.Lline_table_start1+0x911>
   11ade:	458d                	li	a1,3
   11ae0:	470d                	li	a4,3
   11ae2:	8526                	mv	a0,s1
   11ae4:	4601                	li	a2,0
   11ae6:	4681                	li	a3,0
   11ae8:	00000073          	ecall
   11aec:	00190513          	addi	a0,s2,1
   11af0:	106c                	addi	a1,sp,44
   11af2:	03c00613          	li	a2,60
   11af6:	0000b097          	auipc	ra,0xb
   11afa:	23a080e7          	jalr	570(ra) # 1cd30 <memcpy>
   11afe:	8526                	mv	a0,s1
   11b00:	4601                	li	a2,0
   11b02:	4681                	li	a3,0
   11b04:	00090023          	sb	zero,0(s2)
   11b08:	458d                	li	a1,3
   11b0a:	470d                	li	a4,3
   11b0c:	00000073          	ecall
   11b10:	4589                	li	a1,2
   11b12:	4711                	li	a4,4
   11b14:	8526                	mv	a0,s1
   11b16:	4601                	li	a2,0
   11b18:	4681                	li	a3,0
   11b1a:	00000073          	ecall
   11b1e:	50f6                	lw	ra,124(sp)
   11b20:	5466                	lw	s0,120(sp)
   11b22:	54d6                	lw	s1,116(sp)
   11b24:	5946                	lw	s2,112(sp)
   11b26:	59b6                	lw	s3,108(sp)
   11b28:	5a26                	lw	s4,104(sp)
   11b2a:	6109                	addi	sp,sp,128
   11b2c:	8082                	ret

00011b2e <_ZN18complex_no_dynamic3app17h1985133cb8c6fd5cE>:
   11b2e:	7119                	addi	sp,sp,-128
   11b30:	de86                	sw	ra,124(sp)
   11b32:	dca2                	sw	s0,120(sp)
   11b34:	daa6                	sw	s1,116(sp)
   11b36:	842a                	mv	s0,a0
   11b38:	00b10513          	addi	a0,sp,11
   11b3c:	05500613          	li	a2,85
   11b40:	0000b097          	auipc	ra,0xb
   11b44:	1f0080e7          	jalr	496(ra) # 1cd30 <memcpy>
   11b48:	06010823          	sb	zero,112(sp)
   11b4c:	d082                	sw	zero,96(sp)
   11b4e:	d282                	sw	zero,100(sp)
   11b50:	d482                	sw	zero,104(sp)
   11b52:	d682                	sw	zero,108(sp)
   11b54:	6505                	lui	a0,0x1
   11b56:	4489                	li	s1,2
   11b58:	4589                	li	a1,2
   11b5a:	00b10613          	addi	a2,sp,11
   11b5e:	c8950793          	addi	a5,a0,-887 # c89 <.Lline_table_start1+0xa5e>
   11b62:	05500693          	li	a3,85
   11b66:	4711                	li	a4,4
   11b68:	853e                	mv	a0,a5
   11b6a:	00000073          	ecall
   11b6e:	02950963          	beq	a0,s1,11ba0 <_ZN18complex_no_dynamic3app17h1985133cb8c6fd5cE+0x72>
   11b72:	4589                	li	a1,2
   11b74:	1090                	addi	a2,sp,96
   11b76:	46c5                	li	a3,17
   11b78:	470d                	li	a4,3
   11b7a:	853e                	mv	a0,a5
   11b7c:	00000073          	ecall
   11b80:	02950063          	beq	a0,s1,11ba0 <_ZN18complex_no_dynamic3app17h1985133cb8c6fd5cE+0x72>
   11b84:	6505                	lui	a0,0x1
   11b86:	4589                	li	a1,2
   11b88:	4609                	li	a2,2
   11b8a:	c8950793          	addi	a5,a0,-887 # c89 <.Lline_table_start1+0xa5e>
   11b8e:	4709                	li	a4,2
   11b90:	07f00493          	li	s1,127
   11b94:	853e                	mv	a0,a5
   11b96:	4681                	li	a3,0
   11b98:	00000073          	ecall
   11b9c:	02a4eb63          	bltu	s1,a0,11bd2 <_ZN18complex_no_dynamic3app17h1985133cb8c6fd5cE+0xa4>
   11ba0:	4785                	li	a5,1
   11ba2:	c3a9                	beqz	a5,11be4 <_ZN18complex_no_dynamic3app17h1985133cb8c6fd5cE+0xb6>
   11ba4:	4601                	li	a2,0
   11ba6:	4681                	li	a3,0
   11ba8:	4505                	li	a0,1
   11baa:	6705                	lui	a4,0x1
   11bac:	87ae                	mv	a5,a1
   11bae:	4589                	li	a1,2
   11bb0:	00a40023          	sb	a0,0(s0)
   11bb4:	c05c                	sw	a5,4(s0)
   11bb6:	c8970793          	addi	a5,a4,-887 # c89 <.Lline_table_start1+0xa5e>
   11bba:	470d                	li	a4,3
   11bbc:	853e                	mv	a0,a5
   11bbe:	00000073          	ecall
   11bc2:	4589                	li	a1,2
   11bc4:	4711                	li	a4,4
   11bc6:	853e                	mv	a0,a5
   11bc8:	4601                	li	a2,0
   11bca:	4681                	li	a3,0
   11bcc:	00000073          	ecall
   11bd0:	a8a1                	j	11c28 <_ZN18complex_no_dynamic3app17h1985133cb8c6fd5cE+0xfa>
   11bd2:	853e                	mv	a0,a5
   11bd4:	4601                	li	a2,0
   11bd6:	4681                	li	a3,0
   11bd8:	4781                	li	a5,0
   11bda:	4589                	li	a1,2
   11bdc:	470d                	li	a4,3
   11bde:	00000073          	ecall
   11be2:	f3e9                	bnez	a5,11ba4 <_ZN18complex_no_dynamic3app17h1985133cb8c6fd5cE+0x76>
   11be4:	6505                	lui	a0,0x1
   11be6:	c8950493          	addi	s1,a0,-887 # c89 <.Lline_table_start1+0xa5e>
   11bea:	4589                	li	a1,2
   11bec:	470d                	li	a4,3
   11bee:	8526                	mv	a0,s1
   11bf0:	4601                	li	a2,0
   11bf2:	4681                	li	a3,0
   11bf4:	00000073          	ecall
   11bf8:	00140513          	addi	a0,s0,1
   11bfc:	108c                	addi	a1,sp,96
   11bfe:	4645                	li	a2,17
   11c00:	0000b097          	auipc	ra,0xb
   11c04:	130080e7          	jalr	304(ra) # 1cd30 <memcpy>
   11c08:	8526                	mv	a0,s1
   11c0a:	4601                	li	a2,0
   11c0c:	4681                	li	a3,0
   11c0e:	00040023          	sb	zero,0(s0)
   11c12:	4589                	li	a1,2
   11c14:	470d                	li	a4,3
   11c16:	00000073          	ecall
   11c1a:	4589                	li	a1,2
   11c1c:	4711                	li	a4,4
   11c1e:	8526                	mv	a0,s1
   11c20:	4601                	li	a2,0
   11c22:	4681                	li	a3,0
   11c24:	00000073          	ecall
   11c28:	50f6                	lw	ra,124(sp)
   11c2a:	5466                	lw	s0,120(sp)
   11c2c:	54d6                	lw	s1,116(sp)
   11c2e:	6109                	addi	sp,sp,128
   11c30:	8082                	ret

00011c32 <_ZN18complex_no_dynamic3app17h1b75b8c0a88e64fcE>:
   11c32:	7171                	addi	sp,sp,-176
   11c34:	d706                	sw	ra,172(sp)
   11c36:	d522                	sw	s0,168(sp)
   11c38:	d326                	sw	s1,164(sp)
   11c3a:	842a                	mv	s0,a0
   11c3c:	00110513          	addi	a0,sp,1
   11c40:	05900613          	li	a2,89
   11c44:	0000b097          	auipc	ra,0xb
   11c48:	0ec080e7          	jalr	236(ra) # 1cd30 <memcpy>
   11c4c:	05a10513          	addi	a0,sp,90
   11c50:	04a00613          	li	a2,74
   11c54:	4581                	li	a1,0
   11c56:	0000b097          	auipc	ra,0xb
   11c5a:	06e080e7          	jalr	110(ra) # 1ccc4 <memset>
   11c5e:	6505                	lui	a0,0x1
   11c60:	00110613          	addi	a2,sp,1
   11c64:	05900693          	li	a3,89
   11c68:	48450793          	addi	a5,a0,1156 # 1484 <.Lline_table_start1+0x1259>
   11c6c:	4711                	li	a4,4
   11c6e:	4489                	li	s1,2
   11c70:	853e                	mv	a0,a5
   11c72:	4581                	li	a1,0
   11c74:	00000073          	ecall
   11c78:	02950b63          	beq	a0,s1,11cae <_ZN18complex_no_dynamic3app17h1b75b8c0a88e64fcE+0x7c>
   11c7c:	4591                	li	a1,4
   11c7e:	05a10613          	addi	a2,sp,90
   11c82:	04a00693          	li	a3,74
   11c86:	470d                	li	a4,3
   11c88:	853e                	mv	a0,a5
   11c8a:	00000073          	ecall
   11c8e:	02950063          	beq	a0,s1,11cae <_ZN18complex_no_dynamic3app17h1b75b8c0a88e64fcE+0x7c>
   11c92:	6505                	lui	a0,0x1
   11c94:	4611                	li	a2,4
   11c96:	48450793          	addi	a5,a0,1156 # 1484 <.Lline_table_start1+0x1259>
   11c9a:	4709                	li	a4,2
   11c9c:	07f00493          	li	s1,127
   11ca0:	853e                	mv	a0,a5
   11ca2:	4581                	li	a1,0
   11ca4:	4681                	li	a3,0
   11ca6:	00000073          	ecall
   11caa:	02a4ea63          	bltu	s1,a0,11cde <_ZN18complex_no_dynamic3app17h1b75b8c0a88e64fcE+0xac>
   11cae:	4785                	li	a5,1
   11cb0:	c3a1                	beqz	a5,11cf0 <_ZN18complex_no_dynamic3app17h1b75b8c0a88e64fcE+0xbe>
   11cb2:	4505                	li	a0,1
   11cb4:	6605                	lui	a2,0x1
   11cb6:	00a40023          	sb	a0,0(s0)
   11cba:	c04c                	sw	a1,4(s0)
   11cbc:	48460793          	addi	a5,a2,1156 # 1484 <.Lline_table_start1+0x1259>
   11cc0:	4591                	li	a1,4
   11cc2:	470d                	li	a4,3
   11cc4:	853e                	mv	a0,a5
   11cc6:	4601                	li	a2,0
   11cc8:	4681                	li	a3,0
   11cca:	00000073          	ecall
   11cce:	4711                	li	a4,4
   11cd0:	853e                	mv	a0,a5
   11cd2:	4581                	li	a1,0
   11cd4:	4601                	li	a2,0
   11cd6:	4681                	li	a3,0
   11cd8:	00000073          	ecall
   11cdc:	a8b1                	j	11d38 <_ZN18complex_no_dynamic3app17h1b75b8c0a88e64fcE+0x106>
   11cde:	853e                	mv	a0,a5
   11ce0:	4601                	li	a2,0
   11ce2:	4681                	li	a3,0
   11ce4:	4781                	li	a5,0
   11ce6:	4591                	li	a1,4
   11ce8:	470d                	li	a4,3
   11cea:	00000073          	ecall
   11cee:	f3f1                	bnez	a5,11cb2 <_ZN18complex_no_dynamic3app17h1b75b8c0a88e64fcE+0x80>
   11cf0:	6505                	lui	a0,0x1
   11cf2:	48450493          	addi	s1,a0,1156 # 1484 <.Lline_table_start1+0x1259>
   11cf6:	4591                	li	a1,4
   11cf8:	470d                	li	a4,3
   11cfa:	8526                	mv	a0,s1
   11cfc:	4601                	li	a2,0
   11cfe:	4681                	li	a3,0
   11d00:	00000073          	ecall
   11d04:	00140513          	addi	a0,s0,1
   11d08:	05a10593          	addi	a1,sp,90
   11d0c:	04a00613          	li	a2,74
   11d10:	0000b097          	auipc	ra,0xb
   11d14:	020080e7          	jalr	32(ra) # 1cd30 <memcpy>
   11d18:	00040023          	sb	zero,0(s0)
   11d1c:	4591                	li	a1,4
   11d1e:	470d                	li	a4,3
   11d20:	8526                	mv	a0,s1
   11d22:	4601                	li	a2,0
   11d24:	4681                	li	a3,0
   11d26:	00000073          	ecall
   11d2a:	4711                	li	a4,4
   11d2c:	8526                	mv	a0,s1
   11d2e:	4581                	li	a1,0
   11d30:	4601                	li	a2,0
   11d32:	4681                	li	a3,0
   11d34:	00000073          	ecall
   11d38:	50ba                	lw	ra,172(sp)
   11d3a:	542a                	lw	s0,168(sp)
   11d3c:	549a                	lw	s1,164(sp)
   11d3e:	614d                	addi	sp,sp,176
   11d40:	8082                	ret

00011d42 <_ZN18complex_no_dynamic3app17h1c277e0a6092f54dE>:
   11d42:	7135                	addi	sp,sp,-160
   11d44:	cf06                	sw	ra,156(sp)
   11d46:	cd22                	sw	s0,152(sp)
   11d48:	842a                	mv	s0,a0
   11d4a:	00b10513          	addi	a0,sp,11
   11d4e:	02f00613          	li	a2,47
   11d52:	0000b097          	auipc	ra,0xb
   11d56:	fde080e7          	jalr	-34(ra) # 1cd30 <memcpy>
   11d5a:	03a10513          	addi	a0,sp,58
   11d5e:	05e00613          	li	a2,94
   11d62:	4581                	li	a1,0
   11d64:	0000b097          	auipc	ra,0xb
   11d68:	f60080e7          	jalr	-160(ra) # 1ccc4 <memset>
   11d6c:	22b00513          	li	a0,555
   11d70:	4595                	li	a1,5
   11d72:	00b10613          	addi	a2,sp,11
   11d76:	02f00693          	li	a3,47
   11d7a:	4711                	li	a4,4
   11d7c:	4789                	li	a5,2
   11d7e:	00000073          	ecall
   11d82:	02f50a63          	beq	a0,a5,11db6 <_ZN18complex_no_dynamic3app17h1c277e0a6092f54dE+0x74>
   11d86:	22b00513          	li	a0,555
   11d8a:	4589                	li	a1,2
   11d8c:	03a10613          	addi	a2,sp,58
   11d90:	05e00693          	li	a3,94
   11d94:	470d                	li	a4,3
   11d96:	00000073          	ecall
   11d9a:	00f50e63          	beq	a0,a5,11db6 <_ZN18complex_no_dynamic3app17h1c277e0a6092f54dE+0x74>
   11d9e:	22b00513          	li	a0,555
   11da2:	4595                	li	a1,5
   11da4:	4609                	li	a2,2
   11da6:	4709                	li	a4,2
   11da8:	07f00793          	li	a5,127
   11dac:	4681                	li	a3,0
   11dae:	00000073          	ecall
   11db2:	02a7e963          	bltu	a5,a0,11de4 <_ZN18complex_no_dynamic3app17h1c277e0a6092f54dE+0xa2>
   11db6:	4785                	li	a5,1
   11db8:	c3a1                	beqz	a5,11df8 <_ZN18complex_no_dynamic3app17h1c277e0a6092f54dE+0xb6>
   11dba:	4601                	li	a2,0
   11dbc:	4681                	li	a3,0
   11dbe:	4705                	li	a4,1
   11dc0:	22b00513          	li	a0,555
   11dc4:	00e40023          	sb	a4,0(s0)
   11dc8:	c04c                	sw	a1,4(s0)
   11dca:	4589                	li	a1,2
   11dcc:	470d                	li	a4,3
   11dce:	00000073          	ecall
   11dd2:	22b00513          	li	a0,555
   11dd6:	4595                	li	a1,5
   11dd8:	4711                	li	a4,4
   11dda:	4601                	li	a2,0
   11ddc:	4681                	li	a3,0
   11dde:	00000073          	ecall
   11de2:	a8b9                	j	11e40 <_ZN18complex_no_dynamic3app17h1c277e0a6092f54dE+0xfe>
   11de4:	4601                	li	a2,0
   11de6:	4681                	li	a3,0
   11de8:	4781                	li	a5,0
   11dea:	22b00513          	li	a0,555
   11dee:	4589                	li	a1,2
   11df0:	470d                	li	a4,3
   11df2:	00000073          	ecall
   11df6:	f3f1                	bnez	a5,11dba <_ZN18complex_no_dynamic3app17h1c277e0a6092f54dE+0x78>
   11df8:	22b00513          	li	a0,555
   11dfc:	4589                	li	a1,2
   11dfe:	470d                	li	a4,3
   11e00:	4601                	li	a2,0
   11e02:	4681                	li	a3,0
   11e04:	00000073          	ecall
   11e08:	00140513          	addi	a0,s0,1
   11e0c:	03a10593          	addi	a1,sp,58
   11e10:	05e00613          	li	a2,94
   11e14:	0000b097          	auipc	ra,0xb
   11e18:	f1c080e7          	jalr	-228(ra) # 1cd30 <memcpy>
   11e1c:	4601                	li	a2,0
   11e1e:	4681                	li	a3,0
   11e20:	00040023          	sb	zero,0(s0)
   11e24:	22b00513          	li	a0,555
   11e28:	4589                	li	a1,2
   11e2a:	470d                	li	a4,3
   11e2c:	00000073          	ecall
   11e30:	22b00513          	li	a0,555
   11e34:	4595                	li	a1,5
   11e36:	4711                	li	a4,4
   11e38:	4601                	li	a2,0
   11e3a:	4681                	li	a3,0
   11e3c:	00000073          	ecall
   11e40:	40fa                	lw	ra,156(sp)
   11e42:	446a                	lw	s0,152(sp)
   11e44:	610d                	addi	sp,sp,160
   11e46:	8082                	ret

00011e48 <_ZN18complex_no_dynamic3app17h1ca5be5a53618e16E>:
   11e48:	7159                	addi	sp,sp,-112
   11e4a:	d686                	sw	ra,108(sp)
   11e4c:	d4a2                	sw	s0,104(sp)
   11e4e:	d2a6                	sw	s1,100(sp)
   11e50:	842a                	mv	s0,a0
   11e52:	00910513          	addi	a0,sp,9
   11e56:	03f00613          	li	a2,63
   11e5a:	0000b097          	auipc	ra,0xb
   11e5e:	ed6080e7          	jalr	-298(ra) # 1cd30 <memcpy>
   11e62:	cc82                	sw	zero,88(sp)
   11e64:	ce82                	sw	zero,92(sp)
   11e66:	d082                	sw	zero,96(sp)
   11e68:	c482                	sw	zero,72(sp)
   11e6a:	c682                	sw	zero,76(sp)
   11e6c:	c882                	sw	zero,80(sp)
   11e6e:	ca82                	sw	zero,84(sp)
   11e70:	6505                	lui	a0,0x1
   11e72:	4595                	li	a1,5
   11e74:	00910613          	addi	a2,sp,9
   11e78:	03f00693          	li	a3,63
   11e7c:	69450793          	addi	a5,a0,1684 # 1694 <.Lline_table_start1+0x1469>
   11e80:	4711                	li	a4,4
   11e82:	4489                	li	s1,2
   11e84:	853e                	mv	a0,a5
   11e86:	00000073          	ecall
   11e8a:	02950963          	beq	a0,s1,11ebc <_ZN18complex_no_dynamic3app17h1ca5be5a53618e16E+0x74>
   11e8e:	45a5                	li	a1,9
   11e90:	00b0                	addi	a2,sp,72
   11e92:	46f1                	li	a3,28
   11e94:	470d                	li	a4,3
   11e96:	853e                	mv	a0,a5
   11e98:	00000073          	ecall
   11e9c:	02950063          	beq	a0,s1,11ebc <_ZN18complex_no_dynamic3app17h1ca5be5a53618e16E+0x74>
   11ea0:	6505                	lui	a0,0x1
   11ea2:	4595                	li	a1,5
   11ea4:	4625                	li	a2,9
   11ea6:	69450793          	addi	a5,a0,1684 # 1694 <.Lline_table_start1+0x1469>
   11eaa:	4709                	li	a4,2
   11eac:	07f00493          	li	s1,127
   11eb0:	853e                	mv	a0,a5
   11eb2:	4681                	li	a3,0
   11eb4:	00000073          	ecall
   11eb8:	02a4eb63          	bltu	s1,a0,11eee <_ZN18complex_no_dynamic3app17h1ca5be5a53618e16E+0xa6>
   11ebc:	4785                	li	a5,1
   11ebe:	c3a9                	beqz	a5,11f00 <_ZN18complex_no_dynamic3app17h1ca5be5a53618e16E+0xb8>
   11ec0:	4601                	li	a2,0
   11ec2:	4681                	li	a3,0
   11ec4:	4505                	li	a0,1
   11ec6:	6705                	lui	a4,0x1
   11ec8:	87ae                	mv	a5,a1
   11eca:	45a5                	li	a1,9
   11ecc:	00a40023          	sb	a0,0(s0)
   11ed0:	c05c                	sw	a5,4(s0)
   11ed2:	69470793          	addi	a5,a4,1684 # 1694 <.Lline_table_start1+0x1469>
   11ed6:	470d                	li	a4,3
   11ed8:	853e                	mv	a0,a5
   11eda:	00000073          	ecall
   11ede:	4595                	li	a1,5
   11ee0:	4711                	li	a4,4
   11ee2:	853e                	mv	a0,a5
   11ee4:	4601                	li	a2,0
   11ee6:	4681                	li	a3,0
   11ee8:	00000073          	ecall
   11eec:	a8a1                	j	11f44 <_ZN18complex_no_dynamic3app17h1ca5be5a53618e16E+0xfc>
   11eee:	853e                	mv	a0,a5
   11ef0:	4601                	li	a2,0
   11ef2:	4681                	li	a3,0
   11ef4:	4781                	li	a5,0
   11ef6:	45a5                	li	a1,9
   11ef8:	470d                	li	a4,3
   11efa:	00000073          	ecall
   11efe:	f3e9                	bnez	a5,11ec0 <_ZN18complex_no_dynamic3app17h1ca5be5a53618e16E+0x78>
   11f00:	6505                	lui	a0,0x1
   11f02:	69450493          	addi	s1,a0,1684 # 1694 <.Lline_table_start1+0x1469>
   11f06:	45a5                	li	a1,9
   11f08:	470d                	li	a4,3
   11f0a:	8526                	mv	a0,s1
   11f0c:	4601                	li	a2,0
   11f0e:	4681                	li	a3,0
   11f10:	00000073          	ecall
   11f14:	00140513          	addi	a0,s0,1
   11f18:	00ac                	addi	a1,sp,72
   11f1a:	4671                	li	a2,28
   11f1c:	0000b097          	auipc	ra,0xb
   11f20:	e14080e7          	jalr	-492(ra) # 1cd30 <memcpy>
   11f24:	8526                	mv	a0,s1
   11f26:	4601                	li	a2,0
   11f28:	4681                	li	a3,0
   11f2a:	00040023          	sb	zero,0(s0)
   11f2e:	45a5                	li	a1,9
   11f30:	470d                	li	a4,3
   11f32:	00000073          	ecall
   11f36:	4595                	li	a1,5
   11f38:	4711                	li	a4,4
   11f3a:	8526                	mv	a0,s1
   11f3c:	4601                	li	a2,0
   11f3e:	4681                	li	a3,0
   11f40:	00000073          	ecall
   11f44:	50b6                	lw	ra,108(sp)
   11f46:	5426                	lw	s0,104(sp)
   11f48:	5496                	lw	s1,100(sp)
   11f4a:	6165                	addi	sp,sp,112
   11f4c:	8082                	ret

00011f4e <_ZN18complex_no_dynamic3app17h1d86c41f4363bbd9E>:
   11f4e:	7175                	addi	sp,sp,-144
   11f50:	c706                	sw	ra,140(sp)
   11f52:	c522                	sw	s0,136(sp)
   11f54:	c326                	sw	s1,132(sp)
   11f56:	842a                	mv	s0,a0
   11f58:	00b10513          	addi	a0,sp,11
   11f5c:	03100613          	li	a2,49
   11f60:	0000b097          	auipc	ra,0xb
   11f64:	dd0080e7          	jalr	-560(ra) # 1cd30 <memcpy>
   11f68:	1868                	addi	a0,sp,60
   11f6a:	04800613          	li	a2,72
   11f6e:	4581                	li	a1,0
   11f70:	0000b097          	auipc	ra,0xb
   11f74:	d54080e7          	jalr	-684(ra) # 1ccc4 <memset>
   11f78:	6509                	lui	a0,0x2
   11f7a:	4591                	li	a1,4
   11f7c:	00b10613          	addi	a2,sp,11
   11f80:	03100693          	li	a3,49
   11f84:	80e50793          	addi	a5,a0,-2034 # 180e <.Lline_table_start1+0x15e3>
   11f88:	4711                	li	a4,4
   11f8a:	4489                	li	s1,2
   11f8c:	853e                	mv	a0,a5
   11f8e:	00000073          	ecall
   11f92:	02950a63          	beq	a0,s1,11fc6 <_ZN18complex_no_dynamic3app17h1d86c41f4363bbd9E+0x78>
   11f96:	458d                	li	a1,3
   11f98:	1870                	addi	a2,sp,60
   11f9a:	04800693          	li	a3,72
   11f9e:	470d                	li	a4,3
   11fa0:	853e                	mv	a0,a5
   11fa2:	00000073          	ecall
   11fa6:	02950063          	beq	a0,s1,11fc6 <_ZN18complex_no_dynamic3app17h1d86c41f4363bbd9E+0x78>
   11faa:	6509                	lui	a0,0x2
   11fac:	4591                	li	a1,4
   11fae:	460d                	li	a2,3
   11fb0:	80e50793          	addi	a5,a0,-2034 # 180e <.Lline_table_start1+0x15e3>
   11fb4:	4709                	li	a4,2
   11fb6:	07f00493          	li	s1,127
   11fba:	853e                	mv	a0,a5
   11fbc:	4681                	li	a3,0
   11fbe:	00000073          	ecall
   11fc2:	02a4eb63          	bltu	s1,a0,11ff8 <_ZN18complex_no_dynamic3app17h1d86c41f4363bbd9E+0xaa>
   11fc6:	4785                	li	a5,1
   11fc8:	c3a9                	beqz	a5,1200a <_ZN18complex_no_dynamic3app17h1d86c41f4363bbd9E+0xbc>
   11fca:	4601                	li	a2,0
   11fcc:	4681                	li	a3,0
   11fce:	4505                	li	a0,1
   11fd0:	6709                	lui	a4,0x2
   11fd2:	87ae                	mv	a5,a1
   11fd4:	458d                	li	a1,3
   11fd6:	00a40023          	sb	a0,0(s0)
   11fda:	c05c                	sw	a5,4(s0)
   11fdc:	80e70793          	addi	a5,a4,-2034 # 180e <.Lline_table_start1+0x15e3>
   11fe0:	470d                	li	a4,3
   11fe2:	853e                	mv	a0,a5
   11fe4:	00000073          	ecall
   11fe8:	4591                	li	a1,4
   11fea:	4711                	li	a4,4
   11fec:	853e                	mv	a0,a5
   11fee:	4601                	li	a2,0
   11ff0:	4681                	li	a3,0
   11ff2:	00000073          	ecall
   11ff6:	a8a9                	j	12050 <_ZN18complex_no_dynamic3app17h1d86c41f4363bbd9E+0x102>
   11ff8:	853e                	mv	a0,a5
   11ffa:	4601                	li	a2,0
   11ffc:	4681                	li	a3,0
   11ffe:	4781                	li	a5,0
   12000:	458d                	li	a1,3
   12002:	470d                	li	a4,3
   12004:	00000073          	ecall
   12008:	f3e9                	bnez	a5,11fca <_ZN18complex_no_dynamic3app17h1d86c41f4363bbd9E+0x7c>
   1200a:	6509                	lui	a0,0x2
   1200c:	80e50493          	addi	s1,a0,-2034 # 180e <.Lline_table_start1+0x15e3>
   12010:	458d                	li	a1,3
   12012:	470d                	li	a4,3
   12014:	8526                	mv	a0,s1
   12016:	4601                	li	a2,0
   12018:	4681                	li	a3,0
   1201a:	00000073          	ecall
   1201e:	00140513          	addi	a0,s0,1
   12022:	186c                	addi	a1,sp,60
   12024:	04800613          	li	a2,72
   12028:	0000b097          	auipc	ra,0xb
   1202c:	d08080e7          	jalr	-760(ra) # 1cd30 <memcpy>
   12030:	8526                	mv	a0,s1
   12032:	4601                	li	a2,0
   12034:	4681                	li	a3,0
   12036:	00040023          	sb	zero,0(s0)
   1203a:	458d                	li	a1,3
   1203c:	470d                	li	a4,3
   1203e:	00000073          	ecall
   12042:	4591                	li	a1,4
   12044:	4711                	li	a4,4
   12046:	8526                	mv	a0,s1
   12048:	4601                	li	a2,0
   1204a:	4681                	li	a3,0
   1204c:	00000073          	ecall
   12050:	40ba                	lw	ra,140(sp)
   12052:	442a                	lw	s0,136(sp)
   12054:	449a                	lw	s1,132(sp)
   12056:	6149                	addi	sp,sp,144
   12058:	8082                	ret

0001205a <_ZN18complex_no_dynamic3app17h1db37231d9e7d569E>:
   1205a:	711d                	addi	sp,sp,-96
   1205c:	ce86                	sw	ra,92(sp)
   1205e:	cca2                	sw	s0,88(sp)
   12060:	caa6                	sw	s1,84(sp)
   12062:	c8ca                	sw	s2,80(sp)
   12064:	892a                	mv	s2,a0
   12066:	0145c803          	lbu	a6,20(a1)
   1206a:	0155c383          	lbu	t2,21(a1)
   1206e:	0165c403          	lbu	s0,22(a1)
   12072:	0175c703          	lbu	a4,23(a1)
   12076:	0105c783          	lbu	a5,16(a1)
   1207a:	0115c683          	lbu	a3,17(a1)
   1207e:	0125c283          	lbu	t0,18(a1)
   12082:	0135c303          	lbu	t1,19(a1)
   12086:	00c5c883          	lbu	a7,12(a1)
   1208a:	00d5c483          	lbu	s1,13(a1)
   1208e:	00e5c503          	lbu	a0,14(a1)
   12092:	00f5c603          	lbu	a2,15(a1)
   12096:	03a2                	slli	t2,t2,0x8
   12098:	0442                	slli	s0,s0,0x10
   1209a:	0762                	slli	a4,a4,0x18
   1209c:	06a2                	slli	a3,a3,0x8
   1209e:	0103e833          	or	a6,t2,a6
   120a2:	00876e33          	or	t3,a4,s0
   120a6:	00f6e3b3          	or	t2,a3,a5
   120aa:	0085c703          	lbu	a4,8(a1)
   120ae:	0095c783          	lbu	a5,9(a1)
   120b2:	00a5c683          	lbu	a3,10(a1)
   120b6:	00b5c403          	lbu	s0,11(a1)
   120ba:	02c2                	slli	t0,t0,0x10
   120bc:	0362                	slli	t1,t1,0x18
   120be:	04a2                	slli	s1,s1,0x8
   120c0:	0542                	slli	a0,a0,0x10
   120c2:	0662                	slli	a2,a2,0x18
   120c4:	07a2                	slli	a5,a5,0x8
   120c6:	005362b3          	or	t0,t1,t0
   120ca:	0114e8b3          	or	a7,s1,a7
   120ce:	00a66333          	or	t1,a2,a0
   120d2:	00e7eeb3          	or	t4,a5,a4
   120d6:	0045c603          	lbu	a2,4(a1)
   120da:	0055c783          	lbu	a5,5(a1)
   120de:	0065c483          	lbu	s1,6(a1)
   120e2:	0075c503          	lbu	a0,7(a1)
   120e6:	06c2                	slli	a3,a3,0x10
   120e8:	0462                	slli	s0,s0,0x18
   120ea:	07a2                	slli	a5,a5,0x8
   120ec:	04c2                	slli	s1,s1,0x10
   120ee:	0562                	slli	a0,a0,0x18
   120f0:	8ec1                	or	a3,a3,s0
   120f2:	8e5d                	or	a2,a2,a5
   120f4:	0005c783          	lbu	a5,0(a1)
   120f8:	0015c403          	lbu	s0,1(a1)
   120fc:	8d45                	or	a0,a0,s1
   120fe:	0025c483          	lbu	s1,2(a1)
   12102:	0035c583          	lbu	a1,3(a1)
   12106:	0422                	slli	s0,s0,0x8
   12108:	8fc1                	or	a5,a5,s0
   1210a:	04c2                	slli	s1,s1,0x10
   1210c:	05e2                	slli	a1,a1,0x18
   1210e:	8dc5                	or	a1,a1,s1
   12110:	010e64b3          	or	s1,t3,a6
   12114:	0072e433          	or	s0,t0,t2
   12118:	01136733          	or	a4,t1,a7
   1211c:	01d6e6b3          	or	a3,a3,t4
   12120:	8d51                	or	a0,a0,a2
   12122:	8ddd                	or	a1,a1,a5
   12124:	c822                	sw	s0,16(sp)
   12126:	ca26                	sw	s1,20(sp)
   12128:	c02e                	sw	a1,0(sp)
   1212a:	c22a                	sw	a0,4(sp)
   1212c:	c436                	sw	a3,8(sp)
   1212e:	c63a                	sw	a4,12(sp)
   12130:	01a10513          	addi	a0,sp,26
   12134:	03600613          	li	a2,54
   12138:	4581                	li	a1,0
   1213a:	0000b097          	auipc	ra,0xb
   1213e:	b8a080e7          	jalr	-1142(ra) # 1ccc4 <memset>
   12142:	0f300513          	li	a0,243
   12146:	45a1                	li	a1,8
   12148:	860a                	mv	a2,sp
   1214a:	46e1                	li	a3,24
   1214c:	4711                	li	a4,4
   1214e:	4789                	li	a5,2
   12150:	00000073          	ecall
   12154:	02f50a63          	beq	a0,a5,12188 <_ZN18complex_no_dynamic3app17h1db37231d9e7d569E+0x12e>
   12158:	0f300513          	li	a0,243
   1215c:	4591                	li	a1,4
   1215e:	01a10613          	addi	a2,sp,26
   12162:	03600693          	li	a3,54
   12166:	470d                	li	a4,3
   12168:	00000073          	ecall
   1216c:	00f50e63          	beq	a0,a5,12188 <_ZN18complex_no_dynamic3app17h1db37231d9e7d569E+0x12e>
   12170:	0f300513          	li	a0,243
   12174:	45a1                	li	a1,8
   12176:	4611                	li	a2,4
   12178:	4709                	li	a4,2
   1217a:	07f00793          	li	a5,127
   1217e:	4681                	li	a3,0
   12180:	00000073          	ecall
   12184:	02a7ea63          	bltu	a5,a0,121b8 <_ZN18complex_no_dynamic3app17h1db37231d9e7d569E+0x15e>
   12188:	4785                	li	a5,1
   1218a:	c3a9                	beqz	a5,121cc <_ZN18complex_no_dynamic3app17h1db37231d9e7d569E+0x172>
   1218c:	4601                	li	a2,0
   1218e:	4681                	li	a3,0
   12190:	4705                	li	a4,1
   12192:	0f300513          	li	a0,243
   12196:	00e90023          	sb	a4,0(s2)
   1219a:	00b92223          	sw	a1,4(s2)
   1219e:	4591                	li	a1,4
   121a0:	470d                	li	a4,3
   121a2:	00000073          	ecall
   121a6:	0f300513          	li	a0,243
   121aa:	45a1                	li	a1,8
   121ac:	4711                	li	a4,4
   121ae:	4601                	li	a2,0
   121b0:	4681                	li	a3,0
   121b2:	00000073          	ecall
   121b6:	a8b9                	j	12214 <_ZN18complex_no_dynamic3app17h1db37231d9e7d569E+0x1ba>
   121b8:	4601                	li	a2,0
   121ba:	4681                	li	a3,0
   121bc:	4781                	li	a5,0
   121be:	0f300513          	li	a0,243
   121c2:	4591                	li	a1,4
   121c4:	470d                	li	a4,3
   121c6:	00000073          	ecall
   121ca:	f3e9                	bnez	a5,1218c <_ZN18complex_no_dynamic3app17h1db37231d9e7d569E+0x132>
   121cc:	0f300513          	li	a0,243
   121d0:	4591                	li	a1,4
   121d2:	470d                	li	a4,3
   121d4:	4601                	li	a2,0
   121d6:	4681                	li	a3,0
   121d8:	00000073          	ecall
   121dc:	00190513          	addi	a0,s2,1
   121e0:	01a10593          	addi	a1,sp,26
   121e4:	03600613          	li	a2,54
   121e8:	0000b097          	auipc	ra,0xb
   121ec:	b48080e7          	jalr	-1208(ra) # 1cd30 <memcpy>
   121f0:	4601                	li	a2,0
   121f2:	4681                	li	a3,0
   121f4:	00090023          	sb	zero,0(s2)
   121f8:	0f300513          	li	a0,243
   121fc:	4591                	li	a1,4
   121fe:	470d                	li	a4,3
   12200:	00000073          	ecall
   12204:	0f300513          	li	a0,243
   12208:	45a1                	li	a1,8
   1220a:	4711                	li	a4,4
   1220c:	4601                	li	a2,0
   1220e:	4681                	li	a3,0
   12210:	00000073          	ecall
   12214:	40f6                	lw	ra,92(sp)
   12216:	4466                	lw	s0,88(sp)
   12218:	44d6                	lw	s1,84(sp)
   1221a:	4946                	lw	s2,80(sp)
   1221c:	6125                	addi	sp,sp,96
   1221e:	8082                	ret

00012220 <_ZN18complex_no_dynamic3app17h1f0413a463be90ddE>:
   12220:	711d                	addi	sp,sp,-96
   12222:	ce86                	sw	ra,92(sp)
   12224:	cca2                	sw	s0,88(sp)
   12226:	caa6                	sw	s1,84(sp)
   12228:	842a                	mv	s0,a0
   1222a:	00f10513          	addi	a0,sp,15
   1222e:	02900613          	li	a2,41
   12232:	0000b097          	auipc	ra,0xb
   12236:	afe080e7          	jalr	-1282(ra) # 1cd30 <memcpy>
   1223a:	c482                	sw	zero,72(sp)
   1223c:	c682                	sw	zero,76(sp)
   1223e:	04011823          	sh	zero,80(sp)
   12242:	dc02                	sw	zero,56(sp)
   12244:	de02                	sw	zero,60(sp)
   12246:	c082                	sw	zero,64(sp)
   12248:	c282                	sw	zero,68(sp)
   1224a:	6509                	lui	a0,0x2
   1224c:	4595                	li	a1,5
   1224e:	00f10613          	addi	a2,sp,15
   12252:	02900693          	li	a3,41
   12256:	04850793          	addi	a5,a0,72 # 2048 <.Lline_table_start1+0x1e1d>
   1225a:	4711                	li	a4,4
   1225c:	4489                	li	s1,2
   1225e:	853e                	mv	a0,a5
   12260:	00000073          	ecall
   12264:	02950963          	beq	a0,s1,12296 <_ZN18complex_no_dynamic3app17h1f0413a463be90ddE+0x76>
   12268:	458d                	li	a1,3
   1226a:	1830                	addi	a2,sp,56
   1226c:	46e9                	li	a3,26
   1226e:	470d                	li	a4,3
   12270:	853e                	mv	a0,a5
   12272:	00000073          	ecall
   12276:	02950063          	beq	a0,s1,12296 <_ZN18complex_no_dynamic3app17h1f0413a463be90ddE+0x76>
   1227a:	6509                	lui	a0,0x2
   1227c:	4595                	li	a1,5
   1227e:	460d                	li	a2,3
   12280:	04850793          	addi	a5,a0,72 # 2048 <.Lline_table_start1+0x1e1d>
   12284:	4709                	li	a4,2
   12286:	07f00493          	li	s1,127
   1228a:	853e                	mv	a0,a5
   1228c:	4681                	li	a3,0
   1228e:	00000073          	ecall
   12292:	02a4eb63          	bltu	s1,a0,122c8 <_ZN18complex_no_dynamic3app17h1f0413a463be90ddE+0xa8>
   12296:	4785                	li	a5,1
   12298:	c3a9                	beqz	a5,122da <_ZN18complex_no_dynamic3app17h1f0413a463be90ddE+0xba>
   1229a:	4601                	li	a2,0
   1229c:	4681                	li	a3,0
   1229e:	4505                	li	a0,1
   122a0:	6709                	lui	a4,0x2
   122a2:	87ae                	mv	a5,a1
   122a4:	458d                	li	a1,3
   122a6:	00a40023          	sb	a0,0(s0)
   122aa:	c05c                	sw	a5,4(s0)
   122ac:	04870793          	addi	a5,a4,72 # 2048 <.Lline_table_start1+0x1e1d>
   122b0:	470d                	li	a4,3
   122b2:	853e                	mv	a0,a5
   122b4:	00000073          	ecall
   122b8:	4595                	li	a1,5
   122ba:	4711                	li	a4,4
   122bc:	853e                	mv	a0,a5
   122be:	4601                	li	a2,0
   122c0:	4681                	li	a3,0
   122c2:	00000073          	ecall
   122c6:	a8a1                	j	1231e <_ZN18complex_no_dynamic3app17h1f0413a463be90ddE+0xfe>
   122c8:	853e                	mv	a0,a5
   122ca:	4601                	li	a2,0
   122cc:	4681                	li	a3,0
   122ce:	4781                	li	a5,0
   122d0:	458d                	li	a1,3
   122d2:	470d                	li	a4,3
   122d4:	00000073          	ecall
   122d8:	f3e9                	bnez	a5,1229a <_ZN18complex_no_dynamic3app17h1f0413a463be90ddE+0x7a>
   122da:	6509                	lui	a0,0x2
   122dc:	04850493          	addi	s1,a0,72 # 2048 <.Lline_table_start1+0x1e1d>
   122e0:	458d                	li	a1,3
   122e2:	470d                	li	a4,3
   122e4:	8526                	mv	a0,s1
   122e6:	4601                	li	a2,0
   122e8:	4681                	li	a3,0
   122ea:	00000073          	ecall
   122ee:	00140513          	addi	a0,s0,1
   122f2:	182c                	addi	a1,sp,56
   122f4:	4669                	li	a2,26
   122f6:	0000b097          	auipc	ra,0xb
   122fa:	a3a080e7          	jalr	-1478(ra) # 1cd30 <memcpy>
   122fe:	8526                	mv	a0,s1
   12300:	4601                	li	a2,0
   12302:	4681                	li	a3,0
   12304:	00040023          	sb	zero,0(s0)
   12308:	458d                	li	a1,3
   1230a:	470d                	li	a4,3
   1230c:	00000073          	ecall
   12310:	4595                	li	a1,5
   12312:	4711                	li	a4,4
   12314:	8526                	mv	a0,s1
   12316:	4601                	li	a2,0
   12318:	4681                	li	a3,0
   1231a:	00000073          	ecall
   1231e:	40f6                	lw	ra,92(sp)
   12320:	4466                	lw	s0,88(sp)
   12322:	44d6                	lw	s1,84(sp)
   12324:	6125                	addi	sp,sp,96
   12326:	8082                	ret

00012328 <_ZN18complex_no_dynamic3app17h204d631e1dc56072E>:
   12328:	711d                	addi	sp,sp,-96
   1232a:	ce86                	sw	ra,92(sp)
   1232c:	cca2                	sw	s0,88(sp)
   1232e:	caa6                	sw	s1,84(sp)
   12330:	842a                	mv	s0,a0
   12332:	00510513          	addi	a0,sp,5
   12336:	02500613          	li	a2,37
   1233a:	0000b097          	auipc	ra,0xb
   1233e:	9f6080e7          	jalr	-1546(ra) # 1cd30 <memcpy>
   12342:	02a10513          	addi	a0,sp,42
   12346:	02a00613          	li	a2,42
   1234a:	4581                	li	a1,0
   1234c:	0000b097          	auipc	ra,0xb
   12350:	978080e7          	jalr	-1672(ra) # 1ccc4 <memset>
   12354:	6505                	lui	a0,0x1
   12356:	00510613          	addi	a2,sp,5
   1235a:	02500693          	li	a3,37
   1235e:	93c50793          	addi	a5,a0,-1732 # 93c <.Lline_table_start1+0x711>
   12362:	4711                	li	a4,4
   12364:	4489                	li	s1,2
   12366:	853e                	mv	a0,a5
   12368:	4581                	li	a1,0
   1236a:	00000073          	ecall
   1236e:	02950b63          	beq	a0,s1,123a4 <_ZN18complex_no_dynamic3app17h204d631e1dc56072E+0x7c>
   12372:	458d                	li	a1,3
   12374:	02a10613          	addi	a2,sp,42
   12378:	02a00693          	li	a3,42
   1237c:	470d                	li	a4,3
   1237e:	853e                	mv	a0,a5
   12380:	00000073          	ecall
   12384:	02950063          	beq	a0,s1,123a4 <_ZN18complex_no_dynamic3app17h204d631e1dc56072E+0x7c>
   12388:	6505                	lui	a0,0x1
   1238a:	460d                	li	a2,3
   1238c:	93c50793          	addi	a5,a0,-1732 # 93c <.Lline_table_start1+0x711>
   12390:	4709                	li	a4,2
   12392:	07f00493          	li	s1,127
   12396:	853e                	mv	a0,a5
   12398:	4581                	li	a1,0
   1239a:	4681                	li	a3,0
   1239c:	00000073          	ecall
   123a0:	02a4ea63          	bltu	s1,a0,123d4 <_ZN18complex_no_dynamic3app17h204d631e1dc56072E+0xac>
   123a4:	4785                	li	a5,1
   123a6:	c3a1                	beqz	a5,123e6 <_ZN18complex_no_dynamic3app17h204d631e1dc56072E+0xbe>
   123a8:	4505                	li	a0,1
   123aa:	6605                	lui	a2,0x1
   123ac:	00a40023          	sb	a0,0(s0)
   123b0:	c04c                	sw	a1,4(s0)
   123b2:	93c60793          	addi	a5,a2,-1732 # 93c <.Lline_table_start1+0x711>
   123b6:	458d                	li	a1,3
   123b8:	470d                	li	a4,3
   123ba:	853e                	mv	a0,a5
   123bc:	4601                	li	a2,0
   123be:	4681                	li	a3,0
   123c0:	00000073          	ecall
   123c4:	4711                	li	a4,4
   123c6:	853e                	mv	a0,a5
   123c8:	4581                	li	a1,0
   123ca:	4601                	li	a2,0
   123cc:	4681                	li	a3,0
   123ce:	00000073          	ecall
   123d2:	a8b1                	j	1242e <_ZN18complex_no_dynamic3app17h204d631e1dc56072E+0x106>
   123d4:	853e                	mv	a0,a5
   123d6:	4601                	li	a2,0
   123d8:	4681                	li	a3,0
   123da:	4781                	li	a5,0
   123dc:	458d                	li	a1,3
   123de:	470d                	li	a4,3
   123e0:	00000073          	ecall
   123e4:	f3f1                	bnez	a5,123a8 <_ZN18complex_no_dynamic3app17h204d631e1dc56072E+0x80>
   123e6:	6505                	lui	a0,0x1
   123e8:	93c50493          	addi	s1,a0,-1732 # 93c <.Lline_table_start1+0x711>
   123ec:	458d                	li	a1,3
   123ee:	470d                	li	a4,3
   123f0:	8526                	mv	a0,s1
   123f2:	4601                	li	a2,0
   123f4:	4681                	li	a3,0
   123f6:	00000073          	ecall
   123fa:	00140513          	addi	a0,s0,1
   123fe:	02a10593          	addi	a1,sp,42
   12402:	02a00613          	li	a2,42
   12406:	0000b097          	auipc	ra,0xb
   1240a:	92a080e7          	jalr	-1750(ra) # 1cd30 <memcpy>
   1240e:	00040023          	sb	zero,0(s0)
   12412:	458d                	li	a1,3
   12414:	470d                	li	a4,3
   12416:	8526                	mv	a0,s1
   12418:	4601                	li	a2,0
   1241a:	4681                	li	a3,0
   1241c:	00000073          	ecall
   12420:	4711                	li	a4,4
   12422:	8526                	mv	a0,s1
   12424:	4581                	li	a1,0
   12426:	4601                	li	a2,0
   12428:	4681                	li	a3,0
   1242a:	00000073          	ecall
   1242e:	40f6                	lw	ra,92(sp)
   12430:	4466                	lw	s0,88(sp)
   12432:	44d6                	lw	s1,84(sp)
   12434:	6125                	addi	sp,sp,96
   12436:	8082                	ret

00012438 <_ZN18complex_no_dynamic3app17h26af9df7f0c82e8fE>:
   12438:	711d                	addi	sp,sp,-96
   1243a:	ce86                	sw	ra,92(sp)
   1243c:	cca2                	sw	s0,88(sp)
   1243e:	842a                	mv	s0,a0
   12440:	00710513          	addi	a0,sp,7
   12444:	02c00613          	li	a2,44
   12448:	0000b097          	auipc	ra,0xb
   1244c:	8e8080e7          	jalr	-1816(ra) # 1cd30 <memcpy>
   12450:	03310513          	addi	a0,sp,51
   12454:	02500613          	li	a2,37
   12458:	4581                	li	a1,0
   1245a:	0000b097          	auipc	ra,0xb
   1245e:	86a080e7          	jalr	-1942(ra) # 1ccc4 <memset>
   12462:	77f00513          	li	a0,1919
   12466:	458d                	li	a1,3
   12468:	00710613          	addi	a2,sp,7
   1246c:	02c00693          	li	a3,44
   12470:	4711                	li	a4,4
   12472:	4789                	li	a5,2
   12474:	00000073          	ecall
   12478:	02f50a63          	beq	a0,a5,124ac <_ZN18complex_no_dynamic3app17h26af9df7f0c82e8fE+0x74>
   1247c:	77f00513          	li	a0,1919
   12480:	03310613          	addi	a2,sp,51
   12484:	02500693          	li	a3,37
   12488:	470d                	li	a4,3
   1248a:	4581                	li	a1,0
   1248c:	00000073          	ecall
   12490:	00f50e63          	beq	a0,a5,124ac <_ZN18complex_no_dynamic3app17h26af9df7f0c82e8fE+0x74>
   12494:	77f00513          	li	a0,1919
   12498:	458d                	li	a1,3
   1249a:	4709                	li	a4,2
   1249c:	07f00793          	li	a5,127
   124a0:	4601                	li	a2,0
   124a2:	4681                	li	a3,0
   124a4:	00000073          	ecall
   124a8:	02a7ea63          	bltu	a5,a0,124dc <_ZN18complex_no_dynamic3app17h26af9df7f0c82e8fE+0xa4>
   124ac:	4785                	li	a5,1
   124ae:	c3a9                	beqz	a5,124f0 <_ZN18complex_no_dynamic3app17h26af9df7f0c82e8fE+0xb8>
   124b0:	852e                	mv	a0,a1
   124b2:	4581                	li	a1,0
   124b4:	4601                	li	a2,0
   124b6:	4681                	li	a3,0
   124b8:	4705                	li	a4,1
   124ba:	00e40023          	sb	a4,0(s0)
   124be:	c048                	sw	a0,4(s0)
   124c0:	77f00513          	li	a0,1919
   124c4:	470d                	li	a4,3
   124c6:	00000073          	ecall
   124ca:	77f00513          	li	a0,1919
   124ce:	458d                	li	a1,3
   124d0:	4711                	li	a4,4
   124d2:	4601                	li	a2,0
   124d4:	4681                	li	a3,0
   124d6:	00000073          	ecall
   124da:	a8b9                	j	12538 <_ZN18complex_no_dynamic3app17h26af9df7f0c82e8fE+0x100>
   124dc:	4581                	li	a1,0
   124de:	4601                	li	a2,0
   124e0:	4681                	li	a3,0
   124e2:	4781                	li	a5,0
   124e4:	77f00513          	li	a0,1919
   124e8:	470d                	li	a4,3
   124ea:	00000073          	ecall
   124ee:	f3e9                	bnez	a5,124b0 <_ZN18complex_no_dynamic3app17h26af9df7f0c82e8fE+0x78>
   124f0:	77f00513          	li	a0,1919
   124f4:	470d                	li	a4,3
   124f6:	4581                	li	a1,0
   124f8:	4601                	li	a2,0
   124fa:	4681                	li	a3,0
   124fc:	00000073          	ecall
   12500:	00140513          	addi	a0,s0,1
   12504:	03310593          	addi	a1,sp,51
   12508:	02500613          	li	a2,37
   1250c:	0000b097          	auipc	ra,0xb
   12510:	824080e7          	jalr	-2012(ra) # 1cd30 <memcpy>
   12514:	4581                	li	a1,0
   12516:	4601                	li	a2,0
   12518:	4681                	li	a3,0
   1251a:	00040023          	sb	zero,0(s0)
   1251e:	77f00513          	li	a0,1919
   12522:	470d                	li	a4,3
   12524:	00000073          	ecall
   12528:	77f00513          	li	a0,1919
   1252c:	458d                	li	a1,3
   1252e:	4711                	li	a4,4
   12530:	4601                	li	a2,0
   12532:	4681                	li	a3,0
   12534:	00000073          	ecall
   12538:	40f6                	lw	ra,92(sp)
   1253a:	4466                	lw	s0,88(sp)
   1253c:	6125                	addi	sp,sp,96
   1253e:	8082                	ret

00012540 <_ZN18complex_no_dynamic3app17h2718aa5a2582825bE>:
   12540:	711d                	addi	sp,sp,-96
   12542:	ce86                	sw	ra,92(sp)
   12544:	cca2                	sw	s0,88(sp)
   12546:	caa6                	sw	s1,84(sp)
   12548:	842a                	mv	s0,a0
   1254a:	00210513          	addi	a0,sp,2
   1254e:	02a00613          	li	a2,42
   12552:	0000a097          	auipc	ra,0xa
   12556:	7de080e7          	jalr	2014(ra) # 1cd30 <memcpy>
   1255a:	1068                	addi	a0,sp,44
   1255c:	02800613          	li	a2,40
   12560:	4581                	li	a1,0
   12562:	0000a097          	auipc	ra,0xa
   12566:	762080e7          	jalr	1890(ra) # 1ccc4 <memset>
   1256a:	6509                	lui	a0,0x2
   1256c:	4591                	li	a1,4
   1256e:	00210613          	addi	a2,sp,2
   12572:	02a00693          	li	a3,42
   12576:	efa50793          	addi	a5,a0,-262 # 1efa <.Lline_table_start1+0x1ccf>
   1257a:	4711                	li	a4,4
   1257c:	4489                	li	s1,2
   1257e:	853e                	mv	a0,a5
   12580:	00000073          	ecall
   12584:	02950a63          	beq	a0,s1,125b8 <_ZN18complex_no_dynamic3app17h2718aa5a2582825bE+0x78>
   12588:	45a1                	li	a1,8
   1258a:	1070                	addi	a2,sp,44
   1258c:	02800693          	li	a3,40
   12590:	470d                	li	a4,3
   12592:	853e                	mv	a0,a5
   12594:	00000073          	ecall
   12598:	02950063          	beq	a0,s1,125b8 <_ZN18complex_no_dynamic3app17h2718aa5a2582825bE+0x78>
   1259c:	6509                	lui	a0,0x2
   1259e:	4591                	li	a1,4
   125a0:	4621                	li	a2,8
   125a2:	efa50793          	addi	a5,a0,-262 # 1efa <.Lline_table_start1+0x1ccf>
   125a6:	4709                	li	a4,2
   125a8:	07f00493          	li	s1,127
   125ac:	853e                	mv	a0,a5
   125ae:	4681                	li	a3,0
   125b0:	00000073          	ecall
   125b4:	02a4eb63          	bltu	s1,a0,125ea <_ZN18complex_no_dynamic3app17h2718aa5a2582825bE+0xaa>
   125b8:	4785                	li	a5,1
   125ba:	c3a9                	beqz	a5,125fc <_ZN18complex_no_dynamic3app17h2718aa5a2582825bE+0xbc>
   125bc:	4601                	li	a2,0
   125be:	4681                	li	a3,0
   125c0:	4505                	li	a0,1
   125c2:	6709                	lui	a4,0x2
   125c4:	87ae                	mv	a5,a1
   125c6:	45a1                	li	a1,8
   125c8:	00a40023          	sb	a0,0(s0)
   125cc:	c05c                	sw	a5,4(s0)
   125ce:	efa70793          	addi	a5,a4,-262 # 1efa <.Lline_table_start1+0x1ccf>
   125d2:	470d                	li	a4,3
   125d4:	853e                	mv	a0,a5
   125d6:	00000073          	ecall
   125da:	4591                	li	a1,4
   125dc:	4711                	li	a4,4
   125de:	853e                	mv	a0,a5
   125e0:	4601                	li	a2,0
   125e2:	4681                	li	a3,0
   125e4:	00000073          	ecall
   125e8:	a8a9                	j	12642 <_ZN18complex_no_dynamic3app17h2718aa5a2582825bE+0x102>
   125ea:	853e                	mv	a0,a5
   125ec:	4601                	li	a2,0
   125ee:	4681                	li	a3,0
   125f0:	4781                	li	a5,0
   125f2:	45a1                	li	a1,8
   125f4:	470d                	li	a4,3
   125f6:	00000073          	ecall
   125fa:	f3e9                	bnez	a5,125bc <_ZN18complex_no_dynamic3app17h2718aa5a2582825bE+0x7c>
   125fc:	6509                	lui	a0,0x2
   125fe:	efa50493          	addi	s1,a0,-262 # 1efa <.Lline_table_start1+0x1ccf>
   12602:	45a1                	li	a1,8
   12604:	470d                	li	a4,3
   12606:	8526                	mv	a0,s1
   12608:	4601                	li	a2,0
   1260a:	4681                	li	a3,0
   1260c:	00000073          	ecall
   12610:	00140513          	addi	a0,s0,1
   12614:	106c                	addi	a1,sp,44
   12616:	02800613          	li	a2,40
   1261a:	0000a097          	auipc	ra,0xa
   1261e:	716080e7          	jalr	1814(ra) # 1cd30 <memcpy>
   12622:	8526                	mv	a0,s1
   12624:	4601                	li	a2,0
   12626:	4681                	li	a3,0
   12628:	00040023          	sb	zero,0(s0)
   1262c:	45a1                	li	a1,8
   1262e:	470d                	li	a4,3
   12630:	00000073          	ecall
   12634:	4591                	li	a1,4
   12636:	4711                	li	a4,4
   12638:	8526                	mv	a0,s1
   1263a:	4601                	li	a2,0
   1263c:	4681                	li	a3,0
   1263e:	00000073          	ecall
   12642:	40f6                	lw	ra,92(sp)
   12644:	4466                	lw	s0,88(sp)
   12646:	44d6                	lw	s1,84(sp)
   12648:	6125                	addi	sp,sp,96
   1264a:	8082                	ret

0001264c <_ZN18complex_no_dynamic3app17h2a629cac391bb492E>:
   1264c:	715d                	addi	sp,sp,-80
   1264e:	c686                	sw	ra,76(sp)
   12650:	c4a2                	sw	s0,72(sp)
   12652:	c2a6                	sw	s1,68(sp)
   12654:	c0ca                	sw	s2,64(sp)
   12656:	892a                	mv	s2,a0
   12658:	0105c503          	lbu	a0,16(a1)
   1265c:	0115c603          	lbu	a2,17(a1)
   12660:	0125c803          	lbu	a6,18(a1)
   12664:	0135c303          	lbu	t1,19(a1)
   12668:	00c5c283          	lbu	t0,12(a1)
   1266c:	00d5c483          	lbu	s1,13(a1)
   12670:	00e5c403          	lbu	s0,14(a1)
   12674:	00f5c683          	lbu	a3,15(a1)
   12678:	0622                	slli	a2,a2,0x8
   1267a:	00a668b3          	or	a7,a2,a0
   1267e:	0085c603          	lbu	a2,8(a1)
   12682:	0095c503          	lbu	a0,9(a1)
   12686:	00a5c783          	lbu	a5,10(a1)
   1268a:	00b5c703          	lbu	a4,11(a1)
   1268e:	0842                	slli	a6,a6,0x10
   12690:	0362                	slli	t1,t1,0x18
   12692:	04a2                	slli	s1,s1,0x8
   12694:	0442                	slli	s0,s0,0x10
   12696:	06e2                	slli	a3,a3,0x18
   12698:	0522                	slli	a0,a0,0x8
   1269a:	01036833          	or	a6,t1,a6
   1269e:	0054e2b3          	or	t0,s1,t0
   126a2:	8ec1                	or	a3,a3,s0
   126a4:	00c56333          	or	t1,a0,a2
   126a8:	0045c603          	lbu	a2,4(a1)
   126ac:	0055c403          	lbu	s0,5(a1)
   126b0:	0065c483          	lbu	s1,6(a1)
   126b4:	0075c503          	lbu	a0,7(a1)
   126b8:	07c2                	slli	a5,a5,0x10
   126ba:	0762                	slli	a4,a4,0x18
   126bc:	0422                	slli	s0,s0,0x8
   126be:	04c2                	slli	s1,s1,0x10
   126c0:	0562                	slli	a0,a0,0x18
   126c2:	8f5d                	or	a4,a4,a5
   126c4:	8e41                	or	a2,a2,s0
   126c6:	0005c783          	lbu	a5,0(a1)
   126ca:	0015c403          	lbu	s0,1(a1)
   126ce:	8d45                	or	a0,a0,s1
   126d0:	0025c483          	lbu	s1,2(a1)
   126d4:	0035c583          	lbu	a1,3(a1)
   126d8:	0422                	slli	s0,s0,0x8
   126da:	8fc1                	or	a5,a5,s0
   126dc:	04c2                	slli	s1,s1,0x10
   126de:	05e2                	slli	a1,a1,0x18
   126e0:	8dc5                	or	a1,a1,s1
   126e2:	011864b3          	or	s1,a6,a7
   126e6:	0056e6b3          	or	a3,a3,t0
   126ea:	00676733          	or	a4,a4,t1
   126ee:	8d51                	or	a0,a0,a2
   126f0:	8ddd                	or	a1,a1,a5
   126f2:	c826                	sw	s1,16(sp)
   126f4:	c02e                	sw	a1,0(sp)
   126f6:	c22a                	sw	a0,4(sp)
   126f8:	c43a                	sw	a4,8(sp)
   126fa:	c636                	sw	a3,12(sp)
   126fc:	01510513          	addi	a0,sp,21
   12700:	02b00613          	li	a2,43
   12704:	4581                	li	a1,0
   12706:	0000a097          	auipc	ra,0xa
   1270a:	5be080e7          	jalr	1470(ra) # 1ccc4 <memset>
   1270e:	6509                	lui	a0,0x2
   12710:	45a1                	li	a1,8
   12712:	860a                	mv	a2,sp
   12714:	46d1                	li	a3,20
   12716:	39f50793          	addi	a5,a0,927 # 239f <.Lline_table_start1+0x2174>
   1271a:	4711                	li	a4,4
   1271c:	4489                	li	s1,2
   1271e:	853e                	mv	a0,a5
   12720:	00000073          	ecall
   12724:	02950b63          	beq	a0,s1,1275a <_ZN18complex_no_dynamic3app17h2a629cac391bb492E+0x10e>
   12728:	4591                	li	a1,4
   1272a:	01510613          	addi	a2,sp,21
   1272e:	02b00693          	li	a3,43
   12732:	470d                	li	a4,3
   12734:	853e                	mv	a0,a5
   12736:	00000073          	ecall
   1273a:	02950063          	beq	a0,s1,1275a <_ZN18complex_no_dynamic3app17h2a629cac391bb492E+0x10e>
   1273e:	6509                	lui	a0,0x2
   12740:	45a1                	li	a1,8
   12742:	4611                	li	a2,4
   12744:	39f50793          	addi	a5,a0,927 # 239f <.Lline_table_start1+0x2174>
   12748:	4709                	li	a4,2
   1274a:	07f00493          	li	s1,127
   1274e:	853e                	mv	a0,a5
   12750:	4681                	li	a3,0
   12752:	00000073          	ecall
   12756:	02a4ec63          	bltu	s1,a0,1278e <_ZN18complex_no_dynamic3app17h2a629cac391bb492E+0x142>
   1275a:	4785                	li	a5,1
   1275c:	c3b1                	beqz	a5,127a0 <_ZN18complex_no_dynamic3app17h2a629cac391bb492E+0x154>
   1275e:	4601                	li	a2,0
   12760:	4681                	li	a3,0
   12762:	4505                	li	a0,1
   12764:	6709                	lui	a4,0x2
   12766:	87ae                	mv	a5,a1
   12768:	4591                	li	a1,4
   1276a:	00a90023          	sb	a0,0(s2)
   1276e:	00f92223          	sw	a5,4(s2)
   12772:	39f70793          	addi	a5,a4,927 # 239f <.Lline_table_start1+0x2174>
   12776:	470d                	li	a4,3
   12778:	853e                	mv	a0,a5
   1277a:	00000073          	ecall
   1277e:	45a1                	li	a1,8
   12780:	4711                	li	a4,4
   12782:	853e                	mv	a0,a5
   12784:	4601                	li	a2,0
   12786:	4681                	li	a3,0
   12788:	00000073          	ecall
   1278c:	a8b1                	j	127e8 <_ZN18complex_no_dynamic3app17h2a629cac391bb492E+0x19c>
   1278e:	853e                	mv	a0,a5
   12790:	4601                	li	a2,0
   12792:	4681                	li	a3,0
   12794:	4781                	li	a5,0
   12796:	4591                	li	a1,4
   12798:	470d                	li	a4,3
   1279a:	00000073          	ecall
   1279e:	f3e1                	bnez	a5,1275e <_ZN18complex_no_dynamic3app17h2a629cac391bb492E+0x112>
   127a0:	6509                	lui	a0,0x2
   127a2:	39f50493          	addi	s1,a0,927 # 239f <.Lline_table_start1+0x2174>
   127a6:	4591                	li	a1,4
   127a8:	470d                	li	a4,3
   127aa:	8526                	mv	a0,s1
   127ac:	4601                	li	a2,0
   127ae:	4681                	li	a3,0
   127b0:	00000073          	ecall
   127b4:	00190513          	addi	a0,s2,1
   127b8:	01510593          	addi	a1,sp,21
   127bc:	02b00613          	li	a2,43
   127c0:	0000a097          	auipc	ra,0xa
   127c4:	570080e7          	jalr	1392(ra) # 1cd30 <memcpy>
   127c8:	8526                	mv	a0,s1
   127ca:	4601                	li	a2,0
   127cc:	4681                	li	a3,0
   127ce:	00090023          	sb	zero,0(s2)
   127d2:	4591                	li	a1,4
   127d4:	470d                	li	a4,3
   127d6:	00000073          	ecall
   127da:	45a1                	li	a1,8
   127dc:	4711                	li	a4,4
   127de:	8526                	mv	a0,s1
   127e0:	4601                	li	a2,0
   127e2:	4681                	li	a3,0
   127e4:	00000073          	ecall
   127e8:	40b6                	lw	ra,76(sp)
   127ea:	4426                	lw	s0,72(sp)
   127ec:	4496                	lw	s1,68(sp)
   127ee:	4906                	lw	s2,64(sp)
   127f0:	6161                	addi	sp,sp,80
   127f2:	8082                	ret

000127f4 <_ZN18complex_no_dynamic3app17h2adf430787cd0d93E>:
   127f4:	7119                	addi	sp,sp,-128
   127f6:	de86                	sw	ra,124(sp)
   127f8:	dca2                	sw	s0,120(sp)
   127fa:	daa6                	sw	s1,116(sp)
   127fc:	842a                	mv	s0,a0
   127fe:	00310513          	addi	a0,sp,3
   12802:	05d00613          	li	a2,93
   12806:	0000a097          	auipc	ra,0xa
   1280a:	52a080e7          	jalr	1322(ra) # 1cd30 <memcpy>
   1280e:	06011823          	sh	zero,112(sp)
   12812:	d082                	sw	zero,96(sp)
   12814:	d282                	sw	zero,100(sp)
   12816:	d482                	sw	zero,104(sp)
   12818:	d682                	sw	zero,108(sp)
   1281a:	6505                	lui	a0,0x1
   1281c:	00310613          	addi	a2,sp,3
   12820:	05d00693          	li	a3,93
   12824:	5f150793          	addi	a5,a0,1521 # 15f1 <.Lline_table_start1+0x13c6>
   12828:	4711                	li	a4,4
   1282a:	4489                	li	s1,2
   1282c:	853e                	mv	a0,a5
   1282e:	4581                	li	a1,0
   12830:	00000073          	ecall
   12834:	02950963          	beq	a0,s1,12866 <_ZN18complex_no_dynamic3app17h2adf430787cd0d93E+0x72>
   12838:	4589                	li	a1,2
   1283a:	1090                	addi	a2,sp,96
   1283c:	46c9                	li	a3,18
   1283e:	470d                	li	a4,3
   12840:	853e                	mv	a0,a5
   12842:	00000073          	ecall
   12846:	02950063          	beq	a0,s1,12866 <_ZN18complex_no_dynamic3app17h2adf430787cd0d93E+0x72>
   1284a:	6505                	lui	a0,0x1
   1284c:	4609                	li	a2,2
   1284e:	5f150793          	addi	a5,a0,1521 # 15f1 <.Lline_table_start1+0x13c6>
   12852:	4709                	li	a4,2
   12854:	07f00493          	li	s1,127
   12858:	853e                	mv	a0,a5
   1285a:	4581                	li	a1,0
   1285c:	4681                	li	a3,0
   1285e:	00000073          	ecall
   12862:	02a4ea63          	bltu	s1,a0,12896 <_ZN18complex_no_dynamic3app17h2adf430787cd0d93E+0xa2>
   12866:	4785                	li	a5,1
   12868:	c3a1                	beqz	a5,128a8 <_ZN18complex_no_dynamic3app17h2adf430787cd0d93E+0xb4>
   1286a:	4505                	li	a0,1
   1286c:	6605                	lui	a2,0x1
   1286e:	00a40023          	sb	a0,0(s0)
   12872:	c04c                	sw	a1,4(s0)
   12874:	5f160793          	addi	a5,a2,1521 # 15f1 <.Lline_table_start1+0x13c6>
   12878:	4589                	li	a1,2
   1287a:	470d                	li	a4,3
   1287c:	853e                	mv	a0,a5
   1287e:	4601                	li	a2,0
   12880:	4681                	li	a3,0
   12882:	00000073          	ecall
   12886:	4711                	li	a4,4
   12888:	853e                	mv	a0,a5
   1288a:	4581                	li	a1,0
   1288c:	4601                	li	a2,0
   1288e:	4681                	li	a3,0
   12890:	00000073          	ecall
   12894:	a8a1                	j	128ec <_ZN18complex_no_dynamic3app17h2adf430787cd0d93E+0xf8>
   12896:	853e                	mv	a0,a5
   12898:	4601                	li	a2,0
   1289a:	4681                	li	a3,0
   1289c:	4781                	li	a5,0
   1289e:	4589                	li	a1,2
   128a0:	470d                	li	a4,3
   128a2:	00000073          	ecall
   128a6:	f3f1                	bnez	a5,1286a <_ZN18complex_no_dynamic3app17h2adf430787cd0d93E+0x76>
   128a8:	6505                	lui	a0,0x1
   128aa:	5f150493          	addi	s1,a0,1521 # 15f1 <.Lline_table_start1+0x13c6>
   128ae:	4589                	li	a1,2
   128b0:	470d                	li	a4,3
   128b2:	8526                	mv	a0,s1
   128b4:	4601                	li	a2,0
   128b6:	4681                	li	a3,0
   128b8:	00000073          	ecall
   128bc:	00140513          	addi	a0,s0,1
   128c0:	108c                	addi	a1,sp,96
   128c2:	4649                	li	a2,18
   128c4:	0000a097          	auipc	ra,0xa
   128c8:	46c080e7          	jalr	1132(ra) # 1cd30 <memcpy>
   128cc:	00040023          	sb	zero,0(s0)
   128d0:	4589                	li	a1,2
   128d2:	470d                	li	a4,3
   128d4:	8526                	mv	a0,s1
   128d6:	4601                	li	a2,0
   128d8:	4681                	li	a3,0
   128da:	00000073          	ecall
   128de:	4711                	li	a4,4
   128e0:	8526                	mv	a0,s1
   128e2:	4581                	li	a1,0
   128e4:	4601                	li	a2,0
   128e6:	4681                	li	a3,0
   128e8:	00000073          	ecall
   128ec:	50f6                	lw	ra,124(sp)
   128ee:	5466                	lw	s0,120(sp)
   128f0:	54d6                	lw	s1,116(sp)
   128f2:	6109                	addi	sp,sp,128
   128f4:	8082                	ret

000128f6 <_ZN18complex_no_dynamic3app17h2d77d5fe17e99232E>:
   128f6:	7119                	addi	sp,sp,-128
   128f8:	de86                	sw	ra,124(sp)
   128fa:	dca2                	sw	s0,120(sp)
   128fc:	daa6                	sw	s1,116(sp)
   128fe:	842a                	mv	s0,a0
   12900:	0068                	addi	a0,sp,12
   12902:	03c00613          	li	a2,60
   12906:	0000a097          	auipc	ra,0xa
   1290a:	42a080e7          	jalr	1066(ra) # 1cd30 <memcpy>
   1290e:	00a8                	addi	a0,sp,72
   12910:	02c00613          	li	a2,44
   12914:	4581                	li	a1,0
   12916:	0000a097          	auipc	ra,0xa
   1291a:	3ae080e7          	jalr	942(ra) # 1ccc4 <memset>
   1291e:	6509                	lui	a0,0x2
   12920:	4595                	li	a1,5
   12922:	0070                	addi	a2,sp,12
   12924:	03c00693          	li	a3,60
   12928:	eac50793          	addi	a5,a0,-340 # 1eac <.Lline_table_start1+0x1c81>
   1292c:	4711                	li	a4,4
   1292e:	4489                	li	s1,2
   12930:	853e                	mv	a0,a5
   12932:	00000073          	ecall
   12936:	02950a63          	beq	a0,s1,1296a <_ZN18complex_no_dynamic3app17h2d77d5fe17e99232E+0x74>
   1293a:	459d                	li	a1,7
   1293c:	00b0                	addi	a2,sp,72
   1293e:	02c00693          	li	a3,44
   12942:	470d                	li	a4,3
   12944:	853e                	mv	a0,a5
   12946:	00000073          	ecall
   1294a:	02950063          	beq	a0,s1,1296a <_ZN18complex_no_dynamic3app17h2d77d5fe17e99232E+0x74>
   1294e:	6509                	lui	a0,0x2
   12950:	4595                	li	a1,5
   12952:	461d                	li	a2,7
   12954:	eac50793          	addi	a5,a0,-340 # 1eac <.Lline_table_start1+0x1c81>
   12958:	4709                	li	a4,2
   1295a:	07f00493          	li	s1,127
   1295e:	853e                	mv	a0,a5
   12960:	4681                	li	a3,0
   12962:	00000073          	ecall
   12966:	02a4eb63          	bltu	s1,a0,1299c <_ZN18complex_no_dynamic3app17h2d77d5fe17e99232E+0xa6>
   1296a:	4785                	li	a5,1
   1296c:	c3a9                	beqz	a5,129ae <_ZN18complex_no_dynamic3app17h2d77d5fe17e99232E+0xb8>
   1296e:	4601                	li	a2,0
   12970:	4681                	li	a3,0
   12972:	4505                	li	a0,1
   12974:	6709                	lui	a4,0x2
   12976:	87ae                	mv	a5,a1
   12978:	459d                	li	a1,7
   1297a:	00a40023          	sb	a0,0(s0)
   1297e:	c05c                	sw	a5,4(s0)
   12980:	eac70793          	addi	a5,a4,-340 # 1eac <.Lline_table_start1+0x1c81>
   12984:	470d                	li	a4,3
   12986:	853e                	mv	a0,a5
   12988:	00000073          	ecall
   1298c:	4595                	li	a1,5
   1298e:	4711                	li	a4,4
   12990:	853e                	mv	a0,a5
   12992:	4601                	li	a2,0
   12994:	4681                	li	a3,0
   12996:	00000073          	ecall
   1299a:	a8a9                	j	129f4 <_ZN18complex_no_dynamic3app17h2d77d5fe17e99232E+0xfe>
   1299c:	853e                	mv	a0,a5
   1299e:	4601                	li	a2,0
   129a0:	4681                	li	a3,0
   129a2:	4781                	li	a5,0
   129a4:	459d                	li	a1,7
   129a6:	470d                	li	a4,3
   129a8:	00000073          	ecall
   129ac:	f3e9                	bnez	a5,1296e <_ZN18complex_no_dynamic3app17h2d77d5fe17e99232E+0x78>
   129ae:	6509                	lui	a0,0x2
   129b0:	eac50493          	addi	s1,a0,-340 # 1eac <.Lline_table_start1+0x1c81>
   129b4:	459d                	li	a1,7
   129b6:	470d                	li	a4,3
   129b8:	8526                	mv	a0,s1
   129ba:	4601                	li	a2,0
   129bc:	4681                	li	a3,0
   129be:	00000073          	ecall
   129c2:	00140513          	addi	a0,s0,1
   129c6:	00ac                	addi	a1,sp,72
   129c8:	02c00613          	li	a2,44
   129cc:	0000a097          	auipc	ra,0xa
   129d0:	364080e7          	jalr	868(ra) # 1cd30 <memcpy>
   129d4:	8526                	mv	a0,s1
   129d6:	4601                	li	a2,0
   129d8:	4681                	li	a3,0
   129da:	00040023          	sb	zero,0(s0)
   129de:	459d                	li	a1,7
   129e0:	470d                	li	a4,3
   129e2:	00000073          	ecall
   129e6:	4595                	li	a1,5
   129e8:	4711                	li	a4,4
   129ea:	8526                	mv	a0,s1
   129ec:	4601                	li	a2,0
   129ee:	4681                	li	a3,0
   129f0:	00000073          	ecall
   129f4:	50f6                	lw	ra,124(sp)
   129f6:	5466                	lw	s0,120(sp)
   129f8:	54d6                	lw	s1,116(sp)
   129fa:	6109                	addi	sp,sp,128
   129fc:	8082                	ret

000129fe <_ZN18complex_no_dynamic3app17h2e6454ebd0c035e7E>:
   129fe:	7119                	addi	sp,sp,-128
   12a00:	de86                	sw	ra,124(sp)
   12a02:	dca2                	sw	s0,120(sp)
   12a04:	daa6                	sw	s1,116(sp)
   12a06:	842a                	mv	s0,a0
   12a08:	00110513          	addi	a0,sp,1
   12a0c:	03200613          	li	a2,50
   12a10:	0000a097          	auipc	ra,0xa
   12a14:	320080e7          	jalr	800(ra) # 1cd30 <memcpy>
   12a18:	03310513          	addi	a0,sp,51
   12a1c:	04100613          	li	a2,65
   12a20:	4581                	li	a1,0
   12a22:	0000a097          	auipc	ra,0xa
   12a26:	2a2080e7          	jalr	674(ra) # 1ccc4 <memset>
   12a2a:	6505                	lui	a0,0x1
   12a2c:	459d                	li	a1,7
   12a2e:	00110613          	addi	a2,sp,1
   12a32:	03200693          	li	a3,50
   12a36:	91d50793          	addi	a5,a0,-1763 # 91d <.Lline_table_start1+0x6f2>
   12a3a:	4711                	li	a4,4
   12a3c:	4489                	li	s1,2
   12a3e:	853e                	mv	a0,a5
   12a40:	00000073          	ecall
   12a44:	02950b63          	beq	a0,s1,12a7a <_ZN18complex_no_dynamic3app17h2e6454ebd0c035e7E+0x7c>
   12a48:	4595                	li	a1,5
   12a4a:	03310613          	addi	a2,sp,51
   12a4e:	04100693          	li	a3,65
   12a52:	470d                	li	a4,3
   12a54:	853e                	mv	a0,a5
   12a56:	00000073          	ecall
   12a5a:	02950063          	beq	a0,s1,12a7a <_ZN18complex_no_dynamic3app17h2e6454ebd0c035e7E+0x7c>
   12a5e:	6505                	lui	a0,0x1
   12a60:	459d                	li	a1,7
   12a62:	4615                	li	a2,5
   12a64:	91d50793          	addi	a5,a0,-1763 # 91d <.Lline_table_start1+0x6f2>
   12a68:	4709                	li	a4,2
   12a6a:	07f00493          	li	s1,127
   12a6e:	853e                	mv	a0,a5
   12a70:	4681                	li	a3,0
   12a72:	00000073          	ecall
   12a76:	02a4eb63          	bltu	s1,a0,12aac <_ZN18complex_no_dynamic3app17h2e6454ebd0c035e7E+0xae>
   12a7a:	4785                	li	a5,1
   12a7c:	c3a9                	beqz	a5,12abe <_ZN18complex_no_dynamic3app17h2e6454ebd0c035e7E+0xc0>
   12a7e:	4601                	li	a2,0
   12a80:	4681                	li	a3,0
   12a82:	4505                	li	a0,1
   12a84:	6705                	lui	a4,0x1
   12a86:	87ae                	mv	a5,a1
   12a88:	4595                	li	a1,5
   12a8a:	00a40023          	sb	a0,0(s0)
   12a8e:	c05c                	sw	a5,4(s0)
   12a90:	91d70793          	addi	a5,a4,-1763 # 91d <.Lline_table_start1+0x6f2>
   12a94:	470d                	li	a4,3
   12a96:	853e                	mv	a0,a5
   12a98:	00000073          	ecall
   12a9c:	459d                	li	a1,7
   12a9e:	4711                	li	a4,4
   12aa0:	853e                	mv	a0,a5
   12aa2:	4601                	li	a2,0
   12aa4:	4681                	li	a3,0
   12aa6:	00000073          	ecall
   12aaa:	a8b1                	j	12b06 <_ZN18complex_no_dynamic3app17h2e6454ebd0c035e7E+0x108>
   12aac:	853e                	mv	a0,a5
   12aae:	4601                	li	a2,0
   12ab0:	4681                	li	a3,0
   12ab2:	4781                	li	a5,0
   12ab4:	4595                	li	a1,5
   12ab6:	470d                	li	a4,3
   12ab8:	00000073          	ecall
   12abc:	f3e9                	bnez	a5,12a7e <_ZN18complex_no_dynamic3app17h2e6454ebd0c035e7E+0x80>
   12abe:	6505                	lui	a0,0x1
   12ac0:	91d50493          	addi	s1,a0,-1763 # 91d <.Lline_table_start1+0x6f2>
   12ac4:	4595                	li	a1,5
   12ac6:	470d                	li	a4,3
   12ac8:	8526                	mv	a0,s1
   12aca:	4601                	li	a2,0
   12acc:	4681                	li	a3,0
   12ace:	00000073          	ecall
   12ad2:	00140513          	addi	a0,s0,1
   12ad6:	03310593          	addi	a1,sp,51
   12ada:	04100613          	li	a2,65
   12ade:	0000a097          	auipc	ra,0xa
   12ae2:	252080e7          	jalr	594(ra) # 1cd30 <memcpy>
   12ae6:	8526                	mv	a0,s1
   12ae8:	4601                	li	a2,0
   12aea:	4681                	li	a3,0
   12aec:	00040023          	sb	zero,0(s0)
   12af0:	4595                	li	a1,5
   12af2:	470d                	li	a4,3
   12af4:	00000073          	ecall
   12af8:	459d                	li	a1,7
   12afa:	4711                	li	a4,4
   12afc:	8526                	mv	a0,s1
   12afe:	4601                	li	a2,0
   12b00:	4681                	li	a3,0
   12b02:	00000073          	ecall
   12b06:	50f6                	lw	ra,124(sp)
   12b08:	5466                	lw	s0,120(sp)
   12b0a:	54d6                	lw	s1,116(sp)
   12b0c:	6109                	addi	sp,sp,128
   12b0e:	8082                	ret

00012b10 <_ZN18complex_no_dynamic3app17h2ec8e12db458391eE>:
   12b10:	715d                	addi	sp,sp,-80
   12b12:	c686                	sw	ra,76(sp)
   12b14:	c4a2                	sw	s0,72(sp)
   12b16:	c2a6                	sw	s1,68(sp)
   12b18:	842a                	mv	s0,a0
   12b1a:	00710513          	addi	a0,sp,7
   12b1e:	02500613          	li	a2,37
   12b22:	0000a097          	auipc	ra,0xa
   12b26:	20e080e7          	jalr	526(ra) # 1cd30 <memcpy>
   12b2a:	de02                	sw	zero,60(sp)
   12b2c:	c082                	sw	zero,64(sp)
   12b2e:	d602                	sw	zero,44(sp)
   12b30:	d802                	sw	zero,48(sp)
   12b32:	da02                	sw	zero,52(sp)
   12b34:	dc02                	sw	zero,56(sp)
   12b36:	6505                	lui	a0,0x1
   12b38:	45a5                	li	a1,9
   12b3a:	00710613          	addi	a2,sp,7
   12b3e:	02500693          	li	a3,37
   12b42:	a7050793          	addi	a5,a0,-1424 # a70 <.Lline_table_start1+0x845>
   12b46:	4711                	li	a4,4
   12b48:	4489                	li	s1,2
   12b4a:	853e                	mv	a0,a5
   12b4c:	00000073          	ecall
   12b50:	02950963          	beq	a0,s1,12b82 <_ZN18complex_no_dynamic3app17h2ec8e12db458391eE+0x72>
   12b54:	45a1                	li	a1,8
   12b56:	1070                	addi	a2,sp,44
   12b58:	46e1                	li	a3,24
   12b5a:	470d                	li	a4,3
   12b5c:	853e                	mv	a0,a5
   12b5e:	00000073          	ecall
   12b62:	02950063          	beq	a0,s1,12b82 <_ZN18complex_no_dynamic3app17h2ec8e12db458391eE+0x72>
   12b66:	6505                	lui	a0,0x1
   12b68:	45a5                	li	a1,9
   12b6a:	4621                	li	a2,8
   12b6c:	a7050793          	addi	a5,a0,-1424 # a70 <.Lline_table_start1+0x845>
   12b70:	4709                	li	a4,2
   12b72:	07f00493          	li	s1,127
   12b76:	853e                	mv	a0,a5
   12b78:	4681                	li	a3,0
   12b7a:	00000073          	ecall
   12b7e:	02a4eb63          	bltu	s1,a0,12bb4 <_ZN18complex_no_dynamic3app17h2ec8e12db458391eE+0xa4>
   12b82:	4785                	li	a5,1
   12b84:	c3a9                	beqz	a5,12bc6 <_ZN18complex_no_dynamic3app17h2ec8e12db458391eE+0xb6>
   12b86:	4601                	li	a2,0
   12b88:	4681                	li	a3,0
   12b8a:	4505                	li	a0,1
   12b8c:	6705                	lui	a4,0x1
   12b8e:	87ae                	mv	a5,a1
   12b90:	45a1                	li	a1,8
   12b92:	00a40023          	sb	a0,0(s0)
   12b96:	c05c                	sw	a5,4(s0)
   12b98:	a7070793          	addi	a5,a4,-1424 # a70 <.Lline_table_start1+0x845>
   12b9c:	470d                	li	a4,3
   12b9e:	853e                	mv	a0,a5
   12ba0:	00000073          	ecall
   12ba4:	45a5                	li	a1,9
   12ba6:	4711                	li	a4,4
   12ba8:	853e                	mv	a0,a5
   12baa:	4601                	li	a2,0
   12bac:	4681                	li	a3,0
   12bae:	00000073          	ecall
   12bb2:	a8a1                	j	12c0a <_ZN18complex_no_dynamic3app17h2ec8e12db458391eE+0xfa>
   12bb4:	853e                	mv	a0,a5
   12bb6:	4601                	li	a2,0
   12bb8:	4681                	li	a3,0
   12bba:	4781                	li	a5,0
   12bbc:	45a1                	li	a1,8
   12bbe:	470d                	li	a4,3
   12bc0:	00000073          	ecall
   12bc4:	f3e9                	bnez	a5,12b86 <_ZN18complex_no_dynamic3app17h2ec8e12db458391eE+0x76>
   12bc6:	6505                	lui	a0,0x1
   12bc8:	a7050493          	addi	s1,a0,-1424 # a70 <.Lline_table_start1+0x845>
   12bcc:	45a1                	li	a1,8
   12bce:	470d                	li	a4,3
   12bd0:	8526                	mv	a0,s1
   12bd2:	4601                	li	a2,0
   12bd4:	4681                	li	a3,0
   12bd6:	00000073          	ecall
   12bda:	00140513          	addi	a0,s0,1
   12bde:	106c                	addi	a1,sp,44
   12be0:	4661                	li	a2,24
   12be2:	0000a097          	auipc	ra,0xa
   12be6:	14e080e7          	jalr	334(ra) # 1cd30 <memcpy>
   12bea:	8526                	mv	a0,s1
   12bec:	4601                	li	a2,0
   12bee:	4681                	li	a3,0
   12bf0:	00040023          	sb	zero,0(s0)
   12bf4:	45a1                	li	a1,8
   12bf6:	470d                	li	a4,3
   12bf8:	00000073          	ecall
   12bfc:	45a5                	li	a1,9
   12bfe:	4711                	li	a4,4
   12c00:	8526                	mv	a0,s1
   12c02:	4601                	li	a2,0
   12c04:	4681                	li	a3,0
   12c06:	00000073          	ecall
   12c0a:	40b6                	lw	ra,76(sp)
   12c0c:	4426                	lw	s0,72(sp)
   12c0e:	4496                	lw	s1,68(sp)
   12c10:	6161                	addi	sp,sp,80
   12c12:	8082                	ret

00012c14 <_ZN18complex_no_dynamic3app17h40cf91660b4bf541E>:
   12c14:	711d                	addi	sp,sp,-96
   12c16:	ce86                	sw	ra,92(sp)
   12c18:	cca2                	sw	s0,88(sp)
   12c1a:	caa6                	sw	s1,84(sp)
   12c1c:	842a                	mv	s0,a0
   12c1e:	0048                	addi	a0,sp,4
   12c20:	03400613          	li	a2,52
   12c24:	0000a097          	auipc	ra,0xa
   12c28:	10c080e7          	jalr	268(ra) # 1cd30 <memcpy>
   12c2c:	c482                	sw	zero,72(sp)
   12c2e:	c682                	sw	zero,76(sp)
   12c30:	04011823          	sh	zero,80(sp)
   12c34:	dc02                	sw	zero,56(sp)
   12c36:	de02                	sw	zero,60(sp)
   12c38:	c082                	sw	zero,64(sp)
   12c3a:	c282                	sw	zero,68(sp)
   12c3c:	6505                	lui	a0,0x1
   12c3e:	0050                	addi	a2,sp,4
   12c40:	03400693          	li	a3,52
   12c44:	2cc50793          	addi	a5,a0,716 # 12cc <.Lline_table_start1+0x10a1>
   12c48:	4711                	li	a4,4
   12c4a:	4489                	li	s1,2
   12c4c:	853e                	mv	a0,a5
   12c4e:	4581                	li	a1,0
   12c50:	00000073          	ecall
   12c54:	02950963          	beq	a0,s1,12c86 <_ZN18complex_no_dynamic3app17h40cf91660b4bf541E+0x72>
   12c58:	4595                	li	a1,5
   12c5a:	1830                	addi	a2,sp,56
   12c5c:	46e9                	li	a3,26
   12c5e:	470d                	li	a4,3
   12c60:	853e                	mv	a0,a5
   12c62:	00000073          	ecall
   12c66:	02950063          	beq	a0,s1,12c86 <_ZN18complex_no_dynamic3app17h40cf91660b4bf541E+0x72>
   12c6a:	6505                	lui	a0,0x1
   12c6c:	4615                	li	a2,5
   12c6e:	2cc50793          	addi	a5,a0,716 # 12cc <.Lline_table_start1+0x10a1>
   12c72:	4709                	li	a4,2
   12c74:	07f00493          	li	s1,127
   12c78:	853e                	mv	a0,a5
   12c7a:	4581                	li	a1,0
   12c7c:	4681                	li	a3,0
   12c7e:	00000073          	ecall
   12c82:	02a4ea63          	bltu	s1,a0,12cb6 <_ZN18complex_no_dynamic3app17h40cf91660b4bf541E+0xa2>
   12c86:	4785                	li	a5,1
   12c88:	c3a1                	beqz	a5,12cc8 <_ZN18complex_no_dynamic3app17h40cf91660b4bf541E+0xb4>
   12c8a:	4505                	li	a0,1
   12c8c:	6605                	lui	a2,0x1
   12c8e:	00a40023          	sb	a0,0(s0)
   12c92:	c04c                	sw	a1,4(s0)
   12c94:	2cc60793          	addi	a5,a2,716 # 12cc <.Lline_table_start1+0x10a1>
   12c98:	4595                	li	a1,5
   12c9a:	470d                	li	a4,3
   12c9c:	853e                	mv	a0,a5
   12c9e:	4601                	li	a2,0
   12ca0:	4681                	li	a3,0
   12ca2:	00000073          	ecall
   12ca6:	4711                	li	a4,4
   12ca8:	853e                	mv	a0,a5
   12caa:	4581                	li	a1,0
   12cac:	4601                	li	a2,0
   12cae:	4681                	li	a3,0
   12cb0:	00000073          	ecall
   12cb4:	a8a1                	j	12d0c <_ZN18complex_no_dynamic3app17h40cf91660b4bf541E+0xf8>
   12cb6:	853e                	mv	a0,a5
   12cb8:	4601                	li	a2,0
   12cba:	4681                	li	a3,0
   12cbc:	4781                	li	a5,0
   12cbe:	4595                	li	a1,5
   12cc0:	470d                	li	a4,3
   12cc2:	00000073          	ecall
   12cc6:	f3f1                	bnez	a5,12c8a <_ZN18complex_no_dynamic3app17h40cf91660b4bf541E+0x76>
   12cc8:	6505                	lui	a0,0x1
   12cca:	2cc50493          	addi	s1,a0,716 # 12cc <.Lline_table_start1+0x10a1>
   12cce:	4595                	li	a1,5
   12cd0:	470d                	li	a4,3
   12cd2:	8526                	mv	a0,s1
   12cd4:	4601                	li	a2,0
   12cd6:	4681                	li	a3,0
   12cd8:	00000073          	ecall
   12cdc:	00140513          	addi	a0,s0,1
   12ce0:	182c                	addi	a1,sp,56
   12ce2:	4669                	li	a2,26
   12ce4:	0000a097          	auipc	ra,0xa
   12ce8:	04c080e7          	jalr	76(ra) # 1cd30 <memcpy>
   12cec:	00040023          	sb	zero,0(s0)
   12cf0:	4595                	li	a1,5
   12cf2:	470d                	li	a4,3
   12cf4:	8526                	mv	a0,s1
   12cf6:	4601                	li	a2,0
   12cf8:	4681                	li	a3,0
   12cfa:	00000073          	ecall
   12cfe:	4711                	li	a4,4
   12d00:	8526                	mv	a0,s1
   12d02:	4581                	li	a1,0
   12d04:	4601                	li	a2,0
   12d06:	4681                	li	a3,0
   12d08:	00000073          	ecall
   12d0c:	40f6                	lw	ra,92(sp)
   12d0e:	4466                	lw	s0,88(sp)
   12d10:	44d6                	lw	s1,84(sp)
   12d12:	6125                	addi	sp,sp,96
   12d14:	8082                	ret

00012d16 <_ZN18complex_no_dynamic3app17h42ce4d1a8249edbcE>:
   12d16:	7135                	addi	sp,sp,-160
   12d18:	cf06                	sw	ra,156(sp)
   12d1a:	cd22                	sw	s0,152(sp)
   12d1c:	cb26                	sw	s1,148(sp)
   12d1e:	c94a                	sw	s2,144(sp)
   12d20:	c74e                	sw	s3,140(sp)
   12d22:	c552                	sw	s4,136(sp)
   12d24:	892a                	mv	s2,a0
   12d26:	0185c503          	lbu	a0,24(a1)
   12d2a:	0195c603          	lbu	a2,25(a1)
   12d2e:	01a5c803          	lbu	a6,26(a1)
   12d32:	01b5c283          	lbu	t0,27(a1)
   12d36:	0145c883          	lbu	a7,20(a1)
   12d3a:	0155cf03          	lbu	t5,21(a1)
   12d3e:	0165c403          	lbu	s0,22(a1)
   12d42:	0175c683          	lbu	a3,23(a1)
   12d46:	0105c783          	lbu	a5,16(a1)
   12d4a:	0115c703          	lbu	a4,17(a1)
   12d4e:	0125c303          	lbu	t1,18(a1)
   12d52:	0135c383          	lbu	t2,19(a1)
   12d56:	0622                	slli	a2,a2,0x8
   12d58:	00a66e33          	or	t3,a2,a0
   12d5c:	00c5ce83          	lbu	t4,12(a1)
   12d60:	00d5c603          	lbu	a2,13(a1)
   12d64:	00e5c503          	lbu	a0,14(a1)
   12d68:	00f5c483          	lbu	s1,15(a1)
   12d6c:	0842                	slli	a6,a6,0x10
   12d6e:	02e2                	slli	t0,t0,0x18
   12d70:	0f22                	slli	t5,t5,0x8
   12d72:	0442                	slli	s0,s0,0x10
   12d74:	06e2                	slli	a3,a3,0x18
   12d76:	0722                	slli	a4,a4,0x8
   12d78:	0102e833          	or	a6,t0,a6
   12d7c:	011f68b3          	or	a7,t5,a7
   12d80:	0086e2b3          	or	t0,a3,s0
   12d84:	00f76f33          	or	t5,a4,a5
   12d88:	0085c703          	lbu	a4,8(a1)
   12d8c:	0095c403          	lbu	s0,9(a1)
   12d90:	00a5c683          	lbu	a3,10(a1)
   12d94:	00b5c783          	lbu	a5,11(a1)
   12d98:	0342                	slli	t1,t1,0x10
   12d9a:	03e2                	slli	t2,t2,0x18
   12d9c:	0622                	slli	a2,a2,0x8
   12d9e:	0542                	slli	a0,a0,0x10
   12da0:	04e2                	slli	s1,s1,0x18
   12da2:	0422                	slli	s0,s0,0x8
   12da4:	0063e333          	or	t1,t2,t1
   12da8:	01d663b3          	or	t2,a2,t4
   12dac:	00a4eeb3          	or	t4,s1,a0
   12db0:	00e46fb3          	or	t6,s0,a4
   12db4:	0045c483          	lbu	s1,4(a1)
   12db8:	0055c403          	lbu	s0,5(a1)
   12dbc:	0065c603          	lbu	a2,6(a1)
   12dc0:	0075c503          	lbu	a0,7(a1)
   12dc4:	06c2                	slli	a3,a3,0x10
   12dc6:	07e2                	slli	a5,a5,0x18
   12dc8:	0422                	slli	s0,s0,0x8
   12dca:	0642                	slli	a2,a2,0x10
   12dcc:	0562                	slli	a0,a0,0x18
   12dce:	00d7e9b3          	or	s3,a5,a3
   12dd2:	00946a33          	or	s4,s0,s1
   12dd6:	0005c783          	lbu	a5,0(a1)
   12dda:	0015c483          	lbu	s1,1(a1)
   12dde:	8d51                	or	a0,a0,a2
   12de0:	0025c603          	lbu	a2,2(a1)
   12de4:	0035c583          	lbu	a1,3(a1)
   12de8:	04a2                	slli	s1,s1,0x8
   12dea:	8fc5                	or	a5,a5,s1
   12dec:	0642                	slli	a2,a2,0x10
   12dee:	05e2                	slli	a1,a1,0x18
   12df0:	8dd1                	or	a1,a1,a2
   12df2:	01c86633          	or	a2,a6,t3
   12df6:	0112e4b3          	or	s1,t0,a7
   12dfa:	01e36733          	or	a4,t1,t5
   12dfe:	007ee6b3          	or	a3,t4,t2
   12e02:	01f9e433          	or	s0,s3,t6
   12e06:	01456533          	or	a0,a0,s4
   12e0a:	8ddd                	or	a1,a1,a5
   12e0c:	ce3a                	sw	a4,28(sp)
   12e0e:	d026                	sw	s1,32(sp)
   12e10:	d232                	sw	a2,36(sp)
   12e12:	c62e                	sw	a1,12(sp)
   12e14:	c82a                	sw	a0,16(sp)
   12e16:	ca22                	sw	s0,20(sp)
   12e18:	cc36                	sw	a3,24(sp)
   12e1a:	02b10513          	addi	a0,sp,43
   12e1e:	05d00613          	li	a2,93
   12e22:	4581                	li	a1,0
   12e24:	0000a097          	auipc	ra,0xa
   12e28:	ea0080e7          	jalr	-352(ra) # 1ccc4 <memset>
   12e2c:	6505                	lui	a0,0x1
   12e2e:	45a1                	li	a1,8
   12e30:	0070                	addi	a2,sp,12
   12e32:	46f1                	li	a3,28
   12e34:	c3e50793          	addi	a5,a0,-962 # c3e <.Lline_table_start1+0xa13>
   12e38:	4711                	li	a4,4
   12e3a:	4489                	li	s1,2
   12e3c:	853e                	mv	a0,a5
   12e3e:	00000073          	ecall
   12e42:	02950b63          	beq	a0,s1,12e78 <_ZN18complex_no_dynamic3app17h42ce4d1a8249edbcE+0x162>
   12e46:	4595                	li	a1,5
   12e48:	02b10613          	addi	a2,sp,43
   12e4c:	05d00693          	li	a3,93
   12e50:	470d                	li	a4,3
   12e52:	853e                	mv	a0,a5
   12e54:	00000073          	ecall
   12e58:	02950063          	beq	a0,s1,12e78 <_ZN18complex_no_dynamic3app17h42ce4d1a8249edbcE+0x162>
   12e5c:	6505                	lui	a0,0x1
   12e5e:	45a1                	li	a1,8
   12e60:	4615                	li	a2,5
   12e62:	c3e50793          	addi	a5,a0,-962 # c3e <.Lline_table_start1+0xa13>
   12e66:	4709                	li	a4,2
   12e68:	07f00493          	li	s1,127
   12e6c:	853e                	mv	a0,a5
   12e6e:	4681                	li	a3,0
   12e70:	00000073          	ecall
   12e74:	02a4ec63          	bltu	s1,a0,12eac <_ZN18complex_no_dynamic3app17h42ce4d1a8249edbcE+0x196>
   12e78:	4785                	li	a5,1
   12e7a:	c3b1                	beqz	a5,12ebe <_ZN18complex_no_dynamic3app17h42ce4d1a8249edbcE+0x1a8>
   12e7c:	4601                	li	a2,0
   12e7e:	4681                	li	a3,0
   12e80:	4505                	li	a0,1
   12e82:	6705                	lui	a4,0x1
   12e84:	87ae                	mv	a5,a1
   12e86:	4595                	li	a1,5
   12e88:	00a90023          	sb	a0,0(s2)
   12e8c:	00f92223          	sw	a5,4(s2)
   12e90:	c3e70793          	addi	a5,a4,-962 # c3e <.Lline_table_start1+0xa13>
   12e94:	470d                	li	a4,3
   12e96:	853e                	mv	a0,a5
   12e98:	00000073          	ecall
   12e9c:	45a1                	li	a1,8
   12e9e:	4711                	li	a4,4
   12ea0:	853e                	mv	a0,a5
   12ea2:	4601                	li	a2,0
   12ea4:	4681                	li	a3,0
   12ea6:	00000073          	ecall
   12eaa:	a8b1                	j	12f06 <_ZN18complex_no_dynamic3app17h42ce4d1a8249edbcE+0x1f0>
   12eac:	853e                	mv	a0,a5
   12eae:	4601                	li	a2,0
   12eb0:	4681                	li	a3,0
   12eb2:	4781                	li	a5,0
   12eb4:	4595                	li	a1,5
   12eb6:	470d                	li	a4,3
   12eb8:	00000073          	ecall
   12ebc:	f3e1                	bnez	a5,12e7c <_ZN18complex_no_dynamic3app17h42ce4d1a8249edbcE+0x166>
   12ebe:	6505                	lui	a0,0x1
   12ec0:	c3e50493          	addi	s1,a0,-962 # c3e <.Lline_table_start1+0xa13>
   12ec4:	4595                	li	a1,5
   12ec6:	470d                	li	a4,3
   12ec8:	8526                	mv	a0,s1
   12eca:	4601                	li	a2,0
   12ecc:	4681                	li	a3,0
   12ece:	00000073          	ecall
   12ed2:	00190513          	addi	a0,s2,1
   12ed6:	02b10593          	addi	a1,sp,43
   12eda:	05d00613          	li	a2,93
   12ede:	0000a097          	auipc	ra,0xa
   12ee2:	e52080e7          	jalr	-430(ra) # 1cd30 <memcpy>
   12ee6:	8526                	mv	a0,s1
   12ee8:	4601                	li	a2,0
   12eea:	4681                	li	a3,0
   12eec:	00090023          	sb	zero,0(s2)
   12ef0:	4595                	li	a1,5
   12ef2:	470d                	li	a4,3
   12ef4:	00000073          	ecall
   12ef8:	45a1                	li	a1,8
   12efa:	4711                	li	a4,4
   12efc:	8526                	mv	a0,s1
   12efe:	4601                	li	a2,0
   12f00:	4681                	li	a3,0
   12f02:	00000073          	ecall
   12f06:	40fa                	lw	ra,156(sp)
   12f08:	446a                	lw	s0,152(sp)
   12f0a:	44da                	lw	s1,148(sp)
   12f0c:	494a                	lw	s2,144(sp)
   12f0e:	49ba                	lw	s3,140(sp)
   12f10:	4a2a                	lw	s4,136(sp)
   12f12:	610d                	addi	sp,sp,160
   12f14:	8082                	ret

00012f16 <_ZN18complex_no_dynamic3app17h432b55e58c9d1aafE>:
   12f16:	7119                	addi	sp,sp,-128
   12f18:	de86                	sw	ra,124(sp)
   12f1a:	dca2                	sw	s0,120(sp)
   12f1c:	842a                	mv	s0,a0
   12f1e:	00510513          	addi	a0,sp,5
   12f22:	02200613          	li	a2,34
   12f26:	0000a097          	auipc	ra,0xa
   12f2a:	e0a080e7          	jalr	-502(ra) # 1cd30 <memcpy>
   12f2e:	02710513          	addi	a0,sp,39
   12f32:	05100613          	li	a2,81
   12f36:	4581                	li	a1,0
   12f38:	0000a097          	auipc	ra,0xa
   12f3c:	d8c080e7          	jalr	-628(ra) # 1ccc4 <memset>
   12f40:	55e00513          	li	a0,1374
   12f44:	45a5                	li	a1,9
   12f46:	00510613          	addi	a2,sp,5
   12f4a:	02200693          	li	a3,34
   12f4e:	4711                	li	a4,4
   12f50:	4789                	li	a5,2
   12f52:	00000073          	ecall
   12f56:	02f50a63          	beq	a0,a5,12f8a <_ZN18complex_no_dynamic3app17h432b55e58c9d1aafE+0x74>
   12f5a:	55e00513          	li	a0,1374
   12f5e:	45a5                	li	a1,9
   12f60:	02710613          	addi	a2,sp,39
   12f64:	05100693          	li	a3,81
   12f68:	470d                	li	a4,3
   12f6a:	00000073          	ecall
   12f6e:	00f50e63          	beq	a0,a5,12f8a <_ZN18complex_no_dynamic3app17h432b55e58c9d1aafE+0x74>
   12f72:	55e00513          	li	a0,1374
   12f76:	45a5                	li	a1,9
   12f78:	4625                	li	a2,9
   12f7a:	4709                	li	a4,2
   12f7c:	07f00793          	li	a5,127
   12f80:	4681                	li	a3,0
   12f82:	00000073          	ecall
   12f86:	02a7e963          	bltu	a5,a0,12fb8 <_ZN18complex_no_dynamic3app17h432b55e58c9d1aafE+0xa2>
   12f8a:	4785                	li	a5,1
   12f8c:	c3a1                	beqz	a5,12fcc <_ZN18complex_no_dynamic3app17h432b55e58c9d1aafE+0xb6>
   12f8e:	4601                	li	a2,0
   12f90:	4681                	li	a3,0
   12f92:	4705                	li	a4,1
   12f94:	55e00513          	li	a0,1374
   12f98:	00e40023          	sb	a4,0(s0)
   12f9c:	c04c                	sw	a1,4(s0)
   12f9e:	45a5                	li	a1,9
   12fa0:	470d                	li	a4,3
   12fa2:	00000073          	ecall
   12fa6:	55e00513          	li	a0,1374
   12faa:	45a5                	li	a1,9
   12fac:	4711                	li	a4,4
   12fae:	4601                	li	a2,0
   12fb0:	4681                	li	a3,0
   12fb2:	00000073          	ecall
   12fb6:	a8b9                	j	13014 <_ZN18complex_no_dynamic3app17h432b55e58c9d1aafE+0xfe>
   12fb8:	4601                	li	a2,0
   12fba:	4681                	li	a3,0
   12fbc:	4781                	li	a5,0
   12fbe:	55e00513          	li	a0,1374
   12fc2:	45a5                	li	a1,9
   12fc4:	470d                	li	a4,3
   12fc6:	00000073          	ecall
   12fca:	f3f1                	bnez	a5,12f8e <_ZN18complex_no_dynamic3app17h432b55e58c9d1aafE+0x78>
   12fcc:	55e00513          	li	a0,1374
   12fd0:	45a5                	li	a1,9
   12fd2:	470d                	li	a4,3
   12fd4:	4601                	li	a2,0
   12fd6:	4681                	li	a3,0
   12fd8:	00000073          	ecall
   12fdc:	00140513          	addi	a0,s0,1
   12fe0:	02710593          	addi	a1,sp,39
   12fe4:	05100613          	li	a2,81
   12fe8:	0000a097          	auipc	ra,0xa
   12fec:	d48080e7          	jalr	-696(ra) # 1cd30 <memcpy>
   12ff0:	4601                	li	a2,0
   12ff2:	4681                	li	a3,0
   12ff4:	00040023          	sb	zero,0(s0)
   12ff8:	55e00513          	li	a0,1374
   12ffc:	45a5                	li	a1,9
   12ffe:	470d                	li	a4,3
   13000:	00000073          	ecall
   13004:	55e00513          	li	a0,1374
   13008:	45a5                	li	a1,9
   1300a:	4711                	li	a4,4
   1300c:	4601                	li	a2,0
   1300e:	4681                	li	a3,0
   13010:	00000073          	ecall
   13014:	50f6                	lw	ra,124(sp)
   13016:	5466                	lw	s0,120(sp)
   13018:	6109                	addi	sp,sp,128
   1301a:	8082                	ret

0001301c <_ZN18complex_no_dynamic3app17h4896bc1c93434258E>:
   1301c:	711d                	addi	sp,sp,-96
   1301e:	ce86                	sw	ra,92(sp)
   13020:	cca2                	sw	s0,88(sp)
   13022:	caa6                	sw	s1,84(sp)
   13024:	c8ca                	sw	s2,80(sp)
   13026:	892a                	mv	s2,a0
   13028:	0105c503          	lbu	a0,16(a1)
   1302c:	00c5c803          	lbu	a6,12(a1)
   13030:	00d5c683          	lbu	a3,13(a1)
   13034:	00e5c703          	lbu	a4,14(a1)
   13038:	00f5c783          	lbu	a5,15(a1)
   1303c:	0085c483          	lbu	s1,8(a1)
   13040:	0095c403          	lbu	s0,9(a1)
   13044:	00a5c883          	lbu	a7,10(a1)
   13048:	00b5c603          	lbu	a2,11(a1)
   1304c:	00a10823          	sb	a0,16(sp)
   13050:	06a2                	slli	a3,a3,0x8
   13052:	0742                	slli	a4,a4,0x10
   13054:	07e2                	slli	a5,a5,0x18
   13056:	0422                	slli	s0,s0,0x8
   13058:	0106e833          	or	a6,a3,a6
   1305c:	00e7e2b3          	or	t0,a5,a4
   13060:	8c45                	or	s0,s0,s1
   13062:	0045c683          	lbu	a3,4(a1)
   13066:	0055c783          	lbu	a5,5(a1)
   1306a:	0065c483          	lbu	s1,6(a1)
   1306e:	0075c503          	lbu	a0,7(a1)
   13072:	08c2                	slli	a7,a7,0x10
   13074:	0662                	slli	a2,a2,0x18
   13076:	07a2                	slli	a5,a5,0x8
   13078:	04c2                	slli	s1,s1,0x10
   1307a:	0562                	slli	a0,a0,0x18
   1307c:	01166633          	or	a2,a2,a7
   13080:	8edd                	or	a3,a3,a5
   13082:	0005c783          	lbu	a5,0(a1)
   13086:	0015c703          	lbu	a4,1(a1)
   1308a:	8d45                	or	a0,a0,s1
   1308c:	0025c483          	lbu	s1,2(a1)
   13090:	0035c583          	lbu	a1,3(a1)
   13094:	0722                	slli	a4,a4,0x8
   13096:	8f5d                	or	a4,a4,a5
   13098:	04c2                	slli	s1,s1,0x10
   1309a:	05e2                	slli	a1,a1,0x18
   1309c:	8dc5                	or	a1,a1,s1
   1309e:	0102e7b3          	or	a5,t0,a6
   130a2:	8e41                	or	a2,a2,s0
   130a4:	8d55                	or	a0,a0,a3
   130a6:	8dd9                	or	a1,a1,a4
   130a8:	c02e                	sw	a1,0(sp)
   130aa:	c22a                	sw	a0,4(sp)
   130ac:	c432                	sw	a2,8(sp)
   130ae:	c63e                	sw	a5,12(sp)
   130b0:	01110513          	addi	a0,sp,17
   130b4:	03f00613          	li	a2,63
   130b8:	4581                	li	a1,0
   130ba:	0000a097          	auipc	ra,0xa
   130be:	c0a080e7          	jalr	-1014(ra) # 1ccc4 <memset>
   130c2:	6505                	lui	a0,0x1
   130c4:	459d                	li	a1,7
   130c6:	860a                	mv	a2,sp
   130c8:	46c5                	li	a3,17
   130ca:	cb050793          	addi	a5,a0,-848 # cb0 <.Lline_table_start1+0xa85>
   130ce:	4711                	li	a4,4
   130d0:	4489                	li	s1,2
   130d2:	853e                	mv	a0,a5
   130d4:	00000073          	ecall
   130d8:	02950b63          	beq	a0,s1,1310e <_ZN18complex_no_dynamic3app17h4896bc1c93434258E+0xf2>
   130dc:	4591                	li	a1,4
   130de:	01110613          	addi	a2,sp,17
   130e2:	03f00693          	li	a3,63
   130e6:	470d                	li	a4,3
   130e8:	853e                	mv	a0,a5
   130ea:	00000073          	ecall
   130ee:	02950063          	beq	a0,s1,1310e <_ZN18complex_no_dynamic3app17h4896bc1c93434258E+0xf2>
   130f2:	6505                	lui	a0,0x1
   130f4:	459d                	li	a1,7
   130f6:	4611                	li	a2,4
   130f8:	cb050793          	addi	a5,a0,-848 # cb0 <.Lline_table_start1+0xa85>
   130fc:	4709                	li	a4,2
   130fe:	07f00493          	li	s1,127
   13102:	853e                	mv	a0,a5
   13104:	4681                	li	a3,0
   13106:	00000073          	ecall
   1310a:	02a4ec63          	bltu	s1,a0,13142 <_ZN18complex_no_dynamic3app17h4896bc1c93434258E+0x126>
   1310e:	4785                	li	a5,1
   13110:	c3b1                	beqz	a5,13154 <_ZN18complex_no_dynamic3app17h4896bc1c93434258E+0x138>
   13112:	4601                	li	a2,0
   13114:	4681                	li	a3,0
   13116:	4505                	li	a0,1
   13118:	6705                	lui	a4,0x1
   1311a:	87ae                	mv	a5,a1
   1311c:	4591                	li	a1,4
   1311e:	00a90023          	sb	a0,0(s2)
   13122:	00f92223          	sw	a5,4(s2)
   13126:	cb070793          	addi	a5,a4,-848 # cb0 <.Lline_table_start1+0xa85>
   1312a:	470d                	li	a4,3
   1312c:	853e                	mv	a0,a5
   1312e:	00000073          	ecall
   13132:	459d                	li	a1,7
   13134:	4711                	li	a4,4
   13136:	853e                	mv	a0,a5
   13138:	4601                	li	a2,0
   1313a:	4681                	li	a3,0
   1313c:	00000073          	ecall
   13140:	a8b1                	j	1319c <_ZN18complex_no_dynamic3app17h4896bc1c93434258E+0x180>
   13142:	853e                	mv	a0,a5
   13144:	4601                	li	a2,0
   13146:	4681                	li	a3,0
   13148:	4781                	li	a5,0
   1314a:	4591                	li	a1,4
   1314c:	470d                	li	a4,3
   1314e:	00000073          	ecall
   13152:	f3e1                	bnez	a5,13112 <_ZN18complex_no_dynamic3app17h4896bc1c93434258E+0xf6>
   13154:	6505                	lui	a0,0x1
   13156:	cb050493          	addi	s1,a0,-848 # cb0 <.Lline_table_start1+0xa85>
   1315a:	4591                	li	a1,4
   1315c:	470d                	li	a4,3
   1315e:	8526                	mv	a0,s1
   13160:	4601                	li	a2,0
   13162:	4681                	li	a3,0
   13164:	00000073          	ecall
   13168:	00190513          	addi	a0,s2,1
   1316c:	01110593          	addi	a1,sp,17
   13170:	03f00613          	li	a2,63
   13174:	0000a097          	auipc	ra,0xa
   13178:	bbc080e7          	jalr	-1092(ra) # 1cd30 <memcpy>
   1317c:	8526                	mv	a0,s1
   1317e:	4601                	li	a2,0
   13180:	4681                	li	a3,0
   13182:	00090023          	sb	zero,0(s2)
   13186:	4591                	li	a1,4
   13188:	470d                	li	a4,3
   1318a:	00000073          	ecall
   1318e:	459d                	li	a1,7
   13190:	4711                	li	a4,4
   13192:	8526                	mv	a0,s1
   13194:	4601                	li	a2,0
   13196:	4681                	li	a3,0
   13198:	00000073          	ecall
   1319c:	40f6                	lw	ra,92(sp)
   1319e:	4466                	lw	s0,88(sp)
   131a0:	44d6                	lw	s1,84(sp)
   131a2:	4946                	lw	s2,80(sp)
   131a4:	6125                	addi	sp,sp,96
   131a6:	8082                	ret

000131a8 <_ZN18complex_no_dynamic3app17h49088ae87c357d7aE>:
   131a8:	7135                	addi	sp,sp,-160
   131aa:	cf06                	sw	ra,156(sp)
   131ac:	cd22                	sw	s0,152(sp)
   131ae:	cb26                	sw	s1,148(sp)
   131b0:	842a                	mv	s0,a0
   131b2:	00a10513          	addi	a0,sp,10
   131b6:	06300613          	li	a2,99
   131ba:	0000a097          	auipc	ra,0xa
   131be:	b76080e7          	jalr	-1162(ra) # 1cd30 <memcpy>
   131c2:	06d10513          	addi	a0,sp,109
   131c6:	02700613          	li	a2,39
   131ca:	4581                	li	a1,0
   131cc:	0000a097          	auipc	ra,0xa
   131d0:	af8080e7          	jalr	-1288(ra) # 1ccc4 <memset>
   131d4:	6509                	lui	a0,0x2
   131d6:	459d                	li	a1,7
   131d8:	00a10613          	addi	a2,sp,10
   131dc:	06300693          	li	a3,99
   131e0:	e5450793          	addi	a5,a0,-428 # 1e54 <.Lline_table_start1+0x1c29>
   131e4:	4711                	li	a4,4
   131e6:	4489                	li	s1,2
   131e8:	853e                	mv	a0,a5
   131ea:	00000073          	ecall
   131ee:	02950b63          	beq	a0,s1,13224 <_ZN18complex_no_dynamic3app17h49088ae87c357d7aE+0x7c>
   131f2:	06d10613          	addi	a2,sp,109
   131f6:	02700693          	li	a3,39
   131fa:	470d                	li	a4,3
   131fc:	853e                	mv	a0,a5
   131fe:	4581                	li	a1,0
   13200:	00000073          	ecall
   13204:	02950063          	beq	a0,s1,13224 <_ZN18complex_no_dynamic3app17h49088ae87c357d7aE+0x7c>
   13208:	6509                	lui	a0,0x2
   1320a:	459d                	li	a1,7
   1320c:	e5450793          	addi	a5,a0,-428 # 1e54 <.Lline_table_start1+0x1c29>
   13210:	4709                	li	a4,2
   13212:	07f00493          	li	s1,127
   13216:	853e                	mv	a0,a5
   13218:	4601                	li	a2,0
   1321a:	4681                	li	a3,0
   1321c:	00000073          	ecall
   13220:	02a4eb63          	bltu	s1,a0,13256 <_ZN18complex_no_dynamic3app17h49088ae87c357d7aE+0xae>
   13224:	4785                	li	a5,1
   13226:	c3a9                	beqz	a5,13268 <_ZN18complex_no_dynamic3app17h49088ae87c357d7aE+0xc0>
   13228:	852e                	mv	a0,a1
   1322a:	4581                	li	a1,0
   1322c:	4601                	li	a2,0
   1322e:	4681                	li	a3,0
   13230:	4705                	li	a4,1
   13232:	6789                	lui	a5,0x2
   13234:	00e40023          	sb	a4,0(s0)
   13238:	c048                	sw	a0,4(s0)
   1323a:	e5478793          	addi	a5,a5,-428 # 1e54 <.Lline_table_start1+0x1c29>
   1323e:	470d                	li	a4,3
   13240:	853e                	mv	a0,a5
   13242:	00000073          	ecall
   13246:	459d                	li	a1,7
   13248:	4711                	li	a4,4
   1324a:	853e                	mv	a0,a5
   1324c:	4601                	li	a2,0
   1324e:	4681                	li	a3,0
   13250:	00000073          	ecall
   13254:	a8b1                	j	132b0 <_ZN18complex_no_dynamic3app17h49088ae87c357d7aE+0x108>
   13256:	853e                	mv	a0,a5
   13258:	4581                	li	a1,0
   1325a:	4601                	li	a2,0
   1325c:	4681                	li	a3,0
   1325e:	4781                	li	a5,0
   13260:	470d                	li	a4,3
   13262:	00000073          	ecall
   13266:	f3e9                	bnez	a5,13228 <_ZN18complex_no_dynamic3app17h49088ae87c357d7aE+0x80>
   13268:	6509                	lui	a0,0x2
   1326a:	e5450493          	addi	s1,a0,-428 # 1e54 <.Lline_table_start1+0x1c29>
   1326e:	470d                	li	a4,3
   13270:	8526                	mv	a0,s1
   13272:	4581                	li	a1,0
   13274:	4601                	li	a2,0
   13276:	4681                	li	a3,0
   13278:	00000073          	ecall
   1327c:	00140513          	addi	a0,s0,1
   13280:	06d10593          	addi	a1,sp,109
   13284:	02700613          	li	a2,39
   13288:	0000a097          	auipc	ra,0xa
   1328c:	aa8080e7          	jalr	-1368(ra) # 1cd30 <memcpy>
   13290:	8526                	mv	a0,s1
   13292:	4581                	li	a1,0
   13294:	4601                	li	a2,0
   13296:	4681                	li	a3,0
   13298:	00040023          	sb	zero,0(s0)
   1329c:	470d                	li	a4,3
   1329e:	00000073          	ecall
   132a2:	459d                	li	a1,7
   132a4:	4711                	li	a4,4
   132a6:	8526                	mv	a0,s1
   132a8:	4601                	li	a2,0
   132aa:	4681                	li	a3,0
   132ac:	00000073          	ecall
   132b0:	40fa                	lw	ra,156(sp)
   132b2:	446a                	lw	s0,152(sp)
   132b4:	44da                	lw	s1,148(sp)
   132b6:	610d                	addi	sp,sp,160
   132b8:	8082                	ret

000132ba <_ZN18complex_no_dynamic3app17h4d2bbdb6d3c487edE>:
   132ba:	7119                	addi	sp,sp,-128
   132bc:	de86                	sw	ra,124(sp)
   132be:	dca2                	sw	s0,120(sp)
   132c0:	daa6                	sw	s1,116(sp)
   132c2:	842a                	mv	s0,a0
   132c4:	00310513          	addi	a0,sp,3
   132c8:	04000613          	li	a2,64
   132cc:	0000a097          	auipc	ra,0xa
   132d0:	a64080e7          	jalr	-1436(ra) # 1cd30 <memcpy>
   132d4:	04310513          	addi	a0,sp,67
   132d8:	03100613          	li	a2,49
   132dc:	4581                	li	a1,0
   132de:	0000a097          	auipc	ra,0xa
   132e2:	9e6080e7          	jalr	-1562(ra) # 1ccc4 <memset>
   132e6:	6505                	lui	a0,0x1
   132e8:	45a1                	li	a1,8
   132ea:	00310613          	addi	a2,sp,3
   132ee:	04000693          	li	a3,64
   132f2:	fce50793          	addi	a5,a0,-50 # fce <.Lline_table_start1+0xda3>
   132f6:	4711                	li	a4,4
   132f8:	4489                	li	s1,2
   132fa:	853e                	mv	a0,a5
   132fc:	00000073          	ecall
   13300:	02950b63          	beq	a0,s1,13336 <_ZN18complex_no_dynamic3app17h4d2bbdb6d3c487edE+0x7c>
   13304:	4595                	li	a1,5
   13306:	04310613          	addi	a2,sp,67
   1330a:	03100693          	li	a3,49
   1330e:	470d                	li	a4,3
   13310:	853e                	mv	a0,a5
   13312:	00000073          	ecall
   13316:	02950063          	beq	a0,s1,13336 <_ZN18complex_no_dynamic3app17h4d2bbdb6d3c487edE+0x7c>
   1331a:	6505                	lui	a0,0x1
   1331c:	45a1                	li	a1,8
   1331e:	4615                	li	a2,5
   13320:	fce50793          	addi	a5,a0,-50 # fce <.Lline_table_start1+0xda3>
   13324:	4709                	li	a4,2
   13326:	07f00493          	li	s1,127
   1332a:	853e                	mv	a0,a5
   1332c:	4681                	li	a3,0
   1332e:	00000073          	ecall
   13332:	02a4eb63          	bltu	s1,a0,13368 <_ZN18complex_no_dynamic3app17h4d2bbdb6d3c487edE+0xae>
   13336:	4785                	li	a5,1
   13338:	c3a9                	beqz	a5,1337a <_ZN18complex_no_dynamic3app17h4d2bbdb6d3c487edE+0xc0>
   1333a:	4601                	li	a2,0
   1333c:	4681                	li	a3,0
   1333e:	4505                	li	a0,1
   13340:	6705                	lui	a4,0x1
   13342:	87ae                	mv	a5,a1
   13344:	4595                	li	a1,5
   13346:	00a40023          	sb	a0,0(s0)
   1334a:	c05c                	sw	a5,4(s0)
   1334c:	fce70793          	addi	a5,a4,-50 # fce <.Lline_table_start1+0xda3>
   13350:	470d                	li	a4,3
   13352:	853e                	mv	a0,a5
   13354:	00000073          	ecall
   13358:	45a1                	li	a1,8
   1335a:	4711                	li	a4,4
   1335c:	853e                	mv	a0,a5
   1335e:	4601                	li	a2,0
   13360:	4681                	li	a3,0
   13362:	00000073          	ecall
   13366:	a8b1                	j	133c2 <_ZN18complex_no_dynamic3app17h4d2bbdb6d3c487edE+0x108>
   13368:	853e                	mv	a0,a5
   1336a:	4601                	li	a2,0
   1336c:	4681                	li	a3,0
   1336e:	4781                	li	a5,0
   13370:	4595                	li	a1,5
   13372:	470d                	li	a4,3
   13374:	00000073          	ecall
   13378:	f3e9                	bnez	a5,1333a <_ZN18complex_no_dynamic3app17h4d2bbdb6d3c487edE+0x80>
   1337a:	6505                	lui	a0,0x1
   1337c:	fce50493          	addi	s1,a0,-50 # fce <.Lline_table_start1+0xda3>
   13380:	4595                	li	a1,5
   13382:	470d                	li	a4,3
   13384:	8526                	mv	a0,s1
   13386:	4601                	li	a2,0
   13388:	4681                	li	a3,0
   1338a:	00000073          	ecall
   1338e:	00140513          	addi	a0,s0,1
   13392:	04310593          	addi	a1,sp,67
   13396:	03100613          	li	a2,49
   1339a:	0000a097          	auipc	ra,0xa
   1339e:	996080e7          	jalr	-1642(ra) # 1cd30 <memcpy>
   133a2:	8526                	mv	a0,s1
   133a4:	4601                	li	a2,0
   133a6:	4681                	li	a3,0
   133a8:	00040023          	sb	zero,0(s0)
   133ac:	4595                	li	a1,5
   133ae:	470d                	li	a4,3
   133b0:	00000073          	ecall
   133b4:	45a1                	li	a1,8
   133b6:	4711                	li	a4,4
   133b8:	8526                	mv	a0,s1
   133ba:	4601                	li	a2,0
   133bc:	4681                	li	a3,0
   133be:	00000073          	ecall
   133c2:	50f6                	lw	ra,124(sp)
   133c4:	5466                	lw	s0,120(sp)
   133c6:	54d6                	lw	s1,116(sp)
   133c8:	6109                	addi	sp,sp,128
   133ca:	8082                	ret

000133cc <_ZN18complex_no_dynamic3app17h4d33f4a7ed2e75abE>:
   133cc:	7119                	addi	sp,sp,-128
   133ce:	de86                	sw	ra,124(sp)
   133d0:	dca2                	sw	s0,120(sp)
   133d2:	daa6                	sw	s1,116(sp)
   133d4:	842a                	mv	s0,a0
   133d6:	00a10513          	addi	a0,sp,10
   133da:	03600613          	li	a2,54
   133de:	0000a097          	auipc	ra,0xa
   133e2:	952080e7          	jalr	-1710(ra) # 1cd30 <memcpy>
   133e6:	0088                	addi	a0,sp,64
   133e8:	03400613          	li	a2,52
   133ec:	4581                	li	a1,0
   133ee:	0000a097          	auipc	ra,0xa
   133f2:	8d6080e7          	jalr	-1834(ra) # 1ccc4 <memset>
   133f6:	6509                	lui	a0,0x2
   133f8:	4591                	li	a1,4
   133fa:	00a10613          	addi	a2,sp,10
   133fe:	03600693          	li	a3,54
   13402:	3c650793          	addi	a5,a0,966 # 23c6 <.Lline_table_start1+0x219b>
   13406:	4711                	li	a4,4
   13408:	4489                	li	s1,2
   1340a:	853e                	mv	a0,a5
   1340c:	00000073          	ecall
   13410:	02950a63          	beq	a0,s1,13444 <_ZN18complex_no_dynamic3app17h4d33f4a7ed2e75abE+0x78>
   13414:	4589                	li	a1,2
   13416:	0090                	addi	a2,sp,64
   13418:	03400693          	li	a3,52
   1341c:	470d                	li	a4,3
   1341e:	853e                	mv	a0,a5
   13420:	00000073          	ecall
   13424:	02950063          	beq	a0,s1,13444 <_ZN18complex_no_dynamic3app17h4d33f4a7ed2e75abE+0x78>
   13428:	6509                	lui	a0,0x2
   1342a:	4591                	li	a1,4
   1342c:	4609                	li	a2,2
   1342e:	3c650793          	addi	a5,a0,966 # 23c6 <.Lline_table_start1+0x219b>
   13432:	4709                	li	a4,2
   13434:	07f00493          	li	s1,127
   13438:	853e                	mv	a0,a5
   1343a:	4681                	li	a3,0
   1343c:	00000073          	ecall
   13440:	02a4eb63          	bltu	s1,a0,13476 <_ZN18complex_no_dynamic3app17h4d33f4a7ed2e75abE+0xaa>
   13444:	4785                	li	a5,1
   13446:	c3a9                	beqz	a5,13488 <_ZN18complex_no_dynamic3app17h4d33f4a7ed2e75abE+0xbc>
   13448:	4601                	li	a2,0
   1344a:	4681                	li	a3,0
   1344c:	4505                	li	a0,1
   1344e:	6709                	lui	a4,0x2
   13450:	87ae                	mv	a5,a1
   13452:	4589                	li	a1,2
   13454:	00a40023          	sb	a0,0(s0)
   13458:	c05c                	sw	a5,4(s0)
   1345a:	3c670793          	addi	a5,a4,966 # 23c6 <.Lline_table_start1+0x219b>
   1345e:	470d                	li	a4,3
   13460:	853e                	mv	a0,a5
   13462:	00000073          	ecall
   13466:	4591                	li	a1,4
   13468:	4711                	li	a4,4
   1346a:	853e                	mv	a0,a5
   1346c:	4601                	li	a2,0
   1346e:	4681                	li	a3,0
   13470:	00000073          	ecall
   13474:	a8a9                	j	134ce <_ZN18complex_no_dynamic3app17h4d33f4a7ed2e75abE+0x102>
   13476:	853e                	mv	a0,a5
   13478:	4601                	li	a2,0
   1347a:	4681                	li	a3,0
   1347c:	4781                	li	a5,0
   1347e:	4589                	li	a1,2
   13480:	470d                	li	a4,3
   13482:	00000073          	ecall
   13486:	f3e9                	bnez	a5,13448 <_ZN18complex_no_dynamic3app17h4d33f4a7ed2e75abE+0x7c>
   13488:	6509                	lui	a0,0x2
   1348a:	3c650493          	addi	s1,a0,966 # 23c6 <.Lline_table_start1+0x219b>
   1348e:	4589                	li	a1,2
   13490:	470d                	li	a4,3
   13492:	8526                	mv	a0,s1
   13494:	4601                	li	a2,0
   13496:	4681                	li	a3,0
   13498:	00000073          	ecall
   1349c:	00140513          	addi	a0,s0,1
   134a0:	008c                	addi	a1,sp,64
   134a2:	03400613          	li	a2,52
   134a6:	0000a097          	auipc	ra,0xa
   134aa:	88a080e7          	jalr	-1910(ra) # 1cd30 <memcpy>
   134ae:	8526                	mv	a0,s1
   134b0:	4601                	li	a2,0
   134b2:	4681                	li	a3,0
   134b4:	00040023          	sb	zero,0(s0)
   134b8:	4589                	li	a1,2
   134ba:	470d                	li	a4,3
   134bc:	00000073          	ecall
   134c0:	4591                	li	a1,4
   134c2:	4711                	li	a4,4
   134c4:	8526                	mv	a0,s1
   134c6:	4601                	li	a2,0
   134c8:	4681                	li	a3,0
   134ca:	00000073          	ecall
   134ce:	50f6                	lw	ra,124(sp)
   134d0:	5466                	lw	s0,120(sp)
   134d2:	54d6                	lw	s1,116(sp)
   134d4:	6109                	addi	sp,sp,128
   134d6:	8082                	ret

000134d8 <_ZN18complex_no_dynamic3app17h4f069c9ec0b48445E>:
   134d8:	715d                	addi	sp,sp,-80
   134da:	c686                	sw	ra,76(sp)
   134dc:	c4a2                	sw	s0,72(sp)
   134de:	c2a6                	sw	s1,68(sp)
   134e0:	c0ca                	sw	s2,64(sp)
   134e2:	de4e                	sw	s3,60(sp)
   134e4:	892a                	mv	s2,a0
   134e6:	0185c803          	lbu	a6,24(a1)
   134ea:	0195c383          	lbu	t2,25(a1)
   134ee:	0145c883          	lbu	a7,20(a1)
   134f2:	0155ce83          	lbu	t4,21(a1)
   134f6:	0165c783          	lbu	a5,22(a1)
   134fa:	0175c483          	lbu	s1,23(a1)
   134fe:	0105c403          	lbu	s0,16(a1)
   13502:	0115c503          	lbu	a0,17(a1)
   13506:	0125c283          	lbu	t0,18(a1)
   1350a:	0135ce03          	lbu	t3,19(a1)
   1350e:	00c5c303          	lbu	t1,12(a1)
   13512:	00d5cf03          	lbu	t5,13(a1)
   13516:	00e5c683          	lbu	a3,14(a1)
   1351a:	00f5c703          	lbu	a4,15(a1)
   1351e:	03a2                	slli	t2,t2,0x8
   13520:	0ea2                	slli	t4,t4,0x8
   13522:	01079613          	slli	a2,a5,0x10
   13526:	01849793          	slli	a5,s1,0x18
   1352a:	0522                	slli	a0,a0,0x8
   1352c:	0103e833          	or	a6,t2,a6
   13530:	011ee8b3          	or	a7,t4,a7
   13534:	00c7e3b3          	or	t2,a5,a2
   13538:	00856eb3          	or	t4,a0,s0
   1353c:	0085c503          	lbu	a0,8(a1)
   13540:	0095c603          	lbu	a2,9(a1)
   13544:	00a5c483          	lbu	s1,10(a1)
   13548:	00b5c783          	lbu	a5,11(a1)
   1354c:	02c2                	slli	t0,t0,0x10
   1354e:	0e62                	slli	t3,t3,0x18
   13550:	0f22                	slli	t5,t5,0x8
   13552:	06c2                	slli	a3,a3,0x10
   13554:	0762                	slli	a4,a4,0x18
   13556:	0622                	slli	a2,a2,0x8
   13558:	005e6433          	or	s0,t3,t0
   1355c:	006f62b3          	or	t0,t5,t1
   13560:	00d76e33          	or	t3,a4,a3
   13564:	00a66333          	or	t1,a2,a0
   13568:	0045c603          	lbu	a2,4(a1)
   1356c:	0055c703          	lbu	a4,5(a1)
   13570:	0065c503          	lbu	a0,6(a1)
   13574:	0075c683          	lbu	a3,7(a1)
   13578:	04c2                	slli	s1,s1,0x10
   1357a:	07e2                	slli	a5,a5,0x18
   1357c:	0722                	slli	a4,a4,0x8
   1357e:	0542                	slli	a0,a0,0x10
   13580:	06e2                	slli	a3,a3,0x18
   13582:	0097efb3          	or	t6,a5,s1
   13586:	00c76f33          	or	t5,a4,a2
   1358a:	0005c703          	lbu	a4,0(a1)
   1358e:	0015c483          	lbu	s1,1(a1)
   13592:	00a6e633          	or	a2,a3,a0
   13596:	0025c683          	lbu	a3,2(a1)
   1359a:	0035c583          	lbu	a1,3(a1)
   1359e:	04a2                	slli	s1,s1,0x8
   135a0:	00e4e9b3          	or	s3,s1,a4
   135a4:	06c2                	slli	a3,a3,0x10
   135a6:	05e2                	slli	a1,a1,0x18
   135a8:	8ecd                	or	a3,a3,a1
   135aa:	0113e7b3          	or	a5,t2,a7
   135ae:	01d46733          	or	a4,s0,t4
   135b2:	d802                	sw	zero,48(sp)
   135b4:	da02                	sw	zero,52(sp)
   135b6:	02011c23          	sh	zero,56(sp)
   135ba:	02010d23          	sb	zero,58(sp)
   135be:	d002                	sw	zero,32(sp)
   135c0:	d202                	sw	zero,36(sp)
   135c2:	d402                	sw	zero,40(sp)
   135c4:	d602                	sw	zero,44(sp)
   135c6:	005e62b3          	or	t0,t3,t0
   135ca:	6889                	lui	a7,0x2
   135cc:	006fe4b3          	or	s1,t6,t1
   135d0:	4595                	li	a1,5
   135d2:	01e66433          	or	s0,a2,t5
   135d6:	0050                	addi	a2,sp,4
   135d8:	0136e533          	or	a0,a3,s3
   135dc:	46e9                	li	a3,26
   135de:	ca3a                	sw	a4,20(sp)
   135e0:	cc3e                	sw	a5,24(sp)
   135e2:	01011e23          	sh	a6,28(sp)
   135e6:	4711                	li	a4,4
   135e8:	cce88793          	addi	a5,a7,-818 # 1cce <.Lline_table_start1+0x1aa3>
   135ec:	c22a                	sw	a0,4(sp)
   135ee:	c422                	sw	s0,8(sp)
   135f0:	c626                	sw	s1,12(sp)
   135f2:	c816                	sw	t0,16(sp)
   135f4:	4489                	li	s1,2
   135f6:	853e                	mv	a0,a5
   135f8:	00000073          	ecall
   135fc:	02950963          	beq	a0,s1,1362e <_ZN18complex_no_dynamic3app17h4f069c9ec0b48445E+0x156>
   13600:	4589                	li	a1,2
   13602:	1010                	addi	a2,sp,32
   13604:	46ed                	li	a3,27
   13606:	470d                	li	a4,3
   13608:	853e                	mv	a0,a5
   1360a:	00000073          	ecall
   1360e:	02950063          	beq	a0,s1,1362e <_ZN18complex_no_dynamic3app17h4f069c9ec0b48445E+0x156>
   13612:	6509                	lui	a0,0x2
   13614:	4595                	li	a1,5
   13616:	4609                	li	a2,2
   13618:	cce50793          	addi	a5,a0,-818 # 1cce <.Lline_table_start1+0x1aa3>
   1361c:	4709                	li	a4,2
   1361e:	07f00493          	li	s1,127
   13622:	853e                	mv	a0,a5
   13624:	4681                	li	a3,0
   13626:	00000073          	ecall
   1362a:	02a4ec63          	bltu	s1,a0,13662 <_ZN18complex_no_dynamic3app17h4f069c9ec0b48445E+0x18a>
   1362e:	4785                	li	a5,1
   13630:	c3b1                	beqz	a5,13674 <_ZN18complex_no_dynamic3app17h4f069c9ec0b48445E+0x19c>
   13632:	4601                	li	a2,0
   13634:	4681                	li	a3,0
   13636:	4505                	li	a0,1
   13638:	6709                	lui	a4,0x2
   1363a:	87ae                	mv	a5,a1
   1363c:	4589                	li	a1,2
   1363e:	00a90023          	sb	a0,0(s2)
   13642:	00f92223          	sw	a5,4(s2)
   13646:	cce70793          	addi	a5,a4,-818 # 1cce <.Lline_table_start1+0x1aa3>
   1364a:	470d                	li	a4,3
   1364c:	853e                	mv	a0,a5
   1364e:	00000073          	ecall
   13652:	4595                	li	a1,5
   13654:	4711                	li	a4,4
   13656:	853e                	mv	a0,a5
   13658:	4601                	li	a2,0
   1365a:	4681                	li	a3,0
   1365c:	00000073          	ecall
   13660:	a8a1                	j	136b8 <_ZN18complex_no_dynamic3app17h4f069c9ec0b48445E+0x1e0>
   13662:	853e                	mv	a0,a5
   13664:	4601                	li	a2,0
   13666:	4681                	li	a3,0
   13668:	4781                	li	a5,0
   1366a:	4589                	li	a1,2
   1366c:	470d                	li	a4,3
   1366e:	00000073          	ecall
   13672:	f3e1                	bnez	a5,13632 <_ZN18complex_no_dynamic3app17h4f069c9ec0b48445E+0x15a>
   13674:	6509                	lui	a0,0x2
   13676:	cce50493          	addi	s1,a0,-818 # 1cce <.Lline_table_start1+0x1aa3>
   1367a:	4589                	li	a1,2
   1367c:	470d                	li	a4,3
   1367e:	8526                	mv	a0,s1
   13680:	4601                	li	a2,0
   13682:	4681                	li	a3,0
   13684:	00000073          	ecall
   13688:	00190513          	addi	a0,s2,1
   1368c:	100c                	addi	a1,sp,32
   1368e:	466d                	li	a2,27
   13690:	00009097          	auipc	ra,0x9
   13694:	6a0080e7          	jalr	1696(ra) # 1cd30 <memcpy>
   13698:	8526                	mv	a0,s1
   1369a:	4601                	li	a2,0
   1369c:	4681                	li	a3,0
   1369e:	00090023          	sb	zero,0(s2)
   136a2:	4589                	li	a1,2
   136a4:	470d                	li	a4,3
   136a6:	00000073          	ecall
   136aa:	4595                	li	a1,5
   136ac:	4711                	li	a4,4
   136ae:	8526                	mv	a0,s1
   136b0:	4601                	li	a2,0
   136b2:	4681                	li	a3,0
   136b4:	00000073          	ecall
   136b8:	40b6                	lw	ra,76(sp)
   136ba:	4426                	lw	s0,72(sp)
   136bc:	4496                	lw	s1,68(sp)
   136be:	4906                	lw	s2,64(sp)
   136c0:	59f2                	lw	s3,60(sp)
   136c2:	6161                	addi	sp,sp,80
   136c4:	8082                	ret

000136c6 <_ZN18complex_no_dynamic3app17h59f81a873484c03eE>:
   136c6:	7135                	addi	sp,sp,-160
   136c8:	cf06                	sw	ra,156(sp)
   136ca:	cd22                	sw	s0,152(sp)
   136cc:	842a                	mv	s0,a0
   136ce:	00910513          	addi	a0,sp,9
   136d2:	06300613          	li	a2,99
   136d6:	00009097          	auipc	ra,0x9
   136da:	65a080e7          	jalr	1626(ra) # 1cd30 <memcpy>
   136de:	10e8                	addi	a0,sp,108
   136e0:	02c00613          	li	a2,44
   136e4:	4581                	li	a1,0
   136e6:	00009097          	auipc	ra,0x9
   136ea:	5de080e7          	jalr	1502(ra) # 1ccc4 <memset>
   136ee:	4561                	li	a0,24
   136f0:	4595                	li	a1,5
   136f2:	00910613          	addi	a2,sp,9
   136f6:	06300693          	li	a3,99
   136fa:	4711                	li	a4,4
   136fc:	4789                	li	a5,2
   136fe:	00000073          	ecall
   13702:	02f50763          	beq	a0,a5,13730 <_ZN18complex_no_dynamic3app17h59f81a873484c03eE+0x6a>
   13706:	4561                	li	a0,24
   13708:	458d                	li	a1,3
   1370a:	10f0                	addi	a2,sp,108
   1370c:	02c00693          	li	a3,44
   13710:	470d                	li	a4,3
   13712:	00000073          	ecall
   13716:	00f50d63          	beq	a0,a5,13730 <_ZN18complex_no_dynamic3app17h59f81a873484c03eE+0x6a>
   1371a:	4561                	li	a0,24
   1371c:	4595                	li	a1,5
   1371e:	460d                	li	a2,3
   13720:	4709                	li	a4,2
   13722:	07f00793          	li	a5,127
   13726:	4681                	li	a3,0
   13728:	00000073          	ecall
   1372c:	02a7e763          	bltu	a5,a0,1375a <_ZN18complex_no_dynamic3app17h59f81a873484c03eE+0x94>
   13730:	4785                	li	a5,1
   13732:	cf8d                	beqz	a5,1376c <_ZN18complex_no_dynamic3app17h59f81a873484c03eE+0xa6>
   13734:	4601                	li	a2,0
   13736:	4681                	li	a3,0
   13738:	4705                	li	a4,1
   1373a:	4561                	li	a0,24
   1373c:	00e40023          	sb	a4,0(s0)
   13740:	c04c                	sw	a1,4(s0)
   13742:	458d                	li	a1,3
   13744:	470d                	li	a4,3
   13746:	00000073          	ecall
   1374a:	4561                	li	a0,24
   1374c:	4595                	li	a1,5
   1374e:	4711                	li	a4,4
   13750:	4601                	li	a2,0
   13752:	4681                	li	a3,0
   13754:	00000073          	ecall
   13758:	a891                	j	137ac <_ZN18complex_no_dynamic3app17h59f81a873484c03eE+0xe6>
   1375a:	4601                	li	a2,0
   1375c:	4681                	li	a3,0
   1375e:	4781                	li	a5,0
   13760:	4561                	li	a0,24
   13762:	458d                	li	a1,3
   13764:	470d                	li	a4,3
   13766:	00000073          	ecall
   1376a:	f7e9                	bnez	a5,13734 <_ZN18complex_no_dynamic3app17h59f81a873484c03eE+0x6e>
   1376c:	4561                	li	a0,24
   1376e:	458d                	li	a1,3
   13770:	470d                	li	a4,3
   13772:	4601                	li	a2,0
   13774:	4681                	li	a3,0
   13776:	00000073          	ecall
   1377a:	00140513          	addi	a0,s0,1
   1377e:	10ec                	addi	a1,sp,108
   13780:	02c00613          	li	a2,44
   13784:	00009097          	auipc	ra,0x9
   13788:	5ac080e7          	jalr	1452(ra) # 1cd30 <memcpy>
   1378c:	4601                	li	a2,0
   1378e:	4681                	li	a3,0
   13790:	00040023          	sb	zero,0(s0)
   13794:	4561                	li	a0,24
   13796:	458d                	li	a1,3
   13798:	470d                	li	a4,3
   1379a:	00000073          	ecall
   1379e:	4561                	li	a0,24
   137a0:	4595                	li	a1,5
   137a2:	4711                	li	a4,4
   137a4:	4601                	li	a2,0
   137a6:	4681                	li	a3,0
   137a8:	00000073          	ecall
   137ac:	40fa                	lw	ra,156(sp)
   137ae:	446a                	lw	s0,152(sp)
   137b0:	610d                	addi	sp,sp,160
   137b2:	8082                	ret

000137b4 <_ZN18complex_no_dynamic3app17h5c2a550d9cab2e7aE>:
   137b4:	711d                	addi	sp,sp,-96
   137b6:	ce86                	sw	ra,92(sp)
   137b8:	cca2                	sw	s0,88(sp)
   137ba:	caa6                	sw	s1,84(sp)
   137bc:	c8ca                	sw	s2,80(sp)
   137be:	892a                	mv	s2,a0
   137c0:	00510513          	addi	a0,sp,5
   137c4:	02100613          	li	a2,33
   137c8:	00009097          	auipc	ra,0x9
   137cc:	568080e7          	jalr	1384(ra) # 1cd30 <memcpy>
   137d0:	02610513          	addi	a0,sp,38
   137d4:	02a00613          	li	a2,42
   137d8:	4581                	li	a1,0
   137da:	00009097          	auipc	ra,0x9
   137de:	4ea080e7          	jalr	1258(ra) # 1ccc4 <memset>
   137e2:	6505                	lui	a0,0x1
   137e4:	4585                	li	a1,1
   137e6:	00510613          	addi	a2,sp,5
   137ea:	02100693          	li	a3,33
   137ee:	4711                	li	a4,4
   137f0:	5f350793          	addi	a5,a0,1523 # 15f3 <.Lline_table_start1+0x13c8>
   137f4:	4409                	li	s0,2
   137f6:	853e                	mv	a0,a5
   137f8:	00000073          	ecall
   137fc:	4485                	li	s1,1
   137fe:	04850663          	beq	a0,s0,1384a <_ZN18complex_no_dynamic3app17h5c2a550d9cab2e7aE+0x96>
   13802:	458d                	li	a1,3
   13804:	02610613          	addi	a2,sp,38
   13808:	02a00693          	li	a3,42
   1380c:	470d                	li	a4,3
   1380e:	853e                	mv	a0,a5
   13810:	00000073          	ecall
   13814:	00851463          	bne	a0,s0,1381c <_ZN18complex_no_dynamic3app17h5c2a550d9cab2e7aE+0x68>
   13818:	4485                	li	s1,1
   1381a:	a805                	j	1384a <_ZN18complex_no_dynamic3app17h5c2a550d9cab2e7aE+0x96>
   1381c:	4681                	li	a3,0
   1381e:	6505                	lui	a0,0x1
   13820:	4585                	li	a1,1
   13822:	460d                	li	a2,3
   13824:	4709                	li	a4,2
   13826:	5f350793          	addi	a5,a0,1523 # 15f3 <.Lline_table_start1+0x13c8>
   1382a:	07f00413          	li	s0,127
   1382e:	853e                	mv	a0,a5
   13830:	00000073          	ecall
   13834:	4485                	li	s1,1
   13836:	00a47a63          	bgeu	s0,a0,1384a <_ZN18complex_no_dynamic3app17h5c2a550d9cab2e7aE+0x96>
   1383a:	853e                	mv	a0,a5
   1383c:	4601                	li	a2,0
   1383e:	4681                	li	a3,0
   13840:	4481                	li	s1,0
   13842:	458d                	li	a1,3
   13844:	470d                	li	a4,3
   13846:	00000073          	ecall
   1384a:	c88d                	beqz	s1,1387c <_ZN18complex_no_dynamic3app17h5c2a550d9cab2e7aE+0xc8>
   1384c:	4601                	li	a2,0
   1384e:	4681                	li	a3,0
   13850:	4505                	li	a0,1
   13852:	6705                	lui	a4,0x1
   13854:	87ae                	mv	a5,a1
   13856:	458d                	li	a1,3
   13858:	00a90023          	sb	a0,0(s2)
   1385c:	00f92223          	sw	a5,4(s2)
   13860:	5f370793          	addi	a5,a4,1523 # 15f3 <.Lline_table_start1+0x13c8>
   13864:	470d                	li	a4,3
   13866:	853e                	mv	a0,a5
   13868:	00000073          	ecall
   1386c:	4585                	li	a1,1
   1386e:	4711                	li	a4,4
   13870:	853e                	mv	a0,a5
   13872:	4601                	li	a2,0
   13874:	4681                	li	a3,0
   13876:	00000073          	ecall
   1387a:	a0a9                	j	138c4 <_ZN18complex_no_dynamic3app17h5c2a550d9cab2e7aE+0x110>
   1387c:	6505                	lui	a0,0x1
   1387e:	5f350493          	addi	s1,a0,1523 # 15f3 <.Lline_table_start1+0x13c8>
   13882:	458d                	li	a1,3
   13884:	470d                	li	a4,3
   13886:	8526                	mv	a0,s1
   13888:	4601                	li	a2,0
   1388a:	4681                	li	a3,0
   1388c:	00000073          	ecall
   13890:	00190513          	addi	a0,s2,1
   13894:	02610593          	addi	a1,sp,38
   13898:	02a00613          	li	a2,42
   1389c:	00009097          	auipc	ra,0x9
   138a0:	494080e7          	jalr	1172(ra) # 1cd30 <memcpy>
   138a4:	8526                	mv	a0,s1
   138a6:	4601                	li	a2,0
   138a8:	4681                	li	a3,0
   138aa:	00090023          	sb	zero,0(s2)
   138ae:	458d                	li	a1,3
   138b0:	470d                	li	a4,3
   138b2:	00000073          	ecall
   138b6:	4585                	li	a1,1
   138b8:	4711                	li	a4,4
   138ba:	8526                	mv	a0,s1
   138bc:	4601                	li	a2,0
   138be:	4681                	li	a3,0
   138c0:	00000073          	ecall
   138c4:	40f6                	lw	ra,92(sp)
   138c6:	4466                	lw	s0,88(sp)
   138c8:	44d6                	lw	s1,84(sp)
   138ca:	4946                	lw	s2,80(sp)
   138cc:	6125                	addi	sp,sp,96
   138ce:	8082                	ret

000138d0 <_ZN18complex_no_dynamic3app17h606bd91a44653aa6E>:
   138d0:	711d                	addi	sp,sp,-96
   138d2:	ce86                	sw	ra,92(sp)
   138d4:	cca2                	sw	s0,88(sp)
   138d6:	842a                	mv	s0,a0
   138d8:	00d10513          	addi	a0,sp,13
   138dc:	02b00613          	li	a2,43
   138e0:	00009097          	auipc	ra,0x9
   138e4:	450080e7          	jalr	1104(ra) # 1cd30 <memcpy>
   138e8:	c482                	sw	zero,72(sp)
   138ea:	c682                	sw	zero,76(sp)
   138ec:	c882                	sw	zero,80(sp)
   138ee:	04011a23          	sh	zero,84(sp)
   138f2:	dc02                	sw	zero,56(sp)
   138f4:	de02                	sw	zero,60(sp)
   138f6:	c082                	sw	zero,64(sp)
   138f8:	c282                	sw	zero,68(sp)
   138fa:	7e300513          	li	a0,2019
   138fe:	459d                	li	a1,7
   13900:	00d10613          	addi	a2,sp,13
   13904:	02b00693          	li	a3,43
   13908:	4711                	li	a4,4
   1390a:	4789                	li	a5,2
   1390c:	00000073          	ecall
   13910:	02f50863          	beq	a0,a5,13940 <_ZN18complex_no_dynamic3app17h606bd91a44653aa6E+0x70>
   13914:	7e300513          	li	a0,2019
   13918:	45a1                	li	a1,8
   1391a:	1830                	addi	a2,sp,56
   1391c:	46f9                	li	a3,30
   1391e:	470d                	li	a4,3
   13920:	00000073          	ecall
   13924:	00f50e63          	beq	a0,a5,13940 <_ZN18complex_no_dynamic3app17h606bd91a44653aa6E+0x70>
   13928:	7e300513          	li	a0,2019
   1392c:	459d                	li	a1,7
   1392e:	4621                	li	a2,8
   13930:	4709                	li	a4,2
   13932:	07f00793          	li	a5,127
   13936:	4681                	li	a3,0
   13938:	00000073          	ecall
   1393c:	02a7e963          	bltu	a5,a0,1396e <_ZN18complex_no_dynamic3app17h606bd91a44653aa6E+0x9e>
   13940:	4785                	li	a5,1
   13942:	c3a1                	beqz	a5,13982 <_ZN18complex_no_dynamic3app17h606bd91a44653aa6E+0xb2>
   13944:	4601                	li	a2,0
   13946:	4681                	li	a3,0
   13948:	4705                	li	a4,1
   1394a:	7e300513          	li	a0,2019
   1394e:	00e40023          	sb	a4,0(s0)
   13952:	c04c                	sw	a1,4(s0)
   13954:	45a1                	li	a1,8
   13956:	470d                	li	a4,3
   13958:	00000073          	ecall
   1395c:	7e300513          	li	a0,2019
   13960:	459d                	li	a1,7
   13962:	4711                	li	a4,4
   13964:	4601                	li	a2,0
   13966:	4681                	li	a3,0
   13968:	00000073          	ecall
   1396c:	a8a9                	j	139c6 <_ZN18complex_no_dynamic3app17h606bd91a44653aa6E+0xf6>
   1396e:	4601                	li	a2,0
   13970:	4681                	li	a3,0
   13972:	4781                	li	a5,0
   13974:	7e300513          	li	a0,2019
   13978:	45a1                	li	a1,8
   1397a:	470d                	li	a4,3
   1397c:	00000073          	ecall
   13980:	f3f1                	bnez	a5,13944 <_ZN18complex_no_dynamic3app17h606bd91a44653aa6E+0x74>
   13982:	7e300513          	li	a0,2019
   13986:	45a1                	li	a1,8
   13988:	470d                	li	a4,3
   1398a:	4601                	li	a2,0
   1398c:	4681                	li	a3,0
   1398e:	00000073          	ecall
   13992:	00140513          	addi	a0,s0,1
   13996:	182c                	addi	a1,sp,56
   13998:	4679                	li	a2,30
   1399a:	00009097          	auipc	ra,0x9
   1399e:	396080e7          	jalr	918(ra) # 1cd30 <memcpy>
   139a2:	4601                	li	a2,0
   139a4:	4681                	li	a3,0
   139a6:	00040023          	sb	zero,0(s0)
   139aa:	7e300513          	li	a0,2019
   139ae:	45a1                	li	a1,8
   139b0:	470d                	li	a4,3
   139b2:	00000073          	ecall
   139b6:	7e300513          	li	a0,2019
   139ba:	459d                	li	a1,7
   139bc:	4711                	li	a4,4
   139be:	4601                	li	a2,0
   139c0:	4681                	li	a3,0
   139c2:	00000073          	ecall
   139c6:	40f6                	lw	ra,92(sp)
   139c8:	4466                	lw	s0,88(sp)
   139ca:	6125                	addi	sp,sp,96
   139cc:	8082                	ret

000139ce <_ZN18complex_no_dynamic3app17h6463082dcbc9e59cE>:
   139ce:	7175                	addi	sp,sp,-144
   139d0:	c706                	sw	ra,140(sp)
   139d2:	c522                	sw	s0,136(sp)
   139d4:	c326                	sw	s1,132(sp)
   139d6:	842a                	mv	s0,a0
   139d8:	0068                	addi	a0,sp,12
   139da:	02700613          	li	a2,39
   139de:	00009097          	auipc	ra,0x9
   139e2:	352080e7          	jalr	850(ra) # 1cd30 <memcpy>
   139e6:	03310513          	addi	a0,sp,51
   139ea:	05100613          	li	a2,81
   139ee:	4581                	li	a1,0
   139f0:	00009097          	auipc	ra,0x9
   139f4:	2d4080e7          	jalr	724(ra) # 1ccc4 <memset>
   139f8:	6505                	lui	a0,0x1
   139fa:	0070                	addi	a2,sp,12
   139fc:	02700693          	li	a3,39
   13a00:	a3650793          	addi	a5,a0,-1482 # a36 <.Lline_table_start1+0x80b>
   13a04:	4711                	li	a4,4
   13a06:	4489                	li	s1,2
   13a08:	853e                	mv	a0,a5
   13a0a:	4581                	li	a1,0
   13a0c:	00000073          	ecall
   13a10:	02950b63          	beq	a0,s1,13a46 <_ZN18complex_no_dynamic3app17h6463082dcbc9e59cE+0x78>
   13a14:	4591                	li	a1,4
   13a16:	03310613          	addi	a2,sp,51
   13a1a:	05100693          	li	a3,81
   13a1e:	470d                	li	a4,3
   13a20:	853e                	mv	a0,a5
   13a22:	00000073          	ecall
   13a26:	02950063          	beq	a0,s1,13a46 <_ZN18complex_no_dynamic3app17h6463082dcbc9e59cE+0x78>
   13a2a:	6505                	lui	a0,0x1
   13a2c:	4611                	li	a2,4
   13a2e:	a3650793          	addi	a5,a0,-1482 # a36 <.Lline_table_start1+0x80b>
   13a32:	4709                	li	a4,2
   13a34:	07f00493          	li	s1,127
   13a38:	853e                	mv	a0,a5
   13a3a:	4581                	li	a1,0
   13a3c:	4681                	li	a3,0
   13a3e:	00000073          	ecall
   13a42:	02a4ea63          	bltu	s1,a0,13a76 <_ZN18complex_no_dynamic3app17h6463082dcbc9e59cE+0xa8>
   13a46:	4785                	li	a5,1
   13a48:	c3a1                	beqz	a5,13a88 <_ZN18complex_no_dynamic3app17h6463082dcbc9e59cE+0xba>
   13a4a:	4505                	li	a0,1
   13a4c:	6605                	lui	a2,0x1
   13a4e:	00a40023          	sb	a0,0(s0)
   13a52:	c04c                	sw	a1,4(s0)
   13a54:	a3660793          	addi	a5,a2,-1482 # a36 <.Lline_table_start1+0x80b>
   13a58:	4591                	li	a1,4
   13a5a:	470d                	li	a4,3
   13a5c:	853e                	mv	a0,a5
   13a5e:	4601                	li	a2,0
   13a60:	4681                	li	a3,0
   13a62:	00000073          	ecall
   13a66:	4711                	li	a4,4
   13a68:	853e                	mv	a0,a5
   13a6a:	4581                	li	a1,0
   13a6c:	4601                	li	a2,0
   13a6e:	4681                	li	a3,0
   13a70:	00000073          	ecall
   13a74:	a8b1                	j	13ad0 <_ZN18complex_no_dynamic3app17h6463082dcbc9e59cE+0x102>
   13a76:	853e                	mv	a0,a5
   13a78:	4601                	li	a2,0
   13a7a:	4681                	li	a3,0
   13a7c:	4781                	li	a5,0
   13a7e:	4591                	li	a1,4
   13a80:	470d                	li	a4,3
   13a82:	00000073          	ecall
   13a86:	f3f1                	bnez	a5,13a4a <_ZN18complex_no_dynamic3app17h6463082dcbc9e59cE+0x7c>
   13a88:	6505                	lui	a0,0x1
   13a8a:	a3650493          	addi	s1,a0,-1482 # a36 <.Lline_table_start1+0x80b>
   13a8e:	4591                	li	a1,4
   13a90:	470d                	li	a4,3
   13a92:	8526                	mv	a0,s1
   13a94:	4601                	li	a2,0
   13a96:	4681                	li	a3,0
   13a98:	00000073          	ecall
   13a9c:	00140513          	addi	a0,s0,1
   13aa0:	03310593          	addi	a1,sp,51
   13aa4:	05100613          	li	a2,81
   13aa8:	00009097          	auipc	ra,0x9
   13aac:	288080e7          	jalr	648(ra) # 1cd30 <memcpy>
   13ab0:	00040023          	sb	zero,0(s0)
   13ab4:	4591                	li	a1,4
   13ab6:	470d                	li	a4,3
   13ab8:	8526                	mv	a0,s1
   13aba:	4601                	li	a2,0
   13abc:	4681                	li	a3,0
   13abe:	00000073          	ecall
   13ac2:	4711                	li	a4,4
   13ac4:	8526                	mv	a0,s1
   13ac6:	4581                	li	a1,0
   13ac8:	4601                	li	a2,0
   13aca:	4681                	li	a3,0
   13acc:	00000073          	ecall
   13ad0:	40ba                	lw	ra,140(sp)
   13ad2:	442a                	lw	s0,136(sp)
   13ad4:	449a                	lw	s1,132(sp)
   13ad6:	6149                	addi	sp,sp,144
   13ad8:	8082                	ret

00013ada <_ZN18complex_no_dynamic3app17h64cc0a1688e683e5E>:
   13ada:	7171                	addi	sp,sp,-176
   13adc:	d706                	sw	ra,172(sp)
   13ade:	d522                	sw	s0,168(sp)
   13ae0:	d326                	sw	s1,164(sp)
   13ae2:	842a                	mv	s0,a0
   13ae4:	0048                	addi	a0,sp,4
   13ae6:	05100613          	li	a2,81
   13aea:	00009097          	auipc	ra,0x9
   13aee:	246080e7          	jalr	582(ra) # 1cd30 <memcpy>
   13af2:	05510513          	addi	a0,sp,85
   13af6:	04f00613          	li	a2,79
   13afa:	4581                	li	a1,0
   13afc:	00009097          	auipc	ra,0x9
   13b00:	1c8080e7          	jalr	456(ra) # 1ccc4 <memset>
   13b04:	6505                	lui	a0,0x1
   13b06:	4489                	li	s1,2
   13b08:	4589                	li	a1,2
   13b0a:	0050                	addi	a2,sp,4
   13b0c:	e1650793          	addi	a5,a0,-490 # e16 <.Lline_table_start1+0xbeb>
   13b10:	05100693          	li	a3,81
   13b14:	4711                	li	a4,4
   13b16:	853e                	mv	a0,a5
   13b18:	00000073          	ecall
   13b1c:	02950b63          	beq	a0,s1,13b52 <_ZN18complex_no_dynamic3app17h64cc0a1688e683e5E+0x78>
   13b20:	4591                	li	a1,4
   13b22:	05510613          	addi	a2,sp,85
   13b26:	04f00693          	li	a3,79
   13b2a:	470d                	li	a4,3
   13b2c:	853e                	mv	a0,a5
   13b2e:	00000073          	ecall
   13b32:	02950063          	beq	a0,s1,13b52 <_ZN18complex_no_dynamic3app17h64cc0a1688e683e5E+0x78>
   13b36:	6505                	lui	a0,0x1
   13b38:	4589                	li	a1,2
   13b3a:	4611                	li	a2,4
   13b3c:	e1650793          	addi	a5,a0,-490 # e16 <.Lline_table_start1+0xbeb>
   13b40:	4709                	li	a4,2
   13b42:	07f00493          	li	s1,127
   13b46:	853e                	mv	a0,a5
   13b48:	4681                	li	a3,0
   13b4a:	00000073          	ecall
   13b4e:	02a4eb63          	bltu	s1,a0,13b84 <_ZN18complex_no_dynamic3app17h64cc0a1688e683e5E+0xaa>
   13b52:	4785                	li	a5,1
   13b54:	c3a9                	beqz	a5,13b96 <_ZN18complex_no_dynamic3app17h64cc0a1688e683e5E+0xbc>
   13b56:	4601                	li	a2,0
   13b58:	4681                	li	a3,0
   13b5a:	4505                	li	a0,1
   13b5c:	6705                	lui	a4,0x1
   13b5e:	87ae                	mv	a5,a1
   13b60:	4591                	li	a1,4
   13b62:	00a40023          	sb	a0,0(s0)
   13b66:	c05c                	sw	a5,4(s0)
   13b68:	e1670793          	addi	a5,a4,-490 # e16 <.Lline_table_start1+0xbeb>
   13b6c:	470d                	li	a4,3
   13b6e:	853e                	mv	a0,a5
   13b70:	00000073          	ecall
   13b74:	4589                	li	a1,2
   13b76:	4711                	li	a4,4
   13b78:	853e                	mv	a0,a5
   13b7a:	4601                	li	a2,0
   13b7c:	4681                	li	a3,0
   13b7e:	00000073          	ecall
   13b82:	a8b1                	j	13bde <_ZN18complex_no_dynamic3app17h64cc0a1688e683e5E+0x104>
   13b84:	853e                	mv	a0,a5
   13b86:	4601                	li	a2,0
   13b88:	4681                	li	a3,0
   13b8a:	4781                	li	a5,0
   13b8c:	4591                	li	a1,4
   13b8e:	470d                	li	a4,3
   13b90:	00000073          	ecall
   13b94:	f3e9                	bnez	a5,13b56 <_ZN18complex_no_dynamic3app17h64cc0a1688e683e5E+0x7c>
   13b96:	6505                	lui	a0,0x1
   13b98:	e1650493          	addi	s1,a0,-490 # e16 <.Lline_table_start1+0xbeb>
   13b9c:	4591                	li	a1,4
   13b9e:	470d                	li	a4,3
   13ba0:	8526                	mv	a0,s1
   13ba2:	4601                	li	a2,0
   13ba4:	4681                	li	a3,0
   13ba6:	00000073          	ecall
   13baa:	00140513          	addi	a0,s0,1
   13bae:	05510593          	addi	a1,sp,85
   13bb2:	04f00613          	li	a2,79
   13bb6:	00009097          	auipc	ra,0x9
   13bba:	17a080e7          	jalr	378(ra) # 1cd30 <memcpy>
   13bbe:	8526                	mv	a0,s1
   13bc0:	4601                	li	a2,0
   13bc2:	4681                	li	a3,0
   13bc4:	00040023          	sb	zero,0(s0)
   13bc8:	4591                	li	a1,4
   13bca:	470d                	li	a4,3
   13bcc:	00000073          	ecall
   13bd0:	4589                	li	a1,2
   13bd2:	4711                	li	a4,4
   13bd4:	8526                	mv	a0,s1
   13bd6:	4601                	li	a2,0
   13bd8:	4681                	li	a3,0
   13bda:	00000073          	ecall
   13bde:	50ba                	lw	ra,172(sp)
   13be0:	542a                	lw	s0,168(sp)
   13be2:	549a                	lw	s1,164(sp)
   13be4:	614d                	addi	sp,sp,176
   13be6:	8082                	ret

00013be8 <_ZN18complex_no_dynamic3app17h64ebd8c0a8a31062E>:
   13be8:	7171                	addi	sp,sp,-176
   13bea:	d706                	sw	ra,172(sp)
   13bec:	d522                	sw	s0,168(sp)
   13bee:	d326                	sw	s1,164(sp)
   13bf0:	842a                	mv	s0,a0
   13bf2:	0048                	addi	a0,sp,4
   13bf4:	05300613          	li	a2,83
   13bf8:	00009097          	auipc	ra,0x9
   13bfc:	138080e7          	jalr	312(ra) # 1cd30 <memcpy>
   13c00:	05710513          	addi	a0,sp,87
   13c04:	04d00613          	li	a2,77
   13c08:	4581                	li	a1,0
   13c0a:	00009097          	auipc	ra,0x9
   13c0e:	0ba080e7          	jalr	186(ra) # 1ccc4 <memset>
   13c12:	6505                	lui	a0,0x1
   13c14:	45a5                	li	a1,9
   13c16:	0050                	addi	a2,sp,4
   13c18:	05300693          	li	a3,83
   13c1c:	6ba50793          	addi	a5,a0,1722 # 16ba <.Lline_table_start1+0x148f>
   13c20:	4711                	li	a4,4
   13c22:	4489                	li	s1,2
   13c24:	853e                	mv	a0,a5
   13c26:	00000073          	ecall
   13c2a:	02950b63          	beq	a0,s1,13c60 <_ZN18complex_no_dynamic3app17h64ebd8c0a8a31062E+0x78>
   13c2e:	4591                	li	a1,4
   13c30:	05710613          	addi	a2,sp,87
   13c34:	04d00693          	li	a3,77
   13c38:	470d                	li	a4,3
   13c3a:	853e                	mv	a0,a5
   13c3c:	00000073          	ecall
   13c40:	02950063          	beq	a0,s1,13c60 <_ZN18complex_no_dynamic3app17h64ebd8c0a8a31062E+0x78>
   13c44:	6505                	lui	a0,0x1
   13c46:	45a5                	li	a1,9
   13c48:	4611                	li	a2,4
   13c4a:	6ba50793          	addi	a5,a0,1722 # 16ba <.Lline_table_start1+0x148f>
   13c4e:	4709                	li	a4,2
   13c50:	07f00493          	li	s1,127
   13c54:	853e                	mv	a0,a5
   13c56:	4681                	li	a3,0
   13c58:	00000073          	ecall
   13c5c:	02a4eb63          	bltu	s1,a0,13c92 <_ZN18complex_no_dynamic3app17h64ebd8c0a8a31062E+0xaa>
   13c60:	4785                	li	a5,1
   13c62:	c3a9                	beqz	a5,13ca4 <_ZN18complex_no_dynamic3app17h64ebd8c0a8a31062E+0xbc>
   13c64:	4601                	li	a2,0
   13c66:	4681                	li	a3,0
   13c68:	4505                	li	a0,1
   13c6a:	6705                	lui	a4,0x1
   13c6c:	87ae                	mv	a5,a1
   13c6e:	4591                	li	a1,4
   13c70:	00a40023          	sb	a0,0(s0)
   13c74:	c05c                	sw	a5,4(s0)
   13c76:	6ba70793          	addi	a5,a4,1722 # 16ba <.Lline_table_start1+0x148f>
   13c7a:	470d                	li	a4,3
   13c7c:	853e                	mv	a0,a5
   13c7e:	00000073          	ecall
   13c82:	45a5                	li	a1,9
   13c84:	4711                	li	a4,4
   13c86:	853e                	mv	a0,a5
   13c88:	4601                	li	a2,0
   13c8a:	4681                	li	a3,0
   13c8c:	00000073          	ecall
   13c90:	a8b1                	j	13cec <_ZN18complex_no_dynamic3app17h64ebd8c0a8a31062E+0x104>
   13c92:	853e                	mv	a0,a5
   13c94:	4601                	li	a2,0
   13c96:	4681                	li	a3,0
   13c98:	4781                	li	a5,0
   13c9a:	4591                	li	a1,4
   13c9c:	470d                	li	a4,3
   13c9e:	00000073          	ecall
   13ca2:	f3e9                	bnez	a5,13c64 <_ZN18complex_no_dynamic3app17h64ebd8c0a8a31062E+0x7c>
   13ca4:	6505                	lui	a0,0x1
   13ca6:	6ba50493          	addi	s1,a0,1722 # 16ba <.Lline_table_start1+0x148f>
   13caa:	4591                	li	a1,4
   13cac:	470d                	li	a4,3
   13cae:	8526                	mv	a0,s1
   13cb0:	4601                	li	a2,0
   13cb2:	4681                	li	a3,0
   13cb4:	00000073          	ecall
   13cb8:	00140513          	addi	a0,s0,1
   13cbc:	05710593          	addi	a1,sp,87
   13cc0:	04d00613          	li	a2,77
   13cc4:	00009097          	auipc	ra,0x9
   13cc8:	06c080e7          	jalr	108(ra) # 1cd30 <memcpy>
   13ccc:	8526                	mv	a0,s1
   13cce:	4601                	li	a2,0
   13cd0:	4681                	li	a3,0
   13cd2:	00040023          	sb	zero,0(s0)
   13cd6:	4591                	li	a1,4
   13cd8:	470d                	li	a4,3
   13cda:	00000073          	ecall
   13cde:	45a5                	li	a1,9
   13ce0:	4711                	li	a4,4
   13ce2:	8526                	mv	a0,s1
   13ce4:	4601                	li	a2,0
   13ce6:	4681                	li	a3,0
   13ce8:	00000073          	ecall
   13cec:	50ba                	lw	ra,172(sp)
   13cee:	542a                	lw	s0,168(sp)
   13cf0:	549a                	lw	s1,164(sp)
   13cf2:	614d                	addi	sp,sp,176
   13cf4:	8082                	ret

00013cf6 <_ZN18complex_no_dynamic3app17h6545c2bd0767f8f3E>:
   13cf6:	7119                	addi	sp,sp,-128
   13cf8:	de86                	sw	ra,124(sp)
   13cfa:	dca2                	sw	s0,120(sp)
   13cfc:	daa6                	sw	s1,116(sp)
   13cfe:	84aa                	mv	s1,a0
   13d00:	0028                	addi	a0,sp,8
   13d02:	05000613          	li	a2,80
   13d06:	00009097          	auipc	ra,0x9
   13d0a:	02a080e7          	jalr	42(ra) # 1cd30 <memcpy>
   13d0e:	d482                	sw	zero,104(sp)
   13d10:	d682                	sw	zero,108(sp)
   13d12:	06011823          	sh	zero,112(sp)
   13d16:	06010923          	sb	zero,114(sp)
   13d1a:	cc82                	sw	zero,88(sp)
   13d1c:	ce82                	sw	zero,92(sp)
   13d1e:	d082                	sw	zero,96(sp)
   13d20:	d282                	sw	zero,100(sp)
   13d22:	3d900513          	li	a0,985
   13d26:	4585                	li	a1,1
   13d28:	0030                	addi	a2,sp,8
   13d2a:	05000693          	li	a3,80
   13d2e:	4711                	li	a4,4
   13d30:	4409                	li	s0,2
   13d32:	00000073          	ecall
   13d36:	4785                	li	a5,1
   13d38:	04850463          	beq	a0,s0,13d80 <_ZN18complex_no_dynamic3app17h6545c2bd0767f8f3E+0x8a>
   13d3c:	3d900513          	li	a0,985
   13d40:	4589                	li	a1,2
   13d42:	08b0                	addi	a2,sp,88
   13d44:	46ed                	li	a3,27
   13d46:	470d                	li	a4,3
   13d48:	00000073          	ecall
   13d4c:	00851463          	bne	a0,s0,13d54 <_ZN18complex_no_dynamic3app17h6545c2bd0767f8f3E+0x5e>
   13d50:	4785                	li	a5,1
   13d52:	a03d                	j	13d80 <_ZN18complex_no_dynamic3app17h6545c2bd0767f8f3E+0x8a>
   13d54:	4681                	li	a3,0
   13d56:	3d900513          	li	a0,985
   13d5a:	4585                	li	a1,1
   13d5c:	4609                	li	a2,2
   13d5e:	4709                	li	a4,2
   13d60:	07f00413          	li	s0,127
   13d64:	00000073          	ecall
   13d68:	4785                	li	a5,1
   13d6a:	00a47b63          	bgeu	s0,a0,13d80 <_ZN18complex_no_dynamic3app17h6545c2bd0767f8f3E+0x8a>
   13d6e:	4601                	li	a2,0
   13d70:	4681                	li	a3,0
   13d72:	4781                	li	a5,0
   13d74:	3d900513          	li	a0,985
   13d78:	4589                	li	a1,2
   13d7a:	470d                	li	a4,3
   13d7c:	00000073          	ecall
   13d80:	c795                	beqz	a5,13dac <_ZN18complex_no_dynamic3app17h6545c2bd0767f8f3E+0xb6>
   13d82:	4601                	li	a2,0
   13d84:	4681                	li	a3,0
   13d86:	4705                	li	a4,1
   13d88:	3d900513          	li	a0,985
   13d8c:	00e48023          	sb	a4,0(s1)
   13d90:	c0cc                	sw	a1,4(s1)
   13d92:	4589                	li	a1,2
   13d94:	470d                	li	a4,3
   13d96:	00000073          	ecall
   13d9a:	3d900513          	li	a0,985
   13d9e:	4585                	li	a1,1
   13da0:	4711                	li	a4,4
   13da2:	4601                	li	a2,0
   13da4:	4681                	li	a3,0
   13da6:	00000073          	ecall
   13daa:	a099                	j	13df0 <_ZN18complex_no_dynamic3app17h6545c2bd0767f8f3E+0xfa>
   13dac:	3d900513          	li	a0,985
   13db0:	4589                	li	a1,2
   13db2:	470d                	li	a4,3
   13db4:	4601                	li	a2,0
   13db6:	4681                	li	a3,0
   13db8:	00000073          	ecall
   13dbc:	00148513          	addi	a0,s1,1
   13dc0:	08ac                	addi	a1,sp,88
   13dc2:	466d                	li	a2,27
   13dc4:	00009097          	auipc	ra,0x9
   13dc8:	f6c080e7          	jalr	-148(ra) # 1cd30 <memcpy>
   13dcc:	4601                	li	a2,0
   13dce:	4681                	li	a3,0
   13dd0:	00048023          	sb	zero,0(s1)
   13dd4:	3d900513          	li	a0,985
   13dd8:	4589                	li	a1,2
   13dda:	470d                	li	a4,3
   13ddc:	00000073          	ecall
   13de0:	3d900513          	li	a0,985
   13de4:	4585                	li	a1,1
   13de6:	4711                	li	a4,4
   13de8:	4601                	li	a2,0
   13dea:	4681                	li	a3,0
   13dec:	00000073          	ecall
   13df0:	50f6                	lw	ra,124(sp)
   13df2:	5466                	lw	s0,120(sp)
   13df4:	54d6                	lw	s1,116(sp)
   13df6:	6109                	addi	sp,sp,128
   13df8:	8082                	ret

00013dfa <_ZN18complex_no_dynamic3app17h67cf224a56dbc24bE>:
   13dfa:	7119                	addi	sp,sp,-128
   13dfc:	de86                	sw	ra,124(sp)
   13dfe:	dca2                	sw	s0,120(sp)
   13e00:	daa6                	sw	s1,116(sp)
   13e02:	d8ca                	sw	s2,112(sp)
   13e04:	892a                	mv	s2,a0
   13e06:	0185c803          	lbu	a6,24(a1)
   13e0a:	0195c383          	lbu	t2,25(a1)
   13e0e:	0145c883          	lbu	a7,20(a1)
   13e12:	0155ce83          	lbu	t4,21(a1)
   13e16:	0165c783          	lbu	a5,22(a1)
   13e1a:	0175c483          	lbu	s1,23(a1)
   13e1e:	0105c403          	lbu	s0,16(a1)
   13e22:	0115c503          	lbu	a0,17(a1)
   13e26:	0125c283          	lbu	t0,18(a1)
   13e2a:	0135ce03          	lbu	t3,19(a1)
   13e2e:	00c5c303          	lbu	t1,12(a1)
   13e32:	00d5cf03          	lbu	t5,13(a1)
   13e36:	00e5c683          	lbu	a3,14(a1)
   13e3a:	00f5c703          	lbu	a4,15(a1)
   13e3e:	03a2                	slli	t2,t2,0x8
   13e40:	0ea2                	slli	t4,t4,0x8
   13e42:	01079613          	slli	a2,a5,0x10
   13e46:	01849793          	slli	a5,s1,0x18
   13e4a:	0522                	slli	a0,a0,0x8
   13e4c:	0103e833          	or	a6,t2,a6
   13e50:	011ee8b3          	or	a7,t4,a7
   13e54:	00c7e3b3          	or	t2,a5,a2
   13e58:	00856eb3          	or	t4,a0,s0
   13e5c:	0085c503          	lbu	a0,8(a1)
   13e60:	0095c603          	lbu	a2,9(a1)
   13e64:	00a5c483          	lbu	s1,10(a1)
   13e68:	00b5c783          	lbu	a5,11(a1)
   13e6c:	02c2                	slli	t0,t0,0x10
   13e6e:	0e62                	slli	t3,t3,0x18
   13e70:	0f22                	slli	t5,t5,0x8
   13e72:	06c2                	slli	a3,a3,0x10
   13e74:	0762                	slli	a4,a4,0x18
   13e76:	0622                	slli	a2,a2,0x8
   13e78:	005e6e33          	or	t3,t3,t0
   13e7c:	006f62b3          	or	t0,t5,t1
   13e80:	8ed9                	or	a3,a3,a4
   13e82:	00a66333          	or	t1,a2,a0
   13e86:	0045c603          	lbu	a2,4(a1)
   13e8a:	0055c703          	lbu	a4,5(a1)
   13e8e:	0065c403          	lbu	s0,6(a1)
   13e92:	0075c503          	lbu	a0,7(a1)
   13e96:	04c2                	slli	s1,s1,0x10
   13e98:	07e2                	slli	a5,a5,0x18
   13e9a:	0722                	slli	a4,a4,0x8
   13e9c:	0442                	slli	s0,s0,0x10
   13e9e:	0562                	slli	a0,a0,0x18
   13ea0:	8fc5                	or	a5,a5,s1
   13ea2:	8e59                	or	a2,a2,a4
   13ea4:	0005c703          	lbu	a4,0(a1)
   13ea8:	0015c483          	lbu	s1,1(a1)
   13eac:	8d41                	or	a0,a0,s0
   13eae:	0025c403          	lbu	s0,2(a1)
   13eb2:	0035c583          	lbu	a1,3(a1)
   13eb6:	04a2                	slli	s1,s1,0x8
   13eb8:	8f45                	or	a4,a4,s1
   13eba:	0442                	slli	s0,s0,0x10
   13ebc:	05e2                	slli	a1,a1,0x18
   13ebe:	8dc1                	or	a1,a1,s0
   13ec0:	0113e4b3          	or	s1,t2,a7
   13ec4:	01de6433          	or	s0,t3,t4
   13ec8:	0056e6b3          	or	a3,a3,t0
   13ecc:	0067e7b3          	or	a5,a5,t1
   13ed0:	8d51                	or	a0,a0,a2
   13ed2:	8dd9                	or	a1,a1,a4
   13ed4:	ca22                	sw	s0,20(sp)
   13ed6:	cc26                	sw	s1,24(sp)
   13ed8:	01011e23          	sh	a6,28(sp)
   13edc:	c22e                	sw	a1,4(sp)
   13ede:	c42a                	sw	a0,8(sp)
   13ee0:	c63e                	sw	a5,12(sp)
   13ee2:	c836                	sw	a3,16(sp)
   13ee4:	1008                	addi	a0,sp,32
   13ee6:	05000613          	li	a2,80
   13eea:	4581                	li	a1,0
   13eec:	00009097          	auipc	ra,0x9
   13ef0:	dd8080e7          	jalr	-552(ra) # 1ccc4 <memset>
   13ef4:	6505                	lui	a0,0x1
   13ef6:	459d                	li	a1,7
   13ef8:	0050                	addi	a2,sp,4
   13efa:	46e9                	li	a3,26
   13efc:	aee50793          	addi	a5,a0,-1298 # aee <.Lline_table_start1+0x8c3>
   13f00:	4711                	li	a4,4
   13f02:	4489                	li	s1,2
   13f04:	853e                	mv	a0,a5
   13f06:	00000073          	ecall
   13f0a:	02950a63          	beq	a0,s1,13f3e <_ZN18complex_no_dynamic3app17h67cf224a56dbc24bE+0x144>
   13f0e:	4591                	li	a1,4
   13f10:	1010                	addi	a2,sp,32
   13f12:	05000693          	li	a3,80
   13f16:	470d                	li	a4,3
   13f18:	853e                	mv	a0,a5
   13f1a:	00000073          	ecall
   13f1e:	02950063          	beq	a0,s1,13f3e <_ZN18complex_no_dynamic3app17h67cf224a56dbc24bE+0x144>
   13f22:	6505                	lui	a0,0x1
   13f24:	459d                	li	a1,7
   13f26:	4611                	li	a2,4
   13f28:	aee50793          	addi	a5,a0,-1298 # aee <.Lline_table_start1+0x8c3>
   13f2c:	4709                	li	a4,2
   13f2e:	07f00493          	li	s1,127
   13f32:	853e                	mv	a0,a5
   13f34:	4681                	li	a3,0
   13f36:	00000073          	ecall
   13f3a:	02a4ec63          	bltu	s1,a0,13f72 <_ZN18complex_no_dynamic3app17h67cf224a56dbc24bE+0x178>
   13f3e:	4785                	li	a5,1
   13f40:	c3b1                	beqz	a5,13f84 <_ZN18complex_no_dynamic3app17h67cf224a56dbc24bE+0x18a>
   13f42:	4601                	li	a2,0
   13f44:	4681                	li	a3,0
   13f46:	4505                	li	a0,1
   13f48:	6705                	lui	a4,0x1
   13f4a:	87ae                	mv	a5,a1
   13f4c:	4591                	li	a1,4
   13f4e:	00a90023          	sb	a0,0(s2)
   13f52:	00f92223          	sw	a5,4(s2)
   13f56:	aee70793          	addi	a5,a4,-1298 # aee <.Lline_table_start1+0x8c3>
   13f5a:	470d                	li	a4,3
   13f5c:	853e                	mv	a0,a5
   13f5e:	00000073          	ecall
   13f62:	459d                	li	a1,7
   13f64:	4711                	li	a4,4
   13f66:	853e                	mv	a0,a5
   13f68:	4601                	li	a2,0
   13f6a:	4681                	li	a3,0
   13f6c:	00000073          	ecall
   13f70:	a8a9                	j	13fca <_ZN18complex_no_dynamic3app17h67cf224a56dbc24bE+0x1d0>
   13f72:	853e                	mv	a0,a5
   13f74:	4601                	li	a2,0
   13f76:	4681                	li	a3,0
   13f78:	4781                	li	a5,0
   13f7a:	4591                	li	a1,4
   13f7c:	470d                	li	a4,3
   13f7e:	00000073          	ecall
   13f82:	f3e1                	bnez	a5,13f42 <_ZN18complex_no_dynamic3app17h67cf224a56dbc24bE+0x148>
   13f84:	6505                	lui	a0,0x1
   13f86:	aee50493          	addi	s1,a0,-1298 # aee <.Lline_table_start1+0x8c3>
   13f8a:	4591                	li	a1,4
   13f8c:	470d                	li	a4,3
   13f8e:	8526                	mv	a0,s1
   13f90:	4601                	li	a2,0
   13f92:	4681                	li	a3,0
   13f94:	00000073          	ecall
   13f98:	00190513          	addi	a0,s2,1
   13f9c:	100c                	addi	a1,sp,32
   13f9e:	05000613          	li	a2,80
   13fa2:	00009097          	auipc	ra,0x9
   13fa6:	d8e080e7          	jalr	-626(ra) # 1cd30 <memcpy>
   13faa:	8526                	mv	a0,s1
   13fac:	4601                	li	a2,0
   13fae:	4681                	li	a3,0
   13fb0:	00090023          	sb	zero,0(s2)
   13fb4:	4591                	li	a1,4
   13fb6:	470d                	li	a4,3
   13fb8:	00000073          	ecall
   13fbc:	459d                	li	a1,7
   13fbe:	4711                	li	a4,4
   13fc0:	8526                	mv	a0,s1
   13fc2:	4601                	li	a2,0
   13fc4:	4681                	li	a3,0
   13fc6:	00000073          	ecall
   13fca:	50f6                	lw	ra,124(sp)
   13fcc:	5466                	lw	s0,120(sp)
   13fce:	54d6                	lw	s1,116(sp)
   13fd0:	5946                	lw	s2,112(sp)
   13fd2:	6109                	addi	sp,sp,128
   13fd4:	8082                	ret

00013fd6 <_ZN18complex_no_dynamic3app17h6993680f272e1bd8E>:
   13fd6:	711d                	addi	sp,sp,-96
   13fd8:	ce86                	sw	ra,92(sp)
   13fda:	cca2                	sw	s0,88(sp)
   13fdc:	caa6                	sw	s1,84(sp)
   13fde:	842a                	mv	s0,a0
   13fe0:	00d10513          	addi	a0,sp,13
   13fe4:	02300613          	li	a2,35
   13fe8:	00009097          	auipc	ra,0x9
   13fec:	d48080e7          	jalr	-696(ra) # 1cd30 <memcpy>
   13ff0:	1808                	addi	a0,sp,48
   13ff2:	02400613          	li	a2,36
   13ff6:	4581                	li	a1,0
   13ff8:	00009097          	auipc	ra,0x9
   13ffc:	ccc080e7          	jalr	-820(ra) # 1ccc4 <memset>
   14000:	6509                	lui	a0,0x2
   14002:	4591                	li	a1,4
   14004:	00d10613          	addi	a2,sp,13
   14008:	02300693          	li	a3,35
   1400c:	bd650793          	addi	a5,a0,-1066 # 1bd6 <.Lline_table_start1+0x19ab>
   14010:	4711                	li	a4,4
   14012:	4489                	li	s1,2
   14014:	853e                	mv	a0,a5
   14016:	00000073          	ecall
   1401a:	02950a63          	beq	a0,s1,1404e <_ZN18complex_no_dynamic3app17h6993680f272e1bd8E+0x78>
   1401e:	45a1                	li	a1,8
   14020:	1810                	addi	a2,sp,48
   14022:	02400693          	li	a3,36
   14026:	470d                	li	a4,3
   14028:	853e                	mv	a0,a5
   1402a:	00000073          	ecall
   1402e:	02950063          	beq	a0,s1,1404e <_ZN18complex_no_dynamic3app17h6993680f272e1bd8E+0x78>
   14032:	6509                	lui	a0,0x2
   14034:	4591                	li	a1,4
   14036:	4621                	li	a2,8
   14038:	bd650793          	addi	a5,a0,-1066 # 1bd6 <.Lline_table_start1+0x19ab>
   1403c:	4709                	li	a4,2
   1403e:	07f00493          	li	s1,127
   14042:	853e                	mv	a0,a5
   14044:	4681                	li	a3,0
   14046:	00000073          	ecall
   1404a:	02a4eb63          	bltu	s1,a0,14080 <_ZN18complex_no_dynamic3app17h6993680f272e1bd8E+0xaa>
   1404e:	4785                	li	a5,1
   14050:	c3a9                	beqz	a5,14092 <_ZN18complex_no_dynamic3app17h6993680f272e1bd8E+0xbc>
   14052:	4601                	li	a2,0
   14054:	4681                	li	a3,0
   14056:	4505                	li	a0,1
   14058:	6709                	lui	a4,0x2
   1405a:	87ae                	mv	a5,a1
   1405c:	45a1                	li	a1,8
   1405e:	00a40023          	sb	a0,0(s0)
   14062:	c05c                	sw	a5,4(s0)
   14064:	bd670793          	addi	a5,a4,-1066 # 1bd6 <.Lline_table_start1+0x19ab>
   14068:	470d                	li	a4,3
   1406a:	853e                	mv	a0,a5
   1406c:	00000073          	ecall
   14070:	4591                	li	a1,4
   14072:	4711                	li	a4,4
   14074:	853e                	mv	a0,a5
   14076:	4601                	li	a2,0
   14078:	4681                	li	a3,0
   1407a:	00000073          	ecall
   1407e:	a8a9                	j	140d8 <_ZN18complex_no_dynamic3app17h6993680f272e1bd8E+0x102>
   14080:	853e                	mv	a0,a5
   14082:	4601                	li	a2,0
   14084:	4681                	li	a3,0
   14086:	4781                	li	a5,0
   14088:	45a1                	li	a1,8
   1408a:	470d                	li	a4,3
   1408c:	00000073          	ecall
   14090:	f3e9                	bnez	a5,14052 <_ZN18complex_no_dynamic3app17h6993680f272e1bd8E+0x7c>
   14092:	6509                	lui	a0,0x2
   14094:	bd650493          	addi	s1,a0,-1066 # 1bd6 <.Lline_table_start1+0x19ab>
   14098:	45a1                	li	a1,8
   1409a:	470d                	li	a4,3
   1409c:	8526                	mv	a0,s1
   1409e:	4601                	li	a2,0
   140a0:	4681                	li	a3,0
   140a2:	00000073          	ecall
   140a6:	00140513          	addi	a0,s0,1
   140aa:	180c                	addi	a1,sp,48
   140ac:	02400613          	li	a2,36
   140b0:	00009097          	auipc	ra,0x9
   140b4:	c80080e7          	jalr	-896(ra) # 1cd30 <memcpy>
   140b8:	8526                	mv	a0,s1
   140ba:	4601                	li	a2,0
   140bc:	4681                	li	a3,0
   140be:	00040023          	sb	zero,0(s0)
   140c2:	45a1                	li	a1,8
   140c4:	470d                	li	a4,3
   140c6:	00000073          	ecall
   140ca:	4591                	li	a1,4
   140cc:	4711                	li	a4,4
   140ce:	8526                	mv	a0,s1
   140d0:	4601                	li	a2,0
   140d2:	4681                	li	a3,0
   140d4:	00000073          	ecall
   140d8:	40f6                	lw	ra,92(sp)
   140da:	4466                	lw	s0,88(sp)
   140dc:	44d6                	lw	s1,84(sp)
   140de:	6125                	addi	sp,sp,96
   140e0:	8082                	ret

000140e2 <_ZN18complex_no_dynamic3app17h6a28419a729c6b78E>:
   140e2:	7135                	addi	sp,sp,-160
   140e4:	cf06                	sw	ra,156(sp)
   140e6:	cd22                	sw	s0,152(sp)
   140e8:	cb26                	sw	s1,148(sp)
   140ea:	842a                	mv	s0,a0
   140ec:	00710513          	addi	a0,sp,7
   140f0:	05300613          	li	a2,83
   140f4:	00009097          	auipc	ra,0x9
   140f8:	c3c080e7          	jalr	-964(ra) # 1cd30 <memcpy>
   140fc:	05a10513          	addi	a0,sp,90
   14100:	03a00613          	li	a2,58
   14104:	4581                	li	a1,0
   14106:	00009097          	auipc	ra,0x9
   1410a:	bbe080e7          	jalr	-1090(ra) # 1ccc4 <memset>
   1410e:	6509                	lui	a0,0x2
   14110:	4599                	li	a1,6
   14112:	00710613          	addi	a2,sp,7
   14116:	05300693          	li	a3,83
   1411a:	64550793          	addi	a5,a0,1605 # 2645 <.Lline_table_start1+0x241a>
   1411e:	4711                	li	a4,4
   14120:	4489                	li	s1,2
   14122:	853e                	mv	a0,a5
   14124:	00000073          	ecall
   14128:	02950b63          	beq	a0,s1,1415e <_ZN18complex_no_dynamic3app17h6a28419a729c6b78E+0x7c>
   1412c:	459d                	li	a1,7
   1412e:	05a10613          	addi	a2,sp,90
   14132:	03a00693          	li	a3,58
   14136:	470d                	li	a4,3
   14138:	853e                	mv	a0,a5
   1413a:	00000073          	ecall
   1413e:	02950063          	beq	a0,s1,1415e <_ZN18complex_no_dynamic3app17h6a28419a729c6b78E+0x7c>
   14142:	6509                	lui	a0,0x2
   14144:	4599                	li	a1,6
   14146:	461d                	li	a2,7
   14148:	64550793          	addi	a5,a0,1605 # 2645 <.Lline_table_start1+0x241a>
   1414c:	4709                	li	a4,2
   1414e:	07f00493          	li	s1,127
   14152:	853e                	mv	a0,a5
   14154:	4681                	li	a3,0
   14156:	00000073          	ecall
   1415a:	02a4eb63          	bltu	s1,a0,14190 <_ZN18complex_no_dynamic3app17h6a28419a729c6b78E+0xae>
   1415e:	4785                	li	a5,1
   14160:	c3a9                	beqz	a5,141a2 <_ZN18complex_no_dynamic3app17h6a28419a729c6b78E+0xc0>
   14162:	4601                	li	a2,0
   14164:	4681                	li	a3,0
   14166:	4505                	li	a0,1
   14168:	6709                	lui	a4,0x2
   1416a:	87ae                	mv	a5,a1
   1416c:	459d                	li	a1,7
   1416e:	00a40023          	sb	a0,0(s0)
   14172:	c05c                	sw	a5,4(s0)
   14174:	64570793          	addi	a5,a4,1605 # 2645 <.Lline_table_start1+0x241a>
   14178:	470d                	li	a4,3
   1417a:	853e                	mv	a0,a5
   1417c:	00000073          	ecall
   14180:	4599                	li	a1,6
   14182:	4711                	li	a4,4
   14184:	853e                	mv	a0,a5
   14186:	4601                	li	a2,0
   14188:	4681                	li	a3,0
   1418a:	00000073          	ecall
   1418e:	a8b1                	j	141ea <_ZN18complex_no_dynamic3app17h6a28419a729c6b78E+0x108>
   14190:	853e                	mv	a0,a5
   14192:	4601                	li	a2,0
   14194:	4681                	li	a3,0
   14196:	4781                	li	a5,0
   14198:	459d                	li	a1,7
   1419a:	470d                	li	a4,3
   1419c:	00000073          	ecall
   141a0:	f3e9                	bnez	a5,14162 <_ZN18complex_no_dynamic3app17h6a28419a729c6b78E+0x80>
   141a2:	6509                	lui	a0,0x2
   141a4:	64550493          	addi	s1,a0,1605 # 2645 <.Lline_table_start1+0x241a>
   141a8:	459d                	li	a1,7
   141aa:	470d                	li	a4,3
   141ac:	8526                	mv	a0,s1
   141ae:	4601                	li	a2,0
   141b0:	4681                	li	a3,0
   141b2:	00000073          	ecall
   141b6:	00140513          	addi	a0,s0,1
   141ba:	05a10593          	addi	a1,sp,90
   141be:	03a00613          	li	a2,58
   141c2:	00009097          	auipc	ra,0x9
   141c6:	b6e080e7          	jalr	-1170(ra) # 1cd30 <memcpy>
   141ca:	8526                	mv	a0,s1
   141cc:	4601                	li	a2,0
   141ce:	4681                	li	a3,0
   141d0:	00040023          	sb	zero,0(s0)
   141d4:	459d                	li	a1,7
   141d6:	470d                	li	a4,3
   141d8:	00000073          	ecall
   141dc:	4599                	li	a1,6
   141de:	4711                	li	a4,4
   141e0:	8526                	mv	a0,s1
   141e2:	4601                	li	a2,0
   141e4:	4681                	li	a3,0
   141e6:	00000073          	ecall
   141ea:	40fa                	lw	ra,156(sp)
   141ec:	446a                	lw	s0,152(sp)
   141ee:	44da                	lw	s1,148(sp)
   141f0:	610d                	addi	sp,sp,160
   141f2:	8082                	ret

000141f4 <_ZN18complex_no_dynamic3app17h6b3b365845bc2b04E>:
   141f4:	7175                	addi	sp,sp,-144
   141f6:	c706                	sw	ra,140(sp)
   141f8:	c522                	sw	s0,136(sp)
   141fa:	c326                	sw	s1,132(sp)
   141fc:	842a                	mv	s0,a0
   141fe:	00d10513          	addi	a0,sp,13
   14202:	04a00613          	li	a2,74
   14206:	00009097          	auipc	ra,0x9
   1420a:	b2a080e7          	jalr	-1238(ra) # 1cd30 <memcpy>
   1420e:	05710513          	addi	a0,sp,87
   14212:	02d00613          	li	a2,45
   14216:	4581                	li	a1,0
   14218:	00009097          	auipc	ra,0x9
   1421c:	aac080e7          	jalr	-1364(ra) # 1ccc4 <memset>
   14220:	6505                	lui	a0,0x1
   14222:	4489                	li	s1,2
   14224:	4589                	li	a1,2
   14226:	00d10613          	addi	a2,sp,13
   1422a:	e3d50793          	addi	a5,a0,-451 # e3d <.Lline_table_start1+0xc12>
   1422e:	04a00693          	li	a3,74
   14232:	4711                	li	a4,4
   14234:	853e                	mv	a0,a5
   14236:	00000073          	ecall
   1423a:	02950b63          	beq	a0,s1,14270 <_ZN18complex_no_dynamic3app17h6b3b365845bc2b04E+0x7c>
   1423e:	458d                	li	a1,3
   14240:	05710613          	addi	a2,sp,87
   14244:	02d00693          	li	a3,45
   14248:	470d                	li	a4,3
   1424a:	853e                	mv	a0,a5
   1424c:	00000073          	ecall
   14250:	02950063          	beq	a0,s1,14270 <_ZN18complex_no_dynamic3app17h6b3b365845bc2b04E+0x7c>
   14254:	6505                	lui	a0,0x1
   14256:	4589                	li	a1,2
   14258:	460d                	li	a2,3
   1425a:	e3d50793          	addi	a5,a0,-451 # e3d <.Lline_table_start1+0xc12>
   1425e:	4709                	li	a4,2
   14260:	07f00493          	li	s1,127
   14264:	853e                	mv	a0,a5
   14266:	4681                	li	a3,0
   14268:	00000073          	ecall
   1426c:	02a4eb63          	bltu	s1,a0,142a2 <_ZN18complex_no_dynamic3app17h6b3b365845bc2b04E+0xae>
   14270:	4785                	li	a5,1
   14272:	c3a9                	beqz	a5,142b4 <_ZN18complex_no_dynamic3app17h6b3b365845bc2b04E+0xc0>
   14274:	4601                	li	a2,0
   14276:	4681                	li	a3,0
   14278:	4505                	li	a0,1
   1427a:	6705                	lui	a4,0x1
   1427c:	87ae                	mv	a5,a1
   1427e:	458d                	li	a1,3
   14280:	00a40023          	sb	a0,0(s0)
   14284:	c05c                	sw	a5,4(s0)
   14286:	e3d70793          	addi	a5,a4,-451 # e3d <.Lline_table_start1+0xc12>
   1428a:	470d                	li	a4,3
   1428c:	853e                	mv	a0,a5
   1428e:	00000073          	ecall
   14292:	4589                	li	a1,2
   14294:	4711                	li	a4,4
   14296:	853e                	mv	a0,a5
   14298:	4601                	li	a2,0
   1429a:	4681                	li	a3,0
   1429c:	00000073          	ecall
   142a0:	a8b1                	j	142fc <_ZN18complex_no_dynamic3app17h6b3b365845bc2b04E+0x108>
   142a2:	853e                	mv	a0,a5
   142a4:	4601                	li	a2,0
   142a6:	4681                	li	a3,0
   142a8:	4781                	li	a5,0
   142aa:	458d                	li	a1,3
   142ac:	470d                	li	a4,3
   142ae:	00000073          	ecall
   142b2:	f3e9                	bnez	a5,14274 <_ZN18complex_no_dynamic3app17h6b3b365845bc2b04E+0x80>
   142b4:	6505                	lui	a0,0x1
   142b6:	e3d50493          	addi	s1,a0,-451 # e3d <.Lline_table_start1+0xc12>
   142ba:	458d                	li	a1,3
   142bc:	470d                	li	a4,3
   142be:	8526                	mv	a0,s1
   142c0:	4601                	li	a2,0
   142c2:	4681                	li	a3,0
   142c4:	00000073          	ecall
   142c8:	00140513          	addi	a0,s0,1
   142cc:	05710593          	addi	a1,sp,87
   142d0:	02d00613          	li	a2,45
   142d4:	00009097          	auipc	ra,0x9
   142d8:	a5c080e7          	jalr	-1444(ra) # 1cd30 <memcpy>
   142dc:	8526                	mv	a0,s1
   142de:	4601                	li	a2,0
   142e0:	4681                	li	a3,0
   142e2:	00040023          	sb	zero,0(s0)
   142e6:	458d                	li	a1,3
   142e8:	470d                	li	a4,3
   142ea:	00000073          	ecall
   142ee:	4589                	li	a1,2
   142f0:	4711                	li	a4,4
   142f2:	8526                	mv	a0,s1
   142f4:	4601                	li	a2,0
   142f6:	4681                	li	a3,0
   142f8:	00000073          	ecall
   142fc:	40ba                	lw	ra,140(sp)
   142fe:	442a                	lw	s0,136(sp)
   14300:	449a                	lw	s1,132(sp)
   14302:	6149                	addi	sp,sp,144
   14304:	8082                	ret

00014306 <_ZN18complex_no_dynamic3app17h6ead3e5ea65186d4E>:
   14306:	7119                	addi	sp,sp,-128
   14308:	de86                	sw	ra,124(sp)
   1430a:	dca2                	sw	s0,120(sp)
   1430c:	daa6                	sw	s1,116(sp)
   1430e:	842a                	mv	s0,a0
   14310:	00310513          	addi	a0,sp,3
   14314:	04800613          	li	a2,72
   14318:	00009097          	auipc	ra,0x9
   1431c:	a18080e7          	jalr	-1512(ra) # 1cd30 <memcpy>
   14320:	04b10513          	addi	a0,sp,75
   14324:	02900613          	li	a2,41
   14328:	4581                	li	a1,0
   1432a:	00009097          	auipc	ra,0x9
   1432e:	99a080e7          	jalr	-1638(ra) # 1ccc4 <memset>
   14332:	6509                	lui	a0,0x2
   14334:	458d                	li	a1,3
   14336:	00310613          	addi	a2,sp,3
   1433a:	04800693          	li	a3,72
   1433e:	6a450793          	addi	a5,a0,1700 # 26a4 <.Lline_table_start1+0x2479>
   14342:	4711                	li	a4,4
   14344:	4489                	li	s1,2
   14346:	853e                	mv	a0,a5
   14348:	00000073          	ecall
   1434c:	02950b63          	beq	a0,s1,14382 <_ZN18complex_no_dynamic3app17h6ead3e5ea65186d4E+0x7c>
   14350:	4591                	li	a1,4
   14352:	04b10613          	addi	a2,sp,75
   14356:	02900693          	li	a3,41
   1435a:	470d                	li	a4,3
   1435c:	853e                	mv	a0,a5
   1435e:	00000073          	ecall
   14362:	02950063          	beq	a0,s1,14382 <_ZN18complex_no_dynamic3app17h6ead3e5ea65186d4E+0x7c>
   14366:	6509                	lui	a0,0x2
   14368:	458d                	li	a1,3
   1436a:	4611                	li	a2,4
   1436c:	6a450793          	addi	a5,a0,1700 # 26a4 <.Lline_table_start1+0x2479>
   14370:	4709                	li	a4,2
   14372:	07f00493          	li	s1,127
   14376:	853e                	mv	a0,a5
   14378:	4681                	li	a3,0
   1437a:	00000073          	ecall
   1437e:	02a4eb63          	bltu	s1,a0,143b4 <_ZN18complex_no_dynamic3app17h6ead3e5ea65186d4E+0xae>
   14382:	4785                	li	a5,1
   14384:	c3a9                	beqz	a5,143c6 <_ZN18complex_no_dynamic3app17h6ead3e5ea65186d4E+0xc0>
   14386:	4601                	li	a2,0
   14388:	4681                	li	a3,0
   1438a:	4505                	li	a0,1
   1438c:	6709                	lui	a4,0x2
   1438e:	87ae                	mv	a5,a1
   14390:	4591                	li	a1,4
   14392:	00a40023          	sb	a0,0(s0)
   14396:	c05c                	sw	a5,4(s0)
   14398:	6a470793          	addi	a5,a4,1700 # 26a4 <.Lline_table_start1+0x2479>
   1439c:	470d                	li	a4,3
   1439e:	853e                	mv	a0,a5
   143a0:	00000073          	ecall
   143a4:	458d                	li	a1,3
   143a6:	4711                	li	a4,4
   143a8:	853e                	mv	a0,a5
   143aa:	4601                	li	a2,0
   143ac:	4681                	li	a3,0
   143ae:	00000073          	ecall
   143b2:	a8b1                	j	1440e <_ZN18complex_no_dynamic3app17h6ead3e5ea65186d4E+0x108>
   143b4:	853e                	mv	a0,a5
   143b6:	4601                	li	a2,0
   143b8:	4681                	li	a3,0
   143ba:	4781                	li	a5,0
   143bc:	4591                	li	a1,4
   143be:	470d                	li	a4,3
   143c0:	00000073          	ecall
   143c4:	f3e9                	bnez	a5,14386 <_ZN18complex_no_dynamic3app17h6ead3e5ea65186d4E+0x80>
   143c6:	6509                	lui	a0,0x2
   143c8:	6a450493          	addi	s1,a0,1700 # 26a4 <.Lline_table_start1+0x2479>
   143cc:	4591                	li	a1,4
   143ce:	470d                	li	a4,3
   143d0:	8526                	mv	a0,s1
   143d2:	4601                	li	a2,0
   143d4:	4681                	li	a3,0
   143d6:	00000073          	ecall
   143da:	00140513          	addi	a0,s0,1
   143de:	04b10593          	addi	a1,sp,75
   143e2:	02900613          	li	a2,41
   143e6:	00009097          	auipc	ra,0x9
   143ea:	94a080e7          	jalr	-1718(ra) # 1cd30 <memcpy>
   143ee:	8526                	mv	a0,s1
   143f0:	4601                	li	a2,0
   143f2:	4681                	li	a3,0
   143f4:	00040023          	sb	zero,0(s0)
   143f8:	4591                	li	a1,4
   143fa:	470d                	li	a4,3
   143fc:	00000073          	ecall
   14400:	458d                	li	a1,3
   14402:	4711                	li	a4,4
   14404:	8526                	mv	a0,s1
   14406:	4601                	li	a2,0
   14408:	4681                	li	a3,0
   1440a:	00000073          	ecall
   1440e:	50f6                	lw	ra,124(sp)
   14410:	5466                	lw	s0,120(sp)
   14412:	54d6                	lw	s1,116(sp)
   14414:	6109                	addi	sp,sp,128
   14416:	8082                	ret

00014418 <_ZN18complex_no_dynamic3app17h719fe286d39a62ecE>:
   14418:	7131                	addi	sp,sp,-192
   1441a:	df06                	sw	ra,188(sp)
   1441c:	dd22                	sw	s0,184(sp)
   1441e:	842a                	mv	s0,a0
   14420:	0028                	addi	a0,sp,8
   14422:	04f00613          	li	a2,79
   14426:	00009097          	auipc	ra,0x9
   1442a:	90a080e7          	jalr	-1782(ra) # 1cd30 <memcpy>
   1442e:	05710513          	addi	a0,sp,87
   14432:	06100613          	li	a2,97
   14436:	4581                	li	a1,0
   14438:	00009097          	auipc	ra,0x9
   1443c:	88c080e7          	jalr	-1908(ra) # 1ccc4 <memset>
   14440:	4789                	li	a5,2
   14442:	1b600513          	li	a0,438
   14446:	4589                	li	a1,2
   14448:	0030                	addi	a2,sp,8
   1444a:	04f00693          	li	a3,79
   1444e:	4711                	li	a4,4
   14450:	00000073          	ecall
   14454:	02f50a63          	beq	a0,a5,14488 <_ZN18complex_no_dynamic3app17h719fe286d39a62ecE+0x70>
   14458:	1b600513          	li	a0,438
   1445c:	45a1                	li	a1,8
   1445e:	05710613          	addi	a2,sp,87
   14462:	06100693          	li	a3,97
   14466:	470d                	li	a4,3
   14468:	00000073          	ecall
   1446c:	00f50e63          	beq	a0,a5,14488 <_ZN18complex_no_dynamic3app17h719fe286d39a62ecE+0x70>
   14470:	1b600513          	li	a0,438
   14474:	4589                	li	a1,2
   14476:	4621                	li	a2,8
   14478:	4709                	li	a4,2
   1447a:	07f00793          	li	a5,127
   1447e:	4681                	li	a3,0
   14480:	00000073          	ecall
   14484:	02a7e963          	bltu	a5,a0,144b6 <_ZN18complex_no_dynamic3app17h719fe286d39a62ecE+0x9e>
   14488:	4785                	li	a5,1
   1448a:	c3a1                	beqz	a5,144ca <_ZN18complex_no_dynamic3app17h719fe286d39a62ecE+0xb2>
   1448c:	4601                	li	a2,0
   1448e:	4681                	li	a3,0
   14490:	4705                	li	a4,1
   14492:	1b600513          	li	a0,438
   14496:	00e40023          	sb	a4,0(s0)
   1449a:	c04c                	sw	a1,4(s0)
   1449c:	45a1                	li	a1,8
   1449e:	470d                	li	a4,3
   144a0:	00000073          	ecall
   144a4:	1b600513          	li	a0,438
   144a8:	4589                	li	a1,2
   144aa:	4711                	li	a4,4
   144ac:	4601                	li	a2,0
   144ae:	4681                	li	a3,0
   144b0:	00000073          	ecall
   144b4:	a8b9                	j	14512 <_ZN18complex_no_dynamic3app17h719fe286d39a62ecE+0xfa>
   144b6:	4601                	li	a2,0
   144b8:	4681                	li	a3,0
   144ba:	4781                	li	a5,0
   144bc:	1b600513          	li	a0,438
   144c0:	45a1                	li	a1,8
   144c2:	470d                	li	a4,3
   144c4:	00000073          	ecall
   144c8:	f3f1                	bnez	a5,1448c <_ZN18complex_no_dynamic3app17h719fe286d39a62ecE+0x74>
   144ca:	1b600513          	li	a0,438
   144ce:	45a1                	li	a1,8
   144d0:	470d                	li	a4,3
   144d2:	4601                	li	a2,0
   144d4:	4681                	li	a3,0
   144d6:	00000073          	ecall
   144da:	00140513          	addi	a0,s0,1
   144de:	05710593          	addi	a1,sp,87
   144e2:	06100613          	li	a2,97
   144e6:	00009097          	auipc	ra,0x9
   144ea:	84a080e7          	jalr	-1974(ra) # 1cd30 <memcpy>
   144ee:	4601                	li	a2,0
   144f0:	4681                	li	a3,0
   144f2:	00040023          	sb	zero,0(s0)
   144f6:	1b600513          	li	a0,438
   144fa:	45a1                	li	a1,8
   144fc:	470d                	li	a4,3
   144fe:	00000073          	ecall
   14502:	1b600513          	li	a0,438
   14506:	4589                	li	a1,2
   14508:	4711                	li	a4,4
   1450a:	4601                	li	a2,0
   1450c:	4681                	li	a3,0
   1450e:	00000073          	ecall
   14512:	50fa                	lw	ra,188(sp)
   14514:	546a                	lw	s0,184(sp)
   14516:	6129                	addi	sp,sp,192
   14518:	8082                	ret

0001451a <_ZN18complex_no_dynamic3app17h72711f717ad6b425E>:
   1451a:	7159                	addi	sp,sp,-112
   1451c:	d686                	sw	ra,108(sp)
   1451e:	d4a2                	sw	s0,104(sp)
   14520:	842a                	mv	s0,a0
   14522:	00610513          	addi	a0,sp,6
   14526:	03400613          	li	a2,52
   1452a:	00009097          	auipc	ra,0x9
   1452e:	806080e7          	jalr	-2042(ra) # 1cd30 <memcpy>
   14532:	03a10513          	addi	a0,sp,58
   14536:	02e00613          	li	a2,46
   1453a:	4581                	li	a1,0
   1453c:	00008097          	auipc	ra,0x8
   14540:	788080e7          	jalr	1928(ra) # 1ccc4 <memset>
   14544:	4789                	li	a5,2
   14546:	20900513          	li	a0,521
   1454a:	4589                	li	a1,2
   1454c:	00610613          	addi	a2,sp,6
   14550:	03400693          	li	a3,52
   14554:	4711                	li	a4,4
   14556:	00000073          	ecall
   1455a:	02f50a63          	beq	a0,a5,1458e <_ZN18complex_no_dynamic3app17h72711f717ad6b425E+0x74>
   1455e:	20900513          	li	a0,521
   14562:	45a1                	li	a1,8
   14564:	03a10613          	addi	a2,sp,58
   14568:	02e00693          	li	a3,46
   1456c:	470d                	li	a4,3
   1456e:	00000073          	ecall
   14572:	00f50e63          	beq	a0,a5,1458e <_ZN18complex_no_dynamic3app17h72711f717ad6b425E+0x74>
   14576:	20900513          	li	a0,521
   1457a:	4589                	li	a1,2
   1457c:	4621                	li	a2,8
   1457e:	4709                	li	a4,2
   14580:	07f00793          	li	a5,127
   14584:	4681                	li	a3,0
   14586:	00000073          	ecall
   1458a:	02a7e963          	bltu	a5,a0,145bc <_ZN18complex_no_dynamic3app17h72711f717ad6b425E+0xa2>
   1458e:	4785                	li	a5,1
   14590:	c3a1                	beqz	a5,145d0 <_ZN18complex_no_dynamic3app17h72711f717ad6b425E+0xb6>
   14592:	4601                	li	a2,0
   14594:	4681                	li	a3,0
   14596:	4705                	li	a4,1
   14598:	20900513          	li	a0,521
   1459c:	00e40023          	sb	a4,0(s0)
   145a0:	c04c                	sw	a1,4(s0)
   145a2:	45a1                	li	a1,8
   145a4:	470d                	li	a4,3
   145a6:	00000073          	ecall
   145aa:	20900513          	li	a0,521
   145ae:	4589                	li	a1,2
   145b0:	4711                	li	a4,4
   145b2:	4601                	li	a2,0
   145b4:	4681                	li	a3,0
   145b6:	00000073          	ecall
   145ba:	a8b9                	j	14618 <_ZN18complex_no_dynamic3app17h72711f717ad6b425E+0xfe>
   145bc:	4601                	li	a2,0
   145be:	4681                	li	a3,0
   145c0:	4781                	li	a5,0
   145c2:	20900513          	li	a0,521
   145c6:	45a1                	li	a1,8
   145c8:	470d                	li	a4,3
   145ca:	00000073          	ecall
   145ce:	f3f1                	bnez	a5,14592 <_ZN18complex_no_dynamic3app17h72711f717ad6b425E+0x78>
   145d0:	20900513          	li	a0,521
   145d4:	45a1                	li	a1,8
   145d6:	470d                	li	a4,3
   145d8:	4601                	li	a2,0
   145da:	4681                	li	a3,0
   145dc:	00000073          	ecall
   145e0:	00140513          	addi	a0,s0,1
   145e4:	03a10593          	addi	a1,sp,58
   145e8:	02e00613          	li	a2,46
   145ec:	00008097          	auipc	ra,0x8
   145f0:	744080e7          	jalr	1860(ra) # 1cd30 <memcpy>
   145f4:	4601                	li	a2,0
   145f6:	4681                	li	a3,0
   145f8:	00040023          	sb	zero,0(s0)
   145fc:	20900513          	li	a0,521
   14600:	45a1                	li	a1,8
   14602:	470d                	li	a4,3
   14604:	00000073          	ecall
   14608:	20900513          	li	a0,521
   1460c:	4589                	li	a1,2
   1460e:	4711                	li	a4,4
   14610:	4601                	li	a2,0
   14612:	4681                	li	a3,0
   14614:	00000073          	ecall
   14618:	50b6                	lw	ra,108(sp)
   1461a:	5426                	lw	s0,104(sp)
   1461c:	6165                	addi	sp,sp,112
   1461e:	8082                	ret

00014620 <_ZN18complex_no_dynamic3app17h74185483111e0d41E>:
   14620:	715d                	addi	sp,sp,-80
   14622:	c686                	sw	ra,76(sp)
   14624:	c4a2                	sw	s0,72(sp)
   14626:	c2a6                	sw	s1,68(sp)
   14628:	c0ca                	sw	s2,64(sp)
   1462a:	892a                	mv	s2,a0
   1462c:	00c5c503          	lbu	a0,12(a1)
   14630:	00d5c603          	lbu	a2,13(a1)
   14634:	00e5c683          	lbu	a3,14(a1)
   14638:	0085c703          	lbu	a4,8(a1)
   1463c:	0095c783          	lbu	a5,9(a1)
   14640:	00a5c403          	lbu	s0,10(a1)
   14644:	00b5c483          	lbu	s1,11(a1)
   14648:	00d10d23          	sb	a3,26(sp)
   1464c:	0622                	slli	a2,a2,0x8
   1464e:	07a2                	slli	a5,a5,0x8
   14650:	00a66833          	or	a6,a2,a0
   14654:	8f5d                	or	a4,a4,a5
   14656:	0045c603          	lbu	a2,4(a1)
   1465a:	0055c683          	lbu	a3,5(a1)
   1465e:	0065c783          	lbu	a5,6(a1)
   14662:	0075c503          	lbu	a0,7(a1)
   14666:	0442                	slli	s0,s0,0x10
   14668:	04e2                	slli	s1,s1,0x18
   1466a:	06a2                	slli	a3,a3,0x8
   1466c:	07c2                	slli	a5,a5,0x10
   1466e:	0562                	slli	a0,a0,0x18
   14670:	8c45                	or	s0,s0,s1
   14672:	8e55                	or	a2,a2,a3
   14674:	0005c683          	lbu	a3,0(a1)
   14678:	0015c483          	lbu	s1,1(a1)
   1467c:	8d5d                	or	a0,a0,a5
   1467e:	0025c783          	lbu	a5,2(a1)
   14682:	0035c583          	lbu	a1,3(a1)
   14686:	04a2                	slli	s1,s1,0x8
   14688:	8ec5                	or	a3,a3,s1
   1468a:	07c2                	slli	a5,a5,0x10
   1468c:	05e2                	slli	a1,a1,0x18
   1468e:	8ddd                	or	a1,a1,a5
   14690:	8f41                	or	a4,a4,s0
   14692:	8d51                	or	a0,a0,a2
   14694:	8dd5                	or	a1,a1,a3
   14696:	c62e                	sw	a1,12(sp)
   14698:	c82a                	sw	a0,16(sp)
   1469a:	ca3a                	sw	a4,20(sp)
   1469c:	01011c23          	sh	a6,24(sp)
   146a0:	01b10513          	addi	a0,sp,27
   146a4:	02500613          	li	a2,37
   146a8:	4581                	li	a1,0
   146aa:	00008097          	auipc	ra,0x8
   146ae:	61a080e7          	jalr	1562(ra) # 1ccc4 <memset>
   146b2:	0a200513          	li	a0,162
   146b6:	45a1                	li	a1,8
   146b8:	0070                	addi	a2,sp,12
   146ba:	46bd                	li	a3,15
   146bc:	4711                	li	a4,4
   146be:	4789                	li	a5,2
   146c0:	00000073          	ecall
   146c4:	02f50a63          	beq	a0,a5,146f8 <_ZN18complex_no_dynamic3app17h74185483111e0d41E+0xd8>
   146c8:	0a200513          	li	a0,162
   146cc:	01b10613          	addi	a2,sp,27
   146d0:	02500693          	li	a3,37
   146d4:	470d                	li	a4,3
   146d6:	4581                	li	a1,0
   146d8:	00000073          	ecall
   146dc:	00f50e63          	beq	a0,a5,146f8 <_ZN18complex_no_dynamic3app17h74185483111e0d41E+0xd8>
   146e0:	0a200513          	li	a0,162
   146e4:	45a1                	li	a1,8
   146e6:	4709                	li	a4,2
   146e8:	07f00793          	li	a5,127
   146ec:	4601                	li	a2,0
   146ee:	4681                	li	a3,0
   146f0:	00000073          	ecall
   146f4:	02a7eb63          	bltu	a5,a0,1472a <_ZN18complex_no_dynamic3app17h74185483111e0d41E+0x10a>
   146f8:	4785                	li	a5,1
   146fa:	c3b1                	beqz	a5,1473e <_ZN18complex_no_dynamic3app17h74185483111e0d41E+0x11e>
   146fc:	852e                	mv	a0,a1
   146fe:	4581                	li	a1,0
   14700:	4601                	li	a2,0
   14702:	4681                	li	a3,0
   14704:	4705                	li	a4,1
   14706:	00e90023          	sb	a4,0(s2)
   1470a:	00a92223          	sw	a0,4(s2)
   1470e:	0a200513          	li	a0,162
   14712:	470d                	li	a4,3
   14714:	00000073          	ecall
   14718:	0a200513          	li	a0,162
   1471c:	45a1                	li	a1,8
   1471e:	4711                	li	a4,4
   14720:	4601                	li	a2,0
   14722:	4681                	li	a3,0
   14724:	00000073          	ecall
   14728:	a8b9                	j	14786 <_ZN18complex_no_dynamic3app17h74185483111e0d41E+0x166>
   1472a:	4581                	li	a1,0
   1472c:	4601                	li	a2,0
   1472e:	4681                	li	a3,0
   14730:	4781                	li	a5,0
   14732:	0a200513          	li	a0,162
   14736:	470d                	li	a4,3
   14738:	00000073          	ecall
   1473c:	f3e1                	bnez	a5,146fc <_ZN18complex_no_dynamic3app17h74185483111e0d41E+0xdc>
   1473e:	0a200513          	li	a0,162
   14742:	470d                	li	a4,3
   14744:	4581                	li	a1,0
   14746:	4601                	li	a2,0
   14748:	4681                	li	a3,0
   1474a:	00000073          	ecall
   1474e:	00190513          	addi	a0,s2,1
   14752:	01b10593          	addi	a1,sp,27
   14756:	02500613          	li	a2,37
   1475a:	00008097          	auipc	ra,0x8
   1475e:	5d6080e7          	jalr	1494(ra) # 1cd30 <memcpy>
   14762:	4581                	li	a1,0
   14764:	4601                	li	a2,0
   14766:	4681                	li	a3,0
   14768:	00090023          	sb	zero,0(s2)
   1476c:	0a200513          	li	a0,162
   14770:	470d                	li	a4,3
   14772:	00000073          	ecall
   14776:	0a200513          	li	a0,162
   1477a:	45a1                	li	a1,8
   1477c:	4711                	li	a4,4
   1477e:	4601                	li	a2,0
   14780:	4681                	li	a3,0
   14782:	00000073          	ecall
   14786:	40b6                	lw	ra,76(sp)
   14788:	4426                	lw	s0,72(sp)
   1478a:	4496                	lw	s1,68(sp)
   1478c:	4906                	lw	s2,64(sp)
   1478e:	6161                	addi	sp,sp,80
   14790:	8082                	ret

00014792 <_ZN18complex_no_dynamic3app17h79297e45b1e17032E>:
   14792:	7135                	addi	sp,sp,-160
   14794:	cf06                	sw	ra,156(sp)
   14796:	cd22                	sw	s0,152(sp)
   14798:	cb26                	sw	s1,148(sp)
   1479a:	c94a                	sw	s2,144(sp)
   1479c:	892a                	mv	s2,a0
   1479e:	0068                	addi	a0,sp,12
   147a0:	04f00613          	li	a2,79
   147a4:	00008097          	auipc	ra,0x8
   147a8:	58c080e7          	jalr	1420(ra) # 1cd30 <memcpy>
   147ac:	05b10513          	addi	a0,sp,91
   147b0:	03500613          	li	a2,53
   147b4:	4581                	li	a1,0
   147b6:	00008097          	auipc	ra,0x8
   147ba:	50e080e7          	jalr	1294(ra) # 1ccc4 <memset>
   147be:	6505                	lui	a0,0x1
   147c0:	459d                	li	a1,7
   147c2:	0070                	addi	a2,sp,12
   147c4:	04f00693          	li	a3,79
   147c8:	6d750793          	addi	a5,a0,1751 # 16d7 <.Lline_table_start1+0x14ac>
   147cc:	4711                	li	a4,4
   147ce:	4409                	li	s0,2
   147d0:	853e                	mv	a0,a5
   147d2:	00000073          	ecall
   147d6:	00851463          	bne	a0,s0,147de <_ZN18complex_no_dynamic3app17h79297e45b1e17032E+0x4c>
   147da:	4485                	li	s1,1
   147dc:	a0a1                	j	14824 <_ZN18complex_no_dynamic3app17h79297e45b1e17032E+0x92>
   147de:	853e                	mv	a0,a5
   147e0:	4485                	li	s1,1
   147e2:	4585                	li	a1,1
   147e4:	05b10613          	addi	a2,sp,91
   147e8:	03500693          	li	a3,53
   147ec:	470d                	li	a4,3
   147ee:	00000073          	ecall
   147f2:	02850963          	beq	a0,s0,14824 <_ZN18complex_no_dynamic3app17h79297e45b1e17032E+0x92>
   147f6:	4681                	li	a3,0
   147f8:	6505                	lui	a0,0x1
   147fa:	459d                	li	a1,7
   147fc:	4605                	li	a2,1
   147fe:	4709                	li	a4,2
   14800:	6d750793          	addi	a5,a0,1751 # 16d7 <.Lline_table_start1+0x14ac>
   14804:	07f00413          	li	s0,127
   14808:	853e                	mv	a0,a5
   1480a:	00000073          	ecall
   1480e:	4485                	li	s1,1
   14810:	00a47a63          	bgeu	s0,a0,14824 <_ZN18complex_no_dynamic3app17h79297e45b1e17032E+0x92>
   14814:	853e                	mv	a0,a5
   14816:	4601                	li	a2,0
   14818:	4681                	li	a3,0
   1481a:	4481                	li	s1,0
   1481c:	4585                	li	a1,1
   1481e:	470d                	li	a4,3
   14820:	00000073          	ecall
   14824:	c88d                	beqz	s1,14856 <_ZN18complex_no_dynamic3app17h79297e45b1e17032E+0xc4>
   14826:	4601                	li	a2,0
   14828:	4681                	li	a3,0
   1482a:	4505                	li	a0,1
   1482c:	6705                	lui	a4,0x1
   1482e:	87ae                	mv	a5,a1
   14830:	4585                	li	a1,1
   14832:	00a90023          	sb	a0,0(s2)
   14836:	00f92223          	sw	a5,4(s2)
   1483a:	6d770793          	addi	a5,a4,1751 # 16d7 <.Lline_table_start1+0x14ac>
   1483e:	470d                	li	a4,3
   14840:	853e                	mv	a0,a5
   14842:	00000073          	ecall
   14846:	459d                	li	a1,7
   14848:	4711                	li	a4,4
   1484a:	853e                	mv	a0,a5
   1484c:	4601                	li	a2,0
   1484e:	4681                	li	a3,0
   14850:	00000073          	ecall
   14854:	a0a9                	j	1489e <_ZN18complex_no_dynamic3app17h79297e45b1e17032E+0x10c>
   14856:	6505                	lui	a0,0x1
   14858:	6d750493          	addi	s1,a0,1751 # 16d7 <.Lline_table_start1+0x14ac>
   1485c:	4585                	li	a1,1
   1485e:	470d                	li	a4,3
   14860:	8526                	mv	a0,s1
   14862:	4601                	li	a2,0
   14864:	4681                	li	a3,0
   14866:	00000073          	ecall
   1486a:	00190513          	addi	a0,s2,1
   1486e:	05b10593          	addi	a1,sp,91
   14872:	03500613          	li	a2,53
   14876:	00008097          	auipc	ra,0x8
   1487a:	4ba080e7          	jalr	1210(ra) # 1cd30 <memcpy>
   1487e:	8526                	mv	a0,s1
   14880:	4601                	li	a2,0
   14882:	4681                	li	a3,0
   14884:	00090023          	sb	zero,0(s2)
   14888:	4585                	li	a1,1
   1488a:	470d                	li	a4,3
   1488c:	00000073          	ecall
   14890:	459d                	li	a1,7
   14892:	4711                	li	a4,4
   14894:	8526                	mv	a0,s1
   14896:	4601                	li	a2,0
   14898:	4681                	li	a3,0
   1489a:	00000073          	ecall
   1489e:	40fa                	lw	ra,156(sp)
   148a0:	446a                	lw	s0,152(sp)
   148a2:	44da                	lw	s1,148(sp)
   148a4:	494a                	lw	s2,144(sp)
   148a6:	610d                	addi	sp,sp,160
   148a8:	8082                	ret

000148aa <_ZN18complex_no_dynamic3app17h798ea38266c92024E>:
   148aa:	7135                	addi	sp,sp,-160
   148ac:	cf06                	sw	ra,156(sp)
   148ae:	cd22                	sw	s0,152(sp)
   148b0:	cb26                	sw	s1,148(sp)
   148b2:	842a                	mv	s0,a0
   148b4:	00b10513          	addi	a0,sp,11
   148b8:	04d00613          	li	a2,77
   148bc:	00008097          	auipc	ra,0x8
   148c0:	474080e7          	jalr	1140(ra) # 1cd30 <memcpy>
   148c4:	08a8                	addi	a0,sp,88
   148c6:	03c00613          	li	a2,60
   148ca:	4581                	li	a1,0
   148cc:	00008097          	auipc	ra,0x8
   148d0:	3f8080e7          	jalr	1016(ra) # 1ccc4 <memset>
   148d4:	6509                	lui	a0,0x2
   148d6:	4591                	li	a1,4
   148d8:	00b10613          	addi	a2,sp,11
   148dc:	04d00693          	li	a3,77
   148e0:	1ab50793          	addi	a5,a0,427 # 21ab <.Lline_table_start1+0x1f80>
   148e4:	4711                	li	a4,4
   148e6:	4489                	li	s1,2
   148e8:	853e                	mv	a0,a5
   148ea:	00000073          	ecall
   148ee:	02950a63          	beq	a0,s1,14922 <_ZN18complex_no_dynamic3app17h798ea38266c92024E+0x78>
   148f2:	45a5                	li	a1,9
   148f4:	08b0                	addi	a2,sp,88
   148f6:	03c00693          	li	a3,60
   148fa:	470d                	li	a4,3
   148fc:	853e                	mv	a0,a5
   148fe:	00000073          	ecall
   14902:	02950063          	beq	a0,s1,14922 <_ZN18complex_no_dynamic3app17h798ea38266c92024E+0x78>
   14906:	6509                	lui	a0,0x2
   14908:	4591                	li	a1,4
   1490a:	4625                	li	a2,9
   1490c:	1ab50793          	addi	a5,a0,427 # 21ab <.Lline_table_start1+0x1f80>
   14910:	4709                	li	a4,2
   14912:	07f00493          	li	s1,127
   14916:	853e                	mv	a0,a5
   14918:	4681                	li	a3,0
   1491a:	00000073          	ecall
   1491e:	02a4eb63          	bltu	s1,a0,14954 <_ZN18complex_no_dynamic3app17h798ea38266c92024E+0xaa>
   14922:	4785                	li	a5,1
   14924:	c3a9                	beqz	a5,14966 <_ZN18complex_no_dynamic3app17h798ea38266c92024E+0xbc>
   14926:	4601                	li	a2,0
   14928:	4681                	li	a3,0
   1492a:	4505                	li	a0,1
   1492c:	6709                	lui	a4,0x2
   1492e:	87ae                	mv	a5,a1
   14930:	45a5                	li	a1,9
   14932:	00a40023          	sb	a0,0(s0)
   14936:	c05c                	sw	a5,4(s0)
   14938:	1ab70793          	addi	a5,a4,427 # 21ab <.Lline_table_start1+0x1f80>
   1493c:	470d                	li	a4,3
   1493e:	853e                	mv	a0,a5
   14940:	00000073          	ecall
   14944:	4591                	li	a1,4
   14946:	4711                	li	a4,4
   14948:	853e                	mv	a0,a5
   1494a:	4601                	li	a2,0
   1494c:	4681                	li	a3,0
   1494e:	00000073          	ecall
   14952:	a8a9                	j	149ac <_ZN18complex_no_dynamic3app17h798ea38266c92024E+0x102>
   14954:	853e                	mv	a0,a5
   14956:	4601                	li	a2,0
   14958:	4681                	li	a3,0
   1495a:	4781                	li	a5,0
   1495c:	45a5                	li	a1,9
   1495e:	470d                	li	a4,3
   14960:	00000073          	ecall
   14964:	f3e9                	bnez	a5,14926 <_ZN18complex_no_dynamic3app17h798ea38266c92024E+0x7c>
   14966:	6509                	lui	a0,0x2
   14968:	1ab50493          	addi	s1,a0,427 # 21ab <.Lline_table_start1+0x1f80>
   1496c:	45a5                	li	a1,9
   1496e:	470d                	li	a4,3
   14970:	8526                	mv	a0,s1
   14972:	4601                	li	a2,0
   14974:	4681                	li	a3,0
   14976:	00000073          	ecall
   1497a:	00140513          	addi	a0,s0,1
   1497e:	08ac                	addi	a1,sp,88
   14980:	03c00613          	li	a2,60
   14984:	00008097          	auipc	ra,0x8
   14988:	3ac080e7          	jalr	940(ra) # 1cd30 <memcpy>
   1498c:	8526                	mv	a0,s1
   1498e:	4601                	li	a2,0
   14990:	4681                	li	a3,0
   14992:	00040023          	sb	zero,0(s0)
   14996:	45a5                	li	a1,9
   14998:	470d                	li	a4,3
   1499a:	00000073          	ecall
   1499e:	4591                	li	a1,4
   149a0:	4711                	li	a4,4
   149a2:	8526                	mv	a0,s1
   149a4:	4601                	li	a2,0
   149a6:	4681                	li	a3,0
   149a8:	00000073          	ecall
   149ac:	40fa                	lw	ra,156(sp)
   149ae:	446a                	lw	s0,152(sp)
   149b0:	44da                	lw	s1,148(sp)
   149b2:	610d                	addi	sp,sp,160
   149b4:	8082                	ret

000149b6 <_ZN18complex_no_dynamic3app17h7b301ef68d8a1019E>:
   149b6:	7159                	addi	sp,sp,-112
   149b8:	d686                	sw	ra,108(sp)
   149ba:	d4a2                	sw	s0,104(sp)
   149bc:	d2a6                	sw	s1,100(sp)
   149be:	d0ca                	sw	s2,96(sp)
   149c0:	892a                	mv	s2,a0
   149c2:	00c5c503          	lbu	a0,12(a1)
   149c6:	00d5c603          	lbu	a2,13(a1)
   149ca:	0085c683          	lbu	a3,8(a1)
   149ce:	0095c703          	lbu	a4,9(a1)
   149d2:	00a5c783          	lbu	a5,10(a1)
   149d6:	00b5c483          	lbu	s1,11(a1)
   149da:	0622                	slli	a2,a2,0x8
   149dc:	0722                	slli	a4,a4,0x8
   149de:	00a66833          	or	a6,a2,a0
   149e2:	8ed9                	or	a3,a3,a4
   149e4:	0045c603          	lbu	a2,4(a1)
   149e8:	0055c703          	lbu	a4,5(a1)
   149ec:	0065c403          	lbu	s0,6(a1)
   149f0:	0075c503          	lbu	a0,7(a1)
   149f4:	07c2                	slli	a5,a5,0x10
   149f6:	04e2                	slli	s1,s1,0x18
   149f8:	0722                	slli	a4,a4,0x8
   149fa:	0442                	slli	s0,s0,0x10
   149fc:	0562                	slli	a0,a0,0x18
   149fe:	8fc5                	or	a5,a5,s1
   14a00:	8e59                	or	a2,a2,a4
   14a02:	0005c703          	lbu	a4,0(a1)
   14a06:	0015c483          	lbu	s1,1(a1)
   14a0a:	8d41                	or	a0,a0,s0
   14a0c:	0025c403          	lbu	s0,2(a1)
   14a10:	0035c583          	lbu	a1,3(a1)
   14a14:	04a2                	slli	s1,s1,0x8
   14a16:	8f45                	or	a4,a4,s1
   14a18:	0442                	slli	s0,s0,0x10
   14a1a:	05e2                	slli	a1,a1,0x18
   14a1c:	8dc1                	or	a1,a1,s0
   14a1e:	8edd                	or	a3,a3,a5
   14a20:	8d51                	or	a0,a0,a2
   14a22:	8dd9                	or	a1,a1,a4
   14a24:	c42e                	sw	a1,8(sp)
   14a26:	c62a                	sw	a0,12(sp)
   14a28:	c836                	sw	a3,16(sp)
   14a2a:	01011a23          	sh	a6,20(sp)
   14a2e:	0828                	addi	a0,sp,24
   14a30:	04800613          	li	a2,72
   14a34:	4581                	li	a1,0
   14a36:	00008097          	auipc	ra,0x8
   14a3a:	28e080e7          	jalr	654(ra) # 1ccc4 <memset>
   14a3e:	6505                	lui	a0,0x1
   14a40:	458d                	li	a1,3
   14a42:	0030                	addi	a2,sp,8
   14a44:	46b9                	li	a3,14
   14a46:	2d150793          	addi	a5,a0,721 # 12d1 <.Lline_table_start1+0x10a6>
   14a4a:	4711                	li	a4,4
   14a4c:	4489                	li	s1,2
   14a4e:	853e                	mv	a0,a5
   14a50:	00000073          	ecall
   14a54:	02950a63          	beq	a0,s1,14a88 <_ZN18complex_no_dynamic3app17h7b301ef68d8a1019E+0xd2>
   14a58:	45a1                	li	a1,8
   14a5a:	0830                	addi	a2,sp,24
   14a5c:	04800693          	li	a3,72
   14a60:	470d                	li	a4,3
   14a62:	853e                	mv	a0,a5
   14a64:	00000073          	ecall
   14a68:	02950063          	beq	a0,s1,14a88 <_ZN18complex_no_dynamic3app17h7b301ef68d8a1019E+0xd2>
   14a6c:	6505                	lui	a0,0x1
   14a6e:	458d                	li	a1,3
   14a70:	4621                	li	a2,8
   14a72:	2d150793          	addi	a5,a0,721 # 12d1 <.Lline_table_start1+0x10a6>
   14a76:	4709                	li	a4,2
   14a78:	07f00493          	li	s1,127
   14a7c:	853e                	mv	a0,a5
   14a7e:	4681                	li	a3,0
   14a80:	00000073          	ecall
   14a84:	02a4ec63          	bltu	s1,a0,14abc <_ZN18complex_no_dynamic3app17h7b301ef68d8a1019E+0x106>
   14a88:	4785                	li	a5,1
   14a8a:	c3b1                	beqz	a5,14ace <_ZN18complex_no_dynamic3app17h7b301ef68d8a1019E+0x118>
   14a8c:	4601                	li	a2,0
   14a8e:	4681                	li	a3,0
   14a90:	4505                	li	a0,1
   14a92:	6705                	lui	a4,0x1
   14a94:	87ae                	mv	a5,a1
   14a96:	45a1                	li	a1,8
   14a98:	00a90023          	sb	a0,0(s2)
   14a9c:	00f92223          	sw	a5,4(s2)
   14aa0:	2d170793          	addi	a5,a4,721 # 12d1 <.Lline_table_start1+0x10a6>
   14aa4:	470d                	li	a4,3
   14aa6:	853e                	mv	a0,a5
   14aa8:	00000073          	ecall
   14aac:	458d                	li	a1,3
   14aae:	4711                	li	a4,4
   14ab0:	853e                	mv	a0,a5
   14ab2:	4601                	li	a2,0
   14ab4:	4681                	li	a3,0
   14ab6:	00000073          	ecall
   14aba:	a8a9                	j	14b14 <_ZN18complex_no_dynamic3app17h7b301ef68d8a1019E+0x15e>
   14abc:	853e                	mv	a0,a5
   14abe:	4601                	li	a2,0
   14ac0:	4681                	li	a3,0
   14ac2:	4781                	li	a5,0
   14ac4:	45a1                	li	a1,8
   14ac6:	470d                	li	a4,3
   14ac8:	00000073          	ecall
   14acc:	f3e1                	bnez	a5,14a8c <_ZN18complex_no_dynamic3app17h7b301ef68d8a1019E+0xd6>
   14ace:	6505                	lui	a0,0x1
   14ad0:	2d150493          	addi	s1,a0,721 # 12d1 <.Lline_table_start1+0x10a6>
   14ad4:	45a1                	li	a1,8
   14ad6:	470d                	li	a4,3
   14ad8:	8526                	mv	a0,s1
   14ada:	4601                	li	a2,0
   14adc:	4681                	li	a3,0
   14ade:	00000073          	ecall
   14ae2:	00190513          	addi	a0,s2,1
   14ae6:	082c                	addi	a1,sp,24
   14ae8:	04800613          	li	a2,72
   14aec:	00008097          	auipc	ra,0x8
   14af0:	244080e7          	jalr	580(ra) # 1cd30 <memcpy>
   14af4:	8526                	mv	a0,s1
   14af6:	4601                	li	a2,0
   14af8:	4681                	li	a3,0
   14afa:	00090023          	sb	zero,0(s2)
   14afe:	45a1                	li	a1,8
   14b00:	470d                	li	a4,3
   14b02:	00000073          	ecall
   14b06:	458d                	li	a1,3
   14b08:	4711                	li	a4,4
   14b0a:	8526                	mv	a0,s1
   14b0c:	4601                	li	a2,0
   14b0e:	4681                	li	a3,0
   14b10:	00000073          	ecall
   14b14:	50b6                	lw	ra,108(sp)
   14b16:	5426                	lw	s0,104(sp)
   14b18:	5496                	lw	s1,100(sp)
   14b1a:	5906                	lw	s2,96(sp)
   14b1c:	6165                	addi	sp,sp,112
   14b1e:	8082                	ret

00014b20 <_ZN18complex_no_dynamic3app17h7c7a040f7e7cd2ceE>:
   14b20:	715d                	addi	sp,sp,-80
   14b22:	c686                	sw	ra,76(sp)
   14b24:	c4a2                	sw	s0,72(sp)
   14b26:	842a                	mv	s0,a0
   14b28:	00210513          	addi	a0,sp,2
   14b2c:	03600613          	li	a2,54
   14b30:	00008097          	auipc	ra,0x8
   14b34:	200080e7          	jalr	512(ra) # 1cd30 <memcpy>
   14b38:	04010323          	sb	zero,70(sp)
   14b3c:	dc02                	sw	zero,56(sp)
   14b3e:	de02                	sw	zero,60(sp)
   14b40:	c082                	sw	zero,64(sp)
   14b42:	04011223          	sh	zero,68(sp)
   14b46:	65300513          	li	a0,1619
   14b4a:	4595                	li	a1,5
   14b4c:	00210613          	addi	a2,sp,2
   14b50:	03600693          	li	a3,54
   14b54:	4711                	li	a4,4
   14b56:	4789                	li	a5,2
   14b58:	00000073          	ecall
   14b5c:	02f50863          	beq	a0,a5,14b8c <_ZN18complex_no_dynamic3app17h7c7a040f7e7cd2ceE+0x6c>
   14b60:	65300513          	li	a0,1619
   14b64:	458d                	li	a1,3
   14b66:	1830                	addi	a2,sp,56
   14b68:	46bd                	li	a3,15
   14b6a:	470d                	li	a4,3
   14b6c:	00000073          	ecall
   14b70:	00f50e63          	beq	a0,a5,14b8c <_ZN18complex_no_dynamic3app17h7c7a040f7e7cd2ceE+0x6c>
   14b74:	65300513          	li	a0,1619
   14b78:	4595                	li	a1,5
   14b7a:	460d                	li	a2,3
   14b7c:	4709                	li	a4,2
   14b7e:	07f00793          	li	a5,127
   14b82:	4681                	li	a3,0
   14b84:	00000073          	ecall
   14b88:	02a7e963          	bltu	a5,a0,14bba <_ZN18complex_no_dynamic3app17h7c7a040f7e7cd2ceE+0x9a>
   14b8c:	4785                	li	a5,1
   14b8e:	c3a1                	beqz	a5,14bce <_ZN18complex_no_dynamic3app17h7c7a040f7e7cd2ceE+0xae>
   14b90:	4601                	li	a2,0
   14b92:	4681                	li	a3,0
   14b94:	4705                	li	a4,1
   14b96:	65300513          	li	a0,1619
   14b9a:	00e40023          	sb	a4,0(s0)
   14b9e:	c04c                	sw	a1,4(s0)
   14ba0:	458d                	li	a1,3
   14ba2:	470d                	li	a4,3
   14ba4:	00000073          	ecall
   14ba8:	65300513          	li	a0,1619
   14bac:	4595                	li	a1,5
   14bae:	4711                	li	a4,4
   14bb0:	4601                	li	a2,0
   14bb2:	4681                	li	a3,0
   14bb4:	00000073          	ecall
   14bb8:	a8a9                	j	14c12 <_ZN18complex_no_dynamic3app17h7c7a040f7e7cd2ceE+0xf2>
   14bba:	4601                	li	a2,0
   14bbc:	4681                	li	a3,0
   14bbe:	4781                	li	a5,0
   14bc0:	65300513          	li	a0,1619
   14bc4:	458d                	li	a1,3
   14bc6:	470d                	li	a4,3
   14bc8:	00000073          	ecall
   14bcc:	f3f1                	bnez	a5,14b90 <_ZN18complex_no_dynamic3app17h7c7a040f7e7cd2ceE+0x70>
   14bce:	65300513          	li	a0,1619
   14bd2:	458d                	li	a1,3
   14bd4:	470d                	li	a4,3
   14bd6:	4601                	li	a2,0
   14bd8:	4681                	li	a3,0
   14bda:	00000073          	ecall
   14bde:	00140513          	addi	a0,s0,1
   14be2:	182c                	addi	a1,sp,56
   14be4:	463d                	li	a2,15
   14be6:	00008097          	auipc	ra,0x8
   14bea:	14a080e7          	jalr	330(ra) # 1cd30 <memcpy>
   14bee:	4601                	li	a2,0
   14bf0:	4681                	li	a3,0
   14bf2:	00040023          	sb	zero,0(s0)
   14bf6:	65300513          	li	a0,1619
   14bfa:	458d                	li	a1,3
   14bfc:	470d                	li	a4,3
   14bfe:	00000073          	ecall
   14c02:	65300513          	li	a0,1619
   14c06:	4595                	li	a1,5
   14c08:	4711                	li	a4,4
   14c0a:	4601                	li	a2,0
   14c0c:	4681                	li	a3,0
   14c0e:	00000073          	ecall
   14c12:	40b6                	lw	ra,76(sp)
   14c14:	4426                	lw	s0,72(sp)
   14c16:	6161                	addi	sp,sp,80
   14c18:	8082                	ret

00014c1a <_ZN18complex_no_dynamic3app17h7eeac271c5acc1aeE>:
   14c1a:	7175                	addi	sp,sp,-144
   14c1c:	c706                	sw	ra,140(sp)
   14c1e:	c522                	sw	s0,136(sp)
   14c20:	c326                	sw	s1,132(sp)
   14c22:	c14a                	sw	s2,128(sp)
   14c24:	892a                	mv	s2,a0
   14c26:	0185c883          	lbu	a7,24(a1)
   14c2a:	0195c303          	lbu	t1,25(a1)
   14c2e:	01a5c803          	lbu	a6,26(a1)
   14c32:	0145c283          	lbu	t0,20(a1)
   14c36:	0155cf03          	lbu	t5,21(a1)
   14c3a:	0165c483          	lbu	s1,22(a1)
   14c3e:	0175c403          	lbu	s0,23(a1)
   14c42:	0105c703          	lbu	a4,16(a1)
   14c46:	0115c603          	lbu	a2,17(a1)
   14c4a:	0125ce03          	lbu	t3,18(a1)
   14c4e:	0135ce83          	lbu	t4,19(a1)
   14c52:	00c5c383          	lbu	t2,12(a1)
   14c56:	00d5cf83          	lbu	t6,13(a1)
   14c5a:	00e5c683          	lbu	a3,14(a1)
   14c5e:	00f5c783          	lbu	a5,15(a1)
   14c62:	0322                	slli	t1,t1,0x8
   14c64:	0f22                	slli	t5,t5,0x8
   14c66:	04c2                	slli	s1,s1,0x10
   14c68:	0462                	slli	s0,s0,0x18
   14c6a:	00861513          	slli	a0,a2,0x8
   14c6e:	011368b3          	or	a7,t1,a7
   14c72:	005f62b3          	or	t0,t5,t0
   14c76:	00946f33          	or	t5,s0,s1
   14c7a:	00e56333          	or	t1,a0,a4
   14c7e:	0085c703          	lbu	a4,8(a1)
   14c82:	0095c403          	lbu	s0,9(a1)
   14c86:	00a5c603          	lbu	a2,10(a1)
   14c8a:	00b5c503          	lbu	a0,11(a1)
   14c8e:	0e42                	slli	t3,t3,0x10
   14c90:	0ee2                	slli	t4,t4,0x18
   14c92:	0fa2                	slli	t6,t6,0x8
   14c94:	06c2                	slli	a3,a3,0x10
   14c96:	07e2                	slli	a5,a5,0x18
   14c98:	0422                	slli	s0,s0,0x8
   14c9a:	01ceee33          	or	t3,t4,t3
   14c9e:	007fe3b3          	or	t2,t6,t2
   14ca2:	00d7eeb3          	or	t4,a5,a3
   14ca6:	00e46fb3          	or	t6,s0,a4
   14caa:	0045c783          	lbu	a5,4(a1)
   14cae:	0055c403          	lbu	s0,5(a1)
   14cb2:	0065c483          	lbu	s1,6(a1)
   14cb6:	0075c683          	lbu	a3,7(a1)
   14cba:	0642                	slli	a2,a2,0x10
   14cbc:	0562                	slli	a0,a0,0x18
   14cbe:	0422                	slli	s0,s0,0x8
   14cc0:	04c2                	slli	s1,s1,0x10
   14cc2:	06e2                	slli	a3,a3,0x18
   14cc4:	8d51                	or	a0,a0,a2
   14cc6:	8fc1                	or	a5,a5,s0
   14cc8:	0005c603          	lbu	a2,0(a1)
   14ccc:	0015c403          	lbu	s0,1(a1)
   14cd0:	8ec5                	or	a3,a3,s1
   14cd2:	0025c483          	lbu	s1,2(a1)
   14cd6:	0035c583          	lbu	a1,3(a1)
   14cda:	0422                	slli	s0,s0,0x8
   14cdc:	8e41                	or	a2,a2,s0
   14cde:	04c2                	slli	s1,s1,0x10
   14ce0:	05e2                	slli	a1,a1,0x18
   14ce2:	8dc5                	or	a1,a1,s1
   14ce4:	005f64b3          	or	s1,t5,t0
   14ce8:	006e6433          	or	s0,t3,t1
   14cec:	007ee733          	or	a4,t4,t2
   14cf0:	01f56533          	or	a0,a0,t6
   14cf4:	8edd                	or	a3,a3,a5
   14cf6:	8dd1                	or	a1,a1,a2
   14cf8:	c822                	sw	s0,16(sp)
   14cfa:	ca26                	sw	s1,20(sp)
   14cfc:	01111c23          	sh	a7,24(sp)
   14d00:	01010d23          	sb	a6,26(sp)
   14d04:	c02e                	sw	a1,0(sp)
   14d06:	c236                	sw	a3,4(sp)
   14d08:	c42a                	sw	a0,8(sp)
   14d0a:	c63a                	sw	a4,12(sp)
   14d0c:	01d10513          	addi	a0,sp,29
   14d10:	06300613          	li	a2,99
   14d14:	4581                	li	a1,0
   14d16:	00008097          	auipc	ra,0x8
   14d1a:	fae080e7          	jalr	-82(ra) # 1ccc4 <memset>
   14d1e:	6509                	lui	a0,0x2
   14d20:	458d                	li	a1,3
   14d22:	860a                	mv	a2,sp
   14d24:	46ed                	li	a3,27
   14d26:	54850793          	addi	a5,a0,1352 # 2548 <.Lline_table_start1+0x231d>
   14d2a:	4711                	li	a4,4
   14d2c:	4489                	li	s1,2
   14d2e:	853e                	mv	a0,a5
   14d30:	00000073          	ecall
   14d34:	02950b63          	beq	a0,s1,14d6a <_ZN18complex_no_dynamic3app17h7eeac271c5acc1aeE+0x150>
   14d38:	458d                	li	a1,3
   14d3a:	01d10613          	addi	a2,sp,29
   14d3e:	06300693          	li	a3,99
   14d42:	470d                	li	a4,3
   14d44:	853e                	mv	a0,a5
   14d46:	00000073          	ecall
   14d4a:	02950063          	beq	a0,s1,14d6a <_ZN18complex_no_dynamic3app17h7eeac271c5acc1aeE+0x150>
   14d4e:	6509                	lui	a0,0x2
   14d50:	458d                	li	a1,3
   14d52:	460d                	li	a2,3
   14d54:	54850793          	addi	a5,a0,1352 # 2548 <.Lline_table_start1+0x231d>
   14d58:	4709                	li	a4,2
   14d5a:	07f00493          	li	s1,127
   14d5e:	853e                	mv	a0,a5
   14d60:	4681                	li	a3,0
   14d62:	00000073          	ecall
   14d66:	02a4ec63          	bltu	s1,a0,14d9e <_ZN18complex_no_dynamic3app17h7eeac271c5acc1aeE+0x184>
   14d6a:	4785                	li	a5,1
   14d6c:	c3b1                	beqz	a5,14db0 <_ZN18complex_no_dynamic3app17h7eeac271c5acc1aeE+0x196>
   14d6e:	4601                	li	a2,0
   14d70:	4681                	li	a3,0
   14d72:	4505                	li	a0,1
   14d74:	6709                	lui	a4,0x2
   14d76:	87ae                	mv	a5,a1
   14d78:	458d                	li	a1,3
   14d7a:	00a90023          	sb	a0,0(s2)
   14d7e:	00f92223          	sw	a5,4(s2)
   14d82:	54870793          	addi	a5,a4,1352 # 2548 <.Lline_table_start1+0x231d>
   14d86:	470d                	li	a4,3
   14d88:	853e                	mv	a0,a5
   14d8a:	00000073          	ecall
   14d8e:	458d                	li	a1,3
   14d90:	4711                	li	a4,4
   14d92:	853e                	mv	a0,a5
   14d94:	4601                	li	a2,0
   14d96:	4681                	li	a3,0
   14d98:	00000073          	ecall
   14d9c:	a8b1                	j	14df8 <_ZN18complex_no_dynamic3app17h7eeac271c5acc1aeE+0x1de>
   14d9e:	853e                	mv	a0,a5
   14da0:	4601                	li	a2,0
   14da2:	4681                	li	a3,0
   14da4:	4781                	li	a5,0
   14da6:	458d                	li	a1,3
   14da8:	470d                	li	a4,3
   14daa:	00000073          	ecall
   14dae:	f3e1                	bnez	a5,14d6e <_ZN18complex_no_dynamic3app17h7eeac271c5acc1aeE+0x154>
   14db0:	6509                	lui	a0,0x2
   14db2:	54850493          	addi	s1,a0,1352 # 2548 <.Lline_table_start1+0x231d>
   14db6:	458d                	li	a1,3
   14db8:	470d                	li	a4,3
   14dba:	8526                	mv	a0,s1
   14dbc:	4601                	li	a2,0
   14dbe:	4681                	li	a3,0
   14dc0:	00000073          	ecall
   14dc4:	00190513          	addi	a0,s2,1
   14dc8:	01d10593          	addi	a1,sp,29
   14dcc:	06300613          	li	a2,99
   14dd0:	00008097          	auipc	ra,0x8
   14dd4:	f60080e7          	jalr	-160(ra) # 1cd30 <memcpy>
   14dd8:	8526                	mv	a0,s1
   14dda:	4601                	li	a2,0
   14ddc:	4681                	li	a3,0
   14dde:	00090023          	sb	zero,0(s2)
   14de2:	458d                	li	a1,3
   14de4:	470d                	li	a4,3
   14de6:	00000073          	ecall
   14dea:	458d                	li	a1,3
   14dec:	4711                	li	a4,4
   14dee:	8526                	mv	a0,s1
   14df0:	4601                	li	a2,0
   14df2:	4681                	li	a3,0
   14df4:	00000073          	ecall
   14df8:	40ba                	lw	ra,140(sp)
   14dfa:	442a                	lw	s0,136(sp)
   14dfc:	449a                	lw	s1,132(sp)
   14dfe:	490a                	lw	s2,128(sp)
   14e00:	6149                	addi	sp,sp,144
   14e02:	8082                	ret

00014e04 <_ZN18complex_no_dynamic3app17h816039bd249c1b60E>:
   14e04:	7171                	addi	sp,sp,-176
   14e06:	d706                	sw	ra,172(sp)
   14e08:	d522                	sw	s0,168(sp)
   14e0a:	d326                	sw	s1,164(sp)
   14e0c:	842a                	mv	s0,a0
   14e0e:	0028                	addi	a0,sp,8
   14e10:	04600613          	li	a2,70
   14e14:	00008097          	auipc	ra,0x8
   14e18:	f1c080e7          	jalr	-228(ra) # 1cd30 <memcpy>
   14e1c:	04e10513          	addi	a0,sp,78
   14e20:	05600613          	li	a2,86
   14e24:	4581                	li	a1,0
   14e26:	00008097          	auipc	ra,0x8
   14e2a:	e9e080e7          	jalr	-354(ra) # 1ccc4 <memset>
   14e2e:	6509                	lui	a0,0x2
   14e30:	459d                	li	a1,7
   14e32:	0030                	addi	a2,sp,8
   14e34:	04600693          	li	a3,70
   14e38:	e5050793          	addi	a5,a0,-432 # 1e50 <.Lline_table_start1+0x1c25>
   14e3c:	4711                	li	a4,4
   14e3e:	4489                	li	s1,2
   14e40:	853e                	mv	a0,a5
   14e42:	00000073          	ecall
   14e46:	02950b63          	beq	a0,s1,14e7c <_ZN18complex_no_dynamic3app17h816039bd249c1b60E+0x78>
   14e4a:	458d                	li	a1,3
   14e4c:	04e10613          	addi	a2,sp,78
   14e50:	05600693          	li	a3,86
   14e54:	470d                	li	a4,3
   14e56:	853e                	mv	a0,a5
   14e58:	00000073          	ecall
   14e5c:	02950063          	beq	a0,s1,14e7c <_ZN18complex_no_dynamic3app17h816039bd249c1b60E+0x78>
   14e60:	6509                	lui	a0,0x2
   14e62:	459d                	li	a1,7
   14e64:	460d                	li	a2,3
   14e66:	e5050793          	addi	a5,a0,-432 # 1e50 <.Lline_table_start1+0x1c25>
   14e6a:	4709                	li	a4,2
   14e6c:	07f00493          	li	s1,127
   14e70:	853e                	mv	a0,a5
   14e72:	4681                	li	a3,0
   14e74:	00000073          	ecall
   14e78:	02a4eb63          	bltu	s1,a0,14eae <_ZN18complex_no_dynamic3app17h816039bd249c1b60E+0xaa>
   14e7c:	4785                	li	a5,1
   14e7e:	c3a9                	beqz	a5,14ec0 <_ZN18complex_no_dynamic3app17h816039bd249c1b60E+0xbc>
   14e80:	4601                	li	a2,0
   14e82:	4681                	li	a3,0
   14e84:	4505                	li	a0,1
   14e86:	6709                	lui	a4,0x2
   14e88:	87ae                	mv	a5,a1
   14e8a:	458d                	li	a1,3
   14e8c:	00a40023          	sb	a0,0(s0)
   14e90:	c05c                	sw	a5,4(s0)
   14e92:	e5070793          	addi	a5,a4,-432 # 1e50 <.Lline_table_start1+0x1c25>
   14e96:	470d                	li	a4,3
   14e98:	853e                	mv	a0,a5
   14e9a:	00000073          	ecall
   14e9e:	459d                	li	a1,7
   14ea0:	4711                	li	a4,4
   14ea2:	853e                	mv	a0,a5
   14ea4:	4601                	li	a2,0
   14ea6:	4681                	li	a3,0
   14ea8:	00000073          	ecall
   14eac:	a8b1                	j	14f08 <_ZN18complex_no_dynamic3app17h816039bd249c1b60E+0x104>
   14eae:	853e                	mv	a0,a5
   14eb0:	4601                	li	a2,0
   14eb2:	4681                	li	a3,0
   14eb4:	4781                	li	a5,0
   14eb6:	458d                	li	a1,3
   14eb8:	470d                	li	a4,3
   14eba:	00000073          	ecall
   14ebe:	f3e9                	bnez	a5,14e80 <_ZN18complex_no_dynamic3app17h816039bd249c1b60E+0x7c>
   14ec0:	6509                	lui	a0,0x2
   14ec2:	e5050493          	addi	s1,a0,-432 # 1e50 <.Lline_table_start1+0x1c25>
   14ec6:	458d                	li	a1,3
   14ec8:	470d                	li	a4,3
   14eca:	8526                	mv	a0,s1
   14ecc:	4601                	li	a2,0
   14ece:	4681                	li	a3,0
   14ed0:	00000073          	ecall
   14ed4:	00140513          	addi	a0,s0,1
   14ed8:	04e10593          	addi	a1,sp,78
   14edc:	05600613          	li	a2,86
   14ee0:	00008097          	auipc	ra,0x8
   14ee4:	e50080e7          	jalr	-432(ra) # 1cd30 <memcpy>
   14ee8:	8526                	mv	a0,s1
   14eea:	4601                	li	a2,0
   14eec:	4681                	li	a3,0
   14eee:	00040023          	sb	zero,0(s0)
   14ef2:	458d                	li	a1,3
   14ef4:	470d                	li	a4,3
   14ef6:	00000073          	ecall
   14efa:	459d                	li	a1,7
   14efc:	4711                	li	a4,4
   14efe:	8526                	mv	a0,s1
   14f00:	4601                	li	a2,0
   14f02:	4681                	li	a3,0
   14f04:	00000073          	ecall
   14f08:	50ba                	lw	ra,172(sp)
   14f0a:	542a                	lw	s0,168(sp)
   14f0c:	549a                	lw	s1,164(sp)
   14f0e:	614d                	addi	sp,sp,176
   14f10:	8082                	ret

00014f12 <_ZN18complex_no_dynamic3app17h852815e7fb19aadfE>:
   14f12:	7119                	addi	sp,sp,-128
   14f14:	de86                	sw	ra,124(sp)
   14f16:	dca2                	sw	s0,120(sp)
   14f18:	daa6                	sw	s1,116(sp)
   14f1a:	842a                	mv	s0,a0
   14f1c:	00d10513          	addi	a0,sp,13
   14f20:	04400613          	li	a2,68
   14f24:	00008097          	auipc	ra,0x8
   14f28:	e0c080e7          	jalr	-500(ra) # 1cd30 <memcpy>
   14f2c:	05110513          	addi	a0,sp,81
   14f30:	02300613          	li	a2,35
   14f34:	4581                	li	a1,0
   14f36:	00008097          	auipc	ra,0x8
   14f3a:	d8e080e7          	jalr	-626(ra) # 1ccc4 <memset>
   14f3e:	6505                	lui	a0,0x1
   14f40:	4599                	li	a1,6
   14f42:	00d10613          	addi	a2,sp,13
   14f46:	04400693          	li	a3,68
   14f4a:	9bf50793          	addi	a5,a0,-1601 # 9bf <.Lline_table_start1+0x794>
   14f4e:	4711                	li	a4,4
   14f50:	4489                	li	s1,2
   14f52:	853e                	mv	a0,a5
   14f54:	00000073          	ecall
   14f58:	02950b63          	beq	a0,s1,14f8e <_ZN18complex_no_dynamic3app17h852815e7fb19aadfE+0x7c>
   14f5c:	458d                	li	a1,3
   14f5e:	05110613          	addi	a2,sp,81
   14f62:	02300693          	li	a3,35
   14f66:	470d                	li	a4,3
   14f68:	853e                	mv	a0,a5
   14f6a:	00000073          	ecall
   14f6e:	02950063          	beq	a0,s1,14f8e <_ZN18complex_no_dynamic3app17h852815e7fb19aadfE+0x7c>
   14f72:	6505                	lui	a0,0x1
   14f74:	4599                	li	a1,6
   14f76:	460d                	li	a2,3
   14f78:	9bf50793          	addi	a5,a0,-1601 # 9bf <.Lline_table_start1+0x794>
   14f7c:	4709                	li	a4,2
   14f7e:	07f00493          	li	s1,127
   14f82:	853e                	mv	a0,a5
   14f84:	4681                	li	a3,0
   14f86:	00000073          	ecall
   14f8a:	02a4eb63          	bltu	s1,a0,14fc0 <_ZN18complex_no_dynamic3app17h852815e7fb19aadfE+0xae>
   14f8e:	4785                	li	a5,1
   14f90:	c3a9                	beqz	a5,14fd2 <_ZN18complex_no_dynamic3app17h852815e7fb19aadfE+0xc0>
   14f92:	4601                	li	a2,0
   14f94:	4681                	li	a3,0
   14f96:	4505                	li	a0,1
   14f98:	6705                	lui	a4,0x1
   14f9a:	87ae                	mv	a5,a1
   14f9c:	458d                	li	a1,3
   14f9e:	00a40023          	sb	a0,0(s0)
   14fa2:	c05c                	sw	a5,4(s0)
   14fa4:	9bf70793          	addi	a5,a4,-1601 # 9bf <.Lline_table_start1+0x794>
   14fa8:	470d                	li	a4,3
   14faa:	853e                	mv	a0,a5
   14fac:	00000073          	ecall
   14fb0:	4599                	li	a1,6
   14fb2:	4711                	li	a4,4
   14fb4:	853e                	mv	a0,a5
   14fb6:	4601                	li	a2,0
   14fb8:	4681                	li	a3,0
   14fba:	00000073          	ecall
   14fbe:	a8b1                	j	1501a <_ZN18complex_no_dynamic3app17h852815e7fb19aadfE+0x108>
   14fc0:	853e                	mv	a0,a5
   14fc2:	4601                	li	a2,0
   14fc4:	4681                	li	a3,0
   14fc6:	4781                	li	a5,0
   14fc8:	458d                	li	a1,3
   14fca:	470d                	li	a4,3
   14fcc:	00000073          	ecall
   14fd0:	f3e9                	bnez	a5,14f92 <_ZN18complex_no_dynamic3app17h852815e7fb19aadfE+0x80>
   14fd2:	6505                	lui	a0,0x1
   14fd4:	9bf50493          	addi	s1,a0,-1601 # 9bf <.Lline_table_start1+0x794>
   14fd8:	458d                	li	a1,3
   14fda:	470d                	li	a4,3
   14fdc:	8526                	mv	a0,s1
   14fde:	4601                	li	a2,0
   14fe0:	4681                	li	a3,0
   14fe2:	00000073          	ecall
   14fe6:	00140513          	addi	a0,s0,1
   14fea:	05110593          	addi	a1,sp,81
   14fee:	02300613          	li	a2,35
   14ff2:	00008097          	auipc	ra,0x8
   14ff6:	d3e080e7          	jalr	-706(ra) # 1cd30 <memcpy>
   14ffa:	8526                	mv	a0,s1
   14ffc:	4601                	li	a2,0
   14ffe:	4681                	li	a3,0
   15000:	00040023          	sb	zero,0(s0)
   15004:	458d                	li	a1,3
   15006:	470d                	li	a4,3
   15008:	00000073          	ecall
   1500c:	4599                	li	a1,6
   1500e:	4711                	li	a4,4
   15010:	8526                	mv	a0,s1
   15012:	4601                	li	a2,0
   15014:	4681                	li	a3,0
   15016:	00000073          	ecall
   1501a:	50f6                	lw	ra,124(sp)
   1501c:	5466                	lw	s0,120(sp)
   1501e:	54d6                	lw	s1,116(sp)
   15020:	6109                	addi	sp,sp,128
   15022:	8082                	ret

00015024 <_ZN18complex_no_dynamic3app17h899ff863f77ffe1bE>:
   15024:	7119                	addi	sp,sp,-128
   15026:	de86                	sw	ra,124(sp)
   15028:	dca2                	sw	s0,120(sp)
   1502a:	daa6                	sw	s1,116(sp)
   1502c:	842a                	mv	s0,a0
   1502e:	850a                	mv	a0,sp
   15030:	03c00613          	li	a2,60
   15034:	00008097          	auipc	ra,0x8
   15038:	cfc080e7          	jalr	-772(ra) # 1cd30 <memcpy>
   1503c:	1868                	addi	a0,sp,60
   1503e:	03800613          	li	a2,56
   15042:	4581                	li	a1,0
   15044:	00008097          	auipc	ra,0x8
   15048:	c80080e7          	jalr	-896(ra) # 1ccc4 <memset>
   1504c:	6509                	lui	a0,0x2
   1504e:	458d                	li	a1,3
   15050:	860a                	mv	a2,sp
   15052:	03c00693          	li	a3,60
   15056:	d1950793          	addi	a5,a0,-743 # 1d19 <.Lline_table_start1+0x1aee>
   1505a:	4711                	li	a4,4
   1505c:	4489                	li	s1,2
   1505e:	853e                	mv	a0,a5
   15060:	00000073          	ecall
   15064:	02950a63          	beq	a0,s1,15098 <_ZN18complex_no_dynamic3app17h899ff863f77ffe1bE+0x74>
   15068:	458d                	li	a1,3
   1506a:	1870                	addi	a2,sp,60
   1506c:	03800693          	li	a3,56
   15070:	470d                	li	a4,3
   15072:	853e                	mv	a0,a5
   15074:	00000073          	ecall
   15078:	02950063          	beq	a0,s1,15098 <_ZN18complex_no_dynamic3app17h899ff863f77ffe1bE+0x74>
   1507c:	6509                	lui	a0,0x2
   1507e:	458d                	li	a1,3
   15080:	460d                	li	a2,3
   15082:	d1950793          	addi	a5,a0,-743 # 1d19 <.Lline_table_start1+0x1aee>
   15086:	4709                	li	a4,2
   15088:	07f00493          	li	s1,127
   1508c:	853e                	mv	a0,a5
   1508e:	4681                	li	a3,0
   15090:	00000073          	ecall
   15094:	02a4eb63          	bltu	s1,a0,150ca <_ZN18complex_no_dynamic3app17h899ff863f77ffe1bE+0xa6>
   15098:	4785                	li	a5,1
   1509a:	c3a9                	beqz	a5,150dc <_ZN18complex_no_dynamic3app17h899ff863f77ffe1bE+0xb8>
   1509c:	4601                	li	a2,0
   1509e:	4681                	li	a3,0
   150a0:	4505                	li	a0,1
   150a2:	6709                	lui	a4,0x2
   150a4:	87ae                	mv	a5,a1
   150a6:	458d                	li	a1,3
   150a8:	00a40023          	sb	a0,0(s0)
   150ac:	c05c                	sw	a5,4(s0)
   150ae:	d1970793          	addi	a5,a4,-743 # 1d19 <.Lline_table_start1+0x1aee>
   150b2:	470d                	li	a4,3
   150b4:	853e                	mv	a0,a5
   150b6:	00000073          	ecall
   150ba:	458d                	li	a1,3
   150bc:	4711                	li	a4,4
   150be:	853e                	mv	a0,a5
   150c0:	4601                	li	a2,0
   150c2:	4681                	li	a3,0
   150c4:	00000073          	ecall
   150c8:	a8a9                	j	15122 <_ZN18complex_no_dynamic3app17h899ff863f77ffe1bE+0xfe>
   150ca:	853e                	mv	a0,a5
   150cc:	4601                	li	a2,0
   150ce:	4681                	li	a3,0
   150d0:	4781                	li	a5,0
   150d2:	458d                	li	a1,3
   150d4:	470d                	li	a4,3
   150d6:	00000073          	ecall
   150da:	f3e9                	bnez	a5,1509c <_ZN18complex_no_dynamic3app17h899ff863f77ffe1bE+0x78>
   150dc:	6509                	lui	a0,0x2
   150de:	d1950493          	addi	s1,a0,-743 # 1d19 <.Lline_table_start1+0x1aee>
   150e2:	458d                	li	a1,3
   150e4:	470d                	li	a4,3
   150e6:	8526                	mv	a0,s1
   150e8:	4601                	li	a2,0
   150ea:	4681                	li	a3,0
   150ec:	00000073          	ecall
   150f0:	00140513          	addi	a0,s0,1
   150f4:	186c                	addi	a1,sp,60
   150f6:	03800613          	li	a2,56
   150fa:	00008097          	auipc	ra,0x8
   150fe:	c36080e7          	jalr	-970(ra) # 1cd30 <memcpy>
   15102:	8526                	mv	a0,s1
   15104:	4601                	li	a2,0
   15106:	4681                	li	a3,0
   15108:	00040023          	sb	zero,0(s0)
   1510c:	458d                	li	a1,3
   1510e:	470d                	li	a4,3
   15110:	00000073          	ecall
   15114:	458d                	li	a1,3
   15116:	4711                	li	a4,4
   15118:	8526                	mv	a0,s1
   1511a:	4601                	li	a2,0
   1511c:	4681                	li	a3,0
   1511e:	00000073          	ecall
   15122:	50f6                	lw	ra,124(sp)
   15124:	5466                	lw	s0,120(sp)
   15126:	54d6                	lw	s1,116(sp)
   15128:	6109                	addi	sp,sp,128
   1512a:	8082                	ret

0001512c <_ZN18complex_no_dynamic3app17h8a41dfa4db623ea5E>:
   1512c:	715d                	addi	sp,sp,-80
   1512e:	c686                	sw	ra,76(sp)
   15130:	c4a2                	sw	s0,72(sp)
   15132:	c2a6                	sw	s1,68(sp)
   15134:	842a                	mv	s0,a0
   15136:	00910513          	addi	a0,sp,9
   1513a:	02700613          	li	a2,39
   1513e:	00008097          	auipc	ra,0x8
   15142:	bf2080e7          	jalr	-1038(ra) # 1cd30 <memcpy>
   15146:	c082                	sw	zero,64(sp)
   15148:	d802                	sw	zero,48(sp)
   1514a:	da02                	sw	zero,52(sp)
   1514c:	dc02                	sw	zero,56(sp)
   1514e:	de02                	sw	zero,60(sp)
   15150:	6509                	lui	a0,0x2
   15152:	4599                	li	a1,6
   15154:	00910613          	addi	a2,sp,9
   15158:	02700693          	li	a3,39
   1515c:	2c950793          	addi	a5,a0,713 # 22c9 <.Lline_table_start1+0x209e>
   15160:	4711                	li	a4,4
   15162:	4489                	li	s1,2
   15164:	853e                	mv	a0,a5
   15166:	00000073          	ecall
   1516a:	02950963          	beq	a0,s1,1519c <_ZN18complex_no_dynamic3app17h8a41dfa4db623ea5E+0x70>
   1516e:	4595                	li	a1,5
   15170:	1810                	addi	a2,sp,48
   15172:	46d1                	li	a3,20
   15174:	470d                	li	a4,3
   15176:	853e                	mv	a0,a5
   15178:	00000073          	ecall
   1517c:	02950063          	beq	a0,s1,1519c <_ZN18complex_no_dynamic3app17h8a41dfa4db623ea5E+0x70>
   15180:	6509                	lui	a0,0x2
   15182:	4599                	li	a1,6
   15184:	4615                	li	a2,5
   15186:	2c950793          	addi	a5,a0,713 # 22c9 <.Lline_table_start1+0x209e>
   1518a:	4709                	li	a4,2
   1518c:	07f00493          	li	s1,127
   15190:	853e                	mv	a0,a5
   15192:	4681                	li	a3,0
   15194:	00000073          	ecall
   15198:	02a4eb63          	bltu	s1,a0,151ce <_ZN18complex_no_dynamic3app17h8a41dfa4db623ea5E+0xa2>
   1519c:	4785                	li	a5,1
   1519e:	c3a9                	beqz	a5,151e0 <_ZN18complex_no_dynamic3app17h8a41dfa4db623ea5E+0xb4>
   151a0:	4601                	li	a2,0
   151a2:	4681                	li	a3,0
   151a4:	4505                	li	a0,1
   151a6:	6709                	lui	a4,0x2
   151a8:	87ae                	mv	a5,a1
   151aa:	4595                	li	a1,5
   151ac:	00a40023          	sb	a0,0(s0)
   151b0:	c05c                	sw	a5,4(s0)
   151b2:	2c970793          	addi	a5,a4,713 # 22c9 <.Lline_table_start1+0x209e>
   151b6:	470d                	li	a4,3
   151b8:	853e                	mv	a0,a5
   151ba:	00000073          	ecall
   151be:	4599                	li	a1,6
   151c0:	4711                	li	a4,4
   151c2:	853e                	mv	a0,a5
   151c4:	4601                	li	a2,0
   151c6:	4681                	li	a3,0
   151c8:	00000073          	ecall
   151cc:	a8a1                	j	15224 <_ZN18complex_no_dynamic3app17h8a41dfa4db623ea5E+0xf8>
   151ce:	853e                	mv	a0,a5
   151d0:	4601                	li	a2,0
   151d2:	4681                	li	a3,0
   151d4:	4781                	li	a5,0
   151d6:	4595                	li	a1,5
   151d8:	470d                	li	a4,3
   151da:	00000073          	ecall
   151de:	f3e9                	bnez	a5,151a0 <_ZN18complex_no_dynamic3app17h8a41dfa4db623ea5E+0x74>
   151e0:	6509                	lui	a0,0x2
   151e2:	2c950493          	addi	s1,a0,713 # 22c9 <.Lline_table_start1+0x209e>
   151e6:	4595                	li	a1,5
   151e8:	470d                	li	a4,3
   151ea:	8526                	mv	a0,s1
   151ec:	4601                	li	a2,0
   151ee:	4681                	li	a3,0
   151f0:	00000073          	ecall
   151f4:	00140513          	addi	a0,s0,1
   151f8:	180c                	addi	a1,sp,48
   151fa:	4651                	li	a2,20
   151fc:	00008097          	auipc	ra,0x8
   15200:	b34080e7          	jalr	-1228(ra) # 1cd30 <memcpy>
   15204:	8526                	mv	a0,s1
   15206:	4601                	li	a2,0
   15208:	4681                	li	a3,0
   1520a:	00040023          	sb	zero,0(s0)
   1520e:	4595                	li	a1,5
   15210:	470d                	li	a4,3
   15212:	00000073          	ecall
   15216:	4599                	li	a1,6
   15218:	4711                	li	a4,4
   1521a:	8526                	mv	a0,s1
   1521c:	4601                	li	a2,0
   1521e:	4681                	li	a3,0
   15220:	00000073          	ecall
   15224:	40b6                	lw	ra,76(sp)
   15226:	4426                	lw	s0,72(sp)
   15228:	4496                	lw	s1,68(sp)
   1522a:	6161                	addi	sp,sp,80
   1522c:	8082                	ret

0001522e <_ZN18complex_no_dynamic3app17h8aa5a0db16d7e5a9E>:
   1522e:	7175                	addi	sp,sp,-144
   15230:	c706                	sw	ra,140(sp)
   15232:	c522                	sw	s0,136(sp)
   15234:	c326                	sw	s1,132(sp)
   15236:	842a                	mv	s0,a0
   15238:	0048                	addi	a0,sp,4
   1523a:	02d00613          	li	a2,45
   1523e:	00008097          	auipc	ra,0x8
   15242:	af2080e7          	jalr	-1294(ra) # 1cd30 <memcpy>
   15246:	03110513          	addi	a0,sp,49
   1524a:	05300613          	li	a2,83
   1524e:	4581                	li	a1,0
   15250:	00008097          	auipc	ra,0x8
   15254:	a74080e7          	jalr	-1420(ra) # 1ccc4 <memset>
   15258:	6505                	lui	a0,0x1
   1525a:	4489                	li	s1,2
   1525c:	4589                	li	a1,2
   1525e:	0050                	addi	a2,sp,4
   15260:	ec350793          	addi	a5,a0,-317 # ec3 <.Lline_table_start1+0xc98>
   15264:	02d00693          	li	a3,45
   15268:	4711                	li	a4,4
   1526a:	853e                	mv	a0,a5
   1526c:	00000073          	ecall
   15270:	02950b63          	beq	a0,s1,152a6 <_ZN18complex_no_dynamic3app17h8aa5a0db16d7e5a9E+0x78>
   15274:	459d                	li	a1,7
   15276:	03110613          	addi	a2,sp,49
   1527a:	05300693          	li	a3,83
   1527e:	470d                	li	a4,3
   15280:	853e                	mv	a0,a5
   15282:	00000073          	ecall
   15286:	02950063          	beq	a0,s1,152a6 <_ZN18complex_no_dynamic3app17h8aa5a0db16d7e5a9E+0x78>
   1528a:	6505                	lui	a0,0x1
   1528c:	4589                	li	a1,2
   1528e:	461d                	li	a2,7
   15290:	ec350793          	addi	a5,a0,-317 # ec3 <.Lline_table_start1+0xc98>
   15294:	4709                	li	a4,2
   15296:	07f00493          	li	s1,127
   1529a:	853e                	mv	a0,a5
   1529c:	4681                	li	a3,0
   1529e:	00000073          	ecall
   152a2:	02a4eb63          	bltu	s1,a0,152d8 <_ZN18complex_no_dynamic3app17h8aa5a0db16d7e5a9E+0xaa>
   152a6:	4785                	li	a5,1
   152a8:	c3a9                	beqz	a5,152ea <_ZN18complex_no_dynamic3app17h8aa5a0db16d7e5a9E+0xbc>
   152aa:	4601                	li	a2,0
   152ac:	4681                	li	a3,0
   152ae:	4505                	li	a0,1
   152b0:	6705                	lui	a4,0x1
   152b2:	87ae                	mv	a5,a1
   152b4:	459d                	li	a1,7
   152b6:	00a40023          	sb	a0,0(s0)
   152ba:	c05c                	sw	a5,4(s0)
   152bc:	ec370793          	addi	a5,a4,-317 # ec3 <.Lline_table_start1+0xc98>
   152c0:	470d                	li	a4,3
   152c2:	853e                	mv	a0,a5
   152c4:	00000073          	ecall
   152c8:	4589                	li	a1,2
   152ca:	4711                	li	a4,4
   152cc:	853e                	mv	a0,a5
   152ce:	4601                	li	a2,0
   152d0:	4681                	li	a3,0
   152d2:	00000073          	ecall
   152d6:	a8b1                	j	15332 <_ZN18complex_no_dynamic3app17h8aa5a0db16d7e5a9E+0x104>
   152d8:	853e                	mv	a0,a5
   152da:	4601                	li	a2,0
   152dc:	4681                	li	a3,0
   152de:	4781                	li	a5,0
   152e0:	459d                	li	a1,7
   152e2:	470d                	li	a4,3
   152e4:	00000073          	ecall
   152e8:	f3e9                	bnez	a5,152aa <_ZN18complex_no_dynamic3app17h8aa5a0db16d7e5a9E+0x7c>
   152ea:	6505                	lui	a0,0x1
   152ec:	ec350493          	addi	s1,a0,-317 # ec3 <.Lline_table_start1+0xc98>
   152f0:	459d                	li	a1,7
   152f2:	470d                	li	a4,3
   152f4:	8526                	mv	a0,s1
   152f6:	4601                	li	a2,0
   152f8:	4681                	li	a3,0
   152fa:	00000073          	ecall
   152fe:	00140513          	addi	a0,s0,1
   15302:	03110593          	addi	a1,sp,49
   15306:	05300613          	li	a2,83
   1530a:	00008097          	auipc	ra,0x8
   1530e:	a26080e7          	jalr	-1498(ra) # 1cd30 <memcpy>
   15312:	8526                	mv	a0,s1
   15314:	4601                	li	a2,0
   15316:	4681                	li	a3,0
   15318:	00040023          	sb	zero,0(s0)
   1531c:	459d                	li	a1,7
   1531e:	470d                	li	a4,3
   15320:	00000073          	ecall
   15324:	4589                	li	a1,2
   15326:	4711                	li	a4,4
   15328:	8526                	mv	a0,s1
   1532a:	4601                	li	a2,0
   1532c:	4681                	li	a3,0
   1532e:	00000073          	ecall
   15332:	40ba                	lw	ra,140(sp)
   15334:	442a                	lw	s0,136(sp)
   15336:	449a                	lw	s1,132(sp)
   15338:	6149                	addi	sp,sp,144
   1533a:	8082                	ret

0001533c <_ZN18complex_no_dynamic3app17h8efd38cf693b0d8bE>:
   1533c:	7119                	addi	sp,sp,-128
   1533e:	de86                	sw	ra,124(sp)
   15340:	dca2                	sw	s0,120(sp)
   15342:	842a                	mv	s0,a0
   15344:	0068                	addi	a0,sp,12
   15346:	03800613          	li	a2,56
   1534a:	00008097          	auipc	ra,0x8
   1534e:	9e6080e7          	jalr	-1562(ra) # 1cd30 <memcpy>
   15352:	00c8                	addi	a0,sp,68
   15354:	03400613          	li	a2,52
   15358:	4581                	li	a1,0
   1535a:	00008097          	auipc	ra,0x8
   1535e:	96a080e7          	jalr	-1686(ra) # 1ccc4 <memset>
   15362:	12e00513          	li	a0,302
   15366:	45a1                	li	a1,8
   15368:	0070                	addi	a2,sp,12
   1536a:	03800693          	li	a3,56
   1536e:	4711                	li	a4,4
   15370:	4789                	li	a5,2
   15372:	00000073          	ecall
   15376:	02f50963          	beq	a0,a5,153a8 <_ZN18complex_no_dynamic3app17h8efd38cf693b0d8bE+0x6c>
   1537a:	12e00513          	li	a0,302
   1537e:	458d                	li	a1,3
   15380:	00d0                	addi	a2,sp,68
   15382:	03400693          	li	a3,52
   15386:	470d                	li	a4,3
   15388:	00000073          	ecall
   1538c:	00f50e63          	beq	a0,a5,153a8 <_ZN18complex_no_dynamic3app17h8efd38cf693b0d8bE+0x6c>
   15390:	12e00513          	li	a0,302
   15394:	45a1                	li	a1,8
   15396:	460d                	li	a2,3
   15398:	4709                	li	a4,2
   1539a:	07f00793          	li	a5,127
   1539e:	4681                	li	a3,0
   153a0:	00000073          	ecall
   153a4:	02a7e963          	bltu	a5,a0,153d6 <_ZN18complex_no_dynamic3app17h8efd38cf693b0d8bE+0x9a>
   153a8:	4785                	li	a5,1
   153aa:	c3a1                	beqz	a5,153ea <_ZN18complex_no_dynamic3app17h8efd38cf693b0d8bE+0xae>
   153ac:	4601                	li	a2,0
   153ae:	4681                	li	a3,0
   153b0:	4705                	li	a4,1
   153b2:	12e00513          	li	a0,302
   153b6:	00e40023          	sb	a4,0(s0)
   153ba:	c04c                	sw	a1,4(s0)
   153bc:	458d                	li	a1,3
   153be:	470d                	li	a4,3
   153c0:	00000073          	ecall
   153c4:	12e00513          	li	a0,302
   153c8:	45a1                	li	a1,8
   153ca:	4711                	li	a4,4
   153cc:	4601                	li	a2,0
   153ce:	4681                	li	a3,0
   153d0:	00000073          	ecall
   153d4:	a8b1                	j	15430 <_ZN18complex_no_dynamic3app17h8efd38cf693b0d8bE+0xf4>
   153d6:	4601                	li	a2,0
   153d8:	4681                	li	a3,0
   153da:	4781                	li	a5,0
   153dc:	12e00513          	li	a0,302
   153e0:	458d                	li	a1,3
   153e2:	470d                	li	a4,3
   153e4:	00000073          	ecall
   153e8:	f3f1                	bnez	a5,153ac <_ZN18complex_no_dynamic3app17h8efd38cf693b0d8bE+0x70>
   153ea:	12e00513          	li	a0,302
   153ee:	458d                	li	a1,3
   153f0:	470d                	li	a4,3
   153f2:	4601                	li	a2,0
   153f4:	4681                	li	a3,0
   153f6:	00000073          	ecall
   153fa:	00140513          	addi	a0,s0,1
   153fe:	00cc                	addi	a1,sp,68
   15400:	03400613          	li	a2,52
   15404:	00008097          	auipc	ra,0x8
   15408:	92c080e7          	jalr	-1748(ra) # 1cd30 <memcpy>
   1540c:	4601                	li	a2,0
   1540e:	4681                	li	a3,0
   15410:	00040023          	sb	zero,0(s0)
   15414:	12e00513          	li	a0,302
   15418:	458d                	li	a1,3
   1541a:	470d                	li	a4,3
   1541c:	00000073          	ecall
   15420:	12e00513          	li	a0,302
   15424:	45a1                	li	a1,8
   15426:	4711                	li	a4,4
   15428:	4601                	li	a2,0
   1542a:	4681                	li	a3,0
   1542c:	00000073          	ecall
   15430:	50f6                	lw	ra,124(sp)
   15432:	5466                	lw	s0,120(sp)
   15434:	6109                	addi	sp,sp,128
   15436:	8082                	ret

00015438 <_ZN18complex_no_dynamic3app17h92d4f3aabea34978E>:
   15438:	711d                	addi	sp,sp,-96
   1543a:	ce86                	sw	ra,92(sp)
   1543c:	cca2                	sw	s0,88(sp)
   1543e:	caa6                	sw	s1,84(sp)
   15440:	c8ca                	sw	s2,80(sp)
   15442:	c6ce                	sw	s3,76(sp)
   15444:	c4d2                	sw	s4,72(sp)
   15446:	892a                	mv	s2,a0
   15448:	01c5c303          	lbu	t1,28(a1)
   1544c:	01d5c603          	lbu	a2,29(a1)
   15450:	0185c683          	lbu	a3,24(a1)
   15454:	0195c703          	lbu	a4,25(a1)
   15458:	01a5c803          	lbu	a6,26(a1)
   1545c:	01b5c283          	lbu	t0,27(a1)
   15460:	0145c883          	lbu	a7,20(a1)
   15464:	0155c383          	lbu	t2,21(a1)
   15468:	0165c403          	lbu	s0,22(a1)
   1546c:	0175c483          	lbu	s1,23(a1)
   15470:	0105c503          	lbu	a0,16(a1)
   15474:	0115c783          	lbu	a5,17(a1)
   15478:	0125ce03          	lbu	t3,18(a1)
   1547c:	0135ce83          	lbu	t4,19(a1)
   15480:	0622                	slli	a2,a2,0x8
   15482:	0722                	slli	a4,a4,0x8
   15484:	00666333          	or	t1,a2,t1
   15488:	00d76f33          	or	t5,a4,a3
   1548c:	00c5cf83          	lbu	t6,12(a1)
   15490:	00d5c683          	lbu	a3,13(a1)
   15494:	00e5c703          	lbu	a4,14(a1)
   15498:	00f5c603          	lbu	a2,15(a1)
   1549c:	0842                	slli	a6,a6,0x10
   1549e:	02e2                	slli	t0,t0,0x18
   154a0:	03a2                	slli	t2,t2,0x8
   154a2:	0442                	slli	s0,s0,0x10
   154a4:	04e2                	slli	s1,s1,0x18
   154a6:	07a2                	slli	a5,a5,0x8
   154a8:	0102e2b3          	or	t0,t0,a6
   154ac:	0113e833          	or	a6,t2,a7
   154b0:	0084e8b3          	or	a7,s1,s0
   154b4:	00a7e3b3          	or	t2,a5,a0
   154b8:	0085c503          	lbu	a0,8(a1)
   154bc:	0095c783          	lbu	a5,9(a1)
   154c0:	00a5c403          	lbu	s0,10(a1)
   154c4:	00b5c483          	lbu	s1,11(a1)
   154c8:	0e42                	slli	t3,t3,0x10
   154ca:	0ee2                	slli	t4,t4,0x18
   154cc:	06a2                	slli	a3,a3,0x8
   154ce:	0742                	slli	a4,a4,0x10
   154d0:	0662                	slli	a2,a2,0x18
   154d2:	07a2                	slli	a5,a5,0x8
   154d4:	01ceee33          	or	t3,t4,t3
   154d8:	01f6eeb3          	or	t4,a3,t6
   154dc:	00e669b3          	or	s3,a2,a4
   154e0:	00a7efb3          	or	t6,a5,a0
   154e4:	0045c703          	lbu	a4,4(a1)
   154e8:	0055c783          	lbu	a5,5(a1)
   154ec:	0065c683          	lbu	a3,6(a1)
   154f0:	0075c503          	lbu	a0,7(a1)
   154f4:	0442                	slli	s0,s0,0x10
   154f6:	04e2                	slli	s1,s1,0x18
   154f8:	07a2                	slli	a5,a5,0x8
   154fa:	06c2                	slli	a3,a3,0x10
   154fc:	0562                	slli	a0,a0,0x18
   154fe:	8c45                	or	s0,s0,s1
   15500:	00e7ea33          	or	s4,a5,a4
   15504:	0005c783          	lbu	a5,0(a1)
   15508:	0015c483          	lbu	s1,1(a1)
   1550c:	8d55                	or	a0,a0,a3
   1550e:	0025c683          	lbu	a3,2(a1)
   15512:	0035c583          	lbu	a1,3(a1)
   15516:	04a2                	slli	s1,s1,0x8
   15518:	8fc5                	or	a5,a5,s1
   1551a:	06c2                	slli	a3,a3,0x10
   1551c:	05e2                	slli	a1,a1,0x18
   1551e:	8dd5                	or	a1,a1,a3
   15520:	01e2e6b3          	or	a3,t0,t5
   15524:	0108e4b3          	or	s1,a7,a6
   15528:	007e6633          	or	a2,t3,t2
   1552c:	01d9e733          	or	a4,s3,t4
   15530:	01f46433          	or	s0,s0,t6
   15534:	01456533          	or	a0,a0,s4
   15538:	8ddd                	or	a1,a1,a5
   1553a:	cc32                	sw	a2,24(sp)
   1553c:	ce26                	sw	s1,28(sp)
   1553e:	d036                	sw	a3,32(sp)
   15540:	02611223          	sh	t1,36(sp)
   15544:	c42e                	sw	a1,8(sp)
   15546:	c62a                	sw	a0,12(sp)
   15548:	c822                	sw	s0,16(sp)
   1554a:	ca3a                	sw	a4,20(sp)
   1554c:	02710513          	addi	a0,sp,39
   15550:	02100613          	li	a2,33
   15554:	4581                	li	a1,0
   15556:	00007097          	auipc	ra,0x7
   1555a:	76e080e7          	jalr	1902(ra) # 1ccc4 <memset>
   1555e:	6509                	lui	a0,0x2
   15560:	4599                	li	a1,6
   15562:	0030                	addi	a2,sp,8
   15564:	46f9                	li	a3,30
   15566:	9b550793          	addi	a5,a0,-1611 # 19b5 <.Lline_table_start1+0x178a>
   1556a:	4711                	li	a4,4
   1556c:	4489                	li	s1,2
   1556e:	853e                	mv	a0,a5
   15570:	00000073          	ecall
   15574:	02950b63          	beq	a0,s1,155aa <_ZN18complex_no_dynamic3app17h92d4f3aabea34978E+0x172>
   15578:	45a5                	li	a1,9
   1557a:	02710613          	addi	a2,sp,39
   1557e:	02100693          	li	a3,33
   15582:	470d                	li	a4,3
   15584:	853e                	mv	a0,a5
   15586:	00000073          	ecall
   1558a:	02950063          	beq	a0,s1,155aa <_ZN18complex_no_dynamic3app17h92d4f3aabea34978E+0x172>
   1558e:	6509                	lui	a0,0x2
   15590:	4599                	li	a1,6
   15592:	4625                	li	a2,9
   15594:	9b550793          	addi	a5,a0,-1611 # 19b5 <.Lline_table_start1+0x178a>
   15598:	4709                	li	a4,2
   1559a:	07f00493          	li	s1,127
   1559e:	853e                	mv	a0,a5
   155a0:	4681                	li	a3,0
   155a2:	00000073          	ecall
   155a6:	02a4ec63          	bltu	s1,a0,155de <_ZN18complex_no_dynamic3app17h92d4f3aabea34978E+0x1a6>
   155aa:	4785                	li	a5,1
   155ac:	c3b1                	beqz	a5,155f0 <_ZN18complex_no_dynamic3app17h92d4f3aabea34978E+0x1b8>
   155ae:	4601                	li	a2,0
   155b0:	4681                	li	a3,0
   155b2:	4505                	li	a0,1
   155b4:	6709                	lui	a4,0x2
   155b6:	87ae                	mv	a5,a1
   155b8:	45a5                	li	a1,9
   155ba:	00a90023          	sb	a0,0(s2)
   155be:	00f92223          	sw	a5,4(s2)
   155c2:	9b570793          	addi	a5,a4,-1611 # 19b5 <.Lline_table_start1+0x178a>
   155c6:	470d                	li	a4,3
   155c8:	853e                	mv	a0,a5
   155ca:	00000073          	ecall
   155ce:	4599                	li	a1,6
   155d0:	4711                	li	a4,4
   155d2:	853e                	mv	a0,a5
   155d4:	4601                	li	a2,0
   155d6:	4681                	li	a3,0
   155d8:	00000073          	ecall
   155dc:	a8b1                	j	15638 <_ZN18complex_no_dynamic3app17h92d4f3aabea34978E+0x200>
   155de:	853e                	mv	a0,a5
   155e0:	4601                	li	a2,0
   155e2:	4681                	li	a3,0
   155e4:	4781                	li	a5,0
   155e6:	45a5                	li	a1,9
   155e8:	470d                	li	a4,3
   155ea:	00000073          	ecall
   155ee:	f3e1                	bnez	a5,155ae <_ZN18complex_no_dynamic3app17h92d4f3aabea34978E+0x176>
   155f0:	6509                	lui	a0,0x2
   155f2:	9b550493          	addi	s1,a0,-1611 # 19b5 <.Lline_table_start1+0x178a>
   155f6:	45a5                	li	a1,9
   155f8:	470d                	li	a4,3
   155fa:	8526                	mv	a0,s1
   155fc:	4601                	li	a2,0
   155fe:	4681                	li	a3,0
   15600:	00000073          	ecall
   15604:	00190513          	addi	a0,s2,1
   15608:	02710593          	addi	a1,sp,39
   1560c:	02100613          	li	a2,33
   15610:	00007097          	auipc	ra,0x7
   15614:	720080e7          	jalr	1824(ra) # 1cd30 <memcpy>
   15618:	8526                	mv	a0,s1
   1561a:	4601                	li	a2,0
   1561c:	4681                	li	a3,0
   1561e:	00090023          	sb	zero,0(s2)
   15622:	45a5                	li	a1,9
   15624:	470d                	li	a4,3
   15626:	00000073          	ecall
   1562a:	4599                	li	a1,6
   1562c:	4711                	li	a4,4
   1562e:	8526                	mv	a0,s1
   15630:	4601                	li	a2,0
   15632:	4681                	li	a3,0
   15634:	00000073          	ecall
   15638:	40f6                	lw	ra,92(sp)
   1563a:	4466                	lw	s0,88(sp)
   1563c:	44d6                	lw	s1,84(sp)
   1563e:	4946                	lw	s2,80(sp)
   15640:	49b6                	lw	s3,76(sp)
   15642:	4a26                	lw	s4,72(sp)
   15644:	6125                	addi	sp,sp,96
   15646:	8082                	ret

00015648 <_ZN18complex_no_dynamic3app17h969caa8639c7ca7fE>:
   15648:	7171                	addi	sp,sp,-176
   1564a:	d706                	sw	ra,172(sp)
   1564c:	d522                	sw	s0,168(sp)
   1564e:	d326                	sw	s1,164(sp)
   15650:	842a                	mv	s0,a0
   15652:	00710513          	addi	a0,sp,7
   15656:	05d00613          	li	a2,93
   1565a:	00007097          	auipc	ra,0x7
   1565e:	6d6080e7          	jalr	1750(ra) # 1cd30 <memcpy>
   15662:	10c8                	addi	a0,sp,100
   15664:	04000613          	li	a2,64
   15668:	4581                	li	a1,0
   1566a:	00007097          	auipc	ra,0x7
   1566e:	65a080e7          	jalr	1626(ra) # 1ccc4 <memset>
   15672:	6505                	lui	a0,0x1
   15674:	45a1                	li	a1,8
   15676:	00710613          	addi	a2,sp,7
   1567a:	05d00693          	li	a3,93
   1567e:	02850793          	addi	a5,a0,40 # 1028 <.Lline_table_start1+0xdfd>
   15682:	4711                	li	a4,4
   15684:	4489                	li	s1,2
   15686:	853e                	mv	a0,a5
   15688:	00000073          	ecall
   1568c:	02950a63          	beq	a0,s1,156c0 <_ZN18complex_no_dynamic3app17h969caa8639c7ca7fE+0x78>
   15690:	4591                	li	a1,4
   15692:	10d0                	addi	a2,sp,100
   15694:	04000693          	li	a3,64
   15698:	470d                	li	a4,3
   1569a:	853e                	mv	a0,a5
   1569c:	00000073          	ecall
   156a0:	02950063          	beq	a0,s1,156c0 <_ZN18complex_no_dynamic3app17h969caa8639c7ca7fE+0x78>
   156a4:	6505                	lui	a0,0x1
   156a6:	45a1                	li	a1,8
   156a8:	4611                	li	a2,4
   156aa:	02850793          	addi	a5,a0,40 # 1028 <.Lline_table_start1+0xdfd>
   156ae:	4709                	li	a4,2
   156b0:	07f00493          	li	s1,127
   156b4:	853e                	mv	a0,a5
   156b6:	4681                	li	a3,0
   156b8:	00000073          	ecall
   156bc:	02a4eb63          	bltu	s1,a0,156f2 <_ZN18complex_no_dynamic3app17h969caa8639c7ca7fE+0xaa>
   156c0:	4785                	li	a5,1
   156c2:	c3a9                	beqz	a5,15704 <_ZN18complex_no_dynamic3app17h969caa8639c7ca7fE+0xbc>
   156c4:	4601                	li	a2,0
   156c6:	4681                	li	a3,0
   156c8:	4505                	li	a0,1
   156ca:	6705                	lui	a4,0x1
   156cc:	87ae                	mv	a5,a1
   156ce:	4591                	li	a1,4
   156d0:	00a40023          	sb	a0,0(s0)
   156d4:	c05c                	sw	a5,4(s0)
   156d6:	02870793          	addi	a5,a4,40 # 1028 <.Lline_table_start1+0xdfd>
   156da:	470d                	li	a4,3
   156dc:	853e                	mv	a0,a5
   156de:	00000073          	ecall
   156e2:	45a1                	li	a1,8
   156e4:	4711                	li	a4,4
   156e6:	853e                	mv	a0,a5
   156e8:	4601                	li	a2,0
   156ea:	4681                	li	a3,0
   156ec:	00000073          	ecall
   156f0:	a8a9                	j	1574a <_ZN18complex_no_dynamic3app17h969caa8639c7ca7fE+0x102>
   156f2:	853e                	mv	a0,a5
   156f4:	4601                	li	a2,0
   156f6:	4681                	li	a3,0
   156f8:	4781                	li	a5,0
   156fa:	4591                	li	a1,4
   156fc:	470d                	li	a4,3
   156fe:	00000073          	ecall
   15702:	f3e9                	bnez	a5,156c4 <_ZN18complex_no_dynamic3app17h969caa8639c7ca7fE+0x7c>
   15704:	6505                	lui	a0,0x1
   15706:	02850493          	addi	s1,a0,40 # 1028 <.Lline_table_start1+0xdfd>
   1570a:	4591                	li	a1,4
   1570c:	470d                	li	a4,3
   1570e:	8526                	mv	a0,s1
   15710:	4601                	li	a2,0
   15712:	4681                	li	a3,0
   15714:	00000073          	ecall
   15718:	00140513          	addi	a0,s0,1
   1571c:	10cc                	addi	a1,sp,100
   1571e:	04000613          	li	a2,64
   15722:	00007097          	auipc	ra,0x7
   15726:	60e080e7          	jalr	1550(ra) # 1cd30 <memcpy>
   1572a:	8526                	mv	a0,s1
   1572c:	4601                	li	a2,0
   1572e:	4681                	li	a3,0
   15730:	00040023          	sb	zero,0(s0)
   15734:	4591                	li	a1,4
   15736:	470d                	li	a4,3
   15738:	00000073          	ecall
   1573c:	45a1                	li	a1,8
   1573e:	4711                	li	a4,4
   15740:	8526                	mv	a0,s1
   15742:	4601                	li	a2,0
   15744:	4681                	li	a3,0
   15746:	00000073          	ecall
   1574a:	50ba                	lw	ra,172(sp)
   1574c:	542a                	lw	s0,168(sp)
   1574e:	549a                	lw	s1,164(sp)
   15750:	614d                	addi	sp,sp,176
   15752:	8082                	ret

00015754 <_ZN18complex_no_dynamic3app17h9740be2991ca01a4E>:
   15754:	7159                	addi	sp,sp,-112
   15756:	d686                	sw	ra,108(sp)
   15758:	d4a2                	sw	s0,104(sp)
   1575a:	d2a6                	sw	s1,100(sp)
   1575c:	d0ca                	sw	s2,96(sp)
   1575e:	892a                	mv	s2,a0
   15760:	0185c883          	lbu	a7,24(a1)
   15764:	0195c303          	lbu	t1,25(a1)
   15768:	01a5c803          	lbu	a6,26(a1)
   1576c:	0145c283          	lbu	t0,20(a1)
   15770:	0155cf03          	lbu	t5,21(a1)
   15774:	0165c403          	lbu	s0,22(a1)
   15778:	0175c483          	lbu	s1,23(a1)
   1577c:	0105c703          	lbu	a4,16(a1)
   15780:	0115c603          	lbu	a2,17(a1)
   15784:	0125ce03          	lbu	t3,18(a1)
   15788:	0135ce83          	lbu	t4,19(a1)
   1578c:	00c5c383          	lbu	t2,12(a1)
   15790:	00d5cf83          	lbu	t6,13(a1)
   15794:	00e5c683          	lbu	a3,14(a1)
   15798:	00f5c783          	lbu	a5,15(a1)
   1579c:	0322                	slli	t1,t1,0x8
   1579e:	0f22                	slli	t5,t5,0x8
   157a0:	0442                	slli	s0,s0,0x10
   157a2:	04e2                	slli	s1,s1,0x18
   157a4:	00861513          	slli	a0,a2,0x8
   157a8:	011368b3          	or	a7,t1,a7
   157ac:	005f62b3          	or	t0,t5,t0
   157b0:	0084ef33          	or	t5,s1,s0
   157b4:	00e56333          	or	t1,a0,a4
   157b8:	0085c703          	lbu	a4,8(a1)
   157bc:	0095c403          	lbu	s0,9(a1)
   157c0:	00a5c603          	lbu	a2,10(a1)
   157c4:	00b5c503          	lbu	a0,11(a1)
   157c8:	0e42                	slli	t3,t3,0x10
   157ca:	0ee2                	slli	t4,t4,0x18
   157cc:	0fa2                	slli	t6,t6,0x8
   157ce:	06c2                	slli	a3,a3,0x10
   157d0:	07e2                	slli	a5,a5,0x18
   157d2:	0422                	slli	s0,s0,0x8
   157d4:	01ceee33          	or	t3,t4,t3
   157d8:	007fe3b3          	or	t2,t6,t2
   157dc:	00d7eeb3          	or	t4,a5,a3
   157e0:	00e46fb3          	or	t6,s0,a4
   157e4:	0045c783          	lbu	a5,4(a1)
   157e8:	0055c403          	lbu	s0,5(a1)
   157ec:	0065c483          	lbu	s1,6(a1)
   157f0:	0075c683          	lbu	a3,7(a1)
   157f4:	0642                	slli	a2,a2,0x10
   157f6:	0562                	slli	a0,a0,0x18
   157f8:	0422                	slli	s0,s0,0x8
   157fa:	04c2                	slli	s1,s1,0x10
   157fc:	06e2                	slli	a3,a3,0x18
   157fe:	8d51                	or	a0,a0,a2
   15800:	8fc1                	or	a5,a5,s0
   15802:	0005c603          	lbu	a2,0(a1)
   15806:	0015c403          	lbu	s0,1(a1)
   1580a:	8ec5                	or	a3,a3,s1
   1580c:	0025c483          	lbu	s1,2(a1)
   15810:	0035c583          	lbu	a1,3(a1)
   15814:	0422                	slli	s0,s0,0x8
   15816:	8e41                	or	a2,a2,s0
   15818:	04c2                	slli	s1,s1,0x10
   1581a:	05e2                	slli	a1,a1,0x18
   1581c:	8dc5                	or	a1,a1,s1
   1581e:	005f64b3          	or	s1,t5,t0
   15822:	006e6433          	or	s0,t3,t1
   15826:	007ee733          	or	a4,t4,t2
   1582a:	01f56533          	or	a0,a0,t6
   1582e:	8edd                	or	a3,a3,a5
   15830:	8dd1                	or	a1,a1,a2
   15832:	ca22                	sw	s0,20(sp)
   15834:	cc26                	sw	s1,24(sp)
   15836:	01111e23          	sh	a7,28(sp)
   1583a:	01010f23          	sb	a6,30(sp)
   1583e:	c22e                	sw	a1,4(sp)
   15840:	c436                	sw	a3,8(sp)
   15842:	c62a                	sw	a0,12(sp)
   15844:	c83a                	sw	a4,16(sp)
   15846:	01f10513          	addi	a0,sp,31
   1584a:	04100613          	li	a2,65
   1584e:	4581                	li	a1,0
   15850:	00007097          	auipc	ra,0x7
   15854:	474080e7          	jalr	1140(ra) # 1ccc4 <memset>
   15858:	14000513          	li	a0,320
   1585c:	45a1                	li	a1,8
   1585e:	0050                	addi	a2,sp,4
   15860:	46ed                	li	a3,27
   15862:	4711                	li	a4,4
   15864:	4789                	li	a5,2
   15866:	00000073          	ecall
   1586a:	02f50a63          	beq	a0,a5,1589e <_ZN18complex_no_dynamic3app17h9740be2991ca01a4E+0x14a>
   1586e:	14000513          	li	a0,320
   15872:	45a5                	li	a1,9
   15874:	01f10613          	addi	a2,sp,31
   15878:	04100693          	li	a3,65
   1587c:	470d                	li	a4,3
   1587e:	00000073          	ecall
   15882:	00f50e63          	beq	a0,a5,1589e <_ZN18complex_no_dynamic3app17h9740be2991ca01a4E+0x14a>
   15886:	14000513          	li	a0,320
   1588a:	45a1                	li	a1,8
   1588c:	4625                	li	a2,9
   1588e:	4709                	li	a4,2
   15890:	07f00793          	li	a5,127
   15894:	4681                	li	a3,0
   15896:	00000073          	ecall
   1589a:	02a7ea63          	bltu	a5,a0,158ce <_ZN18complex_no_dynamic3app17h9740be2991ca01a4E+0x17a>
   1589e:	4785                	li	a5,1
   158a0:	c3a9                	beqz	a5,158e2 <_ZN18complex_no_dynamic3app17h9740be2991ca01a4E+0x18e>
   158a2:	4601                	li	a2,0
   158a4:	4681                	li	a3,0
   158a6:	4705                	li	a4,1
   158a8:	14000513          	li	a0,320
   158ac:	00e90023          	sb	a4,0(s2)
   158b0:	00b92223          	sw	a1,4(s2)
   158b4:	45a5                	li	a1,9
   158b6:	470d                	li	a4,3
   158b8:	00000073          	ecall
   158bc:	14000513          	li	a0,320
   158c0:	45a1                	li	a1,8
   158c2:	4711                	li	a4,4
   158c4:	4601                	li	a2,0
   158c6:	4681                	li	a3,0
   158c8:	00000073          	ecall
   158cc:	a8b9                	j	1592a <_ZN18complex_no_dynamic3app17h9740be2991ca01a4E+0x1d6>
   158ce:	4601                	li	a2,0
   158d0:	4681                	li	a3,0
   158d2:	4781                	li	a5,0
   158d4:	14000513          	li	a0,320
   158d8:	45a5                	li	a1,9
   158da:	470d                	li	a4,3
   158dc:	00000073          	ecall
   158e0:	f3e9                	bnez	a5,158a2 <_ZN18complex_no_dynamic3app17h9740be2991ca01a4E+0x14e>
   158e2:	14000513          	li	a0,320
   158e6:	45a5                	li	a1,9
   158e8:	470d                	li	a4,3
   158ea:	4601                	li	a2,0
   158ec:	4681                	li	a3,0
   158ee:	00000073          	ecall
   158f2:	00190513          	addi	a0,s2,1
   158f6:	01f10593          	addi	a1,sp,31
   158fa:	04100613          	li	a2,65
   158fe:	00007097          	auipc	ra,0x7
   15902:	432080e7          	jalr	1074(ra) # 1cd30 <memcpy>
   15906:	4601                	li	a2,0
   15908:	4681                	li	a3,0
   1590a:	00090023          	sb	zero,0(s2)
   1590e:	14000513          	li	a0,320
   15912:	45a5                	li	a1,9
   15914:	470d                	li	a4,3
   15916:	00000073          	ecall
   1591a:	14000513          	li	a0,320
   1591e:	45a1                	li	a1,8
   15920:	4711                	li	a4,4
   15922:	4601                	li	a2,0
   15924:	4681                	li	a3,0
   15926:	00000073          	ecall
   1592a:	50b6                	lw	ra,108(sp)
   1592c:	5426                	lw	s0,104(sp)
   1592e:	5496                	lw	s1,100(sp)
   15930:	5906                	lw	s2,96(sp)
   15932:	6165                	addi	sp,sp,112
   15934:	8082                	ret

00015936 <_ZN18complex_no_dynamic3app17h97a7296478d8871dE>:
   15936:	7175                	addi	sp,sp,-144
   15938:	c706                	sw	ra,140(sp)
   1593a:	c522                	sw	s0,136(sp)
   1593c:	842a                	mv	s0,a0
   1593e:	00710513          	addi	a0,sp,7
   15942:	06100613          	li	a2,97
   15946:	00007097          	auipc	ra,0x7
   1594a:	3ea080e7          	jalr	1002(ra) # 1cd30 <memcpy>
   1594e:	dc82                	sw	zero,120(sp)
   15950:	de82                	sw	zero,124(sp)
   15952:	c102                	sw	zero,128(sp)
   15954:	08011223          	sh	zero,132(sp)
   15958:	d482                	sw	zero,104(sp)
   1595a:	d682                	sw	zero,108(sp)
   1595c:	d882                	sw	zero,112(sp)
   1595e:	da82                	sw	zero,116(sp)
   15960:	18800513          	li	a0,392
   15964:	4591                	li	a1,4
   15966:	00710613          	addi	a2,sp,7
   1596a:	06100693          	li	a3,97
   1596e:	4711                	li	a4,4
   15970:	4789                	li	a5,2
   15972:	00000073          	ecall
   15976:	02f50863          	beq	a0,a5,159a6 <_ZN18complex_no_dynamic3app17h97a7296478d8871dE+0x70>
   1597a:	18800513          	li	a0,392
   1597e:	4599                	li	a1,6
   15980:	10b0                	addi	a2,sp,104
   15982:	46f9                	li	a3,30
   15984:	470d                	li	a4,3
   15986:	00000073          	ecall
   1598a:	00f50e63          	beq	a0,a5,159a6 <_ZN18complex_no_dynamic3app17h97a7296478d8871dE+0x70>
   1598e:	18800513          	li	a0,392
   15992:	4591                	li	a1,4
   15994:	4619                	li	a2,6
   15996:	4709                	li	a4,2
   15998:	07f00793          	li	a5,127
   1599c:	4681                	li	a3,0
   1599e:	00000073          	ecall
   159a2:	02a7e963          	bltu	a5,a0,159d4 <_ZN18complex_no_dynamic3app17h97a7296478d8871dE+0x9e>
   159a6:	4785                	li	a5,1
   159a8:	c3a1                	beqz	a5,159e8 <_ZN18complex_no_dynamic3app17h97a7296478d8871dE+0xb2>
   159aa:	4601                	li	a2,0
   159ac:	4681                	li	a3,0
   159ae:	4705                	li	a4,1
   159b0:	18800513          	li	a0,392
   159b4:	00e40023          	sb	a4,0(s0)
   159b8:	c04c                	sw	a1,4(s0)
   159ba:	4599                	li	a1,6
   159bc:	470d                	li	a4,3
   159be:	00000073          	ecall
   159c2:	18800513          	li	a0,392
   159c6:	4591                	li	a1,4
   159c8:	4711                	li	a4,4
   159ca:	4601                	li	a2,0
   159cc:	4681                	li	a3,0
   159ce:	00000073          	ecall
   159d2:	a8a9                	j	15a2c <_ZN18complex_no_dynamic3app17h97a7296478d8871dE+0xf6>
   159d4:	4601                	li	a2,0
   159d6:	4681                	li	a3,0
   159d8:	4781                	li	a5,0
   159da:	18800513          	li	a0,392
   159de:	4599                	li	a1,6
   159e0:	470d                	li	a4,3
   159e2:	00000073          	ecall
   159e6:	f3f1                	bnez	a5,159aa <_ZN18complex_no_dynamic3app17h97a7296478d8871dE+0x74>
   159e8:	18800513          	li	a0,392
   159ec:	4599                	li	a1,6
   159ee:	470d                	li	a4,3
   159f0:	4601                	li	a2,0
   159f2:	4681                	li	a3,0
   159f4:	00000073          	ecall
   159f8:	00140513          	addi	a0,s0,1
   159fc:	10ac                	addi	a1,sp,104
   159fe:	4679                	li	a2,30
   15a00:	00007097          	auipc	ra,0x7
   15a04:	330080e7          	jalr	816(ra) # 1cd30 <memcpy>
   15a08:	4601                	li	a2,0
   15a0a:	4681                	li	a3,0
   15a0c:	00040023          	sb	zero,0(s0)
   15a10:	18800513          	li	a0,392
   15a14:	4599                	li	a1,6
   15a16:	470d                	li	a4,3
   15a18:	00000073          	ecall
   15a1c:	18800513          	li	a0,392
   15a20:	4591                	li	a1,4
   15a22:	4711                	li	a4,4
   15a24:	4601                	li	a2,0
   15a26:	4681                	li	a3,0
   15a28:	00000073          	ecall
   15a2c:	40ba                	lw	ra,140(sp)
   15a2e:	442a                	lw	s0,136(sp)
   15a30:	6149                	addi	sp,sp,144
   15a32:	8082                	ret

00015a34 <_ZN18complex_no_dynamic3app17h981c596f56e3c367E>:
   15a34:	7119                	addi	sp,sp,-128
   15a36:	de86                	sw	ra,124(sp)
   15a38:	dca2                	sw	s0,120(sp)
   15a3a:	daa6                	sw	s1,116(sp)
   15a3c:	d8ca                	sw	s2,112(sp)
   15a3e:	892a                	mv	s2,a0
   15a40:	00d10513          	addi	a0,sp,13
   15a44:	04100613          	li	a2,65
   15a48:	00007097          	auipc	ra,0x7
   15a4c:	2e8080e7          	jalr	744(ra) # 1cd30 <memcpy>
   15a50:	04e10513          	addi	a0,sp,78
   15a54:	02200613          	li	a2,34
   15a58:	4581                	li	a1,0
   15a5a:	00007097          	auipc	ra,0x7
   15a5e:	26a080e7          	jalr	618(ra) # 1ccc4 <memset>
   15a62:	6509                	lui	a0,0x2
   15a64:	4585                	li	a1,1
   15a66:	00d10613          	addi	a2,sp,13
   15a6a:	04100693          	li	a3,65
   15a6e:	4711                	li	a4,4
   15a70:	47c50793          	addi	a5,a0,1148 # 247c <.Lline_table_start1+0x2251>
   15a74:	4409                	li	s0,2
   15a76:	853e                	mv	a0,a5
   15a78:	00000073          	ecall
   15a7c:	4485                	li	s1,1
   15a7e:	04850663          	beq	a0,s0,15aca <_ZN18complex_no_dynamic3app17h981c596f56e3c367E+0x96>
   15a82:	04e10613          	addi	a2,sp,78
   15a86:	02200693          	li	a3,34
   15a8a:	470d                	li	a4,3
   15a8c:	853e                	mv	a0,a5
   15a8e:	4581                	li	a1,0
   15a90:	00000073          	ecall
   15a94:	00851463          	bne	a0,s0,15a9c <_ZN18complex_no_dynamic3app17h981c596f56e3c367E+0x68>
   15a98:	4485                	li	s1,1
   15a9a:	a805                	j	15aca <_ZN18complex_no_dynamic3app17h981c596f56e3c367E+0x96>
   15a9c:	4601                	li	a2,0
   15a9e:	4681                	li	a3,0
   15aa0:	6509                	lui	a0,0x2
   15aa2:	4585                	li	a1,1
   15aa4:	4709                	li	a4,2
   15aa6:	47c50793          	addi	a5,a0,1148 # 247c <.Lline_table_start1+0x2251>
   15aaa:	07f00413          	li	s0,127
   15aae:	853e                	mv	a0,a5
   15ab0:	00000073          	ecall
   15ab4:	4485                	li	s1,1
   15ab6:	00a47a63          	bgeu	s0,a0,15aca <_ZN18complex_no_dynamic3app17h981c596f56e3c367E+0x96>
   15aba:	853e                	mv	a0,a5
   15abc:	4581                	li	a1,0
   15abe:	4601                	li	a2,0
   15ac0:	4681                	li	a3,0
   15ac2:	4481                	li	s1,0
   15ac4:	470d                	li	a4,3
   15ac6:	00000073          	ecall
   15aca:	c88d                	beqz	s1,15afc <_ZN18complex_no_dynamic3app17h981c596f56e3c367E+0xc8>
   15acc:	852e                	mv	a0,a1
   15ace:	4581                	li	a1,0
   15ad0:	4601                	li	a2,0
   15ad2:	4681                	li	a3,0
   15ad4:	4705                	li	a4,1
   15ad6:	6789                	lui	a5,0x2
   15ad8:	00e90023          	sb	a4,0(s2)
   15adc:	00a92223          	sw	a0,4(s2)
   15ae0:	47c78793          	addi	a5,a5,1148 # 247c <.Lline_table_start1+0x2251>
   15ae4:	470d                	li	a4,3
   15ae6:	853e                	mv	a0,a5
   15ae8:	00000073          	ecall
   15aec:	4585                	li	a1,1
   15aee:	4711                	li	a4,4
   15af0:	853e                	mv	a0,a5
   15af2:	4601                	li	a2,0
   15af4:	4681                	li	a3,0
   15af6:	00000073          	ecall
   15afa:	a0a9                	j	15b44 <_ZN18complex_no_dynamic3app17h981c596f56e3c367E+0x110>
   15afc:	6509                	lui	a0,0x2
   15afe:	47c50493          	addi	s1,a0,1148 # 247c <.Lline_table_start1+0x2251>
   15b02:	470d                	li	a4,3
   15b04:	8526                	mv	a0,s1
   15b06:	4581                	li	a1,0
   15b08:	4601                	li	a2,0
   15b0a:	4681                	li	a3,0
   15b0c:	00000073          	ecall
   15b10:	00190513          	addi	a0,s2,1
   15b14:	04e10593          	addi	a1,sp,78
   15b18:	02200613          	li	a2,34
   15b1c:	00007097          	auipc	ra,0x7
   15b20:	214080e7          	jalr	532(ra) # 1cd30 <memcpy>
   15b24:	8526                	mv	a0,s1
   15b26:	4581                	li	a1,0
   15b28:	4601                	li	a2,0
   15b2a:	4681                	li	a3,0
   15b2c:	00090023          	sb	zero,0(s2)
   15b30:	470d                	li	a4,3
   15b32:	00000073          	ecall
   15b36:	4585                	li	a1,1
   15b38:	4711                	li	a4,4
   15b3a:	8526                	mv	a0,s1
   15b3c:	4601                	li	a2,0
   15b3e:	4681                	li	a3,0
   15b40:	00000073          	ecall
   15b44:	50f6                	lw	ra,124(sp)
   15b46:	5466                	lw	s0,120(sp)
   15b48:	54d6                	lw	s1,116(sp)
   15b4a:	5946                	lw	s2,112(sp)
   15b4c:	6109                	addi	sp,sp,128
   15b4e:	8082                	ret

00015b50 <_ZN18complex_no_dynamic3app17ha04fe5bb9722c856E>:
   15b50:	711d                	addi	sp,sp,-96
   15b52:	ce86                	sw	ra,92(sp)
   15b54:	cca2                	sw	s0,88(sp)
   15b56:	caa6                	sw	s1,84(sp)
   15b58:	842a                	mv	s0,a0
   15b5a:	00610513          	addi	a0,sp,6
   15b5e:	02300613          	li	a2,35
   15b62:	00007097          	auipc	ra,0x7
   15b66:	1ce080e7          	jalr	462(ra) # 1cd30 <memcpy>
   15b6a:	02910513          	addi	a0,sp,41
   15b6e:	02b00613          	li	a2,43
   15b72:	4581                	li	a1,0
   15b74:	00007097          	auipc	ra,0x7
   15b78:	150080e7          	jalr	336(ra) # 1ccc4 <memset>
   15b7c:	6505                	lui	a0,0x1
   15b7e:	4489                	li	s1,2
   15b80:	4589                	li	a1,2
   15b82:	00610613          	addi	a2,sp,6
   15b86:	d5d50793          	addi	a5,a0,-675 # d5d <.Lline_table_start1+0xb32>
   15b8a:	02300693          	li	a3,35
   15b8e:	4711                	li	a4,4
   15b90:	853e                	mv	a0,a5
   15b92:	00000073          	ecall
   15b96:	02950b63          	beq	a0,s1,15bcc <_ZN18complex_no_dynamic3app17ha04fe5bb9722c856E+0x7c>
   15b9a:	02910613          	addi	a2,sp,41
   15b9e:	02b00693          	li	a3,43
   15ba2:	470d                	li	a4,3
   15ba4:	853e                	mv	a0,a5
   15ba6:	4581                	li	a1,0
   15ba8:	00000073          	ecall
   15bac:	02950063          	beq	a0,s1,15bcc <_ZN18complex_no_dynamic3app17ha04fe5bb9722c856E+0x7c>
   15bb0:	6505                	lui	a0,0x1
   15bb2:	4589                	li	a1,2
   15bb4:	d5d50793          	addi	a5,a0,-675 # d5d <.Lline_table_start1+0xb32>
   15bb8:	4709                	li	a4,2
   15bba:	07f00493          	li	s1,127
   15bbe:	853e                	mv	a0,a5
   15bc0:	4601                	li	a2,0
   15bc2:	4681                	li	a3,0
   15bc4:	00000073          	ecall
   15bc8:	02a4eb63          	bltu	s1,a0,15bfe <_ZN18complex_no_dynamic3app17ha04fe5bb9722c856E+0xae>
   15bcc:	4785                	li	a5,1
   15bce:	c3a9                	beqz	a5,15c10 <_ZN18complex_no_dynamic3app17ha04fe5bb9722c856E+0xc0>
   15bd0:	852e                	mv	a0,a1
   15bd2:	4581                	li	a1,0
   15bd4:	4601                	li	a2,0
   15bd6:	4681                	li	a3,0
   15bd8:	4705                	li	a4,1
   15bda:	6785                	lui	a5,0x1
   15bdc:	00e40023          	sb	a4,0(s0)
   15be0:	c048                	sw	a0,4(s0)
   15be2:	d5d78793          	addi	a5,a5,-675 # d5d <.Lline_table_start1+0xb32>
   15be6:	470d                	li	a4,3
   15be8:	853e                	mv	a0,a5
   15bea:	00000073          	ecall
   15bee:	4589                	li	a1,2
   15bf0:	4711                	li	a4,4
   15bf2:	853e                	mv	a0,a5
   15bf4:	4601                	li	a2,0
   15bf6:	4681                	li	a3,0
   15bf8:	00000073          	ecall
   15bfc:	a8b1                	j	15c58 <_ZN18complex_no_dynamic3app17ha04fe5bb9722c856E+0x108>
   15bfe:	853e                	mv	a0,a5
   15c00:	4581                	li	a1,0
   15c02:	4601                	li	a2,0
   15c04:	4681                	li	a3,0
   15c06:	4781                	li	a5,0
   15c08:	470d                	li	a4,3
   15c0a:	00000073          	ecall
   15c0e:	f3e9                	bnez	a5,15bd0 <_ZN18complex_no_dynamic3app17ha04fe5bb9722c856E+0x80>
   15c10:	6505                	lui	a0,0x1
   15c12:	d5d50493          	addi	s1,a0,-675 # d5d <.Lline_table_start1+0xb32>
   15c16:	470d                	li	a4,3
   15c18:	8526                	mv	a0,s1
   15c1a:	4581                	li	a1,0
   15c1c:	4601                	li	a2,0
   15c1e:	4681                	li	a3,0
   15c20:	00000073          	ecall
   15c24:	00140513          	addi	a0,s0,1
   15c28:	02910593          	addi	a1,sp,41
   15c2c:	02b00613          	li	a2,43
   15c30:	00007097          	auipc	ra,0x7
   15c34:	100080e7          	jalr	256(ra) # 1cd30 <memcpy>
   15c38:	8526                	mv	a0,s1
   15c3a:	4581                	li	a1,0
   15c3c:	4601                	li	a2,0
   15c3e:	4681                	li	a3,0
   15c40:	00040023          	sb	zero,0(s0)
   15c44:	470d                	li	a4,3
   15c46:	00000073          	ecall
   15c4a:	4589                	li	a1,2
   15c4c:	4711                	li	a4,4
   15c4e:	8526                	mv	a0,s1
   15c50:	4601                	li	a2,0
   15c52:	4681                	li	a3,0
   15c54:	00000073          	ecall
   15c58:	40f6                	lw	ra,92(sp)
   15c5a:	4466                	lw	s0,88(sp)
   15c5c:	44d6                	lw	s1,84(sp)
   15c5e:	6125                	addi	sp,sp,96
   15c60:	8082                	ret

00015c62 <_ZN18complex_no_dynamic3app17ha087d85ce41a00b9E>:
   15c62:	711d                	addi	sp,sp,-96
   15c64:	ce86                	sw	ra,92(sp)
   15c66:	cca2                	sw	s0,88(sp)
   15c68:	caa6                	sw	s1,84(sp)
   15c6a:	c8ca                	sw	s2,80(sp)
   15c6c:	892a                	mv	s2,a0
   15c6e:	00c5c803          	lbu	a6,12(a1)
   15c72:	00d5c603          	lbu	a2,13(a1)
   15c76:	00e5c683          	lbu	a3,14(a1)
   15c7a:	00f5c703          	lbu	a4,15(a1)
   15c7e:	0085c783          	lbu	a5,8(a1)
   15c82:	0095c483          	lbu	s1,9(a1)
   15c86:	00a5c403          	lbu	s0,10(a1)
   15c8a:	00b5c503          	lbu	a0,11(a1)
   15c8e:	0622                	slli	a2,a2,0x8
   15c90:	06c2                	slli	a3,a3,0x10
   15c92:	0762                	slli	a4,a4,0x18
   15c94:	04a2                	slli	s1,s1,0x8
   15c96:	01066833          	or	a6,a2,a6
   15c9a:	00d768b3          	or	a7,a4,a3
   15c9e:	8fc5                	or	a5,a5,s1
   15ca0:	0045c703          	lbu	a4,4(a1)
   15ca4:	0055c483          	lbu	s1,5(a1)
   15ca8:	0065c603          	lbu	a2,6(a1)
   15cac:	0075c683          	lbu	a3,7(a1)
   15cb0:	0442                	slli	s0,s0,0x10
   15cb2:	0562                	slli	a0,a0,0x18
   15cb4:	04a2                	slli	s1,s1,0x8
   15cb6:	0642                	slli	a2,a2,0x10
   15cb8:	06e2                	slli	a3,a3,0x18
   15cba:	8d41                	or	a0,a0,s0
   15cbc:	8f45                	or	a4,a4,s1
   15cbe:	0005c483          	lbu	s1,0(a1)
   15cc2:	0015c403          	lbu	s0,1(a1)
   15cc6:	8e55                	or	a2,a2,a3
   15cc8:	0025c683          	lbu	a3,2(a1)
   15ccc:	0035c583          	lbu	a1,3(a1)
   15cd0:	0422                	slli	s0,s0,0x8
   15cd2:	8c45                	or	s0,s0,s1
   15cd4:	06c2                	slli	a3,a3,0x10
   15cd6:	05e2                	slli	a1,a1,0x18
   15cd8:	8dd5                	or	a1,a1,a3
   15cda:	0108e6b3          	or	a3,a7,a6
   15cde:	8d5d                	or	a0,a0,a5
   15ce0:	8e59                	or	a2,a2,a4
   15ce2:	8dc1                	or	a1,a1,s0
   15ce4:	c42e                	sw	a1,8(sp)
   15ce6:	c632                	sw	a2,12(sp)
   15ce8:	c82a                	sw	a0,16(sp)
   15cea:	ca36                	sw	a3,20(sp)
   15cec:	01a10513          	addi	a0,sp,26
   15cf0:	03600613          	li	a2,54
   15cf4:	4581                	li	a1,0
   15cf6:	00007097          	auipc	ra,0x7
   15cfa:	fce080e7          	jalr	-50(ra) # 1ccc4 <memset>
   15cfe:	6509                	lui	a0,0x2
   15d00:	4585                	li	a1,1
   15d02:	0030                	addi	a2,sp,8
   15d04:	46c1                	li	a3,16
   15d06:	4711                	li	a4,4
   15d08:	98950793          	addi	a5,a0,-1655 # 1989 <.Lline_table_start1+0x175e>
   15d0c:	4409                	li	s0,2
   15d0e:	853e                	mv	a0,a5
   15d10:	00000073          	ecall
   15d14:	4485                	li	s1,1
   15d16:	04850663          	beq	a0,s0,15d62 <_ZN18complex_no_dynamic3app17ha087d85ce41a00b9E+0x100>
   15d1a:	459d                	li	a1,7
   15d1c:	01a10613          	addi	a2,sp,26
   15d20:	03600693          	li	a3,54
   15d24:	470d                	li	a4,3
   15d26:	853e                	mv	a0,a5
   15d28:	00000073          	ecall
   15d2c:	00851463          	bne	a0,s0,15d34 <_ZN18complex_no_dynamic3app17ha087d85ce41a00b9E+0xd2>
   15d30:	4485                	li	s1,1
   15d32:	a805                	j	15d62 <_ZN18complex_no_dynamic3app17ha087d85ce41a00b9E+0x100>
   15d34:	4681                	li	a3,0
   15d36:	6509                	lui	a0,0x2
   15d38:	4585                	li	a1,1
   15d3a:	461d                	li	a2,7
   15d3c:	4709                	li	a4,2
   15d3e:	98950793          	addi	a5,a0,-1655 # 1989 <.Lline_table_start1+0x175e>
   15d42:	07f00413          	li	s0,127
   15d46:	853e                	mv	a0,a5
   15d48:	00000073          	ecall
   15d4c:	4485                	li	s1,1
   15d4e:	00a47a63          	bgeu	s0,a0,15d62 <_ZN18complex_no_dynamic3app17ha087d85ce41a00b9E+0x100>
   15d52:	853e                	mv	a0,a5
   15d54:	4601                	li	a2,0
   15d56:	4681                	li	a3,0
   15d58:	4481                	li	s1,0
   15d5a:	459d                	li	a1,7
   15d5c:	470d                	li	a4,3
   15d5e:	00000073          	ecall
   15d62:	c88d                	beqz	s1,15d94 <_ZN18complex_no_dynamic3app17ha087d85ce41a00b9E+0x132>
   15d64:	4601                	li	a2,0
   15d66:	4681                	li	a3,0
   15d68:	4505                	li	a0,1
   15d6a:	6709                	lui	a4,0x2
   15d6c:	87ae                	mv	a5,a1
   15d6e:	459d                	li	a1,7
   15d70:	00a90023          	sb	a0,0(s2)
   15d74:	00f92223          	sw	a5,4(s2)
   15d78:	98970793          	addi	a5,a4,-1655 # 1989 <.Lline_table_start1+0x175e>
   15d7c:	470d                	li	a4,3
   15d7e:	853e                	mv	a0,a5
   15d80:	00000073          	ecall
   15d84:	4585                	li	a1,1
   15d86:	4711                	li	a4,4
   15d88:	853e                	mv	a0,a5
   15d8a:	4601                	li	a2,0
   15d8c:	4681                	li	a3,0
   15d8e:	00000073          	ecall
   15d92:	a0a9                	j	15ddc <_ZN18complex_no_dynamic3app17ha087d85ce41a00b9E+0x17a>
   15d94:	6509                	lui	a0,0x2
   15d96:	98950493          	addi	s1,a0,-1655 # 1989 <.Lline_table_start1+0x175e>
   15d9a:	459d                	li	a1,7
   15d9c:	470d                	li	a4,3
   15d9e:	8526                	mv	a0,s1
   15da0:	4601                	li	a2,0
   15da2:	4681                	li	a3,0
   15da4:	00000073          	ecall
   15da8:	00190513          	addi	a0,s2,1
   15dac:	01a10593          	addi	a1,sp,26
   15db0:	03600613          	li	a2,54
   15db4:	00007097          	auipc	ra,0x7
   15db8:	f7c080e7          	jalr	-132(ra) # 1cd30 <memcpy>
   15dbc:	8526                	mv	a0,s1
   15dbe:	4601                	li	a2,0
   15dc0:	4681                	li	a3,0
   15dc2:	00090023          	sb	zero,0(s2)
   15dc6:	459d                	li	a1,7
   15dc8:	470d                	li	a4,3
   15dca:	00000073          	ecall
   15dce:	4585                	li	a1,1
   15dd0:	4711                	li	a4,4
   15dd2:	8526                	mv	a0,s1
   15dd4:	4601                	li	a2,0
   15dd6:	4681                	li	a3,0
   15dd8:	00000073          	ecall
   15ddc:	40f6                	lw	ra,92(sp)
   15dde:	4466                	lw	s0,88(sp)
   15de0:	44d6                	lw	s1,84(sp)
   15de2:	4946                	lw	s2,80(sp)
   15de4:	6125                	addi	sp,sp,96
   15de6:	8082                	ret

00015de8 <_ZN18complex_no_dynamic3app17ha26ffdc8b4794925E>:
   15de8:	7159                	addi	sp,sp,-112
   15dea:	d686                	sw	ra,108(sp)
   15dec:	d4a2                	sw	s0,104(sp)
   15dee:	d2a6                	sw	s1,100(sp)
   15df0:	842a                	mv	s0,a0
   15df2:	00210513          	addi	a0,sp,2
   15df6:	03b00613          	li	a2,59
   15dfa:	00007097          	auipc	ra,0x7
   15dfe:	f36080e7          	jalr	-202(ra) # 1cd30 <memcpy>
   15e02:	03d10513          	addi	a0,sp,61
   15e06:	02700613          	li	a2,39
   15e0a:	4581                	li	a1,0
   15e0c:	00007097          	auipc	ra,0x7
   15e10:	eb8080e7          	jalr	-328(ra) # 1ccc4 <memset>
   15e14:	6505                	lui	a0,0x1
   15e16:	4595                	li	a1,5
   15e18:	00210613          	addi	a2,sp,2
   15e1c:	03b00693          	li	a3,59
   15e20:	bd350793          	addi	a5,a0,-1069 # bd3 <.Lline_table_start1+0x9a8>
   15e24:	4711                	li	a4,4
   15e26:	4489                	li	s1,2
   15e28:	853e                	mv	a0,a5
   15e2a:	00000073          	ecall
   15e2e:	02950b63          	beq	a0,s1,15e64 <_ZN18complex_no_dynamic3app17ha26ffdc8b4794925E+0x7c>
   15e32:	458d                	li	a1,3
   15e34:	03d10613          	addi	a2,sp,61
   15e38:	02700693          	li	a3,39
   15e3c:	470d                	li	a4,3
   15e3e:	853e                	mv	a0,a5
   15e40:	00000073          	ecall
   15e44:	02950063          	beq	a0,s1,15e64 <_ZN18complex_no_dynamic3app17ha26ffdc8b4794925E+0x7c>
   15e48:	6505                	lui	a0,0x1
   15e4a:	4595                	li	a1,5
   15e4c:	460d                	li	a2,3
   15e4e:	bd350793          	addi	a5,a0,-1069 # bd3 <.Lline_table_start1+0x9a8>
   15e52:	4709                	li	a4,2
   15e54:	07f00493          	li	s1,127
   15e58:	853e                	mv	a0,a5
   15e5a:	4681                	li	a3,0
   15e5c:	00000073          	ecall
   15e60:	02a4eb63          	bltu	s1,a0,15e96 <_ZN18complex_no_dynamic3app17ha26ffdc8b4794925E+0xae>
   15e64:	4785                	li	a5,1
   15e66:	c3a9                	beqz	a5,15ea8 <_ZN18complex_no_dynamic3app17ha26ffdc8b4794925E+0xc0>
   15e68:	4601                	li	a2,0
   15e6a:	4681                	li	a3,0
   15e6c:	4505                	li	a0,1
   15e6e:	6705                	lui	a4,0x1
   15e70:	87ae                	mv	a5,a1
   15e72:	458d                	li	a1,3
   15e74:	00a40023          	sb	a0,0(s0)
   15e78:	c05c                	sw	a5,4(s0)
   15e7a:	bd370793          	addi	a5,a4,-1069 # bd3 <.Lline_table_start1+0x9a8>
   15e7e:	470d                	li	a4,3
   15e80:	853e                	mv	a0,a5
   15e82:	00000073          	ecall
   15e86:	4595                	li	a1,5
   15e88:	4711                	li	a4,4
   15e8a:	853e                	mv	a0,a5
   15e8c:	4601                	li	a2,0
   15e8e:	4681                	li	a3,0
   15e90:	00000073          	ecall
   15e94:	a8b1                	j	15ef0 <_ZN18complex_no_dynamic3app17ha26ffdc8b4794925E+0x108>
   15e96:	853e                	mv	a0,a5
   15e98:	4601                	li	a2,0
   15e9a:	4681                	li	a3,0
   15e9c:	4781                	li	a5,0
   15e9e:	458d                	li	a1,3
   15ea0:	470d                	li	a4,3
   15ea2:	00000073          	ecall
   15ea6:	f3e9                	bnez	a5,15e68 <_ZN18complex_no_dynamic3app17ha26ffdc8b4794925E+0x80>
   15ea8:	6505                	lui	a0,0x1
   15eaa:	bd350493          	addi	s1,a0,-1069 # bd3 <.Lline_table_start1+0x9a8>
   15eae:	458d                	li	a1,3
   15eb0:	470d                	li	a4,3
   15eb2:	8526                	mv	a0,s1
   15eb4:	4601                	li	a2,0
   15eb6:	4681                	li	a3,0
   15eb8:	00000073          	ecall
   15ebc:	00140513          	addi	a0,s0,1
   15ec0:	03d10593          	addi	a1,sp,61
   15ec4:	02700613          	li	a2,39
   15ec8:	00007097          	auipc	ra,0x7
   15ecc:	e68080e7          	jalr	-408(ra) # 1cd30 <memcpy>
   15ed0:	8526                	mv	a0,s1
   15ed2:	4601                	li	a2,0
   15ed4:	4681                	li	a3,0
   15ed6:	00040023          	sb	zero,0(s0)
   15eda:	458d                	li	a1,3
   15edc:	470d                	li	a4,3
   15ede:	00000073          	ecall
   15ee2:	4595                	li	a1,5
   15ee4:	4711                	li	a4,4
   15ee6:	8526                	mv	a0,s1
   15ee8:	4601                	li	a2,0
   15eea:	4681                	li	a3,0
   15eec:	00000073          	ecall
   15ef0:	50b6                	lw	ra,108(sp)
   15ef2:	5426                	lw	s0,104(sp)
   15ef4:	5496                	lw	s1,100(sp)
   15ef6:	6165                	addi	sp,sp,112
   15ef8:	8082                	ret

00015efa <_ZN18complex_no_dynamic3app17ha54e3e8686117ed9E>:
   15efa:	7135                	addi	sp,sp,-160
   15efc:	cf06                	sw	ra,156(sp)
   15efe:	cd22                	sw	s0,152(sp)
   15f00:	cb26                	sw	s1,148(sp)
   15f02:	842a                	mv	s0,a0
   15f04:	00a10513          	addi	a0,sp,10
   15f08:	04f00613          	li	a2,79
   15f0c:	00007097          	auipc	ra,0x7
   15f10:	e24080e7          	jalr	-476(ra) # 1cd30 <memcpy>
   15f14:	05910513          	addi	a0,sp,89
   15f18:	03b00613          	li	a2,59
   15f1c:	4581                	li	a1,0
   15f1e:	00007097          	auipc	ra,0x7
   15f22:	da6080e7          	jalr	-602(ra) # 1ccc4 <memset>
   15f26:	6505                	lui	a0,0x1
   15f28:	45a1                	li	a1,8
   15f2a:	00a10613          	addi	a2,sp,10
   15f2e:	04f00693          	li	a3,79
   15f32:	a0650793          	addi	a5,a0,-1530 # a06 <.Lline_table_start1+0x7db>
   15f36:	4711                	li	a4,4
   15f38:	4489                	li	s1,2
   15f3a:	853e                	mv	a0,a5
   15f3c:	00000073          	ecall
   15f40:	02950b63          	beq	a0,s1,15f76 <_ZN18complex_no_dynamic3app17ha54e3e8686117ed9E+0x7c>
   15f44:	4595                	li	a1,5
   15f46:	05910613          	addi	a2,sp,89
   15f4a:	03b00693          	li	a3,59
   15f4e:	470d                	li	a4,3
   15f50:	853e                	mv	a0,a5
   15f52:	00000073          	ecall
   15f56:	02950063          	beq	a0,s1,15f76 <_ZN18complex_no_dynamic3app17ha54e3e8686117ed9E+0x7c>
   15f5a:	6505                	lui	a0,0x1
   15f5c:	45a1                	li	a1,8
   15f5e:	4615                	li	a2,5
   15f60:	a0650793          	addi	a5,a0,-1530 # a06 <.Lline_table_start1+0x7db>
   15f64:	4709                	li	a4,2
   15f66:	07f00493          	li	s1,127
   15f6a:	853e                	mv	a0,a5
   15f6c:	4681                	li	a3,0
   15f6e:	00000073          	ecall
   15f72:	02a4eb63          	bltu	s1,a0,15fa8 <_ZN18complex_no_dynamic3app17ha54e3e8686117ed9E+0xae>
   15f76:	4785                	li	a5,1
   15f78:	c3a9                	beqz	a5,15fba <_ZN18complex_no_dynamic3app17ha54e3e8686117ed9E+0xc0>
   15f7a:	4601                	li	a2,0
   15f7c:	4681                	li	a3,0
   15f7e:	4505                	li	a0,1
   15f80:	6705                	lui	a4,0x1
   15f82:	87ae                	mv	a5,a1
   15f84:	4595                	li	a1,5
   15f86:	00a40023          	sb	a0,0(s0)
   15f8a:	c05c                	sw	a5,4(s0)
   15f8c:	a0670793          	addi	a5,a4,-1530 # a06 <.Lline_table_start1+0x7db>
   15f90:	470d                	li	a4,3
   15f92:	853e                	mv	a0,a5
   15f94:	00000073          	ecall
   15f98:	45a1                	li	a1,8
   15f9a:	4711                	li	a4,4
   15f9c:	853e                	mv	a0,a5
   15f9e:	4601                	li	a2,0
   15fa0:	4681                	li	a3,0
   15fa2:	00000073          	ecall
   15fa6:	a8b1                	j	16002 <_ZN18complex_no_dynamic3app17ha54e3e8686117ed9E+0x108>
   15fa8:	853e                	mv	a0,a5
   15faa:	4601                	li	a2,0
   15fac:	4681                	li	a3,0
   15fae:	4781                	li	a5,0
   15fb0:	4595                	li	a1,5
   15fb2:	470d                	li	a4,3
   15fb4:	00000073          	ecall
   15fb8:	f3e9                	bnez	a5,15f7a <_ZN18complex_no_dynamic3app17ha54e3e8686117ed9E+0x80>
   15fba:	6505                	lui	a0,0x1
   15fbc:	a0650493          	addi	s1,a0,-1530 # a06 <.Lline_table_start1+0x7db>
   15fc0:	4595                	li	a1,5
   15fc2:	470d                	li	a4,3
   15fc4:	8526                	mv	a0,s1
   15fc6:	4601                	li	a2,0
   15fc8:	4681                	li	a3,0
   15fca:	00000073          	ecall
   15fce:	00140513          	addi	a0,s0,1
   15fd2:	05910593          	addi	a1,sp,89
   15fd6:	03b00613          	li	a2,59
   15fda:	00007097          	auipc	ra,0x7
   15fde:	d56080e7          	jalr	-682(ra) # 1cd30 <memcpy>
   15fe2:	8526                	mv	a0,s1
   15fe4:	4601                	li	a2,0
   15fe6:	4681                	li	a3,0
   15fe8:	00040023          	sb	zero,0(s0)
   15fec:	4595                	li	a1,5
   15fee:	470d                	li	a4,3
   15ff0:	00000073          	ecall
   15ff4:	45a1                	li	a1,8
   15ff6:	4711                	li	a4,4
   15ff8:	8526                	mv	a0,s1
   15ffa:	4601                	li	a2,0
   15ffc:	4681                	li	a3,0
   15ffe:	00000073          	ecall
   16002:	40fa                	lw	ra,156(sp)
   16004:	446a                	lw	s0,152(sp)
   16006:	44da                	lw	s1,148(sp)
   16008:	610d                	addi	sp,sp,160
   1600a:	8082                	ret

0001600c <_ZN18complex_no_dynamic3app17hac33aee129478e47E>:
   1600c:	715d                	addi	sp,sp,-80
   1600e:	c686                	sw	ra,76(sp)
   16010:	c4a2                	sw	s0,72(sp)
   16012:	c2a6                	sw	s1,68(sp)
   16014:	c0ca                	sw	s2,64(sp)
   16016:	892a                	mv	s2,a0
   16018:	0145c803          	lbu	a6,20(a1)
   1601c:	0155c383          	lbu	t2,21(a1)
   16020:	0165c483          	lbu	s1,22(a1)
   16024:	0175c703          	lbu	a4,23(a1)
   16028:	0105c783          	lbu	a5,16(a1)
   1602c:	0115c683          	lbu	a3,17(a1)
   16030:	0125c283          	lbu	t0,18(a1)
   16034:	0135c303          	lbu	t1,19(a1)
   16038:	00c5c883          	lbu	a7,12(a1)
   1603c:	00d5c403          	lbu	s0,13(a1)
   16040:	00e5c503          	lbu	a0,14(a1)
   16044:	00f5c603          	lbu	a2,15(a1)
   16048:	03a2                	slli	t2,t2,0x8
   1604a:	04c2                	slli	s1,s1,0x10
   1604c:	0762                	slli	a4,a4,0x18
   1604e:	06a2                	slli	a3,a3,0x8
   16050:	0103e833          	or	a6,t2,a6
   16054:	00976e33          	or	t3,a4,s1
   16058:	00f6e3b3          	or	t2,a3,a5
   1605c:	0085c703          	lbu	a4,8(a1)
   16060:	0095c783          	lbu	a5,9(a1)
   16064:	00a5c683          	lbu	a3,10(a1)
   16068:	00b5c483          	lbu	s1,11(a1)
   1606c:	02c2                	slli	t0,t0,0x10
   1606e:	0362                	slli	t1,t1,0x18
   16070:	0422                	slli	s0,s0,0x8
   16072:	0542                	slli	a0,a0,0x10
   16074:	0662                	slli	a2,a2,0x18
   16076:	07a2                	slli	a5,a5,0x8
   16078:	005362b3          	or	t0,t1,t0
   1607c:	01146333          	or	t1,s0,a7
   16080:	00a66eb3          	or	t4,a2,a0
   16084:	00e7e8b3          	or	a7,a5,a4
   16088:	0045c603          	lbu	a2,4(a1)
   1608c:	0055c783          	lbu	a5,5(a1)
   16090:	0065c703          	lbu	a4,6(a1)
   16094:	0075c403          	lbu	s0,7(a1)
   16098:	06c2                	slli	a3,a3,0x10
   1609a:	04e2                	slli	s1,s1,0x18
   1609c:	07a2                	slli	a5,a5,0x8
   1609e:	0742                	slli	a4,a4,0x10
   160a0:	0462                	slli	s0,s0,0x18
   160a2:	00d4e533          	or	a0,s1,a3
   160a6:	00c7ef33          	or	t5,a5,a2
   160aa:	0005c783          	lbu	a5,0(a1)
   160ae:	0015c483          	lbu	s1,1(a1)
   160b2:	00e46633          	or	a2,s0,a4
   160b6:	0025c403          	lbu	s0,2(a1)
   160ba:	0035c583          	lbu	a1,3(a1)
   160be:	04a2                	slli	s1,s1,0x8
   160c0:	00f4efb3          	or	t6,s1,a5
   160c4:	0442                	slli	s0,s0,0x10
   160c6:	05e2                	slli	a1,a1,0x18
   160c8:	0085e6b3          	or	a3,a1,s0
   160cc:	010e6733          	or	a4,t3,a6
   160d0:	0072e7b3          	or	a5,t0,t2
   160d4:	d802                	sw	zero,48(sp)
   160d6:	da02                	sw	zero,52(sp)
   160d8:	dc02                	sw	zero,56(sp)
   160da:	02011e23          	sh	zero,60(sp)
   160de:	d002                	sw	zero,32(sp)
   160e0:	d202                	sw	zero,36(sp)
   160e2:	d402                	sw	zero,40(sp)
   160e4:	d602                	sw	zero,44(sp)
   160e6:	006ee2b3          	or	t0,t4,t1
   160ea:	6805                	lui	a6,0x1
   160ec:	01156533          	or	a0,a0,a7
   160f0:	45a5                	li	a1,9
   160f2:	01e66433          	or	s0,a2,t5
   160f6:	0030                	addi	a2,sp,8
   160f8:	01f6e4b3          	or	s1,a3,t6
   160fc:	46e1                	li	a3,24
   160fe:	cc3e                	sw	a5,24(sp)
   16100:	ce3a                	sw	a4,28(sp)
   16102:	4711                	li	a4,4
   16104:	cbb80793          	addi	a5,a6,-837 # cbb <.Lline_table_start1+0xa90>
   16108:	c426                	sw	s1,8(sp)
   1610a:	c622                	sw	s0,12(sp)
   1610c:	c82a                	sw	a0,16(sp)
   1610e:	ca16                	sw	t0,20(sp)
   16110:	4489                	li	s1,2
   16112:	853e                	mv	a0,a5
   16114:	00000073          	ecall
   16118:	02950963          	beq	a0,s1,1614a <_ZN18complex_no_dynamic3app17hac33aee129478e47E+0x13e>
   1611c:	4595                	li	a1,5
   1611e:	1010                	addi	a2,sp,32
   16120:	46f9                	li	a3,30
   16122:	470d                	li	a4,3
   16124:	853e                	mv	a0,a5
   16126:	00000073          	ecall
   1612a:	02950063          	beq	a0,s1,1614a <_ZN18complex_no_dynamic3app17hac33aee129478e47E+0x13e>
   1612e:	6505                	lui	a0,0x1
   16130:	45a5                	li	a1,9
   16132:	4615                	li	a2,5
   16134:	cbb50793          	addi	a5,a0,-837 # cbb <.Lline_table_start1+0xa90>
   16138:	4709                	li	a4,2
   1613a:	07f00493          	li	s1,127
   1613e:	853e                	mv	a0,a5
   16140:	4681                	li	a3,0
   16142:	00000073          	ecall
   16146:	02a4ec63          	bltu	s1,a0,1617e <_ZN18complex_no_dynamic3app17hac33aee129478e47E+0x172>
   1614a:	4785                	li	a5,1
   1614c:	c3b1                	beqz	a5,16190 <_ZN18complex_no_dynamic3app17hac33aee129478e47E+0x184>
   1614e:	4601                	li	a2,0
   16150:	4681                	li	a3,0
   16152:	4505                	li	a0,1
   16154:	6705                	lui	a4,0x1
   16156:	87ae                	mv	a5,a1
   16158:	4595                	li	a1,5
   1615a:	00a90023          	sb	a0,0(s2)
   1615e:	00f92223          	sw	a5,4(s2)
   16162:	cbb70793          	addi	a5,a4,-837 # cbb <.Lline_table_start1+0xa90>
   16166:	470d                	li	a4,3
   16168:	853e                	mv	a0,a5
   1616a:	00000073          	ecall
   1616e:	45a5                	li	a1,9
   16170:	4711                	li	a4,4
   16172:	853e                	mv	a0,a5
   16174:	4601                	li	a2,0
   16176:	4681                	li	a3,0
   16178:	00000073          	ecall
   1617c:	a8a1                	j	161d4 <_ZN18complex_no_dynamic3app17hac33aee129478e47E+0x1c8>
   1617e:	853e                	mv	a0,a5
   16180:	4601                	li	a2,0
   16182:	4681                	li	a3,0
   16184:	4781                	li	a5,0
   16186:	4595                	li	a1,5
   16188:	470d                	li	a4,3
   1618a:	00000073          	ecall
   1618e:	f3e1                	bnez	a5,1614e <_ZN18complex_no_dynamic3app17hac33aee129478e47E+0x142>
   16190:	6505                	lui	a0,0x1
   16192:	cbb50493          	addi	s1,a0,-837 # cbb <.Lline_table_start1+0xa90>
   16196:	4595                	li	a1,5
   16198:	470d                	li	a4,3
   1619a:	8526                	mv	a0,s1
   1619c:	4601                	li	a2,0
   1619e:	4681                	li	a3,0
   161a0:	00000073          	ecall
   161a4:	00190513          	addi	a0,s2,1
   161a8:	100c                	addi	a1,sp,32
   161aa:	4679                	li	a2,30
   161ac:	00007097          	auipc	ra,0x7
   161b0:	b84080e7          	jalr	-1148(ra) # 1cd30 <memcpy>
   161b4:	8526                	mv	a0,s1
   161b6:	4601                	li	a2,0
   161b8:	4681                	li	a3,0
   161ba:	00090023          	sb	zero,0(s2)
   161be:	4595                	li	a1,5
   161c0:	470d                	li	a4,3
   161c2:	00000073          	ecall
   161c6:	45a5                	li	a1,9
   161c8:	4711                	li	a4,4
   161ca:	8526                	mv	a0,s1
   161cc:	4601                	li	a2,0
   161ce:	4681                	li	a3,0
   161d0:	00000073          	ecall
   161d4:	40b6                	lw	ra,76(sp)
   161d6:	4426                	lw	s0,72(sp)
   161d8:	4496                	lw	s1,68(sp)
   161da:	4906                	lw	s2,64(sp)
   161dc:	6161                	addi	sp,sp,80
   161de:	8082                	ret

000161e0 <_ZN18complex_no_dynamic3app17hafc23429c3abe780E>:
   161e0:	715d                	addi	sp,sp,-80
   161e2:	c686                	sw	ra,76(sp)
   161e4:	c4a2                	sw	s0,72(sp)
   161e6:	c2a6                	sw	s1,68(sp)
   161e8:	842a                	mv	s0,a0
   161ea:	00910513          	addi	a0,sp,9
   161ee:	02b00613          	li	a2,43
   161f2:	00007097          	auipc	ra,0x7
   161f6:	b3e080e7          	jalr	-1218(ra) # 1cd30 <memcpy>
   161fa:	da02                	sw	zero,52(sp)
   161fc:	dc02                	sw	zero,56(sp)
   161fe:	de02                	sw	zero,60(sp)
   16200:	04010023          	sb	zero,64(sp)
   16204:	6505                	lui	a0,0x1
   16206:	4599                	li	a1,6
   16208:	00910613          	addi	a2,sp,9
   1620c:	02b00693          	li	a3,43
   16210:	46550793          	addi	a5,a0,1125 # 1465 <.Lline_table_start1+0x123a>
   16214:	4711                	li	a4,4
   16216:	4489                	li	s1,2
   16218:	853e                	mv	a0,a5
   1621a:	00000073          	ecall
   1621e:	02950963          	beq	a0,s1,16250 <_ZN18complex_no_dynamic3app17hafc23429c3abe780E+0x70>
   16222:	1850                	addi	a2,sp,52
   16224:	46b5                	li	a3,13
   16226:	470d                	li	a4,3
   16228:	853e                	mv	a0,a5
   1622a:	4581                	li	a1,0
   1622c:	00000073          	ecall
   16230:	02950063          	beq	a0,s1,16250 <_ZN18complex_no_dynamic3app17hafc23429c3abe780E+0x70>
   16234:	6505                	lui	a0,0x1
   16236:	4599                	li	a1,6
   16238:	46550793          	addi	a5,a0,1125 # 1465 <.Lline_table_start1+0x123a>
   1623c:	4709                	li	a4,2
   1623e:	07f00493          	li	s1,127
   16242:	853e                	mv	a0,a5
   16244:	4601                	li	a2,0
   16246:	4681                	li	a3,0
   16248:	00000073          	ecall
   1624c:	02a4eb63          	bltu	s1,a0,16282 <_ZN18complex_no_dynamic3app17hafc23429c3abe780E+0xa2>
   16250:	4785                	li	a5,1
   16252:	c3a9                	beqz	a5,16294 <_ZN18complex_no_dynamic3app17hafc23429c3abe780E+0xb4>
   16254:	852e                	mv	a0,a1
   16256:	4581                	li	a1,0
   16258:	4601                	li	a2,0
   1625a:	4681                	li	a3,0
   1625c:	4705                	li	a4,1
   1625e:	6785                	lui	a5,0x1
   16260:	00e40023          	sb	a4,0(s0)
   16264:	c048                	sw	a0,4(s0)
   16266:	46578793          	addi	a5,a5,1125 # 1465 <.Lline_table_start1+0x123a>
   1626a:	470d                	li	a4,3
   1626c:	853e                	mv	a0,a5
   1626e:	00000073          	ecall
   16272:	4599                	li	a1,6
   16274:	4711                	li	a4,4
   16276:	853e                	mv	a0,a5
   16278:	4601                	li	a2,0
   1627a:	4681                	li	a3,0
   1627c:	00000073          	ecall
   16280:	a8a1                	j	162d8 <_ZN18complex_no_dynamic3app17hafc23429c3abe780E+0xf8>
   16282:	853e                	mv	a0,a5
   16284:	4581                	li	a1,0
   16286:	4601                	li	a2,0
   16288:	4681                	li	a3,0
   1628a:	4781                	li	a5,0
   1628c:	470d                	li	a4,3
   1628e:	00000073          	ecall
   16292:	f3e9                	bnez	a5,16254 <_ZN18complex_no_dynamic3app17hafc23429c3abe780E+0x74>
   16294:	6505                	lui	a0,0x1
   16296:	46550493          	addi	s1,a0,1125 # 1465 <.Lline_table_start1+0x123a>
   1629a:	470d                	li	a4,3
   1629c:	8526                	mv	a0,s1
   1629e:	4581                	li	a1,0
   162a0:	4601                	li	a2,0
   162a2:	4681                	li	a3,0
   162a4:	00000073          	ecall
   162a8:	00140513          	addi	a0,s0,1
   162ac:	184c                	addi	a1,sp,52
   162ae:	4635                	li	a2,13
   162b0:	00007097          	auipc	ra,0x7
   162b4:	a80080e7          	jalr	-1408(ra) # 1cd30 <memcpy>
   162b8:	8526                	mv	a0,s1
   162ba:	4581                	li	a1,0
   162bc:	4601                	li	a2,0
   162be:	4681                	li	a3,0
   162c0:	00040023          	sb	zero,0(s0)
   162c4:	470d                	li	a4,3
   162c6:	00000073          	ecall
   162ca:	4599                	li	a1,6
   162cc:	4711                	li	a4,4
   162ce:	8526                	mv	a0,s1
   162d0:	4601                	li	a2,0
   162d2:	4681                	li	a3,0
   162d4:	00000073          	ecall
   162d8:	40b6                	lw	ra,76(sp)
   162da:	4426                	lw	s0,72(sp)
   162dc:	4496                	lw	s1,68(sp)
   162de:	6161                	addi	sp,sp,80
   162e0:	8082                	ret

000162e2 <_ZN18complex_no_dynamic3app17hb36e88d55d5922a1E>:
   162e2:	7119                	addi	sp,sp,-128
   162e4:	de86                	sw	ra,124(sp)
   162e6:	dca2                	sw	s0,120(sp)
   162e8:	daa6                	sw	s1,116(sp)
   162ea:	842a                	mv	s0,a0
   162ec:	850a                	mv	a0,sp
   162ee:	02100613          	li	a2,33
   162f2:	00007097          	auipc	ra,0x7
   162f6:	a3e080e7          	jalr	-1474(ra) # 1cd30 <memcpy>
   162fa:	02110513          	addi	a0,sp,33
   162fe:	05300613          	li	a2,83
   16302:	4581                	li	a1,0
   16304:	00007097          	auipc	ra,0x7
   16308:	9c0080e7          	jalr	-1600(ra) # 1ccc4 <memset>
   1630c:	6509                	lui	a0,0x2
   1630e:	4489                	li	s1,2
   16310:	4589                	li	a1,2
   16312:	860a                	mv	a2,sp
   16314:	53e50793          	addi	a5,a0,1342 # 253e <.Lline_table_start1+0x2313>
   16318:	02100693          	li	a3,33
   1631c:	4711                	li	a4,4
   1631e:	853e                	mv	a0,a5
   16320:	00000073          	ecall
   16324:	02950b63          	beq	a0,s1,1635a <_ZN18complex_no_dynamic3app17hb36e88d55d5922a1E+0x78>
   16328:	45a1                	li	a1,8
   1632a:	02110613          	addi	a2,sp,33
   1632e:	05300693          	li	a3,83
   16332:	470d                	li	a4,3
   16334:	853e                	mv	a0,a5
   16336:	00000073          	ecall
   1633a:	02950063          	beq	a0,s1,1635a <_ZN18complex_no_dynamic3app17hb36e88d55d5922a1E+0x78>
   1633e:	6509                	lui	a0,0x2
   16340:	4589                	li	a1,2
   16342:	4621                	li	a2,8
   16344:	53e50793          	addi	a5,a0,1342 # 253e <.Lline_table_start1+0x2313>
   16348:	4709                	li	a4,2
   1634a:	07f00493          	li	s1,127
   1634e:	853e                	mv	a0,a5
   16350:	4681                	li	a3,0
   16352:	00000073          	ecall
   16356:	02a4eb63          	bltu	s1,a0,1638c <_ZN18complex_no_dynamic3app17hb36e88d55d5922a1E+0xaa>
   1635a:	4785                	li	a5,1
   1635c:	c3a9                	beqz	a5,1639e <_ZN18complex_no_dynamic3app17hb36e88d55d5922a1E+0xbc>
   1635e:	4601                	li	a2,0
   16360:	4681                	li	a3,0
   16362:	4505                	li	a0,1
   16364:	6709                	lui	a4,0x2
   16366:	87ae                	mv	a5,a1
   16368:	45a1                	li	a1,8
   1636a:	00a40023          	sb	a0,0(s0)
   1636e:	c05c                	sw	a5,4(s0)
   16370:	53e70793          	addi	a5,a4,1342 # 253e <.Lline_table_start1+0x2313>
   16374:	470d                	li	a4,3
   16376:	853e                	mv	a0,a5
   16378:	00000073          	ecall
   1637c:	4589                	li	a1,2
   1637e:	4711                	li	a4,4
   16380:	853e                	mv	a0,a5
   16382:	4601                	li	a2,0
   16384:	4681                	li	a3,0
   16386:	00000073          	ecall
   1638a:	a8b1                	j	163e6 <_ZN18complex_no_dynamic3app17hb36e88d55d5922a1E+0x104>
   1638c:	853e                	mv	a0,a5
   1638e:	4601                	li	a2,0
   16390:	4681                	li	a3,0
   16392:	4781                	li	a5,0
   16394:	45a1                	li	a1,8
   16396:	470d                	li	a4,3
   16398:	00000073          	ecall
   1639c:	f3e9                	bnez	a5,1635e <_ZN18complex_no_dynamic3app17hb36e88d55d5922a1E+0x7c>
   1639e:	6509                	lui	a0,0x2
   163a0:	53e50493          	addi	s1,a0,1342 # 253e <.Lline_table_start1+0x2313>
   163a4:	45a1                	li	a1,8
   163a6:	470d                	li	a4,3
   163a8:	8526                	mv	a0,s1
   163aa:	4601                	li	a2,0
   163ac:	4681                	li	a3,0
   163ae:	00000073          	ecall
   163b2:	00140513          	addi	a0,s0,1
   163b6:	02110593          	addi	a1,sp,33
   163ba:	05300613          	li	a2,83
   163be:	00007097          	auipc	ra,0x7
   163c2:	972080e7          	jalr	-1678(ra) # 1cd30 <memcpy>
   163c6:	8526                	mv	a0,s1
   163c8:	4601                	li	a2,0
   163ca:	4681                	li	a3,0
   163cc:	00040023          	sb	zero,0(s0)
   163d0:	45a1                	li	a1,8
   163d2:	470d                	li	a4,3
   163d4:	00000073          	ecall
   163d8:	4589                	li	a1,2
   163da:	4711                	li	a4,4
   163dc:	8526                	mv	a0,s1
   163de:	4601                	li	a2,0
   163e0:	4681                	li	a3,0
   163e2:	00000073          	ecall
   163e6:	50f6                	lw	ra,124(sp)
   163e8:	5466                	lw	s0,120(sp)
   163ea:	54d6                	lw	s1,116(sp)
   163ec:	6109                	addi	sp,sp,128
   163ee:	8082                	ret

000163f0 <_ZN18complex_no_dynamic3app17hbde440c2f33910a4E>:
   163f0:	7159                	addi	sp,sp,-112
   163f2:	d686                	sw	ra,108(sp)
   163f4:	d4a2                	sw	s0,104(sp)
   163f6:	d2a6                	sw	s1,100(sp)
   163f8:	d0ca                	sw	s2,96(sp)
   163fa:	892a                	mv	s2,a0
   163fc:	00710513          	addi	a0,sp,7
   16400:	04100613          	li	a2,65
   16404:	00007097          	auipc	ra,0x7
   16408:	92c080e7          	jalr	-1748(ra) # 1cd30 <memcpy>
   1640c:	cc82                	sw	zero,88(sp)
   1640e:	ce82                	sw	zero,92(sp)
   16410:	c482                	sw	zero,72(sp)
   16412:	c682                	sw	zero,76(sp)
   16414:	c882                	sw	zero,80(sp)
   16416:	ca82                	sw	zero,84(sp)
   16418:	6509                	lui	a0,0x2
   1641a:	4585                	li	a1,1
   1641c:	00710613          	addi	a2,sp,7
   16420:	04100693          	li	a3,65
   16424:	4711                	li	a4,4
   16426:	15650793          	addi	a5,a0,342 # 2156 <.Lline_table_start1+0x1f2b>
   1642a:	4409                	li	s0,2
   1642c:	853e                	mv	a0,a5
   1642e:	00000073          	ecall
   16432:	4485                	li	s1,1
   16434:	04850463          	beq	a0,s0,1647c <_ZN18complex_no_dynamic3app17hbde440c2f33910a4E+0x8c>
   16438:	45a5                	li	a1,9
   1643a:	00b0                	addi	a2,sp,72
   1643c:	46e1                	li	a3,24
   1643e:	470d                	li	a4,3
   16440:	853e                	mv	a0,a5
   16442:	00000073          	ecall
   16446:	00851463          	bne	a0,s0,1644e <_ZN18complex_no_dynamic3app17hbde440c2f33910a4E+0x5e>
   1644a:	4485                	li	s1,1
   1644c:	a805                	j	1647c <_ZN18complex_no_dynamic3app17hbde440c2f33910a4E+0x8c>
   1644e:	4681                	li	a3,0
   16450:	6509                	lui	a0,0x2
   16452:	4585                	li	a1,1
   16454:	4625                	li	a2,9
   16456:	4709                	li	a4,2
   16458:	15650793          	addi	a5,a0,342 # 2156 <.Lline_table_start1+0x1f2b>
   1645c:	07f00413          	li	s0,127
   16460:	853e                	mv	a0,a5
   16462:	00000073          	ecall
   16466:	4485                	li	s1,1
   16468:	00a47a63          	bgeu	s0,a0,1647c <_ZN18complex_no_dynamic3app17hbde440c2f33910a4E+0x8c>
   1646c:	853e                	mv	a0,a5
   1646e:	4601                	li	a2,0
   16470:	4681                	li	a3,0
   16472:	4481                	li	s1,0
   16474:	45a5                	li	a1,9
   16476:	470d                	li	a4,3
   16478:	00000073          	ecall
   1647c:	c88d                	beqz	s1,164ae <_ZN18complex_no_dynamic3app17hbde440c2f33910a4E+0xbe>
   1647e:	4601                	li	a2,0
   16480:	4681                	li	a3,0
   16482:	4505                	li	a0,1
   16484:	6709                	lui	a4,0x2
   16486:	87ae                	mv	a5,a1
   16488:	45a5                	li	a1,9
   1648a:	00a90023          	sb	a0,0(s2)
   1648e:	00f92223          	sw	a5,4(s2)
   16492:	15670793          	addi	a5,a4,342 # 2156 <.Lline_table_start1+0x1f2b>
   16496:	470d                	li	a4,3
   16498:	853e                	mv	a0,a5
   1649a:	00000073          	ecall
   1649e:	4585                	li	a1,1
   164a0:	4711                	li	a4,4
   164a2:	853e                	mv	a0,a5
   164a4:	4601                	li	a2,0
   164a6:	4681                	li	a3,0
   164a8:	00000073          	ecall
   164ac:	a099                	j	164f2 <_ZN18complex_no_dynamic3app17hbde440c2f33910a4E+0x102>
   164ae:	6509                	lui	a0,0x2
   164b0:	15650493          	addi	s1,a0,342 # 2156 <.Lline_table_start1+0x1f2b>
   164b4:	45a5                	li	a1,9
   164b6:	470d                	li	a4,3
   164b8:	8526                	mv	a0,s1
   164ba:	4601                	li	a2,0
   164bc:	4681                	li	a3,0
   164be:	00000073          	ecall
   164c2:	00190513          	addi	a0,s2,1
   164c6:	00ac                	addi	a1,sp,72
   164c8:	4661                	li	a2,24
   164ca:	00007097          	auipc	ra,0x7
   164ce:	866080e7          	jalr	-1946(ra) # 1cd30 <memcpy>
   164d2:	8526                	mv	a0,s1
   164d4:	4601                	li	a2,0
   164d6:	4681                	li	a3,0
   164d8:	00090023          	sb	zero,0(s2)
   164dc:	45a5                	li	a1,9
   164de:	470d                	li	a4,3
   164e0:	00000073          	ecall
   164e4:	4585                	li	a1,1
   164e6:	4711                	li	a4,4
   164e8:	8526                	mv	a0,s1
   164ea:	4601                	li	a2,0
   164ec:	4681                	li	a3,0
   164ee:	00000073          	ecall
   164f2:	50b6                	lw	ra,108(sp)
   164f4:	5426                	lw	s0,104(sp)
   164f6:	5496                	lw	s1,100(sp)
   164f8:	5906                	lw	s2,96(sp)
   164fa:	6165                	addi	sp,sp,112
   164fc:	8082                	ret

000164fe <_ZN18complex_no_dynamic3app17hbdf66a7c94012549E>:
   164fe:	7159                	addi	sp,sp,-112
   16500:	d686                	sw	ra,108(sp)
   16502:	d4a2                	sw	s0,104(sp)
   16504:	d2a6                	sw	s1,100(sp)
   16506:	842a                	mv	s0,a0
   16508:	0068                	addi	a0,sp,12
   1650a:	04800613          	li	a2,72
   1650e:	00007097          	auipc	ra,0x7
   16512:	822080e7          	jalr	-2014(ra) # 1cd30 <memcpy>
   16516:	06010123          	sb	zero,98(sp)
   1651a:	ca82                	sw	zero,84(sp)
   1651c:	cc82                	sw	zero,88(sp)
   1651e:	ce82                	sw	zero,92(sp)
   16520:	06011023          	sh	zero,96(sp)
   16524:	6505                	lui	a0,0x1
   16526:	45a1                	li	a1,8
   16528:	0070                	addi	a2,sp,12
   1652a:	04800693          	li	a3,72
   1652e:	11d50793          	addi	a5,a0,285 # 111d <.Lline_table_start1+0xef2>
   16532:	4711                	li	a4,4
   16534:	4489                	li	s1,2
   16536:	853e                	mv	a0,a5
   16538:	00000073          	ecall
   1653c:	02950963          	beq	a0,s1,1656e <_ZN18complex_no_dynamic3app17hbdf66a7c94012549E+0x70>
   16540:	45a5                	li	a1,9
   16542:	08d0                	addi	a2,sp,84
   16544:	46bd                	li	a3,15
   16546:	470d                	li	a4,3
   16548:	853e                	mv	a0,a5
   1654a:	00000073          	ecall
   1654e:	02950063          	beq	a0,s1,1656e <_ZN18complex_no_dynamic3app17hbdf66a7c94012549E+0x70>
   16552:	6505                	lui	a0,0x1
   16554:	45a1                	li	a1,8
   16556:	4625                	li	a2,9
   16558:	11d50793          	addi	a5,a0,285 # 111d <.Lline_table_start1+0xef2>
   1655c:	4709                	li	a4,2
   1655e:	07f00493          	li	s1,127
   16562:	853e                	mv	a0,a5
   16564:	4681                	li	a3,0
   16566:	00000073          	ecall
   1656a:	02a4eb63          	bltu	s1,a0,165a0 <_ZN18complex_no_dynamic3app17hbdf66a7c94012549E+0xa2>
   1656e:	4785                	li	a5,1
   16570:	c3a9                	beqz	a5,165b2 <_ZN18complex_no_dynamic3app17hbdf66a7c94012549E+0xb4>
   16572:	4601                	li	a2,0
   16574:	4681                	li	a3,0
   16576:	4505                	li	a0,1
   16578:	6705                	lui	a4,0x1
   1657a:	87ae                	mv	a5,a1
   1657c:	45a5                	li	a1,9
   1657e:	00a40023          	sb	a0,0(s0)
   16582:	c05c                	sw	a5,4(s0)
   16584:	11d70793          	addi	a5,a4,285 # 111d <.Lline_table_start1+0xef2>
   16588:	470d                	li	a4,3
   1658a:	853e                	mv	a0,a5
   1658c:	00000073          	ecall
   16590:	45a1                	li	a1,8
   16592:	4711                	li	a4,4
   16594:	853e                	mv	a0,a5
   16596:	4601                	li	a2,0
   16598:	4681                	li	a3,0
   1659a:	00000073          	ecall
   1659e:	a8a1                	j	165f6 <_ZN18complex_no_dynamic3app17hbdf66a7c94012549E+0xf8>
   165a0:	853e                	mv	a0,a5
   165a2:	4601                	li	a2,0
   165a4:	4681                	li	a3,0
   165a6:	4781                	li	a5,0
   165a8:	45a5                	li	a1,9
   165aa:	470d                	li	a4,3
   165ac:	00000073          	ecall
   165b0:	f3e9                	bnez	a5,16572 <_ZN18complex_no_dynamic3app17hbdf66a7c94012549E+0x74>
   165b2:	6505                	lui	a0,0x1
   165b4:	11d50493          	addi	s1,a0,285 # 111d <.Lline_table_start1+0xef2>
   165b8:	45a5                	li	a1,9
   165ba:	470d                	li	a4,3
   165bc:	8526                	mv	a0,s1
   165be:	4601                	li	a2,0
   165c0:	4681                	li	a3,0
   165c2:	00000073          	ecall
   165c6:	00140513          	addi	a0,s0,1
   165ca:	08cc                	addi	a1,sp,84
   165cc:	463d                	li	a2,15
   165ce:	00006097          	auipc	ra,0x6
   165d2:	762080e7          	jalr	1890(ra) # 1cd30 <memcpy>
   165d6:	8526                	mv	a0,s1
   165d8:	4601                	li	a2,0
   165da:	4681                	li	a3,0
   165dc:	00040023          	sb	zero,0(s0)
   165e0:	45a5                	li	a1,9
   165e2:	470d                	li	a4,3
   165e4:	00000073          	ecall
   165e8:	45a1                	li	a1,8
   165ea:	4711                	li	a4,4
   165ec:	8526                	mv	a0,s1
   165ee:	4601                	li	a2,0
   165f0:	4681                	li	a3,0
   165f2:	00000073          	ecall
   165f6:	50b6                	lw	ra,108(sp)
   165f8:	5426                	lw	s0,104(sp)
   165fa:	5496                	lw	s1,100(sp)
   165fc:	6165                	addi	sp,sp,112
   165fe:	8082                	ret

00016600 <_ZN18complex_no_dynamic3app17hbf313343417210daE>:
   16600:	7159                	addi	sp,sp,-112
   16602:	d686                	sw	ra,108(sp)
   16604:	d4a2                	sw	s0,104(sp)
   16606:	d2a6                	sw	s1,100(sp)
   16608:	842a                	mv	s0,a0
   1660a:	00e10513          	addi	a0,sp,14
   1660e:	02c00613          	li	a2,44
   16612:	00006097          	auipc	ra,0x6
   16616:	71e080e7          	jalr	1822(ra) # 1cd30 <memcpy>
   1661a:	03a10513          	addi	a0,sp,58
   1661e:	02a00613          	li	a2,42
   16622:	4581                	li	a1,0
   16624:	00006097          	auipc	ra,0x6
   16628:	6a0080e7          	jalr	1696(ra) # 1ccc4 <memset>
   1662c:	6509                	lui	a0,0x2
   1662e:	458d                	li	a1,3
   16630:	00e10613          	addi	a2,sp,14
   16634:	02c00693          	li	a3,44
   16638:	4f050793          	addi	a5,a0,1264 # 24f0 <.Lline_table_start1+0x22c5>
   1663c:	4711                	li	a4,4
   1663e:	4489                	li	s1,2
   16640:	853e                	mv	a0,a5
   16642:	00000073          	ecall
   16646:	02950b63          	beq	a0,s1,1667c <_ZN18complex_no_dynamic3app17hbf313343417210daE+0x7c>
   1664a:	03a10613          	addi	a2,sp,58
   1664e:	02a00693          	li	a3,42
   16652:	470d                	li	a4,3
   16654:	853e                	mv	a0,a5
   16656:	4581                	li	a1,0
   16658:	00000073          	ecall
   1665c:	02950063          	beq	a0,s1,1667c <_ZN18complex_no_dynamic3app17hbf313343417210daE+0x7c>
   16660:	6509                	lui	a0,0x2
   16662:	458d                	li	a1,3
   16664:	4f050793          	addi	a5,a0,1264 # 24f0 <.Lline_table_start1+0x22c5>
   16668:	4709                	li	a4,2
   1666a:	07f00493          	li	s1,127
   1666e:	853e                	mv	a0,a5
   16670:	4601                	li	a2,0
   16672:	4681                	li	a3,0
   16674:	00000073          	ecall
   16678:	02a4eb63          	bltu	s1,a0,166ae <_ZN18complex_no_dynamic3app17hbf313343417210daE+0xae>
   1667c:	4785                	li	a5,1
   1667e:	c3a9                	beqz	a5,166c0 <_ZN18complex_no_dynamic3app17hbf313343417210daE+0xc0>
   16680:	852e                	mv	a0,a1
   16682:	4581                	li	a1,0
   16684:	4601                	li	a2,0
   16686:	4681                	li	a3,0
   16688:	4705                	li	a4,1
   1668a:	6789                	lui	a5,0x2
   1668c:	00e40023          	sb	a4,0(s0)
   16690:	c048                	sw	a0,4(s0)
   16692:	4f078793          	addi	a5,a5,1264 # 24f0 <.Lline_table_start1+0x22c5>
   16696:	470d                	li	a4,3
   16698:	853e                	mv	a0,a5
   1669a:	00000073          	ecall
   1669e:	458d                	li	a1,3
   166a0:	4711                	li	a4,4
   166a2:	853e                	mv	a0,a5
   166a4:	4601                	li	a2,0
   166a6:	4681                	li	a3,0
   166a8:	00000073          	ecall
   166ac:	a8b1                	j	16708 <_ZN18complex_no_dynamic3app17hbf313343417210daE+0x108>
   166ae:	853e                	mv	a0,a5
   166b0:	4581                	li	a1,0
   166b2:	4601                	li	a2,0
   166b4:	4681                	li	a3,0
   166b6:	4781                	li	a5,0
   166b8:	470d                	li	a4,3
   166ba:	00000073          	ecall
   166be:	f3e9                	bnez	a5,16680 <_ZN18complex_no_dynamic3app17hbf313343417210daE+0x80>
   166c0:	6509                	lui	a0,0x2
   166c2:	4f050493          	addi	s1,a0,1264 # 24f0 <.Lline_table_start1+0x22c5>
   166c6:	470d                	li	a4,3
   166c8:	8526                	mv	a0,s1
   166ca:	4581                	li	a1,0
   166cc:	4601                	li	a2,0
   166ce:	4681                	li	a3,0
   166d0:	00000073          	ecall
   166d4:	00140513          	addi	a0,s0,1
   166d8:	03a10593          	addi	a1,sp,58
   166dc:	02a00613          	li	a2,42
   166e0:	00006097          	auipc	ra,0x6
   166e4:	650080e7          	jalr	1616(ra) # 1cd30 <memcpy>
   166e8:	8526                	mv	a0,s1
   166ea:	4581                	li	a1,0
   166ec:	4601                	li	a2,0
   166ee:	4681                	li	a3,0
   166f0:	00040023          	sb	zero,0(s0)
   166f4:	470d                	li	a4,3
   166f6:	00000073          	ecall
   166fa:	458d                	li	a1,3
   166fc:	4711                	li	a4,4
   166fe:	8526                	mv	a0,s1
   16700:	4601                	li	a2,0
   16702:	4681                	li	a3,0
   16704:	00000073          	ecall
   16708:	50b6                	lw	ra,108(sp)
   1670a:	5426                	lw	s0,104(sp)
   1670c:	5496                	lw	s1,100(sp)
   1670e:	6165                	addi	sp,sp,112
   16710:	8082                	ret

00016712 <_ZN18complex_no_dynamic3app17hc490b6c50fc769f7E>:
   16712:	7139                	addi	sp,sp,-64
   16714:	de06                	sw	ra,60(sp)
   16716:	dc22                	sw	s0,56(sp)
   16718:	da26                	sw	s1,52(sp)
   1671a:	d84a                	sw	s2,48(sp)
   1671c:	892a                	mv	s2,a0
   1671e:	00c5c503          	lbu	a0,12(a1)
   16722:	00d5c603          	lbu	a2,13(a1)
   16726:	00e5c683          	lbu	a3,14(a1)
   1672a:	0085c703          	lbu	a4,8(a1)
   1672e:	0095c783          	lbu	a5,9(a1)
   16732:	00a5c483          	lbu	s1,10(a1)
   16736:	00b5c403          	lbu	s0,11(a1)
   1673a:	00d10d23          	sb	a3,26(sp)
   1673e:	0622                	slli	a2,a2,0x8
   16740:	07a2                	slli	a5,a5,0x8
   16742:	00a66833          	or	a6,a2,a0
   16746:	8f5d                	or	a4,a4,a5
   16748:	0045c603          	lbu	a2,4(a1)
   1674c:	0055c683          	lbu	a3,5(a1)
   16750:	0065c783          	lbu	a5,6(a1)
   16754:	0075c503          	lbu	a0,7(a1)
   16758:	04c2                	slli	s1,s1,0x10
   1675a:	0462                	slli	s0,s0,0x18
   1675c:	06a2                	slli	a3,a3,0x8
   1675e:	07c2                	slli	a5,a5,0x10
   16760:	0562                	slli	a0,a0,0x18
   16762:	8c45                	or	s0,s0,s1
   16764:	8ed1                	or	a3,a3,a2
   16766:	8d5d                	or	a0,a0,a5
   16768:	0005c603          	lbu	a2,0(a1)
   1676c:	0015c783          	lbu	a5,1(a1)
   16770:	0025c483          	lbu	s1,2(a1)
   16774:	0035c583          	lbu	a1,3(a1)
   16778:	02011623          	sh	zero,44(sp)
   1677c:	02010723          	sb	zero,46(sp)
   16780:	ce02                	sw	zero,28(sp)
   16782:	d002                	sw	zero,32(sp)
   16784:	d202                	sw	zero,36(sp)
   16786:	d402                	sw	zero,40(sp)
   16788:	07a2                	slli	a5,a5,0x8
   1678a:	8fd1                	or	a5,a5,a2
   1678c:	6889                	lui	a7,0x2
   1678e:	04c2                	slli	s1,s1,0x10
   16790:	05e2                	slli	a1,a1,0x18
   16792:	8ccd                	or	s1,s1,a1
   16794:	458d                	li	a1,3
   16796:	8c59                	or	s0,s0,a4
   16798:	0070                	addi	a2,sp,12
   1679a:	8d55                	or	a0,a0,a3
   1679c:	46bd                	li	a3,15
   1679e:	8cdd                	or	s1,s1,a5
   167a0:	4711                	li	a4,4
   167a2:	e4b88793          	addi	a5,a7,-437 # 1e4b <.Lline_table_start1+0x1c20>
   167a6:	c626                	sw	s1,12(sp)
   167a8:	c82a                	sw	a0,16(sp)
   167aa:	ca22                	sw	s0,20(sp)
   167ac:	01011c23          	sh	a6,24(sp)
   167b0:	4489                	li	s1,2
   167b2:	853e                	mv	a0,a5
   167b4:	00000073          	ecall
   167b8:	02950963          	beq	a0,s1,167ea <_ZN18complex_no_dynamic3app17hc490b6c50fc769f7E+0xd8>
   167bc:	0870                	addi	a2,sp,28
   167be:	46cd                	li	a3,19
   167c0:	470d                	li	a4,3
   167c2:	853e                	mv	a0,a5
   167c4:	4581                	li	a1,0
   167c6:	00000073          	ecall
   167ca:	02950063          	beq	a0,s1,167ea <_ZN18complex_no_dynamic3app17hc490b6c50fc769f7E+0xd8>
   167ce:	6509                	lui	a0,0x2
   167d0:	458d                	li	a1,3
   167d2:	e4b50793          	addi	a5,a0,-437 # 1e4b <.Lline_table_start1+0x1c20>
   167d6:	4709                	li	a4,2
   167d8:	07f00493          	li	s1,127
   167dc:	853e                	mv	a0,a5
   167de:	4601                	li	a2,0
   167e0:	4681                	li	a3,0
   167e2:	00000073          	ecall
   167e6:	02a4ec63          	bltu	s1,a0,1681e <_ZN18complex_no_dynamic3app17hc490b6c50fc769f7E+0x10c>
   167ea:	4785                	li	a5,1
   167ec:	c3b1                	beqz	a5,16830 <_ZN18complex_no_dynamic3app17hc490b6c50fc769f7E+0x11e>
   167ee:	852e                	mv	a0,a1
   167f0:	4581                	li	a1,0
   167f2:	4601                	li	a2,0
   167f4:	4681                	li	a3,0
   167f6:	4705                	li	a4,1
   167f8:	6789                	lui	a5,0x2
   167fa:	00e90023          	sb	a4,0(s2)
   167fe:	00a92223          	sw	a0,4(s2)
   16802:	e4b78793          	addi	a5,a5,-437 # 1e4b <.Lline_table_start1+0x1c20>
   16806:	470d                	li	a4,3
   16808:	853e                	mv	a0,a5
   1680a:	00000073          	ecall
   1680e:	458d                	li	a1,3
   16810:	4711                	li	a4,4
   16812:	853e                	mv	a0,a5
   16814:	4601                	li	a2,0
   16816:	4681                	li	a3,0
   16818:	00000073          	ecall
   1681c:	a8a1                	j	16874 <_ZN18complex_no_dynamic3app17hc490b6c50fc769f7E+0x162>
   1681e:	853e                	mv	a0,a5
   16820:	4581                	li	a1,0
   16822:	4601                	li	a2,0
   16824:	4681                	li	a3,0
   16826:	4781                	li	a5,0
   16828:	470d                	li	a4,3
   1682a:	00000073          	ecall
   1682e:	f3e1                	bnez	a5,167ee <_ZN18complex_no_dynamic3app17hc490b6c50fc769f7E+0xdc>
   16830:	6509                	lui	a0,0x2
   16832:	e4b50493          	addi	s1,a0,-437 # 1e4b <.Lline_table_start1+0x1c20>
   16836:	470d                	li	a4,3
   16838:	8526                	mv	a0,s1
   1683a:	4581                	li	a1,0
   1683c:	4601                	li	a2,0
   1683e:	4681                	li	a3,0
   16840:	00000073          	ecall
   16844:	00190513          	addi	a0,s2,1
   16848:	086c                	addi	a1,sp,28
   1684a:	464d                	li	a2,19
   1684c:	00006097          	auipc	ra,0x6
   16850:	4e4080e7          	jalr	1252(ra) # 1cd30 <memcpy>
   16854:	8526                	mv	a0,s1
   16856:	4581                	li	a1,0
   16858:	4601                	li	a2,0
   1685a:	4681                	li	a3,0
   1685c:	00090023          	sb	zero,0(s2)
   16860:	470d                	li	a4,3
   16862:	00000073          	ecall
   16866:	458d                	li	a1,3
   16868:	4711                	li	a4,4
   1686a:	8526                	mv	a0,s1
   1686c:	4601                	li	a2,0
   1686e:	4681                	li	a3,0
   16870:	00000073          	ecall
   16874:	50f2                	lw	ra,60(sp)
   16876:	5462                	lw	s0,56(sp)
   16878:	54d2                	lw	s1,52(sp)
   1687a:	5942                	lw	s2,48(sp)
   1687c:	6121                	addi	sp,sp,64
   1687e:	8082                	ret

00016880 <_ZN18complex_no_dynamic3app17hc76620f5ca31a83aE>:
   16880:	7159                	addi	sp,sp,-112
   16882:	d686                	sw	ra,108(sp)
   16884:	d4a2                	sw	s0,104(sp)
   16886:	d2a6                	sw	s1,100(sp)
   16888:	d0ca                	sw	s2,96(sp)
   1688a:	892a                	mv	s2,a0
   1688c:	00c5c503          	lbu	a0,12(a1)
   16890:	00d5c603          	lbu	a2,13(a1)
   16894:	00e5c683          	lbu	a3,14(a1)
   16898:	0085c703          	lbu	a4,8(a1)
   1689c:	0095c783          	lbu	a5,9(a1)
   168a0:	00a5c483          	lbu	s1,10(a1)
   168a4:	00b5c403          	lbu	s0,11(a1)
   168a8:	00d10b23          	sb	a3,22(sp)
   168ac:	0622                	slli	a2,a2,0x8
   168ae:	07a2                	slli	a5,a5,0x8
   168b0:	00a66833          	or	a6,a2,a0
   168b4:	8f5d                	or	a4,a4,a5
   168b6:	0045c603          	lbu	a2,4(a1)
   168ba:	0055c683          	lbu	a3,5(a1)
   168be:	0065c783          	lbu	a5,6(a1)
   168c2:	0075c503          	lbu	a0,7(a1)
   168c6:	04c2                	slli	s1,s1,0x10
   168c8:	0462                	slli	s0,s0,0x18
   168ca:	06a2                	slli	a3,a3,0x8
   168cc:	07c2                	slli	a5,a5,0x10
   168ce:	0562                	slli	a0,a0,0x18
   168d0:	8c45                	or	s0,s0,s1
   168d2:	8e55                	or	a2,a2,a3
   168d4:	0005c683          	lbu	a3,0(a1)
   168d8:	0015c483          	lbu	s1,1(a1)
   168dc:	8d5d                	or	a0,a0,a5
   168de:	0025c783          	lbu	a5,2(a1)
   168e2:	0035c583          	lbu	a1,3(a1)
   168e6:	04a2                	slli	s1,s1,0x8
   168e8:	8ec5                	or	a3,a3,s1
   168ea:	07c2                	slli	a5,a5,0x10
   168ec:	05e2                	slli	a1,a1,0x18
   168ee:	8ddd                	or	a1,a1,a5
   168f0:	8f41                	or	a4,a4,s0
   168f2:	8d51                	or	a0,a0,a2
   168f4:	8dd5                	or	a1,a1,a3
   168f6:	c42e                	sw	a1,8(sp)
   168f8:	c62a                	sw	a0,12(sp)
   168fa:	c83a                	sw	a4,16(sp)
   168fc:	01011a23          	sh	a6,20(sp)
   16900:	01a10513          	addi	a0,sp,26
   16904:	04600613          	li	a2,70
   16908:	4581                	li	a1,0
   1690a:	00006097          	auipc	ra,0x6
   1690e:	3ba080e7          	jalr	954(ra) # 1ccc4 <memset>
   16912:	6509                	lui	a0,0x2
   16914:	45a5                	li	a1,9
   16916:	0030                	addi	a2,sp,8
   16918:	46bd                	li	a3,15
   1691a:	d7e50793          	addi	a5,a0,-642 # 1d7e <.Lline_table_start1+0x1b53>
   1691e:	4711                	li	a4,4
   16920:	4489                	li	s1,2
   16922:	853e                	mv	a0,a5
   16924:	00000073          	ecall
   16928:	02950b63          	beq	a0,s1,1695e <_ZN18complex_no_dynamic3app17hc76620f5ca31a83aE+0xde>
   1692c:	4589                	li	a1,2
   1692e:	01a10613          	addi	a2,sp,26
   16932:	04600693          	li	a3,70
   16936:	470d                	li	a4,3
   16938:	853e                	mv	a0,a5
   1693a:	00000073          	ecall
   1693e:	02950063          	beq	a0,s1,1695e <_ZN18complex_no_dynamic3app17hc76620f5ca31a83aE+0xde>
   16942:	6509                	lui	a0,0x2
   16944:	45a5                	li	a1,9
   16946:	4609                	li	a2,2
   16948:	d7e50793          	addi	a5,a0,-642 # 1d7e <.Lline_table_start1+0x1b53>
   1694c:	4709                	li	a4,2
   1694e:	07f00493          	li	s1,127
   16952:	853e                	mv	a0,a5
   16954:	4681                	li	a3,0
   16956:	00000073          	ecall
   1695a:	02a4ec63          	bltu	s1,a0,16992 <_ZN18complex_no_dynamic3app17hc76620f5ca31a83aE+0x112>
   1695e:	4785                	li	a5,1
   16960:	c3b1                	beqz	a5,169a4 <_ZN18complex_no_dynamic3app17hc76620f5ca31a83aE+0x124>
   16962:	4601                	li	a2,0
   16964:	4681                	li	a3,0
   16966:	4505                	li	a0,1
   16968:	6709                	lui	a4,0x2
   1696a:	87ae                	mv	a5,a1
   1696c:	4589                	li	a1,2
   1696e:	00a90023          	sb	a0,0(s2)
   16972:	00f92223          	sw	a5,4(s2)
   16976:	d7e70793          	addi	a5,a4,-642 # 1d7e <.Lline_table_start1+0x1b53>
   1697a:	470d                	li	a4,3
   1697c:	853e                	mv	a0,a5
   1697e:	00000073          	ecall
   16982:	45a5                	li	a1,9
   16984:	4711                	li	a4,4
   16986:	853e                	mv	a0,a5
   16988:	4601                	li	a2,0
   1698a:	4681                	li	a3,0
   1698c:	00000073          	ecall
   16990:	a8b1                	j	169ec <_ZN18complex_no_dynamic3app17hc76620f5ca31a83aE+0x16c>
   16992:	853e                	mv	a0,a5
   16994:	4601                	li	a2,0
   16996:	4681                	li	a3,0
   16998:	4781                	li	a5,0
   1699a:	4589                	li	a1,2
   1699c:	470d                	li	a4,3
   1699e:	00000073          	ecall
   169a2:	f3e1                	bnez	a5,16962 <_ZN18complex_no_dynamic3app17hc76620f5ca31a83aE+0xe2>
   169a4:	6509                	lui	a0,0x2
   169a6:	d7e50493          	addi	s1,a0,-642 # 1d7e <.Lline_table_start1+0x1b53>
   169aa:	4589                	li	a1,2
   169ac:	470d                	li	a4,3
   169ae:	8526                	mv	a0,s1
   169b0:	4601                	li	a2,0
   169b2:	4681                	li	a3,0
   169b4:	00000073          	ecall
   169b8:	00190513          	addi	a0,s2,1
   169bc:	01a10593          	addi	a1,sp,26
   169c0:	04600613          	li	a2,70
   169c4:	00006097          	auipc	ra,0x6
   169c8:	36c080e7          	jalr	876(ra) # 1cd30 <memcpy>
   169cc:	8526                	mv	a0,s1
   169ce:	4601                	li	a2,0
   169d0:	4681                	li	a3,0
   169d2:	00090023          	sb	zero,0(s2)
   169d6:	4589                	li	a1,2
   169d8:	470d                	li	a4,3
   169da:	00000073          	ecall
   169de:	45a5                	li	a1,9
   169e0:	4711                	li	a4,4
   169e2:	8526                	mv	a0,s1
   169e4:	4601                	li	a2,0
   169e6:	4681                	li	a3,0
   169e8:	00000073          	ecall
   169ec:	50b6                	lw	ra,108(sp)
   169ee:	5426                	lw	s0,104(sp)
   169f0:	5496                	lw	s1,100(sp)
   169f2:	5906                	lw	s2,96(sp)
   169f4:	6165                	addi	sp,sp,112
   169f6:	8082                	ret

000169f8 <_ZN18complex_no_dynamic3app17hc7758002f305b662E>:
   169f8:	7171                	addi	sp,sp,-176
   169fa:	d706                	sw	ra,172(sp)
   169fc:	d522                	sw	s0,168(sp)
   169fe:	d326                	sw	s1,164(sp)
   16a00:	842a                	mv	s0,a0
   16a02:	00510513          	addi	a0,sp,5
   16a06:	05600613          	li	a2,86
   16a0a:	00006097          	auipc	ra,0x6
   16a0e:	326080e7          	jalr	806(ra) # 1cd30 <memcpy>
   16a12:	05b10513          	addi	a0,sp,91
   16a16:	04900613          	li	a2,73
   16a1a:	4581                	li	a1,0
   16a1c:	00006097          	auipc	ra,0x6
   16a20:	2a8080e7          	jalr	680(ra) # 1ccc4 <memset>
   16a24:	6509                	lui	a0,0x2
   16a26:	4599                	li	a1,6
   16a28:	00510613          	addi	a2,sp,5
   16a2c:	05600693          	li	a3,86
   16a30:	c6b50793          	addi	a5,a0,-917 # 1c6b <.Lline_table_start1+0x1a40>
   16a34:	4711                	li	a4,4
   16a36:	4489                	li	s1,2
   16a38:	853e                	mv	a0,a5
   16a3a:	00000073          	ecall
   16a3e:	02950b63          	beq	a0,s1,16a74 <_ZN18complex_no_dynamic3app17hc7758002f305b662E+0x7c>
   16a42:	4599                	li	a1,6
   16a44:	05b10613          	addi	a2,sp,91
   16a48:	04900693          	li	a3,73
   16a4c:	470d                	li	a4,3
   16a4e:	853e                	mv	a0,a5
   16a50:	00000073          	ecall
   16a54:	02950063          	beq	a0,s1,16a74 <_ZN18complex_no_dynamic3app17hc7758002f305b662E+0x7c>
   16a58:	6509                	lui	a0,0x2
   16a5a:	4599                	li	a1,6
   16a5c:	4619                	li	a2,6
   16a5e:	c6b50793          	addi	a5,a0,-917 # 1c6b <.Lline_table_start1+0x1a40>
   16a62:	4709                	li	a4,2
   16a64:	07f00493          	li	s1,127
   16a68:	853e                	mv	a0,a5
   16a6a:	4681                	li	a3,0
   16a6c:	00000073          	ecall
   16a70:	02a4eb63          	bltu	s1,a0,16aa6 <_ZN18complex_no_dynamic3app17hc7758002f305b662E+0xae>
   16a74:	4785                	li	a5,1
   16a76:	c3a9                	beqz	a5,16ab8 <_ZN18complex_no_dynamic3app17hc7758002f305b662E+0xc0>
   16a78:	4601                	li	a2,0
   16a7a:	4681                	li	a3,0
   16a7c:	4505                	li	a0,1
   16a7e:	6709                	lui	a4,0x2
   16a80:	87ae                	mv	a5,a1
   16a82:	4599                	li	a1,6
   16a84:	00a40023          	sb	a0,0(s0)
   16a88:	c05c                	sw	a5,4(s0)
   16a8a:	c6b70793          	addi	a5,a4,-917 # 1c6b <.Lline_table_start1+0x1a40>
   16a8e:	470d                	li	a4,3
   16a90:	853e                	mv	a0,a5
   16a92:	00000073          	ecall
   16a96:	4599                	li	a1,6
   16a98:	4711                	li	a4,4
   16a9a:	853e                	mv	a0,a5
   16a9c:	4601                	li	a2,0
   16a9e:	4681                	li	a3,0
   16aa0:	00000073          	ecall
   16aa4:	a8b1                	j	16b00 <_ZN18complex_no_dynamic3app17hc7758002f305b662E+0x108>
   16aa6:	853e                	mv	a0,a5
   16aa8:	4601                	li	a2,0
   16aaa:	4681                	li	a3,0
   16aac:	4781                	li	a5,0
   16aae:	4599                	li	a1,6
   16ab0:	470d                	li	a4,3
   16ab2:	00000073          	ecall
   16ab6:	f3e9                	bnez	a5,16a78 <_ZN18complex_no_dynamic3app17hc7758002f305b662E+0x80>
   16ab8:	6509                	lui	a0,0x2
   16aba:	c6b50493          	addi	s1,a0,-917 # 1c6b <.Lline_table_start1+0x1a40>
   16abe:	4599                	li	a1,6
   16ac0:	470d                	li	a4,3
   16ac2:	8526                	mv	a0,s1
   16ac4:	4601                	li	a2,0
   16ac6:	4681                	li	a3,0
   16ac8:	00000073          	ecall
   16acc:	00140513          	addi	a0,s0,1
   16ad0:	05b10593          	addi	a1,sp,91
   16ad4:	04900613          	li	a2,73
   16ad8:	00006097          	auipc	ra,0x6
   16adc:	258080e7          	jalr	600(ra) # 1cd30 <memcpy>
   16ae0:	8526                	mv	a0,s1
   16ae2:	4601                	li	a2,0
   16ae4:	4681                	li	a3,0
   16ae6:	00040023          	sb	zero,0(s0)
   16aea:	4599                	li	a1,6
   16aec:	470d                	li	a4,3
   16aee:	00000073          	ecall
   16af2:	4599                	li	a1,6
   16af4:	4711                	li	a4,4
   16af6:	8526                	mv	a0,s1
   16af8:	4601                	li	a2,0
   16afa:	4681                	li	a3,0
   16afc:	00000073          	ecall
   16b00:	50ba                	lw	ra,172(sp)
   16b02:	542a                	lw	s0,168(sp)
   16b04:	549a                	lw	s1,164(sp)
   16b06:	614d                	addi	sp,sp,176
   16b08:	8082                	ret

00016b0a <_ZN18complex_no_dynamic3app17hc925b3b5f70d2e87E>:
   16b0a:	7139                	addi	sp,sp,-64
   16b0c:	de06                	sw	ra,60(sp)
   16b0e:	dc22                	sw	s0,56(sp)
   16b10:	da26                	sw	s1,52(sp)
   16b12:	d84a                	sw	s2,48(sp)
   16b14:	892a                	mv	s2,a0
   16b16:	0085c803          	lbu	a6,8(a1)
   16b1a:	0095c603          	lbu	a2,9(a1)
   16b1e:	00a5c683          	lbu	a3,10(a1)
   16b22:	00b5c703          	lbu	a4,11(a1)
   16b26:	0045c783          	lbu	a5,4(a1)
   16b2a:	0055c483          	lbu	s1,5(a1)
   16b2e:	0065c403          	lbu	s0,6(a1)
   16b32:	0075c503          	lbu	a0,7(a1)
   16b36:	0622                	slli	a2,a2,0x8
   16b38:	06c2                	slli	a3,a3,0x10
   16b3a:	0762                	slli	a4,a4,0x18
   16b3c:	04a2                	slli	s1,s1,0x8
   16b3e:	0442                	slli	s0,s0,0x10
   16b40:	0562                	slli	a0,a0,0x18
   16b42:	01066833          	or	a6,a2,a6
   16b46:	8ed9                	or	a3,a3,a4
   16b48:	8fc5                	or	a5,a5,s1
   16b4a:	0005c703          	lbu	a4,0(a1)
   16b4e:	0015c483          	lbu	s1,1(a1)
   16b52:	8d41                	or	a0,a0,s0
   16b54:	0025c403          	lbu	s0,2(a1)
   16b58:	0035c603          	lbu	a2,3(a1)
   16b5c:	04a2                	slli	s1,s1,0x8
   16b5e:	8f45                	or	a4,a4,s1
   16b60:	0442                	slli	s0,s0,0x10
   16b62:	0662                	slli	a2,a2,0x18
   16b64:	8e41                	or	a2,a2,s0
   16b66:	0106e6b3          	or	a3,a3,a6
   16b6a:	8d5d                	or	a0,a0,a5
   16b6c:	8e59                	or	a2,a2,a4
   16b6e:	00c5c583          	lbu	a1,12(a1)
   16b72:	c032                	sw	a2,0(sp)
   16b74:	c22a                	sw	a0,4(sp)
   16b76:	c436                	sw	a3,8(sp)
   16b78:	00b10623          	sb	a1,12(sp)
   16b7c:	00f10513          	addi	a0,sp,15
   16b80:	02100613          	li	a2,33
   16b84:	4581                	li	a1,0
   16b86:	00006097          	auipc	ra,0x6
   16b8a:	13e080e7          	jalr	318(ra) # 1ccc4 <memset>
   16b8e:	6505                	lui	a0,0x1
   16b90:	860a                	mv	a2,sp
   16b92:	46b5                	li	a3,13
   16b94:	6b050793          	addi	a5,a0,1712 # 16b0 <.Lline_table_start1+0x1485>
   16b98:	4711                	li	a4,4
   16b9a:	4489                	li	s1,2
   16b9c:	853e                	mv	a0,a5
   16b9e:	4581                	li	a1,0
   16ba0:	00000073          	ecall
   16ba4:	02950b63          	beq	a0,s1,16bda <_ZN18complex_no_dynamic3app17hc925b3b5f70d2e87E+0xd0>
   16ba8:	00f10613          	addi	a2,sp,15
   16bac:	02100693          	li	a3,33
   16bb0:	470d                	li	a4,3
   16bb2:	853e                	mv	a0,a5
   16bb4:	4581                	li	a1,0
   16bb6:	00000073          	ecall
   16bba:	02950063          	beq	a0,s1,16bda <_ZN18complex_no_dynamic3app17hc925b3b5f70d2e87E+0xd0>
   16bbe:	6505                	lui	a0,0x1
   16bc0:	6b050793          	addi	a5,a0,1712 # 16b0 <.Lline_table_start1+0x1485>
   16bc4:	4709                	li	a4,2
   16bc6:	07f00493          	li	s1,127
   16bca:	853e                	mv	a0,a5
   16bcc:	4581                	li	a1,0
   16bce:	4601                	li	a2,0
   16bd0:	4681                	li	a3,0
   16bd2:	00000073          	ecall
   16bd6:	02a4eb63          	bltu	s1,a0,16c0c <_ZN18complex_no_dynamic3app17hc925b3b5f70d2e87E+0x102>
   16bda:	4785                	li	a5,1
   16bdc:	c3a9                	beqz	a5,16c1e <_ZN18complex_no_dynamic3app17hc925b3b5f70d2e87E+0x114>
   16bde:	4505                	li	a0,1
   16be0:	6605                	lui	a2,0x1
   16be2:	00a90023          	sb	a0,0(s2)
   16be6:	00b92223          	sw	a1,4(s2)
   16bea:	6b060793          	addi	a5,a2,1712 # 16b0 <.Lline_table_start1+0x1485>
   16bee:	470d                	li	a4,3
   16bf0:	853e                	mv	a0,a5
   16bf2:	4581                	li	a1,0
   16bf4:	4601                	li	a2,0
   16bf6:	4681                	li	a3,0
   16bf8:	00000073          	ecall
   16bfc:	4711                	li	a4,4
   16bfe:	853e                	mv	a0,a5
   16c00:	4581                	li	a1,0
   16c02:	4601                	li	a2,0
   16c04:	4681                	li	a3,0
   16c06:	00000073          	ecall
   16c0a:	a8b1                	j	16c66 <_ZN18complex_no_dynamic3app17hc925b3b5f70d2e87E+0x15c>
   16c0c:	853e                	mv	a0,a5
   16c0e:	4581                	li	a1,0
   16c10:	4601                	li	a2,0
   16c12:	4681                	li	a3,0
   16c14:	4781                	li	a5,0
   16c16:	470d                	li	a4,3
   16c18:	00000073          	ecall
   16c1c:	f3e9                	bnez	a5,16bde <_ZN18complex_no_dynamic3app17hc925b3b5f70d2e87E+0xd4>
   16c1e:	6505                	lui	a0,0x1
   16c20:	6b050493          	addi	s1,a0,1712 # 16b0 <.Lline_table_start1+0x1485>
   16c24:	470d                	li	a4,3
   16c26:	8526                	mv	a0,s1
   16c28:	4581                	li	a1,0
   16c2a:	4601                	li	a2,0
   16c2c:	4681                	li	a3,0
   16c2e:	00000073          	ecall
   16c32:	00190513          	addi	a0,s2,1
   16c36:	00f10593          	addi	a1,sp,15
   16c3a:	02100613          	li	a2,33
   16c3e:	00006097          	auipc	ra,0x6
   16c42:	0f2080e7          	jalr	242(ra) # 1cd30 <memcpy>
   16c46:	00090023          	sb	zero,0(s2)
   16c4a:	470d                	li	a4,3
   16c4c:	8526                	mv	a0,s1
   16c4e:	4581                	li	a1,0
   16c50:	4601                	li	a2,0
   16c52:	4681                	li	a3,0
   16c54:	00000073          	ecall
   16c58:	4711                	li	a4,4
   16c5a:	8526                	mv	a0,s1
   16c5c:	4581                	li	a1,0
   16c5e:	4601                	li	a2,0
   16c60:	4681                	li	a3,0
   16c62:	00000073          	ecall
   16c66:	50f2                	lw	ra,60(sp)
   16c68:	5462                	lw	s0,56(sp)
   16c6a:	54d2                	lw	s1,52(sp)
   16c6c:	5942                	lw	s2,48(sp)
   16c6e:	6121                	addi	sp,sp,64
   16c70:	8082                	ret

00016c72 <_ZN18complex_no_dynamic3app17hc95586b11f830f24E>:
   16c72:	7119                	addi	sp,sp,-128
   16c74:	de86                	sw	ra,124(sp)
   16c76:	dca2                	sw	s0,120(sp)
   16c78:	daa6                	sw	s1,116(sp)
   16c7a:	842a                	mv	s0,a0
   16c7c:	00e10513          	addi	a0,sp,14
   16c80:	02e00613          	li	a2,46
   16c84:	00006097          	auipc	ra,0x6
   16c88:	0ac080e7          	jalr	172(ra) # 1cd30 <memcpy>
   16c8c:	1868                	addi	a0,sp,60
   16c8e:	03800613          	li	a2,56
   16c92:	4581                	li	a1,0
   16c94:	00006097          	auipc	ra,0x6
   16c98:	030080e7          	jalr	48(ra) # 1ccc4 <memset>
   16c9c:	6505                	lui	a0,0x1
   16c9e:	45a5                	li	a1,9
   16ca0:	00e10613          	addi	a2,sp,14
   16ca4:	02e00693          	li	a3,46
   16ca8:	a9d50793          	addi	a5,a0,-1379 # a9d <.Lline_table_start1+0x872>
   16cac:	4711                	li	a4,4
   16cae:	4489                	li	s1,2
   16cb0:	853e                	mv	a0,a5
   16cb2:	00000073          	ecall
   16cb6:	02950a63          	beq	a0,s1,16cea <_ZN18complex_no_dynamic3app17hc95586b11f830f24E+0x78>
   16cba:	45a5                	li	a1,9
   16cbc:	1870                	addi	a2,sp,60
   16cbe:	03800693          	li	a3,56
   16cc2:	470d                	li	a4,3
   16cc4:	853e                	mv	a0,a5
   16cc6:	00000073          	ecall
   16cca:	02950063          	beq	a0,s1,16cea <_ZN18complex_no_dynamic3app17hc95586b11f830f24E+0x78>
   16cce:	6505                	lui	a0,0x1
   16cd0:	45a5                	li	a1,9
   16cd2:	4625                	li	a2,9
   16cd4:	a9d50793          	addi	a5,a0,-1379 # a9d <.Lline_table_start1+0x872>
   16cd8:	4709                	li	a4,2
   16cda:	07f00493          	li	s1,127
   16cde:	853e                	mv	a0,a5
   16ce0:	4681                	li	a3,0
   16ce2:	00000073          	ecall
   16ce6:	02a4eb63          	bltu	s1,a0,16d1c <_ZN18complex_no_dynamic3app17hc95586b11f830f24E+0xaa>
   16cea:	4785                	li	a5,1
   16cec:	c3a9                	beqz	a5,16d2e <_ZN18complex_no_dynamic3app17hc95586b11f830f24E+0xbc>
   16cee:	4601                	li	a2,0
   16cf0:	4681                	li	a3,0
   16cf2:	4505                	li	a0,1
   16cf4:	6705                	lui	a4,0x1
   16cf6:	87ae                	mv	a5,a1
   16cf8:	45a5                	li	a1,9
   16cfa:	00a40023          	sb	a0,0(s0)
   16cfe:	c05c                	sw	a5,4(s0)
   16d00:	a9d70793          	addi	a5,a4,-1379 # a9d <.Lline_table_start1+0x872>
   16d04:	470d                	li	a4,3
   16d06:	853e                	mv	a0,a5
   16d08:	00000073          	ecall
   16d0c:	45a5                	li	a1,9
   16d0e:	4711                	li	a4,4
   16d10:	853e                	mv	a0,a5
   16d12:	4601                	li	a2,0
   16d14:	4681                	li	a3,0
   16d16:	00000073          	ecall
   16d1a:	a8a9                	j	16d74 <_ZN18complex_no_dynamic3app17hc95586b11f830f24E+0x102>
   16d1c:	853e                	mv	a0,a5
   16d1e:	4601                	li	a2,0
   16d20:	4681                	li	a3,0
   16d22:	4781                	li	a5,0
   16d24:	45a5                	li	a1,9
   16d26:	470d                	li	a4,3
   16d28:	00000073          	ecall
   16d2c:	f3e9                	bnez	a5,16cee <_ZN18complex_no_dynamic3app17hc95586b11f830f24E+0x7c>
   16d2e:	6505                	lui	a0,0x1
   16d30:	a9d50493          	addi	s1,a0,-1379 # a9d <.Lline_table_start1+0x872>
   16d34:	45a5                	li	a1,9
   16d36:	470d                	li	a4,3
   16d38:	8526                	mv	a0,s1
   16d3a:	4601                	li	a2,0
   16d3c:	4681                	li	a3,0
   16d3e:	00000073          	ecall
   16d42:	00140513          	addi	a0,s0,1
   16d46:	186c                	addi	a1,sp,60
   16d48:	03800613          	li	a2,56
   16d4c:	00006097          	auipc	ra,0x6
   16d50:	fe4080e7          	jalr	-28(ra) # 1cd30 <memcpy>
   16d54:	8526                	mv	a0,s1
   16d56:	4601                	li	a2,0
   16d58:	4681                	li	a3,0
   16d5a:	00040023          	sb	zero,0(s0)
   16d5e:	45a5                	li	a1,9
   16d60:	470d                	li	a4,3
   16d62:	00000073          	ecall
   16d66:	45a5                	li	a1,9
   16d68:	4711                	li	a4,4
   16d6a:	8526                	mv	a0,s1
   16d6c:	4601                	li	a2,0
   16d6e:	4681                	li	a3,0
   16d70:	00000073          	ecall
   16d74:	50f6                	lw	ra,124(sp)
   16d76:	5466                	lw	s0,120(sp)
   16d78:	54d6                	lw	s1,116(sp)
   16d7a:	6109                	addi	sp,sp,128
   16d7c:	8082                	ret

00016d7e <_ZN18complex_no_dynamic3app17hc9cb420f4f9390d2E>:
   16d7e:	711d                	addi	sp,sp,-96
   16d80:	ce86                	sw	ra,92(sp)
   16d82:	cca2                	sw	s0,88(sp)
   16d84:	caa6                	sw	s1,84(sp)
   16d86:	842a                	mv	s0,a0
   16d88:	00110513          	addi	a0,sp,1
   16d8c:	02c00613          	li	a2,44
   16d90:	00006097          	auipc	ra,0x6
   16d94:	fa0080e7          	jalr	-96(ra) # 1cd30 <memcpy>
   16d98:	02d10513          	addi	a0,sp,45
   16d9c:	02700613          	li	a2,39
   16da0:	4581                	li	a1,0
   16da2:	00006097          	auipc	ra,0x6
   16da6:	f22080e7          	jalr	-222(ra) # 1ccc4 <memset>
   16daa:	6505                	lui	a0,0x1
   16dac:	4591                	li	a1,4
   16dae:	00110613          	addi	a2,sp,1
   16db2:	02c00693          	li	a3,44
   16db6:	1b550793          	addi	a5,a0,437 # 11b5 <.Lline_table_start1+0xf8a>
   16dba:	4711                	li	a4,4
   16dbc:	4489                	li	s1,2
   16dbe:	853e                	mv	a0,a5
   16dc0:	00000073          	ecall
   16dc4:	02950b63          	beq	a0,s1,16dfa <_ZN18complex_no_dynamic3app17hc9cb420f4f9390d2E+0x7c>
   16dc8:	458d                	li	a1,3
   16dca:	02d10613          	addi	a2,sp,45
   16dce:	02700693          	li	a3,39
   16dd2:	470d                	li	a4,3
   16dd4:	853e                	mv	a0,a5
   16dd6:	00000073          	ecall
   16dda:	02950063          	beq	a0,s1,16dfa <_ZN18complex_no_dynamic3app17hc9cb420f4f9390d2E+0x7c>
   16dde:	6505                	lui	a0,0x1
   16de0:	4591                	li	a1,4
   16de2:	460d                	li	a2,3
   16de4:	1b550793          	addi	a5,a0,437 # 11b5 <.Lline_table_start1+0xf8a>
   16de8:	4709                	li	a4,2
   16dea:	07f00493          	li	s1,127
   16dee:	853e                	mv	a0,a5
   16df0:	4681                	li	a3,0
   16df2:	00000073          	ecall
   16df6:	02a4eb63          	bltu	s1,a0,16e2c <_ZN18complex_no_dynamic3app17hc9cb420f4f9390d2E+0xae>
   16dfa:	4785                	li	a5,1
   16dfc:	c3a9                	beqz	a5,16e3e <_ZN18complex_no_dynamic3app17hc9cb420f4f9390d2E+0xc0>
   16dfe:	4601                	li	a2,0
   16e00:	4681                	li	a3,0
   16e02:	4505                	li	a0,1
   16e04:	6705                	lui	a4,0x1
   16e06:	87ae                	mv	a5,a1
   16e08:	458d                	li	a1,3
   16e0a:	00a40023          	sb	a0,0(s0)
   16e0e:	c05c                	sw	a5,4(s0)
   16e10:	1b570793          	addi	a5,a4,437 # 11b5 <.Lline_table_start1+0xf8a>
   16e14:	470d                	li	a4,3
   16e16:	853e                	mv	a0,a5
   16e18:	00000073          	ecall
   16e1c:	4591                	li	a1,4
   16e1e:	4711                	li	a4,4
   16e20:	853e                	mv	a0,a5
   16e22:	4601                	li	a2,0
   16e24:	4681                	li	a3,0
   16e26:	00000073          	ecall
   16e2a:	a8b1                	j	16e86 <_ZN18complex_no_dynamic3app17hc9cb420f4f9390d2E+0x108>
   16e2c:	853e                	mv	a0,a5
   16e2e:	4601                	li	a2,0
   16e30:	4681                	li	a3,0
   16e32:	4781                	li	a5,0
   16e34:	458d                	li	a1,3
   16e36:	470d                	li	a4,3
   16e38:	00000073          	ecall
   16e3c:	f3e9                	bnez	a5,16dfe <_ZN18complex_no_dynamic3app17hc9cb420f4f9390d2E+0x80>
   16e3e:	6505                	lui	a0,0x1
   16e40:	1b550493          	addi	s1,a0,437 # 11b5 <.Lline_table_start1+0xf8a>
   16e44:	458d                	li	a1,3
   16e46:	470d                	li	a4,3
   16e48:	8526                	mv	a0,s1
   16e4a:	4601                	li	a2,0
   16e4c:	4681                	li	a3,0
   16e4e:	00000073          	ecall
   16e52:	00140513          	addi	a0,s0,1
   16e56:	02d10593          	addi	a1,sp,45
   16e5a:	02700613          	li	a2,39
   16e5e:	00006097          	auipc	ra,0x6
   16e62:	ed2080e7          	jalr	-302(ra) # 1cd30 <memcpy>
   16e66:	8526                	mv	a0,s1
   16e68:	4601                	li	a2,0
   16e6a:	4681                	li	a3,0
   16e6c:	00040023          	sb	zero,0(s0)
   16e70:	458d                	li	a1,3
   16e72:	470d                	li	a4,3
   16e74:	00000073          	ecall
   16e78:	4591                	li	a1,4
   16e7a:	4711                	li	a4,4
   16e7c:	8526                	mv	a0,s1
   16e7e:	4601                	li	a2,0
   16e80:	4681                	li	a3,0
   16e82:	00000073          	ecall
   16e86:	40f6                	lw	ra,92(sp)
   16e88:	4466                	lw	s0,88(sp)
   16e8a:	44d6                	lw	s1,84(sp)
   16e8c:	6125                	addi	sp,sp,96
   16e8e:	8082                	ret

00016e90 <_ZN18complex_no_dynamic3app17hcff586df0f070bc1E>:
   16e90:	711d                	addi	sp,sp,-96
   16e92:	ce86                	sw	ra,92(sp)
   16e94:	cca2                	sw	s0,88(sp)
   16e96:	caa6                	sw	s1,84(sp)
   16e98:	842a                	mv	s0,a0
   16e9a:	00110513          	addi	a0,sp,1
   16e9e:	03f00613          	li	a2,63
   16ea2:	00006097          	auipc	ra,0x6
   16ea6:	e8e080e7          	jalr	-370(ra) # 1cd30 <memcpy>
   16eaa:	04010823          	sb	zero,80(sp)
   16eae:	c082                	sw	zero,64(sp)
   16eb0:	c282                	sw	zero,68(sp)
   16eb2:	c482                	sw	zero,72(sp)
   16eb4:	c682                	sw	zero,76(sp)
   16eb6:	6505                	lui	a0,0x1
   16eb8:	4591                	li	a1,4
   16eba:	00110613          	addi	a2,sp,1
   16ebe:	03f00693          	li	a3,63
   16ec2:	4d750793          	addi	a5,a0,1239 # 14d7 <.Lline_table_start1+0x12ac>
   16ec6:	4711                	li	a4,4
   16ec8:	4489                	li	s1,2
   16eca:	853e                	mv	a0,a5
   16ecc:	00000073          	ecall
   16ed0:	02950963          	beq	a0,s1,16f02 <_ZN18complex_no_dynamic3app17hcff586df0f070bc1E+0x72>
   16ed4:	458d                	li	a1,3
   16ed6:	0090                	addi	a2,sp,64
   16ed8:	46c5                	li	a3,17
   16eda:	470d                	li	a4,3
   16edc:	853e                	mv	a0,a5
   16ede:	00000073          	ecall
   16ee2:	02950063          	beq	a0,s1,16f02 <_ZN18complex_no_dynamic3app17hcff586df0f070bc1E+0x72>
   16ee6:	6505                	lui	a0,0x1
   16ee8:	4591                	li	a1,4
   16eea:	460d                	li	a2,3
   16eec:	4d750793          	addi	a5,a0,1239 # 14d7 <.Lline_table_start1+0x12ac>
   16ef0:	4709                	li	a4,2
   16ef2:	07f00493          	li	s1,127
   16ef6:	853e                	mv	a0,a5
   16ef8:	4681                	li	a3,0
   16efa:	00000073          	ecall
   16efe:	02a4eb63          	bltu	s1,a0,16f34 <_ZN18complex_no_dynamic3app17hcff586df0f070bc1E+0xa4>
   16f02:	4785                	li	a5,1
   16f04:	c3a9                	beqz	a5,16f46 <_ZN18complex_no_dynamic3app17hcff586df0f070bc1E+0xb6>
   16f06:	4601                	li	a2,0
   16f08:	4681                	li	a3,0
   16f0a:	4505                	li	a0,1
   16f0c:	6705                	lui	a4,0x1
   16f0e:	87ae                	mv	a5,a1
   16f10:	458d                	li	a1,3
   16f12:	00a40023          	sb	a0,0(s0)
   16f16:	c05c                	sw	a5,4(s0)
   16f18:	4d770793          	addi	a5,a4,1239 # 14d7 <.Lline_table_start1+0x12ac>
   16f1c:	470d                	li	a4,3
   16f1e:	853e                	mv	a0,a5
   16f20:	00000073          	ecall
   16f24:	4591                	li	a1,4
   16f26:	4711                	li	a4,4
   16f28:	853e                	mv	a0,a5
   16f2a:	4601                	li	a2,0
   16f2c:	4681                	li	a3,0
   16f2e:	00000073          	ecall
   16f32:	a8a1                	j	16f8a <_ZN18complex_no_dynamic3app17hcff586df0f070bc1E+0xfa>
   16f34:	853e                	mv	a0,a5
   16f36:	4601                	li	a2,0
   16f38:	4681                	li	a3,0
   16f3a:	4781                	li	a5,0
   16f3c:	458d                	li	a1,3
   16f3e:	470d                	li	a4,3
   16f40:	00000073          	ecall
   16f44:	f3e9                	bnez	a5,16f06 <_ZN18complex_no_dynamic3app17hcff586df0f070bc1E+0x76>
   16f46:	6505                	lui	a0,0x1
   16f48:	4d750493          	addi	s1,a0,1239 # 14d7 <.Lline_table_start1+0x12ac>
   16f4c:	458d                	li	a1,3
   16f4e:	470d                	li	a4,3
   16f50:	8526                	mv	a0,s1
   16f52:	4601                	li	a2,0
   16f54:	4681                	li	a3,0
   16f56:	00000073          	ecall
   16f5a:	00140513          	addi	a0,s0,1
   16f5e:	008c                	addi	a1,sp,64
   16f60:	4645                	li	a2,17
   16f62:	00006097          	auipc	ra,0x6
   16f66:	dce080e7          	jalr	-562(ra) # 1cd30 <memcpy>
   16f6a:	8526                	mv	a0,s1
   16f6c:	4601                	li	a2,0
   16f6e:	4681                	li	a3,0
   16f70:	00040023          	sb	zero,0(s0)
   16f74:	458d                	li	a1,3
   16f76:	470d                	li	a4,3
   16f78:	00000073          	ecall
   16f7c:	4591                	li	a1,4
   16f7e:	4711                	li	a4,4
   16f80:	8526                	mv	a0,s1
   16f82:	4601                	li	a2,0
   16f84:	4681                	li	a3,0
   16f86:	00000073          	ecall
   16f8a:	40f6                	lw	ra,92(sp)
   16f8c:	4466                	lw	s0,88(sp)
   16f8e:	44d6                	lw	s1,84(sp)
   16f90:	6125                	addi	sp,sp,96
   16f92:	8082                	ret

00016f94 <_ZN18complex_no_dynamic3app17hd37610763e488e4aE>:
   16f94:	715d                	addi	sp,sp,-80
   16f96:	c686                	sw	ra,76(sp)
   16f98:	c4a2                	sw	s0,72(sp)
   16f9a:	c2a6                	sw	s1,68(sp)
   16f9c:	842a                	mv	s0,a0
   16f9e:	00210513          	addi	a0,sp,2
   16fa2:	03200613          	li	a2,50
   16fa6:	00006097          	auipc	ra,0x6
   16faa:	d8a080e7          	jalr	-630(ra) # 1cd30 <memcpy>
   16fae:	da02                	sw	zero,52(sp)
   16fb0:	dc02                	sw	zero,56(sp)
   16fb2:	de02                	sw	zero,60(sp)
   16fb4:	c082                	sw	zero,64(sp)
   16fb6:	6509                	lui	a0,0x2
   16fb8:	4591                	li	a1,4
   16fba:	00210613          	addi	a2,sp,2
   16fbe:	03200693          	li	a3,50
   16fc2:	9d650793          	addi	a5,a0,-1578 # 19d6 <.Lline_table_start1+0x17ab>
   16fc6:	4711                	li	a4,4
   16fc8:	4489                	li	s1,2
   16fca:	853e                	mv	a0,a5
   16fcc:	00000073          	ecall
   16fd0:	02950963          	beq	a0,s1,17002 <_ZN18complex_no_dynamic3app17hd37610763e488e4aE+0x6e>
   16fd4:	45a5                	li	a1,9
   16fd6:	1850                	addi	a2,sp,52
   16fd8:	46c1                	li	a3,16
   16fda:	470d                	li	a4,3
   16fdc:	853e                	mv	a0,a5
   16fde:	00000073          	ecall
   16fe2:	02950063          	beq	a0,s1,17002 <_ZN18complex_no_dynamic3app17hd37610763e488e4aE+0x6e>
   16fe6:	6509                	lui	a0,0x2
   16fe8:	4591                	li	a1,4
   16fea:	4625                	li	a2,9
   16fec:	9d650793          	addi	a5,a0,-1578 # 19d6 <.Lline_table_start1+0x17ab>
   16ff0:	4709                	li	a4,2
   16ff2:	07f00493          	li	s1,127
   16ff6:	853e                	mv	a0,a5
   16ff8:	4681                	li	a3,0
   16ffa:	00000073          	ecall
   16ffe:	02a4eb63          	bltu	s1,a0,17034 <_ZN18complex_no_dynamic3app17hd37610763e488e4aE+0xa0>
   17002:	4785                	li	a5,1
   17004:	c3a9                	beqz	a5,17046 <_ZN18complex_no_dynamic3app17hd37610763e488e4aE+0xb2>
   17006:	4601                	li	a2,0
   17008:	4681                	li	a3,0
   1700a:	4505                	li	a0,1
   1700c:	6709                	lui	a4,0x2
   1700e:	87ae                	mv	a5,a1
   17010:	45a5                	li	a1,9
   17012:	00a40023          	sb	a0,0(s0)
   17016:	c05c                	sw	a5,4(s0)
   17018:	9d670793          	addi	a5,a4,-1578 # 19d6 <.Lline_table_start1+0x17ab>
   1701c:	470d                	li	a4,3
   1701e:	853e                	mv	a0,a5
   17020:	00000073          	ecall
   17024:	4591                	li	a1,4
   17026:	4711                	li	a4,4
   17028:	853e                	mv	a0,a5
   1702a:	4601                	li	a2,0
   1702c:	4681                	li	a3,0
   1702e:	00000073          	ecall
   17032:	a8a1                	j	1708a <_ZN18complex_no_dynamic3app17hd37610763e488e4aE+0xf6>
   17034:	853e                	mv	a0,a5
   17036:	4601                	li	a2,0
   17038:	4681                	li	a3,0
   1703a:	4781                	li	a5,0
   1703c:	45a5                	li	a1,9
   1703e:	470d                	li	a4,3
   17040:	00000073          	ecall
   17044:	f3e9                	bnez	a5,17006 <_ZN18complex_no_dynamic3app17hd37610763e488e4aE+0x72>
   17046:	6509                	lui	a0,0x2
   17048:	9d650493          	addi	s1,a0,-1578 # 19d6 <.Lline_table_start1+0x17ab>
   1704c:	45a5                	li	a1,9
   1704e:	470d                	li	a4,3
   17050:	8526                	mv	a0,s1
   17052:	4601                	li	a2,0
   17054:	4681                	li	a3,0
   17056:	00000073          	ecall
   1705a:	00140513          	addi	a0,s0,1
   1705e:	184c                	addi	a1,sp,52
   17060:	4641                	li	a2,16
   17062:	00006097          	auipc	ra,0x6
   17066:	cce080e7          	jalr	-818(ra) # 1cd30 <memcpy>
   1706a:	8526                	mv	a0,s1
   1706c:	4601                	li	a2,0
   1706e:	4681                	li	a3,0
   17070:	00040023          	sb	zero,0(s0)
   17074:	45a5                	li	a1,9
   17076:	470d                	li	a4,3
   17078:	00000073          	ecall
   1707c:	4591                	li	a1,4
   1707e:	4711                	li	a4,4
   17080:	8526                	mv	a0,s1
   17082:	4601                	li	a2,0
   17084:	4681                	li	a3,0
   17086:	00000073          	ecall
   1708a:	40b6                	lw	ra,76(sp)
   1708c:	4426                	lw	s0,72(sp)
   1708e:	4496                	lw	s1,68(sp)
   17090:	6161                	addi	sp,sp,80
   17092:	8082                	ret

00017094 <_ZN18complex_no_dynamic3app17hde74b89f5716be29E>:
   17094:	7159                	addi	sp,sp,-112
   17096:	d686                	sw	ra,108(sp)
   17098:	d4a2                	sw	s0,104(sp)
   1709a:	d2a6                	sw	s1,100(sp)
   1709c:	d0ca                	sw	s2,96(sp)
   1709e:	cece                	sw	s3,92(sp)
   170a0:	ccd2                	sw	s4,88(sp)
   170a2:	892a                	mv	s2,a0
   170a4:	01c5c303          	lbu	t1,28(a1)
   170a8:	01d5c603          	lbu	a2,29(a1)
   170ac:	0185c683          	lbu	a3,24(a1)
   170b0:	0195c703          	lbu	a4,25(a1)
   170b4:	01a5c803          	lbu	a6,26(a1)
   170b8:	01b5c283          	lbu	t0,27(a1)
   170bc:	0145c883          	lbu	a7,20(a1)
   170c0:	0155c383          	lbu	t2,21(a1)
   170c4:	0165c483          	lbu	s1,22(a1)
   170c8:	0175c403          	lbu	s0,23(a1)
   170cc:	0105c503          	lbu	a0,16(a1)
   170d0:	0115c783          	lbu	a5,17(a1)
   170d4:	0125ce03          	lbu	t3,18(a1)
   170d8:	0135ce83          	lbu	t4,19(a1)
   170dc:	0622                	slli	a2,a2,0x8
   170de:	0722                	slli	a4,a4,0x8
   170e0:	00666333          	or	t1,a2,t1
   170e4:	00d76f33          	or	t5,a4,a3
   170e8:	00c5cf83          	lbu	t6,12(a1)
   170ec:	00d5c683          	lbu	a3,13(a1)
   170f0:	00e5c703          	lbu	a4,14(a1)
   170f4:	00f5c603          	lbu	a2,15(a1)
   170f8:	0842                	slli	a6,a6,0x10
   170fa:	02e2                	slli	t0,t0,0x18
   170fc:	03a2                	slli	t2,t2,0x8
   170fe:	04c2                	slli	s1,s1,0x10
   17100:	0462                	slli	s0,s0,0x18
   17102:	07a2                	slli	a5,a5,0x8
   17104:	0102e2b3          	or	t0,t0,a6
   17108:	0113e833          	or	a6,t2,a7
   1710c:	009463b3          	or	t2,s0,s1
   17110:	00a7e8b3          	or	a7,a5,a0
   17114:	0085c503          	lbu	a0,8(a1)
   17118:	0095c783          	lbu	a5,9(a1)
   1711c:	00a5c403          	lbu	s0,10(a1)
   17120:	00b5c483          	lbu	s1,11(a1)
   17124:	0e42                	slli	t3,t3,0x10
   17126:	0ee2                	slli	t4,t4,0x18
   17128:	06a2                	slli	a3,a3,0x8
   1712a:	0742                	slli	a4,a4,0x10
   1712c:	0662                	slli	a2,a2,0x18
   1712e:	07a2                	slli	a5,a5,0x8
   17130:	01ceee33          	or	t3,t4,t3
   17134:	01f6eeb3          	or	t4,a3,t6
   17138:	00e669b3          	or	s3,a2,a4
   1713c:	00a7efb3          	or	t6,a5,a0
   17140:	0045c703          	lbu	a4,4(a1)
   17144:	0055c783          	lbu	a5,5(a1)
   17148:	0065c683          	lbu	a3,6(a1)
   1714c:	0075c503          	lbu	a0,7(a1)
   17150:	0442                	slli	s0,s0,0x10
   17152:	04e2                	slli	s1,s1,0x18
   17154:	07a2                	slli	a5,a5,0x8
   17156:	06c2                	slli	a3,a3,0x10
   17158:	0562                	slli	a0,a0,0x18
   1715a:	8c45                	or	s0,s0,s1
   1715c:	00e7ea33          	or	s4,a5,a4
   17160:	0005c783          	lbu	a5,0(a1)
   17164:	0015c483          	lbu	s1,1(a1)
   17168:	8d55                	or	a0,a0,a3
   1716a:	0025c683          	lbu	a3,2(a1)
   1716e:	0035c583          	lbu	a1,3(a1)
   17172:	04a2                	slli	s1,s1,0x8
   17174:	8fc5                	or	a5,a5,s1
   17176:	06c2                	slli	a3,a3,0x10
   17178:	05e2                	slli	a1,a1,0x18
   1717a:	8dd5                	or	a1,a1,a3
   1717c:	01e2e6b3          	or	a3,t0,t5
   17180:	0103e4b3          	or	s1,t2,a6
   17184:	011e6633          	or	a2,t3,a7
   17188:	01d9e733          	or	a4,s3,t4
   1718c:	01f46433          	or	s0,s0,t6
   17190:	01456533          	or	a0,a0,s4
   17194:	8ddd                	or	a1,a1,a5
   17196:	ce32                	sw	a2,28(sp)
   17198:	d026                	sw	s1,32(sp)
   1719a:	d236                	sw	a3,36(sp)
   1719c:	02611423          	sh	t1,40(sp)
   171a0:	c62e                	sw	a1,12(sp)
   171a2:	c82a                	sw	a0,16(sp)
   171a4:	ca22                	sw	s0,20(sp)
   171a6:	cc3a                	sw	a4,24(sp)
   171a8:	1068                	addi	a0,sp,44
   171aa:	02c00613          	li	a2,44
   171ae:	4581                	li	a1,0
   171b0:	00006097          	auipc	ra,0x6
   171b4:	b14080e7          	jalr	-1260(ra) # 1ccc4 <memset>
   171b8:	3fb00513          	li	a0,1019
   171bc:	459d                	li	a1,7
   171be:	0070                	addi	a2,sp,12
   171c0:	46f9                	li	a3,30
   171c2:	4711                	li	a4,4
   171c4:	4789                	li	a5,2
   171c6:	00000073          	ecall
   171ca:	02f50963          	beq	a0,a5,171fc <_ZN18complex_no_dynamic3app17hde74b89f5716be29E+0x168>
   171ce:	3fb00513          	li	a0,1019
   171d2:	1070                	addi	a2,sp,44
   171d4:	02c00693          	li	a3,44
   171d8:	470d                	li	a4,3
   171da:	4581                	li	a1,0
   171dc:	00000073          	ecall
   171e0:	00f50e63          	beq	a0,a5,171fc <_ZN18complex_no_dynamic3app17hde74b89f5716be29E+0x168>
   171e4:	3fb00513          	li	a0,1019
   171e8:	459d                	li	a1,7
   171ea:	4709                	li	a4,2
   171ec:	07f00793          	li	a5,127
   171f0:	4601                	li	a2,0
   171f2:	4681                	li	a3,0
   171f4:	00000073          	ecall
   171f8:	02a7eb63          	bltu	a5,a0,1722e <_ZN18complex_no_dynamic3app17hde74b89f5716be29E+0x19a>
   171fc:	4785                	li	a5,1
   171fe:	c3b1                	beqz	a5,17242 <_ZN18complex_no_dynamic3app17hde74b89f5716be29E+0x1ae>
   17200:	852e                	mv	a0,a1
   17202:	4581                	li	a1,0
   17204:	4601                	li	a2,0
   17206:	4681                	li	a3,0
   17208:	4705                	li	a4,1
   1720a:	00e90023          	sb	a4,0(s2)
   1720e:	00a92223          	sw	a0,4(s2)
   17212:	3fb00513          	li	a0,1019
   17216:	470d                	li	a4,3
   17218:	00000073          	ecall
   1721c:	3fb00513          	li	a0,1019
   17220:	459d                	li	a1,7
   17222:	4711                	li	a4,4
   17224:	4601                	li	a2,0
   17226:	4681                	li	a3,0
   17228:	00000073          	ecall
   1722c:	a8b1                	j	17288 <_ZN18complex_no_dynamic3app17hde74b89f5716be29E+0x1f4>
   1722e:	4581                	li	a1,0
   17230:	4601                	li	a2,0
   17232:	4681                	li	a3,0
   17234:	4781                	li	a5,0
   17236:	3fb00513          	li	a0,1019
   1723a:	470d                	li	a4,3
   1723c:	00000073          	ecall
   17240:	f3e1                	bnez	a5,17200 <_ZN18complex_no_dynamic3app17hde74b89f5716be29E+0x16c>
   17242:	3fb00513          	li	a0,1019
   17246:	470d                	li	a4,3
   17248:	4581                	li	a1,0
   1724a:	4601                	li	a2,0
   1724c:	4681                	li	a3,0
   1724e:	00000073          	ecall
   17252:	00190513          	addi	a0,s2,1
   17256:	106c                	addi	a1,sp,44
   17258:	02c00613          	li	a2,44
   1725c:	00006097          	auipc	ra,0x6
   17260:	ad4080e7          	jalr	-1324(ra) # 1cd30 <memcpy>
   17264:	4581                	li	a1,0
   17266:	4601                	li	a2,0
   17268:	4681                	li	a3,0
   1726a:	00090023          	sb	zero,0(s2)
   1726e:	3fb00513          	li	a0,1019
   17272:	470d                	li	a4,3
   17274:	00000073          	ecall
   17278:	3fb00513          	li	a0,1019
   1727c:	459d                	li	a1,7
   1727e:	4711                	li	a4,4
   17280:	4601                	li	a2,0
   17282:	4681                	li	a3,0
   17284:	00000073          	ecall
   17288:	50b6                	lw	ra,108(sp)
   1728a:	5426                	lw	s0,104(sp)
   1728c:	5496                	lw	s1,100(sp)
   1728e:	5906                	lw	s2,96(sp)
   17290:	49f6                	lw	s3,92(sp)
   17292:	4a66                	lw	s4,88(sp)
   17294:	6165                	addi	sp,sp,112
   17296:	8082                	ret

00017298 <_ZN18complex_no_dynamic3app17he886bd602911864cE>:
   17298:	7119                	addi	sp,sp,-128
   1729a:	de86                	sw	ra,124(sp)
   1729c:	dca2                	sw	s0,120(sp)
   1729e:	daa6                	sw	s1,116(sp)
   172a0:	842a                	mv	s0,a0
   172a2:	00610513          	addi	a0,sp,6
   172a6:	03c00613          	li	a2,60
   172aa:	00006097          	auipc	ra,0x6
   172ae:	a86080e7          	jalr	-1402(ra) # 1cd30 <memcpy>
   172b2:	04210513          	addi	a0,sp,66
   172b6:	03200613          	li	a2,50
   172ba:	4581                	li	a1,0
   172bc:	00006097          	auipc	ra,0x6
   172c0:	a08080e7          	jalr	-1528(ra) # 1ccc4 <memset>
   172c4:	6509                	lui	a0,0x2
   172c6:	4599                	li	a1,6
   172c8:	00610613          	addi	a2,sp,6
   172cc:	03c00693          	li	a3,60
   172d0:	b1e50793          	addi	a5,a0,-1250 # 1b1e <.Lline_table_start1+0x18f3>
   172d4:	4711                	li	a4,4
   172d6:	4489                	li	s1,2
   172d8:	853e                	mv	a0,a5
   172da:	00000073          	ecall
   172de:	02950b63          	beq	a0,s1,17314 <_ZN18complex_no_dynamic3app17he886bd602911864cE+0x7c>
   172e2:	45a1                	li	a1,8
   172e4:	04210613          	addi	a2,sp,66
   172e8:	03200693          	li	a3,50
   172ec:	470d                	li	a4,3
   172ee:	853e                	mv	a0,a5
   172f0:	00000073          	ecall
   172f4:	02950063          	beq	a0,s1,17314 <_ZN18complex_no_dynamic3app17he886bd602911864cE+0x7c>
   172f8:	6509                	lui	a0,0x2
   172fa:	4599                	li	a1,6
   172fc:	4621                	li	a2,8
   172fe:	b1e50793          	addi	a5,a0,-1250 # 1b1e <.Lline_table_start1+0x18f3>
   17302:	4709                	li	a4,2
   17304:	07f00493          	li	s1,127
   17308:	853e                	mv	a0,a5
   1730a:	4681                	li	a3,0
   1730c:	00000073          	ecall
   17310:	02a4eb63          	bltu	s1,a0,17346 <_ZN18complex_no_dynamic3app17he886bd602911864cE+0xae>
   17314:	4785                	li	a5,1
   17316:	c3a9                	beqz	a5,17358 <_ZN18complex_no_dynamic3app17he886bd602911864cE+0xc0>
   17318:	4601                	li	a2,0
   1731a:	4681                	li	a3,0
   1731c:	4505                	li	a0,1
   1731e:	6709                	lui	a4,0x2
   17320:	87ae                	mv	a5,a1
   17322:	45a1                	li	a1,8
   17324:	00a40023          	sb	a0,0(s0)
   17328:	c05c                	sw	a5,4(s0)
   1732a:	b1e70793          	addi	a5,a4,-1250 # 1b1e <.Lline_table_start1+0x18f3>
   1732e:	470d                	li	a4,3
   17330:	853e                	mv	a0,a5
   17332:	00000073          	ecall
   17336:	4599                	li	a1,6
   17338:	4711                	li	a4,4
   1733a:	853e                	mv	a0,a5
   1733c:	4601                	li	a2,0
   1733e:	4681                	li	a3,0
   17340:	00000073          	ecall
   17344:	a8b1                	j	173a0 <_ZN18complex_no_dynamic3app17he886bd602911864cE+0x108>
   17346:	853e                	mv	a0,a5
   17348:	4601                	li	a2,0
   1734a:	4681                	li	a3,0
   1734c:	4781                	li	a5,0
   1734e:	45a1                	li	a1,8
   17350:	470d                	li	a4,3
   17352:	00000073          	ecall
   17356:	f3e9                	bnez	a5,17318 <_ZN18complex_no_dynamic3app17he886bd602911864cE+0x80>
   17358:	6509                	lui	a0,0x2
   1735a:	b1e50493          	addi	s1,a0,-1250 # 1b1e <.Lline_table_start1+0x18f3>
   1735e:	45a1                	li	a1,8
   17360:	470d                	li	a4,3
   17362:	8526                	mv	a0,s1
   17364:	4601                	li	a2,0
   17366:	4681                	li	a3,0
   17368:	00000073          	ecall
   1736c:	00140513          	addi	a0,s0,1
   17370:	04210593          	addi	a1,sp,66
   17374:	03200613          	li	a2,50
   17378:	00006097          	auipc	ra,0x6
   1737c:	9b8080e7          	jalr	-1608(ra) # 1cd30 <memcpy>
   17380:	8526                	mv	a0,s1
   17382:	4601                	li	a2,0
   17384:	4681                	li	a3,0
   17386:	00040023          	sb	zero,0(s0)
   1738a:	45a1                	li	a1,8
   1738c:	470d                	li	a4,3
   1738e:	00000073          	ecall
   17392:	4599                	li	a1,6
   17394:	4711                	li	a4,4
   17396:	8526                	mv	a0,s1
   17398:	4601                	li	a2,0
   1739a:	4681                	li	a3,0
   1739c:	00000073          	ecall
   173a0:	50f6                	lw	ra,124(sp)
   173a2:	5466                	lw	s0,120(sp)
   173a4:	54d6                	lw	s1,116(sp)
   173a6:	6109                	addi	sp,sp,128
   173a8:	8082                	ret

000173aa <_ZN18complex_no_dynamic3app17he89aea885e3fd101E>:
   173aa:	7159                	addi	sp,sp,-112
   173ac:	d686                	sw	ra,108(sp)
   173ae:	d4a2                	sw	s0,104(sp)
   173b0:	d2a6                	sw	s1,100(sp)
   173b2:	d0ca                	sw	s2,96(sp)
   173b4:	892a                	mv	s2,a0
   173b6:	0105c803          	lbu	a6,16(a1)
   173ba:	0115c603          	lbu	a2,17(a1)
   173be:	00c5c883          	lbu	a7,12(a1)
   173c2:	00d5c703          	lbu	a4,13(a1)
   173c6:	00e5c783          	lbu	a5,14(a1)
   173ca:	00f5c483          	lbu	s1,15(a1)
   173ce:	0085c403          	lbu	s0,8(a1)
   173d2:	0095c503          	lbu	a0,9(a1)
   173d6:	00a5c283          	lbu	t0,10(a1)
   173da:	00b5c683          	lbu	a3,11(a1)
   173de:	0622                	slli	a2,a2,0x8
   173e0:	0722                	slli	a4,a4,0x8
   173e2:	07c2                	slli	a5,a5,0x10
   173e4:	04e2                	slli	s1,s1,0x18
   173e6:	0522                	slli	a0,a0,0x8
   173e8:	01066833          	or	a6,a2,a6
   173ec:	011768b3          	or	a7,a4,a7
   173f0:	8fc5                	or	a5,a5,s1
   173f2:	00856333          	or	t1,a0,s0
   173f6:	0045c483          	lbu	s1,4(a1)
   173fa:	0055c403          	lbu	s0,5(a1)
   173fe:	0065c603          	lbu	a2,6(a1)
   17402:	0075c703          	lbu	a4,7(a1)
   17406:	02c2                	slli	t0,t0,0x10
   17408:	06e2                	slli	a3,a3,0x18
   1740a:	0422                	slli	s0,s0,0x8
   1740c:	0642                	slli	a2,a2,0x10
   1740e:	0762                	slli	a4,a4,0x18
   17410:	0056e6b3          	or	a3,a3,t0
   17414:	8c45                	or	s0,s0,s1
   17416:	0005c483          	lbu	s1,0(a1)
   1741a:	0015c503          	lbu	a0,1(a1)
   1741e:	8e59                	or	a2,a2,a4
   17420:	0025c703          	lbu	a4,2(a1)
   17424:	0035c583          	lbu	a1,3(a1)
   17428:	0522                	slli	a0,a0,0x8
   1742a:	8d45                	or	a0,a0,s1
   1742c:	0742                	slli	a4,a4,0x10
   1742e:	05e2                	slli	a1,a1,0x18
   17430:	8dd9                	or	a1,a1,a4
   17432:	01011c23          	sh	a6,24(sp)
   17436:	0117e733          	or	a4,a5,a7
   1743a:	0066e6b3          	or	a3,a3,t1
   1743e:	8e41                	or	a2,a2,s0
   17440:	8d4d                	or	a0,a0,a1
   17442:	c42a                	sw	a0,8(sp)
   17444:	c632                	sw	a2,12(sp)
   17446:	c836                	sw	a3,16(sp)
   17448:	ca3a                	sw	a4,20(sp)
   1744a:	0868                	addi	a0,sp,28
   1744c:	04400613          	li	a2,68
   17450:	4581                	li	a1,0
   17452:	00006097          	auipc	ra,0x6
   17456:	872080e7          	jalr	-1934(ra) # 1ccc4 <memset>
   1745a:	6509                	lui	a0,0x2
   1745c:	4489                	li	s1,2
   1745e:	4589                	li	a1,2
   17460:	0030                	addi	a2,sp,8
   17462:	43250793          	addi	a5,a0,1074 # 2432 <.Lline_table_start1+0x2207>
   17466:	46c9                	li	a3,18
   17468:	4711                	li	a4,4
   1746a:	853e                	mv	a0,a5
   1746c:	00000073          	ecall
   17470:	02950a63          	beq	a0,s1,174a4 <_ZN18complex_no_dynamic3app17he89aea885e3fd101E+0xfa>
   17474:	45a5                	li	a1,9
   17476:	0870                	addi	a2,sp,28
   17478:	04400693          	li	a3,68
   1747c:	470d                	li	a4,3
   1747e:	853e                	mv	a0,a5
   17480:	00000073          	ecall
   17484:	02950063          	beq	a0,s1,174a4 <_ZN18complex_no_dynamic3app17he89aea885e3fd101E+0xfa>
   17488:	6509                	lui	a0,0x2
   1748a:	4589                	li	a1,2
   1748c:	4625                	li	a2,9
   1748e:	43250793          	addi	a5,a0,1074 # 2432 <.Lline_table_start1+0x2207>
   17492:	4709                	li	a4,2
   17494:	07f00493          	li	s1,127
   17498:	853e                	mv	a0,a5
   1749a:	4681                	li	a3,0
   1749c:	00000073          	ecall
   174a0:	02a4ec63          	bltu	s1,a0,174d8 <_ZN18complex_no_dynamic3app17he89aea885e3fd101E+0x12e>
   174a4:	4785                	li	a5,1
   174a6:	c3b1                	beqz	a5,174ea <_ZN18complex_no_dynamic3app17he89aea885e3fd101E+0x140>
   174a8:	4601                	li	a2,0
   174aa:	4681                	li	a3,0
   174ac:	4505                	li	a0,1
   174ae:	6709                	lui	a4,0x2
   174b0:	87ae                	mv	a5,a1
   174b2:	45a5                	li	a1,9
   174b4:	00a90023          	sb	a0,0(s2)
   174b8:	00f92223          	sw	a5,4(s2)
   174bc:	43270793          	addi	a5,a4,1074 # 2432 <.Lline_table_start1+0x2207>
   174c0:	470d                	li	a4,3
   174c2:	853e                	mv	a0,a5
   174c4:	00000073          	ecall
   174c8:	4589                	li	a1,2
   174ca:	4711                	li	a4,4
   174cc:	853e                	mv	a0,a5
   174ce:	4601                	li	a2,0
   174d0:	4681                	li	a3,0
   174d2:	00000073          	ecall
   174d6:	a8a9                	j	17530 <_ZN18complex_no_dynamic3app17he89aea885e3fd101E+0x186>
   174d8:	853e                	mv	a0,a5
   174da:	4601                	li	a2,0
   174dc:	4681                	li	a3,0
   174de:	4781                	li	a5,0
   174e0:	45a5                	li	a1,9
   174e2:	470d                	li	a4,3
   174e4:	00000073          	ecall
   174e8:	f3e1                	bnez	a5,174a8 <_ZN18complex_no_dynamic3app17he89aea885e3fd101E+0xfe>
   174ea:	6509                	lui	a0,0x2
   174ec:	43250493          	addi	s1,a0,1074 # 2432 <.Lline_table_start1+0x2207>
   174f0:	45a5                	li	a1,9
   174f2:	470d                	li	a4,3
   174f4:	8526                	mv	a0,s1
   174f6:	4601                	li	a2,0
   174f8:	4681                	li	a3,0
   174fa:	00000073          	ecall
   174fe:	00190513          	addi	a0,s2,1
   17502:	086c                	addi	a1,sp,28
   17504:	04400613          	li	a2,68
   17508:	00006097          	auipc	ra,0x6
   1750c:	828080e7          	jalr	-2008(ra) # 1cd30 <memcpy>
   17510:	8526                	mv	a0,s1
   17512:	4601                	li	a2,0
   17514:	4681                	li	a3,0
   17516:	00090023          	sb	zero,0(s2)
   1751a:	45a5                	li	a1,9
   1751c:	470d                	li	a4,3
   1751e:	00000073          	ecall
   17522:	4589                	li	a1,2
   17524:	4711                	li	a4,4
   17526:	8526                	mv	a0,s1
   17528:	4601                	li	a2,0
   1752a:	4681                	li	a3,0
   1752c:	00000073          	ecall
   17530:	50b6                	lw	ra,108(sp)
   17532:	5426                	lw	s0,104(sp)
   17534:	5496                	lw	s1,100(sp)
   17536:	5906                	lw	s2,96(sp)
   17538:	6165                	addi	sp,sp,112
   1753a:	8082                	ret

0001753c <_ZN18complex_no_dynamic3app17hedca22993e5437ceE>:
   1753c:	7171                	addi	sp,sp,-176
   1753e:	d706                	sw	ra,172(sp)
   17540:	d522                	sw	s0,168(sp)
   17542:	d326                	sw	s1,164(sp)
   17544:	842a                	mv	s0,a0
   17546:	0048                	addi	a0,sp,4
   17548:	05100613          	li	a2,81
   1754c:	00005097          	auipc	ra,0x5
   17550:	7e4080e7          	jalr	2020(ra) # 1cd30 <memcpy>
   17554:	05510513          	addi	a0,sp,85
   17558:	04f00613          	li	a2,79
   1755c:	4581                	li	a1,0
   1755e:	00005097          	auipc	ra,0x5
   17562:	766080e7          	jalr	1894(ra) # 1ccc4 <memset>
   17566:	6509                	lui	a0,0x2
   17568:	4591                	li	a1,4
   1756a:	0050                	addi	a2,sp,4
   1756c:	05100693          	li	a3,81
   17570:	0ee50793          	addi	a5,a0,238 # 20ee <.Lline_table_start1+0x1ec3>
   17574:	4711                	li	a4,4
   17576:	4489                	li	s1,2
   17578:	853e                	mv	a0,a5
   1757a:	00000073          	ecall
   1757e:	02950b63          	beq	a0,s1,175b4 <_ZN18complex_no_dynamic3app17hedca22993e5437ceE+0x78>
   17582:	45a5                	li	a1,9
   17584:	05510613          	addi	a2,sp,85
   17588:	04f00693          	li	a3,79
   1758c:	470d                	li	a4,3
   1758e:	853e                	mv	a0,a5
   17590:	00000073          	ecall
   17594:	02950063          	beq	a0,s1,175b4 <_ZN18complex_no_dynamic3app17hedca22993e5437ceE+0x78>
   17598:	6509                	lui	a0,0x2
   1759a:	4591                	li	a1,4
   1759c:	4625                	li	a2,9
   1759e:	0ee50793          	addi	a5,a0,238 # 20ee <.Lline_table_start1+0x1ec3>
   175a2:	4709                	li	a4,2
   175a4:	07f00493          	li	s1,127
   175a8:	853e                	mv	a0,a5
   175aa:	4681                	li	a3,0
   175ac:	00000073          	ecall
   175b0:	02a4eb63          	bltu	s1,a0,175e6 <_ZN18complex_no_dynamic3app17hedca22993e5437ceE+0xaa>
   175b4:	4785                	li	a5,1
   175b6:	c3a9                	beqz	a5,175f8 <_ZN18complex_no_dynamic3app17hedca22993e5437ceE+0xbc>
   175b8:	4601                	li	a2,0
   175ba:	4681                	li	a3,0
   175bc:	4505                	li	a0,1
   175be:	6709                	lui	a4,0x2
   175c0:	87ae                	mv	a5,a1
   175c2:	45a5                	li	a1,9
   175c4:	00a40023          	sb	a0,0(s0)
   175c8:	c05c                	sw	a5,4(s0)
   175ca:	0ee70793          	addi	a5,a4,238 # 20ee <.Lline_table_start1+0x1ec3>
   175ce:	470d                	li	a4,3
   175d0:	853e                	mv	a0,a5
   175d2:	00000073          	ecall
   175d6:	4591                	li	a1,4
   175d8:	4711                	li	a4,4
   175da:	853e                	mv	a0,a5
   175dc:	4601                	li	a2,0
   175de:	4681                	li	a3,0
   175e0:	00000073          	ecall
   175e4:	a8b1                	j	17640 <_ZN18complex_no_dynamic3app17hedca22993e5437ceE+0x104>
   175e6:	853e                	mv	a0,a5
   175e8:	4601                	li	a2,0
   175ea:	4681                	li	a3,0
   175ec:	4781                	li	a5,0
   175ee:	45a5                	li	a1,9
   175f0:	470d                	li	a4,3
   175f2:	00000073          	ecall
   175f6:	f3e9                	bnez	a5,175b8 <_ZN18complex_no_dynamic3app17hedca22993e5437ceE+0x7c>
   175f8:	6509                	lui	a0,0x2
   175fa:	0ee50493          	addi	s1,a0,238 # 20ee <.Lline_table_start1+0x1ec3>
   175fe:	45a5                	li	a1,9
   17600:	470d                	li	a4,3
   17602:	8526                	mv	a0,s1
   17604:	4601                	li	a2,0
   17606:	4681                	li	a3,0
   17608:	00000073          	ecall
   1760c:	00140513          	addi	a0,s0,1
   17610:	05510593          	addi	a1,sp,85
   17614:	04f00613          	li	a2,79
   17618:	00005097          	auipc	ra,0x5
   1761c:	718080e7          	jalr	1816(ra) # 1cd30 <memcpy>
   17620:	8526                	mv	a0,s1
   17622:	4601                	li	a2,0
   17624:	4681                	li	a3,0
   17626:	00040023          	sb	zero,0(s0)
   1762a:	45a5                	li	a1,9
   1762c:	470d                	li	a4,3
   1762e:	00000073          	ecall
   17632:	4591                	li	a1,4
   17634:	4711                	li	a4,4
   17636:	8526                	mv	a0,s1
   17638:	4601                	li	a2,0
   1763a:	4681                	li	a3,0
   1763c:	00000073          	ecall
   17640:	50ba                	lw	ra,172(sp)
   17642:	542a                	lw	s0,168(sp)
   17644:	549a                	lw	s1,164(sp)
   17646:	614d                	addi	sp,sp,176
   17648:	8082                	ret

0001764a <_ZN18complex_no_dynamic3app17hee7e9342cefef0e8E>:
   1764a:	7159                	addi	sp,sp,-112
   1764c:	d686                	sw	ra,108(sp)
   1764e:	d4a2                	sw	s0,104(sp)
   17650:	d2a6                	sw	s1,100(sp)
   17652:	842a                	mv	s0,a0
   17654:	00510513          	addi	a0,sp,5
   17658:	03800613          	li	a2,56
   1765c:	00005097          	auipc	ra,0x5
   17660:	6d4080e7          	jalr	1748(ra) # 1cd30 <memcpy>
   17664:	03d10513          	addi	a0,sp,61
   17668:	02700613          	li	a2,39
   1766c:	4581                	li	a1,0
   1766e:	00005097          	auipc	ra,0x5
   17672:	656080e7          	jalr	1622(ra) # 1ccc4 <memset>
   17676:	6505                	lui	a0,0x1
   17678:	4489                	li	s1,2
   1767a:	4589                	li	a1,2
   1767c:	00510613          	addi	a2,sp,5
   17680:	e2b50793          	addi	a5,a0,-469 # e2b <.Lline_table_start1+0xc00>
   17684:	03800693          	li	a3,56
   17688:	4711                	li	a4,4
   1768a:	853e                	mv	a0,a5
   1768c:	00000073          	ecall
   17690:	02950b63          	beq	a0,s1,176c6 <_ZN18complex_no_dynamic3app17hee7e9342cefef0e8E+0x7c>
   17694:	45a1                	li	a1,8
   17696:	03d10613          	addi	a2,sp,61
   1769a:	02700693          	li	a3,39
   1769e:	470d                	li	a4,3
   176a0:	853e                	mv	a0,a5
   176a2:	00000073          	ecall
   176a6:	02950063          	beq	a0,s1,176c6 <_ZN18complex_no_dynamic3app17hee7e9342cefef0e8E+0x7c>
   176aa:	6505                	lui	a0,0x1
   176ac:	4589                	li	a1,2
   176ae:	4621                	li	a2,8
   176b0:	e2b50793          	addi	a5,a0,-469 # e2b <.Lline_table_start1+0xc00>
   176b4:	4709                	li	a4,2
   176b6:	07f00493          	li	s1,127
   176ba:	853e                	mv	a0,a5
   176bc:	4681                	li	a3,0
   176be:	00000073          	ecall
   176c2:	02a4eb63          	bltu	s1,a0,176f8 <_ZN18complex_no_dynamic3app17hee7e9342cefef0e8E+0xae>
   176c6:	4785                	li	a5,1
   176c8:	c3a9                	beqz	a5,1770a <_ZN18complex_no_dynamic3app17hee7e9342cefef0e8E+0xc0>
   176ca:	4601                	li	a2,0
   176cc:	4681                	li	a3,0
   176ce:	4505                	li	a0,1
   176d0:	6705                	lui	a4,0x1
   176d2:	87ae                	mv	a5,a1
   176d4:	45a1                	li	a1,8
   176d6:	00a40023          	sb	a0,0(s0)
   176da:	c05c                	sw	a5,4(s0)
   176dc:	e2b70793          	addi	a5,a4,-469 # e2b <.Lline_table_start1+0xc00>
   176e0:	470d                	li	a4,3
   176e2:	853e                	mv	a0,a5
   176e4:	00000073          	ecall
   176e8:	4589                	li	a1,2
   176ea:	4711                	li	a4,4
   176ec:	853e                	mv	a0,a5
   176ee:	4601                	li	a2,0
   176f0:	4681                	li	a3,0
   176f2:	00000073          	ecall
   176f6:	a8b1                	j	17752 <_ZN18complex_no_dynamic3app17hee7e9342cefef0e8E+0x108>
   176f8:	853e                	mv	a0,a5
   176fa:	4601                	li	a2,0
   176fc:	4681                	li	a3,0
   176fe:	4781                	li	a5,0
   17700:	45a1                	li	a1,8
   17702:	470d                	li	a4,3
   17704:	00000073          	ecall
   17708:	f3e9                	bnez	a5,176ca <_ZN18complex_no_dynamic3app17hee7e9342cefef0e8E+0x80>
   1770a:	6505                	lui	a0,0x1
   1770c:	e2b50493          	addi	s1,a0,-469 # e2b <.Lline_table_start1+0xc00>
   17710:	45a1                	li	a1,8
   17712:	470d                	li	a4,3
   17714:	8526                	mv	a0,s1
   17716:	4601                	li	a2,0
   17718:	4681                	li	a3,0
   1771a:	00000073          	ecall
   1771e:	00140513          	addi	a0,s0,1
   17722:	03d10593          	addi	a1,sp,61
   17726:	02700613          	li	a2,39
   1772a:	00005097          	auipc	ra,0x5
   1772e:	606080e7          	jalr	1542(ra) # 1cd30 <memcpy>
   17732:	8526                	mv	a0,s1
   17734:	4601                	li	a2,0
   17736:	4681                	li	a3,0
   17738:	00040023          	sb	zero,0(s0)
   1773c:	45a1                	li	a1,8
   1773e:	470d                	li	a4,3
   17740:	00000073          	ecall
   17744:	4589                	li	a1,2
   17746:	4711                	li	a4,4
   17748:	8526                	mv	a0,s1
   1774a:	4601                	li	a2,0
   1774c:	4681                	li	a3,0
   1774e:	00000073          	ecall
   17752:	50b6                	lw	ra,108(sp)
   17754:	5426                	lw	s0,104(sp)
   17756:	5496                	lw	s1,100(sp)
   17758:	6165                	addi	sp,sp,112
   1775a:	8082                	ret

0001775c <_ZN18complex_no_dynamic3app17heea1b2106ef40d58E>:
   1775c:	7135                	addi	sp,sp,-160
   1775e:	cf06                	sw	ra,156(sp)
   17760:	cd22                	sw	s0,152(sp)
   17762:	cb26                	sw	s1,148(sp)
   17764:	c94a                	sw	s2,144(sp)
   17766:	892a                	mv	s2,a0
   17768:	00d10513          	addi	a0,sp,13
   1776c:	02a00613          	li	a2,42
   17770:	00005097          	auipc	ra,0x5
   17774:	5c0080e7          	jalr	1472(ra) # 1cd30 <memcpy>
   17778:	03710513          	addi	a0,sp,55
   1777c:	05900613          	li	a2,89
   17780:	4581                	li	a1,0
   17782:	00005097          	auipc	ra,0x5
   17786:	542080e7          	jalr	1346(ra) # 1ccc4 <memset>
   1778a:	6505                	lui	a0,0x1
   1778c:	4585                	li	a1,1
   1778e:	00d10613          	addi	a2,sp,13
   17792:	02a00693          	li	a3,42
   17796:	4711                	li	a4,4
   17798:	ed250793          	addi	a5,a0,-302 # ed2 <.Lline_table_start1+0xca7>
   1779c:	4409                	li	s0,2
   1779e:	853e                	mv	a0,a5
   177a0:	00000073          	ecall
   177a4:	4485                	li	s1,1
   177a6:	04850663          	beq	a0,s0,177f2 <_ZN18complex_no_dynamic3app17heea1b2106ef40d58E+0x96>
   177aa:	458d                	li	a1,3
   177ac:	03710613          	addi	a2,sp,55
   177b0:	05900693          	li	a3,89
   177b4:	470d                	li	a4,3
   177b6:	853e                	mv	a0,a5
   177b8:	00000073          	ecall
   177bc:	00851463          	bne	a0,s0,177c4 <_ZN18complex_no_dynamic3app17heea1b2106ef40d58E+0x68>
   177c0:	4485                	li	s1,1
   177c2:	a805                	j	177f2 <_ZN18complex_no_dynamic3app17heea1b2106ef40d58E+0x96>
   177c4:	4681                	li	a3,0
   177c6:	6505                	lui	a0,0x1
   177c8:	4585                	li	a1,1
   177ca:	460d                	li	a2,3
   177cc:	4709                	li	a4,2
   177ce:	ed250793          	addi	a5,a0,-302 # ed2 <.Lline_table_start1+0xca7>
   177d2:	07f00413          	li	s0,127
   177d6:	853e                	mv	a0,a5
   177d8:	00000073          	ecall
   177dc:	4485                	li	s1,1
   177de:	00a47a63          	bgeu	s0,a0,177f2 <_ZN18complex_no_dynamic3app17heea1b2106ef40d58E+0x96>
   177e2:	853e                	mv	a0,a5
   177e4:	4601                	li	a2,0
   177e6:	4681                	li	a3,0
   177e8:	4481                	li	s1,0
   177ea:	458d                	li	a1,3
   177ec:	470d                	li	a4,3
   177ee:	00000073          	ecall
   177f2:	c88d                	beqz	s1,17824 <_ZN18complex_no_dynamic3app17heea1b2106ef40d58E+0xc8>
   177f4:	4601                	li	a2,0
   177f6:	4681                	li	a3,0
   177f8:	4505                	li	a0,1
   177fa:	6705                	lui	a4,0x1
   177fc:	87ae                	mv	a5,a1
   177fe:	458d                	li	a1,3
   17800:	00a90023          	sb	a0,0(s2)
   17804:	00f92223          	sw	a5,4(s2)
   17808:	ed270793          	addi	a5,a4,-302 # ed2 <.Lline_table_start1+0xca7>
   1780c:	470d                	li	a4,3
   1780e:	853e                	mv	a0,a5
   17810:	00000073          	ecall
   17814:	4585                	li	a1,1
   17816:	4711                	li	a4,4
   17818:	853e                	mv	a0,a5
   1781a:	4601                	li	a2,0
   1781c:	4681                	li	a3,0
   1781e:	00000073          	ecall
   17822:	a0a9                	j	1786c <_ZN18complex_no_dynamic3app17heea1b2106ef40d58E+0x110>
   17824:	6505                	lui	a0,0x1
   17826:	ed250493          	addi	s1,a0,-302 # ed2 <.Lline_table_start1+0xca7>
   1782a:	458d                	li	a1,3
   1782c:	470d                	li	a4,3
   1782e:	8526                	mv	a0,s1
   17830:	4601                	li	a2,0
   17832:	4681                	li	a3,0
   17834:	00000073          	ecall
   17838:	00190513          	addi	a0,s2,1
   1783c:	03710593          	addi	a1,sp,55
   17840:	05900613          	li	a2,89
   17844:	00005097          	auipc	ra,0x5
   17848:	4ec080e7          	jalr	1260(ra) # 1cd30 <memcpy>
   1784c:	8526                	mv	a0,s1
   1784e:	4601                	li	a2,0
   17850:	4681                	li	a3,0
   17852:	00090023          	sb	zero,0(s2)
   17856:	458d                	li	a1,3
   17858:	470d                	li	a4,3
   1785a:	00000073          	ecall
   1785e:	4585                	li	a1,1
   17860:	4711                	li	a4,4
   17862:	8526                	mv	a0,s1
   17864:	4601                	li	a2,0
   17866:	4681                	li	a3,0
   17868:	00000073          	ecall
   1786c:	40fa                	lw	ra,156(sp)
   1786e:	446a                	lw	s0,152(sp)
   17870:	44da                	lw	s1,148(sp)
   17872:	494a                	lw	s2,144(sp)
   17874:	610d                	addi	sp,sp,160
   17876:	8082                	ret

00017878 <_ZN18complex_no_dynamic3app17hef87a1c4e4dd6e87E>:
   17878:	7135                	addi	sp,sp,-160
   1787a:	cf06                	sw	ra,156(sp)
   1787c:	cd22                	sw	s0,152(sp)
   1787e:	cb26                	sw	s1,148(sp)
   17880:	842a                	mv	s0,a0
   17882:	00710513          	addi	a0,sp,7
   17886:	02a00613          	li	a2,42
   1788a:	00005097          	auipc	ra,0x5
   1788e:	4a6080e7          	jalr	1190(ra) # 1cd30 <memcpy>
   17892:	03110513          	addi	a0,sp,49
   17896:	06300613          	li	a2,99
   1789a:	4581                	li	a1,0
   1789c:	00005097          	auipc	ra,0x5
   178a0:	428080e7          	jalr	1064(ra) # 1ccc4 <memset>
   178a4:	6509                	lui	a0,0x2
   178a6:	4591                	li	a1,4
   178a8:	00710613          	addi	a2,sp,7
   178ac:	02a00693          	li	a3,42
   178b0:	c7c50793          	addi	a5,a0,-900 # 1c7c <.Lline_table_start1+0x1a51>
   178b4:	4711                	li	a4,4
   178b6:	4489                	li	s1,2
   178b8:	853e                	mv	a0,a5
   178ba:	00000073          	ecall
   178be:	02950b63          	beq	a0,s1,178f4 <_ZN18complex_no_dynamic3app17hef87a1c4e4dd6e87E+0x7c>
   178c2:	03110613          	addi	a2,sp,49
   178c6:	06300693          	li	a3,99
   178ca:	470d                	li	a4,3
   178cc:	853e                	mv	a0,a5
   178ce:	4581                	li	a1,0
   178d0:	00000073          	ecall
   178d4:	02950063          	beq	a0,s1,178f4 <_ZN18complex_no_dynamic3app17hef87a1c4e4dd6e87E+0x7c>
   178d8:	6509                	lui	a0,0x2
   178da:	4591                	li	a1,4
   178dc:	c7c50793          	addi	a5,a0,-900 # 1c7c <.Lline_table_start1+0x1a51>
   178e0:	4709                	li	a4,2
   178e2:	07f00493          	li	s1,127
   178e6:	853e                	mv	a0,a5
   178e8:	4601                	li	a2,0
   178ea:	4681                	li	a3,0
   178ec:	00000073          	ecall
   178f0:	02a4eb63          	bltu	s1,a0,17926 <_ZN18complex_no_dynamic3app17hef87a1c4e4dd6e87E+0xae>
   178f4:	4785                	li	a5,1
   178f6:	c3a9                	beqz	a5,17938 <_ZN18complex_no_dynamic3app17hef87a1c4e4dd6e87E+0xc0>
   178f8:	852e                	mv	a0,a1
   178fa:	4581                	li	a1,0
   178fc:	4601                	li	a2,0
   178fe:	4681                	li	a3,0
   17900:	4705                	li	a4,1
   17902:	6789                	lui	a5,0x2
   17904:	00e40023          	sb	a4,0(s0)
   17908:	c048                	sw	a0,4(s0)
   1790a:	c7c78793          	addi	a5,a5,-900 # 1c7c <.Lline_table_start1+0x1a51>
   1790e:	470d                	li	a4,3
   17910:	853e                	mv	a0,a5
   17912:	00000073          	ecall
   17916:	4591                	li	a1,4
   17918:	4711                	li	a4,4
   1791a:	853e                	mv	a0,a5
   1791c:	4601                	li	a2,0
   1791e:	4681                	li	a3,0
   17920:	00000073          	ecall
   17924:	a8b1                	j	17980 <_ZN18complex_no_dynamic3app17hef87a1c4e4dd6e87E+0x108>
   17926:	853e                	mv	a0,a5
   17928:	4581                	li	a1,0
   1792a:	4601                	li	a2,0
   1792c:	4681                	li	a3,0
   1792e:	4781                	li	a5,0
   17930:	470d                	li	a4,3
   17932:	00000073          	ecall
   17936:	f3e9                	bnez	a5,178f8 <_ZN18complex_no_dynamic3app17hef87a1c4e4dd6e87E+0x80>
   17938:	6509                	lui	a0,0x2
   1793a:	c7c50493          	addi	s1,a0,-900 # 1c7c <.Lline_table_start1+0x1a51>
   1793e:	470d                	li	a4,3
   17940:	8526                	mv	a0,s1
   17942:	4581                	li	a1,0
   17944:	4601                	li	a2,0
   17946:	4681                	li	a3,0
   17948:	00000073          	ecall
   1794c:	00140513          	addi	a0,s0,1
   17950:	03110593          	addi	a1,sp,49
   17954:	06300613          	li	a2,99
   17958:	00005097          	auipc	ra,0x5
   1795c:	3d8080e7          	jalr	984(ra) # 1cd30 <memcpy>
   17960:	8526                	mv	a0,s1
   17962:	4581                	li	a1,0
   17964:	4601                	li	a2,0
   17966:	4681                	li	a3,0
   17968:	00040023          	sb	zero,0(s0)
   1796c:	470d                	li	a4,3
   1796e:	00000073          	ecall
   17972:	4591                	li	a1,4
   17974:	4711                	li	a4,4
   17976:	8526                	mv	a0,s1
   17978:	4601                	li	a2,0
   1797a:	4681                	li	a3,0
   1797c:	00000073          	ecall
   17980:	40fa                	lw	ra,156(sp)
   17982:	446a                	lw	s0,152(sp)
   17984:	44da                	lw	s1,148(sp)
   17986:	610d                	addi	sp,sp,160
   17988:	8082                	ret

0001798a <_ZN18complex_no_dynamic3app17hf05bbb90c101d1e4E>:
   1798a:	7175                	addi	sp,sp,-144
   1798c:	c706                	sw	ra,140(sp)
   1798e:	c522                	sw	s0,136(sp)
   17990:	c326                	sw	s1,132(sp)
   17992:	842a                	mv	s0,a0
   17994:	00e10513          	addi	a0,sp,14
   17998:	02700613          	li	a2,39
   1799c:	00005097          	auipc	ra,0x5
   179a0:	394080e7          	jalr	916(ra) # 1cd30 <memcpy>
   179a4:	03510513          	addi	a0,sp,53
   179a8:	04f00613          	li	a2,79
   179ac:	4581                	li	a1,0
   179ae:	00005097          	auipc	ra,0x5
   179b2:	316080e7          	jalr	790(ra) # 1ccc4 <memset>
   179b6:	6505                	lui	a0,0x1
   179b8:	45a5                	li	a1,9
   179ba:	00e10613          	addi	a2,sp,14
   179be:	02700693          	li	a3,39
   179c2:	b4c50793          	addi	a5,a0,-1204 # b4c <.Lline_table_start1+0x921>
   179c6:	4711                	li	a4,4
   179c8:	4489                	li	s1,2
   179ca:	853e                	mv	a0,a5
   179cc:	00000073          	ecall
   179d0:	02950b63          	beq	a0,s1,17a06 <_ZN18complex_no_dynamic3app17hf05bbb90c101d1e4E+0x7c>
   179d4:	03510613          	addi	a2,sp,53
   179d8:	04f00693          	li	a3,79
   179dc:	470d                	li	a4,3
   179de:	853e                	mv	a0,a5
   179e0:	4581                	li	a1,0
   179e2:	00000073          	ecall
   179e6:	02950063          	beq	a0,s1,17a06 <_ZN18complex_no_dynamic3app17hf05bbb90c101d1e4E+0x7c>
   179ea:	6505                	lui	a0,0x1
   179ec:	45a5                	li	a1,9
   179ee:	b4c50793          	addi	a5,a0,-1204 # b4c <.Lline_table_start1+0x921>
   179f2:	4709                	li	a4,2
   179f4:	07f00493          	li	s1,127
   179f8:	853e                	mv	a0,a5
   179fa:	4601                	li	a2,0
   179fc:	4681                	li	a3,0
   179fe:	00000073          	ecall
   17a02:	02a4eb63          	bltu	s1,a0,17a38 <_ZN18complex_no_dynamic3app17hf05bbb90c101d1e4E+0xae>
   17a06:	4785                	li	a5,1
   17a08:	c3a9                	beqz	a5,17a4a <_ZN18complex_no_dynamic3app17hf05bbb90c101d1e4E+0xc0>
   17a0a:	852e                	mv	a0,a1
   17a0c:	4581                	li	a1,0
   17a0e:	4601                	li	a2,0
   17a10:	4681                	li	a3,0
   17a12:	4705                	li	a4,1
   17a14:	6785                	lui	a5,0x1
   17a16:	00e40023          	sb	a4,0(s0)
   17a1a:	c048                	sw	a0,4(s0)
   17a1c:	b4c78793          	addi	a5,a5,-1204 # b4c <.Lline_table_start1+0x921>
   17a20:	470d                	li	a4,3
   17a22:	853e                	mv	a0,a5
   17a24:	00000073          	ecall
   17a28:	45a5                	li	a1,9
   17a2a:	4711                	li	a4,4
   17a2c:	853e                	mv	a0,a5
   17a2e:	4601                	li	a2,0
   17a30:	4681                	li	a3,0
   17a32:	00000073          	ecall
   17a36:	a8b1                	j	17a92 <_ZN18complex_no_dynamic3app17hf05bbb90c101d1e4E+0x108>
   17a38:	853e                	mv	a0,a5
   17a3a:	4581                	li	a1,0
   17a3c:	4601                	li	a2,0
   17a3e:	4681                	li	a3,0
   17a40:	4781                	li	a5,0
   17a42:	470d                	li	a4,3
   17a44:	00000073          	ecall
   17a48:	f3e9                	bnez	a5,17a0a <_ZN18complex_no_dynamic3app17hf05bbb90c101d1e4E+0x80>
   17a4a:	6505                	lui	a0,0x1
   17a4c:	b4c50493          	addi	s1,a0,-1204 # b4c <.Lline_table_start1+0x921>
   17a50:	470d                	li	a4,3
   17a52:	8526                	mv	a0,s1
   17a54:	4581                	li	a1,0
   17a56:	4601                	li	a2,0
   17a58:	4681                	li	a3,0
   17a5a:	00000073          	ecall
   17a5e:	00140513          	addi	a0,s0,1
   17a62:	03510593          	addi	a1,sp,53
   17a66:	04f00613          	li	a2,79
   17a6a:	00005097          	auipc	ra,0x5
   17a6e:	2c6080e7          	jalr	710(ra) # 1cd30 <memcpy>
   17a72:	8526                	mv	a0,s1
   17a74:	4581                	li	a1,0
   17a76:	4601                	li	a2,0
   17a78:	4681                	li	a3,0
   17a7a:	00040023          	sb	zero,0(s0)
   17a7e:	470d                	li	a4,3
   17a80:	00000073          	ecall
   17a84:	45a5                	li	a1,9
   17a86:	4711                	li	a4,4
   17a88:	8526                	mv	a0,s1
   17a8a:	4601                	li	a2,0
   17a8c:	4681                	li	a3,0
   17a8e:	00000073          	ecall
   17a92:	40ba                	lw	ra,140(sp)
   17a94:	442a                	lw	s0,136(sp)
   17a96:	449a                	lw	s1,132(sp)
   17a98:	6149                	addi	sp,sp,144
   17a9a:	8082                	ret

00017a9c <_ZN18complex_no_dynamic3app17hf23bbf34c26933e2E>:
   17a9c:	7159                	addi	sp,sp,-112
   17a9e:	d686                	sw	ra,108(sp)
   17aa0:	d4a2                	sw	s0,104(sp)
   17aa2:	d2a6                	sw	s1,100(sp)
   17aa4:	842a                	mv	s0,a0
   17aa6:	00310513          	addi	a0,sp,3
   17aaa:	05100613          	li	a2,81
   17aae:	00005097          	auipc	ra,0x5
   17ab2:	282080e7          	jalr	642(ra) # 1cd30 <memcpy>
   17ab6:	06010123          	sb	zero,98(sp)
   17aba:	ca82                	sw	zero,84(sp)
   17abc:	cc82                	sw	zero,88(sp)
   17abe:	ce82                	sw	zero,92(sp)
   17ac0:	06011023          	sh	zero,96(sp)
   17ac4:	6505                	lui	a0,0x1
   17ac6:	00310613          	addi	a2,sp,3
   17aca:	05100693          	li	a3,81
   17ace:	3bf50793          	addi	a5,a0,959 # 13bf <.Lline_table_start1+0x1194>
   17ad2:	4711                	li	a4,4
   17ad4:	4489                	li	s1,2
   17ad6:	853e                	mv	a0,a5
   17ad8:	4581                	li	a1,0
   17ada:	00000073          	ecall
   17ade:	02950963          	beq	a0,s1,17b10 <_ZN18complex_no_dynamic3app17hf23bbf34c26933e2E+0x74>
   17ae2:	458d                	li	a1,3
   17ae4:	08d0                	addi	a2,sp,84
   17ae6:	46bd                	li	a3,15
   17ae8:	470d                	li	a4,3
   17aea:	853e                	mv	a0,a5
   17aec:	00000073          	ecall
   17af0:	02950063          	beq	a0,s1,17b10 <_ZN18complex_no_dynamic3app17hf23bbf34c26933e2E+0x74>
   17af4:	6505                	lui	a0,0x1
   17af6:	460d                	li	a2,3
   17af8:	3bf50793          	addi	a5,a0,959 # 13bf <.Lline_table_start1+0x1194>
   17afc:	4709                	li	a4,2
   17afe:	07f00493          	li	s1,127
   17b02:	853e                	mv	a0,a5
   17b04:	4581                	li	a1,0
   17b06:	4681                	li	a3,0
   17b08:	00000073          	ecall
   17b0c:	02a4ea63          	bltu	s1,a0,17b40 <_ZN18complex_no_dynamic3app17hf23bbf34c26933e2E+0xa4>
   17b10:	4785                	li	a5,1
   17b12:	c3a1                	beqz	a5,17b52 <_ZN18complex_no_dynamic3app17hf23bbf34c26933e2E+0xb6>
   17b14:	4505                	li	a0,1
   17b16:	6605                	lui	a2,0x1
   17b18:	00a40023          	sb	a0,0(s0)
   17b1c:	c04c                	sw	a1,4(s0)
   17b1e:	3bf60793          	addi	a5,a2,959 # 13bf <.Lline_table_start1+0x1194>
   17b22:	458d                	li	a1,3
   17b24:	470d                	li	a4,3
   17b26:	853e                	mv	a0,a5
   17b28:	4601                	li	a2,0
   17b2a:	4681                	li	a3,0
   17b2c:	00000073          	ecall
   17b30:	4711                	li	a4,4
   17b32:	853e                	mv	a0,a5
   17b34:	4581                	li	a1,0
   17b36:	4601                	li	a2,0
   17b38:	4681                	li	a3,0
   17b3a:	00000073          	ecall
   17b3e:	a8a1                	j	17b96 <_ZN18complex_no_dynamic3app17hf23bbf34c26933e2E+0xfa>
   17b40:	853e                	mv	a0,a5
   17b42:	4601                	li	a2,0
   17b44:	4681                	li	a3,0
   17b46:	4781                	li	a5,0
   17b48:	458d                	li	a1,3
   17b4a:	470d                	li	a4,3
   17b4c:	00000073          	ecall
   17b50:	f3f1                	bnez	a5,17b14 <_ZN18complex_no_dynamic3app17hf23bbf34c26933e2E+0x78>
   17b52:	6505                	lui	a0,0x1
   17b54:	3bf50493          	addi	s1,a0,959 # 13bf <.Lline_table_start1+0x1194>
   17b58:	458d                	li	a1,3
   17b5a:	470d                	li	a4,3
   17b5c:	8526                	mv	a0,s1
   17b5e:	4601                	li	a2,0
   17b60:	4681                	li	a3,0
   17b62:	00000073          	ecall
   17b66:	00140513          	addi	a0,s0,1
   17b6a:	08cc                	addi	a1,sp,84
   17b6c:	463d                	li	a2,15
   17b6e:	00005097          	auipc	ra,0x5
   17b72:	1c2080e7          	jalr	450(ra) # 1cd30 <memcpy>
   17b76:	00040023          	sb	zero,0(s0)
   17b7a:	458d                	li	a1,3
   17b7c:	470d                	li	a4,3
   17b7e:	8526                	mv	a0,s1
   17b80:	4601                	li	a2,0
   17b82:	4681                	li	a3,0
   17b84:	00000073          	ecall
   17b88:	4711                	li	a4,4
   17b8a:	8526                	mv	a0,s1
   17b8c:	4581                	li	a1,0
   17b8e:	4601                	li	a2,0
   17b90:	4681                	li	a3,0
   17b92:	00000073          	ecall
   17b96:	50b6                	lw	ra,108(sp)
   17b98:	5426                	lw	s0,104(sp)
   17b9a:	5496                	lw	s1,100(sp)
   17b9c:	6165                	addi	sp,sp,112
   17b9e:	8082                	ret

00017ba0 <_ZN18complex_no_dynamic3app17hf385d3e18499aff8E>:
   17ba0:	7171                	addi	sp,sp,-176
   17ba2:	d706                	sw	ra,172(sp)
   17ba4:	d522                	sw	s0,168(sp)
   17ba6:	d326                	sw	s1,164(sp)
   17ba8:	842a                	mv	s0,a0
   17baa:	00d10513          	addi	a0,sp,13
   17bae:	03a00613          	li	a2,58
   17bb2:	00005097          	auipc	ra,0x5
   17bb6:	17e080e7          	jalr	382(ra) # 1cd30 <memcpy>
   17bba:	04710513          	addi	a0,sp,71
   17bbe:	05d00613          	li	a2,93
   17bc2:	4581                	li	a1,0
   17bc4:	00005097          	auipc	ra,0x5
   17bc8:	100080e7          	jalr	256(ra) # 1ccc4 <memset>
   17bcc:	6505                	lui	a0,0x1
   17bce:	00d10613          	addi	a2,sp,13
   17bd2:	03a00693          	li	a3,58
   17bd6:	4a450793          	addi	a5,a0,1188 # 14a4 <.Lline_table_start1+0x1279>
   17bda:	4711                	li	a4,4
   17bdc:	4489                	li	s1,2
   17bde:	853e                	mv	a0,a5
   17be0:	4581                	li	a1,0
   17be2:	00000073          	ecall
   17be6:	02950b63          	beq	a0,s1,17c1c <_ZN18complex_no_dynamic3app17hf385d3e18499aff8E+0x7c>
   17bea:	4595                	li	a1,5
   17bec:	04710613          	addi	a2,sp,71
   17bf0:	05d00693          	li	a3,93
   17bf4:	470d                	li	a4,3
   17bf6:	853e                	mv	a0,a5
   17bf8:	00000073          	ecall
   17bfc:	02950063          	beq	a0,s1,17c1c <_ZN18complex_no_dynamic3app17hf385d3e18499aff8E+0x7c>
   17c00:	6505                	lui	a0,0x1
   17c02:	4615                	li	a2,5
   17c04:	4a450793          	addi	a5,a0,1188 # 14a4 <.Lline_table_start1+0x1279>
   17c08:	4709                	li	a4,2
   17c0a:	07f00493          	li	s1,127
   17c0e:	853e                	mv	a0,a5
   17c10:	4581                	li	a1,0
   17c12:	4681                	li	a3,0
   17c14:	00000073          	ecall
   17c18:	02a4ea63          	bltu	s1,a0,17c4c <_ZN18complex_no_dynamic3app17hf385d3e18499aff8E+0xac>
   17c1c:	4785                	li	a5,1
   17c1e:	c3a1                	beqz	a5,17c5e <_ZN18complex_no_dynamic3app17hf385d3e18499aff8E+0xbe>
   17c20:	4505                	li	a0,1
   17c22:	6605                	lui	a2,0x1
   17c24:	00a40023          	sb	a0,0(s0)
   17c28:	c04c                	sw	a1,4(s0)
   17c2a:	4a460793          	addi	a5,a2,1188 # 14a4 <.Lline_table_start1+0x1279>
   17c2e:	4595                	li	a1,5
   17c30:	470d                	li	a4,3
   17c32:	853e                	mv	a0,a5
   17c34:	4601                	li	a2,0
   17c36:	4681                	li	a3,0
   17c38:	00000073          	ecall
   17c3c:	4711                	li	a4,4
   17c3e:	853e                	mv	a0,a5
   17c40:	4581                	li	a1,0
   17c42:	4601                	li	a2,0
   17c44:	4681                	li	a3,0
   17c46:	00000073          	ecall
   17c4a:	a8b1                	j	17ca6 <_ZN18complex_no_dynamic3app17hf385d3e18499aff8E+0x106>
   17c4c:	853e                	mv	a0,a5
   17c4e:	4601                	li	a2,0
   17c50:	4681                	li	a3,0
   17c52:	4781                	li	a5,0
   17c54:	4595                	li	a1,5
   17c56:	470d                	li	a4,3
   17c58:	00000073          	ecall
   17c5c:	f3f1                	bnez	a5,17c20 <_ZN18complex_no_dynamic3app17hf385d3e18499aff8E+0x80>
   17c5e:	6505                	lui	a0,0x1
   17c60:	4a450493          	addi	s1,a0,1188 # 14a4 <.Lline_table_start1+0x1279>
   17c64:	4595                	li	a1,5
   17c66:	470d                	li	a4,3
   17c68:	8526                	mv	a0,s1
   17c6a:	4601                	li	a2,0
   17c6c:	4681                	li	a3,0
   17c6e:	00000073          	ecall
   17c72:	00140513          	addi	a0,s0,1
   17c76:	04710593          	addi	a1,sp,71
   17c7a:	05d00613          	li	a2,93
   17c7e:	00005097          	auipc	ra,0x5
   17c82:	0b2080e7          	jalr	178(ra) # 1cd30 <memcpy>
   17c86:	00040023          	sb	zero,0(s0)
   17c8a:	4595                	li	a1,5
   17c8c:	470d                	li	a4,3
   17c8e:	8526                	mv	a0,s1
   17c90:	4601                	li	a2,0
   17c92:	4681                	li	a3,0
   17c94:	00000073          	ecall
   17c98:	4711                	li	a4,4
   17c9a:	8526                	mv	a0,s1
   17c9c:	4581                	li	a1,0
   17c9e:	4601                	li	a2,0
   17ca0:	4681                	li	a3,0
   17ca2:	00000073          	ecall
   17ca6:	50ba                	lw	ra,172(sp)
   17ca8:	542a                	lw	s0,168(sp)
   17caa:	549a                	lw	s1,164(sp)
   17cac:	614d                	addi	sp,sp,176
   17cae:	8082                	ret

00017cb0 <_ZN18complex_no_dynamic3app17hfaae84f23f418cb4E>:
   17cb0:	7119                	addi	sp,sp,-128
   17cb2:	de86                	sw	ra,124(sp)
   17cb4:	dca2                	sw	s0,120(sp)
   17cb6:	daa6                	sw	s1,116(sp)
   17cb8:	d8ca                	sw	s2,112(sp)
   17cba:	892a                	mv	s2,a0
   17cbc:	0048                	addi	a0,sp,4
   17cbe:	04900613          	li	a2,73
   17cc2:	00005097          	auipc	ra,0x5
   17cc6:	06e080e7          	jalr	110(ra) # 1cd30 <memcpy>
   17cca:	04d10513          	addi	a0,sp,77
   17cce:	02300613          	li	a2,35
   17cd2:	4581                	li	a1,0
   17cd4:	00005097          	auipc	ra,0x5
   17cd8:	ff0080e7          	jalr	-16(ra) # 1ccc4 <memset>
   17cdc:	6505                	lui	a0,0x1
   17cde:	459d                	li	a1,7
   17ce0:	0050                	addi	a2,sp,4
   17ce2:	04900693          	li	a3,73
   17ce6:	55150793          	addi	a5,a0,1361 # 1551 <.Lline_table_start1+0x1326>
   17cea:	4711                	li	a4,4
   17cec:	4409                	li	s0,2
   17cee:	853e                	mv	a0,a5
   17cf0:	00000073          	ecall
   17cf4:	00851463          	bne	a0,s0,17cfc <_ZN18complex_no_dynamic3app17hfaae84f23f418cb4E+0x4c>
   17cf8:	4485                	li	s1,1
   17cfa:	a0a1                	j	17d42 <_ZN18complex_no_dynamic3app17hfaae84f23f418cb4E+0x92>
   17cfc:	853e                	mv	a0,a5
   17cfe:	4485                	li	s1,1
   17d00:	4585                	li	a1,1
   17d02:	04d10613          	addi	a2,sp,77
   17d06:	02300693          	li	a3,35
   17d0a:	470d                	li	a4,3
   17d0c:	00000073          	ecall
   17d10:	02850963          	beq	a0,s0,17d42 <_ZN18complex_no_dynamic3app17hfaae84f23f418cb4E+0x92>
   17d14:	4681                	li	a3,0
   17d16:	6505                	lui	a0,0x1
   17d18:	459d                	li	a1,7
   17d1a:	4605                	li	a2,1
   17d1c:	4709                	li	a4,2
   17d1e:	55150793          	addi	a5,a0,1361 # 1551 <.Lline_table_start1+0x1326>
   17d22:	07f00413          	li	s0,127
   17d26:	853e                	mv	a0,a5
   17d28:	00000073          	ecall
   17d2c:	4485                	li	s1,1
   17d2e:	00a47a63          	bgeu	s0,a0,17d42 <_ZN18complex_no_dynamic3app17hfaae84f23f418cb4E+0x92>
   17d32:	853e                	mv	a0,a5
   17d34:	4601                	li	a2,0
   17d36:	4681                	li	a3,0
   17d38:	4481                	li	s1,0
   17d3a:	4585                	li	a1,1
   17d3c:	470d                	li	a4,3
   17d3e:	00000073          	ecall
   17d42:	c88d                	beqz	s1,17d74 <_ZN18complex_no_dynamic3app17hfaae84f23f418cb4E+0xc4>
   17d44:	4601                	li	a2,0
   17d46:	4681                	li	a3,0
   17d48:	4505                	li	a0,1
   17d4a:	6705                	lui	a4,0x1
   17d4c:	87ae                	mv	a5,a1
   17d4e:	4585                	li	a1,1
   17d50:	00a90023          	sb	a0,0(s2)
   17d54:	00f92223          	sw	a5,4(s2)
   17d58:	55170793          	addi	a5,a4,1361 # 1551 <.Lline_table_start1+0x1326>
   17d5c:	470d                	li	a4,3
   17d5e:	853e                	mv	a0,a5
   17d60:	00000073          	ecall
   17d64:	459d                	li	a1,7
   17d66:	4711                	li	a4,4
   17d68:	853e                	mv	a0,a5
   17d6a:	4601                	li	a2,0
   17d6c:	4681                	li	a3,0
   17d6e:	00000073          	ecall
   17d72:	a0a9                	j	17dbc <_ZN18complex_no_dynamic3app17hfaae84f23f418cb4E+0x10c>
   17d74:	6505                	lui	a0,0x1
   17d76:	55150493          	addi	s1,a0,1361 # 1551 <.Lline_table_start1+0x1326>
   17d7a:	4585                	li	a1,1
   17d7c:	470d                	li	a4,3
   17d7e:	8526                	mv	a0,s1
   17d80:	4601                	li	a2,0
   17d82:	4681                	li	a3,0
   17d84:	00000073          	ecall
   17d88:	00190513          	addi	a0,s2,1
   17d8c:	04d10593          	addi	a1,sp,77
   17d90:	02300613          	li	a2,35
   17d94:	00005097          	auipc	ra,0x5
   17d98:	f9c080e7          	jalr	-100(ra) # 1cd30 <memcpy>
   17d9c:	8526                	mv	a0,s1
   17d9e:	4601                	li	a2,0
   17da0:	4681                	li	a3,0
   17da2:	00090023          	sb	zero,0(s2)
   17da6:	4585                	li	a1,1
   17da8:	470d                	li	a4,3
   17daa:	00000073          	ecall
   17dae:	459d                	li	a1,7
   17db0:	4711                	li	a4,4
   17db2:	8526                	mv	a0,s1
   17db4:	4601                	li	a2,0
   17db6:	4681                	li	a3,0
   17db8:	00000073          	ecall
   17dbc:	50f6                	lw	ra,124(sp)
   17dbe:	5466                	lw	s0,120(sp)
   17dc0:	54d6                	lw	s1,116(sp)
   17dc2:	5946                	lw	s2,112(sp)
   17dc4:	6109                	addi	sp,sp,128
   17dc6:	8082                	ret

00017dc8 <_ZN18complex_no_dynamic3app17hfb7755de4dbd7564E>:
   17dc8:	7131                	addi	sp,sp,-192
   17dca:	df06                	sw	ra,188(sp)
   17dcc:	dd22                	sw	s0,184(sp)
   17dce:	db26                	sw	s1,180(sp)
   17dd0:	842a                	mv	s0,a0
   17dd2:	00110513          	addi	a0,sp,1
   17dd6:	05e00613          	li	a2,94
   17dda:	00005097          	auipc	ra,0x5
   17dde:	f56080e7          	jalr	-170(ra) # 1cd30 <memcpy>
   17de2:	05f10513          	addi	a0,sp,95
   17de6:	05500613          	li	a2,85
   17dea:	4581                	li	a1,0
   17dec:	00005097          	auipc	ra,0x5
   17df0:	ed8080e7          	jalr	-296(ra) # 1ccc4 <memset>
   17df4:	6505                	lui	a0,0x1
   17df6:	459d                	li	a1,7
   17df8:	00110613          	addi	a2,sp,1
   17dfc:	05e00693          	li	a3,94
   17e00:	78a50793          	addi	a5,a0,1930 # 178a <.Lline_table_start1+0x155f>
   17e04:	4711                	li	a4,4
   17e06:	4489                	li	s1,2
   17e08:	853e                	mv	a0,a5
   17e0a:	00000073          	ecall
   17e0e:	02950b63          	beq	a0,s1,17e44 <_ZN18complex_no_dynamic3app17hfb7755de4dbd7564E+0x7c>
   17e12:	458d                	li	a1,3
   17e14:	05f10613          	addi	a2,sp,95
   17e18:	05500693          	li	a3,85
   17e1c:	470d                	li	a4,3
   17e1e:	853e                	mv	a0,a5
   17e20:	00000073          	ecall
   17e24:	02950063          	beq	a0,s1,17e44 <_ZN18complex_no_dynamic3app17hfb7755de4dbd7564E+0x7c>
   17e28:	6505                	lui	a0,0x1
   17e2a:	459d                	li	a1,7
   17e2c:	460d                	li	a2,3
   17e2e:	78a50793          	addi	a5,a0,1930 # 178a <.Lline_table_start1+0x155f>
   17e32:	4709                	li	a4,2
   17e34:	07f00493          	li	s1,127
   17e38:	853e                	mv	a0,a5
   17e3a:	4681                	li	a3,0
   17e3c:	00000073          	ecall
   17e40:	02a4eb63          	bltu	s1,a0,17e76 <_ZN18complex_no_dynamic3app17hfb7755de4dbd7564E+0xae>
   17e44:	4785                	li	a5,1
   17e46:	c3a9                	beqz	a5,17e88 <_ZN18complex_no_dynamic3app17hfb7755de4dbd7564E+0xc0>
   17e48:	4601                	li	a2,0
   17e4a:	4681                	li	a3,0
   17e4c:	4505                	li	a0,1
   17e4e:	6705                	lui	a4,0x1
   17e50:	87ae                	mv	a5,a1
   17e52:	458d                	li	a1,3
   17e54:	00a40023          	sb	a0,0(s0)
   17e58:	c05c                	sw	a5,4(s0)
   17e5a:	78a70793          	addi	a5,a4,1930 # 178a <.Lline_table_start1+0x155f>
   17e5e:	470d                	li	a4,3
   17e60:	853e                	mv	a0,a5
   17e62:	00000073          	ecall
   17e66:	459d                	li	a1,7
   17e68:	4711                	li	a4,4
   17e6a:	853e                	mv	a0,a5
   17e6c:	4601                	li	a2,0
   17e6e:	4681                	li	a3,0
   17e70:	00000073          	ecall
   17e74:	a8b1                	j	17ed0 <_ZN18complex_no_dynamic3app17hfb7755de4dbd7564E+0x108>
   17e76:	853e                	mv	a0,a5
   17e78:	4601                	li	a2,0
   17e7a:	4681                	li	a3,0
   17e7c:	4781                	li	a5,0
   17e7e:	458d                	li	a1,3
   17e80:	470d                	li	a4,3
   17e82:	00000073          	ecall
   17e86:	f3e9                	bnez	a5,17e48 <_ZN18complex_no_dynamic3app17hfb7755de4dbd7564E+0x80>
   17e88:	6505                	lui	a0,0x1
   17e8a:	78a50493          	addi	s1,a0,1930 # 178a <.Lline_table_start1+0x155f>
   17e8e:	458d                	li	a1,3
   17e90:	470d                	li	a4,3
   17e92:	8526                	mv	a0,s1
   17e94:	4601                	li	a2,0
   17e96:	4681                	li	a3,0
   17e98:	00000073          	ecall
   17e9c:	00140513          	addi	a0,s0,1
   17ea0:	05f10593          	addi	a1,sp,95
   17ea4:	05500613          	li	a2,85
   17ea8:	00005097          	auipc	ra,0x5
   17eac:	e88080e7          	jalr	-376(ra) # 1cd30 <memcpy>
   17eb0:	8526                	mv	a0,s1
   17eb2:	4601                	li	a2,0
   17eb4:	4681                	li	a3,0
   17eb6:	00040023          	sb	zero,0(s0)
   17eba:	458d                	li	a1,3
   17ebc:	470d                	li	a4,3
   17ebe:	00000073          	ecall
   17ec2:	459d                	li	a1,7
   17ec4:	4711                	li	a4,4
   17ec6:	8526                	mv	a0,s1
   17ec8:	4601                	li	a2,0
   17eca:	4681                	li	a3,0
   17ecc:	00000073          	ecall
   17ed0:	50fa                	lw	ra,188(sp)
   17ed2:	546a                	lw	s0,184(sp)
   17ed4:	54da                	lw	s1,180(sp)
   17ed6:	6129                	addi	sp,sp,192
   17ed8:	8082                	ret

00017eda <_ZN18complex_no_dynamic3app17hfc5735266ae4942bE>:
   17eda:	7119                	addi	sp,sp,-128
   17edc:	de86                	sw	ra,124(sp)
   17ede:	dca2                	sw	s0,120(sp)
   17ee0:	daa6                	sw	s1,116(sp)
   17ee2:	d8ca                	sw	s2,112(sp)
   17ee4:	892a                	mv	s2,a0
   17ee6:	0105c503          	lbu	a0,16(a1)
   17eea:	00c5c803          	lbu	a6,12(a1)
   17eee:	00d5c683          	lbu	a3,13(a1)
   17ef2:	00e5c703          	lbu	a4,14(a1)
   17ef6:	00f5c783          	lbu	a5,15(a1)
   17efa:	0085c483          	lbu	s1,8(a1)
   17efe:	0095c403          	lbu	s0,9(a1)
   17f02:	00a5c883          	lbu	a7,10(a1)
   17f06:	00b5c603          	lbu	a2,11(a1)
   17f0a:	00a10e23          	sb	a0,28(sp)
   17f0e:	06a2                	slli	a3,a3,0x8
   17f10:	0742                	slli	a4,a4,0x10
   17f12:	07e2                	slli	a5,a5,0x18
   17f14:	0422                	slli	s0,s0,0x8
   17f16:	0106e833          	or	a6,a3,a6
   17f1a:	00e7e2b3          	or	t0,a5,a4
   17f1e:	8c45                	or	s0,s0,s1
   17f20:	0045c683          	lbu	a3,4(a1)
   17f24:	0055c783          	lbu	a5,5(a1)
   17f28:	0065c483          	lbu	s1,6(a1)
   17f2c:	0075c503          	lbu	a0,7(a1)
   17f30:	08c2                	slli	a7,a7,0x10
   17f32:	0662                	slli	a2,a2,0x18
   17f34:	07a2                	slli	a5,a5,0x8
   17f36:	04c2                	slli	s1,s1,0x10
   17f38:	0562                	slli	a0,a0,0x18
   17f3a:	01166633          	or	a2,a2,a7
   17f3e:	8edd                	or	a3,a3,a5
   17f40:	0005c783          	lbu	a5,0(a1)
   17f44:	0015c703          	lbu	a4,1(a1)
   17f48:	8d45                	or	a0,a0,s1
   17f4a:	0025c483          	lbu	s1,2(a1)
   17f4e:	0035c583          	lbu	a1,3(a1)
   17f52:	0722                	slli	a4,a4,0x8
   17f54:	8f5d                	or	a4,a4,a5
   17f56:	04c2                	slli	s1,s1,0x10
   17f58:	05e2                	slli	a1,a1,0x18
   17f5a:	8dc5                	or	a1,a1,s1
   17f5c:	0102e7b3          	or	a5,t0,a6
   17f60:	8e41                	or	a2,a2,s0
   17f62:	8d55                	or	a0,a0,a3
   17f64:	8dd9                	or	a1,a1,a4
   17f66:	c62e                	sw	a1,12(sp)
   17f68:	c82a                	sw	a0,16(sp)
   17f6a:	ca32                	sw	a2,20(sp)
   17f6c:	cc3e                	sw	a5,24(sp)
   17f6e:	1008                	addi	a0,sp,32
   17f70:	05000613          	li	a2,80
   17f74:	4581                	li	a1,0
   17f76:	00005097          	auipc	ra,0x5
   17f7a:	d4e080e7          	jalr	-690(ra) # 1ccc4 <memset>
   17f7e:	6509                	lui	a0,0x2
   17f80:	4599                	li	a1,6
   17f82:	0070                	addi	a2,sp,12
   17f84:	46c5                	li	a3,17
   17f86:	aa950793          	addi	a5,a0,-1367 # 1aa9 <.Lline_table_start1+0x187e>
   17f8a:	4711                	li	a4,4
   17f8c:	4489                	li	s1,2
   17f8e:	853e                	mv	a0,a5
   17f90:	00000073          	ecall
   17f94:	02950a63          	beq	a0,s1,17fc8 <_ZN18complex_no_dynamic3app17hfc5735266ae4942bE+0xee>
   17f98:	4595                	li	a1,5
   17f9a:	1010                	addi	a2,sp,32
   17f9c:	05000693          	li	a3,80
   17fa0:	470d                	li	a4,3
   17fa2:	853e                	mv	a0,a5
   17fa4:	00000073          	ecall
   17fa8:	02950063          	beq	a0,s1,17fc8 <_ZN18complex_no_dynamic3app17hfc5735266ae4942bE+0xee>
   17fac:	6509                	lui	a0,0x2
   17fae:	4599                	li	a1,6
   17fb0:	4615                	li	a2,5
   17fb2:	aa950793          	addi	a5,a0,-1367 # 1aa9 <.Lline_table_start1+0x187e>
   17fb6:	4709                	li	a4,2
   17fb8:	07f00493          	li	s1,127
   17fbc:	853e                	mv	a0,a5
   17fbe:	4681                	li	a3,0
   17fc0:	00000073          	ecall
   17fc4:	02a4ec63          	bltu	s1,a0,17ffc <_ZN18complex_no_dynamic3app17hfc5735266ae4942bE+0x122>
   17fc8:	4785                	li	a5,1
   17fca:	c3b1                	beqz	a5,1800e <_ZN18complex_no_dynamic3app17hfc5735266ae4942bE+0x134>
   17fcc:	4601                	li	a2,0
   17fce:	4681                	li	a3,0
   17fd0:	4505                	li	a0,1
   17fd2:	6709                	lui	a4,0x2
   17fd4:	87ae                	mv	a5,a1
   17fd6:	4595                	li	a1,5
   17fd8:	00a90023          	sb	a0,0(s2)
   17fdc:	00f92223          	sw	a5,4(s2)
   17fe0:	aa970793          	addi	a5,a4,-1367 # 1aa9 <.Lline_table_start1+0x187e>
   17fe4:	470d                	li	a4,3
   17fe6:	853e                	mv	a0,a5
   17fe8:	00000073          	ecall
   17fec:	4599                	li	a1,6
   17fee:	4711                	li	a4,4
   17ff0:	853e                	mv	a0,a5
   17ff2:	4601                	li	a2,0
   17ff4:	4681                	li	a3,0
   17ff6:	00000073          	ecall
   17ffa:	a8a9                	j	18054 <_ZN18complex_no_dynamic3app17hfc5735266ae4942bE+0x17a>
   17ffc:	853e                	mv	a0,a5
   17ffe:	4601                	li	a2,0
   18000:	4681                	li	a3,0
   18002:	4781                	li	a5,0
   18004:	4595                	li	a1,5
   18006:	470d                	li	a4,3
   18008:	00000073          	ecall
   1800c:	f3e1                	bnez	a5,17fcc <_ZN18complex_no_dynamic3app17hfc5735266ae4942bE+0xf2>
   1800e:	6509                	lui	a0,0x2
   18010:	aa950493          	addi	s1,a0,-1367 # 1aa9 <.Lline_table_start1+0x187e>
   18014:	4595                	li	a1,5
   18016:	470d                	li	a4,3
   18018:	8526                	mv	a0,s1
   1801a:	4601                	li	a2,0
   1801c:	4681                	li	a3,0
   1801e:	00000073          	ecall
   18022:	00190513          	addi	a0,s2,1
   18026:	100c                	addi	a1,sp,32
   18028:	05000613          	li	a2,80
   1802c:	00005097          	auipc	ra,0x5
   18030:	d04080e7          	jalr	-764(ra) # 1cd30 <memcpy>
   18034:	8526                	mv	a0,s1
   18036:	4601                	li	a2,0
   18038:	4681                	li	a3,0
   1803a:	00090023          	sb	zero,0(s2)
   1803e:	4595                	li	a1,5
   18040:	470d                	li	a4,3
   18042:	00000073          	ecall
   18046:	4599                	li	a1,6
   18048:	4711                	li	a4,4
   1804a:	8526                	mv	a0,s1
   1804c:	4601                	li	a2,0
   1804e:	4681                	li	a3,0
   18050:	00000073          	ecall
   18054:	50f6                	lw	ra,124(sp)
   18056:	5466                	lw	s0,120(sp)
   18058:	54d6                	lw	s1,116(sp)
   1805a:	5946                	lw	s2,112(sp)
   1805c:	6109                	addi	sp,sp,128
   1805e:	8082                	ret

00018060 <_ZN18complex_no_dynamic3app17hfca6b310171c55daE>:
   18060:	7175                	addi	sp,sp,-144
   18062:	c706                	sw	ra,140(sp)
   18064:	c522                	sw	s0,136(sp)
   18066:	c326                	sw	s1,132(sp)
   18068:	c14a                	sw	s2,128(sp)
   1806a:	dece                	sw	s3,124(sp)
   1806c:	dcd2                	sw	s4,120(sp)
   1806e:	892a                	mv	s2,a0
   18070:	01c5c303          	lbu	t1,28(a1)
   18074:	01d5c603          	lbu	a2,29(a1)
   18078:	0185c683          	lbu	a3,24(a1)
   1807c:	0195c703          	lbu	a4,25(a1)
   18080:	01a5c803          	lbu	a6,26(a1)
   18084:	01b5c283          	lbu	t0,27(a1)
   18088:	0145c883          	lbu	a7,20(a1)
   1808c:	0155c383          	lbu	t2,21(a1)
   18090:	0165c403          	lbu	s0,22(a1)
   18094:	0175c483          	lbu	s1,23(a1)
   18098:	0105c503          	lbu	a0,16(a1)
   1809c:	0115c783          	lbu	a5,17(a1)
   180a0:	0125ce03          	lbu	t3,18(a1)
   180a4:	0135ce83          	lbu	t4,19(a1)
   180a8:	0622                	slli	a2,a2,0x8
   180aa:	0722                	slli	a4,a4,0x8
   180ac:	00666333          	or	t1,a2,t1
   180b0:	00d76f33          	or	t5,a4,a3
   180b4:	00c5cf83          	lbu	t6,12(a1)
   180b8:	00d5c683          	lbu	a3,13(a1)
   180bc:	00e5c703          	lbu	a4,14(a1)
   180c0:	00f5c603          	lbu	a2,15(a1)
   180c4:	0842                	slli	a6,a6,0x10
   180c6:	02e2                	slli	t0,t0,0x18
   180c8:	03a2                	slli	t2,t2,0x8
   180ca:	0442                	slli	s0,s0,0x10
   180cc:	04e2                	slli	s1,s1,0x18
   180ce:	07a2                	slli	a5,a5,0x8
   180d0:	0102e2b3          	or	t0,t0,a6
   180d4:	0113e833          	or	a6,t2,a7
   180d8:	0084e8b3          	or	a7,s1,s0
   180dc:	00a7e3b3          	or	t2,a5,a0
   180e0:	0085c503          	lbu	a0,8(a1)
   180e4:	0095c783          	lbu	a5,9(a1)
   180e8:	00a5c403          	lbu	s0,10(a1)
   180ec:	00b5c483          	lbu	s1,11(a1)
   180f0:	0e42                	slli	t3,t3,0x10
   180f2:	0ee2                	slli	t4,t4,0x18
   180f4:	06a2                	slli	a3,a3,0x8
   180f6:	0742                	slli	a4,a4,0x10
   180f8:	0662                	slli	a2,a2,0x18
   180fa:	07a2                	slli	a5,a5,0x8
   180fc:	01ceee33          	or	t3,t4,t3
   18100:	01f6eeb3          	or	t4,a3,t6
   18104:	00e669b3          	or	s3,a2,a4
   18108:	00a7efb3          	or	t6,a5,a0
   1810c:	0045c703          	lbu	a4,4(a1)
   18110:	0055c783          	lbu	a5,5(a1)
   18114:	0065c683          	lbu	a3,6(a1)
   18118:	0075c503          	lbu	a0,7(a1)
   1811c:	0442                	slli	s0,s0,0x10
   1811e:	04e2                	slli	s1,s1,0x18
   18120:	07a2                	slli	a5,a5,0x8
   18122:	06c2                	slli	a3,a3,0x10
   18124:	0562                	slli	a0,a0,0x18
   18126:	8c45                	or	s0,s0,s1
   18128:	00e7ea33          	or	s4,a5,a4
   1812c:	0005c783          	lbu	a5,0(a1)
   18130:	0015c483          	lbu	s1,1(a1)
   18134:	8d55                	or	a0,a0,a3
   18136:	0025c683          	lbu	a3,2(a1)
   1813a:	0035c583          	lbu	a1,3(a1)
   1813e:	04a2                	slli	s1,s1,0x8
   18140:	8fc5                	or	a5,a5,s1
   18142:	06c2                	slli	a3,a3,0x10
   18144:	05e2                	slli	a1,a1,0x18
   18146:	8dd5                	or	a1,a1,a3
   18148:	01e2e6b3          	or	a3,t0,t5
   1814c:	0108e4b3          	or	s1,a7,a6
   18150:	007e6633          	or	a2,t3,t2
   18154:	01d9e733          	or	a4,s3,t4
   18158:	01f46433          	or	s0,s0,t6
   1815c:	01456533          	or	a0,a0,s4
   18160:	8ddd                	or	a1,a1,a5
   18162:	cc32                	sw	a2,24(sp)
   18164:	ce26                	sw	s1,28(sp)
   18166:	d036                	sw	a3,32(sp)
   18168:	02611223          	sh	t1,36(sp)
   1816c:	c42e                	sw	a1,8(sp)
   1816e:	c62a                	sw	a0,12(sp)
   18170:	c822                	sw	s0,16(sp)
   18172:	ca3a                	sw	a4,20(sp)
   18174:	02710513          	addi	a0,sp,39
   18178:	05100613          	li	a2,81
   1817c:	4581                	li	a1,0
   1817e:	00005097          	auipc	ra,0x5
   18182:	b46080e7          	jalr	-1210(ra) # 1ccc4 <memset>
   18186:	6509                	lui	a0,0x2
   18188:	4489                	li	s1,2
   1818a:	4589                	li	a1,2
   1818c:	0030                	addi	a2,sp,8
   1818e:	96b50793          	addi	a5,a0,-1685 # 196b <.Lline_table_start1+0x1740>
   18192:	46f9                	li	a3,30
   18194:	4711                	li	a4,4
   18196:	853e                	mv	a0,a5
   18198:	00000073          	ecall
   1819c:	02950b63          	beq	a0,s1,181d2 <_ZN18complex_no_dynamic3app17hfca6b310171c55daE+0x172>
   181a0:	02710613          	addi	a2,sp,39
   181a4:	05100693          	li	a3,81
   181a8:	470d                	li	a4,3
   181aa:	853e                	mv	a0,a5
   181ac:	4581                	li	a1,0
   181ae:	00000073          	ecall
   181b2:	02950063          	beq	a0,s1,181d2 <_ZN18complex_no_dynamic3app17hfca6b310171c55daE+0x172>
   181b6:	6509                	lui	a0,0x2
   181b8:	4589                	li	a1,2
   181ba:	96b50793          	addi	a5,a0,-1685 # 196b <.Lline_table_start1+0x1740>
   181be:	4709                	li	a4,2
   181c0:	07f00493          	li	s1,127
   181c4:	853e                	mv	a0,a5
   181c6:	4601                	li	a2,0
   181c8:	4681                	li	a3,0
   181ca:	00000073          	ecall
   181ce:	02a4ec63          	bltu	s1,a0,18206 <_ZN18complex_no_dynamic3app17hfca6b310171c55daE+0x1a6>
   181d2:	4785                	li	a5,1
   181d4:	c3b1                	beqz	a5,18218 <_ZN18complex_no_dynamic3app17hfca6b310171c55daE+0x1b8>
   181d6:	852e                	mv	a0,a1
   181d8:	4581                	li	a1,0
   181da:	4601                	li	a2,0
   181dc:	4681                	li	a3,0
   181de:	4705                	li	a4,1
   181e0:	6789                	lui	a5,0x2
   181e2:	00e90023          	sb	a4,0(s2)
   181e6:	00a92223          	sw	a0,4(s2)
   181ea:	96b78793          	addi	a5,a5,-1685 # 196b <.Lline_table_start1+0x1740>
   181ee:	470d                	li	a4,3
   181f0:	853e                	mv	a0,a5
   181f2:	00000073          	ecall
   181f6:	4589                	li	a1,2
   181f8:	4711                	li	a4,4
   181fa:	853e                	mv	a0,a5
   181fc:	4601                	li	a2,0
   181fe:	4681                	li	a3,0
   18200:	00000073          	ecall
   18204:	a8b1                	j	18260 <_ZN18complex_no_dynamic3app17hfca6b310171c55daE+0x200>
   18206:	853e                	mv	a0,a5
   18208:	4581                	li	a1,0
   1820a:	4601                	li	a2,0
   1820c:	4681                	li	a3,0
   1820e:	4781                	li	a5,0
   18210:	470d                	li	a4,3
   18212:	00000073          	ecall
   18216:	f3e1                	bnez	a5,181d6 <_ZN18complex_no_dynamic3app17hfca6b310171c55daE+0x176>
   18218:	6509                	lui	a0,0x2
   1821a:	96b50493          	addi	s1,a0,-1685 # 196b <.Lline_table_start1+0x1740>
   1821e:	470d                	li	a4,3
   18220:	8526                	mv	a0,s1
   18222:	4581                	li	a1,0
   18224:	4601                	li	a2,0
   18226:	4681                	li	a3,0
   18228:	00000073          	ecall
   1822c:	00190513          	addi	a0,s2,1
   18230:	02710593          	addi	a1,sp,39
   18234:	05100613          	li	a2,81
   18238:	00005097          	auipc	ra,0x5
   1823c:	af8080e7          	jalr	-1288(ra) # 1cd30 <memcpy>
   18240:	8526                	mv	a0,s1
   18242:	4581                	li	a1,0
   18244:	4601                	li	a2,0
   18246:	4681                	li	a3,0
   18248:	00090023          	sb	zero,0(s2)
   1824c:	470d                	li	a4,3
   1824e:	00000073          	ecall
   18252:	4589                	li	a1,2
   18254:	4711                	li	a4,4
   18256:	8526                	mv	a0,s1
   18258:	4601                	li	a2,0
   1825a:	4681                	li	a3,0
   1825c:	00000073          	ecall
   18260:	40ba                	lw	ra,140(sp)
   18262:	442a                	lw	s0,136(sp)
   18264:	449a                	lw	s1,132(sp)
   18266:	490a                	lw	s2,128(sp)
   18268:	59f6                	lw	s3,124(sp)
   1826a:	5a66                	lw	s4,120(sp)
   1826c:	6149                	addi	sp,sp,144
   1826e:	8082                	ret

00018270 <_start>:
   18270:	81010113          	addi	sp,sp,-2032
   18274:	7e112623          	sw	ra,2028(sp)
   18278:	7e812423          	sw	s0,2024(sp)
   1827c:	7e912223          	sw	s1,2020(sp)
   18280:	7f212023          	sw	s2,2016(sp)
   18284:	7d312e23          	sw	s3,2012(sp)
   18288:	7d412c23          	sw	s4,2008(sp)
   1828c:	7d512a23          	sw	s5,2004(sp)
   18290:	7d612823          	sw	s6,2000(sp)
   18294:	7d712623          	sw	s7,1996(sp)
   18298:	7d812423          	sw	s8,1992(sp)
   1829c:	7d912223          	sw	s9,1988(sp)
   182a0:	7da12023          	sw	s10,1984(sp)
   182a4:	7bb12e23          	sw	s11,1980(sp)
   182a8:	80010113          	addi	sp,sp,-2048
   182ac:	b0010113          	addi	sp,sp,-1280
   182b0:	1888                	addi	a0,sp,112
   182b2:	02800613          	li	a2,40
   182b6:	4581                	li	a1,0
   182b8:	00005097          	auipc	ra,0x5
   182bc:	a0c080e7          	jalr	-1524(ra) # 1ccc4 <memset>
   182c0:	6505                	lui	a0,0x1
   182c2:	39c50513          	addi	a0,a0,924 # 139c <.Lline_table_start1+0x1171>
   182c6:	950a                	add	a0,a0,sp
   182c8:	05100613          	li	a2,81
   182cc:	4581                	li	a1,0
   182ce:	00005097          	auipc	ra,0x5
   182d2:	9f6080e7          	jalr	-1546(ra) # 1ccc4 <memset>
   182d6:	6789                	lui	a5,0x2
   182d8:	45a5                	li	a1,9
   182da:	1890                	addi	a2,sp,112
   182dc:	02800693          	li	a3,40
   182e0:	0799                	addi	a5,a5,6 # 2006 <.Lline_table_start1+0x1ddb>
   182e2:	4711                	li	a4,4
   182e4:	4489                	li	s1,2
   182e6:	853e                	mv	a0,a5
   182e8:	00000073          	ecall
   182ec:	02950d63          	beq	a0,s1,18326 <_start+0xb6>
   182f0:	45a5                	li	a1,9
   182f2:	6505                	lui	a0,0x1
   182f4:	39c50513          	addi	a0,a0,924 # 139c <.Lline_table_start1+0x1171>
   182f8:	00a10633          	add	a2,sp,a0
   182fc:	05100693          	li	a3,81
   18300:	470d                	li	a4,3
   18302:	853e                	mv	a0,a5
   18304:	00000073          	ecall
   18308:	00950f63          	beq	a0,s1,18326 <_start+0xb6>
   1830c:	6789                	lui	a5,0x2
   1830e:	45a5                	li	a1,9
   18310:	4625                	li	a2,9
   18312:	0799                	addi	a5,a5,6 # 2006 <.Lline_table_start1+0x1ddb>
   18314:	4709                	li	a4,2
   18316:	07f00493          	li	s1,127
   1831a:	853e                	mv	a0,a5
   1831c:	4681                	li	a3,0
   1831e:	00000073          	ecall
   18322:	30a4e463          	bltu	s1,a0,1862a <_start+0x3ba>
   18326:	89ae                	mv	s3,a1
   18328:	4405                	li	s0,1
   1832a:	6489                	lui	s1,0x2
   1832c:	0499                	addi	s1,s1,6 # 2006 <.Lline_table_start1+0x1ddb>
   1832e:	45a5                	li	a1,9
   18330:	470d                	li	a4,3
   18332:	8526                	mv	a0,s1
   18334:	4601                	li	a2,0
   18336:	4681                	li	a3,0
   18338:	00000073          	ecall
   1833c:	7ff10913          	addi	s2,sp,2047
   18340:	7b190913          	addi	s2,s2,1969
   18344:	c819                	beqz	s0,1835a <_start+0xea>
   18346:	45a5                	li	a1,9
   18348:	4711                	li	a4,4
   1834a:	8526                	mv	a0,s1
   1834c:	4601                	li	a2,0
   1834e:	4681                	li	a3,0
   18350:	00000073          	ecall
   18354:	c83d                	beqz	s0,183ca <_start+0x15a>
   18356:	0bf0406f          	j	1cc14 <_start+0x49a4>
   1835a:	3ed94503          	lbu	a0,1005(s2)
   1835e:	3ec94583          	lbu	a1,1004(s2)
   18362:	3ee94603          	lbu	a2,1006(s2)
   18366:	3ef94683          	lbu	a3,1007(s2)
   1836a:	0522                	slli	a0,a0,0x8
   1836c:	3f094703          	lbu	a4,1008(s2)
   18370:	8d4d                	or	a0,a0,a1
   18372:	3f194583          	lbu	a1,1009(s2)
   18376:	3f294783          	lbu	a5,1010(s2)
   1837a:	0722                	slli	a4,a4,0x8
   1837c:	8ed9                	or	a3,a3,a4
   1837e:	05c2                	slli	a1,a1,0x10
   18380:	07e2                	slli	a5,a5,0x18
   18382:	8ddd                	or	a1,a1,a5
   18384:	0aa11823          	sh	a0,176(sp)
   18388:	0ac10923          	sb	a2,178(sp)
   1838c:	00d5e9b3          	or	s3,a1,a3
   18390:	6505                	lui	a0,0x1
   18392:	3a350513          	addi	a0,a0,931 # 13a3 <.Lline_table_start1+0x1178>
   18396:	00a105b3          	add	a1,sp,a0
   1839a:	1048                	addi	a0,sp,36
   1839c:	04a00613          	li	a2,74
   183a0:	00005097          	auipc	ra,0x5
   183a4:	990080e7          	jalr	-1648(ra) # 1cd30 <memcpy>
   183a8:	8526                	mv	a0,s1
   183aa:	4601                	li	a2,0
   183ac:	4681                	li	a3,0
   183ae:	45a5                	li	a1,9
   183b0:	470d                	li	a4,3
   183b2:	00000073          	ecall
   183b6:	45a5                	li	a1,9
   183b8:	4711                	li	a4,4
   183ba:	8526                	mv	a0,s1
   183bc:	4601                	li	a2,0
   183be:	4681                	li	a3,0
   183c0:	00000073          	ecall
   183c4:	c019                	beqz	s0,183ca <_start+0x15a>
   183c6:	04f0406f          	j	1cc14 <_start+0x49a4>
   183ca:	0b011503          	lh	a0,176(sp)
   183ce:	0b214583          	lbu	a1,178(sp)
   183d2:	3ea91623          	sh	a0,1004(s2)
   183d6:	3eb90723          	sb	a1,1006(s2)
   183da:	6505                	lui	a0,0x1
   183dc:	34050513          	addi	a0,a0,832 # 1340 <.Lline_table_start1+0x1115>
   183e0:	950a                	add	a0,a0,sp
   183e2:	104c                	addi	a1,sp,36
   183e4:	04a00613          	li	a2,74
   183e8:	00005097          	auipc	ra,0x5
   183ec:	948080e7          	jalr	-1720(ra) # 1cd30 <memcpy>
   183f0:	6505                	lui	a0,0x1
   183f2:	3a350513          	addi	a0,a0,931 # 13a3 <.Lline_table_start1+0x1178>
   183f6:	950a                	add	a0,a0,sp
   183f8:	6585                	lui	a1,0x1
   183fa:	34058593          	addi	a1,a1,832 # 1340 <.Lline_table_start1+0x1115>
   183fe:	958a                	add	a1,a1,sp
   18400:	04a00613          	li	a2,74
   18404:	00005097          	auipc	ra,0x5
   18408:	92c080e7          	jalr	-1748(ra) # 1cd30 <memcpy>
   1840c:	0189d513          	srli	a0,s3,0x18
   18410:	0109d593          	srli	a1,s3,0x10
   18414:	0089d613          	srli	a2,s3,0x8
   18418:	3f3907a3          	sb	s3,1007(s2)
   1841c:	3ec90823          	sb	a2,1008(s2)
   18420:	3eb908a3          	sb	a1,1009(s2)
   18424:	3ea90923          	sb	a0,1010(s2)
   18428:	6505                	lui	a0,0x1
   1842a:	34050513          	addi	a0,a0,832 # 1340 <.Lline_table_start1+0x1115>
   1842e:	950a                	add	a0,a0,sp
   18430:	04600613          	li	a2,70
   18434:	4581                	li	a1,0
   18436:	00005097          	auipc	ra,0x5
   1843a:	88e080e7          	jalr	-1906(ra) # 1ccc4 <memset>
   1843e:	6509                	lui	a0,0x2
   18440:	459d                	li	a1,7
   18442:	6605                	lui	a2,0x1
   18444:	39c60613          	addi	a2,a2,924 # 139c <.Lline_table_start1+0x1171>
   18448:	960a                	add	a2,a2,sp
   1844a:	05100693          	li	a3,81
   1844e:	0c450793          	addi	a5,a0,196 # 20c4 <.Lline_table_start1+0x1e99>
   18452:	4711                	li	a4,4
   18454:	4489                	li	s1,2
   18456:	853e                	mv	a0,a5
   18458:	00000073          	ecall
   1845c:	02950e63          	beq	a0,s1,18498 <_start+0x228>
   18460:	6505                	lui	a0,0x1
   18462:	34050513          	addi	a0,a0,832 # 1340 <.Lline_table_start1+0x1115>
   18466:	00a10633          	add	a2,sp,a0
   1846a:	04600693          	li	a3,70
   1846e:	470d                	li	a4,3
   18470:	853e                	mv	a0,a5
   18472:	4581                	li	a1,0
   18474:	00000073          	ecall
   18478:	02950063          	beq	a0,s1,18498 <_start+0x228>
   1847c:	6509                	lui	a0,0x2
   1847e:	459d                	li	a1,7
   18480:	0c450793          	addi	a5,a0,196 # 20c4 <.Lline_table_start1+0x1e99>
   18484:	4709                	li	a4,2
   18486:	07f00493          	li	s1,127
   1848a:	853e                	mv	a0,a5
   1848c:	4601                	li	a2,0
   1848e:	4681                	li	a3,0
   18490:	00000073          	ecall
   18494:	36a4e863          	bltu	s1,a0,18804 <_start+0x594>
   18498:	89ae                	mv	s3,a1
   1849a:	4405                	li	s0,1
   1849c:	6509                	lui	a0,0x2
   1849e:	0c450493          	addi	s1,a0,196 # 20c4 <.Lline_table_start1+0x1e99>
   184a2:	470d                	li	a4,3
   184a4:	8526                	mv	a0,s1
   184a6:	4581                	li	a1,0
   184a8:	4601                	li	a2,0
   184aa:	4681                	li	a3,0
   184ac:	00000073          	ecall
   184b0:	c819                	beqz	s0,184c6 <_start+0x256>
   184b2:	459d                	li	a1,7
   184b4:	4711                	li	a4,4
   184b6:	8526                	mv	a0,s1
   184b8:	4601                	li	a2,0
   184ba:	4681                	li	a3,0
   184bc:	00000073          	ecall
   184c0:	c83d                	beqz	s0,18536 <_start+0x2c6>
   184c2:	7520406f          	j	1cc14 <_start+0x49a4>
   184c6:	39194503          	lbu	a0,913(s2)
   184ca:	39094583          	lbu	a1,912(s2)
   184ce:	39294603          	lbu	a2,914(s2)
   184d2:	39394683          	lbu	a3,915(s2)
   184d6:	0522                	slli	a0,a0,0x8
   184d8:	39494703          	lbu	a4,916(s2)
   184dc:	8d4d                	or	a0,a0,a1
   184de:	39594583          	lbu	a1,917(s2)
   184e2:	39694783          	lbu	a5,918(s2)
   184e6:	0722                	slli	a4,a4,0x8
   184e8:	8ed9                	or	a3,a3,a4
   184ea:	05c2                	slli	a1,a1,0x10
   184ec:	07e2                	slli	a5,a5,0x18
   184ee:	8ddd                	or	a1,a1,a5
   184f0:	0aa11823          	sh	a0,176(sp)
   184f4:	0ac10923          	sb	a2,178(sp)
   184f8:	00d5e9b3          	or	s3,a1,a3
   184fc:	6505                	lui	a0,0x1
   184fe:	34750513          	addi	a0,a0,839 # 1347 <.Lline_table_start1+0x111c>
   18502:	00a105b3          	add	a1,sp,a0
   18506:	1888                	addi	a0,sp,112
   18508:	03f00613          	li	a2,63
   1850c:	00005097          	auipc	ra,0x5
   18510:	824080e7          	jalr	-2012(ra) # 1cd30 <memcpy>
   18514:	8526                	mv	a0,s1
   18516:	4581                	li	a1,0
   18518:	4601                	li	a2,0
   1851a:	4681                	li	a3,0
   1851c:	470d                	li	a4,3
   1851e:	00000073          	ecall
   18522:	459d                	li	a1,7
   18524:	4711                	li	a4,4
   18526:	8526                	mv	a0,s1
   18528:	4601                	li	a2,0
   1852a:	4681                	li	a3,0
   1852c:	00000073          	ecall
   18530:	c019                	beqz	s0,18536 <_start+0x2c6>
   18532:	6e20406f          	j	1cc14 <_start+0x49a4>
   18536:	0b011503          	lh	a0,176(sp)
   1853a:	0b214583          	lbu	a1,178(sp)
   1853e:	3ea91623          	sh	a0,1004(s2)
   18542:	3eb90723          	sb	a1,1006(s2)
   18546:	1048                	addi	a0,sp,36
   18548:	188c                	addi	a1,sp,112
   1854a:	03f00613          	li	a2,63
   1854e:	00004097          	auipc	ra,0x4
   18552:	7e2080e7          	jalr	2018(ra) # 1cd30 <memcpy>
   18556:	6505                	lui	a0,0x1
   18558:	3a350513          	addi	a0,a0,931 # 13a3 <.Lline_table_start1+0x1178>
   1855c:	950a                	add	a0,a0,sp
   1855e:	104c                	addi	a1,sp,36
   18560:	03f00613          	li	a2,63
   18564:	00004097          	auipc	ra,0x4
   18568:	7cc080e7          	jalr	1996(ra) # 1cd30 <memcpy>
   1856c:	0189d513          	srli	a0,s3,0x18
   18570:	0109d713          	srli	a4,s3,0x10
   18574:	0089d793          	srli	a5,s3,0x8
   18578:	3a092023          	sw	zero,928(s2)
   1857c:	3a092223          	sw	zero,932(s2)
   18580:	38092823          	sw	zero,912(s2)
   18584:	38092a23          	sw	zero,916(s2)
   18588:	38092c23          	sw	zero,920(s2)
   1858c:	38092e23          	sw	zero,924(s2)
   18590:	6489                	lui	s1,0x2
   18592:	458d                	li	a1,3
   18594:	6605                	lui	a2,0x1
   18596:	39c60613          	addi	a2,a2,924 # 139c <.Lline_table_start1+0x1171>
   1859a:	960a                	add	a2,a2,sp
   1859c:	04600693          	li	a3,70
   185a0:	3f3907a3          	sb	s3,1007(s2)
   185a4:	3ef90823          	sb	a5,1008(s2)
   185a8:	3ee908a3          	sb	a4,1009(s2)
   185ac:	3ea90923          	sb	a0,1010(s2)
   185b0:	3cf48793          	addi	a5,s1,975 # 23cf <.Lline_table_start1+0x21a4>
   185b4:	4711                	li	a4,4
   185b6:	4489                	li	s1,2
   185b8:	853e                	mv	a0,a5
   185ba:	00000073          	ecall
   185be:	02950d63          	beq	a0,s1,185f8 <_start+0x388>
   185c2:	4589                	li	a1,2
   185c4:	6505                	lui	a0,0x1
   185c6:	34050513          	addi	a0,a0,832 # 1340 <.Lline_table_start1+0x1115>
   185ca:	00a10633          	add	a2,sp,a0
   185ce:	46e1                	li	a3,24
   185d0:	470d                	li	a4,3
   185d2:	853e                	mv	a0,a5
   185d4:	00000073          	ecall
   185d8:	02950063          	beq	a0,s1,185f8 <_start+0x388>
   185dc:	6509                	lui	a0,0x2
   185de:	458d                	li	a1,3
   185e0:	4609                	li	a2,2
   185e2:	3cf50793          	addi	a5,a0,975 # 23cf <.Lline_table_start1+0x21a4>
   185e6:	4709                	li	a4,2
   185e8:	07f00493          	li	s1,127
   185ec:	853e                	mv	a0,a5
   185ee:	4681                	li	a3,0
   185f0:	00000073          	ecall
   185f4:	38a4eb63          	bltu	s1,a0,1898a <_start+0x71a>
   185f8:	89ae                	mv	s3,a1
   185fa:	4e85                	li	t4,1
   185fc:	6509                	lui	a0,0x2
   185fe:	3cf50a13          	addi	s4,a0,975 # 23cf <.Lline_table_start1+0x21a4>
   18602:	4589                	li	a1,2
   18604:	470d                	li	a4,3
   18606:	8552                	mv	a0,s4
   18608:	4601                	li	a2,0
   1860a:	4681                	li	a3,0
   1860c:	00000073          	ecall
   18610:	020e8663          	beqz	t4,1863c <_start+0x3cc>
   18614:	458d                	li	a1,3
   18616:	4711                	li	a4,4
   18618:	8552                	mv	a0,s4
   1861a:	4601                	li	a2,0
   1861c:	4681                	li	a3,0
   1861e:	00000073          	ecall
   18622:	100e8163          	beqz	t4,18724 <_start+0x4b4>
   18626:	5ee0406f          	j	1cc14 <_start+0x49a4>
   1862a:	853e                	mv	a0,a5
   1862c:	4601                	li	a2,0
   1862e:	4681                	li	a3,0
   18630:	4401                	li	s0,0
   18632:	45a5                	li	a1,9
   18634:	470d                	li	a4,3
   18636:	00000073          	ecall
   1863a:	b9c5                	j	1832a <_start+0xba>
   1863c:	8552                	mv	a0,s4
   1863e:	4601                	li	a2,0
   18640:	4681                	li	a3,0
   18642:	39091e03          	lh	t3,912(s2)
   18646:	39294383          	lbu	t2,914(s2)
   1864a:	39394803          	lbu	a6,915(s2)
   1864e:	39494883          	lbu	a7,916(s2)
   18652:	3a594f03          	lbu	t5,933(s2)
   18656:	3a694f83          	lbu	t6,934(s2)
   1865a:	3a794703          	lbu	a4,935(s2)
   1865e:	39594303          	lbu	t1,917(s2)
   18662:	39694283          	lbu	t0,918(s2)
   18666:	39794483          	lbu	s1,919(s2)
   1866a:	39894403          	lbu	s0,920(s2)
   1866e:	39994a83          	lbu	s5,921(s2)
   18672:	39a94b03          	lbu	s6,922(s2)
   18676:	39b94983          	lbu	s3,923(s2)
   1867a:	39c94583          	lbu	a1,924(s2)
   1867e:	0dc11223          	sh	t3,196(sp)
   18682:	0c710323          	sb	t2,198(sp)
   18686:	0ce10023          	sb	a4,192(sp)
   1868a:	0422                	slli	s0,s0,0x8
   1868c:	009463b3          	or	t2,s0,s1
   18690:	39d94703          	lbu	a4,925(s2)
   18694:	39e94483          	lbu	s1,926(s2)
   18698:	39f94403          	lbu	s0,927(s2)
   1869c:	3a094783          	lbu	a5,928(s2)
   186a0:	0ac2                	slli	s5,s5,0x10
   186a2:	0b62                	slli	s6,s6,0x18
   186a4:	05a2                	slli	a1,a1,0x8
   186a6:	0742                	slli	a4,a4,0x10
   186a8:	04e2                	slli	s1,s1,0x18
   186aa:	07a2                	slli	a5,a5,0x8
   186ac:	015b6e33          	or	t3,s6,s5
   186b0:	0135e9b3          	or	s3,a1,s3
   186b4:	00e4eab3          	or	s5,s1,a4
   186b8:	0087eb33          	or	s6,a5,s0
   186bc:	3a194403          	lbu	s0,929(s2)
   186c0:	3a294483          	lbu	s1,930(s2)
   186c4:	3a394583          	lbu	a1,931(s2)
   186c8:	3a494703          	lbu	a4,932(s2)
   186cc:	0442                	slli	s0,s0,0x10
   186ce:	04e2                	slli	s1,s1,0x18
   186d0:	8c45                	or	s0,s0,s1
   186d2:	0722                	slli	a4,a4,0x8
   186d4:	8dd9                	or	a1,a1,a4
   186d6:	0f42                	slli	t5,t5,0x10
   186d8:	0fe2                	slli	t6,t6,0x18
   186da:	01efe733          	or	a4,t6,t5
   186de:	007e64b3          	or	s1,t3,t2
   186e2:	013ae7b3          	or	a5,s5,s3
   186e6:	01646433          	or	s0,s0,s6
   186ea:	8f4d                	or	a4,a4,a1
   186ec:	4589                	li	a1,2
   186ee:	d926                	sw	s1,176(sp)
   186f0:	db3e                	sw	a5,180(sp)
   186f2:	dd22                	sw	s0,184(sp)
   186f4:	df3a                	sw	a4,188(sp)
   186f6:	470d                	li	a4,3
   186f8:	00000073          	ecall
   186fc:	4711                	li	a4,4
   186fe:	458d                	li	a1,3
   18700:	8552                	mv	a0,s4
   18702:	4601                	li	a2,0
   18704:	4681                	li	a3,0
   18706:	00000073          	ecall
   1870a:	08a2                	slli	a7,a7,0x8
   1870c:	0108e533          	or	a0,a7,a6
   18710:	0342                	slli	t1,t1,0x10
   18712:	02e2                	slli	t0,t0,0x18
   18714:	0062e5b3          	or	a1,t0,t1
   18718:	00a5e9b3          	or	s3,a1,a0
   1871c:	000e8463          	beqz	t4,18724 <_start+0x4b4>
   18720:	4f40406f          	j	1cc14 <_start+0x49a4>
   18724:	0c411503          	lh	a0,196(sp)
   18728:	0c614583          	lbu	a1,198(sp)
   1872c:	564a                	lw	a2,176(sp)
   1872e:	56da                	lw	a3,180(sp)
   18730:	576a                	lw	a4,184(sp)
   18732:	57fa                	lw	a5,188(sp)
   18734:	06a11823          	sh	a0,112(sp)
   18738:	06b10923          	sb	a1,114(sp)
   1873c:	0c014503          	lbu	a0,192(sp)
   18740:	d232                	sw	a2,36(sp)
   18742:	d436                	sw	a3,40(sp)
   18744:	d63a                	sw	a4,44(sp)
   18746:	d83e                	sw	a5,48(sp)
   18748:	02a10a23          	sb	a0,52(sp)
   1874c:	07710513          	addi	a0,sp,119
   18750:	104c                	addi	a1,sp,36
   18752:	4645                	li	a2,17
   18754:	00004097          	auipc	ra,0x4
   18758:	5dc080e7          	jalr	1500(ra) # 1cd30 <memcpy>
   1875c:	0189d513          	srli	a0,s3,0x18
   18760:	0109d593          	srli	a1,s3,0x10
   18764:	0089d613          	srli	a2,s3,0x8
   18768:	073109a3          	sb	s3,115(sp)
   1876c:	06c10a23          	sb	a2,116(sp)
   18770:	06b10aa3          	sb	a1,117(sp)
   18774:	06a10b23          	sb	a0,118(sp)
   18778:	6505                	lui	a0,0x1
   1877a:	39c50513          	addi	a0,a0,924 # 139c <.Lline_table_start1+0x1171>
   1877e:	950a                	add	a0,a0,sp
   18780:	03600613          	li	a2,54
   18784:	4581                	li	a1,0
   18786:	00004097          	auipc	ra,0x4
   1878a:	53e080e7          	jalr	1342(ra) # 1ccc4 <memset>
   1878e:	21f00513          	li	a0,543
   18792:	1890                	addi	a2,sp,112
   18794:	46e1                	li	a3,24
   18796:	4711                	li	a4,4
   18798:	4789                	li	a5,2
   1879a:	4581                	li	a1,0
   1879c:	00000073          	ecall
   187a0:	02f50c63          	beq	a0,a5,187d8 <_start+0x568>
   187a4:	21f00513          	li	a0,543
   187a8:	459d                	li	a1,7
   187aa:	6605                	lui	a2,0x1
   187ac:	39c60613          	addi	a2,a2,924 # 139c <.Lline_table_start1+0x1171>
   187b0:	960a                	add	a2,a2,sp
   187b2:	03600693          	li	a3,54
   187b6:	470d                	li	a4,3
   187b8:	00000073          	ecall
   187bc:	00f50e63          	beq	a0,a5,187d8 <_start+0x568>
   187c0:	21f00513          	li	a0,543
   187c4:	461d                	li	a2,7
   187c6:	4709                	li	a4,2
   187c8:	07f00793          	li	a5,127
   187cc:	4581                	li	a1,0
   187ce:	4681                	li	a3,0
   187d0:	00000073          	ecall
   187d4:	42a7eb63          	bltu	a5,a0,18c0a <_start+0x99a>
   187d8:	89ae                	mv	s3,a1
   187da:	4405                	li	s0,1
   187dc:	21f00513          	li	a0,543
   187e0:	459d                	li	a1,7
   187e2:	470d                	li	a4,3
   187e4:	4601                	li	a2,0
   187e6:	4681                	li	a3,0
   187e8:	00000073          	ecall
   187ec:	c40d                	beqz	s0,18816 <_start+0x5a6>
   187ee:	21f00513          	li	a0,543
   187f2:	4711                	li	a4,4
   187f4:	4581                	li	a1,0
   187f6:	4601                	li	a2,0
   187f8:	4681                	li	a3,0
   187fa:	00000073          	ecall
   187fe:	c451                	beqz	s0,1888a <_start+0x61a>
   18800:	4140406f          	j	1cc14 <_start+0x49a4>
   18804:	853e                	mv	a0,a5
   18806:	4581                	li	a1,0
   18808:	4601                	li	a2,0
   1880a:	4681                	li	a3,0
   1880c:	4401                	li	s0,0
   1880e:	470d                	li	a4,3
   18810:	00000073          	ecall
   18814:	b161                	j	1849c <_start+0x22c>
   18816:	3ed94503          	lbu	a0,1005(s2)
   1881a:	3ec94583          	lbu	a1,1004(s2)
   1881e:	3ee94603          	lbu	a2,1006(s2)
   18822:	3ef94683          	lbu	a3,1007(s2)
   18826:	0522                	slli	a0,a0,0x8
   18828:	3f094703          	lbu	a4,1008(s2)
   1882c:	8d4d                	or	a0,a0,a1
   1882e:	3f194583          	lbu	a1,1009(s2)
   18832:	3f294783          	lbu	a5,1010(s2)
   18836:	0722                	slli	a4,a4,0x8
   18838:	8ed9                	or	a3,a3,a4
   1883a:	05c2                	slli	a1,a1,0x10
   1883c:	07e2                	slli	a5,a5,0x18
   1883e:	8ddd                	or	a1,a1,a5
   18840:	0aa11823          	sh	a0,176(sp)
   18844:	0ac10923          	sb	a2,178(sp)
   18848:	00d5e9b3          	or	s3,a1,a3
   1884c:	6505                	lui	a0,0x1
   1884e:	3a350513          	addi	a0,a0,931 # 13a3 <.Lline_table_start1+0x1178>
   18852:	00a105b3          	add	a1,sp,a0
   18856:	1048                	addi	a0,sp,36
   18858:	02f00613          	li	a2,47
   1885c:	00004097          	auipc	ra,0x4
   18860:	4d4080e7          	jalr	1236(ra) # 1cd30 <memcpy>
   18864:	4601                	li	a2,0
   18866:	4681                	li	a3,0
   18868:	21f00513          	li	a0,543
   1886c:	459d                	li	a1,7
   1886e:	470d                	li	a4,3
   18870:	00000073          	ecall
   18874:	21f00513          	li	a0,543
   18878:	4711                	li	a4,4
   1887a:	4581                	li	a1,0
   1887c:	4601                	li	a2,0
   1887e:	4681                	li	a3,0
   18880:	00000073          	ecall
   18884:	c019                	beqz	s0,1888a <_start+0x61a>
   18886:	38e0406f          	j	1cc14 <_start+0x49a4>
   1888a:	0b011503          	lh	a0,176(sp)
   1888e:	0b214583          	lbu	a1,178(sp)
   18892:	3ea91623          	sh	a0,1004(s2)
   18896:	3eb90723          	sb	a1,1006(s2)
   1889a:	6505                	lui	a0,0x1
   1889c:	34050513          	addi	a0,a0,832 # 1340 <.Lline_table_start1+0x1115>
   188a0:	950a                	add	a0,a0,sp
   188a2:	104c                	addi	a1,sp,36
   188a4:	02f00613          	li	a2,47
   188a8:	00004097          	auipc	ra,0x4
   188ac:	488080e7          	jalr	1160(ra) # 1cd30 <memcpy>
   188b0:	6505                	lui	a0,0x1
   188b2:	3a350513          	addi	a0,a0,931 # 13a3 <.Lline_table_start1+0x1178>
   188b6:	950a                	add	a0,a0,sp
   188b8:	6585                	lui	a1,0x1
   188ba:	34058593          	addi	a1,a1,832 # 1340 <.Lline_table_start1+0x1115>
   188be:	958a                	add	a1,a1,sp
   188c0:	02f00613          	li	a2,47
   188c4:	00004097          	auipc	ra,0x4
   188c8:	46c080e7          	jalr	1132(ra) # 1cd30 <memcpy>
   188cc:	0189d513          	srli	a0,s3,0x18
   188d0:	0109d593          	srli	a1,s3,0x10
   188d4:	0089d613          	srli	a2,s3,0x8
   188d8:	3f3907a3          	sb	s3,1007(s2)
   188dc:	3ec90823          	sb	a2,1008(s2)
   188e0:	3eb908a3          	sb	a1,1009(s2)
   188e4:	3ea90923          	sb	a0,1010(s2)
   188e8:	6505                	lui	a0,0x1
   188ea:	34050513          	addi	a0,a0,832 # 1340 <.Lline_table_start1+0x1115>
   188ee:	950a                	add	a0,a0,sp
   188f0:	02500613          	li	a2,37
   188f4:	4581                	li	a1,0
   188f6:	00004097          	auipc	ra,0x4
   188fa:	3ce080e7          	jalr	974(ra) # 1ccc4 <memset>
   188fe:	6505                	lui	a0,0x1
   18900:	459d                	li	a1,7
   18902:	6605                	lui	a2,0x1
   18904:	39c60613          	addi	a2,a2,924 # 139c <.Lline_table_start1+0x1171>
   18908:	960a                	add	a2,a2,sp
   1890a:	03600693          	li	a3,54
   1890e:	59750793          	addi	a5,a0,1431 # 1597 <.Lline_table_start1+0x136c>
   18912:	4711                	li	a4,4
   18914:	4489                	li	s1,2
   18916:	853e                	mv	a0,a5
   18918:	00000073          	ecall
   1891c:	02950e63          	beq	a0,s1,18958 <_start+0x6e8>
   18920:	6505                	lui	a0,0x1
   18922:	34050513          	addi	a0,a0,832 # 1340 <.Lline_table_start1+0x1115>
   18926:	00a10633          	add	a2,sp,a0
   1892a:	02500693          	li	a3,37
   1892e:	470d                	li	a4,3
   18930:	853e                	mv	a0,a5
   18932:	4581                	li	a1,0
   18934:	00000073          	ecall
   18938:	02950063          	beq	a0,s1,18958 <_start+0x6e8>
   1893c:	6505                	lui	a0,0x1
   1893e:	459d                	li	a1,7
   18940:	59750793          	addi	a5,a0,1431 # 1597 <.Lline_table_start1+0x136c>
   18944:	4709                	li	a4,2
   18946:	07f00493          	li	s1,127
   1894a:	853e                	mv	a0,a5
   1894c:	4601                	li	a2,0
   1894e:	4681                	li	a3,0
   18950:	00000073          	ecall
   18954:	3ea4e263          	bltu	s1,a0,18d38 <_start+0xac8>
   18958:	89ae                	mv	s3,a1
   1895a:	4f85                	li	t6,1
   1895c:	6505                	lui	a0,0x1
   1895e:	59750293          	addi	t0,a0,1431 # 1597 <.Lline_table_start1+0x136c>
   18962:	470d                	li	a4,3
   18964:	8516                	mv	a0,t0
   18966:	4581                	li	a1,0
   18968:	4601                	li	a2,0
   1896a:	4681                	li	a3,0
   1896c:	00000073          	ecall
   18970:	020f8663          	beqz	t6,1899c <_start+0x72c>
   18974:	459d                	li	a1,7
   18976:	4711                	li	a4,4
   18978:	8516                	mv	a0,t0
   1897a:	4601                	li	a2,0
   1897c:	4681                	li	a3,0
   1897e:	00000073          	ecall
   18982:	180f8d63          	beqz	t6,18b1c <_start+0x8ac>
   18986:	28e0406f          	j	1cc14 <_start+0x49a4>
   1898a:	853e                	mv	a0,a5
   1898c:	4601                	li	a2,0
   1898e:	4681                	li	a3,0
   18990:	4e81                	li	t4,0
   18992:	4589                	li	a1,2
   18994:	470d                	li	a4,3
   18996:	00000073          	ecall
   1899a:	b18d                	j	185fc <_start+0x38c>
   1899c:	8516                	mv	a0,t0
   1899e:	4581                	li	a1,0
   189a0:	4601                	li	a2,0
   189a2:	4681                	li	a3,0
   189a4:	39094e03          	lbu	t3,912(s2)
   189a8:	39194e83          	lbu	t4,913(s2)
   189ac:	39294703          	lbu	a4,914(s2)
   189b0:	c83a                	sw	a4,16(sp)
   189b2:	39394703          	lbu	a4,915(s2)
   189b6:	d03a                	sw	a4,32(sp)
   189b8:	3b494b03          	lbu	s6,948(s2)
   189bc:	3b394f03          	lbu	t5,947(s2)
   189c0:	39494703          	lbu	a4,916(s2)
   189c4:	ca3a                	sw	a4,20(sp)
   189c6:	39594703          	lbu	a4,917(s2)
   189ca:	ce3a                	sw	a4,28(sp)
   189cc:	39694703          	lbu	a4,918(s2)
   189d0:	cc3a                	sw	a4,24(sp)
   189d2:	39794c83          	lbu	s9,919(s2)
   189d6:	39894703          	lbu	a4,920(s2)
   189da:	39994983          	lbu	s3,921(s2)
   189de:	39a94a03          	lbu	s4,922(s2)
   189e2:	39b94a83          	lbu	s5,923(s2)
   189e6:	39c94b83          	lbu	s7,924(s2)
   189ea:	39d94c03          	lbu	s8,925(s2)
   189ee:	39e94d03          	lbu	s10,926(s2)
   189f2:	39f94883          	lbu	a7,927(s2)
   189f6:	3a094483          	lbu	s1,928(s2)
   189fa:	3a194d83          	lbu	s11,929(s2)
   189fe:	3a294083          	lbu	ra,930(s2)
   18a02:	3a394803          	lbu	a6,931(s2)
   18a06:	0ea2                	slli	t4,t4,0x8
   18a08:	0b22                	slli	s6,s6,0x8
   18a0a:	0722                	slli	a4,a4,0x8
   18a0c:	01ceeeb3          	or	t4,t4,t3
   18a10:	01eb67b3          	or	a5,s6,t5
   18a14:	c63e                	sw	a5,12(sp)
   18a16:	01976f33          	or	t5,a4,s9
   18a1a:	3a494b03          	lbu	s6,932(s2)
   18a1e:	3a594c83          	lbu	s9,933(s2)
   18a22:	3a694303          	lbu	t1,934(s2)
   18a26:	3a794383          	lbu	t2,935(s2)
   18a2a:	09c2                	slli	s3,s3,0x10
   18a2c:	0a62                	slli	s4,s4,0x18
   18a2e:	0ba2                	slli	s7,s7,0x8
   18a30:	0c42                	slli	s8,s8,0x10
   18a32:	0d62                	slli	s10,s10,0x18
   18a34:	04a2                	slli	s1,s1,0x8
   18a36:	013a69b3          	or	s3,s4,s3
   18a3a:	015bea33          	or	s4,s7,s5
   18a3e:	018d6bb3          	or	s7,s10,s8
   18a42:	0114eab3          	or	s5,s1,a7
   18a46:	3a894483          	lbu	s1,936(s2)
   18a4a:	3a994c03          	lbu	s8,937(s2)
   18a4e:	3aa94d03          	lbu	s10,938(s2)
   18a52:	3ab94e03          	lbu	t3,939(s2)
   18a56:	0dc2                	slli	s11,s11,0x10
   18a58:	00e2                	slli	ra,ra,0x18
   18a5a:	0b22                	slli	s6,s6,0x8
   18a5c:	0cc2                	slli	s9,s9,0x10
   18a5e:	0362                	slli	t1,t1,0x18
   18a60:	04a2                	slli	s1,s1,0x8
   18a62:	01b0e8b3          	or	a7,ra,s11
   18a66:	010b6833          	or	a6,s6,a6
   18a6a:	01936333          	or	t1,t1,s9
   18a6e:	0074e3b3          	or	t2,s1,t2
   18a72:	3ac94483          	lbu	s1,940(s2)
   18a76:	3ad94403          	lbu	s0,941(s2)
   18a7a:	3ae94783          	lbu	a5,942(s2)
   18a7e:	3af94703          	lbu	a4,943(s2)
   18a82:	0c42                	slli	s8,s8,0x10
   18a84:	0d62                	slli	s10,s10,0x18
   18a86:	04a2                	slli	s1,s1,0x8
   18a88:	0442                	slli	s0,s0,0x10
   18a8a:	07e2                	slli	a5,a5,0x18
   18a8c:	018d6b33          	or	s6,s10,s8
   18a90:	01c4ee33          	or	t3,s1,t3
   18a94:	3b094483          	lbu	s1,944(s2)
   18a98:	0087ec33          	or	s8,a5,s0
   18a9c:	3b194403          	lbu	s0,945(s2)
   18aa0:	3b294783          	lbu	a5,946(s2)
   18aa4:	04a2                	slli	s1,s1,0x8
   18aa6:	00e4ecb3          	or	s9,s1,a4
   18aaa:	0442                	slli	s0,s0,0x10
   18aac:	07e2                	slli	a5,a5,0x18
   18aae:	8fc1                	or	a5,a5,s0
   18ab0:	0bd11823          	sh	t4,176(sp)
   18ab4:	4742                	lw	a4,16(sp)
   18ab6:	0ae10923          	sb	a4,178(sp)
   18aba:	01e9e4b3          	or	s1,s3,t5
   18abe:	014beeb3          	or	t4,s7,s4
   18ac2:	0158e8b3          	or	a7,a7,s5
   18ac6:	01036833          	or	a6,t1,a6
   18aca:	007b6733          	or	a4,s6,t2
   18ace:	01cc6433          	or	s0,s8,t3
   18ad2:	0197e7b3          	or	a5,a5,s9
   18ad6:	c13a                	sw	a4,128(sp)
   18ad8:	c322                	sw	s0,132(sp)
   18ada:	c53e                	sw	a5,136(sp)
   18adc:	4732                	lw	a4,12(sp)
   18ade:	08e11623          	sh	a4,140(sp)
   18ae2:	d8a6                	sw	s1,112(sp)
   18ae4:	daf6                	sw	t4,116(sp)
   18ae6:	dcc6                	sw	a7,120(sp)
   18ae8:	dec2                	sw	a6,124(sp)
   18aea:	470d                	li	a4,3
   18aec:	00000073          	ecall
   18af0:	4711                	li	a4,4
   18af2:	459d                	li	a1,7
   18af4:	8516                	mv	a0,t0
   18af6:	4601                	li	a2,0
   18af8:	4681                	li	a3,0
   18afa:	00000073          	ecall
   18afe:	4552                	lw	a0,20(sp)
   18b00:	0522                	slli	a0,a0,0x8
   18b02:	5582                	lw	a1,32(sp)
   18b04:	8d4d                	or	a0,a0,a1
   18b06:	45f2                	lw	a1,28(sp)
   18b08:	05c2                	slli	a1,a1,0x10
   18b0a:	4662                	lw	a2,24(sp)
   18b0c:	0662                	slli	a2,a2,0x18
   18b0e:	8dd1                	or	a1,a1,a2
   18b10:	00a5e9b3          	or	s3,a1,a0
   18b14:	000f8463          	beqz	t6,18b1c <_start+0x8ac>
   18b18:	0fc0406f          	j	1cc14 <_start+0x49a4>
   18b1c:	0b011503          	lh	a0,176(sp)
   18b20:	0b214583          	lbu	a1,178(sp)
   18b24:	3ea91623          	sh	a0,1004(s2)
   18b28:	3eb90723          	sb	a1,1006(s2)
   18b2c:	5546                	lw	a0,112(sp)
   18b2e:	55d6                	lw	a1,116(sp)
   18b30:	5666                	lw	a2,120(sp)
   18b32:	56f6                	lw	a3,124(sp)
   18b34:	d22a                	sw	a0,36(sp)
   18b36:	d42e                	sw	a1,40(sp)
   18b38:	d632                	sw	a2,44(sp)
   18b3a:	d836                	sw	a3,48(sp)
   18b3c:	450a                	lw	a0,128(sp)
   18b3e:	459a                	lw	a1,132(sp)
   18b40:	462a                	lw	a2,136(sp)
   18b42:	08c11683          	lh	a3,140(sp)
   18b46:	da2a                	sw	a0,52(sp)
   18b48:	dc2e                	sw	a1,56(sp)
   18b4a:	de32                	sw	a2,60(sp)
   18b4c:	04d11023          	sh	a3,64(sp)
   18b50:	6505                	lui	a0,0x1
   18b52:	3a350513          	addi	a0,a0,931 # 13a3 <.Lline_table_start1+0x1178>
   18b56:	950a                	add	a0,a0,sp
   18b58:	104c                	addi	a1,sp,36
   18b5a:	4679                	li	a2,30
   18b5c:	00004097          	auipc	ra,0x4
   18b60:	1d4080e7          	jalr	468(ra) # 1cd30 <memcpy>
   18b64:	0189d713          	srli	a4,s3,0x18
   18b68:	0109d493          	srli	s1,s3,0x10
   18b6c:	0089d413          	srli	s0,s3,0x8
   18b70:	38092823          	sw	zero,912(s2)
   18b74:	38092a23          	sw	zero,916(s2)
   18b78:	38092c23          	sw	zero,920(s2)
   18b7c:	38091e23          	sh	zero,924(s2)
   18b80:	4789                	li	a5,2
   18b82:	66700513          	li	a0,1639
   18b86:	4589                	li	a1,2
   18b88:	6605                	lui	a2,0x1
   18b8a:	39c60613          	addi	a2,a2,924 # 139c <.Lline_table_start1+0x1171>
   18b8e:	960a                	add	a2,a2,sp
   18b90:	02500693          	li	a3,37
   18b94:	3f3907a3          	sb	s3,1007(s2)
   18b98:	3e890823          	sb	s0,1008(s2)
   18b9c:	3e9908a3          	sb	s1,1009(s2)
   18ba0:	3ee90923          	sb	a4,1010(s2)
   18ba4:	4711                	li	a4,4
   18ba6:	00000073          	ecall
   18baa:	02f50b63          	beq	a0,a5,18be0 <_start+0x970>
   18bae:	66700513          	li	a0,1639
   18bb2:	45a1                	li	a1,8
   18bb4:	6605                	lui	a2,0x1
   18bb6:	34060613          	addi	a2,a2,832 # 1340 <.Lline_table_start1+0x1115>
   18bba:	960a                	add	a2,a2,sp
   18bbc:	46b9                	li	a3,14
   18bbe:	470d                	li	a4,3
   18bc0:	00000073          	ecall
   18bc4:	00f50e63          	beq	a0,a5,18be0 <_start+0x970>
   18bc8:	66700513          	li	a0,1639
   18bcc:	4589                	li	a1,2
   18bce:	4621                	li	a2,8
   18bd0:	4709                	li	a4,2
   18bd2:	07f00793          	li	a5,127
   18bd6:	4681                	li	a3,0
   18bd8:	00000073          	ecall
   18bdc:	20a7e963          	bltu	a5,a0,18dee <_start+0xb7e>
   18be0:	89ae                	mv	s3,a1
   18be2:	4e85                	li	t4,1
   18be4:	66700513          	li	a0,1639
   18be8:	45a1                	li	a1,8
   18bea:	470d                	li	a4,3
   18bec:	4601                	li	a2,0
   18bee:	4681                	li	a3,0
   18bf0:	00000073          	ecall
   18bf4:	020e8563          	beqz	t4,18c1e <_start+0x9ae>
   18bf8:	66700513          	li	a0,1639
   18bfc:	4589                	li	a1,2
   18bfe:	4711                	li	a4,4
   18c00:	4601                	li	a2,0
   18c02:	4681                	li	a3,0
   18c04:	00000073          	ecall
   18c08:	a879                	j	18ca6 <_start+0xa36>
   18c0a:	4601                	li	a2,0
   18c0c:	4681                	li	a3,0
   18c0e:	4401                	li	s0,0
   18c10:	21f00513          	li	a0,543
   18c14:	459d                	li	a1,7
   18c16:	470d                	li	a4,3
   18c18:	00000073          	ecall
   18c1c:	b6c1                	j	187dc <_start+0x56c>
   18c1e:	4601                	li	a2,0
   18c20:	4681                	li	a3,0
   18c22:	39091283          	lh	t0,912(s2)
   18c26:	39294e03          	lbu	t3,914(s2)
   18c2a:	39394803          	lbu	a6,915(s2)
   18c2e:	39494883          	lbu	a7,916(s2)
   18c32:	39994703          	lbu	a4,921(s2)
   18c36:	39a94483          	lbu	s1,922(s2)
   18c3a:	39b94403          	lbu	s0,923(s2)
   18c3e:	39c94503          	lbu	a0,924(s2)
   18c42:	39594303          	lbu	t1,917(s2)
   18c46:	39694383          	lbu	t2,918(s2)
   18c4a:	39794583          	lbu	a1,919(s2)
   18c4e:	39894783          	lbu	a5,920(s2)
   18c52:	0a511823          	sh	t0,176(sp)
   18c56:	0bc10923          	sb	t3,178(sp)
   18c5a:	0522                	slli	a0,a0,0x8
   18c5c:	8c49                	or	s0,s0,a0
   18c5e:	07a2                	slli	a5,a5,0x8
   18c60:	8ddd                	or	a1,a1,a5
   18c62:	39d94783          	lbu	a5,925(s2)
   18c66:	0742                	slli	a4,a4,0x10
   18c68:	04e2                	slli	s1,s1,0x18
   18c6a:	8f45                	or	a4,a4,s1
   18c6c:	66700513          	li	a0,1639
   18c70:	8f4d                	or	a4,a4,a1
   18c72:	45a1                	li	a1,8
   18c74:	d8ba                	sw	a4,112(sp)
   18c76:	06811a23          	sh	s0,116(sp)
   18c7a:	06f10b23          	sb	a5,118(sp)
   18c7e:	470d                	li	a4,3
   18c80:	00000073          	ecall
   18c84:	4711                	li	a4,4
   18c86:	66700513          	li	a0,1639
   18c8a:	4589                	li	a1,2
   18c8c:	4601                	li	a2,0
   18c8e:	4681                	li	a3,0
   18c90:	00000073          	ecall
   18c94:	08a2                	slli	a7,a7,0x8
   18c96:	0108e533          	or	a0,a7,a6
   18c9a:	0342                	slli	t1,t1,0x10
   18c9c:	03e2                	slli	t2,t2,0x18
   18c9e:	0063e5b3          	or	a1,t2,t1
   18ca2:	00a5e9b3          	or	s3,a1,a0
   18ca6:	000e8463          	beqz	t4,18cae <_start+0xa3e>
   18caa:	76b0306f          	j	1cc14 <_start+0x49a4>
   18cae:	0b011503          	lh	a0,176(sp)
   18cb2:	0b214583          	lbu	a1,178(sp)
   18cb6:	5646                	lw	a2,112(sp)
   18cb8:	07411683          	lh	a3,116(sp)
   18cbc:	07614703          	lbu	a4,118(sp)
   18cc0:	0189d793          	srli	a5,s3,0x18
   18cc4:	0109d493          	srli	s1,s3,0x10
   18cc8:	d232                	sw	a2,36(sp)
   18cca:	02d11423          	sh	a3,40(sp)
   18cce:	0089d693          	srli	a3,s3,0x8
   18cd2:	0ca11423          	sh	a0,200(sp)
   18cd6:	0cb10523          	sb	a1,202(sp)
   18cda:	0d3105a3          	sb	s3,203(sp)
   18cde:	0cd10623          	sb	a3,204(sp)
   18ce2:	0ce10aa3          	sb	a4,213(sp)
   18ce6:	02514503          	lbu	a0,37(sp)
   18cea:	02614583          	lbu	a1,38(sp)
   18cee:	02714683          	lbu	a3,39(sp)
   18cf2:	02814703          	lbu	a4,40(sp)
   18cf6:	0c9106a3          	sb	s1,205(sp)
   18cfa:	0cf10723          	sb	a5,206(sp)
   18cfe:	0cc107a3          	sb	a2,207(sp)
   18d02:	0ca10823          	sb	a0,208(sp)
   18d06:	02914503          	lbu	a0,41(sp)
   18d0a:	0cb108a3          	sb	a1,209(sp)
   18d0e:	0cd10923          	sb	a3,210(sp)
   18d12:	0ce109a3          	sb	a4,211(sp)
   18d16:	0ca10a23          	sb	a0,212(sp)
   18d1a:	6505                	lui	a0,0x1
   18d1c:	39c50513          	addi	a0,a0,924 # 139c <.Lline_table_start1+0x1171>
   18d20:	950a                	add	a0,a0,sp
   18d22:	01ac                	addi	a1,sp,200
   18d24:	ffffc097          	auipc	ra,0xffffc
   18d28:	c92080e7          	jalr	-878(ra) # 149b6 <_ZN18complex_no_dynamic3app17h7b301ef68d8a1019E>
   18d2c:	3ec94403          	lbu	s0,1004(s2)
   18d30:	cc09                	beqz	s0,18d4a <_start+0xada>
   18d32:	3f092983          	lw	s3,1008(s2)
   18d36:	a0b9                	j	18d84 <_start+0xb14>
   18d38:	853e                	mv	a0,a5
   18d3a:	4581                	li	a1,0
   18d3c:	4601                	li	a2,0
   18d3e:	4681                	li	a3,0
   18d40:	4f81                	li	t6,0
   18d42:	470d                	li	a4,3
   18d44:	00000073          	ecall
   18d48:	b911                	j	1895c <_start+0x6ec>
   18d4a:	3ee94503          	lbu	a0,1006(s2)
   18d4e:	3ed94583          	lbu	a1,1005(s2)
   18d52:	3ef94603          	lbu	a2,1007(s2)
   18d56:	3f092983          	lw	s3,1008(s2)
   18d5a:	0522                	slli	a0,a0,0x8
   18d5c:	8d4d                	or	a0,a0,a1
   18d5e:	02a11223          	sh	a0,36(sp)
   18d62:	02c10323          	sb	a2,38(sp)
   18d66:	6505                	lui	a0,0x1
   18d68:	3a450513          	addi	a0,a0,932 # 13a4 <.Lline_table_start1+0x1179>
   18d6c:	00a105b3          	add	a1,sp,a0
   18d70:	6505                	lui	a0,0x1
   18d72:	34050513          	addi	a0,a0,832 # 1340 <.Lline_table_start1+0x1115>
   18d76:	950a                	add	a0,a0,sp
   18d78:	04100613          	li	a2,65
   18d7c:	00004097          	auipc	ra,0x4
   18d80:	fb4080e7          	jalr	-76(ra) # 1cd30 <memcpy>
   18d84:	c019                	beqz	s0,18d8a <_start+0xb1a>
   18d86:	68f0306f          	j	1cc14 <_start+0x49a4>
   18d8a:	02411503          	lh	a0,36(sp)
   18d8e:	02614583          	lbu	a1,38(sp)
   18d92:	0189d613          	srli	a2,s3,0x18
   18d96:	0109d693          	srli	a3,s3,0x10
   18d9a:	0cd10da3          	sb	a3,219(sp)
   18d9e:	0cc10e23          	sb	a2,220(sp)
   18da2:	0089d613          	srli	a2,s3,0x8
   18da6:	0ca11b23          	sh	a0,214(sp)
   18daa:	0cb10c23          	sb	a1,216(sp)
   18dae:	0d310ca3          	sb	s3,217(sp)
   18db2:	0cc10d23          	sb	a2,218(sp)
   18db6:	0dd10513          	addi	a0,sp,221
   18dba:	6585                	lui	a1,0x1
   18dbc:	34058593          	addi	a1,a1,832 # 1340 <.Lline_table_start1+0x1115>
   18dc0:	958a                	add	a1,a1,sp
   18dc2:	04100613          	li	a2,65
   18dc6:	00004097          	auipc	ra,0x4
   18dca:	f6a080e7          	jalr	-150(ra) # 1cd30 <memcpy>
   18dce:	6505                	lui	a0,0x1
   18dd0:	39c50513          	addi	a0,a0,924 # 139c <.Lline_table_start1+0x1171>
   18dd4:	950a                	add	a0,a0,sp
   18dd6:	0d610593          	addi	a1,sp,214
   18dda:	ffffd097          	auipc	ra,0xffffd
   18dde:	724080e7          	jalr	1828(ra) # 164fe <_ZN18complex_no_dynamic3app17hbdf66a7c94012549E>
   18de2:	3ec94603          	lbu	a2,1004(s2)
   18de6:	ce11                	beqz	a2,18e02 <_start+0xb92>
   18de8:	3f092983          	lw	s3,1008(s2)
   18dec:	a82d                	j	18e26 <_start+0xbb6>
   18dee:	4601                	li	a2,0
   18df0:	4681                	li	a3,0
   18df2:	4e81                	li	t4,0
   18df4:	66700513          	li	a0,1639
   18df8:	45a1                	li	a1,8
   18dfa:	470d                	li	a4,3
   18dfc:	00000073          	ecall
   18e00:	b3d5                	j	18be4 <_start+0x974>
   18e02:	3ed94683          	lbu	a3,1005(s2)
   18e06:	3ee94703          	lbu	a4,1006(s2)
   18e0a:	3ef94783          	lbu	a5,1007(s2)
   18e0e:	3f092983          	lw	s3,1008(s2)
   18e12:	3f492583          	lw	a1,1012(s2)
   18e16:	3f892503          	lw	a0,1016(s2)
   18e1a:	0722                	slli	a4,a4,0x8
   18e1c:	8ed9                	or	a3,a3,a4
   18e1e:	38d91823          	sh	a3,912(s2)
   18e22:	38f90923          	sb	a5,914(s2)
   18e26:	c219                	beqz	a2,18e2c <_start+0xbbc>
   18e28:	5ed0306f          	j	1cc14 <_start+0x49a4>
   18e2c:	39091803          	lh	a6,912(s2)
   18e30:	39294683          	lbu	a3,914(s2)
   18e34:	0189d713          	srli	a4,s3,0x18
   18e38:	0109d793          	srli	a5,s3,0x10
   18e3c:	0089d493          	srli	s1,s3,0x8
   18e40:	0085d413          	srli	s0,a1,0x8
   18e44:	01855613          	srli	a2,a0,0x18
   18e48:	12f101a3          	sb	a5,291(sp)
   18e4c:	12e10223          	sb	a4,292(sp)
   18e50:	12b102a3          	sb	a1,293(sp)
   18e54:	12810323          	sb	s0,294(sp)
   18e58:	01055713          	srli	a4,a0,0x10
   18e5c:	12e105a3          	sb	a4,299(sp)
   18e60:	12c10623          	sb	a2,300(sp)
   18e64:	0185d613          	srli	a2,a1,0x18
   18e68:	81c1                	srli	a1,a1,0x10
   18e6a:	11011f23          	sh	a6,286(sp)
   18e6e:	12d10023          	sb	a3,288(sp)
   18e72:	133100a3          	sb	s3,289(sp)
   18e76:	12910123          	sb	s1,290(sp)
   18e7a:	00855693          	srli	a3,a0,0x8
   18e7e:	12b103a3          	sb	a1,295(sp)
   18e82:	12c10423          	sb	a2,296(sp)
   18e86:	12a104a3          	sb	a0,297(sp)
   18e8a:	12d10523          	sb	a3,298(sp)
   18e8e:	6505                	lui	a0,0x1
   18e90:	39c50513          	addi	a0,a0,924 # 139c <.Lline_table_start1+0x1171>
   18e94:	950a                	add	a0,a0,sp
   18e96:	11e10593          	addi	a1,sp,286
   18e9a:	ffffb097          	auipc	ra,0xffffb
   18e9e:	786080e7          	jalr	1926(ra) # 14620 <_ZN18complex_no_dynamic3app17h74185483111e0d41E>
   18ea2:	3ec94503          	lbu	a0,1004(s2)
   18ea6:	c501                	beqz	a0,18eae <_start+0xc3e>
   18ea8:	3f092983          	lw	s3,1008(s2)
   18eac:	a8b9                	j	18f0a <_start+0xc9a>
   18eae:	3ed94583          	lbu	a1,1005(s2)
   18eb2:	3ee94603          	lbu	a2,1006(s2)
   18eb6:	3ef94683          	lbu	a3,1007(s2)
   18eba:	3f092983          	lw	s3,1008(s2)
   18ebe:	3f492703          	lw	a4,1012(s2)
   18ec2:	3f892783          	lw	a5,1016(s2)
   18ec6:	3fc92483          	lw	s1,1020(s2)
   18eca:	40092403          	lw	s0,1024(s2)
   18ece:	0622                	slli	a2,a2,0x8
   18ed0:	38e92823          	sw	a4,912(s2)
   18ed4:	38f92a23          	sw	a5,916(s2)
   18ed8:	38992c23          	sw	s1,920(s2)
   18edc:	38892e23          	sw	s0,924(s2)
   18ee0:	8dd1                	or	a1,a1,a2
   18ee2:	02b11223          	sh	a1,36(sp)
   18ee6:	02d10323          	sb	a3,38(sp)
   18eea:	40492583          	lw	a1,1028(s2)
   18eee:	40892603          	lw	a2,1032(s2)
   18ef2:	40c92683          	lw	a3,1036(s2)
   18ef6:	41091703          	lh	a4,1040(s2)
   18efa:	3ab92023          	sw	a1,928(s2)
   18efe:	3ac92223          	sw	a2,932(s2)
   18f02:	3ad92423          	sw	a3,936(s2)
   18f06:	3ae91623          	sh	a4,940(s2)
   18f0a:	c119                	beqz	a0,18f10 <_start+0xca0>
   18f0c:	5090306f          	j	1cc14 <_start+0x49a4>
   18f10:	02411503          	lh	a0,36(sp)
   18f14:	02614583          	lbu	a1,38(sp)
   18f18:	0189d613          	srli	a2,s3,0x18
   18f1c:	0109d693          	srli	a3,s3,0x10
   18f20:	12d109a3          	sb	a3,307(sp)
   18f24:	12c10a23          	sb	a2,308(sp)
   18f28:	0089d613          	srli	a2,s3,0x8
   18f2c:	12a11723          	sh	a0,302(sp)
   18f30:	12b10823          	sb	a1,304(sp)
   18f34:	133108a3          	sb	s3,305(sp)
   18f38:	12c10923          	sb	a2,306(sp)
   18f3c:	13510513          	addi	a0,sp,309
   18f40:	6585                	lui	a1,0x1
   18f42:	34058593          	addi	a1,a1,832 # 1340 <.Lline_table_start1+0x1115>
   18f46:	958a                	add	a1,a1,sp
   18f48:	4679                	li	a2,30
   18f4a:	00004097          	auipc	ra,0x4
   18f4e:	de6080e7          	jalr	-538(ra) # 1cd30 <memcpy>
   18f52:	6505                	lui	a0,0x1
   18f54:	39c50513          	addi	a0,a0,924 # 139c <.Lline_table_start1+0x1171>
   18f58:	950a                	add	a0,a0,sp
   18f5a:	12e10593          	addi	a1,sp,302
   18f5e:	ffff9097          	auipc	ra,0xffff9
   18f62:	3ca080e7          	jalr	970(ra) # 12328 <_ZN18complex_no_dynamic3app17h204d631e1dc56072E>
   18f66:	3ec94403          	lbu	s0,1004(s2)
   18f6a:	c401                	beqz	s0,18f72 <_start+0xd02>
   18f6c:	3f092983          	lw	s3,1008(s2)
   18f70:	a835                	j	18fac <_start+0xd3c>
   18f72:	3ee94503          	lbu	a0,1006(s2)
   18f76:	3ed94583          	lbu	a1,1005(s2)
   18f7a:	3ef94603          	lbu	a2,1007(s2)
   18f7e:	3f092983          	lw	s3,1008(s2)
   18f82:	0522                	slli	a0,a0,0x8
   18f84:	8d4d                	or	a0,a0,a1
   18f86:	02a11223          	sh	a0,36(sp)
   18f8a:	02c10323          	sb	a2,38(sp)
   18f8e:	6505                	lui	a0,0x1
   18f90:	3a450513          	addi	a0,a0,932 # 13a4 <.Lline_table_start1+0x1179>
   18f94:	00a105b3          	add	a1,sp,a0
   18f98:	6505                	lui	a0,0x1
   18f9a:	34050513          	addi	a0,a0,832 # 1340 <.Lline_table_start1+0x1115>
   18f9e:	950a                	add	a0,a0,sp
   18fa0:	02300613          	li	a2,35
   18fa4:	00004097          	auipc	ra,0x4
   18fa8:	d8c080e7          	jalr	-628(ra) # 1cd30 <memcpy>
   18fac:	c019                	beqz	s0,18fb2 <_start+0xd42>
   18fae:	4670306f          	j	1cc14 <_start+0x49a4>
   18fb2:	02411503          	lh	a0,36(sp)
   18fb6:	02614583          	lbu	a1,38(sp)
   18fba:	0189d613          	srli	a2,s3,0x18
   18fbe:	0109d693          	srli	a3,s3,0x10
   18fc2:	14d10ca3          	sb	a3,345(sp)
   18fc6:	14c10d23          	sb	a2,346(sp)
   18fca:	0089d613          	srli	a2,s3,0x8
   18fce:	14a11a23          	sh	a0,340(sp)
   18fd2:	14b10b23          	sb	a1,342(sp)
   18fd6:	15310ba3          	sb	s3,343(sp)
   18fda:	14c10c23          	sb	a2,344(sp)
   18fde:	15b10513          	addi	a0,sp,347
   18fe2:	6585                	lui	a1,0x1
   18fe4:	34058593          	addi	a1,a1,832 # 1340 <.Lline_table_start1+0x1115>
   18fe8:	958a                	add	a1,a1,sp
   18fea:	02300613          	li	a2,35
   18fee:	00004097          	auipc	ra,0x4
   18ff2:	d42080e7          	jalr	-702(ra) # 1cd30 <memcpy>
   18ff6:	6505                	lui	a0,0x1
   18ff8:	39c50513          	addi	a0,a0,924 # 139c <.Lline_table_start1+0x1171>
   18ffc:	950a                	add	a0,a0,sp
   18ffe:	0acc                	addi	a1,sp,340
   19000:	fffff097          	auipc	ra,0xfffff
   19004:	878080e7          	jalr	-1928(ra) # 17878 <_ZN18complex_no_dynamic3app17hef87a1c4e4dd6e87E>
   19008:	3ec94403          	lbu	s0,1004(s2)
   1900c:	c401                	beqz	s0,19014 <_start+0xda4>
   1900e:	3f092983          	lw	s3,1008(s2)
   19012:	a835                	j	1904e <_start+0xdde>
   19014:	3ee94503          	lbu	a0,1006(s2)
   19018:	3ed94583          	lbu	a1,1005(s2)
   1901c:	3ef94603          	lbu	a2,1007(s2)
   19020:	3f092983          	lw	s3,1008(s2)
   19024:	0522                	slli	a0,a0,0x8
   19026:	8d4d                	or	a0,a0,a1
   19028:	02a11223          	sh	a0,36(sp)
   1902c:	02c10323          	sb	a2,38(sp)
   19030:	6505                	lui	a0,0x1
   19032:	3a450513          	addi	a0,a0,932 # 13a4 <.Lline_table_start1+0x1179>
   19036:	00a105b3          	add	a1,sp,a0
   1903a:	6505                	lui	a0,0x1
   1903c:	34050513          	addi	a0,a0,832 # 1340 <.Lline_table_start1+0x1115>
   19040:	950a                	add	a0,a0,sp
   19042:	05c00613          	li	a2,92
   19046:	00004097          	auipc	ra,0x4
   1904a:	cea080e7          	jalr	-790(ra) # 1cd30 <memcpy>
   1904e:	c019                	beqz	s0,19054 <_start+0xde4>
   19050:	3c50306f          	j	1cc14 <_start+0x49a4>
   19054:	02411503          	lh	a0,36(sp)
   19058:	02614583          	lbu	a1,38(sp)
   1905c:	0189d613          	srli	a2,s3,0x18
   19060:	0109d693          	srli	a3,s3,0x10
   19064:	18d101a3          	sb	a3,387(sp)
   19068:	18c10223          	sb	a2,388(sp)
   1906c:	0089d613          	srli	a2,s3,0x8
   19070:	16a11f23          	sh	a0,382(sp)
   19074:	18b10023          	sb	a1,384(sp)
   19078:	193100a3          	sb	s3,385(sp)
   1907c:	18c10123          	sb	a2,386(sp)
   19080:	18510513          	addi	a0,sp,389
   19084:	6585                	lui	a1,0x1
   19086:	34058593          	addi	a1,a1,832 # 1340 <.Lline_table_start1+0x1115>
   1908a:	958a                	add	a1,a1,sp
   1908c:	05c00613          	li	a2,92
   19090:	00004097          	auipc	ra,0x4
   19094:	ca0080e7          	jalr	-864(ra) # 1cd30 <memcpy>
   19098:	6505                	lui	a0,0x1
   1909a:	39c50513          	addi	a0,a0,924 # 139c <.Lline_table_start1+0x1171>
   1909e:	950a                	add	a0,a0,sp
   190a0:	17e10593          	addi	a1,sp,382
   190a4:	ffffa097          	auipc	ra,0xffffa
   190a8:	104080e7          	jalr	260(ra) # 131a8 <_ZN18complex_no_dynamic3app17h49088ae87c357d7aE>
   190ac:	3ec94503          	lbu	a0,1004(s2)
   190b0:	c501                	beqz	a0,190b8 <_start+0xe48>
   190b2:	3f092983          	lw	s3,1008(s2)
   190b6:	a8b9                	j	19114 <_start+0xea4>
   190b8:	3ed94583          	lbu	a1,1005(s2)
   190bc:	3ee94603          	lbu	a2,1006(s2)
   190c0:	3ef94683          	lbu	a3,1007(s2)
   190c4:	3f092983          	lw	s3,1008(s2)
   190c8:	3f492703          	lw	a4,1012(s2)
   190cc:	3f892783          	lw	a5,1016(s2)
   190d0:	3fc92483          	lw	s1,1020(s2)
   190d4:	40092403          	lw	s0,1024(s2)
   190d8:	0622                	slli	a2,a2,0x8
   190da:	38e92823          	sw	a4,912(s2)
   190de:	38f92a23          	sw	a5,916(s2)
   190e2:	38992c23          	sw	s1,920(s2)
   190e6:	38892e23          	sw	s0,924(s2)
   190ea:	8dd1                	or	a1,a1,a2
   190ec:	02b11223          	sh	a1,36(sp)
   190f0:	02d10323          	sb	a3,38(sp)
   190f4:	40492583          	lw	a1,1028(s2)
   190f8:	40892603          	lw	a2,1032(s2)
   190fc:	40c92683          	lw	a3,1036(s2)
   19100:	41092703          	lw	a4,1040(s2)
   19104:	3ab92023          	sw	a1,928(s2)
   19108:	3ac92223          	sw	a2,932(s2)
   1910c:	3ad92423          	sw	a3,936(s2)
   19110:	3ae92623          	sw	a4,940(s2)
   19114:	c119                	beqz	a0,1911a <_start+0xeaa>
   19116:	2ff0306f          	j	1cc14 <_start+0x49a4>
   1911a:	02411503          	lh	a0,36(sp)
   1911e:	02614583          	lbu	a1,38(sp)
   19122:	0189d613          	srli	a2,s3,0x18
   19126:	0109d693          	srli	a3,s3,0x10
   1912a:	1ed103a3          	sb	a3,487(sp)
   1912e:	1ec10423          	sb	a2,488(sp)
   19132:	0089d613          	srli	a2,s3,0x8
   19136:	1ea11123          	sh	a0,482(sp)
   1913a:	1eb10223          	sb	a1,484(sp)
   1913e:	1f3102a3          	sb	s3,485(sp)
   19142:	1ec10323          	sb	a2,486(sp)
   19146:	1e910513          	addi	a0,sp,489
   1914a:	6585                	lui	a1,0x1
   1914c:	34058593          	addi	a1,a1,832 # 1340 <.Lline_table_start1+0x1115>
   19150:	958a                	add	a1,a1,sp
   19152:	02000613          	li	a2,32
   19156:	00004097          	auipc	ra,0x4
   1915a:	bda080e7          	jalr	-1062(ra) # 1cd30 <memcpy>
   1915e:	6505                	lui	a0,0x1
   19160:	39c50513          	addi	a0,a0,924 # 139c <.Lline_table_start1+0x1171>
   19164:	950a                	add	a0,a0,sp
   19166:	1e210593          	addi	a1,sp,482
   1916a:	ffff8097          	auipc	ra,0xffff8
   1916e:	2fc080e7          	jalr	764(ra) # 11466 <_ZN18complex_no_dynamic3app17h0144789414a3aa2cE>
   19172:	3ec94503          	lbu	a0,1004(s2)
   19176:	c501                	beqz	a0,1917e <_start+0xf0e>
   19178:	3f092983          	lw	s3,1008(s2)
   1917c:	a899                	j	191d2 <_start+0xf62>
   1917e:	3ed94583          	lbu	a1,1005(s2)
   19182:	3ee94603          	lbu	a2,1006(s2)
   19186:	3ef94683          	lbu	a3,1007(s2)
   1918a:	3f092983          	lw	s3,1008(s2)
   1918e:	3f492703          	lw	a4,1012(s2)
   19192:	3f892783          	lw	a5,1016(s2)
   19196:	3fc92483          	lw	s1,1020(s2)
   1919a:	40092403          	lw	s0,1024(s2)
   1919e:	0622                	slli	a2,a2,0x8
   191a0:	38e92823          	sw	a4,912(s2)
   191a4:	38f92a23          	sw	a5,916(s2)
   191a8:	38992c23          	sw	s1,920(s2)
   191ac:	38892e23          	sw	s0,924(s2)
   191b0:	8dd1                	or	a1,a1,a2
   191b2:	40492603          	lw	a2,1028(s2)
   191b6:	40891703          	lh	a4,1032(s2)
   191ba:	40a94783          	lbu	a5,1034(s2)
   191be:	02b11223          	sh	a1,36(sp)
   191c2:	02d10323          	sb	a3,38(sp)
   191c6:	3ac92023          	sw	a2,928(s2)
   191ca:	3ae91223          	sh	a4,932(s2)
   191ce:	3af90323          	sb	a5,934(s2)
   191d2:	c119                	beqz	a0,191d8 <_start+0xf68>
   191d4:	2410306f          	j	1cc14 <_start+0x49a4>
   191d8:	02411503          	lh	a0,36(sp)
   191dc:	02614583          	lbu	a1,38(sp)
   191e0:	0189d613          	srli	a2,s3,0x18
   191e4:	0109d693          	srli	a3,s3,0x10
   191e8:	20d107a3          	sb	a3,527(sp)
   191ec:	20c10823          	sb	a2,528(sp)
   191f0:	0089d613          	srli	a2,s3,0x8
   191f4:	20a11523          	sh	a0,522(sp)
   191f8:	20b10623          	sb	a1,524(sp)
   191fc:	213106a3          	sb	s3,525(sp)
   19200:	20c10723          	sb	a2,526(sp)
   19204:	21110513          	addi	a0,sp,529
   19208:	6585                	lui	a1,0x1
   1920a:	34058593          	addi	a1,a1,832 # 1340 <.Lline_table_start1+0x1115>
   1920e:	958a                	add	a1,a1,sp
   19210:	465d                	li	a2,23
   19212:	00004097          	auipc	ra,0x4
   19216:	b1e080e7          	jalr	-1250(ra) # 1cd30 <memcpy>
   1921a:	6505                	lui	a0,0x1
   1921c:	39c50513          	addi	a0,a0,924 # 139c <.Lline_table_start1+0x1171>
   19220:	950a                	add	a0,a0,sp
   19222:	20a10593          	addi	a1,sp,522
   19226:	ffffe097          	auipc	ra,0xffffe
   1922a:	e6e080e7          	jalr	-402(ra) # 17094 <_ZN18complex_no_dynamic3app17hde74b89f5716be29E>
   1922e:	3ec94403          	lbu	s0,1004(s2)
   19232:	c401                	beqz	s0,1923a <_start+0xfca>
   19234:	3f092983          	lw	s3,1008(s2)
   19238:	a835                	j	19274 <_start+0x1004>
   1923a:	3ee94503          	lbu	a0,1006(s2)
   1923e:	3ed94583          	lbu	a1,1005(s2)
   19242:	3ef94603          	lbu	a2,1007(s2)
   19246:	3f092983          	lw	s3,1008(s2)
   1924a:	0522                	slli	a0,a0,0x8
   1924c:	8d4d                	or	a0,a0,a1
   1924e:	02a11223          	sh	a0,36(sp)
   19252:	02c10323          	sb	a2,38(sp)
   19256:	6505                	lui	a0,0x1
   19258:	3a450513          	addi	a0,a0,932 # 13a4 <.Lline_table_start1+0x1179>
   1925c:	00a105b3          	add	a1,sp,a0
   19260:	6505                	lui	a0,0x1
   19262:	34050513          	addi	a0,a0,832 # 1340 <.Lline_table_start1+0x1115>
   19266:	950a                	add	a0,a0,sp
   19268:	02500613          	li	a2,37
   1926c:	00004097          	auipc	ra,0x4
   19270:	ac4080e7          	jalr	-1340(ra) # 1cd30 <memcpy>
   19274:	c019                	beqz	s0,1927a <_start+0x100a>
   19276:	19f0306f          	j	1cc14 <_start+0x49a4>
   1927a:	02411503          	lh	a0,36(sp)
   1927e:	02614583          	lbu	a1,38(sp)
   19282:	0189d613          	srli	a2,s3,0x18
   19286:	0109d693          	srli	a3,s3,0x10
   1928a:	22d106a3          	sb	a3,557(sp)
   1928e:	22c10723          	sb	a2,558(sp)
   19292:	0089d613          	srli	a2,s3,0x8
   19296:	22a11423          	sh	a0,552(sp)
   1929a:	22b10523          	sb	a1,554(sp)
   1929e:	233105a3          	sb	s3,555(sp)
   192a2:	22c10623          	sb	a2,556(sp)
   192a6:	22f10513          	addi	a0,sp,559
   192aa:	6585                	lui	a1,0x1
   192ac:	34058593          	addi	a1,a1,832 # 1340 <.Lline_table_start1+0x1115>
   192b0:	958a                	add	a1,a1,sp
   192b2:	02500613          	li	a2,37
   192b6:	00004097          	auipc	ra,0x4
   192ba:	a7a080e7          	jalr	-1414(ra) # 1cd30 <memcpy>
   192be:	6505                	lui	a0,0x1
   192c0:	39c50513          	addi	a0,a0,924 # 139c <.Lline_table_start1+0x1171>
   192c4:	950a                	add	a0,a0,sp
   192c6:	142c                	addi	a1,sp,552
   192c8:	ffff9097          	auipc	ra,0xffff9
   192cc:	170080e7          	jalr	368(ra) # 12438 <_ZN18complex_no_dynamic3app17h26af9df7f0c82e8fE>
   192d0:	3ec94503          	lbu	a0,1004(s2)
   192d4:	c501                	beqz	a0,192dc <_start+0x106c>
   192d6:	3f092983          	lw	s3,1008(s2)
   192da:	a8b9                	j	19338 <_start+0x10c8>
   192dc:	3ed94583          	lbu	a1,1005(s2)
   192e0:	3ee94603          	lbu	a2,1006(s2)
   192e4:	3ef94683          	lbu	a3,1007(s2)
   192e8:	3f092983          	lw	s3,1008(s2)
   192ec:	3f492703          	lw	a4,1012(s2)
   192f0:	3f892783          	lw	a5,1016(s2)
   192f4:	3fc92483          	lw	s1,1020(s2)
   192f8:	40092403          	lw	s0,1024(s2)
   192fc:	0622                	slli	a2,a2,0x8
   192fe:	38e92823          	sw	a4,912(s2)
   19302:	38f92a23          	sw	a5,916(s2)
   19306:	38992c23          	sw	s1,920(s2)
   1930a:	38892e23          	sw	s0,924(s2)
   1930e:	8dd1                	or	a1,a1,a2
   19310:	02b11223          	sh	a1,36(sp)
   19314:	02d10323          	sb	a3,38(sp)
   19318:	40492583          	lw	a1,1028(s2)
   1931c:	40892603          	lw	a2,1032(s2)
   19320:	40c92683          	lw	a3,1036(s2)
   19324:	41091703          	lh	a4,1040(s2)
   19328:	3ab92023          	sw	a1,928(s2)
   1932c:	3ac92223          	sw	a2,932(s2)
   19330:	3ad92423          	sw	a3,936(s2)
   19334:	3ae91623          	sh	a4,940(s2)
   19338:	c119                	beqz	a0,1933e <_start+0x10ce>
   1933a:	0db0306f          	j	1cc14 <_start+0x49a4>
   1933e:	02411503          	lh	a0,36(sp)
   19342:	02614583          	lbu	a1,38(sp)
   19346:	0189d613          	srli	a2,s3,0x18
   1934a:	0109d693          	srli	a3,s3,0x10
   1934e:	24d10ca3          	sb	a3,601(sp)
   19352:	24c10d23          	sb	a2,602(sp)
   19356:	0089d613          	srli	a2,s3,0x8
   1935a:	24a11a23          	sh	a0,596(sp)
   1935e:	24b10b23          	sb	a1,598(sp)
   19362:	25310ba3          	sb	s3,599(sp)
   19366:	24c10c23          	sb	a2,600(sp)
   1936a:	25b10513          	addi	a0,sp,603
   1936e:	6585                	lui	a1,0x1
   19370:	34058593          	addi	a1,a1,832 # 1340 <.Lline_table_start1+0x1115>
   19374:	958a                	add	a1,a1,sp
   19376:	4679                	li	a2,30
   19378:	00004097          	auipc	ra,0x4
   1937c:	9b8080e7          	jalr	-1608(ra) # 1cd30 <memcpy>
   19380:	6505                	lui	a0,0x1
   19382:	39c50513          	addi	a0,a0,924 # 139c <.Lline_table_start1+0x1171>
   19386:	950a                	add	a0,a0,sp
   19388:	0ccc                	addi	a1,sp,596
   1938a:	ffff9097          	auipc	ra,0xffff9
   1938e:	786080e7          	jalr	1926(ra) # 12b10 <_ZN18complex_no_dynamic3app17h2ec8e12db458391eE>
   19392:	3ec94503          	lbu	a0,1004(s2)
   19396:	c501                	beqz	a0,1939e <_start+0x112e>
   19398:	3f092983          	lw	s3,1008(s2)
   1939c:	a099                	j	193e2 <_start+0x1172>
   1939e:	3ed94583          	lbu	a1,1005(s2)
   193a2:	3ee94603          	lbu	a2,1006(s2)
   193a6:	3ef94683          	lbu	a3,1007(s2)
   193aa:	3f092983          	lw	s3,1008(s2)
   193ae:	3f492703          	lw	a4,1012(s2)
   193b2:	3f892783          	lw	a5,1016(s2)
   193b6:	3fc92483          	lw	s1,1020(s2)
   193ba:	40092403          	lw	s0,1024(s2)
   193be:	38e92823          	sw	a4,912(s2)
   193c2:	38f92a23          	sw	a5,916(s2)
   193c6:	38992c23          	sw	s1,920(s2)
   193ca:	38892e23          	sw	s0,924(s2)
   193ce:	40494703          	lbu	a4,1028(s2)
   193d2:	0622                	slli	a2,a2,0x8
   193d4:	8dd1                	or	a1,a1,a2
   193d6:	02b11223          	sh	a1,36(sp)
   193da:	02d10323          	sb	a3,38(sp)
   193de:	3ae90023          	sb	a4,928(s2)
   193e2:	c119                	beqz	a0,193e8 <_start+0x1178>
   193e4:	0310306f          	j	1cc14 <_start+0x49a4>
   193e8:	02411503          	lh	a0,36(sp)
   193ec:	02614583          	lbu	a1,38(sp)
   193f0:	0189d613          	srli	a2,s3,0x18
   193f4:	0109d693          	srli	a3,s3,0x10
   193f8:	26d10fa3          	sb	a3,639(sp)
   193fc:	28c10023          	sb	a2,640(sp)
   19400:	0089d613          	srli	a2,s3,0x8
   19404:	26a11d23          	sh	a0,634(sp)
   19408:	26b10e23          	sb	a1,636(sp)
   1940c:	27310ea3          	sb	s3,637(sp)
   19410:	26c10f23          	sb	a2,638(sp)
   19414:	28110513          	addi	a0,sp,641
   19418:	6585                	lui	a1,0x1
   1941a:	34058593          	addi	a1,a1,832 # 1340 <.Lline_table_start1+0x1115>
   1941e:	958a                	add	a1,a1,sp
   19420:	4645                	li	a2,17
   19422:	00004097          	auipc	ra,0x4
   19426:	90e080e7          	jalr	-1778(ra) # 1cd30 <memcpy>
   1942a:	6505                	lui	a0,0x1
   1942c:	39c50513          	addi	a0,a0,924 # 139c <.Lline_table_start1+0x1171>
   19430:	950a                	add	a0,a0,sp
   19432:	27a10593          	addi	a1,sp,634
   19436:	ffff9097          	auipc	ra,0xffff9
   1943a:	c24080e7          	jalr	-988(ra) # 1205a <_ZN18complex_no_dynamic3app17h1db37231d9e7d569E>
   1943e:	3ec94403          	lbu	s0,1004(s2)
   19442:	c401                	beqz	s0,1944a <_start+0x11da>
   19444:	3f092983          	lw	s3,1008(s2)
   19448:	a835                	j	19484 <_start+0x1214>
   1944a:	3ee94503          	lbu	a0,1006(s2)
   1944e:	3ed94583          	lbu	a1,1005(s2)
   19452:	3ef94603          	lbu	a2,1007(s2)
   19456:	3f092983          	lw	s3,1008(s2)
   1945a:	0522                	slli	a0,a0,0x8
   1945c:	8d4d                	or	a0,a0,a1
   1945e:	02a11223          	sh	a0,36(sp)
   19462:	02c10323          	sb	a2,38(sp)
   19466:	6505                	lui	a0,0x1
   19468:	3a450513          	addi	a0,a0,932 # 13a4 <.Lline_table_start1+0x1179>
   1946c:	00a105b3          	add	a1,sp,a0
   19470:	6505                	lui	a0,0x1
   19472:	34050513          	addi	a0,a0,832 # 1340 <.Lline_table_start1+0x1115>
   19476:	950a                	add	a0,a0,sp
   19478:	02f00613          	li	a2,47
   1947c:	00004097          	auipc	ra,0x4
   19480:	8b4080e7          	jalr	-1868(ra) # 1cd30 <memcpy>
   19484:	c019                	beqz	s0,1948a <_start+0x121a>
   19486:	78e0306f          	j	1cc14 <_start+0x49a4>
   1948a:	02411503          	lh	a0,36(sp)
   1948e:	02614583          	lbu	a1,38(sp)
   19492:	0189d613          	srli	a2,s3,0x18
   19496:	0109d693          	srli	a3,s3,0x10
   1949a:	28d10ba3          	sb	a3,663(sp)
   1949e:	28c10c23          	sb	a2,664(sp)
   194a2:	0089d613          	srli	a2,s3,0x8
   194a6:	28a11923          	sh	a0,658(sp)
   194aa:	28b10a23          	sb	a1,660(sp)
   194ae:	29310aa3          	sb	s3,661(sp)
   194b2:	28c10b23          	sb	a2,662(sp)
   194b6:	29910513          	addi	a0,sp,665
   194ba:	6585                	lui	a1,0x1
   194bc:	34058593          	addi	a1,a1,832 # 1340 <.Lline_table_start1+0x1115>
   194c0:	958a                	add	a1,a1,sp
   194c2:	02f00613          	li	a2,47
   194c6:	00004097          	auipc	ra,0x4
   194ca:	86a080e7          	jalr	-1942(ra) # 1cd30 <memcpy>
   194ce:	6505                	lui	a0,0x1
   194d0:	39c50513          	addi	a0,a0,924 # 139c <.Lline_table_start1+0x1171>
   194d4:	950a                	add	a0,a0,sp
   194d6:	29210593          	addi	a1,sp,658
   194da:	ffffa097          	auipc	ra,0xffffa
   194de:	ef2080e7          	jalr	-270(ra) # 133cc <_ZN18complex_no_dynamic3app17h4d33f4a7ed2e75abE>
   194e2:	3ec94403          	lbu	s0,1004(s2)
   194e6:	c401                	beqz	s0,194ee <_start+0x127e>
   194e8:	3f092983          	lw	s3,1008(s2)
   194ec:	a835                	j	19528 <_start+0x12b8>
   194ee:	3ee94503          	lbu	a0,1006(s2)
   194f2:	3ed94583          	lbu	a1,1005(s2)
   194f6:	3ef94603          	lbu	a2,1007(s2)
   194fa:	3f092983          	lw	s3,1008(s2)
   194fe:	0522                	slli	a0,a0,0x8
   19500:	8d4d                	or	a0,a0,a1
   19502:	02a11223          	sh	a0,36(sp)
   19506:	02c10323          	sb	a2,38(sp)
   1950a:	6505                	lui	a0,0x1
   1950c:	3a450513          	addi	a0,a0,932 # 13a4 <.Lline_table_start1+0x1179>
   19510:	00a105b3          	add	a1,sp,a0
   19514:	6505                	lui	a0,0x1
   19516:	34050513          	addi	a0,a0,832 # 1340 <.Lline_table_start1+0x1115>
   1951a:	950a                	add	a0,a0,sp
   1951c:	02d00613          	li	a2,45
   19520:	00004097          	auipc	ra,0x4
   19524:	810080e7          	jalr	-2032(ra) # 1cd30 <memcpy>
   19528:	c019                	beqz	s0,1952e <_start+0x12be>
   1952a:	6ea0306f          	j	1cc14 <_start+0x49a4>
   1952e:	02411503          	lh	a0,36(sp)
   19532:	02614583          	lbu	a1,38(sp)
   19536:	0189d613          	srli	a2,s3,0x18
   1953a:	0109d693          	srli	a3,s3,0x10
   1953e:	2cd106a3          	sb	a3,717(sp)
   19542:	2cc10723          	sb	a2,718(sp)
   19546:	0089d613          	srli	a2,s3,0x8
   1954a:	2ca11423          	sh	a0,712(sp)
   1954e:	2cb10523          	sb	a1,714(sp)
   19552:	2d3105a3          	sb	s3,715(sp)
   19556:	2cc10623          	sb	a2,716(sp)
   1955a:	2cf10513          	addi	a0,sp,719
   1955e:	6585                	lui	a1,0x1
   19560:	34058593          	addi	a1,a1,832 # 1340 <.Lline_table_start1+0x1115>
   19564:	958a                	add	a1,a1,sp
   19566:	02d00613          	li	a2,45
   1956a:	00003097          	auipc	ra,0x3
   1956e:	7c6080e7          	jalr	1990(ra) # 1cd30 <memcpy>
   19572:	6505                	lui	a0,0x1
   19574:	39c50513          	addi	a0,a0,924 # 139c <.Lline_table_start1+0x1171>
   19578:	950a                	add	a0,a0,sp
   1957a:	05ac                	addi	a1,sp,712
   1957c:	ffffb097          	auipc	ra,0xffffb
   19580:	f9e080e7          	jalr	-98(ra) # 1451a <_ZN18complex_no_dynamic3app17h72711f717ad6b425E>
   19584:	3ec94403          	lbu	s0,1004(s2)
   19588:	c401                	beqz	s0,19590 <_start+0x1320>
   1958a:	3f092983          	lw	s3,1008(s2)
   1958e:	a835                	j	195ca <_start+0x135a>
   19590:	3ee94503          	lbu	a0,1006(s2)
   19594:	3ed94583          	lbu	a1,1005(s2)
   19598:	3ef94603          	lbu	a2,1007(s2)
   1959c:	3f092983          	lw	s3,1008(s2)
   195a0:	0522                	slli	a0,a0,0x8
   195a2:	8d4d                	or	a0,a0,a1
   195a4:	02a11223          	sh	a0,36(sp)
   195a8:	02c10323          	sb	a2,38(sp)
   195ac:	6505                	lui	a0,0x1
   195ae:	3a450513          	addi	a0,a0,932 # 13a4 <.Lline_table_start1+0x1179>
   195b2:	00a105b3          	add	a1,sp,a0
   195b6:	6505                	lui	a0,0x1
   195b8:	34050513          	addi	a0,a0,832 # 1340 <.Lline_table_start1+0x1115>
   195bc:	950a                	add	a0,a0,sp
   195be:	02700613          	li	a2,39
   195c2:	00003097          	auipc	ra,0x3
   195c6:	76e080e7          	jalr	1902(ra) # 1cd30 <memcpy>
   195ca:	c019                	beqz	s0,195d0 <_start+0x1360>
   195cc:	6480306f          	j	1cc14 <_start+0x49a4>
   195d0:	02411503          	lh	a0,36(sp)
   195d4:	02614583          	lbu	a1,38(sp)
   195d8:	0189d613          	srli	a2,s3,0x18
   195dc:	0109d693          	srli	a3,s3,0x10
   195e0:	30d100a3          	sb	a3,769(sp)
   195e4:	30c10123          	sb	a2,770(sp)
   195e8:	0089d613          	srli	a2,s3,0x8
   195ec:	2ea11e23          	sh	a0,764(sp)
   195f0:	2eb10f23          	sb	a1,766(sp)
   195f4:	2f310fa3          	sb	s3,767(sp)
   195f8:	30c10023          	sb	a2,768(sp)
   195fc:	30310513          	addi	a0,sp,771
   19600:	6585                	lui	a1,0x1
   19602:	34058593          	addi	a1,a1,832 # 1340 <.Lline_table_start1+0x1115>
   19606:	958a                	add	a1,a1,sp
   19608:	02700613          	li	a2,39
   1960c:	00003097          	auipc	ra,0x3
   19610:	724080e7          	jalr	1828(ra) # 1cd30 <memcpy>
   19614:	6505                	lui	a0,0x1
   19616:	39c50513          	addi	a0,a0,924 # 139c <.Lline_table_start1+0x1171>
   1961a:	950a                	add	a0,a0,sp
   1961c:	1dec                	addi	a1,sp,764
   1961e:	ffffd097          	auipc	ra,0xffffd
   19622:	654080e7          	jalr	1620(ra) # 16c72 <_ZN18complex_no_dynamic3app17hc95586b11f830f24E>
   19626:	3ec94403          	lbu	s0,1004(s2)
   1962a:	c401                	beqz	s0,19632 <_start+0x13c2>
   1962c:	3f092983          	lw	s3,1008(s2)
   19630:	a835                	j	1966c <_start+0x13fc>
   19632:	3ee94503          	lbu	a0,1006(s2)
   19636:	3ed94583          	lbu	a1,1005(s2)
   1963a:	3ef94603          	lbu	a2,1007(s2)
   1963e:	3f092983          	lw	s3,1008(s2)
   19642:	0522                	slli	a0,a0,0x8
   19644:	8d4d                	or	a0,a0,a1
   19646:	02a11223          	sh	a0,36(sp)
   1964a:	02c10323          	sb	a2,38(sp)
   1964e:	6505                	lui	a0,0x1
   19650:	3a450513          	addi	a0,a0,932 # 13a4 <.Lline_table_start1+0x1179>
   19654:	00a105b3          	add	a1,sp,a0
   19658:	6505                	lui	a0,0x1
   1965a:	34050513          	addi	a0,a0,832 # 1340 <.Lline_table_start1+0x1115>
   1965e:	950a                	add	a0,a0,sp
   19660:	03100613          	li	a2,49
   19664:	00003097          	auipc	ra,0x3
   19668:	6cc080e7          	jalr	1740(ra) # 1cd30 <memcpy>
   1966c:	c019                	beqz	s0,19672 <_start+0x1402>
   1966e:	5a60306f          	j	1cc14 <_start+0x49a4>
   19672:	02411503          	lh	a0,36(sp)
   19676:	02614583          	lbu	a1,38(sp)
   1967a:	0189d613          	srli	a2,s3,0x18
   1967e:	0109d693          	srli	a3,s3,0x10
   19682:	32d107a3          	sb	a3,815(sp)
   19686:	32c10823          	sb	a2,816(sp)
   1968a:	0089d613          	srli	a2,s3,0x8
   1968e:	32a11523          	sh	a0,810(sp)
   19692:	32b10623          	sb	a1,812(sp)
   19696:	333106a3          	sb	s3,813(sp)
   1969a:	32c10723          	sb	a2,814(sp)
   1969e:	33110513          	addi	a0,sp,817
   196a2:	6585                	lui	a1,0x1
   196a4:	34058593          	addi	a1,a1,832 # 1340 <.Lline_table_start1+0x1115>
   196a8:	958a                	add	a1,a1,sp
   196aa:	03100613          	li	a2,49
   196ae:	00003097          	auipc	ra,0x3
   196b2:	682080e7          	jalr	1666(ra) # 1cd30 <memcpy>
   196b6:	6505                	lui	a0,0x1
   196b8:	39c50513          	addi	a0,a0,924 # 139c <.Lline_table_start1+0x1171>
   196bc:	950a                	add	a0,a0,sp
   196be:	32a10593          	addi	a1,sp,810
   196c2:	ffffc097          	auipc	ra,0xffffc
   196c6:	c7a080e7          	jalr	-902(ra) # 1533c <_ZN18complex_no_dynamic3app17h8efd38cf693b0d8bE>
   196ca:	3ec94403          	lbu	s0,1004(s2)
   196ce:	c401                	beqz	s0,196d6 <_start+0x1466>
   196d0:	3f092983          	lw	s3,1008(s2)
   196d4:	a835                	j	19710 <_start+0x14a0>
   196d6:	3ee94503          	lbu	a0,1006(s2)
   196da:	3ed94583          	lbu	a1,1005(s2)
   196de:	3ef94603          	lbu	a2,1007(s2)
   196e2:	3f092983          	lw	s3,1008(s2)
   196e6:	0522                	slli	a0,a0,0x8
   196e8:	8d4d                	or	a0,a0,a1
   196ea:	02a11223          	sh	a0,36(sp)
   196ee:	02c10323          	sb	a2,38(sp)
   196f2:	6505                	lui	a0,0x1
   196f4:	3a450513          	addi	a0,a0,932 # 13a4 <.Lline_table_start1+0x1179>
   196f8:	00a105b3          	add	a1,sp,a0
   196fc:	6505                	lui	a0,0x1
   196fe:	34050513          	addi	a0,a0,832 # 1340 <.Lline_table_start1+0x1115>
   19702:	950a                	add	a0,a0,sp
   19704:	02d00613          	li	a2,45
   19708:	00003097          	auipc	ra,0x3
   1970c:	628080e7          	jalr	1576(ra) # 1cd30 <memcpy>
   19710:	c019                	beqz	s0,19716 <_start+0x14a6>
   19712:	5020306f          	j	1cc14 <_start+0x49a4>
   19716:	02411503          	lh	a0,36(sp)
   1971a:	02614583          	lbu	a1,38(sp)
   1971e:	0189d613          	srli	a2,s3,0x18
   19722:	0109d693          	srli	a3,s3,0x10
   19726:	36d103a3          	sb	a3,871(sp)
   1972a:	36c10423          	sb	a2,872(sp)
   1972e:	0089d613          	srli	a2,s3,0x8
   19732:	36a11123          	sh	a0,866(sp)
   19736:	36b10223          	sb	a1,868(sp)
   1973a:	373102a3          	sb	s3,869(sp)
   1973e:	36c10323          	sb	a2,870(sp)
   19742:	36910513          	addi	a0,sp,873
   19746:	6585                	lui	a1,0x1
   19748:	34058593          	addi	a1,a1,832 # 1340 <.Lline_table_start1+0x1115>
   1974c:	958a                	add	a1,a1,sp
   1974e:	02d00613          	li	a2,45
   19752:	00003097          	auipc	ra,0x3
   19756:	5de080e7          	jalr	1502(ra) # 1cd30 <memcpy>
   1975a:	6505                	lui	a0,0x1
   1975c:	39c50513          	addi	a0,a0,924 # 139c <.Lline_table_start1+0x1171>
   19760:	950a                	add	a0,a0,sp
   19762:	36210593          	addi	a1,sp,866
   19766:	ffff9097          	auipc	ra,0xffff9
   1976a:	4ae080e7          	jalr	1198(ra) # 12c14 <_ZN18complex_no_dynamic3app17h40cf91660b4bf541E>
   1976e:	3ec94503          	lbu	a0,1004(s2)
   19772:	c501                	beqz	a0,1977a <_start+0x150a>
   19774:	3f092983          	lw	s3,1008(s2)
   19778:	a0b9                	j	197c6 <_start+0x1556>
   1977a:	3ed94583          	lbu	a1,1005(s2)
   1977e:	3ee94603          	lbu	a2,1006(s2)
   19782:	3ef94683          	lbu	a3,1007(s2)
   19786:	3f092983          	lw	s3,1008(s2)
   1978a:	3f492703          	lw	a4,1012(s2)
   1978e:	3f892783          	lw	a5,1016(s2)
   19792:	3fc92483          	lw	s1,1020(s2)
   19796:	40092403          	lw	s0,1024(s2)
   1979a:	0622                	slli	a2,a2,0x8
   1979c:	38e92823          	sw	a4,912(s2)
   197a0:	38f92a23          	sw	a5,916(s2)
   197a4:	38992c23          	sw	s1,920(s2)
   197a8:	38892e23          	sw	s0,924(s2)
   197ac:	8dd1                	or	a1,a1,a2
   197ae:	40491603          	lh	a2,1028(s2)
   197b2:	40694703          	lbu	a4,1030(s2)
   197b6:	02b11223          	sh	a1,36(sp)
   197ba:	02d10323          	sb	a3,38(sp)
   197be:	3ac91023          	sh	a2,928(s2)
   197c2:	3ae90123          	sb	a4,930(s2)
   197c6:	c119                	beqz	a0,197cc <_start+0x155c>
   197c8:	44c0306f          	j	1cc14 <_start+0x49a4>
   197cc:	02411503          	lh	a0,36(sp)
   197d0:	02614583          	lbu	a1,38(sp)
   197d4:	0189d613          	srli	a2,s3,0x18
   197d8:	0109d693          	srli	a3,s3,0x10
   197dc:	38d10da3          	sb	a3,923(sp)
   197e0:	38c10e23          	sb	a2,924(sp)
   197e4:	0089d613          	srli	a2,s3,0x8
   197e8:	38a11b23          	sh	a0,918(sp)
   197ec:	38b10c23          	sb	a1,920(sp)
   197f0:	39310ca3          	sb	s3,921(sp)
   197f4:	38c10d23          	sb	a2,922(sp)
   197f8:	39d10513          	addi	a0,sp,925
   197fc:	6585                	lui	a1,0x1
   197fe:	34058593          	addi	a1,a1,832 # 1340 <.Lline_table_start1+0x1115>
   19802:	958a                	add	a1,a1,sp
   19804:	464d                	li	a2,19
   19806:	00003097          	auipc	ra,0x3
   1980a:	52a080e7          	jalr	1322(ra) # 1cd30 <memcpy>
   1980e:	6505                	lui	a0,0x1
   19810:	39c50513          	addi	a0,a0,924 # 139c <.Lline_table_start1+0x1171>
   19814:	950a                	add	a0,a0,sp
   19816:	39610593          	addi	a1,sp,918
   1981a:	ffffa097          	auipc	ra,0xffffa
   1981e:	5e0080e7          	jalr	1504(ra) # 13dfa <_ZN18complex_no_dynamic3app17h67cf224a56dbc24bE>
   19822:	3ec94403          	lbu	s0,1004(s2)
   19826:	c401                	beqz	s0,1982e <_start+0x15be>
   19828:	3f092983          	lw	s3,1008(s2)
   1982c:	a835                	j	19868 <_start+0x15f8>
   1982e:	3ee94503          	lbu	a0,1006(s2)
   19832:	3ed94583          	lbu	a1,1005(s2)
   19836:	3ef94603          	lbu	a2,1007(s2)
   1983a:	3f092983          	lw	s3,1008(s2)
   1983e:	0522                	slli	a0,a0,0x8
   19840:	8d4d                	or	a0,a0,a1
   19842:	02a11223          	sh	a0,36(sp)
   19846:	02c10323          	sb	a2,38(sp)
   1984a:	6505                	lui	a0,0x1
   1984c:	3a450513          	addi	a0,a0,932 # 13a4 <.Lline_table_start1+0x1179>
   19850:	00a105b3          	add	a1,sp,a0
   19854:	6505                	lui	a0,0x1
   19856:	34050513          	addi	a0,a0,832 # 1340 <.Lline_table_start1+0x1115>
   1985a:	950a                	add	a0,a0,sp
   1985c:	04900613          	li	a2,73
   19860:	00003097          	auipc	ra,0x3
   19864:	4d0080e7          	jalr	1232(ra) # 1cd30 <memcpy>
   19868:	c019                	beqz	s0,1986e <_start+0x15fe>
   1986a:	3aa0306f          	j	1cc14 <_start+0x49a4>
   1986e:	02411503          	lh	a0,36(sp)
   19872:	02614583          	lbu	a1,38(sp)
   19876:	0189d613          	srli	a2,s3,0x18
   1987a:	0109d693          	srli	a3,s3,0x10
   1987e:	3ad10aa3          	sb	a3,949(sp)
   19882:	3ac10b23          	sb	a2,950(sp)
   19886:	0089d613          	srli	a2,s3,0x8
   1988a:	3aa11823          	sh	a0,944(sp)
   1988e:	3ab10923          	sb	a1,946(sp)
   19892:	3b3109a3          	sb	s3,947(sp)
   19896:	3ac10a23          	sb	a2,948(sp)
   1989a:	3b710513          	addi	a0,sp,951
   1989e:	6585                	lui	a1,0x1
   198a0:	34058593          	addi	a1,a1,832 # 1340 <.Lline_table_start1+0x1115>
   198a4:	958a                	add	a1,a1,sp
   198a6:	04900613          	li	a2,73
   198aa:	00003097          	auipc	ra,0x3
   198ae:	486080e7          	jalr	1158(ra) # 1cd30 <memcpy>
   198b2:	6505                	lui	a0,0x1
   198b4:	39c50513          	addi	a0,a0,924 # 139c <.Lline_table_start1+0x1171>
   198b8:	950a                	add	a0,a0,sp
   198ba:	1f0c                	addi	a1,sp,944
   198bc:	ffff8097          	auipc	ra,0xffff8
   198c0:	98a080e7          	jalr	-1654(ra) # 11246 <_ZN18complex_no_dynamic3app17h00d9266d05c7cc31E>
   198c4:	3ec94403          	lbu	s0,1004(s2)
   198c8:	c401                	beqz	s0,198d0 <_start+0x1660>
   198ca:	3f092983          	lw	s3,1008(s2)
   198ce:	a835                	j	1990a <_start+0x169a>
   198d0:	3ee94503          	lbu	a0,1006(s2)
   198d4:	3ed94583          	lbu	a1,1005(s2)
   198d8:	3ef94603          	lbu	a2,1007(s2)
   198dc:	3f092983          	lw	s3,1008(s2)
   198e0:	0522                	slli	a0,a0,0x8
   198e2:	8d4d                	or	a0,a0,a1
   198e4:	02a11223          	sh	a0,36(sp)
   198e8:	02c10323          	sb	a2,38(sp)
   198ec:	6505                	lui	a0,0x1
   198ee:	3a450513          	addi	a0,a0,932 # 13a4 <.Lline_table_start1+0x1179>
   198f2:	00a105b3          	add	a1,sp,a0
   198f6:	6505                	lui	a0,0x1
   198f8:	34050513          	addi	a0,a0,832 # 1340 <.Lline_table_start1+0x1115>
   198fc:	950a                	add	a0,a0,sp
   198fe:	03500613          	li	a2,53
   19902:	00003097          	auipc	ra,0x3
   19906:	42e080e7          	jalr	1070(ra) # 1cd30 <memcpy>
   1990a:	c019                	beqz	s0,19910 <_start+0x16a0>
   1990c:	3080306f          	j	1cc14 <_start+0x49a4>
   19910:	02411503          	lh	a0,36(sp)
   19914:	02614583          	lbu	a1,38(sp)
   19918:	0189d613          	srli	a2,s3,0x18
   1991c:	0109d693          	srli	a3,s3,0x10
   19920:	40d102a3          	sb	a3,1029(sp)
   19924:	40c10323          	sb	a2,1030(sp)
   19928:	0089d613          	srli	a2,s3,0x8
   1992c:	40a11023          	sh	a0,1024(sp)
   19930:	40b10123          	sb	a1,1026(sp)
   19934:	413101a3          	sb	s3,1027(sp)
   19938:	40c10223          	sb	a2,1028(sp)
   1993c:	40710513          	addi	a0,sp,1031
   19940:	6585                	lui	a1,0x1
   19942:	34058593          	addi	a1,a1,832 # 1340 <.Lline_table_start1+0x1115>
   19946:	958a                	add	a1,a1,sp
   19948:	03500613          	li	a2,53
   1994c:	00003097          	auipc	ra,0x3
   19950:	3e4080e7          	jalr	996(ra) # 1cd30 <memcpy>
   19954:	6505                	lui	a0,0x1
   19956:	39c50513          	addi	a0,a0,924 # 139c <.Lline_table_start1+0x1171>
   1995a:	950a                	add	a0,a0,sp
   1995c:	40010593          	addi	a1,sp,1024
   19960:	ffffe097          	auipc	ra,0xffffe
   19964:	938080e7          	jalr	-1736(ra) # 17298 <_ZN18complex_no_dynamic3app17he886bd602911864cE>
   19968:	3ec94403          	lbu	s0,1004(s2)
   1996c:	c401                	beqz	s0,19974 <_start+0x1704>
   1996e:	3f092983          	lw	s3,1008(s2)
   19972:	a835                	j	199ae <_start+0x173e>
   19974:	3ee94503          	lbu	a0,1006(s2)
   19978:	3ed94583          	lbu	a1,1005(s2)
   1997c:	3ef94603          	lbu	a2,1007(s2)
   19980:	3f092983          	lw	s3,1008(s2)
   19984:	0522                	slli	a0,a0,0x8
   19986:	8d4d                	or	a0,a0,a1
   19988:	02a11223          	sh	a0,36(sp)
   1998c:	02c10323          	sb	a2,38(sp)
   19990:	6505                	lui	a0,0x1
   19992:	3a450513          	addi	a0,a0,932 # 13a4 <.Lline_table_start1+0x1179>
   19996:	00a105b3          	add	a1,sp,a0
   1999a:	6505                	lui	a0,0x1
   1999c:	34050513          	addi	a0,a0,832 # 1340 <.Lline_table_start1+0x1115>
   199a0:	950a                	add	a0,a0,sp
   199a2:	02b00613          	li	a2,43
   199a6:	00003097          	auipc	ra,0x3
   199aa:	38a080e7          	jalr	906(ra) # 1cd30 <memcpy>
   199ae:	c019                	beqz	s0,199b4 <_start+0x1744>
   199b0:	2640306f          	j	1cc14 <_start+0x49a4>
   199b4:	02411503          	lh	a0,36(sp)
   199b8:	02614583          	lbu	a1,38(sp)
   199bc:	0189d613          	srli	a2,s3,0x18
   199c0:	0109d693          	srli	a3,s3,0x10
   199c4:	44d100a3          	sb	a3,1089(sp)
   199c8:	44c10123          	sb	a2,1090(sp)
   199cc:	0089d613          	srli	a2,s3,0x8
   199d0:	42a11e23          	sh	a0,1084(sp)
   199d4:	42b10f23          	sb	a1,1086(sp)
   199d8:	43310fa3          	sb	s3,1087(sp)
   199dc:	44c10023          	sb	a2,1088(sp)
   199e0:	44310513          	addi	a0,sp,1091
   199e4:	6585                	lui	a1,0x1
   199e6:	34058593          	addi	a1,a1,832 # 1340 <.Lline_table_start1+0x1115>
   199ea:	958a                	add	a1,a1,sp
   199ec:	02b00613          	li	a2,43
   199f0:	00003097          	auipc	ra,0x3
   199f4:	340080e7          	jalr	832(ra) # 1cd30 <memcpy>
   199f8:	6505                	lui	a0,0x1
   199fa:	39c50513          	addi	a0,a0,924 # 139c <.Lline_table_start1+0x1171>
   199fe:	950a                	add	a0,a0,sp
   19a00:	43c10593          	addi	a1,sp,1084
   19a04:	ffff8097          	auipc	ra,0xffff8
   19a08:	94a080e7          	jalr	-1718(ra) # 1134e <_ZN18complex_no_dynamic3app17h00e0576852cb53daE>
   19a0c:	3ec94403          	lbu	s0,1004(s2)
   19a10:	c401                	beqz	s0,19a18 <_start+0x17a8>
   19a12:	3f092983          	lw	s3,1008(s2)
   19a16:	a835                	j	19a52 <_start+0x17e2>
   19a18:	3ee94503          	lbu	a0,1006(s2)
   19a1c:	3ed94583          	lbu	a1,1005(s2)
   19a20:	3ef94603          	lbu	a2,1007(s2)
   19a24:	3f092983          	lw	s3,1008(s2)
   19a28:	0522                	slli	a0,a0,0x8
   19a2a:	8d4d                	or	a0,a0,a1
   19a2c:	02a11223          	sh	a0,36(sp)
   19a30:	02c10323          	sb	a2,38(sp)
   19a34:	6505                	lui	a0,0x1
   19a36:	3a450513          	addi	a0,a0,932 # 13a4 <.Lline_table_start1+0x1179>
   19a3a:	00a105b3          	add	a1,sp,a0
   19a3e:	6505                	lui	a0,0x1
   19a40:	34050513          	addi	a0,a0,832 # 1340 <.Lline_table_start1+0x1115>
   19a44:	950a                	add	a0,a0,sp
   19a46:	02b00613          	li	a2,43
   19a4a:	00003097          	auipc	ra,0x3
   19a4e:	2e6080e7          	jalr	742(ra) # 1cd30 <memcpy>
   19a52:	c019                	beqz	s0,19a58 <_start+0x17e8>
   19a54:	1c00306f          	j	1cc14 <_start+0x49a4>
   19a58:	02411503          	lh	a0,36(sp)
   19a5c:	02614583          	lbu	a1,38(sp)
   19a60:	0189d613          	srli	a2,s3,0x18
   19a64:	0109d693          	srli	a3,s3,0x10
   19a68:	46d109a3          	sb	a3,1139(sp)
   19a6c:	46c10a23          	sb	a2,1140(sp)
   19a70:	0089d613          	srli	a2,s3,0x8
   19a74:	46a11723          	sh	a0,1134(sp)
   19a78:	46b10823          	sb	a1,1136(sp)
   19a7c:	473108a3          	sb	s3,1137(sp)
   19a80:	46c10923          	sb	a2,1138(sp)
   19a84:	47510513          	addi	a0,sp,1141
   19a88:	6585                	lui	a1,0x1
   19a8a:	34058593          	addi	a1,a1,832 # 1340 <.Lline_table_start1+0x1115>
   19a8e:	958a                	add	a1,a1,sp
   19a90:	02b00613          	li	a2,43
   19a94:	00003097          	auipc	ra,0x3
   19a98:	29c080e7          	jalr	668(ra) # 1cd30 <memcpy>
   19a9c:	6505                	lui	a0,0x1
   19a9e:	39c50513          	addi	a0,a0,924 # 139c <.Lline_table_start1+0x1171>
   19aa2:	950a                	add	a0,a0,sp
   19aa4:	46e10593          	addi	a1,sp,1134
   19aa8:	ffffd097          	auipc	ra,0xffffd
   19aac:	4ec080e7          	jalr	1260(ra) # 16f94 <_ZN18complex_no_dynamic3app17hd37610763e488e4aE>
   19ab0:	3ec94503          	lbu	a0,1004(s2)
   19ab4:	c501                	beqz	a0,19abc <_start+0x184c>
   19ab6:	3f092983          	lw	s3,1008(s2)
   19aba:	a81d                	j	19af0 <_start+0x1880>
   19abc:	3ee94583          	lbu	a1,1006(s2)
   19ac0:	3ed94603          	lbu	a2,1005(s2)
   19ac4:	3ef94683          	lbu	a3,1007(s2)
   19ac8:	3f092983          	lw	s3,1008(s2)
   19acc:	05a2                	slli	a1,a1,0x8
   19ace:	8dd1                	or	a1,a1,a2
   19ad0:	3f492603          	lw	a2,1012(s2)
   19ad4:	3f892703          	lw	a4,1016(s2)
   19ad8:	3fc94783          	lbu	a5,1020(s2)
   19adc:	02b11223          	sh	a1,36(sp)
   19ae0:	02d10323          	sb	a3,38(sp)
   19ae4:	38c92823          	sw	a2,912(s2)
   19ae8:	38e92a23          	sw	a4,916(s2)
   19aec:	38f90c23          	sb	a5,920(s2)
   19af0:	c119                	beqz	a0,19af6 <_start+0x1886>
   19af2:	1220306f          	j	1cc14 <_start+0x49a4>
   19af6:	02411503          	lh	a0,36(sp)
   19afa:	02614583          	lbu	a1,38(sp)
   19afe:	0189d613          	srli	a2,s3,0x18
   19b02:	0109d693          	srli	a3,s3,0x10
   19b06:	4ad102a3          	sb	a3,1189(sp)
   19b0a:	4ac10323          	sb	a2,1190(sp)
   19b0e:	0089d613          	srli	a2,s3,0x8
   19b12:	4aa11023          	sh	a0,1184(sp)
   19b16:	4ab10123          	sb	a1,1186(sp)
   19b1a:	4b3101a3          	sb	s3,1187(sp)
   19b1e:	4ac10223          	sb	a2,1188(sp)
   19b22:	4a710513          	addi	a0,sp,1191
   19b26:	6585                	lui	a1,0x1
   19b28:	34058593          	addi	a1,a1,832 # 1340 <.Lline_table_start1+0x1115>
   19b2c:	958a                	add	a1,a1,sp
   19b2e:	4625                	li	a2,9
   19b30:	00003097          	auipc	ra,0x3
   19b34:	200080e7          	jalr	512(ra) # 1cd30 <memcpy>
   19b38:	6505                	lui	a0,0x1
   19b3a:	39c50513          	addi	a0,a0,924 # 139c <.Lline_table_start1+0x1171>
   19b3e:	950a                	add	a0,a0,sp
   19b40:	4a010593          	addi	a1,sp,1184
   19b44:	ffffc097          	auipc	ra,0xffffc
   19b48:	11e080e7          	jalr	286(ra) # 15c62 <_ZN18complex_no_dynamic3app17ha087d85ce41a00b9E>
   19b4c:	3ec94403          	lbu	s0,1004(s2)
   19b50:	c401                	beqz	s0,19b58 <_start+0x18e8>
   19b52:	3f092983          	lw	s3,1008(s2)
   19b56:	a835                	j	19b92 <_start+0x1922>
   19b58:	3ee94503          	lbu	a0,1006(s2)
   19b5c:	3ed94583          	lbu	a1,1005(s2)
   19b60:	3ef94603          	lbu	a2,1007(s2)
   19b64:	3f092983          	lw	s3,1008(s2)
   19b68:	0522                	slli	a0,a0,0x8
   19b6a:	8d4d                	or	a0,a0,a1
   19b6c:	02a11223          	sh	a0,36(sp)
   19b70:	02c10323          	sb	a2,38(sp)
   19b74:	6505                	lui	a0,0x1
   19b76:	3a450513          	addi	a0,a0,932 # 13a4 <.Lline_table_start1+0x1179>
   19b7a:	00a105b3          	add	a1,sp,a0
   19b7e:	6505                	lui	a0,0x1
   19b80:	34050513          	addi	a0,a0,832 # 1340 <.Lline_table_start1+0x1115>
   19b84:	950a                	add	a0,a0,sp
   19b86:	02f00613          	li	a2,47
   19b8a:	00003097          	auipc	ra,0x3
   19b8e:	1a6080e7          	jalr	422(ra) # 1cd30 <memcpy>
   19b92:	c019                	beqz	s0,19b98 <_start+0x1928>
   19b94:	0800306f          	j	1cc14 <_start+0x49a4>
   19b98:	02411503          	lh	a0,36(sp)
   19b9c:	02614583          	lbu	a1,38(sp)
   19ba0:	0189d613          	srli	a2,s3,0x18
   19ba4:	0109d693          	srli	a3,s3,0x10
   19ba8:	4ad10aa3          	sb	a3,1205(sp)
   19bac:	4ac10b23          	sb	a2,1206(sp)
   19bb0:	0089d613          	srli	a2,s3,0x8
   19bb4:	4aa11823          	sh	a0,1200(sp)
   19bb8:	4ab10923          	sb	a1,1202(sp)
   19bbc:	4b3109a3          	sb	s3,1203(sp)
   19bc0:	4ac10a23          	sb	a2,1204(sp)
   19bc4:	4b710513          	addi	a0,sp,1207
   19bc8:	6585                	lui	a1,0x1
   19bca:	34058593          	addi	a1,a1,832 # 1340 <.Lline_table_start1+0x1115>
   19bce:	958a                	add	a1,a1,sp
   19bd0:	02f00613          	li	a2,47
   19bd4:	00003097          	auipc	ra,0x3
   19bd8:	15c080e7          	jalr	348(ra) # 1cd30 <memcpy>
   19bdc:	6505                	lui	a0,0x1
   19bde:	39c50513          	addi	a0,a0,924 # 139c <.Lline_table_start1+0x1171>
   19be2:	950a                	add	a0,a0,sp
   19be4:	4b010593          	addi	a1,sp,1200
   19be8:	ffffb097          	auipc	ra,0xffffb
   19bec:	f38080e7          	jalr	-200(ra) # 14b20 <_ZN18complex_no_dynamic3app17h7c7a040f7e7cd2ceE>
   19bf0:	3ec94603          	lbu	a2,1004(s2)
   19bf4:	c601                	beqz	a2,19bfc <_start+0x198c>
   19bf6:	3f092983          	lw	s3,1008(s2)
   19bfa:	a01d                	j	19c20 <_start+0x19b0>
   19bfc:	3ed94683          	lbu	a3,1005(s2)
   19c00:	3ee94703          	lbu	a4,1006(s2)
   19c04:	3ef94783          	lbu	a5,1007(s2)
   19c08:	3f092983          	lw	s3,1008(s2)
   19c0c:	3f492583          	lw	a1,1012(s2)
   19c10:	3f892503          	lw	a0,1016(s2)
   19c14:	0722                	slli	a4,a4,0x8
   19c16:	8ed9                	or	a3,a3,a4
   19c18:	38d91823          	sh	a3,912(s2)
   19c1c:	38f90923          	sb	a5,914(s2)
   19c20:	c219                	beqz	a2,19c26 <_start+0x19b6>
   19c22:	7f30206f          	j	1cc14 <_start+0x49a4>
   19c26:	39091803          	lh	a6,912(s2)
   19c2a:	39294683          	lbu	a3,914(s2)
   19c2e:	0189d713          	srli	a4,s3,0x18
   19c32:	0109d793          	srli	a5,s3,0x10
   19c36:	0089d493          	srli	s1,s3,0x8
   19c3a:	0085d413          	srli	s0,a1,0x8
   19c3e:	01855613          	srli	a2,a0,0x18
   19c42:	4ef105a3          	sb	a5,1259(sp)
   19c46:	4ee10623          	sb	a4,1260(sp)
   19c4a:	4eb106a3          	sb	a1,1261(sp)
   19c4e:	4e810723          	sb	s0,1262(sp)
   19c52:	01055713          	srli	a4,a0,0x10
   19c56:	4ee109a3          	sb	a4,1267(sp)
   19c5a:	4ec10a23          	sb	a2,1268(sp)
   19c5e:	0185d613          	srli	a2,a1,0x18
   19c62:	81c1                	srli	a1,a1,0x10
   19c64:	4f011323          	sh	a6,1254(sp)
   19c68:	4ed10423          	sb	a3,1256(sp)
   19c6c:	4f3104a3          	sb	s3,1257(sp)
   19c70:	4e910523          	sb	s1,1258(sp)
   19c74:	00855693          	srli	a3,a0,0x8
   19c78:	4eb107a3          	sb	a1,1263(sp)
   19c7c:	4ec10823          	sb	a2,1264(sp)
   19c80:	4ea108a3          	sb	a0,1265(sp)
   19c84:	4ed10923          	sb	a3,1266(sp)
   19c88:	6505                	lui	a0,0x1
   19c8a:	39c50513          	addi	a0,a0,924 # 139c <.Lline_table_start1+0x1171>
   19c8e:	950a                	add	a0,a0,sp
   19c90:	4e610593          	addi	a1,sp,1254
   19c94:	ffffd097          	auipc	ra,0xffffd
   19c98:	a7e080e7          	jalr	-1410(ra) # 16712 <_ZN18complex_no_dynamic3app17hc490b6c50fc769f7E>
   19c9c:	3ec94503          	lbu	a0,1004(s2)
   19ca0:	c501                	beqz	a0,19ca8 <_start+0x1a38>
   19ca2:	3f092983          	lw	s3,1008(s2)
   19ca6:	a81d                	j	19cdc <_start+0x1a6c>
   19ca8:	3ee94583          	lbu	a1,1006(s2)
   19cac:	3ed94603          	lbu	a2,1005(s2)
   19cb0:	3ef94683          	lbu	a3,1007(s2)
   19cb4:	3f092983          	lw	s3,1008(s2)
   19cb8:	05a2                	slli	a1,a1,0x8
   19cba:	8dd1                	or	a1,a1,a2
   19cbc:	3f492603          	lw	a2,1012(s2)
   19cc0:	3f892703          	lw	a4,1016(s2)
   19cc4:	3fc92783          	lw	a5,1020(s2)
   19cc8:	02b11223          	sh	a1,36(sp)
   19ccc:	02d10323          	sb	a3,38(sp)
   19cd0:	38c92823          	sw	a2,912(s2)
   19cd4:	38e92a23          	sw	a4,916(s2)
   19cd8:	38f92c23          	sw	a5,920(s2)
   19cdc:	c119                	beqz	a0,19ce2 <_start+0x1a72>
   19cde:	7370206f          	j	1cc14 <_start+0x49a4>
   19ce2:	02411503          	lh	a0,36(sp)
   19ce6:	02614583          	lbu	a1,38(sp)
   19cea:	0189d613          	srli	a2,s3,0x18
   19cee:	0109d693          	srli	a3,s3,0x10
   19cf2:	4ed10da3          	sb	a3,1275(sp)
   19cf6:	4ec10e23          	sb	a2,1276(sp)
   19cfa:	0089d613          	srli	a2,s3,0x8
   19cfe:	4ea11b23          	sh	a0,1270(sp)
   19d02:	4eb10c23          	sb	a1,1272(sp)
   19d06:	4f310ca3          	sb	s3,1273(sp)
   19d0a:	4ec10d23          	sb	a2,1274(sp)
   19d0e:	4fd10513          	addi	a0,sp,1277
   19d12:	6585                	lui	a1,0x1
   19d14:	34058593          	addi	a1,a1,832 # 1340 <.Lline_table_start1+0x1115>
   19d18:	958a                	add	a1,a1,sp
   19d1a:	4631                	li	a2,12
   19d1c:	00003097          	auipc	ra,0x3
   19d20:	014080e7          	jalr	20(ra) # 1cd30 <memcpy>
   19d24:	6505                	lui	a0,0x1
   19d26:	39c50513          	addi	a0,a0,924 # 139c <.Lline_table_start1+0x1171>
   19d2a:	950a                	add	a0,a0,sp
   19d2c:	4f610593          	addi	a1,sp,1270
   19d30:	ffff8097          	auipc	ra,0xffff8
   19d34:	840080e7          	jalr	-1984(ra) # 11570 <_ZN18complex_no_dynamic3app17h05e9e40661042985E>
   19d38:	3ec94403          	lbu	s0,1004(s2)
   19d3c:	c401                	beqz	s0,19d44 <_start+0x1ad4>
   19d3e:	3f092983          	lw	s3,1008(s2)
   19d42:	a835                	j	19d7e <_start+0x1b0e>
   19d44:	3ee94503          	lbu	a0,1006(s2)
   19d48:	3ed94583          	lbu	a1,1005(s2)
   19d4c:	3ef94603          	lbu	a2,1007(s2)
   19d50:	3f092983          	lw	s3,1008(s2)
   19d54:	0522                	slli	a0,a0,0x8
   19d56:	8d4d                	or	a0,a0,a1
   19d58:	02a11223          	sh	a0,36(sp)
   19d5c:	02c10323          	sb	a2,38(sp)
   19d60:	6505                	lui	a0,0x1
   19d62:	3a450513          	addi	a0,a0,932 # 13a4 <.Lline_table_start1+0x1179>
   19d66:	00a105b3          	add	a1,sp,a0
   19d6a:	6505                	lui	a0,0x1
   19d6c:	34050513          	addi	a0,a0,832 # 1340 <.Lline_table_start1+0x1115>
   19d70:	950a                	add	a0,a0,sp
   19d72:	04e00613          	li	a2,78
   19d76:	00003097          	auipc	ra,0x3
   19d7a:	fba080e7          	jalr	-70(ra) # 1cd30 <memcpy>
   19d7e:	c019                	beqz	s0,19d84 <_start+0x1b14>
   19d80:	6950206f          	j	1cc14 <_start+0x49a4>
   19d84:	02411503          	lh	a0,36(sp)
   19d88:	02614583          	lbu	a1,38(sp)
   19d8c:	0189d613          	srli	a2,s3,0x18
   19d90:	0109d693          	srli	a3,s3,0x10
   19d94:	50d107a3          	sb	a3,1295(sp)
   19d98:	50c10823          	sb	a2,1296(sp)
   19d9c:	0089d613          	srli	a2,s3,0x8
   19da0:	50a11523          	sh	a0,1290(sp)
   19da4:	50b10623          	sb	a1,1292(sp)
   19da8:	513106a3          	sb	s3,1293(sp)
   19dac:	50c10723          	sb	a2,1294(sp)
   19db0:	51110513          	addi	a0,sp,1297
   19db4:	6585                	lui	a1,0x1
   19db6:	34058593          	addi	a1,a1,832 # 1340 <.Lline_table_start1+0x1115>
   19dba:	958a                	add	a1,a1,sp
   19dbc:	04e00613          	li	a2,78
   19dc0:	00003097          	auipc	ra,0x3
   19dc4:	f70080e7          	jalr	-144(ra) # 1cd30 <memcpy>
   19dc8:	6505                	lui	a0,0x1
   19dca:	39c50513          	addi	a0,a0,924 # 139c <.Lline_table_start1+0x1171>
   19dce:	950a                	add	a0,a0,sp
   19dd0:	50a10593          	addi	a1,sp,1290
   19dd4:	ffff7097          	auipc	ra,0xffff7
   19dd8:	360080e7          	jalr	864(ra) # 11134 <_ZN18complex_no_dynamic3app17h0048fe176af6b0b7E>
   19ddc:	3ec94403          	lbu	s0,1004(s2)
   19de0:	c401                	beqz	s0,19de8 <_start+0x1b78>
   19de2:	3f092983          	lw	s3,1008(s2)
   19de6:	a835                	j	19e22 <_start+0x1bb2>
   19de8:	3ee94503          	lbu	a0,1006(s2)
   19dec:	3ed94583          	lbu	a1,1005(s2)
   19df0:	3ef94603          	lbu	a2,1007(s2)
   19df4:	3f092983          	lw	s3,1008(s2)
   19df8:	0522                	slli	a0,a0,0x8
   19dfa:	8d4d                	or	a0,a0,a1
   19dfc:	02a11223          	sh	a0,36(sp)
   19e00:	02c10323          	sb	a2,38(sp)
   19e04:	6505                	lui	a0,0x1
   19e06:	3a450513          	addi	a0,a0,932 # 13a4 <.Lline_table_start1+0x1179>
   19e0a:	00a105b3          	add	a1,sp,a0
   19e0e:	6505                	lui	a0,0x1
   19e10:	34050513          	addi	a0,a0,832 # 1340 <.Lline_table_start1+0x1115>
   19e14:	950a                	add	a0,a0,sp
   19e16:	02b00613          	li	a2,43
   19e1a:	00003097          	auipc	ra,0x3
   19e1e:	f16080e7          	jalr	-234(ra) # 1cd30 <memcpy>
   19e22:	c019                	beqz	s0,19e28 <_start+0x1bb8>
   19e24:	5f10206f          	j	1cc14 <_start+0x49a4>
   19e28:	02411503          	lh	a0,36(sp)
   19e2c:	02614583          	lbu	a1,38(sp)
   19e30:	0189d613          	srli	a2,s3,0x18
   19e34:	0109d693          	srli	a3,s3,0x10
   19e38:	56d102a3          	sb	a3,1381(sp)
   19e3c:	56c10323          	sb	a2,1382(sp)
   19e40:	0089d613          	srli	a2,s3,0x8
   19e44:	56a11023          	sh	a0,1376(sp)
   19e48:	56b10123          	sb	a1,1378(sp)
   19e4c:	573101a3          	sb	s3,1379(sp)
   19e50:	56c10223          	sb	a2,1380(sp)
   19e54:	56710513          	addi	a0,sp,1383
   19e58:	6585                	lui	a1,0x1
   19e5a:	34058593          	addi	a1,a1,832 # 1340 <.Lline_table_start1+0x1115>
   19e5e:	958a                	add	a1,a1,sp
   19e60:	02b00613          	li	a2,43
   19e64:	00003097          	auipc	ra,0x3
   19e68:	ecc080e7          	jalr	-308(ra) # 1cd30 <memcpy>
   19e6c:	6505                	lui	a0,0x1
   19e6e:	39c50513          	addi	a0,a0,924 # 139c <.Lline_table_start1+0x1171>
   19e72:	950a                	add	a0,a0,sp
   19e74:	56010593          	addi	a1,sp,1376
   19e78:	ffff9097          	auipc	ra,0xffff9
   19e7c:	b86080e7          	jalr	-1146(ra) # 129fe <_ZN18complex_no_dynamic3app17h2e6454ebd0c035e7E>
   19e80:	3ec94403          	lbu	s0,1004(s2)
   19e84:	c401                	beqz	s0,19e8c <_start+0x1c1c>
   19e86:	3f092983          	lw	s3,1008(s2)
   19e8a:	a835                	j	19ec6 <_start+0x1c56>
   19e8c:	3ee94503          	lbu	a0,1006(s2)
   19e90:	3ed94583          	lbu	a1,1005(s2)
   19e94:	3ef94603          	lbu	a2,1007(s2)
   19e98:	3f092983          	lw	s3,1008(s2)
   19e9c:	0522                	slli	a0,a0,0x8
   19e9e:	8d4d                	or	a0,a0,a1
   19ea0:	02a11223          	sh	a0,36(sp)
   19ea4:	02c10323          	sb	a2,38(sp)
   19ea8:	6505                	lui	a0,0x1
   19eaa:	3a450513          	addi	a0,a0,932 # 13a4 <.Lline_table_start1+0x1179>
   19eae:	00a105b3          	add	a1,sp,a0
   19eb2:	6505                	lui	a0,0x1
   19eb4:	34050513          	addi	a0,a0,832 # 1340 <.Lline_table_start1+0x1115>
   19eb8:	950a                	add	a0,a0,sp
   19eba:	03a00613          	li	a2,58
   19ebe:	00003097          	auipc	ra,0x3
   19ec2:	e72080e7          	jalr	-398(ra) # 1cd30 <memcpy>
   19ec6:	c019                	beqz	s0,19ecc <_start+0x1c5c>
   19ec8:	54d0206f          	j	1cc14 <_start+0x49a4>
   19ecc:	02411503          	lh	a0,36(sp)
   19ed0:	02614583          	lbu	a1,38(sp)
   19ed4:	0189d613          	srli	a2,s3,0x18
   19ed8:	0109d693          	srli	a3,s3,0x10
   19edc:	58d10ba3          	sb	a3,1431(sp)
   19ee0:	58c10c23          	sb	a2,1432(sp)
   19ee4:	0089d613          	srli	a2,s3,0x8
   19ee8:	58a11923          	sh	a0,1426(sp)
   19eec:	58b10a23          	sb	a1,1428(sp)
   19ef0:	59310aa3          	sb	s3,1429(sp)
   19ef4:	58c10b23          	sb	a2,1430(sp)
   19ef8:	59910513          	addi	a0,sp,1433
   19efc:	6585                	lui	a1,0x1
   19efe:	34058593          	addi	a1,a1,832 # 1340 <.Lline_table_start1+0x1115>
   19f02:	958a                	add	a1,a1,sp
   19f04:	03a00613          	li	a2,58
   19f08:	00003097          	auipc	ra,0x3
   19f0c:	e28080e7          	jalr	-472(ra) # 1cd30 <memcpy>
   19f10:	6505                	lui	a0,0x1
   19f12:	39c50513          	addi	a0,a0,924 # 139c <.Lline_table_start1+0x1171>
   19f16:	950a                	add	a0,a0,sp
   19f18:	59210593          	addi	a1,sp,1426
   19f1c:	ffffc097          	auipc	ra,0xffffc
   19f20:	b18080e7          	jalr	-1256(ra) # 15a34 <_ZN18complex_no_dynamic3app17h981c596f56e3c367E>
   19f24:	3ec94503          	lbu	a0,1004(s2)
   19f28:	c501                	beqz	a0,19f30 <_start+0x1cc0>
   19f2a:	3f092983          	lw	s3,1008(s2)
   19f2e:	a8b9                	j	19f8c <_start+0x1d1c>
   19f30:	3ed94583          	lbu	a1,1005(s2)
   19f34:	3ee94603          	lbu	a2,1006(s2)
   19f38:	3ef94683          	lbu	a3,1007(s2)
   19f3c:	3f092983          	lw	s3,1008(s2)
   19f40:	3f492703          	lw	a4,1012(s2)
   19f44:	3f892783          	lw	a5,1016(s2)
   19f48:	3fc92483          	lw	s1,1020(s2)
   19f4c:	40092403          	lw	s0,1024(s2)
   19f50:	0622                	slli	a2,a2,0x8
   19f52:	38e92823          	sw	a4,912(s2)
   19f56:	38f92a23          	sw	a5,916(s2)
   19f5a:	38992c23          	sw	s1,920(s2)
   19f5e:	38892e23          	sw	s0,924(s2)
   19f62:	8dd1                	or	a1,a1,a2
   19f64:	02b11223          	sh	a1,36(sp)
   19f68:	02d10323          	sb	a3,38(sp)
   19f6c:	40492583          	lw	a1,1028(s2)
   19f70:	40892603          	lw	a2,1032(s2)
   19f74:	40c91683          	lh	a3,1036(s2)
   19f78:	40e94703          	lbu	a4,1038(s2)
   19f7c:	3ab92023          	sw	a1,928(s2)
   19f80:	3ac92223          	sw	a2,932(s2)
   19f84:	3ad91423          	sh	a3,936(s2)
   19f88:	3ae90523          	sb	a4,938(s2)
   19f8c:	c119                	beqz	a0,19f92 <_start+0x1d22>
   19f8e:	4870206f          	j	1cc14 <_start+0x49a4>
   19f92:	02411503          	lh	a0,36(sp)
   19f96:	02614583          	lbu	a1,38(sp)
   19f9a:	0189d613          	srli	a2,s3,0x18
   19f9e:	0109d693          	srli	a3,s3,0x10
   19fa2:	5cd10ca3          	sb	a3,1497(sp)
   19fa6:	5cc10d23          	sb	a2,1498(sp)
   19faa:	0089d613          	srli	a2,s3,0x8
   19fae:	5ca11a23          	sh	a0,1492(sp)
   19fb2:	5cb10b23          	sb	a1,1494(sp)
   19fb6:	5d310ba3          	sb	s3,1495(sp)
   19fba:	5cc10c23          	sb	a2,1496(sp)
   19fbe:	5db10513          	addi	a0,sp,1499
   19fc2:	6585                	lui	a1,0x1
   19fc4:	34058593          	addi	a1,a1,832 # 1340 <.Lline_table_start1+0x1115>
   19fc8:	958a                	add	a1,a1,sp
   19fca:	466d                	li	a2,27
   19fcc:	00003097          	auipc	ra,0x3
   19fd0:	d64080e7          	jalr	-668(ra) # 1cd30 <memcpy>
   19fd4:	6505                	lui	a0,0x1
   19fd6:	39c50513          	addi	a0,a0,924 # 139c <.Lline_table_start1+0x1171>
   19fda:	950a                	add	a0,a0,sp
   19fdc:	5d410593          	addi	a1,sp,1492
   19fe0:	ffff9097          	auipc	ra,0xffff9
   19fe4:	f36080e7          	jalr	-202(ra) # 12f16 <_ZN18complex_no_dynamic3app17h432b55e58c9d1aafE>
   19fe8:	3ec94403          	lbu	s0,1004(s2)
   19fec:	c401                	beqz	s0,19ff4 <_start+0x1d84>
   19fee:	3f092983          	lw	s3,1008(s2)
   19ff2:	a835                	j	1a02e <_start+0x1dbe>
   19ff4:	3ee94503          	lbu	a0,1006(s2)
   19ff8:	3ed94583          	lbu	a1,1005(s2)
   19ffc:	3ef94603          	lbu	a2,1007(s2)
   1a000:	3f092983          	lw	s3,1008(s2)
   1a004:	0522                	slli	a0,a0,0x8
   1a006:	8d4d                	or	a0,a0,a1
   1a008:	02a11223          	sh	a0,36(sp)
   1a00c:	02c10323          	sb	a2,38(sp)
   1a010:	6505                	lui	a0,0x1
   1a012:	3a450513          	addi	a0,a0,932 # 13a4 <.Lline_table_start1+0x1179>
   1a016:	00a105b3          	add	a1,sp,a0
   1a01a:	6505                	lui	a0,0x1
   1a01c:	34050513          	addi	a0,a0,832 # 1340 <.Lline_table_start1+0x1115>
   1a020:	950a                	add	a0,a0,sp
   1a022:	04a00613          	li	a2,74
   1a026:	00003097          	auipc	ra,0x3
   1a02a:	d0a080e7          	jalr	-758(ra) # 1cd30 <memcpy>
   1a02e:	c019                	beqz	s0,1a034 <_start+0x1dc4>
   1a030:	3e50206f          	j	1cc14 <_start+0x49a4>
   1a034:	02411503          	lh	a0,36(sp)
   1a038:	02614583          	lbu	a1,38(sp)
   1a03c:	0189d613          	srli	a2,s3,0x18
   1a040:	0109d693          	srli	a3,s3,0x10
   1a044:	5ed10da3          	sb	a3,1531(sp)
   1a048:	5ec10e23          	sb	a2,1532(sp)
   1a04c:	0089d613          	srli	a2,s3,0x8
   1a050:	5ea11b23          	sh	a0,1526(sp)
   1a054:	5eb10c23          	sb	a1,1528(sp)
   1a058:	5f310ca3          	sb	s3,1529(sp)
   1a05c:	5ec10d23          	sb	a2,1530(sp)
   1a060:	5fd10513          	addi	a0,sp,1533
   1a064:	6585                	lui	a1,0x1
   1a066:	34058593          	addi	a1,a1,832 # 1340 <.Lline_table_start1+0x1115>
   1a06a:	958a                	add	a1,a1,sp
   1a06c:	04a00613          	li	a2,74
   1a070:	00003097          	auipc	ra,0x3
   1a074:	cc0080e7          	jalr	-832(ra) # 1cd30 <memcpy>
   1a078:	6505                	lui	a0,0x1
   1a07a:	39c50513          	addi	a0,a0,924 # 139c <.Lline_table_start1+0x1171>
   1a07e:	950a                	add	a0,a0,sp
   1a080:	5f610593          	addi	a1,sp,1526
   1a084:	ffffa097          	auipc	ra,0xffffa
   1a088:	a56080e7          	jalr	-1450(ra) # 13ada <_ZN18complex_no_dynamic3app17h64cc0a1688e683e5E>
   1a08c:	3ec94403          	lbu	s0,1004(s2)
   1a090:	c401                	beqz	s0,1a098 <_start+0x1e28>
   1a092:	3f092983          	lw	s3,1008(s2)
   1a096:	a835                	j	1a0d2 <_start+0x1e62>
   1a098:	3ee94503          	lbu	a0,1006(s2)
   1a09c:	3ed94583          	lbu	a1,1005(s2)
   1a0a0:	3ef94603          	lbu	a2,1007(s2)
   1a0a4:	3f092983          	lw	s3,1008(s2)
   1a0a8:	0522                	slli	a0,a0,0x8
   1a0aa:	8d4d                	or	a0,a0,a1
   1a0ac:	02a11223          	sh	a0,36(sp)
   1a0b0:	02c10323          	sb	a2,38(sp)
   1a0b4:	6505                	lui	a0,0x1
   1a0b6:	3a450513          	addi	a0,a0,932 # 13a4 <.Lline_table_start1+0x1179>
   1a0ba:	00a105b3          	add	a1,sp,a0
   1a0be:	6505                	lui	a0,0x1
   1a0c0:	34050513          	addi	a0,a0,832 # 1340 <.Lline_table_start1+0x1115>
   1a0c4:	950a                	add	a0,a0,sp
   1a0c6:	04800613          	li	a2,72
   1a0ca:	00003097          	auipc	ra,0x3
   1a0ce:	c66080e7          	jalr	-922(ra) # 1cd30 <memcpy>
   1a0d2:	c019                	beqz	s0,1a0d8 <_start+0x1e68>
   1a0d4:	3410206f          	j	1cc14 <_start+0x49a4>
   1a0d8:	02411503          	lh	a0,36(sp)
   1a0dc:	02614583          	lbu	a1,38(sp)
   1a0e0:	0189d613          	srli	a2,s3,0x18
   1a0e4:	0109d693          	srli	a3,s3,0x10
   1a0e8:	64d106a3          	sb	a3,1613(sp)
   1a0ec:	64c10723          	sb	a2,1614(sp)
   1a0f0:	0089d613          	srli	a2,s3,0x8
   1a0f4:	64a11423          	sh	a0,1608(sp)
   1a0f8:	64b10523          	sb	a1,1610(sp)
   1a0fc:	653105a3          	sb	s3,1611(sp)
   1a100:	64c10623          	sb	a2,1612(sp)
   1a104:	64f10513          	addi	a0,sp,1615
   1a108:	6585                	lui	a1,0x1
   1a10a:	34058593          	addi	a1,a1,832 # 1340 <.Lline_table_start1+0x1115>
   1a10e:	958a                	add	a1,a1,sp
   1a110:	04800613          	li	a2,72
   1a114:	00003097          	auipc	ra,0x3
   1a118:	c1c080e7          	jalr	-996(ra) # 1cd30 <memcpy>
   1a11c:	6505                	lui	a0,0x1
   1a11e:	39c50513          	addi	a0,a0,924 # 139c <.Lline_table_start1+0x1171>
   1a122:	950a                	add	a0,a0,sp
   1a124:	64810593          	addi	a1,sp,1608
   1a128:	ffffc097          	auipc	ra,0xffffc
   1a12c:	dd2080e7          	jalr	-558(ra) # 15efa <_ZN18complex_no_dynamic3app17ha54e3e8686117ed9E>
   1a130:	3ec94403          	lbu	s0,1004(s2)
   1a134:	c401                	beqz	s0,1a13c <_start+0x1ecc>
   1a136:	3f092983          	lw	s3,1008(s2)
   1a13a:	a835                	j	1a176 <_start+0x1f06>
   1a13c:	3ee94503          	lbu	a0,1006(s2)
   1a140:	3ed94583          	lbu	a1,1005(s2)
   1a144:	3ef94603          	lbu	a2,1007(s2)
   1a148:	3f092983          	lw	s3,1008(s2)
   1a14c:	0522                	slli	a0,a0,0x8
   1a14e:	8d4d                	or	a0,a0,a1
   1a150:	02a11223          	sh	a0,36(sp)
   1a154:	02c10323          	sb	a2,38(sp)
   1a158:	6505                	lui	a0,0x1
   1a15a:	3a450513          	addi	a0,a0,932 # 13a4 <.Lline_table_start1+0x1179>
   1a15e:	00a105b3          	add	a1,sp,a0
   1a162:	6505                	lui	a0,0x1
   1a164:	34050513          	addi	a0,a0,832 # 1340 <.Lline_table_start1+0x1115>
   1a168:	950a                	add	a0,a0,sp
   1a16a:	03400613          	li	a2,52
   1a16e:	00003097          	auipc	ra,0x3
   1a172:	bc2080e7          	jalr	-1086(ra) # 1cd30 <memcpy>
   1a176:	c019                	beqz	s0,1a17c <_start+0x1f0c>
   1a178:	29d0206f          	j	1cc14 <_start+0x49a4>
   1a17c:	02411503          	lh	a0,36(sp)
   1a180:	02614583          	lbu	a1,38(sp)
   1a184:	0189d613          	srli	a2,s3,0x18
   1a188:	0109d693          	srli	a3,s3,0x10
   1a18c:	68d10ea3          	sb	a3,1693(sp)
   1a190:	68c10f23          	sb	a2,1694(sp)
   1a194:	0089d613          	srli	a2,s3,0x8
   1a198:	68a11c23          	sh	a0,1688(sp)
   1a19c:	68b10d23          	sb	a1,1690(sp)
   1a1a0:	69310da3          	sb	s3,1691(sp)
   1a1a4:	68c10e23          	sb	a2,1692(sp)
   1a1a8:	69f10513          	addi	a0,sp,1695
   1a1ac:	6585                	lui	a1,0x1
   1a1ae:	34058593          	addi	a1,a1,832 # 1340 <.Lline_table_start1+0x1115>
   1a1b2:	958a                	add	a1,a1,sp
   1a1b4:	03400613          	li	a2,52
   1a1b8:	00003097          	auipc	ra,0x3
   1a1bc:	b78080e7          	jalr	-1160(ra) # 1cd30 <memcpy>
   1a1c0:	6505                	lui	a0,0x1
   1a1c2:	39c50513          	addi	a0,a0,924 # 139c <.Lline_table_start1+0x1171>
   1a1c6:	950a                	add	a0,a0,sp
   1a1c8:	69810593          	addi	a1,sp,1688
   1a1cc:	ffffc097          	auipc	ra,0xffffc
   1a1d0:	c1c080e7          	jalr	-996(ra) # 15de8 <_ZN18complex_no_dynamic3app17ha26ffdc8b4794925E>
   1a1d4:	3ec94503          	lbu	a0,1004(s2)
   1a1d8:	c501                	beqz	a0,1a1e0 <_start+0x1f70>
   1a1da:	3f092983          	lw	s3,1008(s2)
   1a1de:	a8b9                	j	1a23c <_start+0x1fcc>
   1a1e0:	3ed94583          	lbu	a1,1005(s2)
   1a1e4:	3ee94603          	lbu	a2,1006(s2)
   1a1e8:	3ef94683          	lbu	a3,1007(s2)
   1a1ec:	3f092983          	lw	s3,1008(s2)
   1a1f0:	3f492703          	lw	a4,1012(s2)
   1a1f4:	3f892783          	lw	a5,1016(s2)
   1a1f8:	3fc92483          	lw	s1,1020(s2)
   1a1fc:	40092403          	lw	s0,1024(s2)
   1a200:	0622                	slli	a2,a2,0x8
   1a202:	38e92823          	sw	a4,912(s2)
   1a206:	38f92a23          	sw	a5,916(s2)
   1a20a:	38992c23          	sw	s1,920(s2)
   1a20e:	38892e23          	sw	s0,924(s2)
   1a212:	8dd1                	or	a1,a1,a2
   1a214:	02b11223          	sh	a1,36(sp)
   1a218:	02d10323          	sb	a3,38(sp)
   1a21c:	40492583          	lw	a1,1028(s2)
   1a220:	40892603          	lw	a2,1032(s2)
   1a224:	40c92683          	lw	a3,1036(s2)
   1a228:	41092703          	lw	a4,1040(s2)
   1a22c:	3ab92023          	sw	a1,928(s2)
   1a230:	3ac92223          	sw	a2,932(s2)
   1a234:	3ad92423          	sw	a3,936(s2)
   1a238:	3ae92623          	sw	a4,940(s2)
   1a23c:	c119                	beqz	a0,1a242 <_start+0x1fd2>
   1a23e:	1d70206f          	j	1cc14 <_start+0x49a4>
   1a242:	02411503          	lh	a0,36(sp)
   1a246:	02614583          	lbu	a1,38(sp)
   1a24a:	0189d613          	srli	a2,s3,0x18
   1a24e:	0109d693          	srli	a3,s3,0x10
   1a252:	6cd10ca3          	sb	a3,1753(sp)
   1a256:	6cc10d23          	sb	a2,1754(sp)
   1a25a:	0089d613          	srli	a2,s3,0x8
   1a25e:	6ca11a23          	sh	a0,1748(sp)
   1a262:	6cb10b23          	sb	a1,1750(sp)
   1a266:	6d310ba3          	sb	s3,1751(sp)
   1a26a:	6cc10c23          	sb	a2,1752(sp)
   1a26e:	6db10513          	addi	a0,sp,1755
   1a272:	6585                	lui	a1,0x1
   1a274:	34058593          	addi	a1,a1,832 # 1340 <.Lline_table_start1+0x1115>
   1a278:	958a                	add	a1,a1,sp
   1a27a:	02000613          	li	a2,32
   1a27e:	00003097          	auipc	ra,0x3
   1a282:	ab2080e7          	jalr	-1358(ra) # 1cd30 <memcpy>
   1a286:	6505                	lui	a0,0x1
   1a288:	39c50513          	addi	a0,a0,924 # 139c <.Lline_table_start1+0x1171>
   1a28c:	950a                	add	a0,a0,sp
   1a28e:	6d410593          	addi	a1,sp,1748
   1a292:	ffffb097          	auipc	ra,0xffffb
   1a296:	e9a080e7          	jalr	-358(ra) # 1512c <_ZN18complex_no_dynamic3app17h8a41dfa4db623ea5E>
   1a29a:	3ec94503          	lbu	a0,1004(s2)
   1a29e:	c501                	beqz	a0,1a2a6 <_start+0x2036>
   1a2a0:	3f092983          	lw	s3,1008(s2)
   1a2a4:	a83d                	j	1a2e2 <_start+0x2072>
   1a2a6:	3ee94583          	lbu	a1,1006(s2)
   1a2aa:	3ed94603          	lbu	a2,1005(s2)
   1a2ae:	3ef94683          	lbu	a3,1007(s2)
   1a2b2:	3f092983          	lw	s3,1008(s2)
   1a2b6:	05a2                	slli	a1,a1,0x8
   1a2b8:	8dd1                	or	a1,a1,a2
   1a2ba:	02b11223          	sh	a1,36(sp)
   1a2be:	02d10323          	sb	a3,38(sp)
   1a2c2:	3f492583          	lw	a1,1012(s2)
   1a2c6:	3f892603          	lw	a2,1016(s2)
   1a2ca:	3fc92683          	lw	a3,1020(s2)
   1a2ce:	40094703          	lbu	a4,1024(s2)
   1a2d2:	38b92823          	sw	a1,912(s2)
   1a2d6:	38c92a23          	sw	a2,916(s2)
   1a2da:	38d92c23          	sw	a3,920(s2)
   1a2de:	38e90e23          	sb	a4,924(s2)
   1a2e2:	c119                	beqz	a0,1a2e8 <_start+0x2078>
   1a2e4:	1310206f          	j	1cc14 <_start+0x49a4>
   1a2e8:	02411503          	lh	a0,36(sp)
   1a2ec:	02614583          	lbu	a1,38(sp)
   1a2f0:	0189d613          	srli	a2,s3,0x18
   1a2f4:	0109d693          	srli	a3,s3,0x10
   1a2f8:	70d100a3          	sb	a3,1793(sp)
   1a2fc:	70c10123          	sb	a2,1794(sp)
   1a300:	0089d613          	srli	a2,s3,0x8
   1a304:	6ea11e23          	sh	a0,1788(sp)
   1a308:	6eb10f23          	sb	a1,1790(sp)
   1a30c:	6f310fa3          	sb	s3,1791(sp)
   1a310:	70c10023          	sb	a2,1792(sp)
   1a314:	70310513          	addi	a0,sp,1795
   1a318:	6585                	lui	a1,0x1
   1a31a:	34058593          	addi	a1,a1,832 # 1340 <.Lline_table_start1+0x1115>
   1a31e:	958a                	add	a1,a1,sp
   1a320:	4635                	li	a2,13
   1a322:	00003097          	auipc	ra,0x3
   1a326:	a0e080e7          	jalr	-1522(ra) # 1cd30 <memcpy>
   1a32a:	6505                	lui	a0,0x1
   1a32c:	39c50513          	addi	a0,a0,924 # 139c <.Lline_table_start1+0x1171>
   1a330:	950a                	add	a0,a0,sp
   1a332:	6fc10593          	addi	a1,sp,1788
   1a336:	ffff8097          	auipc	ra,0xffff8
   1a33a:	316080e7          	jalr	790(ra) # 1264c <_ZN18complex_no_dynamic3app17h2a629cac391bb492E>
   1a33e:	3ec94403          	lbu	s0,1004(s2)
   1a342:	c401                	beqz	s0,1a34a <_start+0x20da>
   1a344:	3f092983          	lw	s3,1008(s2)
   1a348:	a835                	j	1a384 <_start+0x2114>
   1a34a:	3ee94503          	lbu	a0,1006(s2)
   1a34e:	3ed94583          	lbu	a1,1005(s2)
   1a352:	3ef94603          	lbu	a2,1007(s2)
   1a356:	3f092983          	lw	s3,1008(s2)
   1a35a:	0522                	slli	a0,a0,0x8
   1a35c:	8d4d                	or	a0,a0,a1
   1a35e:	02a11223          	sh	a0,36(sp)
   1a362:	02c10323          	sb	a2,38(sp)
   1a366:	6505                	lui	a0,0x1
   1a368:	3a450513          	addi	a0,a0,932 # 13a4 <.Lline_table_start1+0x1179>
   1a36c:	00a105b3          	add	a1,sp,a0
   1a370:	6505                	lui	a0,0x1
   1a372:	34050513          	addi	a0,a0,832 # 1340 <.Lline_table_start1+0x1115>
   1a376:	950a                	add	a0,a0,sp
   1a378:	02400613          	li	a2,36
   1a37c:	00003097          	auipc	ra,0x3
   1a380:	9b4080e7          	jalr	-1612(ra) # 1cd30 <memcpy>
   1a384:	c019                	beqz	s0,1a38a <_start+0x211a>
   1a386:	08f0206f          	j	1cc14 <_start+0x49a4>
   1a38a:	02411503          	lh	a0,36(sp)
   1a38e:	02614583          	lbu	a1,38(sp)
   1a392:	0189d613          	srli	a2,s3,0x18
   1a396:	0109d693          	srli	a3,s3,0x10
   1a39a:	70d10aa3          	sb	a3,1813(sp)
   1a39e:	70c10b23          	sb	a2,1814(sp)
   1a3a2:	0089d613          	srli	a2,s3,0x8
   1a3a6:	70a11823          	sh	a0,1808(sp)
   1a3aa:	70b10923          	sb	a1,1810(sp)
   1a3ae:	713109a3          	sb	s3,1811(sp)
   1a3b2:	70c10a23          	sb	a2,1812(sp)
   1a3b6:	71710513          	addi	a0,sp,1815
   1a3ba:	6585                	lui	a1,0x1
   1a3bc:	34058593          	addi	a1,a1,832 # 1340 <.Lline_table_start1+0x1115>
   1a3c0:	958a                	add	a1,a1,sp
   1a3c2:	02400613          	li	a2,36
   1a3c6:	00003097          	auipc	ra,0x3
   1a3ca:	96a080e7          	jalr	-1686(ra) # 1cd30 <memcpy>
   1a3ce:	6505                	lui	a0,0x1
   1a3d0:	39c50513          	addi	a0,a0,924 # 139c <.Lline_table_start1+0x1171>
   1a3d4:	950a                	add	a0,a0,sp
   1a3d6:	71010593          	addi	a1,sp,1808
   1a3da:	ffff9097          	auipc	ra,0xffff9
   1a3de:	4f6080e7          	jalr	1270(ra) # 138d0 <_ZN18complex_no_dynamic3app17h606bd91a44653aa6E>
   1a3e2:	3ec94503          	lbu	a0,1004(s2)
   1a3e6:	c501                	beqz	a0,1a3ee <_start+0x217e>
   1a3e8:	3f092983          	lw	s3,1008(s2)
   1a3ec:	a899                	j	1a442 <_start+0x21d2>
   1a3ee:	3ed94583          	lbu	a1,1005(s2)
   1a3f2:	3ee94603          	lbu	a2,1006(s2)
   1a3f6:	3ef94683          	lbu	a3,1007(s2)
   1a3fa:	3f092983          	lw	s3,1008(s2)
   1a3fe:	3f492703          	lw	a4,1012(s2)
   1a402:	3f892783          	lw	a5,1016(s2)
   1a406:	3fc92483          	lw	s1,1020(s2)
   1a40a:	40092403          	lw	s0,1024(s2)
   1a40e:	0622                	slli	a2,a2,0x8
   1a410:	38e92823          	sw	a4,912(s2)
   1a414:	38f92a23          	sw	a5,916(s2)
   1a418:	38992c23          	sw	s1,920(s2)
   1a41c:	38892e23          	sw	s0,924(s2)
   1a420:	8dd1                	or	a1,a1,a2
   1a422:	40492603          	lw	a2,1028(s2)
   1a426:	40891703          	lh	a4,1032(s2)
   1a42a:	40a94783          	lbu	a5,1034(s2)
   1a42e:	02b11223          	sh	a1,36(sp)
   1a432:	02d10323          	sb	a3,38(sp)
   1a436:	3ac92023          	sw	a2,928(s2)
   1a43a:	3ae91223          	sh	a4,932(s2)
   1a43e:	3af90323          	sb	a5,934(s2)
   1a442:	c119                	beqz	a0,1a448 <_start+0x21d8>
   1a444:	7d00206f          	j	1cc14 <_start+0x49a4>
   1a448:	02411503          	lh	a0,36(sp)
   1a44c:	02614583          	lbu	a1,38(sp)
   1a450:	0189d613          	srli	a2,s3,0x18
   1a454:	0109d693          	srli	a3,s3,0x10
   1a458:	74d100a3          	sb	a3,1857(sp)
   1a45c:	74c10123          	sb	a2,1858(sp)
   1a460:	0089d613          	srli	a2,s3,0x8
   1a464:	72a11e23          	sh	a0,1852(sp)
   1a468:	72b10f23          	sb	a1,1854(sp)
   1a46c:	73310fa3          	sb	s3,1855(sp)
   1a470:	74c10023          	sb	a2,1856(sp)
   1a474:	74310513          	addi	a0,sp,1859
   1a478:	6585                	lui	a1,0x1
   1a47a:	34058593          	addi	a1,a1,832 # 1340 <.Lline_table_start1+0x1115>
   1a47e:	958a                	add	a1,a1,sp
   1a480:	465d                	li	a2,23
   1a482:	00003097          	auipc	ra,0x3
   1a486:	8ae080e7          	jalr	-1874(ra) # 1cd30 <memcpy>
   1a48a:	6505                	lui	a0,0x1
   1a48c:	39c50513          	addi	a0,a0,924 # 139c <.Lline_table_start1+0x1171>
   1a490:	950a                	add	a0,a0,sp
   1a492:	73c10593          	addi	a1,sp,1852
   1a496:	ffffe097          	auipc	ra,0xffffe
   1a49a:	bca080e7          	jalr	-1078(ra) # 18060 <_ZN18complex_no_dynamic3app17hfca6b310171c55daE>
   1a49e:	3ec94403          	lbu	s0,1004(s2)
   1a4a2:	c401                	beqz	s0,1a4aa <_start+0x223a>
   1a4a4:	3f092983          	lw	s3,1008(s2)
   1a4a8:	a835                	j	1a4e4 <_start+0x2274>
   1a4aa:	3ee94503          	lbu	a0,1006(s2)
   1a4ae:	3ed94583          	lbu	a1,1005(s2)
   1a4b2:	3ef94603          	lbu	a2,1007(s2)
   1a4b6:	3f092983          	lw	s3,1008(s2)
   1a4ba:	0522                	slli	a0,a0,0x8
   1a4bc:	8d4d                	or	a0,a0,a1
   1a4be:	02a11223          	sh	a0,36(sp)
   1a4c2:	02c10323          	sb	a2,38(sp)
   1a4c6:	6505                	lui	a0,0x1
   1a4c8:	3a450513          	addi	a0,a0,932 # 13a4 <.Lline_table_start1+0x1179>
   1a4cc:	00a105b3          	add	a1,sp,a0
   1a4d0:	6505                	lui	a0,0x1
   1a4d2:	34050513          	addi	a0,a0,832 # 1340 <.Lline_table_start1+0x1115>
   1a4d6:	950a                	add	a0,a0,sp
   1a4d8:	04a00613          	li	a2,74
   1a4dc:	00003097          	auipc	ra,0x3
   1a4e0:	854080e7          	jalr	-1964(ra) # 1cd30 <memcpy>
   1a4e4:	c019                	beqz	s0,1a4ea <_start+0x227a>
   1a4e6:	72e0206f          	j	1cc14 <_start+0x49a4>
   1a4ea:	02411503          	lh	a0,36(sp)
   1a4ee:	02614583          	lbu	a1,38(sp)
   1a4f2:	0189d613          	srli	a2,s3,0x18
   1a4f6:	0109d693          	srli	a3,s3,0x10
   1a4fa:	74d10fa3          	sb	a3,1887(sp)
   1a4fe:	76c10023          	sb	a2,1888(sp)
   1a502:	0089d613          	srli	a2,s3,0x8
   1a506:	74a11d23          	sh	a0,1882(sp)
   1a50a:	74b10e23          	sb	a1,1884(sp)
   1a50e:	75310ea3          	sb	s3,1885(sp)
   1a512:	74c10f23          	sb	a2,1886(sp)
   1a516:	76110513          	addi	a0,sp,1889
   1a51a:	6585                	lui	a1,0x1
   1a51c:	34058593          	addi	a1,a1,832 # 1340 <.Lline_table_start1+0x1115>
   1a520:	958a                	add	a1,a1,sp
   1a522:	04a00613          	li	a2,74
   1a526:	00003097          	auipc	ra,0x3
   1a52a:	80a080e7          	jalr	-2038(ra) # 1cd30 <memcpy>
   1a52e:	6505                	lui	a0,0x1
   1a530:	39c50513          	addi	a0,a0,924 # 139c <.Lline_table_start1+0x1171>
   1a534:	950a                	add	a0,a0,sp
   1a536:	75a10593          	addi	a1,sp,1882
   1a53a:	ffffd097          	auipc	ra,0xffffd
   1a53e:	562080e7          	jalr	1378(ra) # 17a9c <_ZN18complex_no_dynamic3app17hf23bbf34c26933e2E>
   1a542:	3ec94603          	lbu	a2,1004(s2)
   1a546:	c601                	beqz	a2,1a54e <_start+0x22de>
   1a548:	3f092983          	lw	s3,1008(s2)
   1a54c:	a01d                	j	1a572 <_start+0x2302>
   1a54e:	3ed94683          	lbu	a3,1005(s2)
   1a552:	3ee94703          	lbu	a4,1006(s2)
   1a556:	3ef94783          	lbu	a5,1007(s2)
   1a55a:	3f092983          	lw	s3,1008(s2)
   1a55e:	3f492583          	lw	a1,1012(s2)
   1a562:	3f892503          	lw	a0,1016(s2)
   1a566:	0722                	slli	a4,a4,0x8
   1a568:	8ed9                	or	a3,a3,a4
   1a56a:	38d91823          	sh	a3,912(s2)
   1a56e:	38f90923          	sb	a5,914(s2)
   1a572:	c219                	beqz	a2,1a578 <_start+0x2308>
   1a574:	6a00206f          	j	1cc14 <_start+0x49a4>
   1a578:	7ae10a13          	addi	s4,sp,1966
   1a57c:	39091803          	lh	a6,912(s2)
   1a580:	39294683          	lbu	a3,914(s2)
   1a584:	0189d713          	srli	a4,s3,0x18
   1a588:	0109d793          	srli	a5,s3,0x10
   1a58c:	0089d413          	srli	s0,s3,0x8
   1a590:	0085d493          	srli	s1,a1,0x8
   1a594:	01855613          	srli	a2,a0,0x18
   1a598:	00fa01a3          	sb	a5,3(s4)
   1a59c:	00ea0223          	sb	a4,4(s4)
   1a5a0:	00ba02a3          	sb	a1,5(s4)
   1a5a4:	009a0323          	sb	s1,6(s4)
   1a5a8:	01055713          	srli	a4,a0,0x10
   1a5ac:	00ea05a3          	sb	a4,11(s4)
   1a5b0:	00ca0623          	sb	a2,12(s4)
   1a5b4:	0185d613          	srli	a2,a1,0x18
   1a5b8:	81c1                	srli	a1,a1,0x10
   1a5ba:	ff0a1f23          	sh	a6,-2(s4)
   1a5be:	00da0023          	sb	a3,0(s4)
   1a5c2:	013a00a3          	sb	s3,1(s4)
   1a5c6:	008a0123          	sb	s0,2(s4)
   1a5ca:	00855693          	srli	a3,a0,0x8
   1a5ce:	00ba03a3          	sb	a1,7(s4)
   1a5d2:	00ca0423          	sb	a2,8(s4)
   1a5d6:	00aa04a3          	sb	a0,9(s4)
   1a5da:	00da0523          	sb	a3,10(s4)
   1a5de:	6505                	lui	a0,0x1
   1a5e0:	39c50513          	addi	a0,a0,924 # 139c <.Lline_table_start1+0x1171>
   1a5e4:	950a                	add	a0,a0,sp
   1a5e6:	7ac10593          	addi	a1,sp,1964
   1a5ea:	ffffc097          	auipc	ra,0xffffc
   1a5ee:	296080e7          	jalr	662(ra) # 16880 <_ZN18complex_no_dynamic3app17hc76620f5ca31a83aE>
   1a5f2:	3ec94403          	lbu	s0,1004(s2)
   1a5f6:	c401                	beqz	s0,1a5fe <_start+0x238e>
   1a5f8:	3f092983          	lw	s3,1008(s2)
   1a5fc:	a835                	j	1a638 <_start+0x23c8>
   1a5fe:	3ee94503          	lbu	a0,1006(s2)
   1a602:	3ed94583          	lbu	a1,1005(s2)
   1a606:	3ef94603          	lbu	a2,1007(s2)
   1a60a:	3f092983          	lw	s3,1008(s2)
   1a60e:	0522                	slli	a0,a0,0x8
   1a610:	8d4d                	or	a0,a0,a1
   1a612:	02a11223          	sh	a0,36(sp)
   1a616:	02c10323          	sb	a2,38(sp)
   1a61a:	6505                	lui	a0,0x1
   1a61c:	3a450513          	addi	a0,a0,932 # 13a4 <.Lline_table_start1+0x1179>
   1a620:	00a105b3          	add	a1,sp,a0
   1a624:	6505                	lui	a0,0x1
   1a626:	34050513          	addi	a0,a0,832 # 1340 <.Lline_table_start1+0x1115>
   1a62a:	950a                	add	a0,a0,sp
   1a62c:	03f00613          	li	a2,63
   1a630:	00002097          	auipc	ra,0x2
   1a634:	700080e7          	jalr	1792(ra) # 1cd30 <memcpy>
   1a638:	c019                	beqz	s0,1a63e <_start+0x23ce>
   1a63a:	5da0206f          	j	1cc14 <_start+0x49a4>
   1a63e:	02411503          	lh	a0,36(sp)
   1a642:	02614583          	lbu	a1,38(sp)
   1a646:	0189d613          	srli	a2,s3,0x18
   1a64a:	0109d693          	srli	a3,s3,0x10
   1a64e:	00da09a3          	sb	a3,19(s4)
   1a652:	00ca0a23          	sb	a2,20(s4)
   1a656:	0089d613          	srli	a2,s3,0x8
   1a65a:	00aa1723          	sh	a0,14(s4)
   1a65e:	00ba0823          	sb	a1,16(s4)
   1a662:	013a08a3          	sb	s3,17(s4)
   1a666:	00ca0923          	sb	a2,18(s4)
   1a66a:	7c310513          	addi	a0,sp,1987
   1a66e:	6585                	lui	a1,0x1
   1a670:	34058593          	addi	a1,a1,832 # 1340 <.Lline_table_start1+0x1115>
   1a674:	958a                	add	a1,a1,sp
   1a676:	03f00613          	li	a2,63
   1a67a:	00002097          	auipc	ra,0x2
   1a67e:	6b6080e7          	jalr	1718(ra) # 1cd30 <memcpy>
   1a682:	6505                	lui	a0,0x1
   1a684:	39c50513          	addi	a0,a0,924 # 139c <.Lline_table_start1+0x1171>
   1a688:	950a                	add	a0,a0,sp
   1a68a:	7bc10593          	addi	a1,sp,1980
   1a68e:	ffffa097          	auipc	ra,0xffffa
   1a692:	776080e7          	jalr	1910(ra) # 14e04 <_ZN18complex_no_dynamic3app17h816039bd249c1b60E>
   1a696:	3ec94403          	lbu	s0,1004(s2)
   1a69a:	c401                	beqz	s0,1a6a2 <_start+0x2432>
   1a69c:	3f092983          	lw	s3,1008(s2)
   1a6a0:	a835                	j	1a6dc <_start+0x246c>
   1a6a2:	3ee94503          	lbu	a0,1006(s2)
   1a6a6:	3ed94583          	lbu	a1,1005(s2)
   1a6aa:	3ef94603          	lbu	a2,1007(s2)
   1a6ae:	3f092983          	lw	s3,1008(s2)
   1a6b2:	0522                	slli	a0,a0,0x8
   1a6b4:	8d4d                	or	a0,a0,a1
   1a6b6:	02a11223          	sh	a0,36(sp)
   1a6ba:	02c10323          	sb	a2,38(sp)
   1a6be:	6505                	lui	a0,0x1
   1a6c0:	3a450513          	addi	a0,a0,932 # 13a4 <.Lline_table_start1+0x1179>
   1a6c4:	00a105b3          	add	a1,sp,a0
   1a6c8:	6505                	lui	a0,0x1
   1a6ca:	34050513          	addi	a0,a0,832 # 1340 <.Lline_table_start1+0x1115>
   1a6ce:	950a                	add	a0,a0,sp
   1a6d0:	04f00613          	li	a2,79
   1a6d4:	00002097          	auipc	ra,0x2
   1a6d8:	65c080e7          	jalr	1628(ra) # 1cd30 <memcpy>
   1a6dc:	c019                	beqz	s0,1a6e2 <_start+0x2472>
   1a6de:	5360206f          	j	1cc14 <_start+0x49a4>
   1a6e2:	02411503          	lh	a0,36(sp)
   1a6e6:	02614583          	lbu	a1,38(sp)
   1a6ea:	0189d613          	srli	a2,s3,0x18
   1a6ee:	0109d693          	srli	a3,s3,0x10
   1a6f2:	04da0ca3          	sb	a3,89(s4)
   1a6f6:	04ca0d23          	sb	a2,90(s4)
   1a6fa:	0089d613          	srli	a2,s3,0x8
   1a6fe:	04aa1a23          	sh	a0,84(s4)
   1a702:	04ba0b23          	sb	a1,86(s4)
   1a706:	053a0ba3          	sb	s3,87(s4)
   1a70a:	04ca0c23          	sb	a2,88(s4)
   1a70e:	7ff10513          	addi	a0,sp,2047
   1a712:	0529                	addi	a0,a0,10
   1a714:	6585                	lui	a1,0x1
   1a716:	34058593          	addi	a1,a1,832 # 1340 <.Lline_table_start1+0x1115>
   1a71a:	958a                	add	a1,a1,sp
   1a71c:	04f00613          	li	a2,79
   1a720:	00002097          	auipc	ra,0x2
   1a724:	610080e7          	jalr	1552(ra) # 1cd30 <memcpy>
   1a728:	6505                	lui	a0,0x1
   1a72a:	39c50513          	addi	a0,a0,924 # 139c <.Lline_table_start1+0x1171>
   1a72e:	950a                	add	a0,a0,sp
   1a730:	7ff10593          	addi	a1,sp,2047
   1a734:	058d                	addi	a1,a1,3
   1a736:	ffffc097          	auipc	ra,0xffffc
   1a73a:	2c2080e7          	jalr	706(ra) # 169f8 <_ZN18complex_no_dynamic3app17hc7758002f305b662E>
   1a73e:	3ec94403          	lbu	s0,1004(s2)
   1a742:	c401                	beqz	s0,1a74a <_start+0x24da>
   1a744:	3f092983          	lw	s3,1008(s2)
   1a748:	a835                	j	1a784 <_start+0x2514>
   1a74a:	3ee94503          	lbu	a0,1006(s2)
   1a74e:	3ed94583          	lbu	a1,1005(s2)
   1a752:	3ef94603          	lbu	a2,1007(s2)
   1a756:	3f092983          	lw	s3,1008(s2)
   1a75a:	0522                	slli	a0,a0,0x8
   1a75c:	8d4d                	or	a0,a0,a1
   1a75e:	02a11223          	sh	a0,36(sp)
   1a762:	02c10323          	sb	a2,38(sp)
   1a766:	6505                	lui	a0,0x1
   1a768:	3a450513          	addi	a0,a0,932 # 13a4 <.Lline_table_start1+0x1179>
   1a76c:	00a105b3          	add	a1,sp,a0
   1a770:	6505                	lui	a0,0x1
   1a772:	34050513          	addi	a0,a0,832 # 1340 <.Lline_table_start1+0x1115>
   1a776:	950a                	add	a0,a0,sp
   1a778:	04200613          	li	a2,66
   1a77c:	00002097          	auipc	ra,0x2
   1a780:	5b4080e7          	jalr	1460(ra) # 1cd30 <memcpy>
   1a784:	c019                	beqz	s0,1a78a <_start+0x251a>
   1a786:	48e0206f          	j	1cc14 <_start+0x49a4>
   1a78a:	02411503          	lh	a0,36(sp)
   1a78e:	02614583          	lbu	a1,38(sp)
   1a792:	0189d613          	srli	a2,s3,0x18
   1a796:	0109d693          	srli	a3,s3,0x10
   1a79a:	0ada07a3          	sb	a3,175(s4)
   1a79e:	0aca0823          	sb	a2,176(s4)
   1a7a2:	0089d613          	srli	a2,s3,0x8
   1a7a6:	0aaa1523          	sh	a0,170(s4)
   1a7aa:	0aba0623          	sb	a1,172(s4)
   1a7ae:	0b3a06a3          	sb	s3,173(s4)
   1a7b2:	0aca0723          	sb	a2,174(s4)
   1a7b6:	7ff10513          	addi	a0,sp,2047
   1a7ba:	06050513          	addi	a0,a0,96
   1a7be:	6585                	lui	a1,0x1
   1a7c0:	34058593          	addi	a1,a1,832 # 1340 <.Lline_table_start1+0x1115>
   1a7c4:	958a                	add	a1,a1,sp
   1a7c6:	04200613          	li	a2,66
   1a7ca:	00002097          	auipc	ra,0x2
   1a7ce:	566080e7          	jalr	1382(ra) # 1cd30 <memcpy>
   1a7d2:	6505                	lui	a0,0x1
   1a7d4:	39c50513          	addi	a0,a0,924 # 139c <.Lline_table_start1+0x1171>
   1a7d8:	950a                	add	a0,a0,sp
   1a7da:	7ff10593          	addi	a1,sp,2047
   1a7de:	05958593          	addi	a1,a1,89
   1a7e2:	ffffd097          	auipc	ra,0xffffd
   1a7e6:	4ce080e7          	jalr	1230(ra) # 17cb0 <_ZN18complex_no_dynamic3app17hfaae84f23f418cb4E>
   1a7ea:	3ec94503          	lbu	a0,1004(s2)
   1a7ee:	c501                	beqz	a0,1a7f6 <_start+0x2586>
   1a7f0:	3f092983          	lw	s3,1008(s2)
   1a7f4:	a899                	j	1a84a <_start+0x25da>
   1a7f6:	3ed94583          	lbu	a1,1005(s2)
   1a7fa:	3ee94603          	lbu	a2,1006(s2)
   1a7fe:	3ef94683          	lbu	a3,1007(s2)
   1a802:	3f092983          	lw	s3,1008(s2)
   1a806:	3f492703          	lw	a4,1012(s2)
   1a80a:	3f892783          	lw	a5,1016(s2)
   1a80e:	3fc92483          	lw	s1,1020(s2)
   1a812:	40092403          	lw	s0,1024(s2)
   1a816:	0622                	slli	a2,a2,0x8
   1a818:	38e92823          	sw	a4,912(s2)
   1a81c:	38f92a23          	sw	a5,916(s2)
   1a820:	38992c23          	sw	s1,920(s2)
   1a824:	38892e23          	sw	s0,924(s2)
   1a828:	8dd1                	or	a1,a1,a2
   1a82a:	40492603          	lw	a2,1028(s2)
   1a82e:	40892703          	lw	a4,1032(s2)
   1a832:	40c92783          	lw	a5,1036(s2)
   1a836:	02b11223          	sh	a1,36(sp)
   1a83a:	02d10323          	sb	a3,38(sp)
   1a83e:	3ac92023          	sw	a2,928(s2)
   1a842:	3ae92223          	sw	a4,932(s2)
   1a846:	3af92423          	sw	a5,936(s2)
   1a84a:	c119                	beqz	a0,1a850 <_start+0x25e0>
   1a84c:	3c80206f          	j	1cc14 <_start+0x49a4>
   1a850:	02411503          	lh	a0,36(sp)
   1a854:	02614583          	lbu	a1,38(sp)
   1a858:	0189d613          	srli	a2,s3,0x18
   1a85c:	0109d693          	srli	a3,s3,0x10
   1a860:	0eda0ca3          	sb	a3,249(s4)
   1a864:	0eca0d23          	sb	a2,250(s4)
   1a868:	0089d613          	srli	a2,s3,0x8
   1a86c:	0eaa1a23          	sh	a0,244(s4)
   1a870:	0eba0b23          	sb	a1,246(s4)
   1a874:	0f3a0ba3          	sb	s3,247(s4)
   1a878:	0eca0c23          	sb	a2,248(s4)
   1a87c:	7ff10513          	addi	a0,sp,2047
   1a880:	0aa50513          	addi	a0,a0,170
   1a884:	6585                	lui	a1,0x1
   1a886:	34058593          	addi	a1,a1,832 # 1340 <.Lline_table_start1+0x1115>
   1a88a:	958a                	add	a1,a1,sp
   1a88c:	4671                	li	a2,28
   1a88e:	00002097          	auipc	ra,0x2
   1a892:	4a2080e7          	jalr	1186(ra) # 1cd30 <memcpy>
   1a896:	6505                	lui	a0,0x1
   1a898:	39c50513          	addi	a0,a0,924 # 139c <.Lline_table_start1+0x1171>
   1a89c:	950a                	add	a0,a0,sp
   1a89e:	7ff10593          	addi	a1,sp,2047
   1a8a2:	0a358593          	addi	a1,a1,163
   1a8a6:	ffffb097          	auipc	ra,0xffffb
   1a8aa:	2aa080e7          	jalr	682(ra) # 15b50 <_ZN18complex_no_dynamic3app17ha04fe5bb9722c856E>
   1a8ae:	3ec94403          	lbu	s0,1004(s2)
   1a8b2:	c401                	beqz	s0,1a8ba <_start+0x264a>
   1a8b4:	3f092983          	lw	s3,1008(s2)
   1a8b8:	a835                	j	1a8f4 <_start+0x2684>
   1a8ba:	3ee94503          	lbu	a0,1006(s2)
   1a8be:	3ed94583          	lbu	a1,1005(s2)
   1a8c2:	3ef94603          	lbu	a2,1007(s2)
   1a8c6:	3f092983          	lw	s3,1008(s2)
   1a8ca:	0522                	slli	a0,a0,0x8
   1a8cc:	8d4d                	or	a0,a0,a1
   1a8ce:	02a11223          	sh	a0,36(sp)
   1a8d2:	02c10323          	sb	a2,38(sp)
   1a8d6:	6505                	lui	a0,0x1
   1a8d8:	3a450513          	addi	a0,a0,932 # 13a4 <.Lline_table_start1+0x1179>
   1a8dc:	00a105b3          	add	a1,sp,a0
   1a8e0:	6505                	lui	a0,0x1
   1a8e2:	34050513          	addi	a0,a0,832 # 1340 <.Lline_table_start1+0x1115>
   1a8e6:	950a                	add	a0,a0,sp
   1a8e8:	02400613          	li	a2,36
   1a8ec:	00002097          	auipc	ra,0x2
   1a8f0:	444080e7          	jalr	1092(ra) # 1cd30 <memcpy>
   1a8f4:	c019                	beqz	s0,1a8fa <_start+0x268a>
   1a8f6:	31e0206f          	j	1cc14 <_start+0x49a4>
   1a8fa:	02411503          	lh	a0,36(sp)
   1a8fe:	02614583          	lbu	a1,38(sp)
   1a902:	0189d613          	srli	a2,s3,0x18
   1a906:	0109d693          	srli	a3,s3,0x10
   1a90a:	10da0ea3          	sb	a3,285(s4)
   1a90e:	10ca0f23          	sb	a2,286(s4)
   1a912:	0089d613          	srli	a2,s3,0x8
   1a916:	10aa1c23          	sh	a0,280(s4)
   1a91a:	10ba0d23          	sb	a1,282(s4)
   1a91e:	113a0da3          	sb	s3,283(s4)
   1a922:	10ca0e23          	sb	a2,284(s4)
   1a926:	7ff10513          	addi	a0,sp,2047
   1a92a:	0ce50513          	addi	a0,a0,206
   1a92e:	6585                	lui	a1,0x1
   1a930:	34058593          	addi	a1,a1,832 # 1340 <.Lline_table_start1+0x1115>
   1a934:	958a                	add	a1,a1,sp
   1a936:	02400613          	li	a2,36
   1a93a:	00002097          	auipc	ra,0x2
   1a93e:	3f6080e7          	jalr	1014(ra) # 1cd30 <memcpy>
   1a942:	6505                	lui	a0,0x1
   1a944:	39c50513          	addi	a0,a0,924 # 139c <.Lline_table_start1+0x1171>
   1a948:	950a                	add	a0,a0,sp
   1a94a:	7ff10593          	addi	a1,sp,2047
   1a94e:	0c758593          	addi	a1,a1,199
   1a952:	ffffc097          	auipc	ra,0xffffc
   1a956:	88e080e7          	jalr	-1906(ra) # 161e0 <_ZN18complex_no_dynamic3app17hafc23429c3abe780E>
   1a95a:	3ec94503          	lbu	a0,1004(s2)
   1a95e:	c501                	beqz	a0,1a966 <_start+0x26f6>
   1a960:	3f092983          	lw	s3,1008(s2)
   1a964:	a03d                	j	1a992 <_start+0x2722>
   1a966:	3ee94583          	lbu	a1,1006(s2)
   1a96a:	3ed94603          	lbu	a2,1005(s2)
   1a96e:	3ef94683          	lbu	a3,1007(s2)
   1a972:	3f092983          	lw	s3,1008(s2)
   1a976:	05a2                	slli	a1,a1,0x8
   1a978:	8dd1                	or	a1,a1,a2
   1a97a:	3f492603          	lw	a2,1012(s2)
   1a97e:	3f891703          	lh	a4,1016(s2)
   1a982:	02b11223          	sh	a1,36(sp)
   1a986:	02d10323          	sb	a3,38(sp)
   1a98a:	38c92823          	sw	a2,912(s2)
   1a98e:	38e91a23          	sh	a4,916(s2)
   1a992:	c119                	beqz	a0,1a998 <_start+0x2728>
   1a994:	2800206f          	j	1cc14 <_start+0x49a4>
   1a998:	02411503          	lh	a0,36(sp)
   1a99c:	02614583          	lbu	a1,38(sp)
   1a9a0:	0189d613          	srli	a2,s3,0x18
   1a9a4:	0109d693          	srli	a3,s3,0x10
   1a9a8:	0089d713          	srli	a4,s3,0x8
   1a9ac:	14aa1223          	sh	a0,324(s4)
   1a9b0:	14ba0323          	sb	a1,326(s4)
   1a9b4:	153a03a3          	sb	s3,327(s4)
   1a9b8:	14ea0423          	sb	a4,328(s4)
   1a9bc:	39094503          	lbu	a0,912(s2)
   1a9c0:	39194583          	lbu	a1,913(s2)
   1a9c4:	39294703          	lbu	a4,914(s2)
   1a9c8:	39394783          	lbu	a5,915(s2)
   1a9cc:	14da04a3          	sb	a3,329(s4)
   1a9d0:	14ca0523          	sb	a2,330(s4)
   1a9d4:	14aa05a3          	sb	a0,331(s4)
   1a9d8:	14ba0623          	sb	a1,332(s4)
   1a9dc:	39494503          	lbu	a0,916(s2)
   1a9e0:	39594583          	lbu	a1,917(s2)
   1a9e4:	14ea06a3          	sb	a4,333(s4)
   1a9e8:	14fa0723          	sb	a5,334(s4)
   1a9ec:	14aa07a3          	sb	a0,335(s4)
   1a9f0:	14ba0823          	sb	a1,336(s4)
   1a9f4:	6505                	lui	a0,0x1
   1a9f6:	39c50513          	addi	a0,a0,924 # 139c <.Lline_table_start1+0x1171>
   1a9fa:	950a                	add	a0,a0,sp
   1a9fc:	7ff10593          	addi	a1,sp,2047
   1aa00:	0f358593          	addi	a1,a1,243
   1aa04:	ffffc097          	auipc	ra,0xffffc
   1aa08:	106080e7          	jalr	262(ra) # 16b0a <_ZN18complex_no_dynamic3app17hc925b3b5f70d2e87E>
   1aa0c:	3ec94503          	lbu	a0,1004(s2)
   1aa10:	c501                	beqz	a0,1aa18 <_start+0x27a8>
   1aa12:	3f092983          	lw	s3,1008(s2)
   1aa16:	a899                	j	1aa6c <_start+0x27fc>
   1aa18:	3ed94583          	lbu	a1,1005(s2)
   1aa1c:	3ee94603          	lbu	a2,1006(s2)
   1aa20:	3ef94683          	lbu	a3,1007(s2)
   1aa24:	3f092983          	lw	s3,1008(s2)
   1aa28:	3f492703          	lw	a4,1012(s2)
   1aa2c:	3f892783          	lw	a5,1016(s2)
   1aa30:	3fc92483          	lw	s1,1020(s2)
   1aa34:	40092403          	lw	s0,1024(s2)
   1aa38:	0622                	slli	a2,a2,0x8
   1aa3a:	38e92823          	sw	a4,912(s2)
   1aa3e:	38f92a23          	sw	a5,916(s2)
   1aa42:	38992c23          	sw	s1,920(s2)
   1aa46:	38892e23          	sw	s0,924(s2)
   1aa4a:	8dd1                	or	a1,a1,a2
   1aa4c:	40492603          	lw	a2,1028(s2)
   1aa50:	40892703          	lw	a4,1032(s2)
   1aa54:	40c91783          	lh	a5,1036(s2)
   1aa58:	02b11223          	sh	a1,36(sp)
   1aa5c:	02d10323          	sb	a3,38(sp)
   1aa60:	3ac92023          	sw	a2,928(s2)
   1aa64:	3ae92223          	sw	a4,932(s2)
   1aa68:	3af91423          	sh	a5,936(s2)
   1aa6c:	c119                	beqz	a0,1aa72 <_start+0x2802>
   1aa6e:	1a60206f          	j	1cc14 <_start+0x49a4>
   1aa72:	02411503          	lh	a0,36(sp)
   1aa76:	02614583          	lbu	a1,38(sp)
   1aa7a:	0189d613          	srli	a2,s3,0x18
   1aa7e:	0109d693          	srli	a3,s3,0x10
   1aa82:	14da0ba3          	sb	a3,343(s4)
   1aa86:	14ca0c23          	sb	a2,344(s4)
   1aa8a:	0089d613          	srli	a2,s3,0x8
   1aa8e:	14aa1923          	sh	a0,338(s4)
   1aa92:	14ba0a23          	sb	a1,340(s4)
   1aa96:	153a0aa3          	sb	s3,341(s4)
   1aa9a:	14ca0b23          	sb	a2,342(s4)
   1aa9e:	7ff10513          	addi	a0,sp,2047
   1aaa2:	10850513          	addi	a0,a0,264
   1aaa6:	6585                	lui	a1,0x1
   1aaa8:	34058593          	addi	a1,a1,832 # 1340 <.Lline_table_start1+0x1115>
   1aaac:	958a                	add	a1,a1,sp
   1aaae:	4669                	li	a2,26
   1aab0:	00002097          	auipc	ra,0x2
   1aab4:	280080e7          	jalr	640(ra) # 1cd30 <memcpy>
   1aab8:	6505                	lui	a0,0x1
   1aaba:	39c50513          	addi	a0,a0,924 # 139c <.Lline_table_start1+0x1171>
   1aabe:	950a                	add	a0,a0,sp
   1aac0:	7ff10593          	addi	a1,sp,2047
   1aac4:	10158593          	addi	a1,a1,257
   1aac8:	ffffc097          	auipc	ra,0xffffc
   1aacc:	81a080e7          	jalr	-2022(ra) # 162e2 <_ZN18complex_no_dynamic3app17hb36e88d55d5922a1E>
   1aad0:	3ec94403          	lbu	s0,1004(s2)
   1aad4:	c401                	beqz	s0,1aadc <_start+0x286c>
   1aad6:	3f092983          	lw	s3,1008(s2)
   1aada:	a835                	j	1ab16 <_start+0x28a6>
   1aadc:	3ee94503          	lbu	a0,1006(s2)
   1aae0:	3ed94583          	lbu	a1,1005(s2)
   1aae4:	3ef94603          	lbu	a2,1007(s2)
   1aae8:	3f092983          	lw	s3,1008(s2)
   1aaec:	0522                	slli	a0,a0,0x8
   1aaee:	8d4d                	or	a0,a0,a1
   1aaf0:	02a11223          	sh	a0,36(sp)
   1aaf4:	02c10323          	sb	a2,38(sp)
   1aaf8:	6505                	lui	a0,0x1
   1aafa:	3a450513          	addi	a0,a0,932 # 13a4 <.Lline_table_start1+0x1179>
   1aafe:	00a105b3          	add	a1,sp,a0
   1ab02:	6505                	lui	a0,0x1
   1ab04:	34050513          	addi	a0,a0,832 # 1340 <.Lline_table_start1+0x1115>
   1ab08:	950a                	add	a0,a0,sp
   1ab0a:	04c00613          	li	a2,76
   1ab0e:	00002097          	auipc	ra,0x2
   1ab12:	222080e7          	jalr	546(ra) # 1cd30 <memcpy>
   1ab16:	c019                	beqz	s0,1ab1c <_start+0x28ac>
   1ab18:	0fc0206f          	j	1cc14 <_start+0x49a4>
   1ab1c:	02411503          	lh	a0,36(sp)
   1ab20:	02614583          	lbu	a1,38(sp)
   1ab24:	0189d613          	srli	a2,s3,0x18
   1ab28:	0109d693          	srli	a3,s3,0x10
   1ab2c:	16da0ca3          	sb	a3,377(s4)
   1ab30:	16ca0d23          	sb	a2,378(s4)
   1ab34:	0089d613          	srli	a2,s3,0x8
   1ab38:	16aa1a23          	sh	a0,372(s4)
   1ab3c:	16ba0b23          	sb	a1,374(s4)
   1ab40:	173a0ba3          	sb	s3,375(s4)
   1ab44:	16ca0c23          	sb	a2,376(s4)
   1ab48:	7ff10513          	addi	a0,sp,2047
   1ab4c:	12a50513          	addi	a0,a0,298
   1ab50:	6585                	lui	a1,0x1
   1ab52:	34058593          	addi	a1,a1,832 # 1340 <.Lline_table_start1+0x1115>
   1ab56:	958a                	add	a1,a1,sp
   1ab58:	04c00613          	li	a2,76
   1ab5c:	00002097          	auipc	ra,0x2
   1ab60:	1d4080e7          	jalr	468(ra) # 1cd30 <memcpy>
   1ab64:	6505                	lui	a0,0x1
   1ab66:	39c50513          	addi	a0,a0,924 # 139c <.Lline_table_start1+0x1171>
   1ab6a:	950a                	add	a0,a0,sp
   1ab6c:	7ff10593          	addi	a1,sp,2047
   1ab70:	12358593          	addi	a1,a1,291
   1ab74:	ffff9097          	auipc	ra,0xffff9
   1ab78:	074080e7          	jalr	116(ra) # 13be8 <_ZN18complex_no_dynamic3app17h64ebd8c0a8a31062E>
   1ab7c:	3ec94403          	lbu	s0,1004(s2)
   1ab80:	c401                	beqz	s0,1ab88 <_start+0x2918>
   1ab82:	3f092983          	lw	s3,1008(s2)
   1ab86:	a835                	j	1abc2 <_start+0x2952>
   1ab88:	3ee94503          	lbu	a0,1006(s2)
   1ab8c:	3ed94583          	lbu	a1,1005(s2)
   1ab90:	3ef94603          	lbu	a2,1007(s2)
   1ab94:	3f092983          	lw	s3,1008(s2)
   1ab98:	0522                	slli	a0,a0,0x8
   1ab9a:	8d4d                	or	a0,a0,a1
   1ab9c:	02a11223          	sh	a0,36(sp)
   1aba0:	02c10323          	sb	a2,38(sp)
   1aba4:	6505                	lui	a0,0x1
   1aba6:	3a450513          	addi	a0,a0,932 # 13a4 <.Lline_table_start1+0x1179>
   1abaa:	00a105b3          	add	a1,sp,a0
   1abae:	6505                	lui	a0,0x1
   1abb0:	34050513          	addi	a0,a0,832 # 1340 <.Lline_table_start1+0x1115>
   1abb4:	950a                	add	a0,a0,sp
   1abb6:	04600613          	li	a2,70
   1abba:	00002097          	auipc	ra,0x2
   1abbe:	176080e7          	jalr	374(ra) # 1cd30 <memcpy>
   1abc2:	c019                	beqz	s0,1abc8 <_start+0x2958>
   1abc4:	0500206f          	j	1cc14 <_start+0x49a4>
   1abc8:	02411503          	lh	a0,36(sp)
   1abcc:	02614583          	lbu	a1,38(sp)
   1abd0:	0189d613          	srli	a2,s3,0x18
   1abd4:	0109d693          	srli	a3,s3,0x10
   1abd8:	1cda06a3          	sb	a3,461(s4)
   1abdc:	1cca0723          	sb	a2,462(s4)
   1abe0:	0089d613          	srli	a2,s3,0x8
   1abe4:	1caa1423          	sh	a0,456(s4)
   1abe8:	1cba0523          	sb	a1,458(s4)
   1abec:	1d3a05a3          	sb	s3,459(s4)
   1abf0:	1cca0623          	sb	a2,460(s4)
   1abf4:	7ff10513          	addi	a0,sp,2047
   1abf8:	17e50513          	addi	a0,a0,382
   1abfc:	6585                	lui	a1,0x1
   1abfe:	34058593          	addi	a1,a1,832 # 1340 <.Lline_table_start1+0x1115>
   1ac02:	958a                	add	a1,a1,sp
   1ac04:	04600613          	li	a2,70
   1ac08:	00002097          	auipc	ra,0x2
   1ac0c:	128080e7          	jalr	296(ra) # 1cd30 <memcpy>
   1ac10:	6505                	lui	a0,0x1
   1ac12:	39c50513          	addi	a0,a0,924 # 139c <.Lline_table_start1+0x1171>
   1ac16:	950a                	add	a0,a0,sp
   1ac18:	7ff10593          	addi	a1,sp,2047
   1ac1c:	17758593          	addi	a1,a1,375
   1ac20:	ffffa097          	auipc	ra,0xffffa
   1ac24:	c8a080e7          	jalr	-886(ra) # 148aa <_ZN18complex_no_dynamic3app17h798ea38266c92024E>
   1ac28:	3ec94403          	lbu	s0,1004(s2)
   1ac2c:	c401                	beqz	s0,1ac34 <_start+0x29c4>
   1ac2e:	3f092983          	lw	s3,1008(s2)
   1ac32:	a835                	j	1ac6e <_start+0x29fe>
   1ac34:	3ee94503          	lbu	a0,1006(s2)
   1ac38:	3ed94583          	lbu	a1,1005(s2)
   1ac3c:	3ef94603          	lbu	a2,1007(s2)
   1ac40:	3f092983          	lw	s3,1008(s2)
   1ac44:	0522                	slli	a0,a0,0x8
   1ac46:	8d4d                	or	a0,a0,a1
   1ac48:	02a11223          	sh	a0,36(sp)
   1ac4c:	02c10323          	sb	a2,38(sp)
   1ac50:	6505                	lui	a0,0x1
   1ac52:	3a450513          	addi	a0,a0,932 # 13a4 <.Lline_table_start1+0x1179>
   1ac56:	00a105b3          	add	a1,sp,a0
   1ac5a:	6505                	lui	a0,0x1
   1ac5c:	34050513          	addi	a0,a0,832 # 1340 <.Lline_table_start1+0x1115>
   1ac60:	950a                	add	a0,a0,sp
   1ac62:	03500613          	li	a2,53
   1ac66:	00002097          	auipc	ra,0x2
   1ac6a:	0ca080e7          	jalr	202(ra) # 1cd30 <memcpy>
   1ac6e:	c019                	beqz	s0,1ac74 <_start+0x2a04>
   1ac70:	7a50106f          	j	1cc14 <_start+0x49a4>
   1ac74:	02411503          	lh	a0,36(sp)
   1ac78:	02614583          	lbu	a1,38(sp)
   1ac7c:	0189d613          	srli	a2,s3,0x18
   1ac80:	0109d693          	srli	a3,s3,0x10
   1ac84:	20da0da3          	sb	a3,539(s4)
   1ac88:	20ca0e23          	sb	a2,540(s4)
   1ac8c:	0089d613          	srli	a2,s3,0x8
   1ac90:	20aa1b23          	sh	a0,534(s4)
   1ac94:	20ba0c23          	sb	a1,536(s4)
   1ac98:	213a0ca3          	sb	s3,537(s4)
   1ac9c:	20ca0d23          	sb	a2,538(s4)
   1aca0:	7ff10513          	addi	a0,sp,2047
   1aca4:	1cc50513          	addi	a0,a0,460
   1aca8:	6585                	lui	a1,0x1
   1acaa:	34058593          	addi	a1,a1,832 # 1340 <.Lline_table_start1+0x1115>
   1acae:	958a                	add	a1,a1,sp
   1acb0:	03500613          	li	a2,53
   1acb4:	00002097          	auipc	ra,0x2
   1acb8:	07c080e7          	jalr	124(ra) # 1cd30 <memcpy>
   1acbc:	6505                	lui	a0,0x1
   1acbe:	39c50513          	addi	a0,a0,924 # 139c <.Lline_table_start1+0x1171>
   1acc2:	950a                	add	a0,a0,sp
   1acc4:	7ff10593          	addi	a1,sp,2047
   1acc8:	1c558593          	addi	a1,a1,453
   1accc:	ffffa097          	auipc	ra,0xffffa
   1acd0:	358080e7          	jalr	856(ra) # 15024 <_ZN18complex_no_dynamic3app17h899ff863f77ffe1bE>
   1acd4:	3ec94403          	lbu	s0,1004(s2)
   1acd8:	c401                	beqz	s0,1ace0 <_start+0x2a70>
   1acda:	3f092983          	lw	s3,1008(s2)
   1acde:	a835                	j	1ad1a <_start+0x2aaa>
   1ace0:	3ee94503          	lbu	a0,1006(s2)
   1ace4:	3ed94583          	lbu	a1,1005(s2)
   1ace8:	3ef94603          	lbu	a2,1007(s2)
   1acec:	3f092983          	lw	s3,1008(s2)
   1acf0:	0522                	slli	a0,a0,0x8
   1acf2:	8d4d                	or	a0,a0,a1
   1acf4:	02a11223          	sh	a0,36(sp)
   1acf8:	02c10323          	sb	a2,38(sp)
   1acfc:	6505                	lui	a0,0x1
   1acfe:	3a450513          	addi	a0,a0,932 # 13a4 <.Lline_table_start1+0x1179>
   1ad02:	00a105b3          	add	a1,sp,a0
   1ad06:	6505                	lui	a0,0x1
   1ad08:	34050513          	addi	a0,a0,832 # 1340 <.Lline_table_start1+0x1115>
   1ad0c:	950a                	add	a0,a0,sp
   1ad0e:	03100613          	li	a2,49
   1ad12:	00002097          	auipc	ra,0x2
   1ad16:	01e080e7          	jalr	30(ra) # 1cd30 <memcpy>
   1ad1a:	c019                	beqz	s0,1ad20 <_start+0x2ab0>
   1ad1c:	6f90106f          	j	1cc14 <_start+0x49a4>
   1ad20:	02411503          	lh	a0,36(sp)
   1ad24:	02614583          	lbu	a1,38(sp)
   1ad28:	0189d613          	srli	a2,s3,0x18
   1ad2c:	0109d693          	srli	a3,s3,0x10
   1ad30:	24da0ba3          	sb	a3,599(s4)
   1ad34:	24ca0c23          	sb	a2,600(s4)
   1ad38:	0089d613          	srli	a2,s3,0x8
   1ad3c:	24aa1923          	sh	a0,594(s4)
   1ad40:	24ba0a23          	sb	a1,596(s4)
   1ad44:	253a0aa3          	sb	s3,597(s4)
   1ad48:	24ca0b23          	sb	a2,598(s4)
   1ad4c:	7ff10513          	addi	a0,sp,2047
   1ad50:	20850513          	addi	a0,a0,520
   1ad54:	6585                	lui	a1,0x1
   1ad56:	34058593          	addi	a1,a1,832 # 1340 <.Lline_table_start1+0x1115>
   1ad5a:	958a                	add	a1,a1,sp
   1ad5c:	03100613          	li	a2,49
   1ad60:	00002097          	auipc	ra,0x2
   1ad64:	fd0080e7          	jalr	-48(ra) # 1cd30 <memcpy>
   1ad68:	6505                	lui	a0,0x1
   1ad6a:	39c50513          	addi	a0,a0,924 # 139c <.Lline_table_start1+0x1171>
   1ad6e:	950a                	add	a0,a0,sp
   1ad70:	7ff10593          	addi	a1,sp,2047
   1ad74:	20158593          	addi	a1,a1,513
   1ad78:	ffffd097          	auipc	ra,0xffffd
   1ad7c:	8d2080e7          	jalr	-1838(ra) # 1764a <_ZN18complex_no_dynamic3app17hee7e9342cefef0e8E>
   1ad80:	3ec94503          	lbu	a0,1004(s2)
   1ad84:	c501                	beqz	a0,1ad8c <_start+0x2b1c>
   1ad86:	3f092983          	lw	s3,1008(s2)
   1ad8a:	a8b9                	j	1ade8 <_start+0x2b78>
   1ad8c:	3ed94583          	lbu	a1,1005(s2)
   1ad90:	3ee94603          	lbu	a2,1006(s2)
   1ad94:	3ef94683          	lbu	a3,1007(s2)
   1ad98:	3f092983          	lw	s3,1008(s2)
   1ad9c:	3f492703          	lw	a4,1012(s2)
   1ada0:	3f892783          	lw	a5,1016(s2)
   1ada4:	3fc92483          	lw	s1,1020(s2)
   1ada8:	40092403          	lw	s0,1024(s2)
   1adac:	0622                	slli	a2,a2,0x8
   1adae:	38e92823          	sw	a4,912(s2)
   1adb2:	38f92a23          	sw	a5,916(s2)
   1adb6:	38992c23          	sw	s1,920(s2)
   1adba:	38892e23          	sw	s0,924(s2)
   1adbe:	8dd1                	or	a1,a1,a2
   1adc0:	02b11223          	sh	a1,36(sp)
   1adc4:	02d10323          	sb	a3,38(sp)
   1adc8:	40492583          	lw	a1,1028(s2)
   1adcc:	40892603          	lw	a2,1032(s2)
   1add0:	40c92683          	lw	a3,1036(s2)
   1add4:	41092703          	lw	a4,1040(s2)
   1add8:	3ab92023          	sw	a1,928(s2)
   1addc:	3ac92223          	sw	a2,932(s2)
   1ade0:	3ad92423          	sw	a3,936(s2)
   1ade4:	3ae92623          	sw	a4,940(s2)
   1ade8:	c119                	beqz	a0,1adee <_start+0x2b7e>
   1adea:	62b0106f          	j	1cc14 <_start+0x49a4>
   1adee:	02411503          	lh	a0,36(sp)
   1adf2:	02614583          	lbu	a1,38(sp)
   1adf6:	0189d613          	srli	a2,s3,0x18
   1adfa:	0109d693          	srli	a3,s3,0x10
   1adfe:	28da07a3          	sb	a3,655(s4)
   1ae02:	28ca0823          	sb	a2,656(s4)
   1ae06:	0089d613          	srli	a2,s3,0x8
   1ae0a:	28aa1523          	sh	a0,650(s4)
   1ae0e:	28ba0623          	sb	a1,652(s4)
   1ae12:	293a06a3          	sb	s3,653(s4)
   1ae16:	28ca0723          	sb	a2,654(s4)
   1ae1a:	7ff10513          	addi	a0,sp,2047
   1ae1e:	24050513          	addi	a0,a0,576
   1ae22:	6585                	lui	a1,0x1
   1ae24:	34058593          	addi	a1,a1,832 # 1340 <.Lline_table_start1+0x1115>
   1ae28:	958a                	add	a1,a1,sp
   1ae2a:	02000613          	li	a2,32
   1ae2e:	00002097          	auipc	ra,0x2
   1ae32:	f02080e7          	jalr	-254(ra) # 1cd30 <memcpy>
   1ae36:	6505                	lui	a0,0x1
   1ae38:	39c50513          	addi	a0,a0,924 # 139c <.Lline_table_start1+0x1171>
   1ae3c:	950a                	add	a0,a0,sp
   1ae3e:	7ff10593          	addi	a1,sp,2047
   1ae42:	23958593          	addi	a1,a1,569
   1ae46:	ffff9097          	auipc	ra,0xffff9
   1ae4a:	b88080e7          	jalr	-1144(ra) # 139ce <_ZN18complex_no_dynamic3app17h6463082dcbc9e59cE>
   1ae4e:	3ec94403          	lbu	s0,1004(s2)
   1ae52:	c401                	beqz	s0,1ae5a <_start+0x2bea>
   1ae54:	3f092983          	lw	s3,1008(s2)
   1ae58:	a835                	j	1ae94 <_start+0x2c24>
   1ae5a:	3ee94503          	lbu	a0,1006(s2)
   1ae5e:	3ed94583          	lbu	a1,1005(s2)
   1ae62:	3ef94603          	lbu	a2,1007(s2)
   1ae66:	3f092983          	lw	s3,1008(s2)
   1ae6a:	0522                	slli	a0,a0,0x8
   1ae6c:	8d4d                	or	a0,a0,a1
   1ae6e:	02a11223          	sh	a0,36(sp)
   1ae72:	02c10323          	sb	a2,38(sp)
   1ae76:	6505                	lui	a0,0x1
   1ae78:	3a450513          	addi	a0,a0,932 # 13a4 <.Lline_table_start1+0x1179>
   1ae7c:	00a105b3          	add	a1,sp,a0
   1ae80:	6505                	lui	a0,0x1
   1ae82:	34050513          	addi	a0,a0,832 # 1340 <.Lline_table_start1+0x1115>
   1ae86:	950a                	add	a0,a0,sp
   1ae88:	04a00613          	li	a2,74
   1ae8c:	00002097          	auipc	ra,0x2
   1ae90:	ea4080e7          	jalr	-348(ra) # 1cd30 <memcpy>
   1ae94:	c019                	beqz	s0,1ae9a <_start+0x2c2a>
   1ae96:	57f0106f          	j	1cc14 <_start+0x49a4>
   1ae9a:	02411503          	lh	a0,36(sp)
   1ae9e:	02614583          	lbu	a1,38(sp)
   1aea2:	0189d613          	srli	a2,s3,0x18
   1aea6:	0109d693          	srli	a3,s3,0x10
   1aeaa:	2ada0ba3          	sb	a3,695(s4)
   1aeae:	2aca0c23          	sb	a2,696(s4)
   1aeb2:	0089d613          	srli	a2,s3,0x8
   1aeb6:	2aaa1923          	sh	a0,690(s4)
   1aeba:	2aba0a23          	sb	a1,692(s4)
   1aebe:	2b3a0aa3          	sb	s3,693(s4)
   1aec2:	2aca0b23          	sb	a2,694(s4)
   1aec6:	7ff10513          	addi	a0,sp,2047
   1aeca:	26850513          	addi	a0,a0,616
   1aece:	6585                	lui	a1,0x1
   1aed0:	34058593          	addi	a1,a1,832 # 1340 <.Lline_table_start1+0x1115>
   1aed4:	958a                	add	a1,a1,sp
   1aed6:	04a00613          	li	a2,74
   1aeda:	00002097          	auipc	ra,0x2
   1aede:	e56080e7          	jalr	-426(ra) # 1cd30 <memcpy>
   1aee2:	6505                	lui	a0,0x1
   1aee4:	39c50513          	addi	a0,a0,924 # 139c <.Lline_table_start1+0x1171>
   1aee8:	950a                	add	a0,a0,sp
   1aeea:	7ff10593          	addi	a1,sp,2047
   1aeee:	26158593          	addi	a1,a1,609
   1aef2:	ffffc097          	auipc	ra,0xffffc
   1aef6:	64a080e7          	jalr	1610(ra) # 1753c <_ZN18complex_no_dynamic3app17hedca22993e5437ceE>
   1aefa:	3ec94403          	lbu	s0,1004(s2)
   1aefe:	c401                	beqz	s0,1af06 <_start+0x2c96>
   1af00:	3f092983          	lw	s3,1008(s2)
   1af04:	a835                	j	1af40 <_start+0x2cd0>
   1af06:	3ee94503          	lbu	a0,1006(s2)
   1af0a:	3ed94583          	lbu	a1,1005(s2)
   1af0e:	3ef94603          	lbu	a2,1007(s2)
   1af12:	3f092983          	lw	s3,1008(s2)
   1af16:	0522                	slli	a0,a0,0x8
   1af18:	8d4d                	or	a0,a0,a1
   1af1a:	02a11223          	sh	a0,36(sp)
   1af1e:	02c10323          	sb	a2,38(sp)
   1af22:	6505                	lui	a0,0x1
   1af24:	3a450513          	addi	a0,a0,932 # 13a4 <.Lline_table_start1+0x1179>
   1af28:	00a105b3          	add	a1,sp,a0
   1af2c:	6505                	lui	a0,0x1
   1af2e:	34050513          	addi	a0,a0,832 # 1340 <.Lline_table_start1+0x1115>
   1af32:	950a                	add	a0,a0,sp
   1af34:	04800613          	li	a2,72
   1af38:	00002097          	auipc	ra,0x2
   1af3c:	df8080e7          	jalr	-520(ra) # 1cd30 <memcpy>
   1af40:	c019                	beqz	s0,1af46 <_start+0x2cd6>
   1af42:	4d30106f          	j	1cc14 <_start+0x49a4>
   1af46:	02411503          	lh	a0,36(sp)
   1af4a:	02614583          	lbu	a1,38(sp)
   1af4e:	0189d613          	srli	a2,s3,0x18
   1af52:	0109d693          	srli	a3,s3,0x10
   1af56:	30da04a3          	sb	a3,777(s4)
   1af5a:	30ca0523          	sb	a2,778(s4)
   1af5e:	0089d613          	srli	a2,s3,0x8
   1af62:	30aa1223          	sh	a0,772(s4)
   1af66:	30ba0323          	sb	a1,774(s4)
   1af6a:	313a03a3          	sb	s3,775(s4)
   1af6e:	30ca0423          	sb	a2,776(s4)
   1af72:	7ff10513          	addi	a0,sp,2047
   1af76:	2ba50513          	addi	a0,a0,698
   1af7a:	6585                	lui	a1,0x1
   1af7c:	34058593          	addi	a1,a1,832 # 1340 <.Lline_table_start1+0x1115>
   1af80:	958a                	add	a1,a1,sp
   1af82:	04800613          	li	a2,72
   1af86:	00002097          	auipc	ra,0x2
   1af8a:	daa080e7          	jalr	-598(ra) # 1cd30 <memcpy>
   1af8e:	6505                	lui	a0,0x1
   1af90:	39c50513          	addi	a0,a0,924 # 139c <.Lline_table_start1+0x1171>
   1af94:	950a                	add	a0,a0,sp
   1af96:	7ff10593          	addi	a1,sp,2047
   1af9a:	2b358593          	addi	a1,a1,691
   1af9e:	ffff9097          	auipc	ra,0xffff9
   1afa2:	47a080e7          	jalr	1146(ra) # 14418 <_ZN18complex_no_dynamic3app17h719fe286d39a62ecE>
   1afa6:	3ec94403          	lbu	s0,1004(s2)
   1afaa:	c401                	beqz	s0,1afb2 <_start+0x2d42>
   1afac:	3f092983          	lw	s3,1008(s2)
   1afb0:	a835                	j	1afec <_start+0x2d7c>
   1afb2:	3ee94503          	lbu	a0,1006(s2)
   1afb6:	3ed94583          	lbu	a1,1005(s2)
   1afba:	3ef94603          	lbu	a2,1007(s2)
   1afbe:	3f092983          	lw	s3,1008(s2)
   1afc2:	0522                	slli	a0,a0,0x8
   1afc4:	8d4d                	or	a0,a0,a1
   1afc6:	02a11223          	sh	a0,36(sp)
   1afca:	02c10323          	sb	a2,38(sp)
   1afce:	6505                	lui	a0,0x1
   1afd0:	3a450513          	addi	a0,a0,932 # 13a4 <.Lline_table_start1+0x1179>
   1afd4:	00a105b3          	add	a1,sp,a0
   1afd8:	6505                	lui	a0,0x1
   1afda:	34050513          	addi	a0,a0,832 # 1340 <.Lline_table_start1+0x1115>
   1afde:	950a                	add	a0,a0,sp
   1afe0:	05a00613          	li	a2,90
   1afe4:	00002097          	auipc	ra,0x2
   1afe8:	d4c080e7          	jalr	-692(ra) # 1cd30 <memcpy>
   1afec:	c019                	beqz	s0,1aff2 <_start+0x2d82>
   1afee:	4270106f          	j	1cc14 <_start+0x49a4>
   1aff2:	02411503          	lh	a0,36(sp)
   1aff6:	02614583          	lbu	a1,38(sp)
   1affa:	0189d613          	srli	a2,s3,0x18
   1affe:	0109d693          	srli	a3,s3,0x10
   1b002:	34da0ca3          	sb	a3,857(s4)
   1b006:	34ca0d23          	sb	a2,858(s4)
   1b00a:	0089d613          	srli	a2,s3,0x8
   1b00e:	34aa1a23          	sh	a0,852(s4)
   1b012:	34ba0b23          	sb	a1,854(s4)
   1b016:	353a0ba3          	sb	s3,855(s4)
   1b01a:	34ca0c23          	sb	a2,856(s4)
   1b01e:	7ff10513          	addi	a0,sp,2047
   1b022:	30a50513          	addi	a0,a0,778
   1b026:	6585                	lui	a1,0x1
   1b028:	34058593          	addi	a1,a1,832 # 1340 <.Lline_table_start1+0x1115>
   1b02c:	958a                	add	a1,a1,sp
   1b02e:	05a00613          	li	a2,90
   1b032:	00002097          	auipc	ra,0x2
   1b036:	cfe080e7          	jalr	-770(ra) # 1cd30 <memcpy>
   1b03a:	6505                	lui	a0,0x1
   1b03c:	39c50513          	addi	a0,a0,924 # 139c <.Lline_table_start1+0x1171>
   1b040:	950a                	add	a0,a0,sp
   1b042:	7ff10593          	addi	a1,sp,2047
   1b046:	30358593          	addi	a1,a1,771
   1b04a:	ffffb097          	auipc	ra,0xffffb
   1b04e:	8ec080e7          	jalr	-1812(ra) # 15936 <_ZN18complex_no_dynamic3app17h97a7296478d8871dE>
   1b052:	3ec94503          	lbu	a0,1004(s2)
   1b056:	c501                	beqz	a0,1b05e <_start+0x2dee>
   1b058:	3f092983          	lw	s3,1008(s2)
   1b05c:	a899                	j	1b0b2 <_start+0x2e42>
   1b05e:	3ed94583          	lbu	a1,1005(s2)
   1b062:	3ee94603          	lbu	a2,1006(s2)
   1b066:	3ef94683          	lbu	a3,1007(s2)
   1b06a:	3f092983          	lw	s3,1008(s2)
   1b06e:	3f492703          	lw	a4,1012(s2)
   1b072:	3f892783          	lw	a5,1016(s2)
   1b076:	3fc92483          	lw	s1,1020(s2)
   1b07a:	40092403          	lw	s0,1024(s2)
   1b07e:	0622                	slli	a2,a2,0x8
   1b080:	38e92823          	sw	a4,912(s2)
   1b084:	38f92a23          	sw	a5,916(s2)
   1b088:	38992c23          	sw	s1,920(s2)
   1b08c:	38892e23          	sw	s0,924(s2)
   1b090:	8dd1                	or	a1,a1,a2
   1b092:	40492603          	lw	a2,1028(s2)
   1b096:	40891703          	lh	a4,1032(s2)
   1b09a:	40a94783          	lbu	a5,1034(s2)
   1b09e:	02b11223          	sh	a1,36(sp)
   1b0a2:	02d10323          	sb	a3,38(sp)
   1b0a6:	3ac92023          	sw	a2,928(s2)
   1b0aa:	3ae91223          	sh	a4,932(s2)
   1b0ae:	3af90323          	sb	a5,934(s2)
   1b0b2:	c119                	beqz	a0,1b0b8 <_start+0x2e48>
   1b0b4:	3610106f          	j	1cc14 <_start+0x49a4>
   1b0b8:	02411503          	lh	a0,36(sp)
   1b0bc:	02614583          	lbu	a1,38(sp)
   1b0c0:	0189d613          	srli	a2,s3,0x18
   1b0c4:	0109d693          	srli	a3,s3,0x10
   1b0c8:	3ada0da3          	sb	a3,955(s4)
   1b0cc:	3aca0e23          	sb	a2,956(s4)
   1b0d0:	0089d613          	srli	a2,s3,0x8
   1b0d4:	3aaa1b23          	sh	a0,950(s4)
   1b0d8:	3aba0c23          	sb	a1,952(s4)
   1b0dc:	3b3a0ca3          	sb	s3,953(s4)
   1b0e0:	3aca0d23          	sb	a2,954(s4)
   1b0e4:	7ff10513          	addi	a0,sp,2047
   1b0e8:	36c50513          	addi	a0,a0,876
   1b0ec:	6585                	lui	a1,0x1
   1b0ee:	34058593          	addi	a1,a1,832 # 1340 <.Lline_table_start1+0x1115>
   1b0f2:	958a                	add	a1,a1,sp
   1b0f4:	465d                	li	a2,23
   1b0f6:	00002097          	auipc	ra,0x2
   1b0fa:	c3a080e7          	jalr	-966(ra) # 1cd30 <memcpy>
   1b0fe:	6505                	lui	a0,0x1
   1b100:	39c50513          	addi	a0,a0,924 # 139c <.Lline_table_start1+0x1171>
   1b104:	950a                	add	a0,a0,sp
   1b106:	7ff10593          	addi	a1,sp,2047
   1b10a:	36558593          	addi	a1,a1,869
   1b10e:	ffffa097          	auipc	ra,0xffffa
   1b112:	32a080e7          	jalr	810(ra) # 15438 <_ZN18complex_no_dynamic3app17h92d4f3aabea34978E>
   1b116:	3ec94503          	lbu	a0,1004(s2)
   1b11a:	c501                	beqz	a0,1b122 <_start+0x2eb2>
   1b11c:	3f092983          	lw	s3,1008(s2)
   1b120:	a899                	j	1b176 <_start+0x2f06>
   1b122:	3ed94583          	lbu	a1,1005(s2)
   1b126:	3ee94603          	lbu	a2,1006(s2)
   1b12a:	3ef94683          	lbu	a3,1007(s2)
   1b12e:	3f092983          	lw	s3,1008(s2)
   1b132:	3f492703          	lw	a4,1012(s2)
   1b136:	3f892783          	lw	a5,1016(s2)
   1b13a:	3fc92483          	lw	s1,1020(s2)
   1b13e:	40092403          	lw	s0,1024(s2)
   1b142:	0622                	slli	a2,a2,0x8
   1b144:	38e92823          	sw	a4,912(s2)
   1b148:	38f92a23          	sw	a5,916(s2)
   1b14c:	38992c23          	sw	s1,920(s2)
   1b150:	38892e23          	sw	s0,924(s2)
   1b154:	8dd1                	or	a1,a1,a2
   1b156:	40492603          	lw	a2,1028(s2)
   1b15a:	40892703          	lw	a4,1032(s2)
   1b15e:	40c91783          	lh	a5,1036(s2)
   1b162:	02b11223          	sh	a1,36(sp)
   1b166:	02d10323          	sb	a3,38(sp)
   1b16a:	3ac92023          	sw	a2,928(s2)
   1b16e:	3ae92223          	sw	a4,932(s2)
   1b172:	3af91423          	sh	a5,936(s2)
   1b176:	c119                	beqz	a0,1b17c <_start+0x2f0c>
   1b178:	29d0106f          	j	1cc14 <_start+0x49a4>
   1b17c:	02411503          	lh	a0,36(sp)
   1b180:	02614583          	lbu	a1,38(sp)
   1b184:	0189d613          	srli	a2,s3,0x18
   1b188:	0109d693          	srli	a3,s3,0x10
   1b18c:	3cda0ca3          	sb	a3,985(s4)
   1b190:	3cca0d23          	sb	a2,986(s4)
   1b194:	0089d613          	srli	a2,s3,0x8
   1b198:	3caa1a23          	sh	a0,980(s4)
   1b19c:	3cba0b23          	sb	a1,982(s4)
   1b1a0:	3d3a0ba3          	sb	s3,983(s4)
   1b1a4:	3cca0c23          	sb	a2,984(s4)
   1b1a8:	7ff10513          	addi	a0,sp,2047
   1b1ac:	38a50513          	addi	a0,a0,906
   1b1b0:	6585                	lui	a1,0x1
   1b1b2:	34058593          	addi	a1,a1,832 # 1340 <.Lline_table_start1+0x1115>
   1b1b6:	958a                	add	a1,a1,sp
   1b1b8:	4669                	li	a2,26
   1b1ba:	00002097          	auipc	ra,0x2
   1b1be:	b76080e7          	jalr	-1162(ra) # 1cd30 <memcpy>
   1b1c2:	6505                	lui	a0,0x1
   1b1c4:	39c50513          	addi	a0,a0,924 # 139c <.Lline_table_start1+0x1171>
   1b1c8:	950a                	add	a0,a0,sp
   1b1ca:	7ff10593          	addi	a1,sp,2047
   1b1ce:	38358593          	addi	a1,a1,899
   1b1d2:	ffff8097          	auipc	ra,0xffff8
   1b1d6:	5e2080e7          	jalr	1506(ra) # 137b4 <_ZN18complex_no_dynamic3app17h5c2a550d9cab2e7aE>
   1b1da:	3ec94403          	lbu	s0,1004(s2)
   1b1de:	c401                	beqz	s0,1b1e6 <_start+0x2f76>
   1b1e0:	3f092983          	lw	s3,1008(s2)
   1b1e4:	a835                	j	1b220 <_start+0x2fb0>
   1b1e6:	3ee94503          	lbu	a0,1006(s2)
   1b1ea:	3ed94583          	lbu	a1,1005(s2)
   1b1ee:	3ef94603          	lbu	a2,1007(s2)
   1b1f2:	3f092983          	lw	s3,1008(s2)
   1b1f6:	0522                	slli	a0,a0,0x8
   1b1f8:	8d4d                	or	a0,a0,a1
   1b1fa:	02a11223          	sh	a0,36(sp)
   1b1fe:	02c10323          	sb	a2,38(sp)
   1b202:	6505                	lui	a0,0x1
   1b204:	3a450513          	addi	a0,a0,932 # 13a4 <.Lline_table_start1+0x1179>
   1b208:	00a105b3          	add	a1,sp,a0
   1b20c:	6505                	lui	a0,0x1
   1b20e:	34050513          	addi	a0,a0,832 # 1340 <.Lline_table_start1+0x1115>
   1b212:	950a                	add	a0,a0,sp
   1b214:	02300613          	li	a2,35
   1b218:	00002097          	auipc	ra,0x2
   1b21c:	b18080e7          	jalr	-1256(ra) # 1cd30 <memcpy>
   1b220:	c019                	beqz	s0,1b226 <_start+0x2fb6>
   1b222:	1f30106f          	j	1cc14 <_start+0x49a4>
   1b226:	02411503          	lh	a0,36(sp)
   1b22a:	02614583          	lbu	a1,38(sp)
   1b22e:	0189d613          	srli	a2,s3,0x18
   1b232:	0109d693          	srli	a3,s3,0x10
   1b236:	3eda0da3          	sb	a3,1019(s4)
   1b23a:	3eca0e23          	sb	a2,1020(s4)
   1b23e:	0089d613          	srli	a2,s3,0x8
   1b242:	3eaa1b23          	sh	a0,1014(s4)
   1b246:	3eba0c23          	sb	a1,1016(s4)
   1b24a:	3f3a0ca3          	sb	s3,1017(s4)
   1b24e:	3eca0d23          	sb	a2,1018(s4)
   1b252:	7ff10513          	addi	a0,sp,2047
   1b256:	3ac50513          	addi	a0,a0,940
   1b25a:	6585                	lui	a1,0x1
   1b25c:	34058593          	addi	a1,a1,832 # 1340 <.Lline_table_start1+0x1115>
   1b260:	958a                	add	a1,a1,sp
   1b262:	02300613          	li	a2,35
   1b266:	00002097          	auipc	ra,0x2
   1b26a:	aca080e7          	jalr	-1334(ra) # 1cd30 <memcpy>
   1b26e:	6505                	lui	a0,0x1
   1b270:	39c50513          	addi	a0,a0,924 # 139c <.Lline_table_start1+0x1171>
   1b274:	950a                	add	a0,a0,sp
   1b276:	7ff10593          	addi	a1,sp,2047
   1b27a:	3a558593          	addi	a1,a1,933
   1b27e:	ffffc097          	auipc	ra,0xffffc
   1b282:	4de080e7          	jalr	1246(ra) # 1775c <_ZN18complex_no_dynamic3app17heea1b2106ef40d58E>
   1b286:	3ec94403          	lbu	s0,1004(s2)
   1b28a:	c401                	beqz	s0,1b292 <_start+0x3022>
   1b28c:	3f092983          	lw	s3,1008(s2)
   1b290:	a835                	j	1b2cc <_start+0x305c>
   1b292:	3ee94503          	lbu	a0,1006(s2)
   1b296:	3ed94583          	lbu	a1,1005(s2)
   1b29a:	3ef94603          	lbu	a2,1007(s2)
   1b29e:	3f092983          	lw	s3,1008(s2)
   1b2a2:	0522                	slli	a0,a0,0x8
   1b2a4:	8d4d                	or	a0,a0,a1
   1b2a6:	02a11223          	sh	a0,36(sp)
   1b2aa:	02c10323          	sb	a2,38(sp)
   1b2ae:	6505                	lui	a0,0x1
   1b2b0:	3a450513          	addi	a0,a0,932 # 13a4 <.Lline_table_start1+0x1179>
   1b2b4:	00a105b3          	add	a1,sp,a0
   1b2b8:	6505                	lui	a0,0x1
   1b2ba:	34050513          	addi	a0,a0,832 # 1340 <.Lline_table_start1+0x1115>
   1b2be:	950a                	add	a0,a0,sp
   1b2c0:	05200613          	li	a2,82
   1b2c4:	00002097          	auipc	ra,0x2
   1b2c8:	a6c080e7          	jalr	-1428(ra) # 1cd30 <memcpy>
   1b2cc:	c019                	beqz	s0,1b2d2 <_start+0x3062>
   1b2ce:	1470106f          	j	1cc14 <_start+0x49a4>
   1b2d2:	02411503          	lh	a0,36(sp)
   1b2d6:	02614583          	lbu	a1,38(sp)
   1b2da:	0189d613          	srli	a2,s3,0x18
   1b2de:	0109d693          	srli	a3,s3,0x10
   1b2e2:	42da02a3          	sb	a3,1061(s4)
   1b2e6:	42ca0323          	sb	a2,1062(s4)
   1b2ea:	0089d613          	srli	a2,s3,0x8
   1b2ee:	42aa1023          	sh	a0,1056(s4)
   1b2f2:	42ba0123          	sb	a1,1058(s4)
   1b2f6:	433a01a3          	sb	s3,1059(s4)
   1b2fa:	42ca0223          	sb	a2,1060(s4)
   1b2fe:	7ff10513          	addi	a0,sp,2047
   1b302:	3d650513          	addi	a0,a0,982
   1b306:	6585                	lui	a1,0x1
   1b308:	34058593          	addi	a1,a1,832 # 1340 <.Lline_table_start1+0x1115>
   1b30c:	958a                	add	a1,a1,sp
   1b30e:	05200613          	li	a2,82
   1b312:	00002097          	auipc	ra,0x2
   1b316:	a1e080e7          	jalr	-1506(ra) # 1cd30 <memcpy>
   1b31a:	6505                	lui	a0,0x1
   1b31c:	39c50513          	addi	a0,a0,924 # 139c <.Lline_table_start1+0x1171>
   1b320:	950a                	add	a0,a0,sp
   1b322:	7ff10593          	addi	a1,sp,2047
   1b326:	3cf58593          	addi	a1,a1,975
   1b32a:	ffff7097          	auipc	ra,0xffff7
   1b32e:	908080e7          	jalr	-1784(ra) # 11c32 <_ZN18complex_no_dynamic3app17h1b75b8c0a88e64fcE>
   1b332:	3ec94403          	lbu	s0,1004(s2)
   1b336:	c401                	beqz	s0,1b33e <_start+0x30ce>
   1b338:	3f092983          	lw	s3,1008(s2)
   1b33c:	a835                	j	1b378 <_start+0x3108>
   1b33e:	3ee94503          	lbu	a0,1006(s2)
   1b342:	3ed94583          	lbu	a1,1005(s2)
   1b346:	3ef94603          	lbu	a2,1007(s2)
   1b34a:	3f092983          	lw	s3,1008(s2)
   1b34e:	0522                	slli	a0,a0,0x8
   1b350:	8d4d                	or	a0,a0,a1
   1b352:	02a11223          	sh	a0,36(sp)
   1b356:	02c10323          	sb	a2,38(sp)
   1b35a:	6505                	lui	a0,0x1
   1b35c:	3a450513          	addi	a0,a0,932 # 13a4 <.Lline_table_start1+0x1179>
   1b360:	00a105b3          	add	a1,sp,a0
   1b364:	6505                	lui	a0,0x1
   1b366:	34050513          	addi	a0,a0,832 # 1340 <.Lline_table_start1+0x1115>
   1b36a:	950a                	add	a0,a0,sp
   1b36c:	04300613          	li	a2,67
   1b370:	00002097          	auipc	ra,0x2
   1b374:	9c0080e7          	jalr	-1600(ra) # 1cd30 <memcpy>
   1b378:	c019                	beqz	s0,1b37e <_start+0x310e>
   1b37a:	09b0106f          	j	1cc14 <_start+0x49a4>
   1b37e:	02411503          	lh	a0,36(sp)
   1b382:	02614583          	lbu	a1,38(sp)
   1b386:	0189d613          	srli	a2,s3,0x18
   1b38a:	0109d693          	srli	a3,s3,0x10
   1b38e:	46da0fa3          	sb	a3,1151(s4)
   1b392:	48ca0023          	sb	a2,1152(s4)
   1b396:	0089d613          	srli	a2,s3,0x8
   1b39a:	46aa1d23          	sh	a0,1146(s4)
   1b39e:	46ba0e23          	sb	a1,1148(s4)
   1b3a2:	473a0ea3          	sb	s3,1149(s4)
   1b3a6:	46ca0f23          	sb	a2,1150(s4)
   1b3aa:	7ff10513          	addi	a0,sp,2047
   1b3ae:	43050513          	addi	a0,a0,1072
   1b3b2:	6585                	lui	a1,0x1
   1b3b4:	34058593          	addi	a1,a1,832 # 1340 <.Lline_table_start1+0x1115>
   1b3b8:	958a                	add	a1,a1,sp
   1b3ba:	04300613          	li	a2,67
   1b3be:	00002097          	auipc	ra,0x2
   1b3c2:	972080e7          	jalr	-1678(ra) # 1cd30 <memcpy>
   1b3c6:	6505                	lui	a0,0x1
   1b3c8:	39c50513          	addi	a0,a0,924 # 139c <.Lline_table_start1+0x1171>
   1b3cc:	950a                	add	a0,a0,sp
   1b3ce:	7ff10593          	addi	a1,sp,2047
   1b3d2:	42958593          	addi	a1,a1,1065
   1b3d6:	ffff9097          	auipc	ra,0xffff9
   1b3da:	e1e080e7          	jalr	-482(ra) # 141f4 <_ZN18complex_no_dynamic3app17h6b3b365845bc2b04E>
   1b3de:	3ec94403          	lbu	s0,1004(s2)
   1b3e2:	c401                	beqz	s0,1b3ea <_start+0x317a>
   1b3e4:	3f092983          	lw	s3,1008(s2)
   1b3e8:	a835                	j	1b424 <_start+0x31b4>
   1b3ea:	3ee94503          	lbu	a0,1006(s2)
   1b3ee:	3ed94583          	lbu	a1,1005(s2)
   1b3f2:	3ef94603          	lbu	a2,1007(s2)
   1b3f6:	3f092983          	lw	s3,1008(s2)
   1b3fa:	0522                	slli	a0,a0,0x8
   1b3fc:	8d4d                	or	a0,a0,a1
   1b3fe:	02a11223          	sh	a0,36(sp)
   1b402:	02c10323          	sb	a2,38(sp)
   1b406:	6505                	lui	a0,0x1
   1b408:	3a450513          	addi	a0,a0,932 # 13a4 <.Lline_table_start1+0x1179>
   1b40c:	00a105b3          	add	a1,sp,a0
   1b410:	6505                	lui	a0,0x1
   1b412:	34050513          	addi	a0,a0,832 # 1340 <.Lline_table_start1+0x1115>
   1b416:	950a                	add	a0,a0,sp
   1b418:	02600613          	li	a2,38
   1b41c:	00002097          	auipc	ra,0x2
   1b420:	914080e7          	jalr	-1772(ra) # 1cd30 <memcpy>
   1b424:	c019                	beqz	s0,1b42a <_start+0x31ba>
   1b426:	7ee0106f          	j	1cc14 <_start+0x49a4>
   1b42a:	02411503          	lh	a0,36(sp)
   1b42e:	02614583          	lbu	a1,38(sp)
   1b432:	0189d613          	srli	a2,s3,0x18
   1b436:	0109d693          	srli	a3,s3,0x10
   1b43a:	4cda04a3          	sb	a3,1225(s4)
   1b43e:	4cca0523          	sb	a2,1226(s4)
   1b442:	0089d613          	srli	a2,s3,0x8
   1b446:	4caa1223          	sh	a0,1220(s4)
   1b44a:	4cba0323          	sb	a1,1222(s4)
   1b44e:	4d3a03a3          	sb	s3,1223(s4)
   1b452:	4cca0423          	sb	a2,1224(s4)
   1b456:	7ff10513          	addi	a0,sp,2047
   1b45a:	47a50513          	addi	a0,a0,1146
   1b45e:	6585                	lui	a1,0x1
   1b460:	34058593          	addi	a1,a1,832 # 1340 <.Lline_table_start1+0x1115>
   1b464:	958a                	add	a1,a1,sp
   1b466:	02600613          	li	a2,38
   1b46a:	00002097          	auipc	ra,0x2
   1b46e:	8c6080e7          	jalr	-1850(ra) # 1cd30 <memcpy>
   1b472:	6505                	lui	a0,0x1
   1b474:	39c50513          	addi	a0,a0,924 # 139c <.Lline_table_start1+0x1171>
   1b478:	950a                	add	a0,a0,sp
   1b47a:	7ff10593          	addi	a1,sp,2047
   1b47e:	47358593          	addi	a1,a1,1139
   1b482:	ffffa097          	auipc	ra,0xffffa
   1b486:	dac080e7          	jalr	-596(ra) # 1522e <_ZN18complex_no_dynamic3app17h8aa5a0db16d7e5a9E>
   1b48a:	3ec94403          	lbu	s0,1004(s2)
   1b48e:	c401                	beqz	s0,1b496 <_start+0x3226>
   1b490:	3f092983          	lw	s3,1008(s2)
   1b494:	a835                	j	1b4d0 <_start+0x3260>
   1b496:	3ee94503          	lbu	a0,1006(s2)
   1b49a:	3ed94583          	lbu	a1,1005(s2)
   1b49e:	3ef94603          	lbu	a2,1007(s2)
   1b4a2:	3f092983          	lw	s3,1008(s2)
   1b4a6:	0522                	slli	a0,a0,0x8
   1b4a8:	8d4d                	or	a0,a0,a1
   1b4aa:	02a11223          	sh	a0,36(sp)
   1b4ae:	02c10323          	sb	a2,38(sp)
   1b4b2:	6505                	lui	a0,0x1
   1b4b4:	3a450513          	addi	a0,a0,932 # 13a4 <.Lline_table_start1+0x1179>
   1b4b8:	00a105b3          	add	a1,sp,a0
   1b4bc:	6505                	lui	a0,0x1
   1b4be:	34050513          	addi	a0,a0,832 # 1340 <.Lline_table_start1+0x1115>
   1b4c2:	950a                	add	a0,a0,sp
   1b4c4:	04c00613          	li	a2,76
   1b4c8:	00002097          	auipc	ra,0x2
   1b4cc:	868080e7          	jalr	-1944(ra) # 1cd30 <memcpy>
   1b4d0:	c019                	beqz	s0,1b4d6 <_start+0x3266>
   1b4d2:	7420106f          	j	1cc14 <_start+0x49a4>
   1b4d6:	02411503          	lh	a0,36(sp)
   1b4da:	02614583          	lbu	a1,38(sp)
   1b4de:	0189d613          	srli	a2,s3,0x18
   1b4e2:	0109d693          	srli	a3,s3,0x10
   1b4e6:	4eda0ba3          	sb	a3,1271(s4)
   1b4ea:	4eca0c23          	sb	a2,1272(s4)
   1b4ee:	0089d613          	srli	a2,s3,0x8
   1b4f2:	4eaa1923          	sh	a0,1266(s4)
   1b4f6:	4eba0a23          	sb	a1,1268(s4)
   1b4fa:	4f3a0aa3          	sb	s3,1269(s4)
   1b4fe:	4eca0b23          	sb	a2,1270(s4)
   1b502:	7ff10513          	addi	a0,sp,2047
   1b506:	4a850513          	addi	a0,a0,1192
   1b50a:	6585                	lui	a1,0x1
   1b50c:	34058593          	addi	a1,a1,832 # 1340 <.Lline_table_start1+0x1115>
   1b510:	958a                	add	a1,a1,sp
   1b512:	04c00613          	li	a2,76
   1b516:	00002097          	auipc	ra,0x2
   1b51a:	81a080e7          	jalr	-2022(ra) # 1cd30 <memcpy>
   1b51e:	6505                	lui	a0,0x1
   1b520:	39c50513          	addi	a0,a0,924 # 139c <.Lline_table_start1+0x1171>
   1b524:	950a                	add	a0,a0,sp
   1b526:	7ff10593          	addi	a1,sp,2047
   1b52a:	4a158593          	addi	a1,a1,1185
   1b52e:	ffff9097          	auipc	ra,0xffff9
   1b532:	bb4080e7          	jalr	-1100(ra) # 140e2 <_ZN18complex_no_dynamic3app17h6a28419a729c6b78E>
   1b536:	3ec94403          	lbu	s0,1004(s2)
   1b53a:	c401                	beqz	s0,1b542 <_start+0x32d2>
   1b53c:	3f092983          	lw	s3,1008(s2)
   1b540:	a835                	j	1b57c <_start+0x330c>
   1b542:	3ee94503          	lbu	a0,1006(s2)
   1b546:	3ed94583          	lbu	a1,1005(s2)
   1b54a:	3ef94603          	lbu	a2,1007(s2)
   1b54e:	3f092983          	lw	s3,1008(s2)
   1b552:	0522                	slli	a0,a0,0x8
   1b554:	8d4d                	or	a0,a0,a1
   1b556:	02a11223          	sh	a0,36(sp)
   1b55a:	02c10323          	sb	a2,38(sp)
   1b55e:	6505                	lui	a0,0x1
   1b560:	3a450513          	addi	a0,a0,932 # 13a4 <.Lline_table_start1+0x1179>
   1b564:	00a105b3          	add	a1,sp,a0
   1b568:	6505                	lui	a0,0x1
   1b56a:	34050513          	addi	a0,a0,832 # 1340 <.Lline_table_start1+0x1115>
   1b56e:	950a                	add	a0,a0,sp
   1b570:	03300613          	li	a2,51
   1b574:	00001097          	auipc	ra,0x1
   1b578:	7bc080e7          	jalr	1980(ra) # 1cd30 <memcpy>
   1b57c:	c019                	beqz	s0,1b582 <_start+0x3312>
   1b57e:	6960106f          	j	1cc14 <_start+0x49a4>
   1b582:	02411503          	lh	a0,36(sp)
   1b586:	02614583          	lbu	a1,38(sp)
   1b58a:	0189d613          	srli	a2,s3,0x18
   1b58e:	0109d693          	srli	a3,s3,0x10
   1b592:	54da05a3          	sb	a3,1355(s4)
   1b596:	54ca0623          	sb	a2,1356(s4)
   1b59a:	0089d613          	srli	a2,s3,0x8
   1b59e:	54aa1323          	sh	a0,1350(s4)
   1b5a2:	54ba0423          	sb	a1,1352(s4)
   1b5a6:	553a04a3          	sb	s3,1353(s4)
   1b5aa:	54ca0523          	sb	a2,1354(s4)
   1b5ae:	7ff10513          	addi	a0,sp,2047
   1b5b2:	4fc50513          	addi	a0,a0,1276
   1b5b6:	6585                	lui	a1,0x1
   1b5b8:	34058593          	addi	a1,a1,832 # 1340 <.Lline_table_start1+0x1115>
   1b5bc:	958a                	add	a1,a1,sp
   1b5be:	03300613          	li	a2,51
   1b5c2:	00001097          	auipc	ra,0x1
   1b5c6:	76e080e7          	jalr	1902(ra) # 1cd30 <memcpy>
   1b5ca:	6505                	lui	a0,0x1
   1b5cc:	39c50513          	addi	a0,a0,924 # 139c <.Lline_table_start1+0x1171>
   1b5d0:	950a                	add	a0,a0,sp
   1b5d2:	7ff10593          	addi	a1,sp,2047
   1b5d6:	4f558593          	addi	a1,a1,1269
   1b5da:	ffffc097          	auipc	ra,0xffffc
   1b5de:	5c6080e7          	jalr	1478(ra) # 17ba0 <_ZN18complex_no_dynamic3app17hf385d3e18499aff8E>
   1b5e2:	3ec94403          	lbu	s0,1004(s2)
   1b5e6:	c401                	beqz	s0,1b5ee <_start+0x337e>
   1b5e8:	3f092983          	lw	s3,1008(s2)
   1b5ec:	a835                	j	1b628 <_start+0x33b8>
   1b5ee:	3ee94503          	lbu	a0,1006(s2)
   1b5f2:	3ed94583          	lbu	a1,1005(s2)
   1b5f6:	3ef94603          	lbu	a2,1007(s2)
   1b5fa:	3f092983          	lw	s3,1008(s2)
   1b5fe:	0522                	slli	a0,a0,0x8
   1b600:	8d4d                	or	a0,a0,a1
   1b602:	02a11223          	sh	a0,36(sp)
   1b606:	02c10323          	sb	a2,38(sp)
   1b60a:	6505                	lui	a0,0x1
   1b60c:	3a450513          	addi	a0,a0,932 # 13a4 <.Lline_table_start1+0x1179>
   1b610:	00a105b3          	add	a1,sp,a0
   1b614:	6505                	lui	a0,0x1
   1b616:	34050513          	addi	a0,a0,832 # 1340 <.Lline_table_start1+0x1115>
   1b61a:	950a                	add	a0,a0,sp
   1b61c:	05600613          	li	a2,86
   1b620:	00001097          	auipc	ra,0x1
   1b624:	710080e7          	jalr	1808(ra) # 1cd30 <memcpy>
   1b628:	c019                	beqz	s0,1b62e <_start+0x33be>
   1b62a:	5ea0106f          	j	1cc14 <_start+0x49a4>
   1b62e:	02411503          	lh	a0,36(sp)
   1b632:	02614583          	lbu	a1,38(sp)
   1b636:	0189d613          	srli	a2,s3,0x18
   1b63a:	0109d693          	srli	a3,s3,0x10
   1b63e:	58da02a3          	sb	a3,1413(s4)
   1b642:	58ca0323          	sb	a2,1414(s4)
   1b646:	0089d613          	srli	a2,s3,0x8
   1b64a:	58aa1023          	sh	a0,1408(s4)
   1b64e:	58ba0123          	sb	a1,1410(s4)
   1b652:	593a01a3          	sb	s3,1411(s4)
   1b656:	58ca0223          	sb	a2,1412(s4)
   1b65a:	7ff10513          	addi	a0,sp,2047
   1b65e:	53650513          	addi	a0,a0,1334
   1b662:	6585                	lui	a1,0x1
   1b664:	34058593          	addi	a1,a1,832 # 1340 <.Lline_table_start1+0x1115>
   1b668:	958a                	add	a1,a1,sp
   1b66a:	05600613          	li	a2,86
   1b66e:	00001097          	auipc	ra,0x1
   1b672:	6c2080e7          	jalr	1730(ra) # 1cd30 <memcpy>
   1b676:	6505                	lui	a0,0x1
   1b678:	39c50513          	addi	a0,a0,924 # 139c <.Lline_table_start1+0x1171>
   1b67c:	950a                	add	a0,a0,sp
   1b67e:	7ff10593          	addi	a1,sp,2047
   1b682:	52f58593          	addi	a1,a1,1327
   1b686:	ffffa097          	auipc	ra,0xffffa
   1b68a:	fc2080e7          	jalr	-62(ra) # 15648 <_ZN18complex_no_dynamic3app17h969caa8639c7ca7fE>
   1b68e:	3ec94403          	lbu	s0,1004(s2)
   1b692:	c401                	beqz	s0,1b69a <_start+0x342a>
   1b694:	3f092983          	lw	s3,1008(s2)
   1b698:	a835                	j	1b6d4 <_start+0x3464>
   1b69a:	3ee94503          	lbu	a0,1006(s2)
   1b69e:	3ed94583          	lbu	a1,1005(s2)
   1b6a2:	3ef94603          	lbu	a2,1007(s2)
   1b6a6:	3f092983          	lw	s3,1008(s2)
   1b6aa:	0522                	slli	a0,a0,0x8
   1b6ac:	8d4d                	or	a0,a0,a1
   1b6ae:	02a11223          	sh	a0,36(sp)
   1b6b2:	02c10323          	sb	a2,38(sp)
   1b6b6:	6505                	lui	a0,0x1
   1b6b8:	3a450513          	addi	a0,a0,932 # 13a4 <.Lline_table_start1+0x1179>
   1b6bc:	00a105b3          	add	a1,sp,a0
   1b6c0:	6505                	lui	a0,0x1
   1b6c2:	34050513          	addi	a0,a0,832 # 1340 <.Lline_table_start1+0x1115>
   1b6c6:	950a                	add	a0,a0,sp
   1b6c8:	03900613          	li	a2,57
   1b6cc:	00001097          	auipc	ra,0x1
   1b6d0:	664080e7          	jalr	1636(ra) # 1cd30 <memcpy>
   1b6d4:	c019                	beqz	s0,1b6da <_start+0x346a>
   1b6d6:	53e0106f          	j	1cc14 <_start+0x49a4>
   1b6da:	02411503          	lh	a0,36(sp)
   1b6de:	02614583          	lbu	a1,38(sp)
   1b6e2:	0189d613          	srli	a2,s3,0x18
   1b6e6:	0109d693          	srli	a3,s3,0x10
   1b6ea:	5eda01a3          	sb	a3,1507(s4)
   1b6ee:	5eca0223          	sb	a2,1508(s4)
   1b6f2:	0089d613          	srli	a2,s3,0x8
   1b6f6:	5caa1f23          	sh	a0,1502(s4)
   1b6fa:	5eba0023          	sb	a1,1504(s4)
   1b6fe:	5f3a00a3          	sb	s3,1505(s4)
   1b702:	5eca0123          	sb	a2,1506(s4)
   1b706:	7ff10513          	addi	a0,sp,2047
   1b70a:	59450513          	addi	a0,a0,1428
   1b70e:	6585                	lui	a1,0x1
   1b710:	34058593          	addi	a1,a1,832 # 1340 <.Lline_table_start1+0x1115>
   1b714:	958a                	add	a1,a1,sp
   1b716:	03900613          	li	a2,57
   1b71a:	00001097          	auipc	ra,0x1
   1b71e:	616080e7          	jalr	1558(ra) # 1cd30 <memcpy>
   1b722:	6505                	lui	a0,0x1
   1b724:	39c50513          	addi	a0,a0,924 # 139c <.Lline_table_start1+0x1171>
   1b728:	950a                	add	a0,a0,sp
   1b72a:	7ff10593          	addi	a1,sp,2047
   1b72e:	58d58593          	addi	a1,a1,1421
   1b732:	ffff8097          	auipc	ra,0xffff8
   1b736:	b88080e7          	jalr	-1144(ra) # 132ba <_ZN18complex_no_dynamic3app17h4d2bbdb6d3c487edE>
   1b73a:	3ec94403          	lbu	s0,1004(s2)
   1b73e:	c401                	beqz	s0,1b746 <_start+0x34d6>
   1b740:	3f092983          	lw	s3,1008(s2)
   1b744:	a835                	j	1b780 <_start+0x3510>
   1b746:	3ee94503          	lbu	a0,1006(s2)
   1b74a:	3ed94583          	lbu	a1,1005(s2)
   1b74e:	3ef94603          	lbu	a2,1007(s2)
   1b752:	3f092983          	lw	s3,1008(s2)
   1b756:	0522                	slli	a0,a0,0x8
   1b758:	8d4d                	or	a0,a0,a1
   1b75a:	02a11223          	sh	a0,36(sp)
   1b75e:	02c10323          	sb	a2,38(sp)
   1b762:	6505                	lui	a0,0x1
   1b764:	3a450513          	addi	a0,a0,932 # 13a4 <.Lline_table_start1+0x1179>
   1b768:	00a105b3          	add	a1,sp,a0
   1b76c:	6505                	lui	a0,0x1
   1b76e:	34050513          	addi	a0,a0,832 # 1340 <.Lline_table_start1+0x1115>
   1b772:	950a                	add	a0,a0,sp
   1b774:	02a00613          	li	a2,42
   1b778:	00001097          	auipc	ra,0x1
   1b77c:	5b8080e7          	jalr	1464(ra) # 1cd30 <memcpy>
   1b780:	c019                	beqz	s0,1b786 <_start+0x3516>
   1b782:	4920106f          	j	1cc14 <_start+0x49a4>
   1b786:	02411503          	lh	a0,36(sp)
   1b78a:	02614583          	lbu	a1,38(sp)
   1b78e:	0189d613          	srli	a2,s3,0x18
   1b792:	0109d693          	srli	a3,s3,0x10
   1b796:	62da01a3          	sb	a3,1571(s4)
   1b79a:	62ca0223          	sb	a2,1572(s4)
   1b79e:	0089d613          	srli	a2,s3,0x8
   1b7a2:	60aa1f23          	sh	a0,1566(s4)
   1b7a6:	62ba0023          	sb	a1,1568(s4)
   1b7aa:	633a00a3          	sb	s3,1569(s4)
   1b7ae:	62ca0123          	sb	a2,1570(s4)
   1b7b2:	7ff10513          	addi	a0,sp,2047
   1b7b6:	5d450513          	addi	a0,a0,1492
   1b7ba:	6585                	lui	a1,0x1
   1b7bc:	34058593          	addi	a1,a1,832 # 1340 <.Lline_table_start1+0x1115>
   1b7c0:	958a                	add	a1,a1,sp
   1b7c2:	02a00613          	li	a2,42
   1b7c6:	00001097          	auipc	ra,0x1
   1b7ca:	56a080e7          	jalr	1386(ra) # 1cd30 <memcpy>
   1b7ce:	6505                	lui	a0,0x1
   1b7d0:	39c50513          	addi	a0,a0,924 # 139c <.Lline_table_start1+0x1171>
   1b7d4:	950a                	add	a0,a0,sp
   1b7d6:	7ff10593          	addi	a1,sp,2047
   1b7da:	5cd58593          	addi	a1,a1,1485
   1b7de:	ffff6097          	auipc	ra,0xffff6
   1b7e2:	770080e7          	jalr	1904(ra) # 11f4e <_ZN18complex_no_dynamic3app17h1d86c41f4363bbd9E>
   1b7e6:	3ec94403          	lbu	s0,1004(s2)
   1b7ea:	c401                	beqz	s0,1b7f2 <_start+0x3582>
   1b7ec:	3f092983          	lw	s3,1008(s2)
   1b7f0:	a835                	j	1b82c <_start+0x35bc>
   1b7f2:	3ee94503          	lbu	a0,1006(s2)
   1b7f6:	3ed94583          	lbu	a1,1005(s2)
   1b7fa:	3ef94603          	lbu	a2,1007(s2)
   1b7fe:	3f092983          	lw	s3,1008(s2)
   1b802:	0522                	slli	a0,a0,0x8
   1b804:	8d4d                	or	a0,a0,a1
   1b806:	02a11223          	sh	a0,36(sp)
   1b80a:	02c10323          	sb	a2,38(sp)
   1b80e:	6505                	lui	a0,0x1
   1b810:	3a450513          	addi	a0,a0,932 # 13a4 <.Lline_table_start1+0x1179>
   1b814:	00a105b3          	add	a1,sp,a0
   1b818:	6505                	lui	a0,0x1
   1b81a:	34050513          	addi	a0,a0,832 # 1340 <.Lline_table_start1+0x1115>
   1b81e:	950a                	add	a0,a0,sp
   1b820:	04100613          	li	a2,65
   1b824:	00001097          	auipc	ra,0x1
   1b828:	50c080e7          	jalr	1292(ra) # 1cd30 <memcpy>
   1b82c:	c019                	beqz	s0,1b832 <_start+0x35c2>
   1b82e:	3e60106f          	j	1cc14 <_start+0x49a4>
   1b832:	02411503          	lh	a0,36(sp)
   1b836:	02614583          	lbu	a1,38(sp)
   1b83a:	0189d613          	srli	a2,s3,0x18
   1b83e:	0109d693          	srli	a3,s3,0x10
   1b842:	64da0aa3          	sb	a3,1621(s4)
   1b846:	64ca0b23          	sb	a2,1622(s4)
   1b84a:	0089d613          	srli	a2,s3,0x8
   1b84e:	64aa1823          	sh	a0,1616(s4)
   1b852:	64ba0923          	sb	a1,1618(s4)
   1b856:	653a09a3          	sb	s3,1619(s4)
   1b85a:	64ca0a23          	sb	a2,1620(s4)
   1b85e:	7ff10513          	addi	a0,sp,2047
   1b862:	60650513          	addi	a0,a0,1542
   1b866:	6585                	lui	a1,0x1
   1b868:	34058593          	addi	a1,a1,832 # 1340 <.Lline_table_start1+0x1115>
   1b86c:	958a                	add	a1,a1,sp
   1b86e:	04100613          	li	a2,65
   1b872:	00001097          	auipc	ra,0x1
   1b876:	4be080e7          	jalr	1214(ra) # 1cd30 <memcpy>
   1b87a:	6505                	lui	a0,0x1
   1b87c:	39c50513          	addi	a0,a0,924 # 139c <.Lline_table_start1+0x1171>
   1b880:	950a                	add	a0,a0,sp
   1b882:	7ff10593          	addi	a1,sp,2047
   1b886:	5ff58593          	addi	a1,a1,1535
   1b88a:	ffff9097          	auipc	ra,0xffff9
   1b88e:	a7c080e7          	jalr	-1412(ra) # 14306 <_ZN18complex_no_dynamic3app17h6ead3e5ea65186d4E>
   1b892:	3ec94403          	lbu	s0,1004(s2)
   1b896:	c401                	beqz	s0,1b89e <_start+0x362e>
   1b898:	3f092983          	lw	s3,1008(s2)
   1b89c:	a835                	j	1b8d8 <_start+0x3668>
   1b89e:	3ee94503          	lbu	a0,1006(s2)
   1b8a2:	3ed94583          	lbu	a1,1005(s2)
   1b8a6:	3ef94603          	lbu	a2,1007(s2)
   1b8aa:	3f092983          	lw	s3,1008(s2)
   1b8ae:	0522                	slli	a0,a0,0x8
   1b8b0:	8d4d                	or	a0,a0,a1
   1b8b2:	02a11223          	sh	a0,36(sp)
   1b8b6:	02c10323          	sb	a2,38(sp)
   1b8ba:	6505                	lui	a0,0x1
   1b8bc:	3a450513          	addi	a0,a0,932 # 13a4 <.Lline_table_start1+0x1179>
   1b8c0:	00a105b3          	add	a1,sp,a0
   1b8c4:	6505                	lui	a0,0x1
   1b8c6:	34050513          	addi	a0,a0,832 # 1340 <.Lline_table_start1+0x1115>
   1b8ca:	950a                	add	a0,a0,sp
   1b8cc:	02200613          	li	a2,34
   1b8d0:	00001097          	auipc	ra,0x1
   1b8d4:	460080e7          	jalr	1120(ra) # 1cd30 <memcpy>
   1b8d8:	c019                	beqz	s0,1b8de <_start+0x366e>
   1b8da:	33a0106f          	j	1cc14 <_start+0x49a4>
   1b8de:	02411503          	lh	a0,36(sp)
   1b8e2:	02614583          	lbu	a1,38(sp)
   1b8e6:	0189d613          	srli	a2,s3,0x18
   1b8ea:	0109d693          	srli	a3,s3,0x10
   1b8ee:	68da0ea3          	sb	a3,1693(s4)
   1b8f2:	68ca0f23          	sb	a2,1694(s4)
   1b8f6:	0089d613          	srli	a2,s3,0x8
   1b8fa:	68aa1c23          	sh	a0,1688(s4)
   1b8fe:	68ba0d23          	sb	a1,1690(s4)
   1b902:	693a0da3          	sb	s3,1691(s4)
   1b906:	68ca0e23          	sb	a2,1692(s4)
   1b90a:	7ff10513          	addi	a0,sp,2047
   1b90e:	64e50513          	addi	a0,a0,1614
   1b912:	6585                	lui	a1,0x1
   1b914:	34058593          	addi	a1,a1,832 # 1340 <.Lline_table_start1+0x1115>
   1b918:	958a                	add	a1,a1,sp
   1b91a:	02200613          	li	a2,34
   1b91e:	00001097          	auipc	ra,0x1
   1b922:	412080e7          	jalr	1042(ra) # 1cd30 <memcpy>
   1b926:	6505                	lui	a0,0x1
   1b928:	39c50513          	addi	a0,a0,924 # 139c <.Lline_table_start1+0x1171>
   1b92c:	950a                	add	a0,a0,sp
   1b92e:	7ff10593          	addi	a1,sp,2047
   1b932:	64758593          	addi	a1,a1,1607
   1b936:	ffff7097          	auipc	ra,0xffff7
   1b93a:	8ea080e7          	jalr	-1814(ra) # 12220 <_ZN18complex_no_dynamic3app17h1f0413a463be90ddE>
   1b93e:	3ec94503          	lbu	a0,1004(s2)
   1b942:	c501                	beqz	a0,1b94a <_start+0x36da>
   1b944:	3f092983          	lw	s3,1008(s2)
   1b948:	a0b9                	j	1b996 <_start+0x3726>
   1b94a:	3ed94583          	lbu	a1,1005(s2)
   1b94e:	3ee94603          	lbu	a2,1006(s2)
   1b952:	3ef94683          	lbu	a3,1007(s2)
   1b956:	3f092983          	lw	s3,1008(s2)
   1b95a:	3f492703          	lw	a4,1012(s2)
   1b95e:	3f892783          	lw	a5,1016(s2)
   1b962:	3fc92483          	lw	s1,1020(s2)
   1b966:	40092403          	lw	s0,1024(s2)
   1b96a:	0622                	slli	a2,a2,0x8
   1b96c:	38e92823          	sw	a4,912(s2)
   1b970:	38f92a23          	sw	a5,916(s2)
   1b974:	38992c23          	sw	s1,920(s2)
   1b978:	38892e23          	sw	s0,924(s2)
   1b97c:	8dd1                	or	a1,a1,a2
   1b97e:	40491603          	lh	a2,1028(s2)
   1b982:	40694703          	lbu	a4,1030(s2)
   1b986:	02b11223          	sh	a1,36(sp)
   1b98a:	02d10323          	sb	a3,38(sp)
   1b98e:	3ac91023          	sh	a2,928(s2)
   1b992:	3ae90123          	sb	a4,930(s2)
   1b996:	c119                	beqz	a0,1b99c <_start+0x372c>
   1b998:	27c0106f          	j	1cc14 <_start+0x49a4>
   1b99c:	02411503          	lh	a0,36(sp)
   1b9a0:	02614583          	lbu	a1,38(sp)
   1b9a4:	0189d613          	srli	a2,s3,0x18
   1b9a8:	0109d693          	srli	a3,s3,0x10
   1b9ac:	6cda03a3          	sb	a3,1735(s4)
   1b9b0:	6cca0423          	sb	a2,1736(s4)
   1b9b4:	0089d613          	srli	a2,s3,0x8
   1b9b8:	6caa1123          	sh	a0,1730(s4)
   1b9bc:	6cba0223          	sb	a1,1732(s4)
   1b9c0:	6d3a02a3          	sb	s3,1733(s4)
   1b9c4:	6cca0323          	sb	a2,1734(s4)
   1b9c8:	7ff10513          	addi	a0,sp,2047
   1b9cc:	67850513          	addi	a0,a0,1656
   1b9d0:	6585                	lui	a1,0x1
   1b9d2:	34058593          	addi	a1,a1,832 # 1340 <.Lline_table_start1+0x1115>
   1b9d6:	958a                	add	a1,a1,sp
   1b9d8:	464d                	li	a2,19
   1b9da:	00001097          	auipc	ra,0x1
   1b9de:	356080e7          	jalr	854(ra) # 1cd30 <memcpy>
   1b9e2:	6505                	lui	a0,0x1
   1b9e4:	39c50513          	addi	a0,a0,924 # 139c <.Lline_table_start1+0x1171>
   1b9e8:	950a                	add	a0,a0,sp
   1b9ea:	7ff10593          	addi	a1,sp,2047
   1b9ee:	67158593          	addi	a1,a1,1649
   1b9f2:	ffff8097          	auipc	ra,0xffff8
   1b9f6:	ae6080e7          	jalr	-1306(ra) # 134d8 <_ZN18complex_no_dynamic3app17h4f069c9ec0b48445E>
   1b9fa:	3ec94503          	lbu	a0,1004(s2)
   1b9fe:	c501                	beqz	a0,1ba06 <_start+0x3796>
   1ba00:	3f092983          	lw	s3,1008(s2)
   1ba04:	a099                	j	1ba4a <_start+0x37da>
   1ba06:	3ed94583          	lbu	a1,1005(s2)
   1ba0a:	3ee94603          	lbu	a2,1006(s2)
   1ba0e:	3ef94683          	lbu	a3,1007(s2)
   1ba12:	3f092983          	lw	s3,1008(s2)
   1ba16:	3f492703          	lw	a4,1012(s2)
   1ba1a:	3f892783          	lw	a5,1016(s2)
   1ba1e:	3fc92483          	lw	s1,1020(s2)
   1ba22:	40092403          	lw	s0,1024(s2)
   1ba26:	38e92823          	sw	a4,912(s2)
   1ba2a:	38f92a23          	sw	a5,916(s2)
   1ba2e:	38992c23          	sw	s1,920(s2)
   1ba32:	38892e23          	sw	s0,924(s2)
   1ba36:	40492703          	lw	a4,1028(s2)
   1ba3a:	0622                	slli	a2,a2,0x8
   1ba3c:	8dd1                	or	a1,a1,a2
   1ba3e:	02b11223          	sh	a1,36(sp)
   1ba42:	02d10323          	sb	a3,38(sp)
   1ba46:	3ae92023          	sw	a4,928(s2)
   1ba4a:	c119                	beqz	a0,1ba50 <_start+0x37e0>
   1ba4c:	1c80106f          	j	1cc14 <_start+0x49a4>
   1ba50:	02411503          	lh	a0,36(sp)
   1ba54:	02614583          	lbu	a1,38(sp)
   1ba58:	0189d613          	srli	a2,s3,0x18
   1ba5c:	0109d693          	srli	a3,s3,0x10
   1ba60:	6eda00a3          	sb	a3,1761(s4)
   1ba64:	6eca0123          	sb	a2,1762(s4)
   1ba68:	0089d613          	srli	a2,s3,0x8
   1ba6c:	6caa1e23          	sh	a0,1756(s4)
   1ba70:	6cba0f23          	sb	a1,1758(s4)
   1ba74:	6d3a0fa3          	sb	s3,1759(s4)
   1ba78:	6eca0023          	sb	a2,1760(s4)
   1ba7c:	7ff10513          	addi	a0,sp,2047
   1ba80:	69250513          	addi	a0,a0,1682
   1ba84:	6585                	lui	a1,0x1
   1ba86:	34058593          	addi	a1,a1,832 # 1340 <.Lline_table_start1+0x1115>
   1ba8a:	958a                	add	a1,a1,sp
   1ba8c:	4651                	li	a2,20
   1ba8e:	00001097          	auipc	ra,0x1
   1ba92:	2a2080e7          	jalr	674(ra) # 1cd30 <memcpy>
   1ba96:	6505                	lui	a0,0x1
   1ba98:	39c50513          	addi	a0,a0,924 # 139c <.Lline_table_start1+0x1171>
   1ba9c:	950a                	add	a0,a0,sp
   1ba9e:	7ff10593          	addi	a1,sp,2047
   1baa2:	68b58593          	addi	a1,a1,1675
   1baa6:	ffffa097          	auipc	ra,0xffffa
   1baaa:	cae080e7          	jalr	-850(ra) # 15754 <_ZN18complex_no_dynamic3app17h9740be2991ca01a4E>
   1baae:	3ec94403          	lbu	s0,1004(s2)
   1bab2:	c401                	beqz	s0,1baba <_start+0x384a>
   1bab4:	3f092983          	lw	s3,1008(s2)
   1bab8:	a835                	j	1baf4 <_start+0x3884>
   1baba:	3ee94503          	lbu	a0,1006(s2)
   1babe:	3ed94583          	lbu	a1,1005(s2)
   1bac2:	3ef94603          	lbu	a2,1007(s2)
   1bac6:	3f092983          	lw	s3,1008(s2)
   1baca:	0522                	slli	a0,a0,0x8
   1bacc:	8d4d                	or	a0,a0,a1
   1bace:	02a11223          	sh	a0,36(sp)
   1bad2:	02c10323          	sb	a2,38(sp)
   1bad6:	6505                	lui	a0,0x1
   1bad8:	3a450513          	addi	a0,a0,932 # 13a4 <.Lline_table_start1+0x1179>
   1badc:	00a105b3          	add	a1,sp,a0
   1bae0:	6505                	lui	a0,0x1
   1bae2:	34050513          	addi	a0,a0,832 # 1340 <.Lline_table_start1+0x1115>
   1bae6:	950a                	add	a0,a0,sp
   1bae8:	03a00613          	li	a2,58
   1baec:	00001097          	auipc	ra,0x1
   1baf0:	244080e7          	jalr	580(ra) # 1cd30 <memcpy>
   1baf4:	c019                	beqz	s0,1bafa <_start+0x388a>
   1baf6:	11e0106f          	j	1cc14 <_start+0x49a4>
   1bafa:	02411503          	lh	a0,36(sp)
   1bafe:	02614583          	lbu	a1,38(sp)
   1bb02:	0189d613          	srli	a2,s3,0x18
   1bb06:	0109d693          	srli	a3,s3,0x10
   1bb0a:	6eda0ea3          	sb	a3,1789(s4)
   1bb0e:	6eca0f23          	sb	a2,1790(s4)
   1bb12:	0089d613          	srli	a2,s3,0x8
   1bb16:	6eaa1c23          	sh	a0,1784(s4)
   1bb1a:	6eba0d23          	sb	a1,1786(s4)
   1bb1e:	6f3a0da3          	sb	s3,1787(s4)
   1bb22:	6eca0e23          	sb	a2,1788(s4)
   1bb26:	7ff10513          	addi	a0,sp,2047
   1bb2a:	6ae50513          	addi	a0,a0,1710
   1bb2e:	6585                	lui	a1,0x1
   1bb30:	34058593          	addi	a1,a1,832 # 1340 <.Lline_table_start1+0x1115>
   1bb34:	958a                	add	a1,a1,sp
   1bb36:	03a00613          	li	a2,58
   1bb3a:	00001097          	auipc	ra,0x1
   1bb3e:	1f6080e7          	jalr	502(ra) # 1cd30 <memcpy>
   1bb42:	6505                	lui	a0,0x1
   1bb44:	39c50513          	addi	a0,a0,924 # 139c <.Lline_table_start1+0x1171>
   1bb48:	950a                	add	a0,a0,sp
   1bb4a:	7ff10593          	addi	a1,sp,2047
   1bb4e:	6a758593          	addi	a1,a1,1703
   1bb52:	ffffb097          	auipc	ra,0xffffb
   1bb56:	89e080e7          	jalr	-1890(ra) # 163f0 <_ZN18complex_no_dynamic3app17hbde440c2f33910a4E>
   1bb5a:	3ec94503          	lbu	a0,1004(s2)
   1bb5e:	c501                	beqz	a0,1bb66 <_start+0x38f6>
   1bb60:	3f092983          	lw	s3,1008(s2)
   1bb64:	a099                	j	1bbaa <_start+0x393a>
   1bb66:	3ed94583          	lbu	a1,1005(s2)
   1bb6a:	3ee94603          	lbu	a2,1006(s2)
   1bb6e:	3ef94683          	lbu	a3,1007(s2)
   1bb72:	3f092983          	lw	s3,1008(s2)
   1bb76:	3f492703          	lw	a4,1012(s2)
   1bb7a:	3f892783          	lw	a5,1016(s2)
   1bb7e:	3fc92483          	lw	s1,1020(s2)
   1bb82:	40092403          	lw	s0,1024(s2)
   1bb86:	38e92823          	sw	a4,912(s2)
   1bb8a:	38f92a23          	sw	a5,916(s2)
   1bb8e:	38992c23          	sw	s1,920(s2)
   1bb92:	38892e23          	sw	s0,924(s2)
   1bb96:	40494703          	lbu	a4,1028(s2)
   1bb9a:	0622                	slli	a2,a2,0x8
   1bb9c:	8dd1                	or	a1,a1,a2
   1bb9e:	02b11223          	sh	a1,36(sp)
   1bba2:	02d10323          	sb	a3,38(sp)
   1bba6:	3ae90023          	sb	a4,928(s2)
   1bbaa:	c119                	beqz	a0,1bbb0 <_start+0x3940>
   1bbac:	0680106f          	j	1cc14 <_start+0x49a4>
   1bbb0:	02411503          	lh	a0,36(sp)
   1bbb4:	02614583          	lbu	a1,38(sp)
   1bbb8:	0189d613          	srli	a2,s3,0x18
   1bbbc:	0109d693          	srli	a3,s3,0x10
   1bbc0:	72da0fa3          	sb	a3,1855(s4)
   1bbc4:	74ca0023          	sb	a2,1856(s4)
   1bbc8:	0089d613          	srli	a2,s3,0x8
   1bbcc:	72aa1d23          	sh	a0,1850(s4)
   1bbd0:	72ba0e23          	sb	a1,1852(s4)
   1bbd4:	733a0ea3          	sb	s3,1853(s4)
   1bbd8:	72ca0f23          	sb	a2,1854(s4)
   1bbdc:	7ff10513          	addi	a0,sp,2047
   1bbe0:	6f050513          	addi	a0,a0,1776
   1bbe4:	6585                	lui	a1,0x1
   1bbe6:	34058593          	addi	a1,a1,832 # 1340 <.Lline_table_start1+0x1115>
   1bbea:	958a                	add	a1,a1,sp
   1bbec:	4645                	li	a2,17
   1bbee:	00001097          	auipc	ra,0x1
   1bbf2:	142080e7          	jalr	322(ra) # 1cd30 <memcpy>
   1bbf6:	6505                	lui	a0,0x1
   1bbf8:	39c50513          	addi	a0,a0,924 # 139c <.Lline_table_start1+0x1171>
   1bbfc:	950a                	add	a0,a0,sp
   1bbfe:	7ff10593          	addi	a1,sp,2047
   1bc02:	6e958593          	addi	a1,a1,1769
   1bc06:	ffffa097          	auipc	ra,0xffffa
   1bc0a:	406080e7          	jalr	1030(ra) # 1600c <_ZN18complex_no_dynamic3app17hac33aee129478e47E>
   1bc0e:	3ec94503          	lbu	a0,1004(s2)
   1bc12:	c501                	beqz	a0,1bc1a <_start+0x39aa>
   1bc14:	3f092983          	lw	s3,1008(s2)
   1bc18:	a899                	j	1bc6e <_start+0x39fe>
   1bc1a:	3ed94583          	lbu	a1,1005(s2)
   1bc1e:	3ee94603          	lbu	a2,1006(s2)
   1bc22:	3ef94683          	lbu	a3,1007(s2)
   1bc26:	3f092983          	lw	s3,1008(s2)
   1bc2a:	3f492703          	lw	a4,1012(s2)
   1bc2e:	3f892783          	lw	a5,1016(s2)
   1bc32:	3fc92483          	lw	s1,1020(s2)
   1bc36:	40092403          	lw	s0,1024(s2)
   1bc3a:	0622                	slli	a2,a2,0x8
   1bc3c:	38e92823          	sw	a4,912(s2)
   1bc40:	38f92a23          	sw	a5,916(s2)
   1bc44:	38992c23          	sw	s1,920(s2)
   1bc48:	38892e23          	sw	s0,924(s2)
   1bc4c:	8dd1                	or	a1,a1,a2
   1bc4e:	40492603          	lw	a2,1028(s2)
   1bc52:	40891703          	lh	a4,1032(s2)
   1bc56:	40a94783          	lbu	a5,1034(s2)
   1bc5a:	02b11223          	sh	a1,36(sp)
   1bc5e:	02d10323          	sb	a3,38(sp)
   1bc62:	3ac92023          	sw	a2,928(s2)
   1bc66:	3ae91223          	sh	a4,932(s2)
   1bc6a:	3af90323          	sb	a5,934(s2)
   1bc6e:	c119                	beqz	a0,1bc74 <_start+0x3a04>
   1bc70:	7a50006f          	j	1cc14 <_start+0x49a4>
   1bc74:	02411503          	lh	a0,36(sp)
   1bc78:	02614583          	lbu	a1,38(sp)
   1bc7c:	0189d613          	srli	a2,s3,0x18
   1bc80:	0109d693          	srli	a3,s3,0x10
   1bc84:	74da0ba3          	sb	a3,1879(s4)
   1bc88:	74ca0c23          	sb	a2,1880(s4)
   1bc8c:	0089d613          	srli	a2,s3,0x8
   1bc90:	74aa1923          	sh	a0,1874(s4)
   1bc94:	74ba0a23          	sb	a1,1876(s4)
   1bc98:	753a0aa3          	sb	s3,1877(s4)
   1bc9c:	74ca0b23          	sb	a2,1878(s4)
   1bca0:	7ff10513          	addi	a0,sp,2047
   1bca4:	70850513          	addi	a0,a0,1800
   1bca8:	6585                	lui	a1,0x1
   1bcaa:	34058593          	addi	a1,a1,832 # 1340 <.Lline_table_start1+0x1115>
   1bcae:	958a                	add	a1,a1,sp
   1bcb0:	465d                	li	a2,23
   1bcb2:	00001097          	auipc	ra,0x1
   1bcb6:	07e080e7          	jalr	126(ra) # 1cd30 <memcpy>
   1bcba:	6505                	lui	a0,0x1
   1bcbc:	39c50513          	addi	a0,a0,924 # 139c <.Lline_table_start1+0x1171>
   1bcc0:	950a                	add	a0,a0,sp
   1bcc2:	7ff10593          	addi	a1,sp,2047
   1bcc6:	70158593          	addi	a1,a1,1793
   1bcca:	ffff6097          	auipc	ra,0xffff6
   1bcce:	c5a080e7          	jalr	-934(ra) # 11924 <_ZN18complex_no_dynamic3app17h161dd5102ff7c16eE>
   1bcd2:	3ec94403          	lbu	s0,1004(s2)
   1bcd6:	c401                	beqz	s0,1bcde <_start+0x3a6e>
   1bcd8:	3f092983          	lw	s3,1008(s2)
   1bcdc:	a835                	j	1bd18 <_start+0x3aa8>
   1bcde:	3ee94503          	lbu	a0,1006(s2)
   1bce2:	3ed94583          	lbu	a1,1005(s2)
   1bce6:	3ef94603          	lbu	a2,1007(s2)
   1bcea:	3f092983          	lw	s3,1008(s2)
   1bcee:	0522                	slli	a0,a0,0x8
   1bcf0:	8d4d                	or	a0,a0,a1
   1bcf2:	02a11223          	sh	a0,36(sp)
   1bcf6:	02c10323          	sb	a2,38(sp)
   1bcfa:	6505                	lui	a0,0x1
   1bcfc:	3a450513          	addi	a0,a0,932 # 13a4 <.Lline_table_start1+0x1179>
   1bd00:	00a105b3          	add	a1,sp,a0
   1bd04:	6505                	lui	a0,0x1
   1bd06:	34050513          	addi	a0,a0,832 # 1340 <.Lline_table_start1+0x1115>
   1bd0a:	950a                	add	a0,a0,sp
   1bd0c:	03500613          	li	a2,53
   1bd10:	00001097          	auipc	ra,0x1
   1bd14:	020080e7          	jalr	32(ra) # 1cd30 <memcpy>
   1bd18:	6e041ee3          	bnez	s0,1cc14 <_start+0x49a4>
   1bd1c:	02411503          	lh	a0,36(sp)
   1bd20:	02614583          	lbu	a1,38(sp)
   1bd24:	0189d613          	srli	a2,s3,0x18
   1bd28:	0109d693          	srli	a3,s3,0x10
   1bd2c:	76da0aa3          	sb	a3,1909(s4)
   1bd30:	76ca0b23          	sb	a2,1910(s4)
   1bd34:	0089d613          	srli	a2,s3,0x8
   1bd38:	76aa1823          	sh	a0,1904(s4)
   1bd3c:	76ba0923          	sb	a1,1906(s4)
   1bd40:	773a09a3          	sb	s3,1907(s4)
   1bd44:	76ca0a23          	sb	a2,1908(s4)
   1bd48:	7ff10513          	addi	a0,sp,2047
   1bd4c:	72650513          	addi	a0,a0,1830
   1bd50:	6585                	lui	a1,0x1
   1bd52:	34058593          	addi	a1,a1,832 # 1340 <.Lline_table_start1+0x1115>
   1bd56:	958a                	add	a1,a1,sp
   1bd58:	03500613          	li	a2,53
   1bd5c:	00001097          	auipc	ra,0x1
   1bd60:	fd4080e7          	jalr	-44(ra) # 1cd30 <memcpy>
   1bd64:	6505                	lui	a0,0x1
   1bd66:	39c50513          	addi	a0,a0,924 # 139c <.Lline_table_start1+0x1171>
   1bd6a:	950a                	add	a0,a0,sp
   1bd6c:	7ff10593          	addi	a1,sp,2047
   1bd70:	71f58593          	addi	a1,a1,1823
   1bd74:	ffff7097          	auipc	ra,0xffff7
   1bd78:	b82080e7          	jalr	-1150(ra) # 128f6 <_ZN18complex_no_dynamic3app17h2d77d5fe17e99232E>
   1bd7c:	3ec94403          	lbu	s0,1004(s2)
   1bd80:	c401                	beqz	s0,1bd88 <_start+0x3b18>
   1bd82:	3f092983          	lw	s3,1008(s2)
   1bd86:	a835                	j	1bdc2 <_start+0x3b52>
   1bd88:	3ee94503          	lbu	a0,1006(s2)
   1bd8c:	3ed94583          	lbu	a1,1005(s2)
   1bd90:	3ef94603          	lbu	a2,1007(s2)
   1bd94:	3f092983          	lw	s3,1008(s2)
   1bd98:	0522                	slli	a0,a0,0x8
   1bd9a:	8d4d                	or	a0,a0,a1
   1bd9c:	02a11223          	sh	a0,36(sp)
   1bda0:	02c10323          	sb	a2,38(sp)
   1bda4:	6505                	lui	a0,0x1
   1bda6:	3a450513          	addi	a0,a0,932 # 13a4 <.Lline_table_start1+0x1179>
   1bdaa:	00a105b3          	add	a1,sp,a0
   1bdae:	6505                	lui	a0,0x1
   1bdb0:	34050513          	addi	a0,a0,832 # 1340 <.Lline_table_start1+0x1115>
   1bdb4:	950a                	add	a0,a0,sp
   1bdb6:	02500613          	li	a2,37
   1bdba:	00001097          	auipc	ra,0x1
   1bdbe:	f76080e7          	jalr	-138(ra) # 1cd30 <memcpy>
   1bdc2:	640419e3          	bnez	s0,1cc14 <_start+0x49a4>
   1bdc6:	02411503          	lh	a0,36(sp)
   1bdca:	02614583          	lbu	a1,38(sp)
   1bdce:	0189d613          	srli	a2,s3,0x18
   1bdd2:	0109d693          	srli	a3,s3,0x10
   1bdd6:	7ada08a3          	sb	a3,1969(s4)
   1bdda:	7aca0923          	sb	a2,1970(s4)
   1bdde:	0089d613          	srli	a2,s3,0x8
   1bde2:	7aaa1623          	sh	a0,1964(s4)
   1bde6:	7aba0723          	sb	a1,1966(s4)
   1bdea:	7b3a07a3          	sb	s3,1967(s4)
   1bdee:	7aca0823          	sb	a2,1968(s4)
   1bdf2:	7ff10513          	addi	a0,sp,2047
   1bdf6:	76250513          	addi	a0,a0,1890
   1bdfa:	6585                	lui	a1,0x1
   1bdfc:	34058593          	addi	a1,a1,832 # 1340 <.Lline_table_start1+0x1115>
   1be00:	958a                	add	a1,a1,sp
   1be02:	02500613          	li	a2,37
   1be06:	00001097          	auipc	ra,0x1
   1be0a:	f2a080e7          	jalr	-214(ra) # 1cd30 <memcpy>
   1be0e:	6505                	lui	a0,0x1
   1be10:	39c50513          	addi	a0,a0,924 # 139c <.Lline_table_start1+0x1171>
   1be14:	950a                	add	a0,a0,sp
   1be16:	7ff10593          	addi	a1,sp,2047
   1be1a:	75b58593          	addi	a1,a1,1883
   1be1e:	ffffb097          	auipc	ra,0xffffb
   1be22:	f60080e7          	jalr	-160(ra) # 16d7e <_ZN18complex_no_dynamic3app17hc9cb420f4f9390d2E>
   1be26:	3ec94503          	lbu	a0,1004(s2)
   1be2a:	c501                	beqz	a0,1be32 <_start+0x3bc2>
   1be2c:	3f092983          	lw	s3,1008(s2)
   1be30:	a8b9                	j	1be8e <_start+0x3c1e>
   1be32:	3ed94583          	lbu	a1,1005(s2)
   1be36:	3ee94603          	lbu	a2,1006(s2)
   1be3a:	3ef94683          	lbu	a3,1007(s2)
   1be3e:	3f092983          	lw	s3,1008(s2)
   1be42:	3f492703          	lw	a4,1012(s2)
   1be46:	3f892783          	lw	a5,1016(s2)
   1be4a:	3fc92483          	lw	s1,1020(s2)
   1be4e:	40092403          	lw	s0,1024(s2)
   1be52:	0622                	slli	a2,a2,0x8
   1be54:	38e92823          	sw	a4,912(s2)
   1be58:	38f92a23          	sw	a5,916(s2)
   1be5c:	38992c23          	sw	s1,920(s2)
   1be60:	38892e23          	sw	s0,924(s2)
   1be64:	8dd1                	or	a1,a1,a2
   1be66:	02b11223          	sh	a1,36(sp)
   1be6a:	02d10323          	sb	a3,38(sp)
   1be6e:	40492583          	lw	a1,1028(s2)
   1be72:	40892603          	lw	a2,1032(s2)
   1be76:	40c92683          	lw	a3,1036(s2)
   1be7a:	41092703          	lw	a4,1040(s2)
   1be7e:	3ab92023          	sw	a1,928(s2)
   1be82:	3ac92223          	sw	a2,932(s2)
   1be86:	3ad92423          	sw	a3,936(s2)
   1be8a:	3ae92623          	sw	a4,940(s2)
   1be8e:	580513e3          	bnez	a0,1cc14 <_start+0x49a4>
   1be92:	02411503          	lh	a0,36(sp)
   1be96:	02614583          	lbu	a1,38(sp)
   1be9a:	0189d613          	srli	a2,s3,0x18
   1be9e:	0109d693          	srli	a3,s3,0x10
   1bea2:	7cda0ea3          	sb	a3,2013(s4)
   1bea6:	7cca0f23          	sb	a2,2014(s4)
   1beaa:	0089d613          	srli	a2,s3,0x8
   1beae:	7caa1c23          	sh	a0,2008(s4)
   1beb2:	7cba0d23          	sb	a1,2010(s4)
   1beb6:	7d3a0da3          	sb	s3,2011(s4)
   1beba:	7cca0e23          	sb	a2,2012(s4)
   1bebe:	7ff10513          	addi	a0,sp,2047
   1bec2:	78e50513          	addi	a0,a0,1934
   1bec6:	6585                	lui	a1,0x1
   1bec8:	34058593          	addi	a1,a1,832 # 1340 <.Lline_table_start1+0x1115>
   1becc:	958a                	add	a1,a1,sp
   1bece:	02000613          	li	a2,32
   1bed2:	00001097          	auipc	ra,0x1
   1bed6:	e5e080e7          	jalr	-418(ra) # 1cd30 <memcpy>
   1beda:	6505                	lui	a0,0x1
   1bedc:	39c50513          	addi	a0,a0,924 # 139c <.Lline_table_start1+0x1171>
   1bee0:	950a                	add	a0,a0,sp
   1bee2:	7ff10593          	addi	a1,sp,2047
   1bee6:	78758593          	addi	a1,a1,1927
   1beea:	ffffc097          	auipc	ra,0xffffc
   1beee:	aa0080e7          	jalr	-1376(ra) # 1798a <_ZN18complex_no_dynamic3app17hf05bbb90c101d1e4E>
   1bef2:	3ec94403          	lbu	s0,1004(s2)
   1bef6:	c401                	beqz	s0,1befe <_start+0x3c8e>
   1bef8:	3f092983          	lw	s3,1008(s2)
   1befc:	a835                	j	1bf38 <_start+0x3cc8>
   1befe:	3ee94503          	lbu	a0,1006(s2)
   1bf02:	3ed94583          	lbu	a1,1005(s2)
   1bf06:	3ef94603          	lbu	a2,1007(s2)
   1bf0a:	3f092983          	lw	s3,1008(s2)
   1bf0e:	0522                	slli	a0,a0,0x8
   1bf10:	8d4d                	or	a0,a0,a1
   1bf12:	02a11223          	sh	a0,36(sp)
   1bf16:	02c10323          	sb	a2,38(sp)
   1bf1a:	6505                	lui	a0,0x1
   1bf1c:	3a450513          	addi	a0,a0,932 # 13a4 <.Lline_table_start1+0x1179>
   1bf20:	00a105b3          	add	a1,sp,a0
   1bf24:	6505                	lui	a0,0x1
   1bf26:	34050513          	addi	a0,a0,832 # 1340 <.Lline_table_start1+0x1115>
   1bf2a:	950a                	add	a0,a0,sp
   1bf2c:	04800613          	li	a2,72
   1bf30:	00001097          	auipc	ra,0x1
   1bf34:	e00080e7          	jalr	-512(ra) # 1cd30 <memcpy>
   1bf38:	4c041ee3          	bnez	s0,1cc14 <_start+0x49a4>
   1bf3c:	02411503          	lh	a0,36(sp)
   1bf40:	02614583          	lbu	a1,38(sp)
   1bf44:	0189d613          	srli	a2,s3,0x18
   1bf48:	0109d693          	srli	a3,s3,0x10
   1bf4c:	00d901a3          	sb	a3,3(s2)
   1bf50:	00c90223          	sb	a2,4(s2)
   1bf54:	0089d613          	srli	a2,s3,0x8
   1bf58:	fea91f23          	sh	a0,-2(s2)
   1bf5c:	00b90023          	sb	a1,0(s2)
   1bf60:	013900a3          	sb	s3,1(s2)
   1bf64:	00c90123          	sb	a2,2(s2)
   1bf68:	7ff10513          	addi	a0,sp,2047
   1bf6c:	7b650513          	addi	a0,a0,1974
   1bf70:	6585                	lui	a1,0x1
   1bf72:	34058593          	addi	a1,a1,832 # 1340 <.Lline_table_start1+0x1115>
   1bf76:	958a                	add	a1,a1,sp
   1bf78:	04800613          	li	a2,72
   1bf7c:	00001097          	auipc	ra,0x1
   1bf80:	db4080e7          	jalr	-588(ra) # 1cd30 <memcpy>
   1bf84:	6505                	lui	a0,0x1
   1bf86:	39c50513          	addi	a0,a0,924 # 139c <.Lline_table_start1+0x1171>
   1bf8a:	950a                	add	a0,a0,sp
   1bf8c:	7ff10593          	addi	a1,sp,2047
   1bf90:	7af58593          	addi	a1,a1,1967
   1bf94:	ffff8097          	auipc	ra,0xffff8
   1bf98:	7fe080e7          	jalr	2046(ra) # 14792 <_ZN18complex_no_dynamic3app17h79297e45b1e17032E>
   1bf9c:	3ec94403          	lbu	s0,1004(s2)
   1bfa0:	c401                	beqz	s0,1bfa8 <_start+0x3d38>
   1bfa2:	3f092983          	lw	s3,1008(s2)
   1bfa6:	a835                	j	1bfe2 <_start+0x3d72>
   1bfa8:	3ee94503          	lbu	a0,1006(s2)
   1bfac:	3ed94583          	lbu	a1,1005(s2)
   1bfb0:	3ef94603          	lbu	a2,1007(s2)
   1bfb4:	3f092983          	lw	s3,1008(s2)
   1bfb8:	0522                	slli	a0,a0,0x8
   1bfba:	8d4d                	or	a0,a0,a1
   1bfbc:	02a11223          	sh	a0,36(sp)
   1bfc0:	02c10323          	sb	a2,38(sp)
   1bfc4:	6505                	lui	a0,0x1
   1bfc6:	3a450513          	addi	a0,a0,932 # 13a4 <.Lline_table_start1+0x1179>
   1bfca:	00a105b3          	add	a1,sp,a0
   1bfce:	6505                	lui	a0,0x1
   1bfd0:	34050513          	addi	a0,a0,832 # 1340 <.Lline_table_start1+0x1115>
   1bfd4:	950a                	add	a0,a0,sp
   1bfd6:	02e00613          	li	a2,46
   1bfda:	00001097          	auipc	ra,0x1
   1bfde:	d56080e7          	jalr	-682(ra) # 1cd30 <memcpy>
   1bfe2:	420419e3          	bnez	s0,1cc14 <_start+0x49a4>
   1bfe6:	02411503          	lh	a0,36(sp)
   1bfea:	02614583          	lbu	a1,38(sp)
   1bfee:	0189d613          	srli	a2,s3,0x18
   1bff2:	0109d693          	srli	a3,s3,0x10
   1bff6:	04d909a3          	sb	a3,83(s2)
   1bffa:	04c90a23          	sb	a2,84(s2)
   1bffe:	0089d613          	srli	a2,s3,0x8
   1c002:	04a91723          	sh	a0,78(s2)
   1c006:	04b90823          	sb	a1,80(s2)
   1c00a:	053908a3          	sb	s3,81(s2)
   1c00e:	04c90923          	sb	a2,82(s2)
   1c012:	6505                	lui	a0,0x1
   1c014:	0515                	addi	a0,a0,5 # 1005 <.Lline_table_start1+0xdda>
   1c016:	950a                	add	a0,a0,sp
   1c018:	6585                	lui	a1,0x1
   1c01a:	34058593          	addi	a1,a1,832 # 1340 <.Lline_table_start1+0x1115>
   1c01e:	958a                	add	a1,a1,sp
   1c020:	02e00613          	li	a2,46
   1c024:	00001097          	auipc	ra,0x1
   1c028:	d0c080e7          	jalr	-756(ra) # 1cd30 <memcpy>
   1c02c:	6505                	lui	a0,0x1
   1c02e:	39c50513          	addi	a0,a0,924 # 139c <.Lline_table_start1+0x1171>
   1c032:	950a                	add	a0,a0,sp
   1c034:	7ff10593          	addi	a1,sp,2047
   1c038:	7ff58593          	addi	a1,a1,2047
   1c03c:	ffff5097          	auipc	ra,0xffff5
   1c040:	7dc080e7          	jalr	2012(ra) # 11818 <_ZN18complex_no_dynamic3app17h14248556aa41de69E>
   1c044:	3ec94403          	lbu	s0,1004(s2)
   1c048:	c401                	beqz	s0,1c050 <_start+0x3de0>
   1c04a:	3f092983          	lw	s3,1008(s2)
   1c04e:	a835                	j	1c08a <_start+0x3e1a>
   1c050:	3ee94503          	lbu	a0,1006(s2)
   1c054:	3ed94583          	lbu	a1,1005(s2)
   1c058:	3ef94603          	lbu	a2,1007(s2)
   1c05c:	3f092983          	lw	s3,1008(s2)
   1c060:	0522                	slli	a0,a0,0x8
   1c062:	8d4d                	or	a0,a0,a1
   1c064:	02a11223          	sh	a0,36(sp)
   1c068:	02c10323          	sb	a2,38(sp)
   1c06c:	6505                	lui	a0,0x1
   1c06e:	3a450513          	addi	a0,a0,932 # 13a4 <.Lline_table_start1+0x1179>
   1c072:	00a105b3          	add	a1,sp,a0
   1c076:	6505                	lui	a0,0x1
   1c078:	34050513          	addi	a0,a0,832 # 1340 <.Lline_table_start1+0x1115>
   1c07c:	950a                	add	a0,a0,sp
   1c07e:	03800613          	li	a2,56
   1c082:	00001097          	auipc	ra,0x1
   1c086:	cae080e7          	jalr	-850(ra) # 1cd30 <memcpy>
   1c08a:	380415e3          	bnez	s0,1cc14 <_start+0x49a4>
   1c08e:	02411503          	lh	a0,36(sp)
   1c092:	02614583          	lbu	a1,38(sp)
   1c096:	0189d613          	srli	a2,s3,0x18
   1c09a:	0109d693          	srli	a3,s3,0x10
   1c09e:	08d904a3          	sb	a3,137(s2)
   1c0a2:	08c90523          	sb	a2,138(s2)
   1c0a6:	0089d613          	srli	a2,s3,0x8
   1c0aa:	08a91223          	sh	a0,132(s2)
   1c0ae:	08b90323          	sb	a1,134(s2)
   1c0b2:	093903a3          	sb	s3,135(s2)
   1c0b6:	08c90423          	sb	a2,136(s2)
   1c0ba:	6505                	lui	a0,0x1
   1c0bc:	03b50513          	addi	a0,a0,59 # 103b <.Lline_table_start1+0xe10>
   1c0c0:	950a                	add	a0,a0,sp
   1c0c2:	6585                	lui	a1,0x1
   1c0c4:	34058593          	addi	a1,a1,832 # 1340 <.Lline_table_start1+0x1115>
   1c0c8:	958a                	add	a1,a1,sp
   1c0ca:	03800613          	li	a2,56
   1c0ce:	00001097          	auipc	ra,0x1
   1c0d2:	c62080e7          	jalr	-926(ra) # 1cd30 <memcpy>
   1c0d6:	6505                	lui	a0,0x1
   1c0d8:	39c50513          	addi	a0,a0,924 # 139c <.Lline_table_start1+0x1171>
   1c0dc:	950a                	add	a0,a0,sp
   1c0de:	6585                	lui	a1,0x1
   1c0e0:	03458593          	addi	a1,a1,52 # 1034 <.Lline_table_start1+0xe09>
   1c0e4:	958a                	add	a1,a1,sp
   1c0e6:	ffffb097          	auipc	ra,0xffffb
   1c0ea:	daa080e7          	jalr	-598(ra) # 16e90 <_ZN18complex_no_dynamic3app17hcff586df0f070bc1E>
   1c0ee:	3ec94503          	lbu	a0,1004(s2)
   1c0f2:	c501                	beqz	a0,1c0fa <_start+0x3e8a>
   1c0f4:	3f092983          	lw	s3,1008(s2)
   1c0f8:	a81d                	j	1c12e <_start+0x3ebe>
   1c0fa:	3ee94583          	lbu	a1,1006(s2)
   1c0fe:	3ed94603          	lbu	a2,1005(s2)
   1c102:	3ef94683          	lbu	a3,1007(s2)
   1c106:	3f092983          	lw	s3,1008(s2)
   1c10a:	05a2                	slli	a1,a1,0x8
   1c10c:	8dd1                	or	a1,a1,a2
   1c10e:	3f492603          	lw	a2,1012(s2)
   1c112:	3f892703          	lw	a4,1016(s2)
   1c116:	3fc91783          	lh	a5,1020(s2)
   1c11a:	02b11223          	sh	a1,36(sp)
   1c11e:	02d10323          	sb	a3,38(sp)
   1c122:	38c92823          	sw	a2,912(s2)
   1c126:	38e92a23          	sw	a4,916(s2)
   1c12a:	38f91c23          	sh	a5,920(s2)
   1c12e:	2e0513e3          	bnez	a0,1cc14 <_start+0x49a4>
   1c132:	02411503          	lh	a0,36(sp)
   1c136:	02614583          	lbu	a1,38(sp)
   1c13a:	0189d613          	srli	a2,s3,0x18
   1c13e:	0109d693          	srli	a3,s3,0x10
   1c142:	0cd904a3          	sb	a3,201(s2)
   1c146:	0cc90523          	sb	a2,202(s2)
   1c14a:	0089d613          	srli	a2,s3,0x8
   1c14e:	0ca91223          	sh	a0,196(s2)
   1c152:	0cb90323          	sb	a1,198(s2)
   1c156:	0d3903a3          	sb	s3,199(s2)
   1c15a:	0cc90423          	sb	a2,200(s2)
   1c15e:	6505                	lui	a0,0x1
   1c160:	07b50513          	addi	a0,a0,123 # 107b <.Lline_table_start1+0xe50>
   1c164:	950a                	add	a0,a0,sp
   1c166:	6585                	lui	a1,0x1
   1c168:	34058593          	addi	a1,a1,832 # 1340 <.Lline_table_start1+0x1115>
   1c16c:	958a                	add	a1,a1,sp
   1c16e:	4629                	li	a2,10
   1c170:	00001097          	auipc	ra,0x1
   1c174:	bc0080e7          	jalr	-1088(ra) # 1cd30 <memcpy>
   1c178:	6505                	lui	a0,0x1
   1c17a:	39c50513          	addi	a0,a0,924 # 139c <.Lline_table_start1+0x1171>
   1c17e:	950a                	add	a0,a0,sp
   1c180:	6585                	lui	a1,0x1
   1c182:	07458593          	addi	a1,a1,116 # 1074 <.Lline_table_start1+0xe49>
   1c186:	958a                	add	a1,a1,sp
   1c188:	ffff7097          	auipc	ra,0xffff7
   1c18c:	e94080e7          	jalr	-364(ra) # 1301c <_ZN18complex_no_dynamic3app17h4896bc1c93434258E>
   1c190:	3ec94403          	lbu	s0,1004(s2)
   1c194:	c401                	beqz	s0,1c19c <_start+0x3f2c>
   1c196:	3f092983          	lw	s3,1008(s2)
   1c19a:	a835                	j	1c1d6 <_start+0x3f66>
   1c19c:	3ee94503          	lbu	a0,1006(s2)
   1c1a0:	3ed94583          	lbu	a1,1005(s2)
   1c1a4:	3ef94603          	lbu	a2,1007(s2)
   1c1a8:	3f092983          	lw	s3,1008(s2)
   1c1ac:	0522                	slli	a0,a0,0x8
   1c1ae:	8d4d                	or	a0,a0,a1
   1c1b0:	02a11223          	sh	a0,36(sp)
   1c1b4:	02c10323          	sb	a2,38(sp)
   1c1b8:	6505                	lui	a0,0x1
   1c1ba:	3a450513          	addi	a0,a0,932 # 13a4 <.Lline_table_start1+0x1179>
   1c1be:	00a105b3          	add	a1,sp,a0
   1c1c2:	6505                	lui	a0,0x1
   1c1c4:	34050513          	addi	a0,a0,832 # 1340 <.Lline_table_start1+0x1115>
   1c1c8:	950a                	add	a0,a0,sp
   1c1ca:	03800613          	li	a2,56
   1c1ce:	00001097          	auipc	ra,0x1
   1c1d2:	b62080e7          	jalr	-1182(ra) # 1cd30 <memcpy>
   1c1d6:	22041fe3          	bnez	s0,1cc14 <_start+0x49a4>
   1c1da:	02411503          	lh	a0,36(sp)
   1c1de:	02614583          	lbu	a1,38(sp)
   1c1e2:	0189d613          	srli	a2,s3,0x18
   1c1e6:	0109d693          	srli	a3,s3,0x10
   1c1ea:	0cd90da3          	sb	a3,219(s2)
   1c1ee:	0cc90e23          	sb	a2,220(s2)
   1c1f2:	0089d613          	srli	a2,s3,0x8
   1c1f6:	0ca91b23          	sh	a0,214(s2)
   1c1fa:	0cb90c23          	sb	a1,216(s2)
   1c1fe:	0d390ca3          	sb	s3,217(s2)
   1c202:	0cc90d23          	sb	a2,218(s2)
   1c206:	6505                	lui	a0,0x1
   1c208:	08d50513          	addi	a0,a0,141 # 108d <.Lline_table_start1+0xe62>
   1c20c:	950a                	add	a0,a0,sp
   1c20e:	6585                	lui	a1,0x1
   1c210:	34058593          	addi	a1,a1,832 # 1340 <.Lline_table_start1+0x1115>
   1c214:	958a                	add	a1,a1,sp
   1c216:	03800613          	li	a2,56
   1c21a:	00001097          	auipc	ra,0x1
   1c21e:	b16080e7          	jalr	-1258(ra) # 1cd30 <memcpy>
   1c222:	6505                	lui	a0,0x1
   1c224:	39c50513          	addi	a0,a0,924 # 139c <.Lline_table_start1+0x1171>
   1c228:	950a                	add	a0,a0,sp
   1c22a:	6585                	lui	a1,0x1
   1c22c:	08658593          	addi	a1,a1,134 # 1086 <.Lline_table_start1+0xe5b>
   1c230:	958a                	add	a1,a1,sp
   1c232:	ffff6097          	auipc	ra,0xffff6
   1c236:	c16080e7          	jalr	-1002(ra) # 11e48 <_ZN18complex_no_dynamic3app17h1ca5be5a53618e16E>
   1c23a:	3ec94503          	lbu	a0,1004(s2)
   1c23e:	c501                	beqz	a0,1c246 <_start+0x3fd6>
   1c240:	3f092983          	lw	s3,1008(s2)
   1c244:	a0b9                	j	1c292 <_start+0x4022>
   1c246:	3ed94583          	lbu	a1,1005(s2)
   1c24a:	3ee94603          	lbu	a2,1006(s2)
   1c24e:	3ef94683          	lbu	a3,1007(s2)
   1c252:	3f092983          	lw	s3,1008(s2)
   1c256:	3f492703          	lw	a4,1012(s2)
   1c25a:	3f892783          	lw	a5,1016(s2)
   1c25e:	3fc92483          	lw	s1,1020(s2)
   1c262:	40092403          	lw	s0,1024(s2)
   1c266:	0622                	slli	a2,a2,0x8
   1c268:	38e92823          	sw	a4,912(s2)
   1c26c:	38f92a23          	sw	a5,916(s2)
   1c270:	38992c23          	sw	s1,920(s2)
   1c274:	38892e23          	sw	s0,924(s2)
   1c278:	8dd1                	or	a1,a1,a2
   1c27a:	40492603          	lw	a2,1028(s2)
   1c27e:	40894703          	lbu	a4,1032(s2)
   1c282:	02b11223          	sh	a1,36(sp)
   1c286:	02d10323          	sb	a3,38(sp)
   1c28a:	3ac92023          	sw	a2,928(s2)
   1c28e:	3ae90223          	sb	a4,932(s2)
   1c292:	180511e3          	bnez	a0,1cc14 <_start+0x49a4>
   1c296:	02411503          	lh	a0,36(sp)
   1c29a:	02614583          	lbu	a1,38(sp)
   1c29e:	0189d613          	srli	a2,s3,0x18
   1c2a2:	0109d693          	srli	a3,s3,0x10
   1c2a6:	10d90da3          	sb	a3,283(s2)
   1c2aa:	10c90e23          	sb	a2,284(s2)
   1c2ae:	0089d613          	srli	a2,s3,0x8
   1c2b2:	10a91b23          	sh	a0,278(s2)
   1c2b6:	10b90c23          	sb	a1,280(s2)
   1c2ba:	11390ca3          	sb	s3,281(s2)
   1c2be:	10c90d23          	sb	a2,282(s2)
   1c2c2:	6505                	lui	a0,0x1
   1c2c4:	0cd50513          	addi	a0,a0,205 # 10cd <.Lline_table_start1+0xea2>
   1c2c8:	950a                	add	a0,a0,sp
   1c2ca:	6585                	lui	a1,0x1
   1c2cc:	34058593          	addi	a1,a1,832 # 1340 <.Lline_table_start1+0x1115>
   1c2d0:	958a                	add	a1,a1,sp
   1c2d2:	4655                	li	a2,21
   1c2d4:	00001097          	auipc	ra,0x1
   1c2d8:	a5c080e7          	jalr	-1444(ra) # 1cd30 <memcpy>
   1c2dc:	6505                	lui	a0,0x1
   1c2de:	39c50513          	addi	a0,a0,924 # 139c <.Lline_table_start1+0x1171>
   1c2e2:	950a                	add	a0,a0,sp
   1c2e4:	6585                	lui	a1,0x1
   1c2e6:	0c658593          	addi	a1,a1,198 # 10c6 <.Lline_table_start1+0xe9b>
   1c2ea:	958a                	add	a1,a1,sp
   1c2ec:	ffff7097          	auipc	ra,0xffff7
   1c2f0:	a2a080e7          	jalr	-1494(ra) # 12d16 <_ZN18complex_no_dynamic3app17h42ce4d1a8249edbcE>
   1c2f4:	3ec94403          	lbu	s0,1004(s2)
   1c2f8:	c401                	beqz	s0,1c300 <_start+0x4090>
   1c2fa:	3f092983          	lw	s3,1008(s2)
   1c2fe:	a835                	j	1c33a <_start+0x40ca>
   1c300:	3ee94503          	lbu	a0,1006(s2)
   1c304:	3ed94583          	lbu	a1,1005(s2)
   1c308:	3ef94603          	lbu	a2,1007(s2)
   1c30c:	3f092983          	lw	s3,1008(s2)
   1c310:	0522                	slli	a0,a0,0x8
   1c312:	8d4d                	or	a0,a0,a1
   1c314:	02a11223          	sh	a0,36(sp)
   1c318:	02c10323          	sb	a2,38(sp)
   1c31c:	6505                	lui	a0,0x1
   1c31e:	3a450513          	addi	a0,a0,932 # 13a4 <.Lline_table_start1+0x1179>
   1c322:	00a105b3          	add	a1,sp,a0
   1c326:	6505                	lui	a0,0x1
   1c328:	34050513          	addi	a0,a0,832 # 1340 <.Lline_table_start1+0x1115>
   1c32c:	950a                	add	a0,a0,sp
   1c32e:	05600613          	li	a2,86
   1c332:	00001097          	auipc	ra,0x1
   1c336:	9fe080e7          	jalr	-1538(ra) # 1cd30 <memcpy>
   1c33a:	0c041de3          	bnez	s0,1cc14 <_start+0x49a4>
   1c33e:	02411503          	lh	a0,36(sp)
   1c342:	02614583          	lbu	a1,38(sp)
   1c346:	0189d613          	srli	a2,s3,0x18
   1c34a:	0109d693          	srli	a3,s3,0x10
   1c34e:	12d90ba3          	sb	a3,311(s2)
   1c352:	12c90c23          	sb	a2,312(s2)
   1c356:	0089d613          	srli	a2,s3,0x8
   1c35a:	12a91923          	sh	a0,306(s2)
   1c35e:	12b90a23          	sb	a1,308(s2)
   1c362:	13390aa3          	sb	s3,309(s2)
   1c366:	12c90b23          	sb	a2,310(s2)
   1c36a:	6505                	lui	a0,0x1
   1c36c:	0e950513          	addi	a0,a0,233 # 10e9 <.Lline_table_start1+0xebe>
   1c370:	950a                	add	a0,a0,sp
   1c372:	6585                	lui	a1,0x1
   1c374:	34058593          	addi	a1,a1,832 # 1340 <.Lline_table_start1+0x1115>
   1c378:	958a                	add	a1,a1,sp
   1c37a:	05600613          	li	a2,86
   1c37e:	00001097          	auipc	ra,0x1
   1c382:	9b2080e7          	jalr	-1614(ra) # 1cd30 <memcpy>
   1c386:	6505                	lui	a0,0x1
   1c388:	39c50513          	addi	a0,a0,924 # 139c <.Lline_table_start1+0x1171>
   1c38c:	950a                	add	a0,a0,sp
   1c38e:	6585                	lui	a1,0x1
   1c390:	0e258593          	addi	a1,a1,226 # 10e2 <.Lline_table_start1+0xeb7>
   1c394:	958a                	add	a1,a1,sp
   1c396:	ffff6097          	auipc	ra,0xffff6
   1c39a:	45e080e7          	jalr	1118(ra) # 127f4 <_ZN18complex_no_dynamic3app17h2adf430787cd0d93E>
   1c39e:	3ec94503          	lbu	a0,1004(s2)
   1c3a2:	c501                	beqz	a0,1c3aa <_start+0x413a>
   1c3a4:	3f092983          	lw	s3,1008(s2)
   1c3a8:	a83d                	j	1c3e6 <_start+0x4176>
   1c3aa:	3ee94583          	lbu	a1,1006(s2)
   1c3ae:	3ed94603          	lbu	a2,1005(s2)
   1c3b2:	3ef94683          	lbu	a3,1007(s2)
   1c3b6:	3f092983          	lw	s3,1008(s2)
   1c3ba:	05a2                	slli	a1,a1,0x8
   1c3bc:	8dd1                	or	a1,a1,a2
   1c3be:	02b11223          	sh	a1,36(sp)
   1c3c2:	02d10323          	sb	a3,38(sp)
   1c3c6:	3f492583          	lw	a1,1012(s2)
   1c3ca:	3f892603          	lw	a2,1016(s2)
   1c3ce:	3fc91683          	lh	a3,1020(s2)
   1c3d2:	3fe94703          	lbu	a4,1022(s2)
   1c3d6:	38b92823          	sw	a1,912(s2)
   1c3da:	38c92a23          	sw	a2,916(s2)
   1c3de:	38d91c23          	sh	a3,920(s2)
   1c3e2:	38e90d23          	sb	a4,922(s2)
   1c3e6:	020517e3          	bnez	a0,1cc14 <_start+0x49a4>
   1c3ea:	02411503          	lh	a0,36(sp)
   1c3ee:	02614583          	lbu	a1,38(sp)
   1c3f2:	0189d613          	srli	a2,s3,0x18
   1c3f6:	0109d693          	srli	a3,s3,0x10
   1c3fa:	18d90aa3          	sb	a3,405(s2)
   1c3fe:	18c90b23          	sb	a2,406(s2)
   1c402:	0089d613          	srli	a2,s3,0x8
   1c406:	18a91823          	sh	a0,400(s2)
   1c40a:	18b90923          	sb	a1,402(s2)
   1c40e:	193909a3          	sb	s3,403(s2)
   1c412:	18c90a23          	sb	a2,404(s2)
   1c416:	6505                	lui	a0,0x1
   1c418:	14750513          	addi	a0,a0,327 # 1147 <.Lline_table_start1+0xf1c>
   1c41c:	950a                	add	a0,a0,sp
   1c41e:	6585                	lui	a1,0x1
   1c420:	34058593          	addi	a1,a1,832 # 1340 <.Lline_table_start1+0x1115>
   1c424:	958a                	add	a1,a1,sp
   1c426:	462d                	li	a2,11
   1c428:	00001097          	auipc	ra,0x1
   1c42c:	908080e7          	jalr	-1784(ra) # 1cd30 <memcpy>
   1c430:	6505                	lui	a0,0x1
   1c432:	39c50513          	addi	a0,a0,924 # 139c <.Lline_table_start1+0x1171>
   1c436:	950a                	add	a0,a0,sp
   1c438:	6585                	lui	a1,0x1
   1c43a:	14058593          	addi	a1,a1,320 # 1140 <.Lline_table_start1+0xf15>
   1c43e:	958a                	add	a1,a1,sp
   1c440:	ffffb097          	auipc	ra,0xffffb
   1c444:	f6a080e7          	jalr	-150(ra) # 173aa <_ZN18complex_no_dynamic3app17he89aea885e3fd101E>
   1c448:	3ec94403          	lbu	s0,1004(s2)
   1c44c:	c401                	beqz	s0,1c454 <_start+0x41e4>
   1c44e:	3f092983          	lw	s3,1008(s2)
   1c452:	a835                	j	1c48e <_start+0x421e>
   1c454:	3ee94503          	lbu	a0,1006(s2)
   1c458:	3ed94583          	lbu	a1,1005(s2)
   1c45c:	3ef94603          	lbu	a2,1007(s2)
   1c460:	3f092983          	lw	s3,1008(s2)
   1c464:	0522                	slli	a0,a0,0x8
   1c466:	8d4d                	or	a0,a0,a1
   1c468:	02a11223          	sh	a0,36(sp)
   1c46c:	02c10323          	sb	a2,38(sp)
   1c470:	6505                	lui	a0,0x1
   1c472:	3a450513          	addi	a0,a0,932 # 13a4 <.Lline_table_start1+0x1179>
   1c476:	00a105b3          	add	a1,sp,a0
   1c47a:	6505                	lui	a0,0x1
   1c47c:	34050513          	addi	a0,a0,832 # 1340 <.Lline_table_start1+0x1115>
   1c480:	950a                	add	a0,a0,sp
   1c482:	03d00613          	li	a2,61
   1c486:	00001097          	auipc	ra,0x1
   1c48a:	8aa080e7          	jalr	-1878(ra) # 1cd30 <memcpy>
   1c48e:	78041363          	bnez	s0,1cc14 <_start+0x49a4>
   1c492:	02411503          	lh	a0,36(sp)
   1c496:	02614583          	lbu	a1,38(sp)
   1c49a:	0189d613          	srli	a2,s3,0x18
   1c49e:	0109d693          	srli	a3,s3,0x10
   1c4a2:	1ad903a3          	sb	a3,423(s2)
   1c4a6:	1ac90423          	sb	a2,424(s2)
   1c4aa:	0089d613          	srli	a2,s3,0x8
   1c4ae:	1aa91123          	sh	a0,418(s2)
   1c4b2:	1ab90223          	sb	a1,420(s2)
   1c4b6:	1b3902a3          	sb	s3,421(s2)
   1c4ba:	1ac90323          	sb	a2,422(s2)
   1c4be:	6505                	lui	a0,0x1
   1c4c0:	15950513          	addi	a0,a0,345 # 1159 <.Lline_table_start1+0xf2e>
   1c4c4:	950a                	add	a0,a0,sp
   1c4c6:	6585                	lui	a1,0x1
   1c4c8:	34058593          	addi	a1,a1,832 # 1340 <.Lline_table_start1+0x1115>
   1c4cc:	958a                	add	a1,a1,sp
   1c4ce:	03d00613          	li	a2,61
   1c4d2:	00001097          	auipc	ra,0x1
   1c4d6:	85e080e7          	jalr	-1954(ra) # 1cd30 <memcpy>
   1c4da:	6505                	lui	a0,0x1
   1c4dc:	39c50513          	addi	a0,a0,924 # 139c <.Lline_table_start1+0x1171>
   1c4e0:	950a                	add	a0,a0,sp
   1c4e2:	6585                	lui	a1,0x1
   1c4e4:	15258593          	addi	a1,a1,338 # 1152 <.Lline_table_start1+0xf27>
   1c4e8:	958a                	add	a1,a1,sp
   1c4ea:	ffff9097          	auipc	ra,0xffff9
   1c4ee:	a28080e7          	jalr	-1496(ra) # 14f12 <_ZN18complex_no_dynamic3app17h852815e7fb19aadfE>
   1c4f2:	3ec94503          	lbu	a0,1004(s2)
   1c4f6:	c501                	beqz	a0,1c4fe <_start+0x428e>
   1c4f8:	3f092983          	lw	s3,1008(s2)
   1c4fc:	a899                	j	1c552 <_start+0x42e2>
   1c4fe:	3ed94583          	lbu	a1,1005(s2)
   1c502:	3ee94603          	lbu	a2,1006(s2)
   1c506:	3ef94683          	lbu	a3,1007(s2)
   1c50a:	3f092983          	lw	s3,1008(s2)
   1c50e:	3f492703          	lw	a4,1012(s2)
   1c512:	3f892783          	lw	a5,1016(s2)
   1c516:	3fc92483          	lw	s1,1020(s2)
   1c51a:	40092403          	lw	s0,1024(s2)
   1c51e:	0622                	slli	a2,a2,0x8
   1c520:	38e92823          	sw	a4,912(s2)
   1c524:	38f92a23          	sw	a5,916(s2)
   1c528:	38992c23          	sw	s1,920(s2)
   1c52c:	38892e23          	sw	s0,924(s2)
   1c530:	8dd1                	or	a1,a1,a2
   1c532:	40492603          	lw	a2,1028(s2)
   1c536:	40892703          	lw	a4,1032(s2)
   1c53a:	40c92783          	lw	a5,1036(s2)
   1c53e:	02b11223          	sh	a1,36(sp)
   1c542:	02d10323          	sb	a3,38(sp)
   1c546:	3ac92023          	sw	a2,928(s2)
   1c54a:	3ae92223          	sw	a4,932(s2)
   1c54e:	3af92423          	sw	a5,936(s2)
   1c552:	6c051163          	bnez	a0,1cc14 <_start+0x49a4>
   1c556:	02411503          	lh	a0,36(sp)
   1c55a:	02614583          	lbu	a1,38(sp)
   1c55e:	0189d613          	srli	a2,s3,0x18
   1c562:	0109d693          	srli	a3,s3,0x10
   1c566:	1ed905a3          	sb	a3,491(s2)
   1c56a:	1ec90623          	sb	a2,492(s2)
   1c56e:	0089d613          	srli	a2,s3,0x8
   1c572:	1ea91323          	sh	a0,486(s2)
   1c576:	1eb90423          	sb	a1,488(s2)
   1c57a:	1f3904a3          	sb	s3,489(s2)
   1c57e:	1ec90523          	sb	a2,490(s2)
   1c582:	6505                	lui	a0,0x1
   1c584:	19d50513          	addi	a0,a0,413 # 119d <.Lline_table_start1+0xf72>
   1c588:	950a                	add	a0,a0,sp
   1c58a:	6585                	lui	a1,0x1
   1c58c:	34058593          	addi	a1,a1,832 # 1340 <.Lline_table_start1+0x1115>
   1c590:	958a                	add	a1,a1,sp
   1c592:	4671                	li	a2,28
   1c594:	00000097          	auipc	ra,0x0
   1c598:	79c080e7          	jalr	1948(ra) # 1cd30 <memcpy>
   1c59c:	6505                	lui	a0,0x1
   1c59e:	39c50513          	addi	a0,a0,924 # 139c <.Lline_table_start1+0x1171>
   1c5a2:	950a                	add	a0,a0,sp
   1c5a4:	6585                	lui	a1,0x1
   1c5a6:	19658593          	addi	a1,a1,406 # 1196 <.Lline_table_start1+0xf6b>
   1c5aa:	958a                	add	a1,a1,sp
   1c5ac:	ffff8097          	auipc	ra,0xffff8
   1c5b0:	a2a080e7          	jalr	-1494(ra) # 13fd6 <_ZN18complex_no_dynamic3app17h6993680f272e1bd8E>
   1c5b4:	3ec94503          	lbu	a0,1004(s2)
   1c5b8:	c501                	beqz	a0,1c5c0 <_start+0x4350>
   1c5ba:	3f092983          	lw	s3,1008(s2)
   1c5be:	a8b9                	j	1c61c <_start+0x43ac>
   1c5c0:	3ed94583          	lbu	a1,1005(s2)
   1c5c4:	3ee94603          	lbu	a2,1006(s2)
   1c5c8:	3ef94683          	lbu	a3,1007(s2)
   1c5cc:	3f092983          	lw	s3,1008(s2)
   1c5d0:	3f492703          	lw	a4,1012(s2)
   1c5d4:	3f892783          	lw	a5,1016(s2)
   1c5d8:	3fc92483          	lw	s1,1020(s2)
   1c5dc:	40092403          	lw	s0,1024(s2)
   1c5e0:	0622                	slli	a2,a2,0x8
   1c5e2:	38e92823          	sw	a4,912(s2)
   1c5e6:	38f92a23          	sw	a5,916(s2)
   1c5ea:	38992c23          	sw	s1,920(s2)
   1c5ee:	38892e23          	sw	s0,924(s2)
   1c5f2:	8dd1                	or	a1,a1,a2
   1c5f4:	02b11223          	sh	a1,36(sp)
   1c5f8:	02d10323          	sb	a3,38(sp)
   1c5fc:	40492583          	lw	a1,1028(s2)
   1c600:	40892603          	lw	a2,1032(s2)
   1c604:	40c92683          	lw	a3,1036(s2)
   1c608:	41094703          	lbu	a4,1040(s2)
   1c60c:	3ab92023          	sw	a1,928(s2)
   1c610:	3ac92223          	sw	a2,932(s2)
   1c614:	3ad92423          	sw	a3,936(s2)
   1c618:	3ae90623          	sb	a4,940(s2)
   1c61c:	5e051c63          	bnez	a0,1cc14 <_start+0x49a4>
   1c620:	02411503          	lh	a0,36(sp)
   1c624:	02614583          	lbu	a1,38(sp)
   1c628:	0189d613          	srli	a2,s3,0x18
   1c62c:	0109d693          	srli	a3,s3,0x10
   1c630:	20d907a3          	sb	a3,527(s2)
   1c634:	20c90823          	sb	a2,528(s2)
   1c638:	0089d613          	srli	a2,s3,0x8
   1c63c:	20a91523          	sh	a0,522(s2)
   1c640:	20b90623          	sb	a1,524(s2)
   1c644:	213906a3          	sb	s3,525(s2)
   1c648:	20c90723          	sb	a2,526(s2)
   1c64c:	6505                	lui	a0,0x1
   1c64e:	1c150513          	addi	a0,a0,449 # 11c1 <.Lline_table_start1+0xf96>
   1c652:	950a                	add	a0,a0,sp
   1c654:	6585                	lui	a1,0x1
   1c656:	34058593          	addi	a1,a1,832 # 1340 <.Lline_table_start1+0x1115>
   1c65a:	958a                	add	a1,a1,sp
   1c65c:	4675                	li	a2,29
   1c65e:	00000097          	auipc	ra,0x0
   1c662:	6d2080e7          	jalr	1746(ra) # 1cd30 <memcpy>
   1c666:	6505                	lui	a0,0x1
   1c668:	39c50513          	addi	a0,a0,924 # 139c <.Lline_table_start1+0x1171>
   1c66c:	950a                	add	a0,a0,sp
   1c66e:	6585                	lui	a1,0x1
   1c670:	1ba58593          	addi	a1,a1,442 # 11ba <.Lline_table_start1+0xf8f>
   1c674:	958a                	add	a1,a1,sp
   1c676:	ffff5097          	auipc	ra,0xffff5
   1c67a:	090080e7          	jalr	144(ra) # 11706 <_ZN18complex_no_dynamic3app17h08713842f6d634eaE>
   1c67e:	3ec94403          	lbu	s0,1004(s2)
   1c682:	c401                	beqz	s0,1c68a <_start+0x441a>
   1c684:	3f092983          	lw	s3,1008(s2)
   1c688:	a835                	j	1c6c4 <_start+0x4454>
   1c68a:	3ee94503          	lbu	a0,1006(s2)
   1c68e:	3ed94583          	lbu	a1,1005(s2)
   1c692:	3ef94603          	lbu	a2,1007(s2)
   1c696:	3f092983          	lw	s3,1008(s2)
   1c69a:	0522                	slli	a0,a0,0x8
   1c69c:	8d4d                	or	a0,a0,a1
   1c69e:	02a11223          	sh	a0,36(sp)
   1c6a2:	02c10323          	sb	a2,38(sp)
   1c6a6:	6505                	lui	a0,0x1
   1c6a8:	3a450513          	addi	a0,a0,932 # 13a4 <.Lline_table_start1+0x1179>
   1c6ac:	00a105b3          	add	a1,sp,a0
   1c6b0:	6505                	lui	a0,0x1
   1c6b2:	34050513          	addi	a0,a0,832 # 1340 <.Lline_table_start1+0x1115>
   1c6b6:	950a                	add	a0,a0,sp
   1c6b8:	02800613          	li	a2,40
   1c6bc:	00000097          	auipc	ra,0x0
   1c6c0:	674080e7          	jalr	1652(ra) # 1cd30 <memcpy>
   1c6c4:	54041863          	bnez	s0,1cc14 <_start+0x49a4>
   1c6c8:	02411503          	lh	a0,36(sp)
   1c6cc:	02614583          	lbu	a1,38(sp)
   1c6d0:	0189d613          	srli	a2,s3,0x18
   1c6d4:	0109d693          	srli	a3,s3,0x10
   1c6d8:	22d909a3          	sb	a3,563(s2)
   1c6dc:	22c90a23          	sb	a2,564(s2)
   1c6e0:	0089d613          	srli	a2,s3,0x8
   1c6e4:	22a91723          	sh	a0,558(s2)
   1c6e8:	22b90823          	sb	a1,560(s2)
   1c6ec:	233908a3          	sb	s3,561(s2)
   1c6f0:	22c90923          	sb	a2,562(s2)
   1c6f4:	6505                	lui	a0,0x1
   1c6f6:	1e550513          	addi	a0,a0,485 # 11e5 <.Lline_table_start1+0xfba>
   1c6fa:	950a                	add	a0,a0,sp
   1c6fc:	6585                	lui	a1,0x1
   1c6fe:	34058593          	addi	a1,a1,832 # 1340 <.Lline_table_start1+0x1115>
   1c702:	958a                	add	a1,a1,sp
   1c704:	02800613          	li	a2,40
   1c708:	00000097          	auipc	ra,0x0
   1c70c:	628080e7          	jalr	1576(ra) # 1cd30 <memcpy>
   1c710:	6505                	lui	a0,0x1
   1c712:	39c50513          	addi	a0,a0,924 # 139c <.Lline_table_start1+0x1171>
   1c716:	950a                	add	a0,a0,sp
   1c718:	6585                	lui	a1,0x1
   1c71a:	1de58593          	addi	a1,a1,478 # 11de <.Lline_table_start1+0xfb3>
   1c71e:	958a                	add	a1,a1,sp
   1c720:	ffff5097          	auipc	ra,0xffff5
   1c724:	622080e7          	jalr	1570(ra) # 11d42 <_ZN18complex_no_dynamic3app17h1c277e0a6092f54dE>
   1c728:	3ec94403          	lbu	s0,1004(s2)
   1c72c:	c401                	beqz	s0,1c734 <_start+0x44c4>
   1c72e:	3f092983          	lw	s3,1008(s2)
   1c732:	a835                	j	1c76e <_start+0x44fe>
   1c734:	3ee94503          	lbu	a0,1006(s2)
   1c738:	3ed94583          	lbu	a1,1005(s2)
   1c73c:	3ef94603          	lbu	a2,1007(s2)
   1c740:	3f092983          	lw	s3,1008(s2)
   1c744:	0522                	slli	a0,a0,0x8
   1c746:	8d4d                	or	a0,a0,a1
   1c748:	02a11223          	sh	a0,36(sp)
   1c74c:	02c10323          	sb	a2,38(sp)
   1c750:	6505                	lui	a0,0x1
   1c752:	3a450513          	addi	a0,a0,932 # 13a4 <.Lline_table_start1+0x1179>
   1c756:	00a105b3          	add	a1,sp,a0
   1c75a:	6505                	lui	a0,0x1
   1c75c:	34050513          	addi	a0,a0,832 # 1340 <.Lline_table_start1+0x1115>
   1c760:	950a                	add	a0,a0,sp
   1c762:	05700613          	li	a2,87
   1c766:	00000097          	auipc	ra,0x0
   1c76a:	5ca080e7          	jalr	1482(ra) # 1cd30 <memcpy>
   1c76e:	4a041363          	bnez	s0,1cc14 <_start+0x49a4>
   1c772:	02411503          	lh	a0,36(sp)
   1c776:	02614583          	lbu	a1,38(sp)
   1c77a:	0189d613          	srli	a2,s3,0x18
   1c77e:	0109d693          	srli	a3,s3,0x10
   1c782:	26d901a3          	sb	a3,611(s2)
   1c786:	26c90223          	sb	a2,612(s2)
   1c78a:	0089d613          	srli	a2,s3,0x8
   1c78e:	24a91f23          	sh	a0,606(s2)
   1c792:	26b90023          	sb	a1,608(s2)
   1c796:	273900a3          	sb	s3,609(s2)
   1c79a:	26c90123          	sb	a2,610(s2)
   1c79e:	6505                	lui	a0,0x1
   1c7a0:	21550513          	addi	a0,a0,533 # 1215 <.Lline_table_start1+0xfea>
   1c7a4:	950a                	add	a0,a0,sp
   1c7a6:	6585                	lui	a1,0x1
   1c7a8:	34058593          	addi	a1,a1,832 # 1340 <.Lline_table_start1+0x1115>
   1c7ac:	958a                	add	a1,a1,sp
   1c7ae:	05700613          	li	a2,87
   1c7b2:	00000097          	auipc	ra,0x0
   1c7b6:	57e080e7          	jalr	1406(ra) # 1cd30 <memcpy>
   1c7ba:	6505                	lui	a0,0x1
   1c7bc:	39c50513          	addi	a0,a0,924 # 139c <.Lline_table_start1+0x1171>
   1c7c0:	950a                	add	a0,a0,sp
   1c7c2:	6585                	lui	a1,0x1
   1c7c4:	20e58593          	addi	a1,a1,526 # 120e <.Lline_table_start1+0xfe3>
   1c7c8:	958a                	add	a1,a1,sp
   1c7ca:	ffffb097          	auipc	ra,0xffffb
   1c7ce:	5fe080e7          	jalr	1534(ra) # 17dc8 <_ZN18complex_no_dynamic3app17hfb7755de4dbd7564E>
   1c7d2:	3ec94403          	lbu	s0,1004(s2)
   1c7d6:	c401                	beqz	s0,1c7de <_start+0x456e>
   1c7d8:	3f092983          	lw	s3,1008(s2)
   1c7dc:	a835                	j	1c818 <_start+0x45a8>
   1c7de:	3ee94503          	lbu	a0,1006(s2)
   1c7e2:	3ed94583          	lbu	a1,1005(s2)
   1c7e6:	3ef94603          	lbu	a2,1007(s2)
   1c7ea:	3f092983          	lw	s3,1008(s2)
   1c7ee:	0522                	slli	a0,a0,0x8
   1c7f0:	8d4d                	or	a0,a0,a1
   1c7f2:	02a11223          	sh	a0,36(sp)
   1c7f6:	02c10323          	sb	a2,38(sp)
   1c7fa:	6505                	lui	a0,0x1
   1c7fc:	3a450513          	addi	a0,a0,932 # 13a4 <.Lline_table_start1+0x1179>
   1c800:	00a105b3          	add	a1,sp,a0
   1c804:	6505                	lui	a0,0x1
   1c806:	34050513          	addi	a0,a0,832 # 1340 <.Lline_table_start1+0x1115>
   1c80a:	950a                	add	a0,a0,sp
   1c80c:	04e00613          	li	a2,78
   1c810:	00000097          	auipc	ra,0x0
   1c814:	520080e7          	jalr	1312(ra) # 1cd30 <memcpy>
   1c818:	3e041e63          	bnez	s0,1cc14 <_start+0x49a4>
   1c81c:	02411503          	lh	a0,36(sp)
   1c820:	02614583          	lbu	a1,38(sp)
   1c824:	0189d613          	srli	a2,s3,0x18
   1c828:	0109d693          	srli	a3,s3,0x10
   1c82c:	2cd900a3          	sb	a3,705(s2)
   1c830:	2cc90123          	sb	a2,706(s2)
   1c834:	0089d613          	srli	a2,s3,0x8
   1c838:	2aa91e23          	sh	a0,700(s2)
   1c83c:	2ab90f23          	sb	a1,702(s2)
   1c840:	2b390fa3          	sb	s3,703(s2)
   1c844:	2cc90023          	sb	a2,704(s2)
   1c848:	6505                	lui	a0,0x1
   1c84a:	27350513          	addi	a0,a0,627 # 1273 <.Lline_table_start1+0x1048>
   1c84e:	950a                	add	a0,a0,sp
   1c850:	6585                	lui	a1,0x1
   1c852:	34058593          	addi	a1,a1,832 # 1340 <.Lline_table_start1+0x1115>
   1c856:	958a                	add	a1,a1,sp
   1c858:	04e00613          	li	a2,78
   1c85c:	00000097          	auipc	ra,0x0
   1c860:	4d4080e7          	jalr	1236(ra) # 1cd30 <memcpy>
   1c864:	6505                	lui	a0,0x1
   1c866:	39c50513          	addi	a0,a0,924 # 139c <.Lline_table_start1+0x1171>
   1c86a:	950a                	add	a0,a0,sp
   1c86c:	6585                	lui	a1,0x1
   1c86e:	26c58593          	addi	a1,a1,620 # 126c <.Lline_table_start1+0x1041>
   1c872:	958a                	add	a1,a1,sp
   1c874:	ffff5097          	auipc	ra,0xffff5
   1c878:	2ba080e7          	jalr	698(ra) # 11b2e <_ZN18complex_no_dynamic3app17h1985133cb8c6fd5cE>
   1c87c:	3ec94503          	lbu	a0,1004(s2)
   1c880:	c501                	beqz	a0,1c888 <_start+0x4618>
   1c882:	3f092983          	lw	s3,1008(s2)
   1c886:	a81d                	j	1c8bc <_start+0x464c>
   1c888:	3ee94583          	lbu	a1,1006(s2)
   1c88c:	3ed94603          	lbu	a2,1005(s2)
   1c890:	3ef94683          	lbu	a3,1007(s2)
   1c894:	3f092983          	lw	s3,1008(s2)
   1c898:	05a2                	slli	a1,a1,0x8
   1c89a:	8dd1                	or	a1,a1,a2
   1c89c:	3f492603          	lw	a2,1012(s2)
   1c8a0:	3f892703          	lw	a4,1016(s2)
   1c8a4:	3fc91783          	lh	a5,1020(s2)
   1c8a8:	02b11223          	sh	a1,36(sp)
   1c8ac:	02d10323          	sb	a3,38(sp)
   1c8b0:	38c92823          	sw	a2,912(s2)
   1c8b4:	38e92a23          	sw	a4,916(s2)
   1c8b8:	38f91c23          	sh	a5,920(s2)
   1c8bc:	34051c63          	bnez	a0,1cc14 <_start+0x49a4>
   1c8c0:	02411503          	lh	a0,36(sp)
   1c8c4:	02614583          	lbu	a1,38(sp)
   1c8c8:	0189d613          	srli	a2,s3,0x18
   1c8cc:	0109d693          	srli	a3,s3,0x10
   1c8d0:	30d90ba3          	sb	a3,791(s2)
   1c8d4:	30c90c23          	sb	a2,792(s2)
   1c8d8:	0089d613          	srli	a2,s3,0x8
   1c8dc:	30a91923          	sh	a0,786(s2)
   1c8e0:	30b90a23          	sb	a1,788(s2)
   1c8e4:	31390aa3          	sb	s3,789(s2)
   1c8e8:	30c90b23          	sb	a2,790(s2)
   1c8ec:	6505                	lui	a0,0x1
   1c8ee:	2c950513          	addi	a0,a0,713 # 12c9 <.Lline_table_start1+0x109e>
   1c8f2:	950a                	add	a0,a0,sp
   1c8f4:	6585                	lui	a1,0x1
   1c8f6:	34058593          	addi	a1,a1,832 # 1340 <.Lline_table_start1+0x1115>
   1c8fa:	958a                	add	a1,a1,sp
   1c8fc:	4629                	li	a2,10
   1c8fe:	00000097          	auipc	ra,0x0
   1c902:	432080e7          	jalr	1074(ra) # 1cd30 <memcpy>
   1c906:	6505                	lui	a0,0x1
   1c908:	39c50513          	addi	a0,a0,924 # 139c <.Lline_table_start1+0x1171>
   1c90c:	950a                	add	a0,a0,sp
   1c90e:	6585                	lui	a1,0x1
   1c910:	2c258593          	addi	a1,a1,706 # 12c2 <.Lline_table_start1+0x1097>
   1c914:	958a                	add	a1,a1,sp
   1c916:	ffffb097          	auipc	ra,0xffffb
   1c91a:	5c4080e7          	jalr	1476(ra) # 17eda <_ZN18complex_no_dynamic3app17hfc5735266ae4942bE>
   1c91e:	3ec94403          	lbu	s0,1004(s2)
   1c922:	c401                	beqz	s0,1c92a <_start+0x46ba>
   1c924:	3f092983          	lw	s3,1008(s2)
   1c928:	a835                	j	1c964 <_start+0x46f4>
   1c92a:	3ee94503          	lbu	a0,1006(s2)
   1c92e:	3ed94583          	lbu	a1,1005(s2)
   1c932:	3ef94603          	lbu	a2,1007(s2)
   1c936:	3f092983          	lw	s3,1008(s2)
   1c93a:	0522                	slli	a0,a0,0x8
   1c93c:	8d4d                	or	a0,a0,a1
   1c93e:	02a11223          	sh	a0,36(sp)
   1c942:	02c10323          	sb	a2,38(sp)
   1c946:	6505                	lui	a0,0x1
   1c948:	3a450513          	addi	a0,a0,932 # 13a4 <.Lline_table_start1+0x1179>
   1c94c:	00a105b3          	add	a1,sp,a0
   1c950:	6505                	lui	a0,0x1
   1c952:	34050513          	addi	a0,a0,832 # 1340 <.Lline_table_start1+0x1115>
   1c956:	950a                	add	a0,a0,sp
   1c958:	04900613          	li	a2,73
   1c95c:	00000097          	auipc	ra,0x0
   1c960:	3d4080e7          	jalr	980(ra) # 1cd30 <memcpy>
   1c964:	2a041863          	bnez	s0,1cc14 <_start+0x49a4>
   1c968:	02411503          	lh	a0,36(sp)
   1c96c:	02614583          	lbu	a1,38(sp)
   1c970:	0189d613          	srli	a2,s3,0x18
   1c974:	0109d693          	srli	a3,s3,0x10
   1c978:	32d904a3          	sb	a3,809(s2)
   1c97c:	32c90523          	sb	a2,810(s2)
   1c980:	0089d613          	srli	a2,s3,0x8
   1c984:	32a91223          	sh	a0,804(s2)
   1c988:	32b90323          	sb	a1,806(s2)
   1c98c:	333903a3          	sb	s3,807(s2)
   1c990:	32c90423          	sb	a2,808(s2)
   1c994:	6505                	lui	a0,0x1
   1c996:	2db50513          	addi	a0,a0,731 # 12db <.Lline_table_start1+0x10b0>
   1c99a:	950a                	add	a0,a0,sp
   1c99c:	6585                	lui	a1,0x1
   1c99e:	34058593          	addi	a1,a1,832 # 1340 <.Lline_table_start1+0x1115>
   1c9a2:	958a                	add	a1,a1,sp
   1c9a4:	04900613          	li	a2,73
   1c9a8:	00000097          	auipc	ra,0x0
   1c9ac:	388080e7          	jalr	904(ra) # 1cd30 <memcpy>
   1c9b0:	6505                	lui	a0,0x1
   1c9b2:	39c50513          	addi	a0,a0,924 # 139c <.Lline_table_start1+0x1171>
   1c9b6:	950a                	add	a0,a0,sp
   1c9b8:	6585                	lui	a1,0x1
   1c9ba:	2d458593          	addi	a1,a1,724 # 12d4 <.Lline_table_start1+0x10a9>
   1c9be:	958a                	add	a1,a1,sp
   1c9c0:	ffff7097          	auipc	ra,0xffff7
   1c9c4:	336080e7          	jalr	822(ra) # 13cf6 <_ZN18complex_no_dynamic3app17h6545c2bd0767f8f3E>
   1c9c8:	3ec94503          	lbu	a0,1004(s2)
   1c9cc:	c501                	beqz	a0,1c9d4 <_start+0x4764>
   1c9ce:	3f092983          	lw	s3,1008(s2)
   1c9d2:	a099                	j	1ca18 <_start+0x47a8>
   1c9d4:	3ed94583          	lbu	a1,1005(s2)
   1c9d8:	3ee94603          	lbu	a2,1006(s2)
   1c9dc:	3ef94683          	lbu	a3,1007(s2)
   1c9e0:	3f092983          	lw	s3,1008(s2)
   1c9e4:	3f492703          	lw	a4,1012(s2)
   1c9e8:	3f892783          	lw	a5,1016(s2)
   1c9ec:	3fc92483          	lw	s1,1020(s2)
   1c9f0:	40092403          	lw	s0,1024(s2)
   1c9f4:	38e92823          	sw	a4,912(s2)
   1c9f8:	38f92a23          	sw	a5,916(s2)
   1c9fc:	38992c23          	sw	s1,920(s2)
   1ca00:	38892e23          	sw	s0,924(s2)
   1ca04:	40492703          	lw	a4,1028(s2)
   1ca08:	0622                	slli	a2,a2,0x8
   1ca0a:	8dd1                	or	a1,a1,a2
   1ca0c:	02b11223          	sh	a1,36(sp)
   1ca10:	02d10323          	sb	a3,38(sp)
   1ca14:	3ae92023          	sw	a4,928(s2)
   1ca18:	1e051e63          	bnez	a0,1cc14 <_start+0x49a4>
   1ca1c:	02411503          	lh	a0,36(sp)
   1ca20:	02614583          	lbu	a1,38(sp)
   1ca24:	0189d613          	srli	a2,s3,0x18
   1ca28:	0109d693          	srli	a3,s3,0x10
   1ca2c:	36d90ca3          	sb	a3,889(s2)
   1ca30:	36c90d23          	sb	a2,890(s2)
   1ca34:	0089d613          	srli	a2,s3,0x8
   1ca38:	36a91a23          	sh	a0,884(s2)
   1ca3c:	36b90b23          	sb	a1,886(s2)
   1ca40:	37390ba3          	sb	s3,887(s2)
   1ca44:	36c90c23          	sb	a2,888(s2)
   1ca48:	6505                	lui	a0,0x1
   1ca4a:	32b50513          	addi	a0,a0,811 # 132b <.Lline_table_start1+0x1100>
   1ca4e:	950a                	add	a0,a0,sp
   1ca50:	6585                	lui	a1,0x1
   1ca52:	34058593          	addi	a1,a1,832 # 1340 <.Lline_table_start1+0x1115>
   1ca56:	958a                	add	a1,a1,sp
   1ca58:	4651                	li	a2,20
   1ca5a:	00000097          	auipc	ra,0x0
   1ca5e:	2d6080e7          	jalr	726(ra) # 1cd30 <memcpy>
   1ca62:	6505                	lui	a0,0x1
   1ca64:	39c50513          	addi	a0,a0,924 # 139c <.Lline_table_start1+0x1171>
   1ca68:	950a                	add	a0,a0,sp
   1ca6a:	6585                	lui	a1,0x1
   1ca6c:	32458593          	addi	a1,a1,804 # 1324 <.Lline_table_start1+0x10f9>
   1ca70:	958a                	add	a1,a1,sp
   1ca72:	ffff8097          	auipc	ra,0xffff8
   1ca76:	1a8080e7          	jalr	424(ra) # 14c1a <_ZN18complex_no_dynamic3app17h7eeac271c5acc1aeE>
   1ca7a:	3ec94403          	lbu	s0,1004(s2)
   1ca7e:	c401                	beqz	s0,1ca86 <_start+0x4816>
   1ca80:	3f092983          	lw	s3,1008(s2)
   1ca84:	a835                	j	1cac0 <_start+0x4850>
   1ca86:	3ee94503          	lbu	a0,1006(s2)
   1ca8a:	3ed94583          	lbu	a1,1005(s2)
   1ca8e:	3ef94603          	lbu	a2,1007(s2)
   1ca92:	3f092983          	lw	s3,1008(s2)
   1ca96:	0522                	slli	a0,a0,0x8
   1ca98:	8d4d                	or	a0,a0,a1
   1ca9a:	02a11223          	sh	a0,36(sp)
   1ca9e:	02c10323          	sb	a2,38(sp)
   1caa2:	6505                	lui	a0,0x1
   1caa4:	3a450513          	addi	a0,a0,932 # 13a4 <.Lline_table_start1+0x1179>
   1caa8:	00a105b3          	add	a1,sp,a0
   1caac:	6505                	lui	a0,0x1
   1caae:	34050513          	addi	a0,a0,832 # 1340 <.Lline_table_start1+0x1115>
   1cab2:	950a                	add	a0,a0,sp
   1cab4:	05c00613          	li	a2,92
   1cab8:	00000097          	auipc	ra,0x0
   1cabc:	278080e7          	jalr	632(ra) # 1cd30 <memcpy>
   1cac0:	14041a63          	bnez	s0,1cc14 <_start+0x49a4>
   1cac4:	02411503          	lh	a0,36(sp)
   1cac8:	02614583          	lbu	a1,38(sp)
   1cacc:	0189d613          	srli	a2,s3,0x18
   1cad0:	0109d693          	srli	a3,s3,0x10
   1cad4:	44d90ba3          	sb	a3,1111(s2)
   1cad8:	44c90c23          	sb	a2,1112(s2)
   1cadc:	0089d613          	srli	a2,s3,0x8
   1cae0:	44a91923          	sh	a0,1106(s2)
   1cae4:	44b90a23          	sb	a1,1108(s2)
   1cae8:	45390aa3          	sb	s3,1109(s2)
   1caec:	44c90b23          	sb	a2,1110(s2)
   1caf0:	6505                	lui	a0,0x1
   1caf2:	40950513          	addi	a0,a0,1033 # 1409 <.Lline_table_start1+0x11de>
   1caf6:	950a                	add	a0,a0,sp
   1caf8:	6585                	lui	a1,0x1
   1cafa:	34058593          	addi	a1,a1,832 # 1340 <.Lline_table_start1+0x1115>
   1cafe:	958a                	add	a1,a1,sp
   1cb00:	05c00613          	li	a2,92
   1cb04:	00000097          	auipc	ra,0x0
   1cb08:	22c080e7          	jalr	556(ra) # 1cd30 <memcpy>
   1cb0c:	6505                	lui	a0,0x1
   1cb0e:	39c50513          	addi	a0,a0,924 # 139c <.Lline_table_start1+0x1171>
   1cb12:	950a                	add	a0,a0,sp
   1cb14:	6585                	lui	a1,0x1
   1cb16:	40258593          	addi	a1,a1,1026 # 1402 <.Lline_table_start1+0x11d7>
   1cb1a:	958a                	add	a1,a1,sp
   1cb1c:	ffff7097          	auipc	ra,0xffff7
   1cb20:	baa080e7          	jalr	-1110(ra) # 136c6 <_ZN18complex_no_dynamic3app17h59f81a873484c03eE>
   1cb24:	3ec94403          	lbu	s0,1004(s2)
   1cb28:	c401                	beqz	s0,1cb30 <_start+0x48c0>
   1cb2a:	3f092983          	lw	s3,1008(s2)
   1cb2e:	a835                	j	1cb6a <_start+0x48fa>
   1cb30:	3ee94503          	lbu	a0,1006(s2)
   1cb34:	3ed94583          	lbu	a1,1005(s2)
   1cb38:	3ef94603          	lbu	a2,1007(s2)
   1cb3c:	3f092983          	lw	s3,1008(s2)
   1cb40:	0522                	slli	a0,a0,0x8
   1cb42:	8d4d                	or	a0,a0,a1
   1cb44:	02a11223          	sh	a0,36(sp)
   1cb48:	02c10323          	sb	a2,38(sp)
   1cb4c:	6505                	lui	a0,0x1
   1cb4e:	3a450513          	addi	a0,a0,932 # 13a4 <.Lline_table_start1+0x1179>
   1cb52:	00a105b3          	add	a1,sp,a0
   1cb56:	6505                	lui	a0,0x1
   1cb58:	34050513          	addi	a0,a0,832 # 1340 <.Lline_table_start1+0x1115>
   1cb5c:	950a                	add	a0,a0,sp
   1cb5e:	02500613          	li	a2,37
   1cb62:	00000097          	auipc	ra,0x0
   1cb66:	1ce080e7          	jalr	462(ra) # 1cd30 <memcpy>
   1cb6a:	e44d                	bnez	s0,1cc14 <_start+0x49a4>
   1cb6c:	02411503          	lh	a0,36(sp)
   1cb70:	02614583          	lbu	a1,38(sp)
   1cb74:	0189d613          	srli	a2,s3,0x18
   1cb78:	0109d693          	srli	a3,s3,0x10
   1cb7c:	4ad90da3          	sb	a3,1211(s2)
   1cb80:	4ac90e23          	sb	a2,1212(s2)
   1cb84:	0089d613          	srli	a2,s3,0x8
   1cb88:	4aa91b23          	sh	a0,1206(s2)
   1cb8c:	4ab90c23          	sb	a1,1208(s2)
   1cb90:	4b390ca3          	sb	s3,1209(s2)
   1cb94:	4ac90d23          	sb	a2,1210(s2)
   1cb98:	6505                	lui	a0,0x1
   1cb9a:	46d50513          	addi	a0,a0,1133 # 146d <.Lline_table_start1+0x1242>
   1cb9e:	950a                	add	a0,a0,sp
   1cba0:	6585                	lui	a1,0x1
   1cba2:	34058593          	addi	a1,a1,832 # 1340 <.Lline_table_start1+0x1115>
   1cba6:	958a                	add	a1,a1,sp
   1cba8:	02500613          	li	a2,37
   1cbac:	00000097          	auipc	ra,0x0
   1cbb0:	184080e7          	jalr	388(ra) # 1cd30 <memcpy>
   1cbb4:	6505                	lui	a0,0x1
   1cbb6:	39c50513          	addi	a0,a0,924 # 139c <.Lline_table_start1+0x1171>
   1cbba:	950a                	add	a0,a0,sp
   1cbbc:	6585                	lui	a1,0x1
   1cbbe:	46658593          	addi	a1,a1,1126 # 1466 <.Lline_table_start1+0x123b>
   1cbc2:	958a                	add	a1,a1,sp
   1cbc4:	ffffa097          	auipc	ra,0xffffa
   1cbc8:	a3c080e7          	jalr	-1476(ra) # 16600 <_ZN18complex_no_dynamic3app17hbf313343417210daE>
   1cbcc:	3ec94403          	lbu	s0,1004(s2)
   1cbd0:	c401                	beqz	s0,1cbd8 <_start+0x4968>
   1cbd2:	3f092983          	lw	s3,1008(s2)
   1cbd6:	a835                	j	1cc12 <_start+0x49a2>
   1cbd8:	3ee94503          	lbu	a0,1006(s2)
   1cbdc:	3ed94583          	lbu	a1,1005(s2)
   1cbe0:	3ef94603          	lbu	a2,1007(s2)
   1cbe4:	3f092983          	lw	s3,1008(s2)
   1cbe8:	0522                	slli	a0,a0,0x8
   1cbea:	8d4d                	or	a0,a0,a1
   1cbec:	02a11223          	sh	a0,36(sp)
   1cbf0:	02c10323          	sb	a2,38(sp)
   1cbf4:	6505                	lui	a0,0x1
   1cbf6:	3a450513          	addi	a0,a0,932 # 13a4 <.Lline_table_start1+0x1179>
   1cbfa:	00a105b3          	add	a1,sp,a0
   1cbfe:	6505                	lui	a0,0x1
   1cc00:	34050513          	addi	a0,a0,832 # 1340 <.Lline_table_start1+0x1115>
   1cc04:	950a                	add	a0,a0,sp
   1cc06:	02300613          	li	a2,35
   1cc0a:	00000097          	auipc	ra,0x0
   1cc0e:	126080e7          	jalr	294(ra) # 1cd30 <memcpy>
   1cc12:	c421                	beqz	s0,1cc5a <_start+0x49ea>
   1cc14:	4505                	li	a0,1
   1cc16:	85ce                	mv	a1,s3
   1cc18:	7f010113          	addi	sp,sp,2032
   1cc1c:	51010113          	addi	sp,sp,1296
   1cc20:	7ec12083          	lw	ra,2028(sp)
   1cc24:	7e812403          	lw	s0,2024(sp)
   1cc28:	7e412483          	lw	s1,2020(sp)
   1cc2c:	7e012903          	lw	s2,2016(sp)
   1cc30:	7dc12983          	lw	s3,2012(sp)
   1cc34:	7d812a03          	lw	s4,2008(sp)
   1cc38:	7d412a83          	lw	s5,2004(sp)
   1cc3c:	7d012b03          	lw	s6,2000(sp)
   1cc40:	7cc12b83          	lw	s7,1996(sp)
   1cc44:	7c812c03          	lw	s8,1992(sp)
   1cc48:	7c412c83          	lw	s9,1988(sp)
   1cc4c:	7c012d03          	lw	s10,1984(sp)
   1cc50:	7bc12d83          	lw	s11,1980(sp)
   1cc54:	7f010113          	addi	sp,sp,2032
   1cc58:	8082                	ret
   1cc5a:	02411503          	lh	a0,36(sp)
   1cc5e:	02614583          	lbu	a1,38(sp)
   1cc62:	0189d613          	srli	a2,s3,0x18
   1cc66:	0109d693          	srli	a3,s3,0x10
   1cc6a:	4ed903a3          	sb	a3,1255(s2)
   1cc6e:	4ec90423          	sb	a2,1256(s2)
   1cc72:	0089d613          	srli	a2,s3,0x8
   1cc76:	4ea91123          	sh	a0,1250(s2)
   1cc7a:	4eb90223          	sb	a1,1252(s2)
   1cc7e:	4f3902a3          	sb	s3,1253(s2)
   1cc82:	4ec90323          	sb	a2,1254(s2)
   1cc86:	6505                	lui	a0,0x1
   1cc88:	49950513          	addi	a0,a0,1177 # 1499 <.Lline_table_start1+0x126e>
   1cc8c:	950a                	add	a0,a0,sp
   1cc8e:	6585                	lui	a1,0x1
   1cc90:	34058593          	addi	a1,a1,832 # 1340 <.Lline_table_start1+0x1115>
   1cc94:	958a                	add	a1,a1,sp
   1cc96:	02300613          	li	a2,35
   1cc9a:	00000097          	auipc	ra,0x0
   1cc9e:	096080e7          	jalr	150(ra) # 1cd30 <memcpy>
   1cca2:	6505                	lui	a0,0x1
   1cca4:	39c50513          	addi	a0,a0,924 # 139c <.Lline_table_start1+0x1171>
   1cca8:	950a                	add	a0,a0,sp
   1ccaa:	6585                	lui	a1,0x1
   1ccac:	49258593          	addi	a1,a1,1170 # 1492 <.Lline_table_start1+0x1267>
   1ccb0:	958a                	add	a1,a1,sp
   1ccb2:	ffff6097          	auipc	ra,0xffff6
   1ccb6:	88e080e7          	jalr	-1906(ra) # 12540 <_ZN18complex_no_dynamic3app17h2718aa5a2582825bE>
   1ccba:	3f092983          	lw	s3,1008(s2)
   1ccbe:	3ec94503          	lbu	a0,1004(s2)
   1ccc2:	bf91                	j	1cc16 <_start+0x49a6>

0001ccc4 <memset>:
   1ccc4:	46c1                	li	a3,16
   1ccc6:	04d66f63          	bltu	a2,a3,1cd24 <memset+0x60>
   1ccca:	40a006b3          	neg	a3,a0
   1ccce:	0036f813          	andi	a6,a3,3
   1ccd2:	01050733          	add	a4,a0,a6
   1ccd6:	00e57963          	bgeu	a0,a4,1cce8 <memset+0x24>
   1ccda:	87c2                	mv	a5,a6
   1ccdc:	86aa                	mv	a3,a0
   1ccde:	00b68023          	sb	a1,0(a3)
   1cce2:	17fd                	addi	a5,a5,-1
   1cce4:	0685                	addi	a3,a3,1
   1cce6:	ffe5                	bnez	a5,1ccde <memset+0x1a>
   1cce8:	41060633          	sub	a2,a2,a6
   1ccec:	ffc67693          	andi	a3,a2,-4
   1ccf0:	96ba                	add	a3,a3,a4
   1ccf2:	00d77e63          	bgeu	a4,a3,1cd0e <memset+0x4a>
   1ccf6:	0ff5f813          	zext.b	a6,a1
   1ccfa:	010107b7          	lui	a5,0x1010
   1ccfe:	10178793          	addi	a5,a5,257 # 1010101 <_ZN17compiler_builtins3mem6memcpy17h90d0c987d2ef5a79E+0xff33c9>
   1cd02:	02f807b3          	mul	a5,a6,a5
   1cd06:	c31c                	sw	a5,0(a4)
   1cd08:	0711                	addi	a4,a4,4
   1cd0a:	fed76ee3          	bltu	a4,a3,1cd06 <memset+0x42>
   1cd0e:	8a0d                	andi	a2,a2,3
   1cd10:	00c68733          	add	a4,a3,a2
   1cd14:	00e6f763          	bgeu	a3,a4,1cd22 <memset+0x5e>
   1cd18:	00b68023          	sb	a1,0(a3)
   1cd1c:	167d                	addi	a2,a2,-1
   1cd1e:	0685                	addi	a3,a3,1
   1cd20:	fe65                	bnez	a2,1cd18 <memset+0x54>
   1cd22:	8082                	ret
   1cd24:	86aa                	mv	a3,a0
   1cd26:	00c50733          	add	a4,a0,a2
   1cd2a:	fee567e3          	bltu	a0,a4,1cd18 <memset+0x54>
   1cd2e:	bfd5                	j	1cd22 <memset+0x5e>

0001cd30 <memcpy>:
   1cd30:	00000317          	auipc	t1,0x0
   1cd34:	00830067          	jr	8(t1) # 1cd38 <_ZN17compiler_builtins3mem6memcpy17h90d0c987d2ef5a79E>

0001cd38 <_ZN17compiler_builtins3mem6memcpy17h90d0c987d2ef5a79E>:
   1cd38:	1141                	addi	sp,sp,-16
   1cd3a:	c622                	sw	s0,12(sp)
   1cd3c:	46c1                	li	a3,16
   1cd3e:	06d66363          	bltu	a2,a3,1cda4 <_ZN17compiler_builtins3mem6memcpy17h90d0c987d2ef5a79E+0x6c>
   1cd42:	40a006b3          	neg	a3,a0
   1cd46:	0036f813          	andi	a6,a3,3
   1cd4a:	01050fb3          	add	t6,a0,a6
   1cd4e:	01f57d63          	bgeu	a0,t6,1cd68 <_ZN17compiler_builtins3mem6memcpy17h90d0c987d2ef5a79E+0x30>
   1cd52:	8742                	mv	a4,a6
   1cd54:	86aa                	mv	a3,a0
   1cd56:	87ae                	mv	a5,a1
   1cd58:	0007c883          	lbu	a7,0(a5)
   1cd5c:	177d                	addi	a4,a4,-1
   1cd5e:	01168023          	sb	a7,0(a3)
   1cd62:	0685                	addi	a3,a3,1
   1cd64:	0785                	addi	a5,a5,1
   1cd66:	fb6d                	bnez	a4,1cd58 <_ZN17compiler_builtins3mem6memcpy17h90d0c987d2ef5a79E+0x20>
   1cd68:	01058433          	add	s0,a1,a6
   1cd6c:	410608b3          	sub	a7,a2,a6
   1cd70:	ffc8f713          	andi	a4,a7,-4
   1cd74:	00347613          	andi	a2,s0,3
   1cd78:	00ef86b3          	add	a3,t6,a4
   1cd7c:	e621                	bnez	a2,1cdc4 <_ZN17compiler_builtins3mem6memcpy17h90d0c987d2ef5a79E+0x8c>
   1cd7e:	00dffa63          	bgeu	t6,a3,1cd92 <_ZN17compiler_builtins3mem6memcpy17h90d0c987d2ef5a79E+0x5a>
   1cd82:	8622                	mv	a2,s0
   1cd84:	421c                	lw	a5,0(a2)
   1cd86:	00ffa023          	sw	a5,0(t6)
   1cd8a:	0f91                	addi	t6,t6,4
   1cd8c:	0611                	addi	a2,a2,4
   1cd8e:	fedfebe3          	bltu	t6,a3,1cd84 <_ZN17compiler_builtins3mem6memcpy17h90d0c987d2ef5a79E+0x4c>
   1cd92:	00e405b3          	add	a1,s0,a4
   1cd96:	0038f613          	andi	a2,a7,3
   1cd9a:	00c68733          	add	a4,a3,a2
   1cd9e:	00e6e863          	bltu	a3,a4,1cdae <_ZN17compiler_builtins3mem6memcpy17h90d0c987d2ef5a79E+0x76>
   1cda2:	a831                	j	1cdbe <_ZN17compiler_builtins3mem6memcpy17h90d0c987d2ef5a79E+0x86>
   1cda4:	86aa                	mv	a3,a0
   1cda6:	00c50733          	add	a4,a0,a2
   1cdaa:	00e57a63          	bgeu	a0,a4,1cdbe <_ZN17compiler_builtins3mem6memcpy17h90d0c987d2ef5a79E+0x86>
   1cdae:	0005c703          	lbu	a4,0(a1)
   1cdb2:	167d                	addi	a2,a2,-1
   1cdb4:	00e68023          	sb	a4,0(a3)
   1cdb8:	0685                	addi	a3,a3,1
   1cdba:	0585                	addi	a1,a1,1
   1cdbc:	fa6d                	bnez	a2,1cdae <_ZN17compiler_builtins3mem6memcpy17h90d0c987d2ef5a79E+0x76>
   1cdbe:	4432                	lw	s0,12(sp)
   1cdc0:	0141                	addi	sp,sp,16
   1cdc2:	8082                	ret
   1cdc4:	4801                	li	a6,0
   1cdc6:	4791                	li	a5,4
   1cdc8:	c402                	sw	zero,8(sp)
   1cdca:	40c783b3          	sub	t2,a5,a2
   1cdce:	00810293          	addi	t0,sp,8
   1cdd2:	0013f313          	andi	t1,t2,1
   1cdd6:	00c2e2b3          	or	t0,t0,a2
   1cdda:	04031763          	bnez	t1,1ce28 <_ZN17compiler_builtins3mem6memcpy17h90d0c987d2ef5a79E+0xf0>
   1cdde:	0023f793          	andi	a5,t2,2
   1cde2:	ebb9                	bnez	a5,1ce38 <_ZN17compiler_builtins3mem6memcpy17h90d0c987d2ef5a79E+0x100>
   1cde4:	4ea2                	lw	t4,8(sp)
   1cde6:	00361813          	slli	a6,a2,0x3
   1cdea:	004f8793          	addi	a5,t6,4
   1cdee:	40c40f33          	sub	t5,s0,a2
   1cdf2:	06d7f363          	bgeu	a5,a3,1ce58 <_ZN17compiler_builtins3mem6memcpy17h90d0c987d2ef5a79E+0x120>
   1cdf6:	410007b3          	neg	a5,a6
   1cdfa:	0187fe13          	andi	t3,a5,24
   1cdfe:	004f2283          	lw	t0,4(t5)
   1ce02:	004f0393          	addi	t2,t5,4
   1ce06:	010ed5b3          	srl	a1,t4,a6
   1ce0a:	004f8313          	addi	t1,t6,4
   1ce0e:	01c297b3          	sll	a5,t0,t3
   1ce12:	8ddd                	or	a1,a1,a5
   1ce14:	008f8793          	addi	a5,t6,8
   1ce18:	00bfa023          	sw	a1,0(t6)
   1ce1c:	8f9a                	mv	t6,t1
   1ce1e:	8f1e                	mv	t5,t2
   1ce20:	8e96                	mv	t4,t0
   1ce22:	fcd7eee3          	bltu	a5,a3,1cdfe <_ZN17compiler_builtins3mem6memcpy17h90d0c987d2ef5a79E+0xc6>
   1ce26:	a825                	j	1ce5e <_ZN17compiler_builtins3mem6memcpy17h90d0c987d2ef5a79E+0x126>
   1ce28:	00044783          	lbu	a5,0(s0)
   1ce2c:	00f28023          	sb	a5,0(t0)
   1ce30:	4805                	li	a6,1
   1ce32:	0023f793          	andi	a5,t2,2
   1ce36:	d7dd                	beqz	a5,1cde4 <_ZN17compiler_builtins3mem6memcpy17h90d0c987d2ef5a79E+0xac>
   1ce38:	010407b3          	add	a5,s0,a6
   1ce3c:	00079783          	lh	a5,0(a5)
   1ce40:	9816                	add	a6,a6,t0
   1ce42:	00f81023          	sh	a5,0(a6)
   1ce46:	4ea2                	lw	t4,8(sp)
   1ce48:	00361813          	slli	a6,a2,0x3
   1ce4c:	004f8793          	addi	a5,t6,4
   1ce50:	40c40f33          	sub	t5,s0,a2
   1ce54:	fad7e1e3          	bltu	a5,a3,1cdf6 <_ZN17compiler_builtins3mem6memcpy17h90d0c987d2ef5a79E+0xbe>
   1ce58:	82f6                	mv	t0,t4
   1ce5a:	83fa                	mv	t2,t5
   1ce5c:	837e                	mv	t1,t6
   1ce5e:	00010223          	sb	zero,4(sp)
   1ce62:	4785                	li	a5,1
   1ce64:	00010123          	sb	zero,2(sp)
   1ce68:	00f61763          	bne	a2,a5,1ce76 <_ZN17compiler_builtins3mem6memcpy17h90d0c987d2ef5a79E+0x13e>
   1ce6c:	4781                	li	a5,0
   1ce6e:	4e01                	li	t3,0
   1ce70:	4e81                	li	t4,0
   1ce72:	0050                	addi	a2,sp,4
   1ce74:	a819                	j	1ce8a <_ZN17compiler_builtins3mem6memcpy17h90d0c987d2ef5a79E+0x152>
   1ce76:	0043c783          	lbu	a5,4(t2)
   1ce7a:	0053ce03          	lbu	t3,5(t2)
   1ce7e:	4e89                	li	t4,2
   1ce80:	00f10223          	sb	a5,4(sp)
   1ce84:	0e22                	slli	t3,t3,0x8
   1ce86:	00210613          	addi	a2,sp,2
   1ce8a:	00147593          	andi	a1,s0,1
   1ce8e:	e199                	bnez	a1,1ce94 <_ZN17compiler_builtins3mem6memcpy17h90d0c987d2ef5a79E+0x15c>
   1ce90:	4601                	li	a2,0
   1ce92:	a821                	j	1ceaa <_ZN17compiler_builtins3mem6memcpy17h90d0c987d2ef5a79E+0x172>
   1ce94:	0391                	addi	t2,t2,4
   1ce96:	93f6                	add	t2,t2,t4
   1ce98:	0003c583          	lbu	a1,0(t2)
   1ce9c:	00b60023          	sb	a1,0(a2)
   1cea0:	00214603          	lbu	a2,2(sp)
   1cea4:	00414783          	lbu	a5,4(sp)
   1cea8:	0642                	slli	a2,a2,0x10
   1ceaa:	8e5d                	or	a2,a2,a5
   1ceac:	0102d5b3          	srl	a1,t0,a6
   1ceb0:	410007b3          	neg	a5,a6
   1ceb4:	00ce6633          	or	a2,t3,a2
   1ceb8:	8be1                	andi	a5,a5,24
   1ceba:	00f61633          	sll	a2,a2,a5
   1cebe:	8dd1                	or	a1,a1,a2
   1cec0:	00b32023          	sw	a1,0(t1)
   1cec4:	00e405b3          	add	a1,s0,a4
   1cec8:	0038f613          	andi	a2,a7,3
   1cecc:	00c68733          	add	a4,a3,a2
   1ced0:	ece6efe3          	bltu	a3,a4,1cdae <_ZN17compiler_builtins3mem6memcpy17h90d0c987d2ef5a79E+0x76>
   1ced4:	b5ed                	j	1cdbe <_ZN17compiler_builtins3mem6memcpy17h90d0c987d2ef5a79E+0x86>
