
target/riscv32imc-unknown-none-elf/opt-3/examples/complex_dynamic_type:     file format elf32-littleriscv

Sections:
Idx Name          Size      VMA       LMA       File off  Algn
  0 .eh_frame     00000060  000100d4  000100d4  000000d4  2**2
                  CONTENTS, ALLOC, LOAD, READONLY, DATA
  1 .text         0000d586  00011134  00011134  00000134  2**1
                  CONTENTS, ALLOC, LOAD, READONLY, CODE
  2 .comment      0000008b  00000000  00000000  0000d6ba  2**0
                  CONTENTS, READONLY
  3 .riscv.attributes 0000002f  00000000  00000000  0000d745  2**0
                  CONTENTS, READONLY

Disassembly of section .text:

00011134 <_ZN20complex_dynamic_type3app17h000fac6651aa16b6E>:
   11134:	7131                	addi	sp,sp,-192
   11136:	df06                	sw	ra,188(sp)
   11138:	dd22                	sw	s0,184(sp)
   1113a:	db26                	sw	s1,180(sp)
   1113c:	d94a                	sw	s2,176(sp)
   1113e:	d74e                	sw	s3,172(sp)
   11140:	d552                	sw	s4,168(sp)
   11142:	d356                	sw	s5,164(sp)
   11144:	8aaa                	mv	s5,a0
   11146:	4409                	li	s0,2
   11148:	008105a3          	sb	s0,11(sp)
   1114c:	0064                	addi	s1,sp,12
   1114e:	03a00613          	li	a2,58
   11152:	8526                	mv	a0,s1
   11154:	0000d097          	auipc	ra,0xd
   11158:	3c0080e7          	jalr	960(ra) # 1e514 <memcpy>
   1115c:	04710a13          	addi	s4,sp,71
   11160:	05d00613          	li	a2,93
   11164:	8552                	mv	a0,s4
   11166:	4581                	li	a1,0
   11168:	0000d097          	auipc	ra,0xd
   1116c:	340080e7          	jalr	832(ra) # 1e4a8 <memset>
   11170:	4581                	li	a1,0
   11172:	8626                	mv	a2,s1
   11174:	04810323          	sb	s0,70(sp)
   11178:	6505                	lui	a0,0x1
   1117a:	4491                	li	s1,4
   1117c:	4a450793          	addi	a5,a0,1188 # 14a4 <.Lline_table_start1+0x1279>
   11180:	03a00693          	li	a3,58
   11184:	4711                	li	a4,4
   11186:	853e                	mv	a0,a5
   11188:	00000073          	ecall
   1118c:	00851863          	bne	a0,s0,1119c <_ZN20complex_dynamic_type3app17h000fac6651aa16b6E+0x68>
   11190:	4505                	li	a0,1
   11192:	00aa8023          	sb	a0,0(s5)
   11196:	00baa223          	sw	a1,4(s5)
   1119a:	a0bd                	j	11208 <_ZN20complex_dynamic_type3app17h000fac6651aa16b6E+0xd4>
   1119c:	853e                	mv	a0,a5
   1119e:	8652                	mv	a2,s4
   111a0:	009105a3          	sb	s1,11(sp)
   111a4:	478d                	li	a5,3
   111a6:	4595                	li	a1,5
   111a8:	05d00693          	li	a3,93
   111ac:	470d                	li	a4,3
   111ae:	00000073          	ecall
   111b2:	00851d63          	bne	a0,s0,111cc <_ZN20complex_dynamic_type3app17h000fac6651aa16b6E+0x98>
   111b6:	04614703          	lbu	a4,70(sp)
   111ba:	4505                	li	a0,1
   111bc:	4609                	li	a2,2
   111be:	00aa8023          	sb	a0,0(s5)
   111c2:	00baa223          	sw	a1,4(s5)
   111c6:	02c71963          	bne	a4,a2,111f8 <_ZN20complex_dynamic_type3app17h000fac6651aa16b6E+0xc4>
   111ca:	a83d                	j	11208 <_ZN20complex_dynamic_type3app17h000fac6651aa16b6E+0xd4>
   111cc:	4581                	li	a1,0
   111ce:	4681                	li	a3,0
   111d0:	04f10323          	sb	a5,70(sp)
   111d4:	6505                	lui	a0,0x1
   111d6:	4615                	li	a2,5
   111d8:	4709                	li	a4,2
   111da:	4a450513          	addi	a0,a0,1188 # 14a4 <.Lline_table_start1+0x1279>
   111de:	08000793          	li	a5,128
   111e2:	00000073          	ecall
   111e6:	4609                	li	a2,2
   111e8:	04f57663          	bgeu	a0,a5,11234 <_ZN20complex_dynamic_type3app17h000fac6651aa16b6E+0x100>
   111ec:	4505                	li	a0,1
   111ee:	00aa8023          	sb	a0,0(s5)
   111f2:	00baa223          	sw	a1,4(s5)
   111f6:	470d                	li	a4,3
   111f8:	6505                	lui	a0,0x1
   111fa:	4a450513          	addi	a0,a0,1188 # 14a4 <.Lline_table_start1+0x1279>
   111fe:	4595                	li	a1,5
   11200:	4601                	li	a2,0
   11202:	4681                	li	a3,0
   11204:	00000073          	ecall
   11208:	00b14703          	lbu	a4,11(sp)
   1120c:	4509                	li	a0,2
   1120e:	00a70a63          	beq	a4,a0,11222 <_ZN20complex_dynamic_type3app17h000fac6651aa16b6E+0xee>
   11212:	6505                	lui	a0,0x1
   11214:	4a450513          	addi	a0,a0,1188 # 14a4 <.Lline_table_start1+0x1279>
   11218:	4581                	li	a1,0
   1121a:	4601                	li	a2,0
   1121c:	4681                	li	a3,0
   1121e:	00000073          	ecall
   11222:	50fa                	lw	ra,188(sp)
   11224:	546a                	lw	s0,184(sp)
   11226:	54da                	lw	s1,180(sp)
   11228:	594a                	lw	s2,176(sp)
   1122a:	59ba                	lw	s3,172(sp)
   1122c:	5a2a                	lw	s4,168(sp)
   1122e:	5a9a                	lw	s5,164(sp)
   11230:	6129                	addi	sp,sp,192
   11232:	8082                	ret
   11234:	00b14703          	lbu	a4,11(sp)
   11238:	00c71463          	bne	a4,a2,11240 <_ZN20complex_dynamic_type3app17h000fac6651aa16b6E+0x10c>
   1123c:	470d                	li	a4,3
   1123e:	a825                	j	11276 <_ZN20complex_dynamic_type3app17h000fac6651aa16b6E+0x142>
   11240:	6505                	lui	a0,0x1
   11242:	4a450513          	addi	a0,a0,1188 # 14a4 <.Lline_table_start1+0x1279>
   11246:	4581                	li	a1,0
   11248:	4601                	li	a2,0
   1124a:	4681                	li	a3,0
   1124c:	00000073          	ecall
   11250:	04614703          	lbu	a4,70(sp)
   11254:	4509                	li	a0,2
   11256:	00a105a3          	sb	a0,11(sp)
   1125a:	00a71e63          	bne	a4,a0,11276 <_ZN20complex_dynamic_type3app17h000fac6651aa16b6E+0x142>
   1125e:	001a8513          	addi	a0,s5,1
   11262:	05d00613          	li	a2,93
   11266:	85d2                	mv	a1,s4
   11268:	0000d097          	auipc	ra,0xd
   1126c:	2ac080e7          	jalr	684(ra) # 1e514 <memcpy>
   11270:	000a8023          	sb	zero,0(s5)
   11274:	b77d                	j	11222 <_ZN20complex_dynamic_type3app17h000fac6651aa16b6E+0xee>
   11276:	6505                	lui	a0,0x1
   11278:	4a450913          	addi	s2,a0,1188 # 14a4 <.Lline_table_start1+0x1279>
   1127c:	4595                	li	a1,5
   1127e:	854a                	mv	a0,s2
   11280:	4601                	li	a2,0
   11282:	4681                	li	a3,0
   11284:	00000073          	ecall
   11288:	00b14983          	lbu	s3,11(sp)
   1128c:	001a8513          	addi	a0,s5,1
   11290:	05d00613          	li	a2,93
   11294:	85d2                	mv	a1,s4
   11296:	0000d097          	auipc	ra,0xd
   1129a:	27e080e7          	jalr	638(ra) # 1e514 <memcpy>
   1129e:	4509                	li	a0,2
   112a0:	000a8023          	sb	zero,0(s5)
   112a4:	f6a98fe3          	beq	s3,a0,11222 <_ZN20complex_dynamic_type3app17h000fac6651aa16b6E+0xee>
   112a8:	854a                	mv	a0,s2
   112aa:	4581                	li	a1,0
   112ac:	4601                	li	a2,0
   112ae:	4681                	li	a3,0
   112b0:	874e                	mv	a4,s3
   112b2:	00000073          	ecall
   112b6:	b7b5                	j	11222 <_ZN20complex_dynamic_type3app17h000fac6651aa16b6E+0xee>

000112b8 <_ZN20complex_dynamic_type3app17h052cd4475237f618E>:
   112b8:	7159                	addi	sp,sp,-112
   112ba:	d686                	sw	ra,108(sp)
   112bc:	d4a2                	sw	s0,104(sp)
   112be:	d2a6                	sw	s1,100(sp)
   112c0:	d0ca                	sw	s2,96(sp)
   112c2:	cece                	sw	s3,92(sp)
   112c4:	ccd2                	sw	s4,88(sp)
   112c6:	cad6                	sw	s5,84(sp)
   112c8:	8aaa                	mv	s5,a0
   112ca:	4409                	li	s0,2
   112cc:	00810623          	sb	s0,12(sp)
   112d0:	00d10493          	addi	s1,sp,13
   112d4:	4641                	li	a2,16
   112d6:	8526                	mv	a0,s1
   112d8:	0000d097          	auipc	ra,0xd
   112dc:	23c080e7          	jalr	572(ra) # 1e514 <memcpy>
   112e0:	01e10a13          	addi	s4,sp,30
   112e4:	03600613          	li	a2,54
   112e8:	8552                	mv	a0,s4
   112ea:	4581                	li	a1,0
   112ec:	0000d097          	auipc	ra,0xd
   112f0:	1bc080e7          	jalr	444(ra) # 1e4a8 <memset>
   112f4:	8626                	mv	a2,s1
   112f6:	00810ea3          	sb	s0,29(sp)
   112fa:	6509                	lui	a0,0x2
   112fc:	4805                	li	a6,1
   112fe:	4491                	li	s1,4
   11300:	4585                	li	a1,1
   11302:	98950793          	addi	a5,a0,-1655 # 1989 <.Lline_table_start1+0x175e>
   11306:	46c1                	li	a3,16
   11308:	4711                	li	a4,4
   1130a:	853e                	mv	a0,a5
   1130c:	00000073          	ecall
   11310:	00851763          	bne	a0,s0,1131e <_ZN20complex_dynamic_type3app17h052cd4475237f618E+0x66>
   11314:	010a8023          	sb	a6,0(s5)
   11318:	00baa223          	sw	a1,4(s5)
   1131c:	a0bd                	j	1138a <_ZN20complex_dynamic_type3app17h052cd4475237f618E+0xd2>
   1131e:	853e                	mv	a0,a5
   11320:	8652                	mv	a2,s4
   11322:	00910623          	sb	s1,12(sp)
   11326:	478d                	li	a5,3
   11328:	459d                	li	a1,7
   1132a:	03600693          	li	a3,54
   1132e:	470d                	li	a4,3
   11330:	00000073          	ecall
   11334:	00851d63          	bne	a0,s0,1134e <_ZN20complex_dynamic_type3app17h052cd4475237f618E+0x96>
   11338:	01d14703          	lbu	a4,29(sp)
   1133c:	4505                	li	a0,1
   1133e:	4609                	li	a2,2
   11340:	00aa8023          	sb	a0,0(s5)
   11344:	00baa223          	sw	a1,4(s5)
   11348:	02c71963          	bne	a4,a2,1137a <_ZN20complex_dynamic_type3app17h052cd4475237f618E+0xc2>
   1134c:	a83d                	j	1138a <_ZN20complex_dynamic_type3app17h052cd4475237f618E+0xd2>
   1134e:	4681                	li	a3,0
   11350:	00f10ea3          	sb	a5,29(sp)
   11354:	6509                	lui	a0,0x2
   11356:	4785                	li	a5,1
   11358:	4585                	li	a1,1
   1135a:	461d                	li	a2,7
   1135c:	4709                	li	a4,2
   1135e:	98950513          	addi	a0,a0,-1655 # 1989 <.Lline_table_start1+0x175e>
   11362:	08000493          	li	s1,128
   11366:	00000073          	ecall
   1136a:	4609                	li	a2,2
   1136c:	04957563          	bgeu	a0,s1,113b6 <_ZN20complex_dynamic_type3app17h052cd4475237f618E+0xfe>
   11370:	00fa8023          	sb	a5,0(s5)
   11374:	00baa223          	sw	a1,4(s5)
   11378:	470d                	li	a4,3
   1137a:	6509                	lui	a0,0x2
   1137c:	98950513          	addi	a0,a0,-1655 # 1989 <.Lline_table_start1+0x175e>
   11380:	459d                	li	a1,7
   11382:	4601                	li	a2,0
   11384:	4681                	li	a3,0
   11386:	00000073          	ecall
   1138a:	00c14703          	lbu	a4,12(sp)
   1138e:	4509                	li	a0,2
   11390:	00a70a63          	beq	a4,a0,113a4 <_ZN20complex_dynamic_type3app17h052cd4475237f618E+0xec>
   11394:	6509                	lui	a0,0x2
   11396:	98950513          	addi	a0,a0,-1655 # 1989 <.Lline_table_start1+0x175e>
   1139a:	4585                	li	a1,1
   1139c:	4601                	li	a2,0
   1139e:	4681                	li	a3,0
   113a0:	00000073          	ecall
   113a4:	50b6                	lw	ra,108(sp)
   113a6:	5426                	lw	s0,104(sp)
   113a8:	5496                	lw	s1,100(sp)
   113aa:	5906                	lw	s2,96(sp)
   113ac:	49f6                	lw	s3,92(sp)
   113ae:	4a66                	lw	s4,88(sp)
   113b0:	4ad6                	lw	s5,84(sp)
   113b2:	6165                	addi	sp,sp,112
   113b4:	8082                	ret
   113b6:	00c14703          	lbu	a4,12(sp)
   113ba:	00c71463          	bne	a4,a2,113c2 <_ZN20complex_dynamic_type3app17h052cd4475237f618E+0x10a>
   113be:	470d                	li	a4,3
   113c0:	a825                	j	113f8 <_ZN20complex_dynamic_type3app17h052cd4475237f618E+0x140>
   113c2:	6509                	lui	a0,0x2
   113c4:	98950513          	addi	a0,a0,-1655 # 1989 <.Lline_table_start1+0x175e>
   113c8:	4585                	li	a1,1
   113ca:	4601                	li	a2,0
   113cc:	4681                	li	a3,0
   113ce:	00000073          	ecall
   113d2:	01d14703          	lbu	a4,29(sp)
   113d6:	4509                	li	a0,2
   113d8:	00a10623          	sb	a0,12(sp)
   113dc:	00a71e63          	bne	a4,a0,113f8 <_ZN20complex_dynamic_type3app17h052cd4475237f618E+0x140>
   113e0:	001a8513          	addi	a0,s5,1
   113e4:	03600613          	li	a2,54
   113e8:	85d2                	mv	a1,s4
   113ea:	0000d097          	auipc	ra,0xd
   113ee:	12a080e7          	jalr	298(ra) # 1e514 <memcpy>
   113f2:	000a8023          	sb	zero,0(s5)
   113f6:	b77d                	j	113a4 <_ZN20complex_dynamic_type3app17h052cd4475237f618E+0xec>
   113f8:	6509                	lui	a0,0x2
   113fa:	98950913          	addi	s2,a0,-1655 # 1989 <.Lline_table_start1+0x175e>
   113fe:	459d                	li	a1,7
   11400:	854a                	mv	a0,s2
   11402:	4601                	li	a2,0
   11404:	4681                	li	a3,0
   11406:	00000073          	ecall
   1140a:	00c14983          	lbu	s3,12(sp)
   1140e:	001a8513          	addi	a0,s5,1
   11412:	03600613          	li	a2,54
   11416:	85d2                	mv	a1,s4
   11418:	0000d097          	auipc	ra,0xd
   1141c:	0fc080e7          	jalr	252(ra) # 1e514 <memcpy>
   11420:	4509                	li	a0,2
   11422:	000a8023          	sb	zero,0(s5)
   11426:	f6a98fe3          	beq	s3,a0,113a4 <_ZN20complex_dynamic_type3app17h052cd4475237f618E+0xec>
   1142a:	4585                	li	a1,1
   1142c:	854a                	mv	a0,s2
   1142e:	4601                	li	a2,0
   11430:	4681                	li	a3,0
   11432:	874e                	mv	a4,s3
   11434:	00000073          	ecall
   11438:	b7b5                	j	113a4 <_ZN20complex_dynamic_type3app17h052cd4475237f618E+0xec>

0001143a <_ZN20complex_dynamic_type3app17h0926c4a82e08306cE>:
   1143a:	711d                	addi	sp,sp,-96
   1143c:	ce86                	sw	ra,92(sp)
   1143e:	cca2                	sw	s0,88(sp)
   11440:	caa6                	sw	s1,84(sp)
   11442:	c8ca                	sw	s2,80(sp)
   11444:	c6ce                	sw	s3,76(sp)
   11446:	c4d2                	sw	s4,72(sp)
   11448:	8a2a                	mv	s4,a0
   1144a:	4409                	li	s0,2
   1144c:	008100a3          	sb	s0,1(sp)
   11450:	00210493          	addi	s1,sp,2
   11454:	03600613          	li	a2,54
   11458:	8526                	mv	a0,s1
   1145a:	0000d097          	auipc	ra,0xd
   1145e:	0ba080e7          	jalr	186(ra) # 1e514 <memcpy>
   11462:	03910993          	addi	s3,sp,57
   11466:	463d                	li	a2,15
   11468:	854e                	mv	a0,s3
   1146a:	4581                	li	a1,0
   1146c:	0000d097          	auipc	ra,0xd
   11470:	03c080e7          	jalr	60(ra) # 1e4a8 <memset>
   11474:	8626                	mv	a2,s1
   11476:	02810c23          	sb	s0,56(sp)
   1147a:	4791                	li	a5,4
   1147c:	65300513          	li	a0,1619
   11480:	4595                	li	a1,5
   11482:	03600693          	li	a3,54
   11486:	4711                	li	a4,4
   11488:	00000073          	ecall
   1148c:	00851863          	bne	a0,s0,1149c <_ZN20complex_dynamic_type3app17h0926c4a82e08306cE+0x62>
   11490:	4505                	li	a0,1
   11492:	00aa0023          	sb	a0,0(s4)
   11496:	00ba2223          	sw	a1,4(s4)
   1149a:	a0ad                	j	11504 <_ZN20complex_dynamic_type3app17h0926c4a82e08306cE+0xca>
   1149c:	864e                	mv	a2,s3
   1149e:	00f100a3          	sb	a5,1(sp)
   114a2:	478d                	li	a5,3
   114a4:	65300513          	li	a0,1619
   114a8:	458d                	li	a1,3
   114aa:	46bd                	li	a3,15
   114ac:	470d                	li	a4,3
   114ae:	00000073          	ecall
   114b2:	00851d63          	bne	a0,s0,114cc <_ZN20complex_dynamic_type3app17h0926c4a82e08306cE+0x92>
   114b6:	03814703          	lbu	a4,56(sp)
   114ba:	4505                	li	a0,1
   114bc:	4609                	li	a2,2
   114be:	00aa0023          	sb	a0,0(s4)
   114c2:	00ba2223          	sw	a1,4(s4)
   114c6:	02c71863          	bne	a4,a2,114f6 <_ZN20complex_dynamic_type3app17h0926c4a82e08306cE+0xbc>
   114ca:	a82d                	j	11504 <_ZN20complex_dynamic_type3app17h0926c4a82e08306cE+0xca>
   114cc:	4681                	li	a3,0
   114ce:	02f10c23          	sb	a5,56(sp)
   114d2:	65300513          	li	a0,1619
   114d6:	4595                	li	a1,5
   114d8:	460d                	li	a2,3
   114da:	4709                	li	a4,2
   114dc:	08000793          	li	a5,128
   114e0:	00000073          	ecall
   114e4:	4609                	li	a2,2
   114e6:	04f57363          	bgeu	a0,a5,1152c <_ZN20complex_dynamic_type3app17h0926c4a82e08306cE+0xf2>
   114ea:	4505                	li	a0,1
   114ec:	00aa0023          	sb	a0,0(s4)
   114f0:	00ba2223          	sw	a1,4(s4)
   114f4:	470d                	li	a4,3
   114f6:	65300513          	li	a0,1619
   114fa:	458d                	li	a1,3
   114fc:	4601                	li	a2,0
   114fe:	4681                	li	a3,0
   11500:	00000073          	ecall
   11504:	00114703          	lbu	a4,1(sp)
   11508:	4509                	li	a0,2
   1150a:	00a70963          	beq	a4,a0,1151c <_ZN20complex_dynamic_type3app17h0926c4a82e08306cE+0xe2>
   1150e:	65300513          	li	a0,1619
   11512:	4595                	li	a1,5
   11514:	4601                	li	a2,0
   11516:	4681                	li	a3,0
   11518:	00000073          	ecall
   1151c:	40f6                	lw	ra,92(sp)
   1151e:	4466                	lw	s0,88(sp)
   11520:	44d6                	lw	s1,84(sp)
   11522:	4946                	lw	s2,80(sp)
   11524:	49b6                	lw	s3,76(sp)
   11526:	4a26                	lw	s4,72(sp)
   11528:	6125                	addi	sp,sp,96
   1152a:	8082                	ret
   1152c:	00114703          	lbu	a4,1(sp)
   11530:	00c71463          	bne	a4,a2,11538 <_ZN20complex_dynamic_type3app17h0926c4a82e08306cE+0xfe>
   11534:	470d                	li	a4,3
   11536:	a815                	j	1156a <_ZN20complex_dynamic_type3app17h0926c4a82e08306cE+0x130>
   11538:	65300513          	li	a0,1619
   1153c:	4595                	li	a1,5
   1153e:	4601                	li	a2,0
   11540:	4681                	li	a3,0
   11542:	00000073          	ecall
   11546:	03814703          	lbu	a4,56(sp)
   1154a:	4509                	li	a0,2
   1154c:	00a100a3          	sb	a0,1(sp)
   11550:	00a71d63          	bne	a4,a0,1156a <_ZN20complex_dynamic_type3app17h0926c4a82e08306cE+0x130>
   11554:	001a0513          	addi	a0,s4,1
   11558:	463d                	li	a2,15
   1155a:	85ce                	mv	a1,s3
   1155c:	0000d097          	auipc	ra,0xd
   11560:	fb8080e7          	jalr	-72(ra) # 1e514 <memcpy>
   11564:	000a0023          	sb	zero,0(s4)
   11568:	bf55                	j	1151c <_ZN20complex_dynamic_type3app17h0926c4a82e08306cE+0xe2>
   1156a:	65300513          	li	a0,1619
   1156e:	458d                	li	a1,3
   11570:	4601                	li	a2,0
   11572:	4681                	li	a3,0
   11574:	00000073          	ecall
   11578:	00114903          	lbu	s2,1(sp)
   1157c:	001a0513          	addi	a0,s4,1
   11580:	463d                	li	a2,15
   11582:	85ce                	mv	a1,s3
   11584:	0000d097          	auipc	ra,0xd
   11588:	f90080e7          	jalr	-112(ra) # 1e514 <memcpy>
   1158c:	4509                	li	a0,2
   1158e:	000a0023          	sb	zero,0(s4)
   11592:	f8a905e3          	beq	s2,a0,1151c <_ZN20complex_dynamic_type3app17h0926c4a82e08306cE+0xe2>
   11596:	65300513          	li	a0,1619
   1159a:	4595                	li	a1,5
   1159c:	4601                	li	a2,0
   1159e:	4681                	li	a3,0
   115a0:	874a                	mv	a4,s2
   115a2:	00000073          	ecall
   115a6:	bf9d                	j	1151c <_ZN20complex_dynamic_type3app17h0926c4a82e08306cE+0xe2>

000115a8 <_ZN20complex_dynamic_type3app17h0a70f99be62fd6e0E>:
   115a8:	7159                	addi	sp,sp,-112
   115aa:	d686                	sw	ra,108(sp)
   115ac:	d4a2                	sw	s0,104(sp)
   115ae:	d2a6                	sw	s1,100(sp)
   115b0:	d0ca                	sw	s2,96(sp)
   115b2:	cece                	sw	s3,92(sp)
   115b4:	ccd2                	sw	s4,88(sp)
   115b6:	cad6                	sw	s5,84(sp)
   115b8:	8aaa                	mv	s5,a0
   115ba:	4409                	li	s0,2
   115bc:	008106a3          	sb	s0,13(sp)
   115c0:	00e10493          	addi	s1,sp,14
   115c4:	02700613          	li	a2,39
   115c8:	8526                	mv	a0,s1
   115ca:	0000d097          	auipc	ra,0xd
   115ce:	f4a080e7          	jalr	-182(ra) # 1e514 <memcpy>
   115d2:	03610a13          	addi	s4,sp,54
   115d6:	4679                	li	a2,30
   115d8:	8552                	mv	a0,s4
   115da:	4581                	li	a1,0
   115dc:	0000d097          	auipc	ra,0xd
   115e0:	ecc080e7          	jalr	-308(ra) # 1e4a8 <memset>
   115e4:	8626                	mv	a2,s1
   115e6:	02810aa3          	sb	s0,53(sp)
   115ea:	6505                	lui	a0,0x1
   115ec:	4491                	li	s1,4
   115ee:	458d                	li	a1,3
   115f0:	0e250793          	addi	a5,a0,226 # 10e2 <.Lline_table_start1+0xeb7>
   115f4:	02700693          	li	a3,39
   115f8:	4711                	li	a4,4
   115fa:	853e                	mv	a0,a5
   115fc:	00000073          	ecall
   11600:	00851863          	bne	a0,s0,11610 <_ZN20complex_dynamic_type3app17h0a70f99be62fd6e0E+0x68>
   11604:	4505                	li	a0,1
   11606:	00aa8023          	sb	a0,0(s5)
   1160a:	00baa223          	sw	a1,4(s5)
   1160e:	a0b5                	j	1167a <_ZN20complex_dynamic_type3app17h0a70f99be62fd6e0E+0xd2>
   11610:	853e                	mv	a0,a5
   11612:	8652                	mv	a2,s4
   11614:	009106a3          	sb	s1,13(sp)
   11618:	478d                	li	a5,3
   1161a:	458d                	li	a1,3
   1161c:	46f9                	li	a3,30
   1161e:	470d                	li	a4,3
   11620:	00000073          	ecall
   11624:	00851d63          	bne	a0,s0,1163e <_ZN20complex_dynamic_type3app17h0a70f99be62fd6e0E+0x96>
   11628:	03514703          	lbu	a4,53(sp)
   1162c:	4505                	li	a0,1
   1162e:	4609                	li	a2,2
   11630:	00aa8023          	sb	a0,0(s5)
   11634:	00baa223          	sw	a1,4(s5)
   11638:	02c71963          	bne	a4,a2,1166a <_ZN20complex_dynamic_type3app17h0a70f99be62fd6e0E+0xc2>
   1163c:	a83d                	j	1167a <_ZN20complex_dynamic_type3app17h0a70f99be62fd6e0E+0xd2>
   1163e:	4681                	li	a3,0
   11640:	02f10aa3          	sb	a5,53(sp)
   11644:	6505                	lui	a0,0x1
   11646:	458d                	li	a1,3
   11648:	460d                	li	a2,3
   1164a:	4709                	li	a4,2
   1164c:	0e250513          	addi	a0,a0,226 # 10e2 <.Lline_table_start1+0xeb7>
   11650:	08000793          	li	a5,128
   11654:	00000073          	ecall
   11658:	4609                	li	a2,2
   1165a:	04f57663          	bgeu	a0,a5,116a6 <_ZN20complex_dynamic_type3app17h0a70f99be62fd6e0E+0xfe>
   1165e:	4505                	li	a0,1
   11660:	00aa8023          	sb	a0,0(s5)
   11664:	00baa223          	sw	a1,4(s5)
   11668:	470d                	li	a4,3
   1166a:	6505                	lui	a0,0x1
   1166c:	0e250513          	addi	a0,a0,226 # 10e2 <.Lline_table_start1+0xeb7>
   11670:	458d                	li	a1,3
   11672:	4601                	li	a2,0
   11674:	4681                	li	a3,0
   11676:	00000073          	ecall
   1167a:	00d14703          	lbu	a4,13(sp)
   1167e:	4509                	li	a0,2
   11680:	00a70a63          	beq	a4,a0,11694 <_ZN20complex_dynamic_type3app17h0a70f99be62fd6e0E+0xec>
   11684:	6505                	lui	a0,0x1
   11686:	0e250513          	addi	a0,a0,226 # 10e2 <.Lline_table_start1+0xeb7>
   1168a:	458d                	li	a1,3
   1168c:	4601                	li	a2,0
   1168e:	4681                	li	a3,0
   11690:	00000073          	ecall
   11694:	50b6                	lw	ra,108(sp)
   11696:	5426                	lw	s0,104(sp)
   11698:	5496                	lw	s1,100(sp)
   1169a:	5906                	lw	s2,96(sp)
   1169c:	49f6                	lw	s3,92(sp)
   1169e:	4a66                	lw	s4,88(sp)
   116a0:	4ad6                	lw	s5,84(sp)
   116a2:	6165                	addi	sp,sp,112
   116a4:	8082                	ret
   116a6:	00d14703          	lbu	a4,13(sp)
   116aa:	00c71463          	bne	a4,a2,116b2 <_ZN20complex_dynamic_type3app17h0a70f99be62fd6e0E+0x10a>
   116ae:	470d                	li	a4,3
   116b0:	a81d                	j	116e6 <_ZN20complex_dynamic_type3app17h0a70f99be62fd6e0E+0x13e>
   116b2:	6505                	lui	a0,0x1
   116b4:	0e250513          	addi	a0,a0,226 # 10e2 <.Lline_table_start1+0xeb7>
   116b8:	458d                	li	a1,3
   116ba:	4601                	li	a2,0
   116bc:	4681                	li	a3,0
   116be:	00000073          	ecall
   116c2:	03514703          	lbu	a4,53(sp)
   116c6:	4509                	li	a0,2
   116c8:	00a106a3          	sb	a0,13(sp)
   116cc:	00a71d63          	bne	a4,a0,116e6 <_ZN20complex_dynamic_type3app17h0a70f99be62fd6e0E+0x13e>
   116d0:	001a8513          	addi	a0,s5,1
   116d4:	4679                	li	a2,30
   116d6:	85d2                	mv	a1,s4
   116d8:	0000d097          	auipc	ra,0xd
   116dc:	e3c080e7          	jalr	-452(ra) # 1e514 <memcpy>
   116e0:	000a8023          	sb	zero,0(s5)
   116e4:	bf45                	j	11694 <_ZN20complex_dynamic_type3app17h0a70f99be62fd6e0E+0xec>
   116e6:	6505                	lui	a0,0x1
   116e8:	0e250913          	addi	s2,a0,226 # 10e2 <.Lline_table_start1+0xeb7>
   116ec:	458d                	li	a1,3
   116ee:	854a                	mv	a0,s2
   116f0:	4601                	li	a2,0
   116f2:	4681                	li	a3,0
   116f4:	00000073          	ecall
   116f8:	00d14983          	lbu	s3,13(sp)
   116fc:	001a8513          	addi	a0,s5,1
   11700:	4679                	li	a2,30
   11702:	85d2                	mv	a1,s4
   11704:	0000d097          	auipc	ra,0xd
   11708:	e10080e7          	jalr	-496(ra) # 1e514 <memcpy>
   1170c:	4509                	li	a0,2
   1170e:	000a8023          	sb	zero,0(s5)
   11712:	f8a981e3          	beq	s3,a0,11694 <_ZN20complex_dynamic_type3app17h0a70f99be62fd6e0E+0xec>
   11716:	458d                	li	a1,3
   11718:	854a                	mv	a0,s2
   1171a:	4601                	li	a2,0
   1171c:	4681                	li	a3,0
   1171e:	874e                	mv	a4,s3
   11720:	00000073          	ecall
   11724:	bf85                	j	11694 <_ZN20complex_dynamic_type3app17h0a70f99be62fd6e0E+0xec>

00011726 <_ZN20complex_dynamic_type3app17h0ae3f49fceb243c8E>:
   11726:	7175                	addi	sp,sp,-144
   11728:	c706                	sw	ra,140(sp)
   1172a:	c522                	sw	s0,136(sp)
   1172c:	c326                	sw	s1,132(sp)
   1172e:	c14a                	sw	s2,128(sp)
   11730:	dece                	sw	s3,124(sp)
   11732:	dcd2                	sw	s4,120(sp)
   11734:	dad6                	sw	s5,116(sp)
   11736:	8aaa                	mv	s5,a0
   11738:	4409                	li	s0,2
   1173a:	00810623          	sb	s0,12(sp)
   1173e:	00d10493          	addi	s1,sp,13
   11742:	02e00613          	li	a2,46
   11746:	8526                	mv	a0,s1
   11748:	0000d097          	auipc	ra,0xd
   1174c:	dcc080e7          	jalr	-564(ra) # 1e514 <memcpy>
   11750:	03c10a13          	addi	s4,sp,60
   11754:	03800613          	li	a2,56
   11758:	8552                	mv	a0,s4
   1175a:	4581                	li	a1,0
   1175c:	0000d097          	auipc	ra,0xd
   11760:	d4c080e7          	jalr	-692(ra) # 1e4a8 <memset>
   11764:	8626                	mv	a2,s1
   11766:	02810da3          	sb	s0,59(sp)
   1176a:	6505                	lui	a0,0x1
   1176c:	4491                	li	s1,4
   1176e:	45a5                	li	a1,9
   11770:	a9d50793          	addi	a5,a0,-1379 # a9d <.Lline_table_start1+0x872>
   11774:	02e00693          	li	a3,46
   11778:	4711                	li	a4,4
   1177a:	853e                	mv	a0,a5
   1177c:	00000073          	ecall
   11780:	00851863          	bne	a0,s0,11790 <_ZN20complex_dynamic_type3app17h0ae3f49fceb243c8E+0x6a>
   11784:	4505                	li	a0,1
   11786:	00aa8023          	sb	a0,0(s5)
   1178a:	00baa223          	sw	a1,4(s5)
   1178e:	a0bd                	j	117fc <_ZN20complex_dynamic_type3app17h0ae3f49fceb243c8E+0xd6>
   11790:	853e                	mv	a0,a5
   11792:	8652                	mv	a2,s4
   11794:	00910623          	sb	s1,12(sp)
   11798:	478d                	li	a5,3
   1179a:	45a5                	li	a1,9
   1179c:	03800693          	li	a3,56
   117a0:	470d                	li	a4,3
   117a2:	00000073          	ecall
   117a6:	00851d63          	bne	a0,s0,117c0 <_ZN20complex_dynamic_type3app17h0ae3f49fceb243c8E+0x9a>
   117aa:	03b14703          	lbu	a4,59(sp)
   117ae:	4505                	li	a0,1
   117b0:	4609                	li	a2,2
   117b2:	00aa8023          	sb	a0,0(s5)
   117b6:	00baa223          	sw	a1,4(s5)
   117ba:	02c71963          	bne	a4,a2,117ec <_ZN20complex_dynamic_type3app17h0ae3f49fceb243c8E+0xc6>
   117be:	a83d                	j	117fc <_ZN20complex_dynamic_type3app17h0ae3f49fceb243c8E+0xd6>
   117c0:	4681                	li	a3,0
   117c2:	02f10da3          	sb	a5,59(sp)
   117c6:	6505                	lui	a0,0x1
   117c8:	45a5                	li	a1,9
   117ca:	4625                	li	a2,9
   117cc:	4709                	li	a4,2
   117ce:	a9d50513          	addi	a0,a0,-1379 # a9d <.Lline_table_start1+0x872>
   117d2:	08000793          	li	a5,128
   117d6:	00000073          	ecall
   117da:	4609                	li	a2,2
   117dc:	04f57663          	bgeu	a0,a5,11828 <_ZN20complex_dynamic_type3app17h0ae3f49fceb243c8E+0x102>
   117e0:	4505                	li	a0,1
   117e2:	00aa8023          	sb	a0,0(s5)
   117e6:	00baa223          	sw	a1,4(s5)
   117ea:	470d                	li	a4,3
   117ec:	6505                	lui	a0,0x1
   117ee:	a9d50513          	addi	a0,a0,-1379 # a9d <.Lline_table_start1+0x872>
   117f2:	45a5                	li	a1,9
   117f4:	4601                	li	a2,0
   117f6:	4681                	li	a3,0
   117f8:	00000073          	ecall
   117fc:	00c14703          	lbu	a4,12(sp)
   11800:	4509                	li	a0,2
   11802:	00a70a63          	beq	a4,a0,11816 <_ZN20complex_dynamic_type3app17h0ae3f49fceb243c8E+0xf0>
   11806:	6505                	lui	a0,0x1
   11808:	a9d50513          	addi	a0,a0,-1379 # a9d <.Lline_table_start1+0x872>
   1180c:	45a5                	li	a1,9
   1180e:	4601                	li	a2,0
   11810:	4681                	li	a3,0
   11812:	00000073          	ecall
   11816:	40ba                	lw	ra,140(sp)
   11818:	442a                	lw	s0,136(sp)
   1181a:	449a                	lw	s1,132(sp)
   1181c:	490a                	lw	s2,128(sp)
   1181e:	59f6                	lw	s3,124(sp)
   11820:	5a66                	lw	s4,120(sp)
   11822:	5ad6                	lw	s5,116(sp)
   11824:	6149                	addi	sp,sp,144
   11826:	8082                	ret
   11828:	00c14703          	lbu	a4,12(sp)
   1182c:	00c71463          	bne	a4,a2,11834 <_ZN20complex_dynamic_type3app17h0ae3f49fceb243c8E+0x10e>
   11830:	470d                	li	a4,3
   11832:	a825                	j	1186a <_ZN20complex_dynamic_type3app17h0ae3f49fceb243c8E+0x144>
   11834:	6505                	lui	a0,0x1
   11836:	a9d50513          	addi	a0,a0,-1379 # a9d <.Lline_table_start1+0x872>
   1183a:	45a5                	li	a1,9
   1183c:	4601                	li	a2,0
   1183e:	4681                	li	a3,0
   11840:	00000073          	ecall
   11844:	03b14703          	lbu	a4,59(sp)
   11848:	4509                	li	a0,2
   1184a:	00a10623          	sb	a0,12(sp)
   1184e:	00a71e63          	bne	a4,a0,1186a <_ZN20complex_dynamic_type3app17h0ae3f49fceb243c8E+0x144>
   11852:	001a8513          	addi	a0,s5,1
   11856:	03800613          	li	a2,56
   1185a:	85d2                	mv	a1,s4
   1185c:	0000d097          	auipc	ra,0xd
   11860:	cb8080e7          	jalr	-840(ra) # 1e514 <memcpy>
   11864:	000a8023          	sb	zero,0(s5)
   11868:	b77d                	j	11816 <_ZN20complex_dynamic_type3app17h0ae3f49fceb243c8E+0xf0>
   1186a:	6505                	lui	a0,0x1
   1186c:	a9d50913          	addi	s2,a0,-1379 # a9d <.Lline_table_start1+0x872>
   11870:	45a5                	li	a1,9
   11872:	854a                	mv	a0,s2
   11874:	4601                	li	a2,0
   11876:	4681                	li	a3,0
   11878:	00000073          	ecall
   1187c:	00c14983          	lbu	s3,12(sp)
   11880:	001a8513          	addi	a0,s5,1
   11884:	03800613          	li	a2,56
   11888:	85d2                	mv	a1,s4
   1188a:	0000d097          	auipc	ra,0xd
   1188e:	c8a080e7          	jalr	-886(ra) # 1e514 <memcpy>
   11892:	4509                	li	a0,2
   11894:	000a8023          	sb	zero,0(s5)
   11898:	f6a98fe3          	beq	s3,a0,11816 <_ZN20complex_dynamic_type3app17h0ae3f49fceb243c8E+0xf0>
   1189c:	45a5                	li	a1,9
   1189e:	854a                	mv	a0,s2
   118a0:	4601                	li	a2,0
   118a2:	4681                	li	a3,0
   118a4:	874e                	mv	a4,s3
   118a6:	00000073          	ecall
   118aa:	b7b5                	j	11816 <_ZN20complex_dynamic_type3app17h0ae3f49fceb243c8E+0xf0>

000118ac <_ZN20complex_dynamic_type3app17h1079c09aa0aa8c84E>:
   118ac:	7135                	addi	sp,sp,-160
   118ae:	cf06                	sw	ra,156(sp)
   118b0:	cd22                	sw	s0,152(sp)
   118b2:	cb26                	sw	s1,148(sp)
   118b4:	c94a                	sw	s2,144(sp)
   118b6:	c74e                	sw	s3,140(sp)
   118b8:	c552                	sw	s4,136(sp)
   118ba:	c356                	sw	s5,132(sp)
   118bc:	8aaa                	mv	s5,a0
   118be:	4409                	li	s0,2
   118c0:	00810523          	sb	s0,10(sp)
   118c4:	00b10493          	addi	s1,sp,11
   118c8:	02700613          	li	a2,39
   118cc:	8526                	mv	a0,s1
   118ce:	0000d097          	auipc	ra,0xd
   118d2:	c46080e7          	jalr	-954(ra) # 1e514 <memcpy>
   118d6:	03310a13          	addi	s4,sp,51
   118da:	05100613          	li	a2,81
   118de:	8552                	mv	a0,s4
   118e0:	4581                	li	a1,0
   118e2:	0000d097          	auipc	ra,0xd
   118e6:	bc6080e7          	jalr	-1082(ra) # 1e4a8 <memset>
   118ea:	4581                	li	a1,0
   118ec:	8626                	mv	a2,s1
   118ee:	02810923          	sb	s0,50(sp)
   118f2:	6505                	lui	a0,0x1
   118f4:	4491                	li	s1,4
   118f6:	a3650793          	addi	a5,a0,-1482 # a36 <.Lline_table_start1+0x80b>
   118fa:	02700693          	li	a3,39
   118fe:	4711                	li	a4,4
   11900:	853e                	mv	a0,a5
   11902:	00000073          	ecall
   11906:	00851863          	bne	a0,s0,11916 <_ZN20complex_dynamic_type3app17h1079c09aa0aa8c84E+0x6a>
   1190a:	4505                	li	a0,1
   1190c:	00aa8023          	sb	a0,0(s5)
   11910:	00baa223          	sw	a1,4(s5)
   11914:	a0bd                	j	11982 <_ZN20complex_dynamic_type3app17h1079c09aa0aa8c84E+0xd6>
   11916:	853e                	mv	a0,a5
   11918:	8652                	mv	a2,s4
   1191a:	00910523          	sb	s1,10(sp)
   1191e:	478d                	li	a5,3
   11920:	4591                	li	a1,4
   11922:	05100693          	li	a3,81
   11926:	470d                	li	a4,3
   11928:	00000073          	ecall
   1192c:	00851d63          	bne	a0,s0,11946 <_ZN20complex_dynamic_type3app17h1079c09aa0aa8c84E+0x9a>
   11930:	03214703          	lbu	a4,50(sp)
   11934:	4505                	li	a0,1
   11936:	4609                	li	a2,2
   11938:	00aa8023          	sb	a0,0(s5)
   1193c:	00baa223          	sw	a1,4(s5)
   11940:	02c71963          	bne	a4,a2,11972 <_ZN20complex_dynamic_type3app17h1079c09aa0aa8c84E+0xc6>
   11944:	a83d                	j	11982 <_ZN20complex_dynamic_type3app17h1079c09aa0aa8c84E+0xd6>
   11946:	4581                	li	a1,0
   11948:	4681                	li	a3,0
   1194a:	02f10923          	sb	a5,50(sp)
   1194e:	6505                	lui	a0,0x1
   11950:	4611                	li	a2,4
   11952:	4709                	li	a4,2
   11954:	a3650513          	addi	a0,a0,-1482 # a36 <.Lline_table_start1+0x80b>
   11958:	08000793          	li	a5,128
   1195c:	00000073          	ecall
   11960:	4609                	li	a2,2
   11962:	04f57663          	bgeu	a0,a5,119ae <_ZN20complex_dynamic_type3app17h1079c09aa0aa8c84E+0x102>
   11966:	4505                	li	a0,1
   11968:	00aa8023          	sb	a0,0(s5)
   1196c:	00baa223          	sw	a1,4(s5)
   11970:	470d                	li	a4,3
   11972:	6505                	lui	a0,0x1
   11974:	a3650513          	addi	a0,a0,-1482 # a36 <.Lline_table_start1+0x80b>
   11978:	4591                	li	a1,4
   1197a:	4601                	li	a2,0
   1197c:	4681                	li	a3,0
   1197e:	00000073          	ecall
   11982:	00a14703          	lbu	a4,10(sp)
   11986:	4509                	li	a0,2
   11988:	00a70a63          	beq	a4,a0,1199c <_ZN20complex_dynamic_type3app17h1079c09aa0aa8c84E+0xf0>
   1198c:	6505                	lui	a0,0x1
   1198e:	a3650513          	addi	a0,a0,-1482 # a36 <.Lline_table_start1+0x80b>
   11992:	4581                	li	a1,0
   11994:	4601                	li	a2,0
   11996:	4681                	li	a3,0
   11998:	00000073          	ecall
   1199c:	40fa                	lw	ra,156(sp)
   1199e:	446a                	lw	s0,152(sp)
   119a0:	44da                	lw	s1,148(sp)
   119a2:	494a                	lw	s2,144(sp)
   119a4:	49ba                	lw	s3,140(sp)
   119a6:	4a2a                	lw	s4,136(sp)
   119a8:	4a9a                	lw	s5,132(sp)
   119aa:	610d                	addi	sp,sp,160
   119ac:	8082                	ret
   119ae:	00a14703          	lbu	a4,10(sp)
   119b2:	00c71463          	bne	a4,a2,119ba <_ZN20complex_dynamic_type3app17h1079c09aa0aa8c84E+0x10e>
   119b6:	470d                	li	a4,3
   119b8:	a825                	j	119f0 <_ZN20complex_dynamic_type3app17h1079c09aa0aa8c84E+0x144>
   119ba:	6505                	lui	a0,0x1
   119bc:	a3650513          	addi	a0,a0,-1482 # a36 <.Lline_table_start1+0x80b>
   119c0:	4581                	li	a1,0
   119c2:	4601                	li	a2,0
   119c4:	4681                	li	a3,0
   119c6:	00000073          	ecall
   119ca:	03214703          	lbu	a4,50(sp)
   119ce:	4509                	li	a0,2
   119d0:	00a10523          	sb	a0,10(sp)
   119d4:	00a71e63          	bne	a4,a0,119f0 <_ZN20complex_dynamic_type3app17h1079c09aa0aa8c84E+0x144>
   119d8:	001a8513          	addi	a0,s5,1
   119dc:	05100613          	li	a2,81
   119e0:	85d2                	mv	a1,s4
   119e2:	0000d097          	auipc	ra,0xd
   119e6:	b32080e7          	jalr	-1230(ra) # 1e514 <memcpy>
   119ea:	000a8023          	sb	zero,0(s5)
   119ee:	b77d                	j	1199c <_ZN20complex_dynamic_type3app17h1079c09aa0aa8c84E+0xf0>
   119f0:	6505                	lui	a0,0x1
   119f2:	a3650913          	addi	s2,a0,-1482 # a36 <.Lline_table_start1+0x80b>
   119f6:	4591                	li	a1,4
   119f8:	854a                	mv	a0,s2
   119fa:	4601                	li	a2,0
   119fc:	4681                	li	a3,0
   119fe:	00000073          	ecall
   11a02:	00a14983          	lbu	s3,10(sp)
   11a06:	001a8513          	addi	a0,s5,1
   11a0a:	05100613          	li	a2,81
   11a0e:	85d2                	mv	a1,s4
   11a10:	0000d097          	auipc	ra,0xd
   11a14:	b04080e7          	jalr	-1276(ra) # 1e514 <memcpy>
   11a18:	4509                	li	a0,2
   11a1a:	000a8023          	sb	zero,0(s5)
   11a1e:	f6a98fe3          	beq	s3,a0,1199c <_ZN20complex_dynamic_type3app17h1079c09aa0aa8c84E+0xf0>
   11a22:	854a                	mv	a0,s2
   11a24:	4581                	li	a1,0
   11a26:	4601                	li	a2,0
   11a28:	4681                	li	a3,0
   11a2a:	874e                	mv	a4,s3
   11a2c:	00000073          	ecall
   11a30:	b7b5                	j	1199c <_ZN20complex_dynamic_type3app17h1079c09aa0aa8c84E+0xf0>

00011a32 <_ZN20complex_dynamic_type3app17h111df9715f1363b1E>:
   11a32:	7135                	addi	sp,sp,-160
   11a34:	cf06                	sw	ra,156(sp)
   11a36:	cd22                	sw	s0,152(sp)
   11a38:	cb26                	sw	s1,148(sp)
   11a3a:	c94a                	sw	s2,144(sp)
   11a3c:	c74e                	sw	s3,140(sp)
   11a3e:	c552                	sw	s4,136(sp)
   11a40:	c356                	sw	s5,132(sp)
   11a42:	8aaa                	mv	s5,a0
   11a44:	4409                	li	s0,2
   11a46:	00810723          	sb	s0,14(sp)
   11a4a:	00f10493          	addi	s1,sp,15
   11a4e:	03c00613          	li	a2,60
   11a52:	8526                	mv	a0,s1
   11a54:	0000d097          	auipc	ra,0xd
   11a58:	ac0080e7          	jalr	-1344(ra) # 1e514 <memcpy>
   11a5c:	04c10a13          	addi	s4,sp,76
   11a60:	03800613          	li	a2,56
   11a64:	8552                	mv	a0,s4
   11a66:	4581                	li	a1,0
   11a68:	0000d097          	auipc	ra,0xd
   11a6c:	a40080e7          	jalr	-1472(ra) # 1e4a8 <memset>
   11a70:	8626                	mv	a2,s1
   11a72:	048105a3          	sb	s0,75(sp)
   11a76:	6509                	lui	a0,0x2
   11a78:	4491                	li	s1,4
   11a7a:	458d                	li	a1,3
   11a7c:	d1950793          	addi	a5,a0,-743 # 1d19 <.Lline_table_start1+0x1aee>
   11a80:	03c00693          	li	a3,60
   11a84:	4711                	li	a4,4
   11a86:	853e                	mv	a0,a5
   11a88:	00000073          	ecall
   11a8c:	00851863          	bne	a0,s0,11a9c <_ZN20complex_dynamic_type3app17h111df9715f1363b1E+0x6a>
   11a90:	4505                	li	a0,1
   11a92:	00aa8023          	sb	a0,0(s5)
   11a96:	00baa223          	sw	a1,4(s5)
   11a9a:	a0bd                	j	11b08 <_ZN20complex_dynamic_type3app17h111df9715f1363b1E+0xd6>
   11a9c:	853e                	mv	a0,a5
   11a9e:	8652                	mv	a2,s4
   11aa0:	00910723          	sb	s1,14(sp)
   11aa4:	478d                	li	a5,3
   11aa6:	458d                	li	a1,3
   11aa8:	03800693          	li	a3,56
   11aac:	470d                	li	a4,3
   11aae:	00000073          	ecall
   11ab2:	00851d63          	bne	a0,s0,11acc <_ZN20complex_dynamic_type3app17h111df9715f1363b1E+0x9a>
   11ab6:	04b14703          	lbu	a4,75(sp)
   11aba:	4505                	li	a0,1
   11abc:	4609                	li	a2,2
   11abe:	00aa8023          	sb	a0,0(s5)
   11ac2:	00baa223          	sw	a1,4(s5)
   11ac6:	02c71963          	bne	a4,a2,11af8 <_ZN20complex_dynamic_type3app17h111df9715f1363b1E+0xc6>
   11aca:	a83d                	j	11b08 <_ZN20complex_dynamic_type3app17h111df9715f1363b1E+0xd6>
   11acc:	4681                	li	a3,0
   11ace:	04f105a3          	sb	a5,75(sp)
   11ad2:	6509                	lui	a0,0x2
   11ad4:	458d                	li	a1,3
   11ad6:	460d                	li	a2,3
   11ad8:	4709                	li	a4,2
   11ada:	d1950513          	addi	a0,a0,-743 # 1d19 <.Lline_table_start1+0x1aee>
   11ade:	08000793          	li	a5,128
   11ae2:	00000073          	ecall
   11ae6:	4609                	li	a2,2
   11ae8:	04f57663          	bgeu	a0,a5,11b34 <_ZN20complex_dynamic_type3app17h111df9715f1363b1E+0x102>
   11aec:	4505                	li	a0,1
   11aee:	00aa8023          	sb	a0,0(s5)
   11af2:	00baa223          	sw	a1,4(s5)
   11af6:	470d                	li	a4,3
   11af8:	6509                	lui	a0,0x2
   11afa:	d1950513          	addi	a0,a0,-743 # 1d19 <.Lline_table_start1+0x1aee>
   11afe:	458d                	li	a1,3
   11b00:	4601                	li	a2,0
   11b02:	4681                	li	a3,0
   11b04:	00000073          	ecall
   11b08:	00e14703          	lbu	a4,14(sp)
   11b0c:	4509                	li	a0,2
   11b0e:	00a70a63          	beq	a4,a0,11b22 <_ZN20complex_dynamic_type3app17h111df9715f1363b1E+0xf0>
   11b12:	6509                	lui	a0,0x2
   11b14:	d1950513          	addi	a0,a0,-743 # 1d19 <.Lline_table_start1+0x1aee>
   11b18:	458d                	li	a1,3
   11b1a:	4601                	li	a2,0
   11b1c:	4681                	li	a3,0
   11b1e:	00000073          	ecall
   11b22:	40fa                	lw	ra,156(sp)
   11b24:	446a                	lw	s0,152(sp)
   11b26:	44da                	lw	s1,148(sp)
   11b28:	494a                	lw	s2,144(sp)
   11b2a:	49ba                	lw	s3,140(sp)
   11b2c:	4a2a                	lw	s4,136(sp)
   11b2e:	4a9a                	lw	s5,132(sp)
   11b30:	610d                	addi	sp,sp,160
   11b32:	8082                	ret
   11b34:	00e14703          	lbu	a4,14(sp)
   11b38:	00c71463          	bne	a4,a2,11b40 <_ZN20complex_dynamic_type3app17h111df9715f1363b1E+0x10e>
   11b3c:	470d                	li	a4,3
   11b3e:	a825                	j	11b76 <_ZN20complex_dynamic_type3app17h111df9715f1363b1E+0x144>
   11b40:	6509                	lui	a0,0x2
   11b42:	d1950513          	addi	a0,a0,-743 # 1d19 <.Lline_table_start1+0x1aee>
   11b46:	458d                	li	a1,3
   11b48:	4601                	li	a2,0
   11b4a:	4681                	li	a3,0
   11b4c:	00000073          	ecall
   11b50:	04b14703          	lbu	a4,75(sp)
   11b54:	4509                	li	a0,2
   11b56:	00a10723          	sb	a0,14(sp)
   11b5a:	00a71e63          	bne	a4,a0,11b76 <_ZN20complex_dynamic_type3app17h111df9715f1363b1E+0x144>
   11b5e:	001a8513          	addi	a0,s5,1
   11b62:	03800613          	li	a2,56
   11b66:	85d2                	mv	a1,s4
   11b68:	0000d097          	auipc	ra,0xd
   11b6c:	9ac080e7          	jalr	-1620(ra) # 1e514 <memcpy>
   11b70:	000a8023          	sb	zero,0(s5)
   11b74:	b77d                	j	11b22 <_ZN20complex_dynamic_type3app17h111df9715f1363b1E+0xf0>
   11b76:	6509                	lui	a0,0x2
   11b78:	d1950913          	addi	s2,a0,-743 # 1d19 <.Lline_table_start1+0x1aee>
   11b7c:	458d                	li	a1,3
   11b7e:	854a                	mv	a0,s2
   11b80:	4601                	li	a2,0
   11b82:	4681                	li	a3,0
   11b84:	00000073          	ecall
   11b88:	00e14983          	lbu	s3,14(sp)
   11b8c:	001a8513          	addi	a0,s5,1
   11b90:	03800613          	li	a2,56
   11b94:	85d2                	mv	a1,s4
   11b96:	0000d097          	auipc	ra,0xd
   11b9a:	97e080e7          	jalr	-1666(ra) # 1e514 <memcpy>
   11b9e:	4509                	li	a0,2
   11ba0:	000a8023          	sb	zero,0(s5)
   11ba4:	f6a98fe3          	beq	s3,a0,11b22 <_ZN20complex_dynamic_type3app17h111df9715f1363b1E+0xf0>
   11ba8:	458d                	li	a1,3
   11baa:	854a                	mv	a0,s2
   11bac:	4601                	li	a2,0
   11bae:	4681                	li	a3,0
   11bb0:	874e                	mv	a4,s3
   11bb2:	00000073          	ecall
   11bb6:	b7b5                	j	11b22 <_ZN20complex_dynamic_type3app17h111df9715f1363b1E+0xf0>

00011bb8 <_ZN20complex_dynamic_type3app17h167f481162ddf486E>:
   11bb8:	7119                	addi	sp,sp,-128
   11bba:	de86                	sw	ra,124(sp)
   11bbc:	dca2                	sw	s0,120(sp)
   11bbe:	daa6                	sw	s1,116(sp)
   11bc0:	d8ca                	sw	s2,112(sp)
   11bc2:	d6ce                	sw	s3,108(sp)
   11bc4:	d4d2                	sw	s4,104(sp)
   11bc6:	8a2a                	mv	s4,a0
   11bc8:	4409                	li	s0,2
   11bca:	00810223          	sb	s0,4(sp)
   11bce:	00510493          	addi	s1,sp,5
   11bd2:	03400613          	li	a2,52
   11bd6:	8526                	mv	a0,s1
   11bd8:	0000d097          	auipc	ra,0xd
   11bdc:	93c080e7          	jalr	-1732(ra) # 1e514 <memcpy>
   11be0:	03a10993          	addi	s3,sp,58
   11be4:	02e00613          	li	a2,46
   11be8:	854e                	mv	a0,s3
   11bea:	4581                	li	a1,0
   11bec:	0000d097          	auipc	ra,0xd
   11bf0:	8bc080e7          	jalr	-1860(ra) # 1e4a8 <memset>
   11bf4:	8626                	mv	a2,s1
   11bf6:	02810ca3          	sb	s0,57(sp)
   11bfa:	4791                	li	a5,4
   11bfc:	20900513          	li	a0,521
   11c00:	4589                	li	a1,2
   11c02:	03400693          	li	a3,52
   11c06:	4711                	li	a4,4
   11c08:	00000073          	ecall
   11c0c:	00851863          	bne	a0,s0,11c1c <_ZN20complex_dynamic_type3app17h167f481162ddf486E+0x64>
   11c10:	4505                	li	a0,1
   11c12:	00aa0023          	sb	a0,0(s4)
   11c16:	00ba2223          	sw	a1,4(s4)
   11c1a:	a0b5                	j	11c86 <_ZN20complex_dynamic_type3app17h167f481162ddf486E+0xce>
   11c1c:	864e                	mv	a2,s3
   11c1e:	00f10223          	sb	a5,4(sp)
   11c22:	478d                	li	a5,3
   11c24:	20900513          	li	a0,521
   11c28:	45a1                	li	a1,8
   11c2a:	02e00693          	li	a3,46
   11c2e:	470d                	li	a4,3
   11c30:	00000073          	ecall
   11c34:	00851d63          	bne	a0,s0,11c4e <_ZN20complex_dynamic_type3app17h167f481162ddf486E+0x96>
   11c38:	03914703          	lbu	a4,57(sp)
   11c3c:	4505                	li	a0,1
   11c3e:	4609                	li	a2,2
   11c40:	00aa0023          	sb	a0,0(s4)
   11c44:	00ba2223          	sw	a1,4(s4)
   11c48:	02c71863          	bne	a4,a2,11c78 <_ZN20complex_dynamic_type3app17h167f481162ddf486E+0xc0>
   11c4c:	a82d                	j	11c86 <_ZN20complex_dynamic_type3app17h167f481162ddf486E+0xce>
   11c4e:	4681                	li	a3,0
   11c50:	02f10ca3          	sb	a5,57(sp)
   11c54:	20900513          	li	a0,521
   11c58:	4589                	li	a1,2
   11c5a:	4621                	li	a2,8
   11c5c:	4709                	li	a4,2
   11c5e:	08000793          	li	a5,128
   11c62:	00000073          	ecall
   11c66:	4609                	li	a2,2
   11c68:	04f57363          	bgeu	a0,a5,11cae <_ZN20complex_dynamic_type3app17h167f481162ddf486E+0xf6>
   11c6c:	4505                	li	a0,1
   11c6e:	00aa0023          	sb	a0,0(s4)
   11c72:	00ba2223          	sw	a1,4(s4)
   11c76:	470d                	li	a4,3
   11c78:	20900513          	li	a0,521
   11c7c:	45a1                	li	a1,8
   11c7e:	4601                	li	a2,0
   11c80:	4681                	li	a3,0
   11c82:	00000073          	ecall
   11c86:	00414703          	lbu	a4,4(sp)
   11c8a:	4509                	li	a0,2
   11c8c:	00a70963          	beq	a4,a0,11c9e <_ZN20complex_dynamic_type3app17h167f481162ddf486E+0xe6>
   11c90:	20900513          	li	a0,521
   11c94:	4589                	li	a1,2
   11c96:	4601                	li	a2,0
   11c98:	4681                	li	a3,0
   11c9a:	00000073          	ecall
   11c9e:	50f6                	lw	ra,124(sp)
   11ca0:	5466                	lw	s0,120(sp)
   11ca2:	54d6                	lw	s1,116(sp)
   11ca4:	5946                	lw	s2,112(sp)
   11ca6:	59b6                	lw	s3,108(sp)
   11ca8:	5a26                	lw	s4,104(sp)
   11caa:	6109                	addi	sp,sp,128
   11cac:	8082                	ret
   11cae:	00414703          	lbu	a4,4(sp)
   11cb2:	00c71463          	bne	a4,a2,11cba <_ZN20complex_dynamic_type3app17h167f481162ddf486E+0x102>
   11cb6:	470d                	li	a4,3
   11cb8:	a81d                	j	11cee <_ZN20complex_dynamic_type3app17h167f481162ddf486E+0x136>
   11cba:	20900513          	li	a0,521
   11cbe:	4589                	li	a1,2
   11cc0:	4601                	li	a2,0
   11cc2:	4681                	li	a3,0
   11cc4:	00000073          	ecall
   11cc8:	03914703          	lbu	a4,57(sp)
   11ccc:	4509                	li	a0,2
   11cce:	00a10223          	sb	a0,4(sp)
   11cd2:	00a71e63          	bne	a4,a0,11cee <_ZN20complex_dynamic_type3app17h167f481162ddf486E+0x136>
   11cd6:	001a0513          	addi	a0,s4,1
   11cda:	02e00613          	li	a2,46
   11cde:	85ce                	mv	a1,s3
   11ce0:	0000d097          	auipc	ra,0xd
   11ce4:	834080e7          	jalr	-1996(ra) # 1e514 <memcpy>
   11ce8:	000a0023          	sb	zero,0(s4)
   11cec:	bf4d                	j	11c9e <_ZN20complex_dynamic_type3app17h167f481162ddf486E+0xe6>
   11cee:	20900513          	li	a0,521
   11cf2:	45a1                	li	a1,8
   11cf4:	4601                	li	a2,0
   11cf6:	4681                	li	a3,0
   11cf8:	00000073          	ecall
   11cfc:	00414903          	lbu	s2,4(sp)
   11d00:	001a0513          	addi	a0,s4,1
   11d04:	02e00613          	li	a2,46
   11d08:	85ce                	mv	a1,s3
   11d0a:	0000d097          	auipc	ra,0xd
   11d0e:	80a080e7          	jalr	-2038(ra) # 1e514 <memcpy>
   11d12:	4509                	li	a0,2
   11d14:	000a0023          	sb	zero,0(s4)
   11d18:	f8a903e3          	beq	s2,a0,11c9e <_ZN20complex_dynamic_type3app17h167f481162ddf486E+0xe6>
   11d1c:	20900513          	li	a0,521
   11d20:	4589                	li	a1,2
   11d22:	4601                	li	a2,0
   11d24:	4681                	li	a3,0
   11d26:	874a                	mv	a4,s2
   11d28:	00000073          	ecall
   11d2c:	bf8d                	j	11c9e <_ZN20complex_dynamic_type3app17h167f481162ddf486E+0xe6>

00011d2e <_ZN20complex_dynamic_type3app17h183446b5f1dfd418E>:
   11d2e:	7155                	addi	sp,sp,-208
   11d30:	c786                	sw	ra,204(sp)
   11d32:	c5a2                	sw	s0,200(sp)
   11d34:	c3a6                	sw	s1,196(sp)
   11d36:	c1ca                	sw	s2,192(sp)
   11d38:	df4e                	sw	s3,188(sp)
   11d3a:	dd52                	sw	s4,184(sp)
   11d3c:	db56                	sw	s5,180(sp)
   11d3e:	8aaa                	mv	s5,a0
   11d40:	4409                	li	s0,2
   11d42:	008107a3          	sb	s0,15(sp)
   11d46:	0804                	addi	s1,sp,16
   11d48:	05900613          	li	a2,89
   11d4c:	8526                	mv	a0,s1
   11d4e:	0000c097          	auipc	ra,0xc
   11d52:	7c6080e7          	jalr	1990(ra) # 1e514 <memcpy>
   11d56:	06a10a13          	addi	s4,sp,106
   11d5a:	04a00613          	li	a2,74
   11d5e:	8552                	mv	a0,s4
   11d60:	4581                	li	a1,0
   11d62:	0000c097          	auipc	ra,0xc
   11d66:	746080e7          	jalr	1862(ra) # 1e4a8 <memset>
   11d6a:	4581                	li	a1,0
   11d6c:	8626                	mv	a2,s1
   11d6e:	068104a3          	sb	s0,105(sp)
   11d72:	6505                	lui	a0,0x1
   11d74:	4491                	li	s1,4
   11d76:	48450793          	addi	a5,a0,1156 # 1484 <.Lline_table_start1+0x1259>
   11d7a:	05900693          	li	a3,89
   11d7e:	4711                	li	a4,4
   11d80:	853e                	mv	a0,a5
   11d82:	00000073          	ecall
   11d86:	00851863          	bne	a0,s0,11d96 <_ZN20complex_dynamic_type3app17h183446b5f1dfd418E+0x68>
   11d8a:	4505                	li	a0,1
   11d8c:	00aa8023          	sb	a0,0(s5)
   11d90:	00baa223          	sw	a1,4(s5)
   11d94:	a0bd                	j	11e02 <_ZN20complex_dynamic_type3app17h183446b5f1dfd418E+0xd4>
   11d96:	853e                	mv	a0,a5
   11d98:	8652                	mv	a2,s4
   11d9a:	009107a3          	sb	s1,15(sp)
   11d9e:	478d                	li	a5,3
   11da0:	4591                	li	a1,4
   11da2:	04a00693          	li	a3,74
   11da6:	470d                	li	a4,3
   11da8:	00000073          	ecall
   11dac:	00851d63          	bne	a0,s0,11dc6 <_ZN20complex_dynamic_type3app17h183446b5f1dfd418E+0x98>
   11db0:	06914703          	lbu	a4,105(sp)
   11db4:	4505                	li	a0,1
   11db6:	4609                	li	a2,2
   11db8:	00aa8023          	sb	a0,0(s5)
   11dbc:	00baa223          	sw	a1,4(s5)
   11dc0:	02c71963          	bne	a4,a2,11df2 <_ZN20complex_dynamic_type3app17h183446b5f1dfd418E+0xc4>
   11dc4:	a83d                	j	11e02 <_ZN20complex_dynamic_type3app17h183446b5f1dfd418E+0xd4>
   11dc6:	4581                	li	a1,0
   11dc8:	4681                	li	a3,0
   11dca:	06f104a3          	sb	a5,105(sp)
   11dce:	6505                	lui	a0,0x1
   11dd0:	4611                	li	a2,4
   11dd2:	4709                	li	a4,2
   11dd4:	48450513          	addi	a0,a0,1156 # 1484 <.Lline_table_start1+0x1259>
   11dd8:	08000793          	li	a5,128
   11ddc:	00000073          	ecall
   11de0:	4609                	li	a2,2
   11de2:	04f57663          	bgeu	a0,a5,11e2e <_ZN20complex_dynamic_type3app17h183446b5f1dfd418E+0x100>
   11de6:	4505                	li	a0,1
   11de8:	00aa8023          	sb	a0,0(s5)
   11dec:	00baa223          	sw	a1,4(s5)
   11df0:	470d                	li	a4,3
   11df2:	6505                	lui	a0,0x1
   11df4:	48450513          	addi	a0,a0,1156 # 1484 <.Lline_table_start1+0x1259>
   11df8:	4591                	li	a1,4
   11dfa:	4601                	li	a2,0
   11dfc:	4681                	li	a3,0
   11dfe:	00000073          	ecall
   11e02:	00f14703          	lbu	a4,15(sp)
   11e06:	4509                	li	a0,2
   11e08:	00a70a63          	beq	a4,a0,11e1c <_ZN20complex_dynamic_type3app17h183446b5f1dfd418E+0xee>
   11e0c:	6505                	lui	a0,0x1
   11e0e:	48450513          	addi	a0,a0,1156 # 1484 <.Lline_table_start1+0x1259>
   11e12:	4581                	li	a1,0
   11e14:	4601                	li	a2,0
   11e16:	4681                	li	a3,0
   11e18:	00000073          	ecall
   11e1c:	40be                	lw	ra,204(sp)
   11e1e:	442e                	lw	s0,200(sp)
   11e20:	449e                	lw	s1,196(sp)
   11e22:	490e                	lw	s2,192(sp)
   11e24:	59fa                	lw	s3,188(sp)
   11e26:	5a6a                	lw	s4,184(sp)
   11e28:	5ada                	lw	s5,180(sp)
   11e2a:	6169                	addi	sp,sp,208
   11e2c:	8082                	ret
   11e2e:	00f14703          	lbu	a4,15(sp)
   11e32:	00c71463          	bne	a4,a2,11e3a <_ZN20complex_dynamic_type3app17h183446b5f1dfd418E+0x10c>
   11e36:	470d                	li	a4,3
   11e38:	a825                	j	11e70 <_ZN20complex_dynamic_type3app17h183446b5f1dfd418E+0x142>
   11e3a:	6505                	lui	a0,0x1
   11e3c:	48450513          	addi	a0,a0,1156 # 1484 <.Lline_table_start1+0x1259>
   11e40:	4581                	li	a1,0
   11e42:	4601                	li	a2,0
   11e44:	4681                	li	a3,0
   11e46:	00000073          	ecall
   11e4a:	06914703          	lbu	a4,105(sp)
   11e4e:	4509                	li	a0,2
   11e50:	00a107a3          	sb	a0,15(sp)
   11e54:	00a71e63          	bne	a4,a0,11e70 <_ZN20complex_dynamic_type3app17h183446b5f1dfd418E+0x142>
   11e58:	001a8513          	addi	a0,s5,1
   11e5c:	04a00613          	li	a2,74
   11e60:	85d2                	mv	a1,s4
   11e62:	0000c097          	auipc	ra,0xc
   11e66:	6b2080e7          	jalr	1714(ra) # 1e514 <memcpy>
   11e6a:	000a8023          	sb	zero,0(s5)
   11e6e:	b77d                	j	11e1c <_ZN20complex_dynamic_type3app17h183446b5f1dfd418E+0xee>
   11e70:	6505                	lui	a0,0x1
   11e72:	48450913          	addi	s2,a0,1156 # 1484 <.Lline_table_start1+0x1259>
   11e76:	4591                	li	a1,4
   11e78:	854a                	mv	a0,s2
   11e7a:	4601                	li	a2,0
   11e7c:	4681                	li	a3,0
   11e7e:	00000073          	ecall
   11e82:	00f14983          	lbu	s3,15(sp)
   11e86:	001a8513          	addi	a0,s5,1
   11e8a:	04a00613          	li	a2,74
   11e8e:	85d2                	mv	a1,s4
   11e90:	0000c097          	auipc	ra,0xc
   11e94:	684080e7          	jalr	1668(ra) # 1e514 <memcpy>
   11e98:	4509                	li	a0,2
   11e9a:	000a8023          	sb	zero,0(s5)
   11e9e:	f6a98fe3          	beq	s3,a0,11e1c <_ZN20complex_dynamic_type3app17h183446b5f1dfd418E+0xee>
   11ea2:	854a                	mv	a0,s2
   11ea4:	4581                	li	a1,0
   11ea6:	4601                	li	a2,0
   11ea8:	4681                	li	a3,0
   11eaa:	874e                	mv	a4,s3
   11eac:	00000073          	ecall
   11eb0:	b7b5                	j	11e1c <_ZN20complex_dynamic_type3app17h183446b5f1dfd418E+0xee>

00011eb2 <_ZN20complex_dynamic_type3app17h1a9b43bde82d1cd7E>:
   11eb2:	7175                	addi	sp,sp,-144
   11eb4:	c706                	sw	ra,140(sp)
   11eb6:	c522                	sw	s0,136(sp)
   11eb8:	c326                	sw	s1,132(sp)
   11eba:	c14a                	sw	s2,128(sp)
   11ebc:	dece                	sw	s3,124(sp)
   11ebe:	dcd2                	sw	s4,120(sp)
   11ec0:	dad6                	sw	s5,116(sp)
   11ec2:	8aaa                	mv	s5,a0
   11ec4:	4409                	li	s0,2
   11ec6:	008101a3          	sb	s0,3(sp)
   11eca:	0044                	addi	s1,sp,4
   11ecc:	4679                	li	a2,30
   11ece:	8526                	mv	a0,s1
   11ed0:	0000c097          	auipc	ra,0xc
   11ed4:	644080e7          	jalr	1604(ra) # 1e514 <memcpy>
   11ed8:	02310a13          	addi	s4,sp,35
   11edc:	05100613          	li	a2,81
   11ee0:	8552                	mv	a0,s4
   11ee2:	4581                	li	a1,0
   11ee4:	0000c097          	auipc	ra,0xc
   11ee8:	5c4080e7          	jalr	1476(ra) # 1e4a8 <memset>
   11eec:	8626                	mv	a2,s1
   11eee:	02810123          	sb	s0,34(sp)
   11ef2:	6509                	lui	a0,0x2
   11ef4:	4491                	li	s1,4
   11ef6:	4589                	li	a1,2
   11ef8:	96b50793          	addi	a5,a0,-1685 # 196b <.Lline_table_start1+0x1740>
   11efc:	46f9                	li	a3,30
   11efe:	4711                	li	a4,4
   11f00:	853e                	mv	a0,a5
   11f02:	00000073          	ecall
   11f06:	00851863          	bne	a0,s0,11f16 <_ZN20complex_dynamic_type3app17h1a9b43bde82d1cd7E+0x64>
   11f0a:	4505                	li	a0,1
   11f0c:	00aa8023          	sb	a0,0(s5)
   11f10:	00baa223          	sw	a1,4(s5)
   11f14:	a0bd                	j	11f82 <_ZN20complex_dynamic_type3app17h1a9b43bde82d1cd7E+0xd0>
   11f16:	853e                	mv	a0,a5
   11f18:	4581                	li	a1,0
   11f1a:	8652                	mv	a2,s4
   11f1c:	009101a3          	sb	s1,3(sp)
   11f20:	478d                	li	a5,3
   11f22:	05100693          	li	a3,81
   11f26:	470d                	li	a4,3
   11f28:	00000073          	ecall
   11f2c:	00851d63          	bne	a0,s0,11f46 <_ZN20complex_dynamic_type3app17h1a9b43bde82d1cd7E+0x94>
   11f30:	02214703          	lbu	a4,34(sp)
   11f34:	4505                	li	a0,1
   11f36:	4609                	li	a2,2
   11f38:	00aa8023          	sb	a0,0(s5)
   11f3c:	00baa223          	sw	a1,4(s5)
   11f40:	02c71963          	bne	a4,a2,11f72 <_ZN20complex_dynamic_type3app17h1a9b43bde82d1cd7E+0xc0>
   11f44:	a83d                	j	11f82 <_ZN20complex_dynamic_type3app17h1a9b43bde82d1cd7E+0xd0>
   11f46:	4601                	li	a2,0
   11f48:	4681                	li	a3,0
   11f4a:	02f10123          	sb	a5,34(sp)
   11f4e:	6509                	lui	a0,0x2
   11f50:	4589                	li	a1,2
   11f52:	4709                	li	a4,2
   11f54:	96b50513          	addi	a0,a0,-1685 # 196b <.Lline_table_start1+0x1740>
   11f58:	08000793          	li	a5,128
   11f5c:	00000073          	ecall
   11f60:	4609                	li	a2,2
   11f62:	04f57663          	bgeu	a0,a5,11fae <_ZN20complex_dynamic_type3app17h1a9b43bde82d1cd7E+0xfc>
   11f66:	4505                	li	a0,1
   11f68:	00aa8023          	sb	a0,0(s5)
   11f6c:	00baa223          	sw	a1,4(s5)
   11f70:	470d                	li	a4,3
   11f72:	6509                	lui	a0,0x2
   11f74:	96b50513          	addi	a0,a0,-1685 # 196b <.Lline_table_start1+0x1740>
   11f78:	4581                	li	a1,0
   11f7a:	4601                	li	a2,0
   11f7c:	4681                	li	a3,0
   11f7e:	00000073          	ecall
   11f82:	00314703          	lbu	a4,3(sp)
   11f86:	4509                	li	a0,2
   11f88:	00a70a63          	beq	a4,a0,11f9c <_ZN20complex_dynamic_type3app17h1a9b43bde82d1cd7E+0xea>
   11f8c:	6509                	lui	a0,0x2
   11f8e:	96b50513          	addi	a0,a0,-1685 # 196b <.Lline_table_start1+0x1740>
   11f92:	4589                	li	a1,2
   11f94:	4601                	li	a2,0
   11f96:	4681                	li	a3,0
   11f98:	00000073          	ecall
   11f9c:	40ba                	lw	ra,140(sp)
   11f9e:	442a                	lw	s0,136(sp)
   11fa0:	449a                	lw	s1,132(sp)
   11fa2:	490a                	lw	s2,128(sp)
   11fa4:	59f6                	lw	s3,124(sp)
   11fa6:	5a66                	lw	s4,120(sp)
   11fa8:	5ad6                	lw	s5,116(sp)
   11faa:	6149                	addi	sp,sp,144
   11fac:	8082                	ret
   11fae:	00314703          	lbu	a4,3(sp)
   11fb2:	00c71463          	bne	a4,a2,11fba <_ZN20complex_dynamic_type3app17h1a9b43bde82d1cd7E+0x108>
   11fb6:	470d                	li	a4,3
   11fb8:	a825                	j	11ff0 <_ZN20complex_dynamic_type3app17h1a9b43bde82d1cd7E+0x13e>
   11fba:	6509                	lui	a0,0x2
   11fbc:	96b50513          	addi	a0,a0,-1685 # 196b <.Lline_table_start1+0x1740>
   11fc0:	4589                	li	a1,2
   11fc2:	4601                	li	a2,0
   11fc4:	4681                	li	a3,0
   11fc6:	00000073          	ecall
   11fca:	02214703          	lbu	a4,34(sp)
   11fce:	4509                	li	a0,2
   11fd0:	00a101a3          	sb	a0,3(sp)
   11fd4:	00a71e63          	bne	a4,a0,11ff0 <_ZN20complex_dynamic_type3app17h1a9b43bde82d1cd7E+0x13e>
   11fd8:	001a8513          	addi	a0,s5,1
   11fdc:	05100613          	li	a2,81
   11fe0:	85d2                	mv	a1,s4
   11fe2:	0000c097          	auipc	ra,0xc
   11fe6:	532080e7          	jalr	1330(ra) # 1e514 <memcpy>
   11fea:	000a8023          	sb	zero,0(s5)
   11fee:	b77d                	j	11f9c <_ZN20complex_dynamic_type3app17h1a9b43bde82d1cd7E+0xea>
   11ff0:	6509                	lui	a0,0x2
   11ff2:	96b50913          	addi	s2,a0,-1685 # 196b <.Lline_table_start1+0x1740>
   11ff6:	854a                	mv	a0,s2
   11ff8:	4581                	li	a1,0
   11ffa:	4601                	li	a2,0
   11ffc:	4681                	li	a3,0
   11ffe:	00000073          	ecall
   12002:	00314983          	lbu	s3,3(sp)
   12006:	001a8513          	addi	a0,s5,1
   1200a:	05100613          	li	a2,81
   1200e:	85d2                	mv	a1,s4
   12010:	0000c097          	auipc	ra,0xc
   12014:	504080e7          	jalr	1284(ra) # 1e514 <memcpy>
   12018:	4509                	li	a0,2
   1201a:	000a8023          	sb	zero,0(s5)
   1201e:	f6a98fe3          	beq	s3,a0,11f9c <_ZN20complex_dynamic_type3app17h1a9b43bde82d1cd7E+0xea>
   12022:	4589                	li	a1,2
   12024:	854a                	mv	a0,s2
   12026:	4601                	li	a2,0
   12028:	4681                	li	a3,0
   1202a:	874e                	mv	a4,s3
   1202c:	00000073          	ecall
   12030:	b7b5                	j	11f9c <_ZN20complex_dynamic_type3app17h1a9b43bde82d1cd7E+0xea>

00012032 <_ZN20complex_dynamic_type3app17h1e5c922d98ad53ebE>:
   12032:	7131                	addi	sp,sp,-192
   12034:	df06                	sw	ra,188(sp)
   12036:	dd22                	sw	s0,184(sp)
   12038:	db26                	sw	s1,180(sp)
   1203a:	d94a                	sw	s2,176(sp)
   1203c:	d74e                	sw	s3,172(sp)
   1203e:	d552                	sw	s4,168(sp)
   12040:	d356                	sw	s5,164(sp)
   12042:	8aaa                	mv	s5,a0
   12044:	4409                	li	s0,2
   12046:	00810123          	sb	s0,2(sp)
   1204a:	00310493          	addi	s1,sp,3
   1204e:	05300613          	li	a2,83
   12052:	8526                	mv	a0,s1
   12054:	0000c097          	auipc	ra,0xc
   12058:	4c0080e7          	jalr	1216(ra) # 1e514 <memcpy>
   1205c:	05710a13          	addi	s4,sp,87
   12060:	04d00613          	li	a2,77
   12064:	8552                	mv	a0,s4
   12066:	4581                	li	a1,0
   12068:	0000c097          	auipc	ra,0xc
   1206c:	440080e7          	jalr	1088(ra) # 1e4a8 <memset>
   12070:	8626                	mv	a2,s1
   12072:	04810b23          	sb	s0,86(sp)
   12076:	6505                	lui	a0,0x1
   12078:	4491                	li	s1,4
   1207a:	45a5                	li	a1,9
   1207c:	6ba50793          	addi	a5,a0,1722 # 16ba <.Lline_table_start1+0x148f>
   12080:	05300693          	li	a3,83
   12084:	4711                	li	a4,4
   12086:	853e                	mv	a0,a5
   12088:	00000073          	ecall
   1208c:	00851863          	bne	a0,s0,1209c <_ZN20complex_dynamic_type3app17h1e5c922d98ad53ebE+0x6a>
   12090:	4505                	li	a0,1
   12092:	00aa8023          	sb	a0,0(s5)
   12096:	00baa223          	sw	a1,4(s5)
   1209a:	a0bd                	j	12108 <_ZN20complex_dynamic_type3app17h1e5c922d98ad53ebE+0xd6>
   1209c:	853e                	mv	a0,a5
   1209e:	8652                	mv	a2,s4
   120a0:	00910123          	sb	s1,2(sp)
   120a4:	478d                	li	a5,3
   120a6:	4591                	li	a1,4
   120a8:	04d00693          	li	a3,77
   120ac:	470d                	li	a4,3
   120ae:	00000073          	ecall
   120b2:	00851d63          	bne	a0,s0,120cc <_ZN20complex_dynamic_type3app17h1e5c922d98ad53ebE+0x9a>
   120b6:	05614703          	lbu	a4,86(sp)
   120ba:	4505                	li	a0,1
   120bc:	4609                	li	a2,2
   120be:	00aa8023          	sb	a0,0(s5)
   120c2:	00baa223          	sw	a1,4(s5)
   120c6:	02c71963          	bne	a4,a2,120f8 <_ZN20complex_dynamic_type3app17h1e5c922d98ad53ebE+0xc6>
   120ca:	a83d                	j	12108 <_ZN20complex_dynamic_type3app17h1e5c922d98ad53ebE+0xd6>
   120cc:	4681                	li	a3,0
   120ce:	04f10b23          	sb	a5,86(sp)
   120d2:	6505                	lui	a0,0x1
   120d4:	45a5                	li	a1,9
   120d6:	4611                	li	a2,4
   120d8:	4709                	li	a4,2
   120da:	6ba50513          	addi	a0,a0,1722 # 16ba <.Lline_table_start1+0x148f>
   120de:	08000793          	li	a5,128
   120e2:	00000073          	ecall
   120e6:	4609                	li	a2,2
   120e8:	04f57663          	bgeu	a0,a5,12134 <_ZN20complex_dynamic_type3app17h1e5c922d98ad53ebE+0x102>
   120ec:	4505                	li	a0,1
   120ee:	00aa8023          	sb	a0,0(s5)
   120f2:	00baa223          	sw	a1,4(s5)
   120f6:	470d                	li	a4,3
   120f8:	6505                	lui	a0,0x1
   120fa:	6ba50513          	addi	a0,a0,1722 # 16ba <.Lline_table_start1+0x148f>
   120fe:	4591                	li	a1,4
   12100:	4601                	li	a2,0
   12102:	4681                	li	a3,0
   12104:	00000073          	ecall
   12108:	00214703          	lbu	a4,2(sp)
   1210c:	4509                	li	a0,2
   1210e:	00a70a63          	beq	a4,a0,12122 <_ZN20complex_dynamic_type3app17h1e5c922d98ad53ebE+0xf0>
   12112:	6505                	lui	a0,0x1
   12114:	6ba50513          	addi	a0,a0,1722 # 16ba <.Lline_table_start1+0x148f>
   12118:	45a5                	li	a1,9
   1211a:	4601                	li	a2,0
   1211c:	4681                	li	a3,0
   1211e:	00000073          	ecall
   12122:	50fa                	lw	ra,188(sp)
   12124:	546a                	lw	s0,184(sp)
   12126:	54da                	lw	s1,180(sp)
   12128:	594a                	lw	s2,176(sp)
   1212a:	59ba                	lw	s3,172(sp)
   1212c:	5a2a                	lw	s4,168(sp)
   1212e:	5a9a                	lw	s5,164(sp)
   12130:	6129                	addi	sp,sp,192
   12132:	8082                	ret
   12134:	00214703          	lbu	a4,2(sp)
   12138:	00c71463          	bne	a4,a2,12140 <_ZN20complex_dynamic_type3app17h1e5c922d98ad53ebE+0x10e>
   1213c:	470d                	li	a4,3
   1213e:	a825                	j	12176 <_ZN20complex_dynamic_type3app17h1e5c922d98ad53ebE+0x144>
   12140:	6505                	lui	a0,0x1
   12142:	6ba50513          	addi	a0,a0,1722 # 16ba <.Lline_table_start1+0x148f>
   12146:	45a5                	li	a1,9
   12148:	4601                	li	a2,0
   1214a:	4681                	li	a3,0
   1214c:	00000073          	ecall
   12150:	05614703          	lbu	a4,86(sp)
   12154:	4509                	li	a0,2
   12156:	00a10123          	sb	a0,2(sp)
   1215a:	00a71e63          	bne	a4,a0,12176 <_ZN20complex_dynamic_type3app17h1e5c922d98ad53ebE+0x144>
   1215e:	001a8513          	addi	a0,s5,1
   12162:	04d00613          	li	a2,77
   12166:	85d2                	mv	a1,s4
   12168:	0000c097          	auipc	ra,0xc
   1216c:	3ac080e7          	jalr	940(ra) # 1e514 <memcpy>
   12170:	000a8023          	sb	zero,0(s5)
   12174:	b77d                	j	12122 <_ZN20complex_dynamic_type3app17h1e5c922d98ad53ebE+0xf0>
   12176:	6505                	lui	a0,0x1
   12178:	6ba50913          	addi	s2,a0,1722 # 16ba <.Lline_table_start1+0x148f>
   1217c:	4591                	li	a1,4
   1217e:	854a                	mv	a0,s2
   12180:	4601                	li	a2,0
   12182:	4681                	li	a3,0
   12184:	00000073          	ecall
   12188:	00214983          	lbu	s3,2(sp)
   1218c:	001a8513          	addi	a0,s5,1
   12190:	04d00613          	li	a2,77
   12194:	85d2                	mv	a1,s4
   12196:	0000c097          	auipc	ra,0xc
   1219a:	37e080e7          	jalr	894(ra) # 1e514 <memcpy>
   1219e:	4509                	li	a0,2
   121a0:	000a8023          	sb	zero,0(s5)
   121a4:	f6a98fe3          	beq	s3,a0,12122 <_ZN20complex_dynamic_type3app17h1e5c922d98ad53ebE+0xf0>
   121a8:	45a5                	li	a1,9
   121aa:	854a                	mv	a0,s2
   121ac:	4601                	li	a2,0
   121ae:	4681                	li	a3,0
   121b0:	874e                	mv	a4,s3
   121b2:	00000073          	ecall
   121b6:	b7b5                	j	12122 <_ZN20complex_dynamic_type3app17h1e5c922d98ad53ebE+0xf0>

000121b8 <_ZN20complex_dynamic_type3app17h26d6f3a309294fa0E>:
   121b8:	7171                	addi	sp,sp,-176
   121ba:	d706                	sw	ra,172(sp)
   121bc:	d522                	sw	s0,168(sp)
   121be:	d326                	sw	s1,164(sp)
   121c0:	d14a                	sw	s2,160(sp)
   121c2:	cf4e                	sw	s3,156(sp)
   121c4:	cd52                	sw	s4,152(sp)
   121c6:	8a2a                	mv	s4,a0
   121c8:	4409                	li	s0,2
   121ca:	008104a3          	sb	s0,9(sp)
   121ce:	00a10493          	addi	s1,sp,10
   121d2:	02f00613          	li	a2,47
   121d6:	8526                	mv	a0,s1
   121d8:	0000c097          	auipc	ra,0xc
   121dc:	33c080e7          	jalr	828(ra) # 1e514 <memcpy>
   121e0:	03a10993          	addi	s3,sp,58
   121e4:	05e00613          	li	a2,94
   121e8:	854e                	mv	a0,s3
   121ea:	4581                	li	a1,0
   121ec:	0000c097          	auipc	ra,0xc
   121f0:	2bc080e7          	jalr	700(ra) # 1e4a8 <memset>
   121f4:	8626                	mv	a2,s1
   121f6:	02810ca3          	sb	s0,57(sp)
   121fa:	4791                	li	a5,4
   121fc:	22b00513          	li	a0,555
   12200:	4595                	li	a1,5
   12202:	02f00693          	li	a3,47
   12206:	4711                	li	a4,4
   12208:	00000073          	ecall
   1220c:	00851863          	bne	a0,s0,1221c <_ZN20complex_dynamic_type3app17h26d6f3a309294fa0E+0x64>
   12210:	4505                	li	a0,1
   12212:	00aa0023          	sb	a0,0(s4)
   12216:	00ba2223          	sw	a1,4(s4)
   1221a:	a0b5                	j	12286 <_ZN20complex_dynamic_type3app17h26d6f3a309294fa0E+0xce>
   1221c:	864e                	mv	a2,s3
   1221e:	00f104a3          	sb	a5,9(sp)
   12222:	478d                	li	a5,3
   12224:	22b00513          	li	a0,555
   12228:	4589                	li	a1,2
   1222a:	05e00693          	li	a3,94
   1222e:	470d                	li	a4,3
   12230:	00000073          	ecall
   12234:	00851d63          	bne	a0,s0,1224e <_ZN20complex_dynamic_type3app17h26d6f3a309294fa0E+0x96>
   12238:	03914703          	lbu	a4,57(sp)
   1223c:	4505                	li	a0,1
   1223e:	4609                	li	a2,2
   12240:	00aa0023          	sb	a0,0(s4)
   12244:	00ba2223          	sw	a1,4(s4)
   12248:	02c71863          	bne	a4,a2,12278 <_ZN20complex_dynamic_type3app17h26d6f3a309294fa0E+0xc0>
   1224c:	a82d                	j	12286 <_ZN20complex_dynamic_type3app17h26d6f3a309294fa0E+0xce>
   1224e:	4681                	li	a3,0
   12250:	02f10ca3          	sb	a5,57(sp)
   12254:	22b00513          	li	a0,555
   12258:	4595                	li	a1,5
   1225a:	4609                	li	a2,2
   1225c:	4709                	li	a4,2
   1225e:	08000793          	li	a5,128
   12262:	00000073          	ecall
   12266:	4609                	li	a2,2
   12268:	04f57363          	bgeu	a0,a5,122ae <_ZN20complex_dynamic_type3app17h26d6f3a309294fa0E+0xf6>
   1226c:	4505                	li	a0,1
   1226e:	00aa0023          	sb	a0,0(s4)
   12272:	00ba2223          	sw	a1,4(s4)
   12276:	470d                	li	a4,3
   12278:	22b00513          	li	a0,555
   1227c:	4589                	li	a1,2
   1227e:	4601                	li	a2,0
   12280:	4681                	li	a3,0
   12282:	00000073          	ecall
   12286:	00914703          	lbu	a4,9(sp)
   1228a:	4509                	li	a0,2
   1228c:	00a70963          	beq	a4,a0,1229e <_ZN20complex_dynamic_type3app17h26d6f3a309294fa0E+0xe6>
   12290:	22b00513          	li	a0,555
   12294:	4595                	li	a1,5
   12296:	4601                	li	a2,0
   12298:	4681                	li	a3,0
   1229a:	00000073          	ecall
   1229e:	50ba                	lw	ra,172(sp)
   122a0:	542a                	lw	s0,168(sp)
   122a2:	549a                	lw	s1,164(sp)
   122a4:	590a                	lw	s2,160(sp)
   122a6:	49fa                	lw	s3,156(sp)
   122a8:	4a6a                	lw	s4,152(sp)
   122aa:	614d                	addi	sp,sp,176
   122ac:	8082                	ret
   122ae:	00914703          	lbu	a4,9(sp)
   122b2:	00c71463          	bne	a4,a2,122ba <_ZN20complex_dynamic_type3app17h26d6f3a309294fa0E+0x102>
   122b6:	470d                	li	a4,3
   122b8:	a81d                	j	122ee <_ZN20complex_dynamic_type3app17h26d6f3a309294fa0E+0x136>
   122ba:	22b00513          	li	a0,555
   122be:	4595                	li	a1,5
   122c0:	4601                	li	a2,0
   122c2:	4681                	li	a3,0
   122c4:	00000073          	ecall
   122c8:	03914703          	lbu	a4,57(sp)
   122cc:	4509                	li	a0,2
   122ce:	00a104a3          	sb	a0,9(sp)
   122d2:	00a71e63          	bne	a4,a0,122ee <_ZN20complex_dynamic_type3app17h26d6f3a309294fa0E+0x136>
   122d6:	001a0513          	addi	a0,s4,1
   122da:	05e00613          	li	a2,94
   122de:	85ce                	mv	a1,s3
   122e0:	0000c097          	auipc	ra,0xc
   122e4:	234080e7          	jalr	564(ra) # 1e514 <memcpy>
   122e8:	000a0023          	sb	zero,0(s4)
   122ec:	bf4d                	j	1229e <_ZN20complex_dynamic_type3app17h26d6f3a309294fa0E+0xe6>
   122ee:	4601                	li	a2,0
   122f0:	4681                	li	a3,0
   122f2:	22b00513          	li	a0,555
   122f6:	4589                	li	a1,2
   122f8:	00000073          	ecall
   122fc:	00914903          	lbu	s2,9(sp)
   12300:	4409                	li	s0,2
   12302:	001a0513          	addi	a0,s4,1
   12306:	05e00613          	li	a2,94
   1230a:	85ce                	mv	a1,s3
   1230c:	0000c097          	auipc	ra,0xc
   12310:	208080e7          	jalr	520(ra) # 1e514 <memcpy>
   12314:	000a0023          	sb	zero,0(s4)
   12318:	f88903e3          	beq	s2,s0,1229e <_ZN20complex_dynamic_type3app17h26d6f3a309294fa0E+0xe6>
   1231c:	22b00513          	li	a0,555
   12320:	4595                	li	a1,5
   12322:	4601                	li	a2,0
   12324:	4681                	li	a3,0
   12326:	874a                	mv	a4,s2
   12328:	00000073          	ecall
   1232c:	bf8d                	j	1229e <_ZN20complex_dynamic_type3app17h26d6f3a309294fa0E+0xe6>

0001232e <_ZN20complex_dynamic_type3app17h27304224519d3ed2E>:
   1232e:	7171                	addi	sp,sp,-176
   12330:	d706                	sw	ra,172(sp)
   12332:	d522                	sw	s0,168(sp)
   12334:	d326                	sw	s1,164(sp)
   12336:	d14a                	sw	s2,160(sp)
   12338:	cf4e                	sw	s3,156(sp)
   1233a:	cd52                	sw	s4,152(sp)
   1233c:	cb56                	sw	s5,148(sp)
   1233e:	8aaa                	mv	s5,a0
   12340:	4409                	li	s0,2
   12342:	00810323          	sb	s0,6(sp)
   12346:	00710493          	addi	s1,sp,7
   1234a:	05000613          	li	a2,80
   1234e:	8526                	mv	a0,s1
   12350:	0000c097          	auipc	ra,0xc
   12354:	1c4080e7          	jalr	452(ra) # 1e514 <memcpy>
   12358:	05810a13          	addi	s4,sp,88
   1235c:	03c00613          	li	a2,60
   12360:	8552                	mv	a0,s4
   12362:	4581                	li	a1,0
   12364:	0000c097          	auipc	ra,0xc
   12368:	144080e7          	jalr	324(ra) # 1e4a8 <memset>
   1236c:	8626                	mv	a2,s1
   1236e:	04810ba3          	sb	s0,87(sp)
   12372:	6505                	lui	a0,0x1
   12374:	4491                	li	s1,4
   12376:	458d                	li	a1,3
   12378:	d7a50793          	addi	a5,a0,-646 # d7a <.Lline_table_start1+0xb4f>
   1237c:	05000693          	li	a3,80
   12380:	4711                	li	a4,4
   12382:	853e                	mv	a0,a5
   12384:	00000073          	ecall
   12388:	00851863          	bne	a0,s0,12398 <_ZN20complex_dynamic_type3app17h27304224519d3ed2E+0x6a>
   1238c:	4505                	li	a0,1
   1238e:	00aa8023          	sb	a0,0(s5)
   12392:	00baa223          	sw	a1,4(s5)
   12396:	a0bd                	j	12404 <_ZN20complex_dynamic_type3app17h27304224519d3ed2E+0xd6>
   12398:	853e                	mv	a0,a5
   1239a:	8652                	mv	a2,s4
   1239c:	00910323          	sb	s1,6(sp)
   123a0:	478d                	li	a5,3
   123a2:	45a5                	li	a1,9
   123a4:	03c00693          	li	a3,60
   123a8:	470d                	li	a4,3
   123aa:	00000073          	ecall
   123ae:	00851d63          	bne	a0,s0,123c8 <_ZN20complex_dynamic_type3app17h27304224519d3ed2E+0x9a>
   123b2:	05714703          	lbu	a4,87(sp)
   123b6:	4505                	li	a0,1
   123b8:	4609                	li	a2,2
   123ba:	00aa8023          	sb	a0,0(s5)
   123be:	00baa223          	sw	a1,4(s5)
   123c2:	02c71963          	bne	a4,a2,123f4 <_ZN20complex_dynamic_type3app17h27304224519d3ed2E+0xc6>
   123c6:	a83d                	j	12404 <_ZN20complex_dynamic_type3app17h27304224519d3ed2E+0xd6>
   123c8:	4681                	li	a3,0
   123ca:	04f10ba3          	sb	a5,87(sp)
   123ce:	6505                	lui	a0,0x1
   123d0:	458d                	li	a1,3
   123d2:	4625                	li	a2,9
   123d4:	4709                	li	a4,2
   123d6:	d7a50513          	addi	a0,a0,-646 # d7a <.Lline_table_start1+0xb4f>
   123da:	08000793          	li	a5,128
   123de:	00000073          	ecall
   123e2:	4609                	li	a2,2
   123e4:	04f57663          	bgeu	a0,a5,12430 <_ZN20complex_dynamic_type3app17h27304224519d3ed2E+0x102>
   123e8:	4505                	li	a0,1
   123ea:	00aa8023          	sb	a0,0(s5)
   123ee:	00baa223          	sw	a1,4(s5)
   123f2:	470d                	li	a4,3
   123f4:	6505                	lui	a0,0x1
   123f6:	d7a50513          	addi	a0,a0,-646 # d7a <.Lline_table_start1+0xb4f>
   123fa:	45a5                	li	a1,9
   123fc:	4601                	li	a2,0
   123fe:	4681                	li	a3,0
   12400:	00000073          	ecall
   12404:	00614703          	lbu	a4,6(sp)
   12408:	4509                	li	a0,2
   1240a:	00a70a63          	beq	a4,a0,1241e <_ZN20complex_dynamic_type3app17h27304224519d3ed2E+0xf0>
   1240e:	6505                	lui	a0,0x1
   12410:	d7a50513          	addi	a0,a0,-646 # d7a <.Lline_table_start1+0xb4f>
   12414:	458d                	li	a1,3
   12416:	4601                	li	a2,0
   12418:	4681                	li	a3,0
   1241a:	00000073          	ecall
   1241e:	50ba                	lw	ra,172(sp)
   12420:	542a                	lw	s0,168(sp)
   12422:	549a                	lw	s1,164(sp)
   12424:	590a                	lw	s2,160(sp)
   12426:	49fa                	lw	s3,156(sp)
   12428:	4a6a                	lw	s4,152(sp)
   1242a:	4ada                	lw	s5,148(sp)
   1242c:	614d                	addi	sp,sp,176
   1242e:	8082                	ret
   12430:	00614703          	lbu	a4,6(sp)
   12434:	00c71463          	bne	a4,a2,1243c <_ZN20complex_dynamic_type3app17h27304224519d3ed2E+0x10e>
   12438:	470d                	li	a4,3
   1243a:	a825                	j	12472 <_ZN20complex_dynamic_type3app17h27304224519d3ed2E+0x144>
   1243c:	6505                	lui	a0,0x1
   1243e:	d7a50513          	addi	a0,a0,-646 # d7a <.Lline_table_start1+0xb4f>
   12442:	458d                	li	a1,3
   12444:	4601                	li	a2,0
   12446:	4681                	li	a3,0
   12448:	00000073          	ecall
   1244c:	05714703          	lbu	a4,87(sp)
   12450:	4509                	li	a0,2
   12452:	00a10323          	sb	a0,6(sp)
   12456:	00a71e63          	bne	a4,a0,12472 <_ZN20complex_dynamic_type3app17h27304224519d3ed2E+0x144>
   1245a:	001a8513          	addi	a0,s5,1
   1245e:	03c00613          	li	a2,60
   12462:	85d2                	mv	a1,s4
   12464:	0000c097          	auipc	ra,0xc
   12468:	0b0080e7          	jalr	176(ra) # 1e514 <memcpy>
   1246c:	000a8023          	sb	zero,0(s5)
   12470:	b77d                	j	1241e <_ZN20complex_dynamic_type3app17h27304224519d3ed2E+0xf0>
   12472:	6505                	lui	a0,0x1
   12474:	d7a50913          	addi	s2,a0,-646 # d7a <.Lline_table_start1+0xb4f>
   12478:	45a5                	li	a1,9
   1247a:	854a                	mv	a0,s2
   1247c:	4601                	li	a2,0
   1247e:	4681                	li	a3,0
   12480:	00000073          	ecall
   12484:	00614983          	lbu	s3,6(sp)
   12488:	001a8513          	addi	a0,s5,1
   1248c:	03c00613          	li	a2,60
   12490:	85d2                	mv	a1,s4
   12492:	0000c097          	auipc	ra,0xc
   12496:	082080e7          	jalr	130(ra) # 1e514 <memcpy>
   1249a:	4509                	li	a0,2
   1249c:	000a8023          	sb	zero,0(s5)
   124a0:	f6a98fe3          	beq	s3,a0,1241e <_ZN20complex_dynamic_type3app17h27304224519d3ed2E+0xf0>
   124a4:	458d                	li	a1,3
   124a6:	854a                	mv	a0,s2
   124a8:	4601                	li	a2,0
   124aa:	4681                	li	a3,0
   124ac:	874e                	mv	a4,s3
   124ae:	00000073          	ecall
   124b2:	b7b5                	j	1241e <_ZN20complex_dynamic_type3app17h27304224519d3ed2E+0xf0>

000124b4 <_ZN20complex_dynamic_type3app17h2a87ec4cd7e6f9cdE>:
   124b4:	7119                	addi	sp,sp,-128
   124b6:	de86                	sw	ra,124(sp)
   124b8:	dca2                	sw	s0,120(sp)
   124ba:	daa6                	sw	s1,116(sp)
   124bc:	d8ca                	sw	s2,112(sp)
   124be:	d6ce                	sw	s3,108(sp)
   124c0:	d4d2                	sw	s4,104(sp)
   124c2:	d2d6                	sw	s5,100(sp)
   124c4:	8aaa                	mv	s5,a0
   124c6:	4409                	li	s0,2
   124c8:	008103a3          	sb	s0,7(sp)
   124cc:	0024                	addi	s1,sp,8
   124ce:	03f00613          	li	a2,63
   124d2:	8526                	mv	a0,s1
   124d4:	0000c097          	auipc	ra,0xc
   124d8:	040080e7          	jalr	64(ra) # 1e514 <memcpy>
   124dc:	04810a13          	addi	s4,sp,72
   124e0:	4671                	li	a2,28
   124e2:	8552                	mv	a0,s4
   124e4:	4581                	li	a1,0
   124e6:	0000c097          	auipc	ra,0xc
   124ea:	fc2080e7          	jalr	-62(ra) # 1e4a8 <memset>
   124ee:	8626                	mv	a2,s1
   124f0:	048103a3          	sb	s0,71(sp)
   124f4:	6505                	lui	a0,0x1
   124f6:	4491                	li	s1,4
   124f8:	4595                	li	a1,5
   124fa:	69450793          	addi	a5,a0,1684 # 1694 <.Lline_table_start1+0x1469>
   124fe:	03f00693          	li	a3,63
   12502:	4711                	li	a4,4
   12504:	853e                	mv	a0,a5
   12506:	00000073          	ecall
   1250a:	00851863          	bne	a0,s0,1251a <_ZN20complex_dynamic_type3app17h2a87ec4cd7e6f9cdE+0x66>
   1250e:	4505                	li	a0,1
   12510:	00aa8023          	sb	a0,0(s5)
   12514:	00baa223          	sw	a1,4(s5)
   12518:	a0b5                	j	12584 <_ZN20complex_dynamic_type3app17h2a87ec4cd7e6f9cdE+0xd0>
   1251a:	853e                	mv	a0,a5
   1251c:	8652                	mv	a2,s4
   1251e:	009103a3          	sb	s1,7(sp)
   12522:	478d                	li	a5,3
   12524:	45a5                	li	a1,9
   12526:	46f1                	li	a3,28
   12528:	470d                	li	a4,3
   1252a:	00000073          	ecall
   1252e:	00851d63          	bne	a0,s0,12548 <_ZN20complex_dynamic_type3app17h2a87ec4cd7e6f9cdE+0x94>
   12532:	04714703          	lbu	a4,71(sp)
   12536:	4505                	li	a0,1
   12538:	4609                	li	a2,2
   1253a:	00aa8023          	sb	a0,0(s5)
   1253e:	00baa223          	sw	a1,4(s5)
   12542:	02c71963          	bne	a4,a2,12574 <_ZN20complex_dynamic_type3app17h2a87ec4cd7e6f9cdE+0xc0>
   12546:	a83d                	j	12584 <_ZN20complex_dynamic_type3app17h2a87ec4cd7e6f9cdE+0xd0>
   12548:	4681                	li	a3,0
   1254a:	04f103a3          	sb	a5,71(sp)
   1254e:	6505                	lui	a0,0x1
   12550:	4595                	li	a1,5
   12552:	4625                	li	a2,9
   12554:	4709                	li	a4,2
   12556:	69450513          	addi	a0,a0,1684 # 1694 <.Lline_table_start1+0x1469>
   1255a:	08000793          	li	a5,128
   1255e:	00000073          	ecall
   12562:	4609                	li	a2,2
   12564:	04f57663          	bgeu	a0,a5,125b0 <_ZN20complex_dynamic_type3app17h2a87ec4cd7e6f9cdE+0xfc>
   12568:	4505                	li	a0,1
   1256a:	00aa8023          	sb	a0,0(s5)
   1256e:	00baa223          	sw	a1,4(s5)
   12572:	470d                	li	a4,3
   12574:	6505                	lui	a0,0x1
   12576:	69450513          	addi	a0,a0,1684 # 1694 <.Lline_table_start1+0x1469>
   1257a:	45a5                	li	a1,9
   1257c:	4601                	li	a2,0
   1257e:	4681                	li	a3,0
   12580:	00000073          	ecall
   12584:	00714703          	lbu	a4,7(sp)
   12588:	4509                	li	a0,2
   1258a:	00a70a63          	beq	a4,a0,1259e <_ZN20complex_dynamic_type3app17h2a87ec4cd7e6f9cdE+0xea>
   1258e:	6505                	lui	a0,0x1
   12590:	69450513          	addi	a0,a0,1684 # 1694 <.Lline_table_start1+0x1469>
   12594:	4595                	li	a1,5
   12596:	4601                	li	a2,0
   12598:	4681                	li	a3,0
   1259a:	00000073          	ecall
   1259e:	50f6                	lw	ra,124(sp)
   125a0:	5466                	lw	s0,120(sp)
   125a2:	54d6                	lw	s1,116(sp)
   125a4:	5946                	lw	s2,112(sp)
   125a6:	59b6                	lw	s3,108(sp)
   125a8:	5a26                	lw	s4,104(sp)
   125aa:	5a96                	lw	s5,100(sp)
   125ac:	6109                	addi	sp,sp,128
   125ae:	8082                	ret
   125b0:	00714703          	lbu	a4,7(sp)
   125b4:	00c71463          	bne	a4,a2,125bc <_ZN20complex_dynamic_type3app17h2a87ec4cd7e6f9cdE+0x108>
   125b8:	470d                	li	a4,3
   125ba:	a81d                	j	125f0 <_ZN20complex_dynamic_type3app17h2a87ec4cd7e6f9cdE+0x13c>
   125bc:	6505                	lui	a0,0x1
   125be:	69450513          	addi	a0,a0,1684 # 1694 <.Lline_table_start1+0x1469>
   125c2:	4595                	li	a1,5
   125c4:	4601                	li	a2,0
   125c6:	4681                	li	a3,0
   125c8:	00000073          	ecall
   125cc:	04714703          	lbu	a4,71(sp)
   125d0:	4509                	li	a0,2
   125d2:	00a103a3          	sb	a0,7(sp)
   125d6:	00a71d63          	bne	a4,a0,125f0 <_ZN20complex_dynamic_type3app17h2a87ec4cd7e6f9cdE+0x13c>
   125da:	001a8513          	addi	a0,s5,1
   125de:	4671                	li	a2,28
   125e0:	85d2                	mv	a1,s4
   125e2:	0000c097          	auipc	ra,0xc
   125e6:	f32080e7          	jalr	-206(ra) # 1e514 <memcpy>
   125ea:	000a8023          	sb	zero,0(s5)
   125ee:	bf45                	j	1259e <_ZN20complex_dynamic_type3app17h2a87ec4cd7e6f9cdE+0xea>
   125f0:	6505                	lui	a0,0x1
   125f2:	69450913          	addi	s2,a0,1684 # 1694 <.Lline_table_start1+0x1469>
   125f6:	45a5                	li	a1,9
   125f8:	854a                	mv	a0,s2
   125fa:	4601                	li	a2,0
   125fc:	4681                	li	a3,0
   125fe:	00000073          	ecall
   12602:	00714983          	lbu	s3,7(sp)
   12606:	001a8513          	addi	a0,s5,1
   1260a:	4671                	li	a2,28
   1260c:	85d2                	mv	a1,s4
   1260e:	0000c097          	auipc	ra,0xc
   12612:	f06080e7          	jalr	-250(ra) # 1e514 <memcpy>
   12616:	4509                	li	a0,2
   12618:	000a8023          	sb	zero,0(s5)
   1261c:	f8a981e3          	beq	s3,a0,1259e <_ZN20complex_dynamic_type3app17h2a87ec4cd7e6f9cdE+0xea>
   12620:	4595                	li	a1,5
   12622:	854a                	mv	a0,s2
   12624:	4601                	li	a2,0
   12626:	4681                	li	a3,0
   12628:	874e                	mv	a4,s3
   1262a:	00000073          	ecall
   1262e:	bf85                	j	1259e <_ZN20complex_dynamic_type3app17h2a87ec4cd7e6f9cdE+0xea>

00012630 <_ZN20complex_dynamic_type3app17h2e18c81955e06884E>:
   12630:	7171                	addi	sp,sp,-176
   12632:	d706                	sw	ra,172(sp)
   12634:	d522                	sw	s0,168(sp)
   12636:	d326                	sw	s1,164(sp)
   12638:	d14a                	sw	s2,160(sp)
   1263a:	cf4e                	sw	s3,156(sp)
   1263c:	cd52                	sw	s4,152(sp)
   1263e:	cb56                	sw	s5,148(sp)
   12640:	8aaa                	mv	s5,a0
   12642:	4409                	li	s0,2
   12644:	008105a3          	sb	s0,11(sp)
   12648:	0064                	addi	s1,sp,12
   1264a:	05500613          	li	a2,85
   1264e:	8526                	mv	a0,s1
   12650:	0000c097          	auipc	ra,0xc
   12654:	ec4080e7          	jalr	-316(ra) # 1e514 <memcpy>
   12658:	06210a13          	addi	s4,sp,98
   1265c:	03200613          	li	a2,50
   12660:	8552                	mv	a0,s4
   12662:	4581                	li	a1,0
   12664:	0000c097          	auipc	ra,0xc
   12668:	e44080e7          	jalr	-444(ra) # 1e4a8 <memset>
   1266c:	8626                	mv	a2,s1
   1266e:	068100a3          	sb	s0,97(sp)
   12672:	6509                	lui	a0,0x2
   12674:	4491                	li	s1,4
   12676:	45a1                	li	a1,8
   12678:	09550793          	addi	a5,a0,149 # 2095 <.Lline_table_start1+0x1e6a>
   1267c:	05500693          	li	a3,85
   12680:	4711                	li	a4,4
   12682:	853e                	mv	a0,a5
   12684:	00000073          	ecall
   12688:	00851863          	bne	a0,s0,12698 <_ZN20complex_dynamic_type3app17h2e18c81955e06884E+0x68>
   1268c:	4505                	li	a0,1
   1268e:	00aa8023          	sb	a0,0(s5)
   12692:	00baa223          	sw	a1,4(s5)
   12696:	a0bd                	j	12704 <_ZN20complex_dynamic_type3app17h2e18c81955e06884E+0xd4>
   12698:	853e                	mv	a0,a5
   1269a:	8652                	mv	a2,s4
   1269c:	009105a3          	sb	s1,11(sp)
   126a0:	478d                	li	a5,3
   126a2:	45a1                	li	a1,8
   126a4:	03200693          	li	a3,50
   126a8:	470d                	li	a4,3
   126aa:	00000073          	ecall
   126ae:	00851d63          	bne	a0,s0,126c8 <_ZN20complex_dynamic_type3app17h2e18c81955e06884E+0x98>
   126b2:	06114703          	lbu	a4,97(sp)
   126b6:	4505                	li	a0,1
   126b8:	4609                	li	a2,2
   126ba:	00aa8023          	sb	a0,0(s5)
   126be:	00baa223          	sw	a1,4(s5)
   126c2:	02c71963          	bne	a4,a2,126f4 <_ZN20complex_dynamic_type3app17h2e18c81955e06884E+0xc4>
   126c6:	a83d                	j	12704 <_ZN20complex_dynamic_type3app17h2e18c81955e06884E+0xd4>
   126c8:	4681                	li	a3,0
   126ca:	06f100a3          	sb	a5,97(sp)
   126ce:	6509                	lui	a0,0x2
   126d0:	45a1                	li	a1,8
   126d2:	4621                	li	a2,8
   126d4:	4709                	li	a4,2
   126d6:	09550513          	addi	a0,a0,149 # 2095 <.Lline_table_start1+0x1e6a>
   126da:	08000793          	li	a5,128
   126de:	00000073          	ecall
   126e2:	4609                	li	a2,2
   126e4:	04f57663          	bgeu	a0,a5,12730 <_ZN20complex_dynamic_type3app17h2e18c81955e06884E+0x100>
   126e8:	4505                	li	a0,1
   126ea:	00aa8023          	sb	a0,0(s5)
   126ee:	00baa223          	sw	a1,4(s5)
   126f2:	470d                	li	a4,3
   126f4:	6509                	lui	a0,0x2
   126f6:	09550513          	addi	a0,a0,149 # 2095 <.Lline_table_start1+0x1e6a>
   126fa:	45a1                	li	a1,8
   126fc:	4601                	li	a2,0
   126fe:	4681                	li	a3,0
   12700:	00000073          	ecall
   12704:	00b14703          	lbu	a4,11(sp)
   12708:	4509                	li	a0,2
   1270a:	00a70a63          	beq	a4,a0,1271e <_ZN20complex_dynamic_type3app17h2e18c81955e06884E+0xee>
   1270e:	6509                	lui	a0,0x2
   12710:	09550513          	addi	a0,a0,149 # 2095 <.Lline_table_start1+0x1e6a>
   12714:	45a1                	li	a1,8
   12716:	4601                	li	a2,0
   12718:	4681                	li	a3,0
   1271a:	00000073          	ecall
   1271e:	50ba                	lw	ra,172(sp)
   12720:	542a                	lw	s0,168(sp)
   12722:	549a                	lw	s1,164(sp)
   12724:	590a                	lw	s2,160(sp)
   12726:	49fa                	lw	s3,156(sp)
   12728:	4a6a                	lw	s4,152(sp)
   1272a:	4ada                	lw	s5,148(sp)
   1272c:	614d                	addi	sp,sp,176
   1272e:	8082                	ret
   12730:	00b14703          	lbu	a4,11(sp)
   12734:	00c71463          	bne	a4,a2,1273c <_ZN20complex_dynamic_type3app17h2e18c81955e06884E+0x10c>
   12738:	470d                	li	a4,3
   1273a:	a825                	j	12772 <_ZN20complex_dynamic_type3app17h2e18c81955e06884E+0x142>
   1273c:	6509                	lui	a0,0x2
   1273e:	09550513          	addi	a0,a0,149 # 2095 <.Lline_table_start1+0x1e6a>
   12742:	45a1                	li	a1,8
   12744:	4601                	li	a2,0
   12746:	4681                	li	a3,0
   12748:	00000073          	ecall
   1274c:	06114703          	lbu	a4,97(sp)
   12750:	4509                	li	a0,2
   12752:	00a105a3          	sb	a0,11(sp)
   12756:	00a71e63          	bne	a4,a0,12772 <_ZN20complex_dynamic_type3app17h2e18c81955e06884E+0x142>
   1275a:	001a8513          	addi	a0,s5,1
   1275e:	03200613          	li	a2,50
   12762:	85d2                	mv	a1,s4
   12764:	0000c097          	auipc	ra,0xc
   12768:	db0080e7          	jalr	-592(ra) # 1e514 <memcpy>
   1276c:	000a8023          	sb	zero,0(s5)
   12770:	b77d                	j	1271e <_ZN20complex_dynamic_type3app17h2e18c81955e06884E+0xee>
   12772:	6509                	lui	a0,0x2
   12774:	09550913          	addi	s2,a0,149 # 2095 <.Lline_table_start1+0x1e6a>
   12778:	45a1                	li	a1,8
   1277a:	854a                	mv	a0,s2
   1277c:	4601                	li	a2,0
   1277e:	4681                	li	a3,0
   12780:	00000073          	ecall
   12784:	00b14983          	lbu	s3,11(sp)
   12788:	001a8513          	addi	a0,s5,1
   1278c:	03200613          	li	a2,50
   12790:	85d2                	mv	a1,s4
   12792:	0000c097          	auipc	ra,0xc
   12796:	d82080e7          	jalr	-638(ra) # 1e514 <memcpy>
   1279a:	4509                	li	a0,2
   1279c:	000a8023          	sb	zero,0(s5)
   127a0:	f6a98fe3          	beq	s3,a0,1271e <_ZN20complex_dynamic_type3app17h2e18c81955e06884E+0xee>
   127a4:	45a1                	li	a1,8
   127a6:	854a                	mv	a0,s2
   127a8:	4601                	li	a2,0
   127aa:	4681                	li	a3,0
   127ac:	874e                	mv	a4,s3
   127ae:	00000073          	ecall
   127b2:	b7b5                	j	1271e <_ZN20complex_dynamic_type3app17h2e18c81955e06884E+0xee>

000127b4 <_ZN20complex_dynamic_type3app17h303acc28182e9665E>:
   127b4:	7175                	addi	sp,sp,-144
   127b6:	c706                	sw	ra,140(sp)
   127b8:	c522                	sw	s0,136(sp)
   127ba:	c326                	sw	s1,132(sp)
   127bc:	c14a                	sw	s2,128(sp)
   127be:	dece                	sw	s3,124(sp)
   127c0:	dcd2                	sw	s4,120(sp)
   127c2:	8a2a                	mv	s4,a0
   127c4:	4409                	li	s0,2
   127c6:	00810523          	sb	s0,10(sp)
   127ca:	00b10493          	addi	s1,sp,11
   127ce:	03800613          	li	a2,56
   127d2:	8526                	mv	a0,s1
   127d4:	0000c097          	auipc	ra,0xc
   127d8:	d40080e7          	jalr	-704(ra) # 1e514 <memcpy>
   127dc:	04410993          	addi	s3,sp,68
   127e0:	03400613          	li	a2,52
   127e4:	854e                	mv	a0,s3
   127e6:	4581                	li	a1,0
   127e8:	0000c097          	auipc	ra,0xc
   127ec:	cc0080e7          	jalr	-832(ra) # 1e4a8 <memset>
   127f0:	8626                	mv	a2,s1
   127f2:	048101a3          	sb	s0,67(sp)
   127f6:	4791                	li	a5,4
   127f8:	12e00513          	li	a0,302
   127fc:	45a1                	li	a1,8
   127fe:	03800693          	li	a3,56
   12802:	4711                	li	a4,4
   12804:	00000073          	ecall
   12808:	00851863          	bne	a0,s0,12818 <_ZN20complex_dynamic_type3app17h303acc28182e9665E+0x64>
   1280c:	4505                	li	a0,1
   1280e:	00aa0023          	sb	a0,0(s4)
   12812:	00ba2223          	sw	a1,4(s4)
   12816:	a0b5                	j	12882 <_ZN20complex_dynamic_type3app17h303acc28182e9665E+0xce>
   12818:	864e                	mv	a2,s3
   1281a:	00f10523          	sb	a5,10(sp)
   1281e:	478d                	li	a5,3
   12820:	12e00513          	li	a0,302
   12824:	458d                	li	a1,3
   12826:	03400693          	li	a3,52
   1282a:	470d                	li	a4,3
   1282c:	00000073          	ecall
   12830:	00851d63          	bne	a0,s0,1284a <_ZN20complex_dynamic_type3app17h303acc28182e9665E+0x96>
   12834:	04314703          	lbu	a4,67(sp)
   12838:	4505                	li	a0,1
   1283a:	4609                	li	a2,2
   1283c:	00aa0023          	sb	a0,0(s4)
   12840:	00ba2223          	sw	a1,4(s4)
   12844:	02c71863          	bne	a4,a2,12874 <_ZN20complex_dynamic_type3app17h303acc28182e9665E+0xc0>
   12848:	a82d                	j	12882 <_ZN20complex_dynamic_type3app17h303acc28182e9665E+0xce>
   1284a:	4681                	li	a3,0
   1284c:	04f101a3          	sb	a5,67(sp)
   12850:	12e00513          	li	a0,302
   12854:	45a1                	li	a1,8
   12856:	460d                	li	a2,3
   12858:	4709                	li	a4,2
   1285a:	08000793          	li	a5,128
   1285e:	00000073          	ecall
   12862:	4609                	li	a2,2
   12864:	04f57363          	bgeu	a0,a5,128aa <_ZN20complex_dynamic_type3app17h303acc28182e9665E+0xf6>
   12868:	4505                	li	a0,1
   1286a:	00aa0023          	sb	a0,0(s4)
   1286e:	00ba2223          	sw	a1,4(s4)
   12872:	470d                	li	a4,3
   12874:	12e00513          	li	a0,302
   12878:	458d                	li	a1,3
   1287a:	4601                	li	a2,0
   1287c:	4681                	li	a3,0
   1287e:	00000073          	ecall
   12882:	00a14703          	lbu	a4,10(sp)
   12886:	4509                	li	a0,2
   12888:	00a70963          	beq	a4,a0,1289a <_ZN20complex_dynamic_type3app17h303acc28182e9665E+0xe6>
   1288c:	12e00513          	li	a0,302
   12890:	45a1                	li	a1,8
   12892:	4601                	li	a2,0
   12894:	4681                	li	a3,0
   12896:	00000073          	ecall
   1289a:	40ba                	lw	ra,140(sp)
   1289c:	442a                	lw	s0,136(sp)
   1289e:	449a                	lw	s1,132(sp)
   128a0:	490a                	lw	s2,128(sp)
   128a2:	59f6                	lw	s3,124(sp)
   128a4:	5a66                	lw	s4,120(sp)
   128a6:	6149                	addi	sp,sp,144
   128a8:	8082                	ret
   128aa:	00a14703          	lbu	a4,10(sp)
   128ae:	00c71463          	bne	a4,a2,128b6 <_ZN20complex_dynamic_type3app17h303acc28182e9665E+0x102>
   128b2:	470d                	li	a4,3
   128b4:	a81d                	j	128ea <_ZN20complex_dynamic_type3app17h303acc28182e9665E+0x136>
   128b6:	12e00513          	li	a0,302
   128ba:	45a1                	li	a1,8
   128bc:	4601                	li	a2,0
   128be:	4681                	li	a3,0
   128c0:	00000073          	ecall
   128c4:	04314703          	lbu	a4,67(sp)
   128c8:	4509                	li	a0,2
   128ca:	00a10523          	sb	a0,10(sp)
   128ce:	00a71e63          	bne	a4,a0,128ea <_ZN20complex_dynamic_type3app17h303acc28182e9665E+0x136>
   128d2:	001a0513          	addi	a0,s4,1
   128d6:	03400613          	li	a2,52
   128da:	85ce                	mv	a1,s3
   128dc:	0000c097          	auipc	ra,0xc
   128e0:	c38080e7          	jalr	-968(ra) # 1e514 <memcpy>
   128e4:	000a0023          	sb	zero,0(s4)
   128e8:	bf4d                	j	1289a <_ZN20complex_dynamic_type3app17h303acc28182e9665E+0xe6>
   128ea:	12e00513          	li	a0,302
   128ee:	458d                	li	a1,3
   128f0:	4601                	li	a2,0
   128f2:	4681                	li	a3,0
   128f4:	00000073          	ecall
   128f8:	00a14903          	lbu	s2,10(sp)
   128fc:	001a0513          	addi	a0,s4,1
   12900:	03400613          	li	a2,52
   12904:	85ce                	mv	a1,s3
   12906:	0000c097          	auipc	ra,0xc
   1290a:	c0e080e7          	jalr	-1010(ra) # 1e514 <memcpy>
   1290e:	4509                	li	a0,2
   12910:	000a0023          	sb	zero,0(s4)
   12914:	f8a903e3          	beq	s2,a0,1289a <_ZN20complex_dynamic_type3app17h303acc28182e9665E+0xe6>
   12918:	12e00513          	li	a0,302
   1291c:	45a1                	li	a1,8
   1291e:	4601                	li	a2,0
   12920:	4681                	li	a3,0
   12922:	874a                	mv	a4,s2
   12924:	00000073          	ecall
   12928:	bf8d                	j	1289a <_ZN20complex_dynamic_type3app17h303acc28182e9665E+0xe6>

0001292a <_ZN20complex_dynamic_type3app17h33fdf4206c26978bE>:
   1292a:	7131                	addi	sp,sp,-192
   1292c:	df06                	sw	ra,188(sp)
   1292e:	dd22                	sw	s0,184(sp)
   12930:	db26                	sw	s1,180(sp)
   12932:	d94a                	sw	s2,176(sp)
   12934:	d74e                	sw	s3,172(sp)
   12936:	d552                	sw	s4,168(sp)
   12938:	d356                	sw	s5,164(sp)
   1293a:	8aaa                	mv	s5,a0
   1293c:	4409                	li	s0,2
   1293e:	00810123          	sb	s0,2(sp)
   12942:	00310493          	addi	s1,sp,3
   12946:	05100613          	li	a2,81
   1294a:	8526                	mv	a0,s1
   1294c:	0000c097          	auipc	ra,0xc
   12950:	bc8080e7          	jalr	-1080(ra) # 1e514 <memcpy>
   12954:	05510a13          	addi	s4,sp,85
   12958:	04f00613          	li	a2,79
   1295c:	8552                	mv	a0,s4
   1295e:	4581                	li	a1,0
   12960:	0000c097          	auipc	ra,0xc
   12964:	b48080e7          	jalr	-1208(ra) # 1e4a8 <memset>
   12968:	8626                	mv	a2,s1
   1296a:	04810a23          	sb	s0,84(sp)
   1296e:	6509                	lui	a0,0x2
   12970:	4491                	li	s1,4
   12972:	4591                	li	a1,4
   12974:	0ee50793          	addi	a5,a0,238 # 20ee <.Lline_table_start1+0x1ec3>
   12978:	05100693          	li	a3,81
   1297c:	4711                	li	a4,4
   1297e:	853e                	mv	a0,a5
   12980:	00000073          	ecall
   12984:	00851863          	bne	a0,s0,12994 <_ZN20complex_dynamic_type3app17h33fdf4206c26978bE+0x6a>
   12988:	4505                	li	a0,1
   1298a:	00aa8023          	sb	a0,0(s5)
   1298e:	00baa223          	sw	a1,4(s5)
   12992:	a0bd                	j	12a00 <_ZN20complex_dynamic_type3app17h33fdf4206c26978bE+0xd6>
   12994:	853e                	mv	a0,a5
   12996:	8652                	mv	a2,s4
   12998:	00910123          	sb	s1,2(sp)
   1299c:	478d                	li	a5,3
   1299e:	45a5                	li	a1,9
   129a0:	04f00693          	li	a3,79
   129a4:	470d                	li	a4,3
   129a6:	00000073          	ecall
   129aa:	00851d63          	bne	a0,s0,129c4 <_ZN20complex_dynamic_type3app17h33fdf4206c26978bE+0x9a>
   129ae:	05414703          	lbu	a4,84(sp)
   129b2:	4505                	li	a0,1
   129b4:	4609                	li	a2,2
   129b6:	00aa8023          	sb	a0,0(s5)
   129ba:	00baa223          	sw	a1,4(s5)
   129be:	02c71963          	bne	a4,a2,129f0 <_ZN20complex_dynamic_type3app17h33fdf4206c26978bE+0xc6>
   129c2:	a83d                	j	12a00 <_ZN20complex_dynamic_type3app17h33fdf4206c26978bE+0xd6>
   129c4:	4681                	li	a3,0
   129c6:	04f10a23          	sb	a5,84(sp)
   129ca:	6509                	lui	a0,0x2
   129cc:	4591                	li	a1,4
   129ce:	4625                	li	a2,9
   129d0:	4709                	li	a4,2
   129d2:	0ee50513          	addi	a0,a0,238 # 20ee <.Lline_table_start1+0x1ec3>
   129d6:	08000793          	li	a5,128
   129da:	00000073          	ecall
   129de:	4609                	li	a2,2
   129e0:	04f57663          	bgeu	a0,a5,12a2c <_ZN20complex_dynamic_type3app17h33fdf4206c26978bE+0x102>
   129e4:	4505                	li	a0,1
   129e6:	00aa8023          	sb	a0,0(s5)
   129ea:	00baa223          	sw	a1,4(s5)
   129ee:	470d                	li	a4,3
   129f0:	6509                	lui	a0,0x2
   129f2:	0ee50513          	addi	a0,a0,238 # 20ee <.Lline_table_start1+0x1ec3>
   129f6:	45a5                	li	a1,9
   129f8:	4601                	li	a2,0
   129fa:	4681                	li	a3,0
   129fc:	00000073          	ecall
   12a00:	00214703          	lbu	a4,2(sp)
   12a04:	4509                	li	a0,2
   12a06:	00a70a63          	beq	a4,a0,12a1a <_ZN20complex_dynamic_type3app17h33fdf4206c26978bE+0xf0>
   12a0a:	6509                	lui	a0,0x2
   12a0c:	0ee50513          	addi	a0,a0,238 # 20ee <.Lline_table_start1+0x1ec3>
   12a10:	4591                	li	a1,4
   12a12:	4601                	li	a2,0
   12a14:	4681                	li	a3,0
   12a16:	00000073          	ecall
   12a1a:	50fa                	lw	ra,188(sp)
   12a1c:	546a                	lw	s0,184(sp)
   12a1e:	54da                	lw	s1,180(sp)
   12a20:	594a                	lw	s2,176(sp)
   12a22:	59ba                	lw	s3,172(sp)
   12a24:	5a2a                	lw	s4,168(sp)
   12a26:	5a9a                	lw	s5,164(sp)
   12a28:	6129                	addi	sp,sp,192
   12a2a:	8082                	ret
   12a2c:	00214703          	lbu	a4,2(sp)
   12a30:	00c71463          	bne	a4,a2,12a38 <_ZN20complex_dynamic_type3app17h33fdf4206c26978bE+0x10e>
   12a34:	470d                	li	a4,3
   12a36:	a825                	j	12a6e <_ZN20complex_dynamic_type3app17h33fdf4206c26978bE+0x144>
   12a38:	6509                	lui	a0,0x2
   12a3a:	0ee50513          	addi	a0,a0,238 # 20ee <.Lline_table_start1+0x1ec3>
   12a3e:	4591                	li	a1,4
   12a40:	4601                	li	a2,0
   12a42:	4681                	li	a3,0
   12a44:	00000073          	ecall
   12a48:	05414703          	lbu	a4,84(sp)
   12a4c:	4509                	li	a0,2
   12a4e:	00a10123          	sb	a0,2(sp)
   12a52:	00a71e63          	bne	a4,a0,12a6e <_ZN20complex_dynamic_type3app17h33fdf4206c26978bE+0x144>
   12a56:	001a8513          	addi	a0,s5,1
   12a5a:	04f00613          	li	a2,79
   12a5e:	85d2                	mv	a1,s4
   12a60:	0000c097          	auipc	ra,0xc
   12a64:	ab4080e7          	jalr	-1356(ra) # 1e514 <memcpy>
   12a68:	000a8023          	sb	zero,0(s5)
   12a6c:	b77d                	j	12a1a <_ZN20complex_dynamic_type3app17h33fdf4206c26978bE+0xf0>
   12a6e:	6509                	lui	a0,0x2
   12a70:	0ee50913          	addi	s2,a0,238 # 20ee <.Lline_table_start1+0x1ec3>
   12a74:	45a5                	li	a1,9
   12a76:	854a                	mv	a0,s2
   12a78:	4601                	li	a2,0
   12a7a:	4681                	li	a3,0
   12a7c:	00000073          	ecall
   12a80:	00214983          	lbu	s3,2(sp)
   12a84:	001a8513          	addi	a0,s5,1
   12a88:	04f00613          	li	a2,79
   12a8c:	85d2                	mv	a1,s4
   12a8e:	0000c097          	auipc	ra,0xc
   12a92:	a86080e7          	jalr	-1402(ra) # 1e514 <memcpy>
   12a96:	4509                	li	a0,2
   12a98:	000a8023          	sb	zero,0(s5)
   12a9c:	f6a98fe3          	beq	s3,a0,12a1a <_ZN20complex_dynamic_type3app17h33fdf4206c26978bE+0xf0>
   12aa0:	4591                	li	a1,4
   12aa2:	854a                	mv	a0,s2
   12aa4:	4601                	li	a2,0
   12aa6:	4681                	li	a3,0
   12aa8:	874e                	mv	a4,s3
   12aaa:	00000073          	ecall
   12aae:	b7b5                	j	12a1a <_ZN20complex_dynamic_type3app17h33fdf4206c26978bE+0xf0>

00012ab0 <_ZN20complex_dynamic_type3app17h372f6cc28e26e993E>:
   12ab0:	7135                	addi	sp,sp,-160
   12ab2:	cf06                	sw	ra,156(sp)
   12ab4:	cd22                	sw	s0,152(sp)
   12ab6:	cb26                	sw	s1,148(sp)
   12ab8:	c94a                	sw	s2,144(sp)
   12aba:	c74e                	sw	s3,140(sp)
   12abc:	c552                	sw	s4,136(sp)
   12abe:	c356                	sw	s5,132(sp)
   12ac0:	8aaa                	mv	s5,a0
   12ac2:	4409                	li	s0,2
   12ac4:	00810223          	sb	s0,4(sp)
   12ac8:	00510493          	addi	s1,sp,5
   12acc:	466d                	li	a2,27
   12ace:	8526                	mv	a0,s1
   12ad0:	0000c097          	auipc	ra,0xc
   12ad4:	a44080e7          	jalr	-1468(ra) # 1e514 <memcpy>
   12ad8:	02110a13          	addi	s4,sp,33
   12adc:	06300613          	li	a2,99
   12ae0:	8552                	mv	a0,s4
   12ae2:	4581                	li	a1,0
   12ae4:	0000c097          	auipc	ra,0xc
   12ae8:	9c4080e7          	jalr	-1596(ra) # 1e4a8 <memset>
   12aec:	8626                	mv	a2,s1
   12aee:	02810023          	sb	s0,32(sp)
   12af2:	6509                	lui	a0,0x2
   12af4:	4491                	li	s1,4
   12af6:	458d                	li	a1,3
   12af8:	54850793          	addi	a5,a0,1352 # 2548 <.Lline_table_start1+0x231d>
   12afc:	46ed                	li	a3,27
   12afe:	4711                	li	a4,4
   12b00:	853e                	mv	a0,a5
   12b02:	00000073          	ecall
   12b06:	00851863          	bne	a0,s0,12b16 <_ZN20complex_dynamic_type3app17h372f6cc28e26e993E+0x66>
   12b0a:	4505                	li	a0,1
   12b0c:	00aa8023          	sb	a0,0(s5)
   12b10:	00baa223          	sw	a1,4(s5)
   12b14:	a0bd                	j	12b82 <_ZN20complex_dynamic_type3app17h372f6cc28e26e993E+0xd2>
   12b16:	853e                	mv	a0,a5
   12b18:	8652                	mv	a2,s4
   12b1a:	00910223          	sb	s1,4(sp)
   12b1e:	478d                	li	a5,3
   12b20:	458d                	li	a1,3
   12b22:	06300693          	li	a3,99
   12b26:	470d                	li	a4,3
   12b28:	00000073          	ecall
   12b2c:	00851d63          	bne	a0,s0,12b46 <_ZN20complex_dynamic_type3app17h372f6cc28e26e993E+0x96>
   12b30:	02014703          	lbu	a4,32(sp)
   12b34:	4505                	li	a0,1
   12b36:	4609                	li	a2,2
   12b38:	00aa8023          	sb	a0,0(s5)
   12b3c:	00baa223          	sw	a1,4(s5)
   12b40:	02c71963          	bne	a4,a2,12b72 <_ZN20complex_dynamic_type3app17h372f6cc28e26e993E+0xc2>
   12b44:	a83d                	j	12b82 <_ZN20complex_dynamic_type3app17h372f6cc28e26e993E+0xd2>
   12b46:	4681                	li	a3,0
   12b48:	02f10023          	sb	a5,32(sp)
   12b4c:	6509                	lui	a0,0x2
   12b4e:	458d                	li	a1,3
   12b50:	460d                	li	a2,3
   12b52:	4709                	li	a4,2
   12b54:	54850513          	addi	a0,a0,1352 # 2548 <.Lline_table_start1+0x231d>
   12b58:	08000793          	li	a5,128
   12b5c:	00000073          	ecall
   12b60:	4609                	li	a2,2
   12b62:	04f57663          	bgeu	a0,a5,12bae <_ZN20complex_dynamic_type3app17h372f6cc28e26e993E+0xfe>
   12b66:	4505                	li	a0,1
   12b68:	00aa8023          	sb	a0,0(s5)
   12b6c:	00baa223          	sw	a1,4(s5)
   12b70:	470d                	li	a4,3
   12b72:	6509                	lui	a0,0x2
   12b74:	54850513          	addi	a0,a0,1352 # 2548 <.Lline_table_start1+0x231d>
   12b78:	458d                	li	a1,3
   12b7a:	4601                	li	a2,0
   12b7c:	4681                	li	a3,0
   12b7e:	00000073          	ecall
   12b82:	00414703          	lbu	a4,4(sp)
   12b86:	4509                	li	a0,2
   12b88:	00a70a63          	beq	a4,a0,12b9c <_ZN20complex_dynamic_type3app17h372f6cc28e26e993E+0xec>
   12b8c:	6509                	lui	a0,0x2
   12b8e:	54850513          	addi	a0,a0,1352 # 2548 <.Lline_table_start1+0x231d>
   12b92:	458d                	li	a1,3
   12b94:	4601                	li	a2,0
   12b96:	4681                	li	a3,0
   12b98:	00000073          	ecall
   12b9c:	40fa                	lw	ra,156(sp)
   12b9e:	446a                	lw	s0,152(sp)
   12ba0:	44da                	lw	s1,148(sp)
   12ba2:	494a                	lw	s2,144(sp)
   12ba4:	49ba                	lw	s3,140(sp)
   12ba6:	4a2a                	lw	s4,136(sp)
   12ba8:	4a9a                	lw	s5,132(sp)
   12baa:	610d                	addi	sp,sp,160
   12bac:	8082                	ret
   12bae:	00414703          	lbu	a4,4(sp)
   12bb2:	00c71463          	bne	a4,a2,12bba <_ZN20complex_dynamic_type3app17h372f6cc28e26e993E+0x10a>
   12bb6:	470d                	li	a4,3
   12bb8:	a825                	j	12bf0 <_ZN20complex_dynamic_type3app17h372f6cc28e26e993E+0x140>
   12bba:	6509                	lui	a0,0x2
   12bbc:	54850513          	addi	a0,a0,1352 # 2548 <.Lline_table_start1+0x231d>
   12bc0:	458d                	li	a1,3
   12bc2:	4601                	li	a2,0
   12bc4:	4681                	li	a3,0
   12bc6:	00000073          	ecall
   12bca:	02014703          	lbu	a4,32(sp)
   12bce:	4509                	li	a0,2
   12bd0:	00a10223          	sb	a0,4(sp)
   12bd4:	00a71e63          	bne	a4,a0,12bf0 <_ZN20complex_dynamic_type3app17h372f6cc28e26e993E+0x140>
   12bd8:	001a8513          	addi	a0,s5,1
   12bdc:	06300613          	li	a2,99
   12be0:	85d2                	mv	a1,s4
   12be2:	0000c097          	auipc	ra,0xc
   12be6:	932080e7          	jalr	-1742(ra) # 1e514 <memcpy>
   12bea:	000a8023          	sb	zero,0(s5)
   12bee:	b77d                	j	12b9c <_ZN20complex_dynamic_type3app17h372f6cc28e26e993E+0xec>
   12bf0:	6509                	lui	a0,0x2
   12bf2:	54850913          	addi	s2,a0,1352 # 2548 <.Lline_table_start1+0x231d>
   12bf6:	458d                	li	a1,3
   12bf8:	854a                	mv	a0,s2
   12bfa:	4601                	li	a2,0
   12bfc:	4681                	li	a3,0
   12bfe:	00000073          	ecall
   12c02:	00414983          	lbu	s3,4(sp)
   12c06:	001a8513          	addi	a0,s5,1
   12c0a:	06300613          	li	a2,99
   12c0e:	85d2                	mv	a1,s4
   12c10:	0000c097          	auipc	ra,0xc
   12c14:	904080e7          	jalr	-1788(ra) # 1e514 <memcpy>
   12c18:	4509                	li	a0,2
   12c1a:	000a8023          	sb	zero,0(s5)
   12c1e:	f6a98fe3          	beq	s3,a0,12b9c <_ZN20complex_dynamic_type3app17h372f6cc28e26e993E+0xec>
   12c22:	458d                	li	a1,3
   12c24:	854a                	mv	a0,s2
   12c26:	4601                	li	a2,0
   12c28:	4681                	li	a3,0
   12c2a:	874e                	mv	a4,s3
   12c2c:	00000073          	ecall
   12c30:	b7b5                	j	12b9c <_ZN20complex_dynamic_type3app17h372f6cc28e26e993E+0xec>

00012c32 <_ZN20complex_dynamic_type3app17h376365b52fd036a2E>:
   12c32:	7119                	addi	sp,sp,-128
   12c34:	de86                	sw	ra,124(sp)
   12c36:	dca2                	sw	s0,120(sp)
   12c38:	daa6                	sw	s1,116(sp)
   12c3a:	d8ca                	sw	s2,112(sp)
   12c3c:	d6ce                	sw	s3,108(sp)
   12c3e:	d4d2                	sw	s4,104(sp)
   12c40:	d2d6                	sw	s5,100(sp)
   12c42:	8aaa                	mv	s5,a0
   12c44:	4409                	li	s0,2
   12c46:	00810623          	sb	s0,12(sp)
   12c4a:	00d10493          	addi	s1,sp,13
   12c4e:	4649                	li	a2,18
   12c50:	8526                	mv	a0,s1
   12c52:	0000c097          	auipc	ra,0xc
   12c56:	8c2080e7          	jalr	-1854(ra) # 1e514 <memcpy>
   12c5a:	02010a13          	addi	s4,sp,32
   12c5e:	04400613          	li	a2,68
   12c62:	8552                	mv	a0,s4
   12c64:	4581                	li	a1,0
   12c66:	0000c097          	auipc	ra,0xc
   12c6a:	842080e7          	jalr	-1982(ra) # 1e4a8 <memset>
   12c6e:	8626                	mv	a2,s1
   12c70:	00810fa3          	sb	s0,31(sp)
   12c74:	6509                	lui	a0,0x2
   12c76:	4491                	li	s1,4
   12c78:	4589                	li	a1,2
   12c7a:	43250793          	addi	a5,a0,1074 # 2432 <.Lline_table_start1+0x2207>
   12c7e:	46c9                	li	a3,18
   12c80:	4711                	li	a4,4
   12c82:	853e                	mv	a0,a5
   12c84:	00000073          	ecall
   12c88:	00851863          	bne	a0,s0,12c98 <_ZN20complex_dynamic_type3app17h376365b52fd036a2E+0x66>
   12c8c:	4505                	li	a0,1
   12c8e:	00aa8023          	sb	a0,0(s5)
   12c92:	00baa223          	sw	a1,4(s5)
   12c96:	a0bd                	j	12d04 <_ZN20complex_dynamic_type3app17h376365b52fd036a2E+0xd2>
   12c98:	853e                	mv	a0,a5
   12c9a:	8652                	mv	a2,s4
   12c9c:	00910623          	sb	s1,12(sp)
   12ca0:	478d                	li	a5,3
   12ca2:	45a5                	li	a1,9
   12ca4:	04400693          	li	a3,68
   12ca8:	470d                	li	a4,3
   12caa:	00000073          	ecall
   12cae:	00851d63          	bne	a0,s0,12cc8 <_ZN20complex_dynamic_type3app17h376365b52fd036a2E+0x96>
   12cb2:	01f14703          	lbu	a4,31(sp)
   12cb6:	4505                	li	a0,1
   12cb8:	4609                	li	a2,2
   12cba:	00aa8023          	sb	a0,0(s5)
   12cbe:	00baa223          	sw	a1,4(s5)
   12cc2:	02c71963          	bne	a4,a2,12cf4 <_ZN20complex_dynamic_type3app17h376365b52fd036a2E+0xc2>
   12cc6:	a83d                	j	12d04 <_ZN20complex_dynamic_type3app17h376365b52fd036a2E+0xd2>
   12cc8:	4681                	li	a3,0
   12cca:	00f10fa3          	sb	a5,31(sp)
   12cce:	6509                	lui	a0,0x2
   12cd0:	4589                	li	a1,2
   12cd2:	4625                	li	a2,9
   12cd4:	4709                	li	a4,2
   12cd6:	43250513          	addi	a0,a0,1074 # 2432 <.Lline_table_start1+0x2207>
   12cda:	08000793          	li	a5,128
   12cde:	00000073          	ecall
   12ce2:	4609                	li	a2,2
   12ce4:	04f57663          	bgeu	a0,a5,12d30 <_ZN20complex_dynamic_type3app17h376365b52fd036a2E+0xfe>
   12ce8:	4505                	li	a0,1
   12cea:	00aa8023          	sb	a0,0(s5)
   12cee:	00baa223          	sw	a1,4(s5)
   12cf2:	470d                	li	a4,3
   12cf4:	6509                	lui	a0,0x2
   12cf6:	43250513          	addi	a0,a0,1074 # 2432 <.Lline_table_start1+0x2207>
   12cfa:	45a5                	li	a1,9
   12cfc:	4601                	li	a2,0
   12cfe:	4681                	li	a3,0
   12d00:	00000073          	ecall
   12d04:	00c14703          	lbu	a4,12(sp)
   12d08:	4509                	li	a0,2
   12d0a:	00a70a63          	beq	a4,a0,12d1e <_ZN20complex_dynamic_type3app17h376365b52fd036a2E+0xec>
   12d0e:	6509                	lui	a0,0x2
   12d10:	43250513          	addi	a0,a0,1074 # 2432 <.Lline_table_start1+0x2207>
   12d14:	4589                	li	a1,2
   12d16:	4601                	li	a2,0
   12d18:	4681                	li	a3,0
   12d1a:	00000073          	ecall
   12d1e:	50f6                	lw	ra,124(sp)
   12d20:	5466                	lw	s0,120(sp)
   12d22:	54d6                	lw	s1,116(sp)
   12d24:	5946                	lw	s2,112(sp)
   12d26:	59b6                	lw	s3,108(sp)
   12d28:	5a26                	lw	s4,104(sp)
   12d2a:	5a96                	lw	s5,100(sp)
   12d2c:	6109                	addi	sp,sp,128
   12d2e:	8082                	ret
   12d30:	00c14703          	lbu	a4,12(sp)
   12d34:	00c71463          	bne	a4,a2,12d3c <_ZN20complex_dynamic_type3app17h376365b52fd036a2E+0x10a>
   12d38:	470d                	li	a4,3
   12d3a:	a825                	j	12d72 <_ZN20complex_dynamic_type3app17h376365b52fd036a2E+0x140>
   12d3c:	6509                	lui	a0,0x2
   12d3e:	43250513          	addi	a0,a0,1074 # 2432 <.Lline_table_start1+0x2207>
   12d42:	4589                	li	a1,2
   12d44:	4601                	li	a2,0
   12d46:	4681                	li	a3,0
   12d48:	00000073          	ecall
   12d4c:	01f14703          	lbu	a4,31(sp)
   12d50:	4509                	li	a0,2
   12d52:	00a10623          	sb	a0,12(sp)
   12d56:	00a71e63          	bne	a4,a0,12d72 <_ZN20complex_dynamic_type3app17h376365b52fd036a2E+0x140>
   12d5a:	001a8513          	addi	a0,s5,1
   12d5e:	04400613          	li	a2,68
   12d62:	85d2                	mv	a1,s4
   12d64:	0000b097          	auipc	ra,0xb
   12d68:	7b0080e7          	jalr	1968(ra) # 1e514 <memcpy>
   12d6c:	000a8023          	sb	zero,0(s5)
   12d70:	b77d                	j	12d1e <_ZN20complex_dynamic_type3app17h376365b52fd036a2E+0xec>
   12d72:	6509                	lui	a0,0x2
   12d74:	43250913          	addi	s2,a0,1074 # 2432 <.Lline_table_start1+0x2207>
   12d78:	45a5                	li	a1,9
   12d7a:	854a                	mv	a0,s2
   12d7c:	4601                	li	a2,0
   12d7e:	4681                	li	a3,0
   12d80:	00000073          	ecall
   12d84:	00c14983          	lbu	s3,12(sp)
   12d88:	001a8513          	addi	a0,s5,1
   12d8c:	04400613          	li	a2,68
   12d90:	85d2                	mv	a1,s4
   12d92:	0000b097          	auipc	ra,0xb
   12d96:	782080e7          	jalr	1922(ra) # 1e514 <memcpy>
   12d9a:	4509                	li	a0,2
   12d9c:	000a8023          	sb	zero,0(s5)
   12da0:	f6a98fe3          	beq	s3,a0,12d1e <_ZN20complex_dynamic_type3app17h376365b52fd036a2E+0xec>
   12da4:	4589                	li	a1,2
   12da6:	854a                	mv	a0,s2
   12da8:	4601                	li	a2,0
   12daa:	4681                	li	a3,0
   12dac:	874e                	mv	a4,s3
   12dae:	00000073          	ecall
   12db2:	b7b5                	j	12d1e <_ZN20complex_dynamic_type3app17h376365b52fd036a2E+0xec>

00012db4 <_ZN20complex_dynamic_type3app17h392d1f033231add8E>:
   12db4:	7135                	addi	sp,sp,-160
   12db6:	cf06                	sw	ra,156(sp)
   12db8:	cd22                	sw	s0,152(sp)
   12dba:	cb26                	sw	s1,148(sp)
   12dbc:	c94a                	sw	s2,144(sp)
   12dbe:	c74e                	sw	s3,140(sp)
   12dc0:	c552                	sw	s4,136(sp)
   12dc2:	c356                	sw	s5,132(sp)
   12dc4:	8aaa                	mv	s5,a0
   12dc6:	4409                	li	s0,2
   12dc8:	00810623          	sb	s0,12(sp)
   12dcc:	00d10493          	addi	s1,sp,13
   12dd0:	02700613          	li	a2,39
   12dd4:	8526                	mv	a0,s1
   12dd6:	0000b097          	auipc	ra,0xb
   12dda:	73e080e7          	jalr	1854(ra) # 1e514 <memcpy>
   12dde:	03510a13          	addi	s4,sp,53
   12de2:	04f00613          	li	a2,79
   12de6:	8552                	mv	a0,s4
   12de8:	4581                	li	a1,0
   12dea:	0000b097          	auipc	ra,0xb
   12dee:	6be080e7          	jalr	1726(ra) # 1e4a8 <memset>
   12df2:	8626                	mv	a2,s1
   12df4:	02810a23          	sb	s0,52(sp)
   12df8:	6505                	lui	a0,0x1
   12dfa:	4491                	li	s1,4
   12dfc:	45a5                	li	a1,9
   12dfe:	b4c50793          	addi	a5,a0,-1204 # b4c <.Lline_table_start1+0x921>
   12e02:	02700693          	li	a3,39
   12e06:	4711                	li	a4,4
   12e08:	853e                	mv	a0,a5
   12e0a:	00000073          	ecall
   12e0e:	00851863          	bne	a0,s0,12e1e <_ZN20complex_dynamic_type3app17h392d1f033231add8E+0x6a>
   12e12:	4505                	li	a0,1
   12e14:	00aa8023          	sb	a0,0(s5)
   12e18:	00baa223          	sw	a1,4(s5)
   12e1c:	a0bd                	j	12e8a <_ZN20complex_dynamic_type3app17h392d1f033231add8E+0xd6>
   12e1e:	853e                	mv	a0,a5
   12e20:	4581                	li	a1,0
   12e22:	8652                	mv	a2,s4
   12e24:	00910623          	sb	s1,12(sp)
   12e28:	478d                	li	a5,3
   12e2a:	04f00693          	li	a3,79
   12e2e:	470d                	li	a4,3
   12e30:	00000073          	ecall
   12e34:	00851d63          	bne	a0,s0,12e4e <_ZN20complex_dynamic_type3app17h392d1f033231add8E+0x9a>
   12e38:	03414703          	lbu	a4,52(sp)
   12e3c:	4505                	li	a0,1
   12e3e:	4609                	li	a2,2
   12e40:	00aa8023          	sb	a0,0(s5)
   12e44:	00baa223          	sw	a1,4(s5)
   12e48:	02c71963          	bne	a4,a2,12e7a <_ZN20complex_dynamic_type3app17h392d1f033231add8E+0xc6>
   12e4c:	a83d                	j	12e8a <_ZN20complex_dynamic_type3app17h392d1f033231add8E+0xd6>
   12e4e:	4601                	li	a2,0
   12e50:	4681                	li	a3,0
   12e52:	02f10a23          	sb	a5,52(sp)
   12e56:	6505                	lui	a0,0x1
   12e58:	45a5                	li	a1,9
   12e5a:	4709                	li	a4,2
   12e5c:	b4c50513          	addi	a0,a0,-1204 # b4c <.Lline_table_start1+0x921>
   12e60:	08000793          	li	a5,128
   12e64:	00000073          	ecall
   12e68:	4609                	li	a2,2
   12e6a:	04f57663          	bgeu	a0,a5,12eb6 <_ZN20complex_dynamic_type3app17h392d1f033231add8E+0x102>
   12e6e:	4505                	li	a0,1
   12e70:	00aa8023          	sb	a0,0(s5)
   12e74:	00baa223          	sw	a1,4(s5)
   12e78:	470d                	li	a4,3
   12e7a:	6505                	lui	a0,0x1
   12e7c:	b4c50513          	addi	a0,a0,-1204 # b4c <.Lline_table_start1+0x921>
   12e80:	4581                	li	a1,0
   12e82:	4601                	li	a2,0
   12e84:	4681                	li	a3,0
   12e86:	00000073          	ecall
   12e8a:	00c14703          	lbu	a4,12(sp)
   12e8e:	4509                	li	a0,2
   12e90:	00a70a63          	beq	a4,a0,12ea4 <_ZN20complex_dynamic_type3app17h392d1f033231add8E+0xf0>
   12e94:	6505                	lui	a0,0x1
   12e96:	b4c50513          	addi	a0,a0,-1204 # b4c <.Lline_table_start1+0x921>
   12e9a:	45a5                	li	a1,9
   12e9c:	4601                	li	a2,0
   12e9e:	4681                	li	a3,0
   12ea0:	00000073          	ecall
   12ea4:	40fa                	lw	ra,156(sp)
   12ea6:	446a                	lw	s0,152(sp)
   12ea8:	44da                	lw	s1,148(sp)
   12eaa:	494a                	lw	s2,144(sp)
   12eac:	49ba                	lw	s3,140(sp)
   12eae:	4a2a                	lw	s4,136(sp)
   12eb0:	4a9a                	lw	s5,132(sp)
   12eb2:	610d                	addi	sp,sp,160
   12eb4:	8082                	ret
   12eb6:	00c14703          	lbu	a4,12(sp)
   12eba:	00c71463          	bne	a4,a2,12ec2 <_ZN20complex_dynamic_type3app17h392d1f033231add8E+0x10e>
   12ebe:	470d                	li	a4,3
   12ec0:	a825                	j	12ef8 <_ZN20complex_dynamic_type3app17h392d1f033231add8E+0x144>
   12ec2:	6505                	lui	a0,0x1
   12ec4:	b4c50513          	addi	a0,a0,-1204 # b4c <.Lline_table_start1+0x921>
   12ec8:	45a5                	li	a1,9
   12eca:	4601                	li	a2,0
   12ecc:	4681                	li	a3,0
   12ece:	00000073          	ecall
   12ed2:	03414703          	lbu	a4,52(sp)
   12ed6:	4509                	li	a0,2
   12ed8:	00a10623          	sb	a0,12(sp)
   12edc:	00a71e63          	bne	a4,a0,12ef8 <_ZN20complex_dynamic_type3app17h392d1f033231add8E+0x144>
   12ee0:	001a8513          	addi	a0,s5,1
   12ee4:	04f00613          	li	a2,79
   12ee8:	85d2                	mv	a1,s4
   12eea:	0000b097          	auipc	ra,0xb
   12eee:	62a080e7          	jalr	1578(ra) # 1e514 <memcpy>
   12ef2:	000a8023          	sb	zero,0(s5)
   12ef6:	b77d                	j	12ea4 <_ZN20complex_dynamic_type3app17h392d1f033231add8E+0xf0>
   12ef8:	6505                	lui	a0,0x1
   12efa:	b4c50913          	addi	s2,a0,-1204 # b4c <.Lline_table_start1+0x921>
   12efe:	854a                	mv	a0,s2
   12f00:	4581                	li	a1,0
   12f02:	4601                	li	a2,0
   12f04:	4681                	li	a3,0
   12f06:	00000073          	ecall
   12f0a:	00c14983          	lbu	s3,12(sp)
   12f0e:	001a8513          	addi	a0,s5,1
   12f12:	04f00613          	li	a2,79
   12f16:	85d2                	mv	a1,s4
   12f18:	0000b097          	auipc	ra,0xb
   12f1c:	5fc080e7          	jalr	1532(ra) # 1e514 <memcpy>
   12f20:	4509                	li	a0,2
   12f22:	000a8023          	sb	zero,0(s5)
   12f26:	f6a98fe3          	beq	s3,a0,12ea4 <_ZN20complex_dynamic_type3app17h392d1f033231add8E+0xf0>
   12f2a:	45a5                	li	a1,9
   12f2c:	854a                	mv	a0,s2
   12f2e:	4601                	li	a2,0
   12f30:	4681                	li	a3,0
   12f32:	874e                	mv	a4,s3
   12f34:	00000073          	ecall
   12f38:	b7b5                	j	12ea4 <_ZN20complex_dynamic_type3app17h392d1f033231add8E+0xf0>

00012f3a <_ZN20complex_dynamic_type3app17h3c03804a4701e8fbE>:
   12f3a:	7119                	addi	sp,sp,-128
   12f3c:	de86                	sw	ra,124(sp)
   12f3e:	dca2                	sw	s0,120(sp)
   12f40:	daa6                	sw	s1,116(sp)
   12f42:	d8ca                	sw	s2,112(sp)
   12f44:	d6ce                	sw	s3,108(sp)
   12f46:	d4d2                	sw	s4,104(sp)
   12f48:	d2d6                	sw	s5,100(sp)
   12f4a:	8aaa                	mv	s5,a0
   12f4c:	4409                	li	s0,2
   12f4e:	00810623          	sb	s0,12(sp)
   12f52:	00d10493          	addi	s1,sp,13
   12f56:	02c00613          	li	a2,44
   12f5a:	8526                	mv	a0,s1
   12f5c:	0000b097          	auipc	ra,0xb
   12f60:	5b8080e7          	jalr	1464(ra) # 1e514 <memcpy>
   12f64:	03a10a13          	addi	s4,sp,58
   12f68:	02a00613          	li	a2,42
   12f6c:	8552                	mv	a0,s4
   12f6e:	4581                	li	a1,0
   12f70:	0000b097          	auipc	ra,0xb
   12f74:	538080e7          	jalr	1336(ra) # 1e4a8 <memset>
   12f78:	8626                	mv	a2,s1
   12f7a:	02810ca3          	sb	s0,57(sp)
   12f7e:	6509                	lui	a0,0x2
   12f80:	4491                	li	s1,4
   12f82:	458d                	li	a1,3
   12f84:	4f050793          	addi	a5,a0,1264 # 24f0 <.Lline_table_start1+0x22c5>
   12f88:	02c00693          	li	a3,44
   12f8c:	4711                	li	a4,4
   12f8e:	853e                	mv	a0,a5
   12f90:	00000073          	ecall
   12f94:	00851863          	bne	a0,s0,12fa4 <_ZN20complex_dynamic_type3app17h3c03804a4701e8fbE+0x6a>
   12f98:	4505                	li	a0,1
   12f9a:	00aa8023          	sb	a0,0(s5)
   12f9e:	00baa223          	sw	a1,4(s5)
   12fa2:	a0bd                	j	13010 <_ZN20complex_dynamic_type3app17h3c03804a4701e8fbE+0xd6>
   12fa4:	853e                	mv	a0,a5
   12fa6:	4581                	li	a1,0
   12fa8:	8652                	mv	a2,s4
   12faa:	00910623          	sb	s1,12(sp)
   12fae:	478d                	li	a5,3
   12fb0:	02a00693          	li	a3,42
   12fb4:	470d                	li	a4,3
   12fb6:	00000073          	ecall
   12fba:	00851d63          	bne	a0,s0,12fd4 <_ZN20complex_dynamic_type3app17h3c03804a4701e8fbE+0x9a>
   12fbe:	03914703          	lbu	a4,57(sp)
   12fc2:	4505                	li	a0,1
   12fc4:	4609                	li	a2,2
   12fc6:	00aa8023          	sb	a0,0(s5)
   12fca:	00baa223          	sw	a1,4(s5)
   12fce:	02c71963          	bne	a4,a2,13000 <_ZN20complex_dynamic_type3app17h3c03804a4701e8fbE+0xc6>
   12fd2:	a83d                	j	13010 <_ZN20complex_dynamic_type3app17h3c03804a4701e8fbE+0xd6>
   12fd4:	4601                	li	a2,0
   12fd6:	4681                	li	a3,0
   12fd8:	02f10ca3          	sb	a5,57(sp)
   12fdc:	6509                	lui	a0,0x2
   12fde:	458d                	li	a1,3
   12fe0:	4709                	li	a4,2
   12fe2:	4f050513          	addi	a0,a0,1264 # 24f0 <.Lline_table_start1+0x22c5>
   12fe6:	08000793          	li	a5,128
   12fea:	00000073          	ecall
   12fee:	4609                	li	a2,2
   12ff0:	04f57663          	bgeu	a0,a5,1303c <_ZN20complex_dynamic_type3app17h3c03804a4701e8fbE+0x102>
   12ff4:	4505                	li	a0,1
   12ff6:	00aa8023          	sb	a0,0(s5)
   12ffa:	00baa223          	sw	a1,4(s5)
   12ffe:	470d                	li	a4,3
   13000:	6509                	lui	a0,0x2
   13002:	4f050513          	addi	a0,a0,1264 # 24f0 <.Lline_table_start1+0x22c5>
   13006:	4581                	li	a1,0
   13008:	4601                	li	a2,0
   1300a:	4681                	li	a3,0
   1300c:	00000073          	ecall
   13010:	00c14703          	lbu	a4,12(sp)
   13014:	4509                	li	a0,2
   13016:	00a70a63          	beq	a4,a0,1302a <_ZN20complex_dynamic_type3app17h3c03804a4701e8fbE+0xf0>
   1301a:	6509                	lui	a0,0x2
   1301c:	4f050513          	addi	a0,a0,1264 # 24f0 <.Lline_table_start1+0x22c5>
   13020:	458d                	li	a1,3
   13022:	4601                	li	a2,0
   13024:	4681                	li	a3,0
   13026:	00000073          	ecall
   1302a:	50f6                	lw	ra,124(sp)
   1302c:	5466                	lw	s0,120(sp)
   1302e:	54d6                	lw	s1,116(sp)
   13030:	5946                	lw	s2,112(sp)
   13032:	59b6                	lw	s3,108(sp)
   13034:	5a26                	lw	s4,104(sp)
   13036:	5a96                	lw	s5,100(sp)
   13038:	6109                	addi	sp,sp,128
   1303a:	8082                	ret
   1303c:	00c14703          	lbu	a4,12(sp)
   13040:	00c71463          	bne	a4,a2,13048 <_ZN20complex_dynamic_type3app17h3c03804a4701e8fbE+0x10e>
   13044:	470d                	li	a4,3
   13046:	a825                	j	1307e <_ZN20complex_dynamic_type3app17h3c03804a4701e8fbE+0x144>
   13048:	6509                	lui	a0,0x2
   1304a:	4f050513          	addi	a0,a0,1264 # 24f0 <.Lline_table_start1+0x22c5>
   1304e:	458d                	li	a1,3
   13050:	4601                	li	a2,0
   13052:	4681                	li	a3,0
   13054:	00000073          	ecall
   13058:	03914703          	lbu	a4,57(sp)
   1305c:	4509                	li	a0,2
   1305e:	00a10623          	sb	a0,12(sp)
   13062:	00a71e63          	bne	a4,a0,1307e <_ZN20complex_dynamic_type3app17h3c03804a4701e8fbE+0x144>
   13066:	001a8513          	addi	a0,s5,1
   1306a:	02a00613          	li	a2,42
   1306e:	85d2                	mv	a1,s4
   13070:	0000b097          	auipc	ra,0xb
   13074:	4a4080e7          	jalr	1188(ra) # 1e514 <memcpy>
   13078:	000a8023          	sb	zero,0(s5)
   1307c:	b77d                	j	1302a <_ZN20complex_dynamic_type3app17h3c03804a4701e8fbE+0xf0>
   1307e:	6509                	lui	a0,0x2
   13080:	4f050913          	addi	s2,a0,1264 # 24f0 <.Lline_table_start1+0x22c5>
   13084:	854a                	mv	a0,s2
   13086:	4581                	li	a1,0
   13088:	4601                	li	a2,0
   1308a:	4681                	li	a3,0
   1308c:	00000073          	ecall
   13090:	00c14983          	lbu	s3,12(sp)
   13094:	001a8513          	addi	a0,s5,1
   13098:	02a00613          	li	a2,42
   1309c:	85d2                	mv	a1,s4
   1309e:	0000b097          	auipc	ra,0xb
   130a2:	476080e7          	jalr	1142(ra) # 1e514 <memcpy>
   130a6:	4509                	li	a0,2
   130a8:	000a8023          	sb	zero,0(s5)
   130ac:	f6a98fe3          	beq	s3,a0,1302a <_ZN20complex_dynamic_type3app17h3c03804a4701e8fbE+0xf0>
   130b0:	458d                	li	a1,3
   130b2:	854a                	mv	a0,s2
   130b4:	4601                	li	a2,0
   130b6:	4681                	li	a3,0
   130b8:	874e                	mv	a4,s3
   130ba:	00000073          	ecall
   130be:	b7b5                	j	1302a <_ZN20complex_dynamic_type3app17h3c03804a4701e8fbE+0xf0>

000130c0 <_ZN20complex_dynamic_type3app17h4191345094bbb553E>:
   130c0:	7159                	addi	sp,sp,-112
   130c2:	d686                	sw	ra,108(sp)
   130c4:	d4a2                	sw	s0,104(sp)
   130c6:	d2a6                	sw	s1,100(sp)
   130c8:	d0ca                	sw	s2,96(sp)
   130ca:	cece                	sw	s3,92(sp)
   130cc:	ccd2                	sw	s4,88(sp)
   130ce:	cad6                	sw	s5,84(sp)
   130d0:	8aaa                	mv	s5,a0
   130d2:	4409                	li	s0,2
   130d4:	00810123          	sb	s0,2(sp)
   130d8:	00310493          	addi	s1,sp,3
   130dc:	4645                	li	a2,17
   130de:	8526                	mv	a0,s1
   130e0:	0000b097          	auipc	ra,0xb
   130e4:	434080e7          	jalr	1076(ra) # 1e514 <memcpy>
   130e8:	01510a13          	addi	s4,sp,21
   130ec:	03f00613          	li	a2,63
   130f0:	8552                	mv	a0,s4
   130f2:	4581                	li	a1,0
   130f4:	0000b097          	auipc	ra,0xb
   130f8:	3b4080e7          	jalr	948(ra) # 1e4a8 <memset>
   130fc:	8626                	mv	a2,s1
   130fe:	00810a23          	sb	s0,20(sp)
   13102:	6505                	lui	a0,0x1
   13104:	4491                	li	s1,4
   13106:	459d                	li	a1,7
   13108:	cb050793          	addi	a5,a0,-848 # cb0 <.Lline_table_start1+0xa85>
   1310c:	46c5                	li	a3,17
   1310e:	4711                	li	a4,4
   13110:	853e                	mv	a0,a5
   13112:	00000073          	ecall
   13116:	00851863          	bne	a0,s0,13126 <_ZN20complex_dynamic_type3app17h4191345094bbb553E+0x66>
   1311a:	4505                	li	a0,1
   1311c:	00aa8023          	sb	a0,0(s5)
   13120:	00baa223          	sw	a1,4(s5)
   13124:	a0bd                	j	13192 <_ZN20complex_dynamic_type3app17h4191345094bbb553E+0xd2>
   13126:	853e                	mv	a0,a5
   13128:	8652                	mv	a2,s4
   1312a:	00910123          	sb	s1,2(sp)
   1312e:	478d                	li	a5,3
   13130:	4591                	li	a1,4
   13132:	03f00693          	li	a3,63
   13136:	470d                	li	a4,3
   13138:	00000073          	ecall
   1313c:	00851d63          	bne	a0,s0,13156 <_ZN20complex_dynamic_type3app17h4191345094bbb553E+0x96>
   13140:	01414703          	lbu	a4,20(sp)
   13144:	4505                	li	a0,1
   13146:	4609                	li	a2,2
   13148:	00aa8023          	sb	a0,0(s5)
   1314c:	00baa223          	sw	a1,4(s5)
   13150:	02c71963          	bne	a4,a2,13182 <_ZN20complex_dynamic_type3app17h4191345094bbb553E+0xc2>
   13154:	a83d                	j	13192 <_ZN20complex_dynamic_type3app17h4191345094bbb553E+0xd2>
   13156:	4681                	li	a3,0
   13158:	00f10a23          	sb	a5,20(sp)
   1315c:	6505                	lui	a0,0x1
   1315e:	459d                	li	a1,7
   13160:	4611                	li	a2,4
   13162:	4709                	li	a4,2
   13164:	cb050513          	addi	a0,a0,-848 # cb0 <.Lline_table_start1+0xa85>
   13168:	08000793          	li	a5,128
   1316c:	00000073          	ecall
   13170:	4609                	li	a2,2
   13172:	04f57663          	bgeu	a0,a5,131be <_ZN20complex_dynamic_type3app17h4191345094bbb553E+0xfe>
   13176:	4505                	li	a0,1
   13178:	00aa8023          	sb	a0,0(s5)
   1317c:	00baa223          	sw	a1,4(s5)
   13180:	470d                	li	a4,3
   13182:	6505                	lui	a0,0x1
   13184:	cb050513          	addi	a0,a0,-848 # cb0 <.Lline_table_start1+0xa85>
   13188:	4591                	li	a1,4
   1318a:	4601                	li	a2,0
   1318c:	4681                	li	a3,0
   1318e:	00000073          	ecall
   13192:	00214703          	lbu	a4,2(sp)
   13196:	4509                	li	a0,2
   13198:	00a70a63          	beq	a4,a0,131ac <_ZN20complex_dynamic_type3app17h4191345094bbb553E+0xec>
   1319c:	6505                	lui	a0,0x1
   1319e:	cb050513          	addi	a0,a0,-848 # cb0 <.Lline_table_start1+0xa85>
   131a2:	459d                	li	a1,7
   131a4:	4601                	li	a2,0
   131a6:	4681                	li	a3,0
   131a8:	00000073          	ecall
   131ac:	50b6                	lw	ra,108(sp)
   131ae:	5426                	lw	s0,104(sp)
   131b0:	5496                	lw	s1,100(sp)
   131b2:	5906                	lw	s2,96(sp)
   131b4:	49f6                	lw	s3,92(sp)
   131b6:	4a66                	lw	s4,88(sp)
   131b8:	4ad6                	lw	s5,84(sp)
   131ba:	6165                	addi	sp,sp,112
   131bc:	8082                	ret
   131be:	00214703          	lbu	a4,2(sp)
   131c2:	00c71463          	bne	a4,a2,131ca <_ZN20complex_dynamic_type3app17h4191345094bbb553E+0x10a>
   131c6:	470d                	li	a4,3
   131c8:	a825                	j	13200 <_ZN20complex_dynamic_type3app17h4191345094bbb553E+0x140>
   131ca:	6505                	lui	a0,0x1
   131cc:	cb050513          	addi	a0,a0,-848 # cb0 <.Lline_table_start1+0xa85>
   131d0:	459d                	li	a1,7
   131d2:	4601                	li	a2,0
   131d4:	4681                	li	a3,0
   131d6:	00000073          	ecall
   131da:	01414703          	lbu	a4,20(sp)
   131de:	4509                	li	a0,2
   131e0:	00a10123          	sb	a0,2(sp)
   131e4:	00a71e63          	bne	a4,a0,13200 <_ZN20complex_dynamic_type3app17h4191345094bbb553E+0x140>
   131e8:	001a8513          	addi	a0,s5,1
   131ec:	03f00613          	li	a2,63
   131f0:	85d2                	mv	a1,s4
   131f2:	0000b097          	auipc	ra,0xb
   131f6:	322080e7          	jalr	802(ra) # 1e514 <memcpy>
   131fa:	000a8023          	sb	zero,0(s5)
   131fe:	b77d                	j	131ac <_ZN20complex_dynamic_type3app17h4191345094bbb553E+0xec>
   13200:	6505                	lui	a0,0x1
   13202:	cb050913          	addi	s2,a0,-848 # cb0 <.Lline_table_start1+0xa85>
   13206:	4591                	li	a1,4
   13208:	854a                	mv	a0,s2
   1320a:	4601                	li	a2,0
   1320c:	4681                	li	a3,0
   1320e:	00000073          	ecall
   13212:	00214983          	lbu	s3,2(sp)
   13216:	001a8513          	addi	a0,s5,1
   1321a:	03f00613          	li	a2,63
   1321e:	85d2                	mv	a1,s4
   13220:	0000b097          	auipc	ra,0xb
   13224:	2f4080e7          	jalr	756(ra) # 1e514 <memcpy>
   13228:	4509                	li	a0,2
   1322a:	000a8023          	sb	zero,0(s5)
   1322e:	f6a98fe3          	beq	s3,a0,131ac <_ZN20complex_dynamic_type3app17h4191345094bbb553E+0xec>
   13232:	459d                	li	a1,7
   13234:	854a                	mv	a0,s2
   13236:	4601                	li	a2,0
   13238:	4681                	li	a3,0
   1323a:	874e                	mv	a4,s3
   1323c:	00000073          	ecall
   13240:	b7b5                	j	131ac <_ZN20complex_dynamic_type3app17h4191345094bbb553E+0xec>

00013242 <_ZN20complex_dynamic_type3app17h44fdd28cd55d8cecE>:
   13242:	7135                	addi	sp,sp,-160
   13244:	cf06                	sw	ra,156(sp)
   13246:	cd22                	sw	s0,152(sp)
   13248:	cb26                	sw	s1,148(sp)
   1324a:	c94a                	sw	s2,144(sp)
   1324c:	c74e                	sw	s3,140(sp)
   1324e:	c552                	sw	s4,136(sp)
   13250:	c356                	sw	s5,132(sp)
   13252:	8aaa                	mv	s5,a0
   13254:	4409                	li	s0,2
   13256:	00810123          	sb	s0,2(sp)
   1325a:	00310493          	addi	s1,sp,3
   1325e:	02d00613          	li	a2,45
   13262:	8526                	mv	a0,s1
   13264:	0000b097          	auipc	ra,0xb
   13268:	2b0080e7          	jalr	688(ra) # 1e514 <memcpy>
   1326c:	03110a13          	addi	s4,sp,49
   13270:	05300613          	li	a2,83
   13274:	8552                	mv	a0,s4
   13276:	4581                	li	a1,0
   13278:	0000b097          	auipc	ra,0xb
   1327c:	230080e7          	jalr	560(ra) # 1e4a8 <memset>
   13280:	8626                	mv	a2,s1
   13282:	02810823          	sb	s0,48(sp)
   13286:	6505                	lui	a0,0x1
   13288:	4491                	li	s1,4
   1328a:	4589                	li	a1,2
   1328c:	ec350793          	addi	a5,a0,-317 # ec3 <.Lline_table_start1+0xc98>
   13290:	02d00693          	li	a3,45
   13294:	4711                	li	a4,4
   13296:	853e                	mv	a0,a5
   13298:	00000073          	ecall
   1329c:	00851863          	bne	a0,s0,132ac <_ZN20complex_dynamic_type3app17h44fdd28cd55d8cecE+0x6a>
   132a0:	4505                	li	a0,1
   132a2:	00aa8023          	sb	a0,0(s5)
   132a6:	00baa223          	sw	a1,4(s5)
   132aa:	a0bd                	j	13318 <_ZN20complex_dynamic_type3app17h44fdd28cd55d8cecE+0xd6>
   132ac:	853e                	mv	a0,a5
   132ae:	8652                	mv	a2,s4
   132b0:	00910123          	sb	s1,2(sp)
   132b4:	478d                	li	a5,3
   132b6:	459d                	li	a1,7
   132b8:	05300693          	li	a3,83
   132bc:	470d                	li	a4,3
   132be:	00000073          	ecall
   132c2:	00851d63          	bne	a0,s0,132dc <_ZN20complex_dynamic_type3app17h44fdd28cd55d8cecE+0x9a>
   132c6:	03014703          	lbu	a4,48(sp)
   132ca:	4505                	li	a0,1
   132cc:	4609                	li	a2,2
   132ce:	00aa8023          	sb	a0,0(s5)
   132d2:	00baa223          	sw	a1,4(s5)
   132d6:	02c71963          	bne	a4,a2,13308 <_ZN20complex_dynamic_type3app17h44fdd28cd55d8cecE+0xc6>
   132da:	a83d                	j	13318 <_ZN20complex_dynamic_type3app17h44fdd28cd55d8cecE+0xd6>
   132dc:	4681                	li	a3,0
   132de:	02f10823          	sb	a5,48(sp)
   132e2:	6505                	lui	a0,0x1
   132e4:	4589                	li	a1,2
   132e6:	461d                	li	a2,7
   132e8:	4709                	li	a4,2
   132ea:	ec350513          	addi	a0,a0,-317 # ec3 <.Lline_table_start1+0xc98>
   132ee:	08000793          	li	a5,128
   132f2:	00000073          	ecall
   132f6:	4609                	li	a2,2
   132f8:	04f57663          	bgeu	a0,a5,13344 <_ZN20complex_dynamic_type3app17h44fdd28cd55d8cecE+0x102>
   132fc:	4505                	li	a0,1
   132fe:	00aa8023          	sb	a0,0(s5)
   13302:	00baa223          	sw	a1,4(s5)
   13306:	470d                	li	a4,3
   13308:	6505                	lui	a0,0x1
   1330a:	ec350513          	addi	a0,a0,-317 # ec3 <.Lline_table_start1+0xc98>
   1330e:	459d                	li	a1,7
   13310:	4601                	li	a2,0
   13312:	4681                	li	a3,0
   13314:	00000073          	ecall
   13318:	00214703          	lbu	a4,2(sp)
   1331c:	4509                	li	a0,2
   1331e:	00a70a63          	beq	a4,a0,13332 <_ZN20complex_dynamic_type3app17h44fdd28cd55d8cecE+0xf0>
   13322:	6505                	lui	a0,0x1
   13324:	ec350513          	addi	a0,a0,-317 # ec3 <.Lline_table_start1+0xc98>
   13328:	4589                	li	a1,2
   1332a:	4601                	li	a2,0
   1332c:	4681                	li	a3,0
   1332e:	00000073          	ecall
   13332:	40fa                	lw	ra,156(sp)
   13334:	446a                	lw	s0,152(sp)
   13336:	44da                	lw	s1,148(sp)
   13338:	494a                	lw	s2,144(sp)
   1333a:	49ba                	lw	s3,140(sp)
   1333c:	4a2a                	lw	s4,136(sp)
   1333e:	4a9a                	lw	s5,132(sp)
   13340:	610d                	addi	sp,sp,160
   13342:	8082                	ret
   13344:	00214703          	lbu	a4,2(sp)
   13348:	00c71463          	bne	a4,a2,13350 <_ZN20complex_dynamic_type3app17h44fdd28cd55d8cecE+0x10e>
   1334c:	470d                	li	a4,3
   1334e:	a825                	j	13386 <_ZN20complex_dynamic_type3app17h44fdd28cd55d8cecE+0x144>
   13350:	6505                	lui	a0,0x1
   13352:	ec350513          	addi	a0,a0,-317 # ec3 <.Lline_table_start1+0xc98>
   13356:	4589                	li	a1,2
   13358:	4601                	li	a2,0
   1335a:	4681                	li	a3,0
   1335c:	00000073          	ecall
   13360:	03014703          	lbu	a4,48(sp)
   13364:	4509                	li	a0,2
   13366:	00a10123          	sb	a0,2(sp)
   1336a:	00a71e63          	bne	a4,a0,13386 <_ZN20complex_dynamic_type3app17h44fdd28cd55d8cecE+0x144>
   1336e:	001a8513          	addi	a0,s5,1
   13372:	05300613          	li	a2,83
   13376:	85d2                	mv	a1,s4
   13378:	0000b097          	auipc	ra,0xb
   1337c:	19c080e7          	jalr	412(ra) # 1e514 <memcpy>
   13380:	000a8023          	sb	zero,0(s5)
   13384:	b77d                	j	13332 <_ZN20complex_dynamic_type3app17h44fdd28cd55d8cecE+0xf0>
   13386:	6505                	lui	a0,0x1
   13388:	ec350913          	addi	s2,a0,-317 # ec3 <.Lline_table_start1+0xc98>
   1338c:	459d                	li	a1,7
   1338e:	854a                	mv	a0,s2
   13390:	4601                	li	a2,0
   13392:	4681                	li	a3,0
   13394:	00000073          	ecall
   13398:	00214983          	lbu	s3,2(sp)
   1339c:	001a8513          	addi	a0,s5,1
   133a0:	05300613          	li	a2,83
   133a4:	85d2                	mv	a1,s4
   133a6:	0000b097          	auipc	ra,0xb
   133aa:	16e080e7          	jalr	366(ra) # 1e514 <memcpy>
   133ae:	4509                	li	a0,2
   133b0:	000a8023          	sb	zero,0(s5)
   133b4:	f6a98fe3          	beq	s3,a0,13332 <_ZN20complex_dynamic_type3app17h44fdd28cd55d8cecE+0xf0>
   133b8:	4589                	li	a1,2
   133ba:	854a                	mv	a0,s2
   133bc:	4601                	li	a2,0
   133be:	4681                	li	a3,0
   133c0:	874e                	mv	a4,s3
   133c2:	00000073          	ecall
   133c6:	b7b5                	j	13332 <_ZN20complex_dynamic_type3app17h44fdd28cd55d8cecE+0xf0>

000133c8 <_ZN20complex_dynamic_type3app17h46061aefef3fa7f6E>:
   133c8:	7139                	addi	sp,sp,-64
   133ca:	de06                	sw	ra,60(sp)
   133cc:	dc22                	sw	s0,56(sp)
   133ce:	da26                	sw	s1,52(sp)
   133d0:	d84a                	sw	s2,48(sp)
   133d2:	d64e                	sw	s3,44(sp)
   133d4:	d452                	sw	s4,40(sp)
   133d6:	d256                	sw	s5,36(sp)
   133d8:	8aaa                	mv	s5,a0
   133da:	4409                	li	s0,2
   133dc:	00810023          	sb	s0,0(sp)
   133e0:	00110493          	addi	s1,sp,1
   133e4:	463d                	li	a2,15
   133e6:	8526                	mv	a0,s1
   133e8:	0000b097          	auipc	ra,0xb
   133ec:	12c080e7          	jalr	300(ra) # 1e514 <memcpy>
   133f0:	01110a13          	addi	s4,sp,17
   133f4:	464d                	li	a2,19
   133f6:	8552                	mv	a0,s4
   133f8:	4581                	li	a1,0
   133fa:	0000b097          	auipc	ra,0xb
   133fe:	0ae080e7          	jalr	174(ra) # 1e4a8 <memset>
   13402:	8626                	mv	a2,s1
   13404:	00810823          	sb	s0,16(sp)
   13408:	6509                	lui	a0,0x2
   1340a:	4491                	li	s1,4
   1340c:	458d                	li	a1,3
   1340e:	e4b50793          	addi	a5,a0,-437 # 1e4b <.Lline_table_start1+0x1c20>
   13412:	46bd                	li	a3,15
   13414:	4711                	li	a4,4
   13416:	853e                	mv	a0,a5
   13418:	00000073          	ecall
   1341c:	00851863          	bne	a0,s0,1342c <_ZN20complex_dynamic_type3app17h46061aefef3fa7f6E+0x64>
   13420:	4505                	li	a0,1
   13422:	00aa8023          	sb	a0,0(s5)
   13426:	00baa223          	sw	a1,4(s5)
   1342a:	a0b5                	j	13496 <_ZN20complex_dynamic_type3app17h46061aefef3fa7f6E+0xce>
   1342c:	853e                	mv	a0,a5
   1342e:	4581                	li	a1,0
   13430:	8652                	mv	a2,s4
   13432:	00910023          	sb	s1,0(sp)
   13436:	478d                	li	a5,3
   13438:	46cd                	li	a3,19
   1343a:	470d                	li	a4,3
   1343c:	00000073          	ecall
   13440:	00851d63          	bne	a0,s0,1345a <_ZN20complex_dynamic_type3app17h46061aefef3fa7f6E+0x92>
   13444:	01014703          	lbu	a4,16(sp)
   13448:	4505                	li	a0,1
   1344a:	4609                	li	a2,2
   1344c:	00aa8023          	sb	a0,0(s5)
   13450:	00baa223          	sw	a1,4(s5)
   13454:	02c71963          	bne	a4,a2,13486 <_ZN20complex_dynamic_type3app17h46061aefef3fa7f6E+0xbe>
   13458:	a83d                	j	13496 <_ZN20complex_dynamic_type3app17h46061aefef3fa7f6E+0xce>
   1345a:	4601                	li	a2,0
   1345c:	4681                	li	a3,0
   1345e:	00f10823          	sb	a5,16(sp)
   13462:	6509                	lui	a0,0x2
   13464:	458d                	li	a1,3
   13466:	4709                	li	a4,2
   13468:	e4b50513          	addi	a0,a0,-437 # 1e4b <.Lline_table_start1+0x1c20>
   1346c:	08000793          	li	a5,128
   13470:	00000073          	ecall
   13474:	4609                	li	a2,2
   13476:	04f57663          	bgeu	a0,a5,134c2 <_ZN20complex_dynamic_type3app17h46061aefef3fa7f6E+0xfa>
   1347a:	4505                	li	a0,1
   1347c:	00aa8023          	sb	a0,0(s5)
   13480:	00baa223          	sw	a1,4(s5)
   13484:	470d                	li	a4,3
   13486:	6509                	lui	a0,0x2
   13488:	e4b50513          	addi	a0,a0,-437 # 1e4b <.Lline_table_start1+0x1c20>
   1348c:	4581                	li	a1,0
   1348e:	4601                	li	a2,0
   13490:	4681                	li	a3,0
   13492:	00000073          	ecall
   13496:	00014703          	lbu	a4,0(sp)
   1349a:	4509                	li	a0,2
   1349c:	00a70a63          	beq	a4,a0,134b0 <_ZN20complex_dynamic_type3app17h46061aefef3fa7f6E+0xe8>
   134a0:	6509                	lui	a0,0x2
   134a2:	e4b50513          	addi	a0,a0,-437 # 1e4b <.Lline_table_start1+0x1c20>
   134a6:	458d                	li	a1,3
   134a8:	4601                	li	a2,0
   134aa:	4681                	li	a3,0
   134ac:	00000073          	ecall
   134b0:	50f2                	lw	ra,60(sp)
   134b2:	5462                	lw	s0,56(sp)
   134b4:	54d2                	lw	s1,52(sp)
   134b6:	5942                	lw	s2,48(sp)
   134b8:	59b2                	lw	s3,44(sp)
   134ba:	5a22                	lw	s4,40(sp)
   134bc:	5a92                	lw	s5,36(sp)
   134be:	6121                	addi	sp,sp,64
   134c0:	8082                	ret
   134c2:	00014703          	lbu	a4,0(sp)
   134c6:	00c71463          	bne	a4,a2,134ce <_ZN20complex_dynamic_type3app17h46061aefef3fa7f6E+0x106>
   134ca:	470d                	li	a4,3
   134cc:	a81d                	j	13502 <_ZN20complex_dynamic_type3app17h46061aefef3fa7f6E+0x13a>
   134ce:	6509                	lui	a0,0x2
   134d0:	e4b50513          	addi	a0,a0,-437 # 1e4b <.Lline_table_start1+0x1c20>
   134d4:	458d                	li	a1,3
   134d6:	4601                	li	a2,0
   134d8:	4681                	li	a3,0
   134da:	00000073          	ecall
   134de:	01014703          	lbu	a4,16(sp)
   134e2:	4509                	li	a0,2
   134e4:	00a10023          	sb	a0,0(sp)
   134e8:	00a71d63          	bne	a4,a0,13502 <_ZN20complex_dynamic_type3app17h46061aefef3fa7f6E+0x13a>
   134ec:	001a8513          	addi	a0,s5,1
   134f0:	464d                	li	a2,19
   134f2:	85d2                	mv	a1,s4
   134f4:	0000b097          	auipc	ra,0xb
   134f8:	020080e7          	jalr	32(ra) # 1e514 <memcpy>
   134fc:	000a8023          	sb	zero,0(s5)
   13500:	bf45                	j	134b0 <_ZN20complex_dynamic_type3app17h46061aefef3fa7f6E+0xe8>
   13502:	6509                	lui	a0,0x2
   13504:	e4b50913          	addi	s2,a0,-437 # 1e4b <.Lline_table_start1+0x1c20>
   13508:	854a                	mv	a0,s2
   1350a:	4581                	li	a1,0
   1350c:	4601                	li	a2,0
   1350e:	4681                	li	a3,0
   13510:	00000073          	ecall
   13514:	00014983          	lbu	s3,0(sp)
   13518:	001a8513          	addi	a0,s5,1
   1351c:	464d                	li	a2,19
   1351e:	85d2                	mv	a1,s4
   13520:	0000b097          	auipc	ra,0xb
   13524:	ff4080e7          	jalr	-12(ra) # 1e514 <memcpy>
   13528:	4509                	li	a0,2
   1352a:	000a8023          	sb	zero,0(s5)
   1352e:	f8a981e3          	beq	s3,a0,134b0 <_ZN20complex_dynamic_type3app17h46061aefef3fa7f6E+0xe8>
   13532:	458d                	li	a1,3
   13534:	854a                	mv	a0,s2
   13536:	4601                	li	a2,0
   13538:	4681                	li	a3,0
   1353a:	874e                	mv	a4,s3
   1353c:	00000073          	ecall
   13540:	bf85                	j	134b0 <_ZN20complex_dynamic_type3app17h46061aefef3fa7f6E+0xe8>

00013542 <_ZN20complex_dynamic_type3app17h49590f3eec247124E>:
   13542:	7171                	addi	sp,sp,-176
   13544:	d706                	sw	ra,172(sp)
   13546:	d522                	sw	s0,168(sp)
   13548:	d326                	sw	s1,164(sp)
   1354a:	d14a                	sw	s2,160(sp)
   1354c:	cf4e                	sw	s3,156(sp)
   1354e:	cd52                	sw	s4,152(sp)
   13550:	cb56                	sw	s5,148(sp)
   13552:	8aaa                	mv	s5,a0
   13554:	4409                	li	s0,2
   13556:	00810723          	sb	s0,14(sp)
   1355a:	00f10493          	addi	s1,sp,15
   1355e:	04f00613          	li	a2,79
   13562:	8526                	mv	a0,s1
   13564:	0000b097          	auipc	ra,0xb
   13568:	fb0080e7          	jalr	-80(ra) # 1e514 <memcpy>
   1356c:	05f10a13          	addi	s4,sp,95
   13570:	03500613          	li	a2,53
   13574:	8552                	mv	a0,s4
   13576:	4581                	li	a1,0
   13578:	0000b097          	auipc	ra,0xb
   1357c:	f30080e7          	jalr	-208(ra) # 1e4a8 <memset>
   13580:	8626                	mv	a2,s1
   13582:	04810f23          	sb	s0,94(sp)
   13586:	6505                	lui	a0,0x1
   13588:	4491                	li	s1,4
   1358a:	459d                	li	a1,7
   1358c:	6d750793          	addi	a5,a0,1751 # 16d7 <.Lline_table_start1+0x14ac>
   13590:	04f00693          	li	a3,79
   13594:	4711                	li	a4,4
   13596:	853e                	mv	a0,a5
   13598:	00000073          	ecall
   1359c:	00851863          	bne	a0,s0,135ac <_ZN20complex_dynamic_type3app17h49590f3eec247124E+0x6a>
   135a0:	4505                	li	a0,1
   135a2:	00aa8023          	sb	a0,0(s5)
   135a6:	00baa223          	sw	a1,4(s5)
   135aa:	a0bd                	j	13618 <_ZN20complex_dynamic_type3app17h49590f3eec247124E+0xd6>
   135ac:	853e                	mv	a0,a5
   135ae:	8652                	mv	a2,s4
   135b0:	00910723          	sb	s1,14(sp)
   135b4:	4785                	li	a5,1
   135b6:	448d                	li	s1,3
   135b8:	4585                	li	a1,1
   135ba:	03500693          	li	a3,53
   135be:	470d                	li	a4,3
   135c0:	00000073          	ecall
   135c4:	00851c63          	bne	a0,s0,135dc <_ZN20complex_dynamic_type3app17h49590f3eec247124E+0x9a>
   135c8:	05e14703          	lbu	a4,94(sp)
   135cc:	4509                	li	a0,2
   135ce:	00fa8023          	sb	a5,0(s5)
   135d2:	00baa223          	sw	a1,4(s5)
   135d6:	02a71963          	bne	a4,a0,13608 <_ZN20complex_dynamic_type3app17h49590f3eec247124E+0xc6>
   135da:	a83d                	j	13618 <_ZN20complex_dynamic_type3app17h49590f3eec247124E+0xd6>
   135dc:	4681                	li	a3,0
   135de:	04910f23          	sb	s1,94(sp)
   135e2:	6505                	lui	a0,0x1
   135e4:	4785                	li	a5,1
   135e6:	459d                	li	a1,7
   135e8:	4605                	li	a2,1
   135ea:	4709                	li	a4,2
   135ec:	6d750513          	addi	a0,a0,1751 # 16d7 <.Lline_table_start1+0x14ac>
   135f0:	08000493          	li	s1,128
   135f4:	00000073          	ecall
   135f8:	4609                	li	a2,2
   135fa:	04957563          	bgeu	a0,s1,13644 <_ZN20complex_dynamic_type3app17h49590f3eec247124E+0x102>
   135fe:	00fa8023          	sb	a5,0(s5)
   13602:	00baa223          	sw	a1,4(s5)
   13606:	470d                	li	a4,3
   13608:	6505                	lui	a0,0x1
   1360a:	6d750513          	addi	a0,a0,1751 # 16d7 <.Lline_table_start1+0x14ac>
   1360e:	4585                	li	a1,1
   13610:	4601                	li	a2,0
   13612:	4681                	li	a3,0
   13614:	00000073          	ecall
   13618:	00e14703          	lbu	a4,14(sp)
   1361c:	4509                	li	a0,2
   1361e:	00a70a63          	beq	a4,a0,13632 <_ZN20complex_dynamic_type3app17h49590f3eec247124E+0xf0>
   13622:	6505                	lui	a0,0x1
   13624:	6d750513          	addi	a0,a0,1751 # 16d7 <.Lline_table_start1+0x14ac>
   13628:	459d                	li	a1,7
   1362a:	4601                	li	a2,0
   1362c:	4681                	li	a3,0
   1362e:	00000073          	ecall
   13632:	50ba                	lw	ra,172(sp)
   13634:	542a                	lw	s0,168(sp)
   13636:	549a                	lw	s1,164(sp)
   13638:	590a                	lw	s2,160(sp)
   1363a:	49fa                	lw	s3,156(sp)
   1363c:	4a6a                	lw	s4,152(sp)
   1363e:	4ada                	lw	s5,148(sp)
   13640:	614d                	addi	sp,sp,176
   13642:	8082                	ret
   13644:	00e14703          	lbu	a4,14(sp)
   13648:	00c71463          	bne	a4,a2,13650 <_ZN20complex_dynamic_type3app17h49590f3eec247124E+0x10e>
   1364c:	470d                	li	a4,3
   1364e:	a825                	j	13686 <_ZN20complex_dynamic_type3app17h49590f3eec247124E+0x144>
   13650:	6505                	lui	a0,0x1
   13652:	6d750513          	addi	a0,a0,1751 # 16d7 <.Lline_table_start1+0x14ac>
   13656:	459d                	li	a1,7
   13658:	4601                	li	a2,0
   1365a:	4681                	li	a3,0
   1365c:	00000073          	ecall
   13660:	05e14703          	lbu	a4,94(sp)
   13664:	4509                	li	a0,2
   13666:	00a10723          	sb	a0,14(sp)
   1366a:	00a71e63          	bne	a4,a0,13686 <_ZN20complex_dynamic_type3app17h49590f3eec247124E+0x144>
   1366e:	001a8513          	addi	a0,s5,1
   13672:	03500613          	li	a2,53
   13676:	85d2                	mv	a1,s4
   13678:	0000b097          	auipc	ra,0xb
   1367c:	e9c080e7          	jalr	-356(ra) # 1e514 <memcpy>
   13680:	000a8023          	sb	zero,0(s5)
   13684:	b77d                	j	13632 <_ZN20complex_dynamic_type3app17h49590f3eec247124E+0xf0>
   13686:	6505                	lui	a0,0x1
   13688:	6d750913          	addi	s2,a0,1751 # 16d7 <.Lline_table_start1+0x14ac>
   1368c:	4585                	li	a1,1
   1368e:	854a                	mv	a0,s2
   13690:	4601                	li	a2,0
   13692:	4681                	li	a3,0
   13694:	00000073          	ecall
   13698:	00e14983          	lbu	s3,14(sp)
   1369c:	001a8513          	addi	a0,s5,1
   136a0:	03500613          	li	a2,53
   136a4:	85d2                	mv	a1,s4
   136a6:	0000b097          	auipc	ra,0xb
   136aa:	e6e080e7          	jalr	-402(ra) # 1e514 <memcpy>
   136ae:	4509                	li	a0,2
   136b0:	000a8023          	sb	zero,0(s5)
   136b4:	f6a98fe3          	beq	s3,a0,13632 <_ZN20complex_dynamic_type3app17h49590f3eec247124E+0xf0>
   136b8:	459d                	li	a1,7
   136ba:	854a                	mv	a0,s2
   136bc:	4601                	li	a2,0
   136be:	4681                	li	a3,0
   136c0:	874e                	mv	a4,s3
   136c2:	00000073          	ecall
   136c6:	b7b5                	j	13632 <_ZN20complex_dynamic_type3app17h49590f3eec247124E+0xf0>

000136c8 <_ZN20complex_dynamic_type3app17h4df6577adf53dcaaE>:
   136c8:	7159                	addi	sp,sp,-112
   136ca:	d686                	sw	ra,108(sp)
   136cc:	d4a2                	sw	s0,104(sp)
   136ce:	d2a6                	sw	s1,100(sp)
   136d0:	d0ca                	sw	s2,96(sp)
   136d2:	cece                	sw	s3,92(sp)
   136d4:	ccd2                	sw	s4,88(sp)
   136d6:	cad6                	sw	s5,84(sp)
   136d8:	8aaa                	mv	s5,a0
   136da:	4409                	li	s0,2
   136dc:	00810223          	sb	s0,4(sp)
   136e0:	00510493          	addi	s1,sp,5
   136e4:	03400613          	li	a2,52
   136e8:	8526                	mv	a0,s1
   136ea:	0000b097          	auipc	ra,0xb
   136ee:	e2a080e7          	jalr	-470(ra) # 1e514 <memcpy>
   136f2:	03a10a13          	addi	s4,sp,58
   136f6:	4669                	li	a2,26
   136f8:	8552                	mv	a0,s4
   136fa:	4581                	li	a1,0
   136fc:	0000b097          	auipc	ra,0xb
   13700:	dac080e7          	jalr	-596(ra) # 1e4a8 <memset>
   13704:	4581                	li	a1,0
   13706:	8626                	mv	a2,s1
   13708:	02810ca3          	sb	s0,57(sp)
   1370c:	6505                	lui	a0,0x1
   1370e:	4491                	li	s1,4
   13710:	2cc50793          	addi	a5,a0,716 # 12cc <.Lline_table_start1+0x10a1>
   13714:	03400693          	li	a3,52
   13718:	4711                	li	a4,4
   1371a:	853e                	mv	a0,a5
   1371c:	00000073          	ecall
   13720:	00851863          	bne	a0,s0,13730 <_ZN20complex_dynamic_type3app17h4df6577adf53dcaaE+0x68>
   13724:	4505                	li	a0,1
   13726:	00aa8023          	sb	a0,0(s5)
   1372a:	00baa223          	sw	a1,4(s5)
   1372e:	a0b5                	j	1379a <_ZN20complex_dynamic_type3app17h4df6577adf53dcaaE+0xd2>
   13730:	853e                	mv	a0,a5
   13732:	8652                	mv	a2,s4
   13734:	00910223          	sb	s1,4(sp)
   13738:	478d                	li	a5,3
   1373a:	4595                	li	a1,5
   1373c:	46e9                	li	a3,26
   1373e:	470d                	li	a4,3
   13740:	00000073          	ecall
   13744:	00851d63          	bne	a0,s0,1375e <_ZN20complex_dynamic_type3app17h4df6577adf53dcaaE+0x96>
   13748:	03914703          	lbu	a4,57(sp)
   1374c:	4505                	li	a0,1
   1374e:	4609                	li	a2,2
   13750:	00aa8023          	sb	a0,0(s5)
   13754:	00baa223          	sw	a1,4(s5)
   13758:	02c71963          	bne	a4,a2,1378a <_ZN20complex_dynamic_type3app17h4df6577adf53dcaaE+0xc2>
   1375c:	a83d                	j	1379a <_ZN20complex_dynamic_type3app17h4df6577adf53dcaaE+0xd2>
   1375e:	4581                	li	a1,0
   13760:	4681                	li	a3,0
   13762:	02f10ca3          	sb	a5,57(sp)
   13766:	6505                	lui	a0,0x1
   13768:	4615                	li	a2,5
   1376a:	4709                	li	a4,2
   1376c:	2cc50513          	addi	a0,a0,716 # 12cc <.Lline_table_start1+0x10a1>
   13770:	08000793          	li	a5,128
   13774:	00000073          	ecall
   13778:	4609                	li	a2,2
   1377a:	04f57663          	bgeu	a0,a5,137c6 <_ZN20complex_dynamic_type3app17h4df6577adf53dcaaE+0xfe>
   1377e:	4505                	li	a0,1
   13780:	00aa8023          	sb	a0,0(s5)
   13784:	00baa223          	sw	a1,4(s5)
   13788:	470d                	li	a4,3
   1378a:	6505                	lui	a0,0x1
   1378c:	2cc50513          	addi	a0,a0,716 # 12cc <.Lline_table_start1+0x10a1>
   13790:	4595                	li	a1,5
   13792:	4601                	li	a2,0
   13794:	4681                	li	a3,0
   13796:	00000073          	ecall
   1379a:	00414703          	lbu	a4,4(sp)
   1379e:	4509                	li	a0,2
   137a0:	00a70a63          	beq	a4,a0,137b4 <_ZN20complex_dynamic_type3app17h4df6577adf53dcaaE+0xec>
   137a4:	6505                	lui	a0,0x1
   137a6:	2cc50513          	addi	a0,a0,716 # 12cc <.Lline_table_start1+0x10a1>
   137aa:	4581                	li	a1,0
   137ac:	4601                	li	a2,0
   137ae:	4681                	li	a3,0
   137b0:	00000073          	ecall
   137b4:	50b6                	lw	ra,108(sp)
   137b6:	5426                	lw	s0,104(sp)
   137b8:	5496                	lw	s1,100(sp)
   137ba:	5906                	lw	s2,96(sp)
   137bc:	49f6                	lw	s3,92(sp)
   137be:	4a66                	lw	s4,88(sp)
   137c0:	4ad6                	lw	s5,84(sp)
   137c2:	6165                	addi	sp,sp,112
   137c4:	8082                	ret
   137c6:	00414703          	lbu	a4,4(sp)
   137ca:	00c71463          	bne	a4,a2,137d2 <_ZN20complex_dynamic_type3app17h4df6577adf53dcaaE+0x10a>
   137ce:	470d                	li	a4,3
   137d0:	a81d                	j	13806 <_ZN20complex_dynamic_type3app17h4df6577adf53dcaaE+0x13e>
   137d2:	6505                	lui	a0,0x1
   137d4:	2cc50513          	addi	a0,a0,716 # 12cc <.Lline_table_start1+0x10a1>
   137d8:	4581                	li	a1,0
   137da:	4601                	li	a2,0
   137dc:	4681                	li	a3,0
   137de:	00000073          	ecall
   137e2:	03914703          	lbu	a4,57(sp)
   137e6:	4509                	li	a0,2
   137e8:	00a10223          	sb	a0,4(sp)
   137ec:	00a71d63          	bne	a4,a0,13806 <_ZN20complex_dynamic_type3app17h4df6577adf53dcaaE+0x13e>
   137f0:	001a8513          	addi	a0,s5,1
   137f4:	4669                	li	a2,26
   137f6:	85d2                	mv	a1,s4
   137f8:	0000b097          	auipc	ra,0xb
   137fc:	d1c080e7          	jalr	-740(ra) # 1e514 <memcpy>
   13800:	000a8023          	sb	zero,0(s5)
   13804:	bf45                	j	137b4 <_ZN20complex_dynamic_type3app17h4df6577adf53dcaaE+0xec>
   13806:	6505                	lui	a0,0x1
   13808:	2cc50913          	addi	s2,a0,716 # 12cc <.Lline_table_start1+0x10a1>
   1380c:	4595                	li	a1,5
   1380e:	854a                	mv	a0,s2
   13810:	4601                	li	a2,0
   13812:	4681                	li	a3,0
   13814:	00000073          	ecall
   13818:	00414983          	lbu	s3,4(sp)
   1381c:	001a8513          	addi	a0,s5,1
   13820:	4669                	li	a2,26
   13822:	85d2                	mv	a1,s4
   13824:	0000b097          	auipc	ra,0xb
   13828:	cf0080e7          	jalr	-784(ra) # 1e514 <memcpy>
   1382c:	4509                	li	a0,2
   1382e:	000a8023          	sb	zero,0(s5)
   13832:	f8a981e3          	beq	s3,a0,137b4 <_ZN20complex_dynamic_type3app17h4df6577adf53dcaaE+0xec>
   13836:	854a                	mv	a0,s2
   13838:	4581                	li	a1,0
   1383a:	4601                	li	a2,0
   1383c:	4681                	li	a3,0
   1383e:	874e                	mv	a4,s3
   13840:	00000073          	ecall
   13844:	bf85                	j	137b4 <_ZN20complex_dynamic_type3app17h4df6577adf53dcaaE+0xec>

00013846 <_ZN20complex_dynamic_type3app17h4e899ce474a14227E>:
   13846:	7171                	addi	sp,sp,-176
   13848:	d706                	sw	ra,172(sp)
   1384a:	d522                	sw	s0,168(sp)
   1384c:	d326                	sw	s1,164(sp)
   1384e:	d14a                	sw	s2,160(sp)
   13850:	cf4e                	sw	s3,156(sp)
   13852:	cd52                	sw	s4,152(sp)
   13854:	cb56                	sw	s5,148(sp)
   13856:	8aaa                	mv	s5,a0
   13858:	4409                	li	s0,2
   1385a:	00810423          	sb	s0,8(sp)
   1385e:	00910493          	addi	s1,sp,9
   13862:	06300613          	li	a2,99
   13866:	8526                	mv	a0,s1
   13868:	0000b097          	auipc	ra,0xb
   1386c:	cac080e7          	jalr	-852(ra) # 1e514 <memcpy>
   13870:	06d10a13          	addi	s4,sp,109
   13874:	02700613          	li	a2,39
   13878:	8552                	mv	a0,s4
   1387a:	4581                	li	a1,0
   1387c:	0000b097          	auipc	ra,0xb
   13880:	c2c080e7          	jalr	-980(ra) # 1e4a8 <memset>
   13884:	8626                	mv	a2,s1
   13886:	06810623          	sb	s0,108(sp)
   1388a:	6509                	lui	a0,0x2
   1388c:	4491                	li	s1,4
   1388e:	459d                	li	a1,7
   13890:	e5450793          	addi	a5,a0,-428 # 1e54 <.Lline_table_start1+0x1c29>
   13894:	06300693          	li	a3,99
   13898:	4711                	li	a4,4
   1389a:	853e                	mv	a0,a5
   1389c:	00000073          	ecall
   138a0:	00851863          	bne	a0,s0,138b0 <_ZN20complex_dynamic_type3app17h4e899ce474a14227E+0x6a>
   138a4:	4505                	li	a0,1
   138a6:	00aa8023          	sb	a0,0(s5)
   138aa:	00baa223          	sw	a1,4(s5)
   138ae:	a0bd                	j	1391c <_ZN20complex_dynamic_type3app17h4e899ce474a14227E+0xd6>
   138b0:	853e                	mv	a0,a5
   138b2:	4581                	li	a1,0
   138b4:	8652                	mv	a2,s4
   138b6:	00910423          	sb	s1,8(sp)
   138ba:	478d                	li	a5,3
   138bc:	02700693          	li	a3,39
   138c0:	470d                	li	a4,3
   138c2:	00000073          	ecall
   138c6:	00851d63          	bne	a0,s0,138e0 <_ZN20complex_dynamic_type3app17h4e899ce474a14227E+0x9a>
   138ca:	06c14703          	lbu	a4,108(sp)
   138ce:	4505                	li	a0,1
   138d0:	4609                	li	a2,2
   138d2:	00aa8023          	sb	a0,0(s5)
   138d6:	00baa223          	sw	a1,4(s5)
   138da:	02c71963          	bne	a4,a2,1390c <_ZN20complex_dynamic_type3app17h4e899ce474a14227E+0xc6>
   138de:	a83d                	j	1391c <_ZN20complex_dynamic_type3app17h4e899ce474a14227E+0xd6>
   138e0:	4601                	li	a2,0
   138e2:	4681                	li	a3,0
   138e4:	06f10623          	sb	a5,108(sp)
   138e8:	6509                	lui	a0,0x2
   138ea:	459d                	li	a1,7
   138ec:	4709                	li	a4,2
   138ee:	e5450513          	addi	a0,a0,-428 # 1e54 <.Lline_table_start1+0x1c29>
   138f2:	08000793          	li	a5,128
   138f6:	00000073          	ecall
   138fa:	4609                	li	a2,2
   138fc:	04f57663          	bgeu	a0,a5,13948 <_ZN20complex_dynamic_type3app17h4e899ce474a14227E+0x102>
   13900:	4505                	li	a0,1
   13902:	00aa8023          	sb	a0,0(s5)
   13906:	00baa223          	sw	a1,4(s5)
   1390a:	470d                	li	a4,3
   1390c:	6509                	lui	a0,0x2
   1390e:	e5450513          	addi	a0,a0,-428 # 1e54 <.Lline_table_start1+0x1c29>
   13912:	4581                	li	a1,0
   13914:	4601                	li	a2,0
   13916:	4681                	li	a3,0
   13918:	00000073          	ecall
   1391c:	00814703          	lbu	a4,8(sp)
   13920:	4509                	li	a0,2
   13922:	00a70a63          	beq	a4,a0,13936 <_ZN20complex_dynamic_type3app17h4e899ce474a14227E+0xf0>
   13926:	6509                	lui	a0,0x2
   13928:	e5450513          	addi	a0,a0,-428 # 1e54 <.Lline_table_start1+0x1c29>
   1392c:	459d                	li	a1,7
   1392e:	4601                	li	a2,0
   13930:	4681                	li	a3,0
   13932:	00000073          	ecall
   13936:	50ba                	lw	ra,172(sp)
   13938:	542a                	lw	s0,168(sp)
   1393a:	549a                	lw	s1,164(sp)
   1393c:	590a                	lw	s2,160(sp)
   1393e:	49fa                	lw	s3,156(sp)
   13940:	4a6a                	lw	s4,152(sp)
   13942:	4ada                	lw	s5,148(sp)
   13944:	614d                	addi	sp,sp,176
   13946:	8082                	ret
   13948:	00814703          	lbu	a4,8(sp)
   1394c:	00c71463          	bne	a4,a2,13954 <_ZN20complex_dynamic_type3app17h4e899ce474a14227E+0x10e>
   13950:	470d                	li	a4,3
   13952:	a825                	j	1398a <_ZN20complex_dynamic_type3app17h4e899ce474a14227E+0x144>
   13954:	6509                	lui	a0,0x2
   13956:	e5450513          	addi	a0,a0,-428 # 1e54 <.Lline_table_start1+0x1c29>
   1395a:	459d                	li	a1,7
   1395c:	4601                	li	a2,0
   1395e:	4681                	li	a3,0
   13960:	00000073          	ecall
   13964:	06c14703          	lbu	a4,108(sp)
   13968:	4509                	li	a0,2
   1396a:	00a10423          	sb	a0,8(sp)
   1396e:	00a71e63          	bne	a4,a0,1398a <_ZN20complex_dynamic_type3app17h4e899ce474a14227E+0x144>
   13972:	001a8513          	addi	a0,s5,1
   13976:	02700613          	li	a2,39
   1397a:	85d2                	mv	a1,s4
   1397c:	0000b097          	auipc	ra,0xb
   13980:	b98080e7          	jalr	-1128(ra) # 1e514 <memcpy>
   13984:	000a8023          	sb	zero,0(s5)
   13988:	b77d                	j	13936 <_ZN20complex_dynamic_type3app17h4e899ce474a14227E+0xf0>
   1398a:	6509                	lui	a0,0x2
   1398c:	e5450913          	addi	s2,a0,-428 # 1e54 <.Lline_table_start1+0x1c29>
   13990:	854a                	mv	a0,s2
   13992:	4581                	li	a1,0
   13994:	4601                	li	a2,0
   13996:	4681                	li	a3,0
   13998:	00000073          	ecall
   1399c:	00814983          	lbu	s3,8(sp)
   139a0:	001a8513          	addi	a0,s5,1
   139a4:	02700613          	li	a2,39
   139a8:	85d2                	mv	a1,s4
   139aa:	0000b097          	auipc	ra,0xb
   139ae:	b6a080e7          	jalr	-1174(ra) # 1e514 <memcpy>
   139b2:	4509                	li	a0,2
   139b4:	000a8023          	sb	zero,0(s5)
   139b8:	f6a98fe3          	beq	s3,a0,13936 <_ZN20complex_dynamic_type3app17h4e899ce474a14227E+0xf0>
   139bc:	459d                	li	a1,7
   139be:	854a                	mv	a0,s2
   139c0:	4601                	li	a2,0
   139c2:	4681                	li	a3,0
   139c4:	874e                	mv	a4,s3
   139c6:	00000073          	ecall
   139ca:	b7b5                	j	13936 <_ZN20complex_dynamic_type3app17h4e899ce474a14227E+0xf0>

000139cc <_ZN20complex_dynamic_type3app17h513c53f2c17cce6eE>:
   139cc:	7171                	addi	sp,sp,-176
   139ce:	d706                	sw	ra,172(sp)
   139d0:	d522                	sw	s0,168(sp)
   139d2:	d326                	sw	s1,164(sp)
   139d4:	d14a                	sw	s2,160(sp)
   139d6:	cf4e                	sw	s3,156(sp)
   139d8:	cd52                	sw	s4,152(sp)
   139da:	cb56                	sw	s5,148(sp)
   139dc:	8aaa                	mv	s5,a0
   139de:	4409                	li	s0,2
   139e0:	008102a3          	sb	s0,5(sp)
   139e4:	00610493          	addi	s1,sp,6
   139e8:	02a00613          	li	a2,42
   139ec:	8526                	mv	a0,s1
   139ee:	0000b097          	auipc	ra,0xb
   139f2:	b26080e7          	jalr	-1242(ra) # 1e514 <memcpy>
   139f6:	03110a13          	addi	s4,sp,49
   139fa:	06300613          	li	a2,99
   139fe:	8552                	mv	a0,s4
   13a00:	4581                	li	a1,0
   13a02:	0000b097          	auipc	ra,0xb
   13a06:	aa6080e7          	jalr	-1370(ra) # 1e4a8 <memset>
   13a0a:	8626                	mv	a2,s1
   13a0c:	02810823          	sb	s0,48(sp)
   13a10:	6509                	lui	a0,0x2
   13a12:	4491                	li	s1,4
   13a14:	4591                	li	a1,4
   13a16:	c7c50793          	addi	a5,a0,-900 # 1c7c <.Lline_table_start1+0x1a51>
   13a1a:	02a00693          	li	a3,42
   13a1e:	4711                	li	a4,4
   13a20:	853e                	mv	a0,a5
   13a22:	00000073          	ecall
   13a26:	00851863          	bne	a0,s0,13a36 <_ZN20complex_dynamic_type3app17h513c53f2c17cce6eE+0x6a>
   13a2a:	4505                	li	a0,1
   13a2c:	00aa8023          	sb	a0,0(s5)
   13a30:	00baa223          	sw	a1,4(s5)
   13a34:	a0bd                	j	13aa2 <_ZN20complex_dynamic_type3app17h513c53f2c17cce6eE+0xd6>
   13a36:	853e                	mv	a0,a5
   13a38:	4581                	li	a1,0
   13a3a:	8652                	mv	a2,s4
   13a3c:	009102a3          	sb	s1,5(sp)
   13a40:	478d                	li	a5,3
   13a42:	06300693          	li	a3,99
   13a46:	470d                	li	a4,3
   13a48:	00000073          	ecall
   13a4c:	00851d63          	bne	a0,s0,13a66 <_ZN20complex_dynamic_type3app17h513c53f2c17cce6eE+0x9a>
   13a50:	03014703          	lbu	a4,48(sp)
   13a54:	4505                	li	a0,1
   13a56:	4609                	li	a2,2
   13a58:	00aa8023          	sb	a0,0(s5)
   13a5c:	00baa223          	sw	a1,4(s5)
   13a60:	02c71963          	bne	a4,a2,13a92 <_ZN20complex_dynamic_type3app17h513c53f2c17cce6eE+0xc6>
   13a64:	a83d                	j	13aa2 <_ZN20complex_dynamic_type3app17h513c53f2c17cce6eE+0xd6>
   13a66:	4601                	li	a2,0
   13a68:	4681                	li	a3,0
   13a6a:	02f10823          	sb	a5,48(sp)
   13a6e:	6509                	lui	a0,0x2
   13a70:	4591                	li	a1,4
   13a72:	4709                	li	a4,2
   13a74:	c7c50513          	addi	a0,a0,-900 # 1c7c <.Lline_table_start1+0x1a51>
   13a78:	08000793          	li	a5,128
   13a7c:	00000073          	ecall
   13a80:	4609                	li	a2,2
   13a82:	04f57663          	bgeu	a0,a5,13ace <_ZN20complex_dynamic_type3app17h513c53f2c17cce6eE+0x102>
   13a86:	4505                	li	a0,1
   13a88:	00aa8023          	sb	a0,0(s5)
   13a8c:	00baa223          	sw	a1,4(s5)
   13a90:	470d                	li	a4,3
   13a92:	6509                	lui	a0,0x2
   13a94:	c7c50513          	addi	a0,a0,-900 # 1c7c <.Lline_table_start1+0x1a51>
   13a98:	4581                	li	a1,0
   13a9a:	4601                	li	a2,0
   13a9c:	4681                	li	a3,0
   13a9e:	00000073          	ecall
   13aa2:	00514703          	lbu	a4,5(sp)
   13aa6:	4509                	li	a0,2
   13aa8:	00a70a63          	beq	a4,a0,13abc <_ZN20complex_dynamic_type3app17h513c53f2c17cce6eE+0xf0>
   13aac:	6509                	lui	a0,0x2
   13aae:	c7c50513          	addi	a0,a0,-900 # 1c7c <.Lline_table_start1+0x1a51>
   13ab2:	4591                	li	a1,4
   13ab4:	4601                	li	a2,0
   13ab6:	4681                	li	a3,0
   13ab8:	00000073          	ecall
   13abc:	50ba                	lw	ra,172(sp)
   13abe:	542a                	lw	s0,168(sp)
   13ac0:	549a                	lw	s1,164(sp)
   13ac2:	590a                	lw	s2,160(sp)
   13ac4:	49fa                	lw	s3,156(sp)
   13ac6:	4a6a                	lw	s4,152(sp)
   13ac8:	4ada                	lw	s5,148(sp)
   13aca:	614d                	addi	sp,sp,176
   13acc:	8082                	ret
   13ace:	00514703          	lbu	a4,5(sp)
   13ad2:	00c71463          	bne	a4,a2,13ada <_ZN20complex_dynamic_type3app17h513c53f2c17cce6eE+0x10e>
   13ad6:	470d                	li	a4,3
   13ad8:	a825                	j	13b10 <_ZN20complex_dynamic_type3app17h513c53f2c17cce6eE+0x144>
   13ada:	6509                	lui	a0,0x2
   13adc:	c7c50513          	addi	a0,a0,-900 # 1c7c <.Lline_table_start1+0x1a51>
   13ae0:	4591                	li	a1,4
   13ae2:	4601                	li	a2,0
   13ae4:	4681                	li	a3,0
   13ae6:	00000073          	ecall
   13aea:	03014703          	lbu	a4,48(sp)
   13aee:	4509                	li	a0,2
   13af0:	00a102a3          	sb	a0,5(sp)
   13af4:	00a71e63          	bne	a4,a0,13b10 <_ZN20complex_dynamic_type3app17h513c53f2c17cce6eE+0x144>
   13af8:	001a8513          	addi	a0,s5,1
   13afc:	06300613          	li	a2,99
   13b00:	85d2                	mv	a1,s4
   13b02:	0000b097          	auipc	ra,0xb
   13b06:	a12080e7          	jalr	-1518(ra) # 1e514 <memcpy>
   13b0a:	000a8023          	sb	zero,0(s5)
   13b0e:	b77d                	j	13abc <_ZN20complex_dynamic_type3app17h513c53f2c17cce6eE+0xf0>
   13b10:	6509                	lui	a0,0x2
   13b12:	c7c50913          	addi	s2,a0,-900 # 1c7c <.Lline_table_start1+0x1a51>
   13b16:	854a                	mv	a0,s2
   13b18:	4581                	li	a1,0
   13b1a:	4601                	li	a2,0
   13b1c:	4681                	li	a3,0
   13b1e:	00000073          	ecall
   13b22:	00514983          	lbu	s3,5(sp)
   13b26:	001a8513          	addi	a0,s5,1
   13b2a:	06300613          	li	a2,99
   13b2e:	85d2                	mv	a1,s4
   13b30:	0000b097          	auipc	ra,0xb
   13b34:	9e4080e7          	jalr	-1564(ra) # 1e514 <memcpy>
   13b38:	4509                	li	a0,2
   13b3a:	000a8023          	sb	zero,0(s5)
   13b3e:	f6a98fe3          	beq	s3,a0,13abc <_ZN20complex_dynamic_type3app17h513c53f2c17cce6eE+0xf0>
   13b42:	4591                	li	a1,4
   13b44:	854a                	mv	a0,s2
   13b46:	4601                	li	a2,0
   13b48:	4681                	li	a3,0
   13b4a:	874e                	mv	a4,s3
   13b4c:	00000073          	ecall
   13b50:	b7b5                	j	13abc <_ZN20complex_dynamic_type3app17h513c53f2c17cce6eE+0xf0>

00013b52 <_ZN20complex_dynamic_type3app17h55c0a09cd52a665fE>:
   13b52:	7175                	addi	sp,sp,-144
   13b54:	c706                	sw	ra,140(sp)
   13b56:	c522                	sw	s0,136(sp)
   13b58:	c326                	sw	s1,132(sp)
   13b5a:	c14a                	sw	s2,128(sp)
   13b5c:	dece                	sw	s3,124(sp)
   13b5e:	dcd2                	sw	s4,120(sp)
   13b60:	dad6                	sw	s5,116(sp)
   13b62:	8aaa                	mv	s5,a0
   13b64:	4409                	li	s0,2
   13b66:	008105a3          	sb	s0,11(sp)
   13b6a:	0064                	addi	s1,sp,12
   13b6c:	04400613          	li	a2,68
   13b70:	8526                	mv	a0,s1
   13b72:	0000b097          	auipc	ra,0xb
   13b76:	9a2080e7          	jalr	-1630(ra) # 1e514 <memcpy>
   13b7a:	05110a13          	addi	s4,sp,81
   13b7e:	02300613          	li	a2,35
   13b82:	8552                	mv	a0,s4
   13b84:	4581                	li	a1,0
   13b86:	0000b097          	auipc	ra,0xb
   13b8a:	922080e7          	jalr	-1758(ra) # 1e4a8 <memset>
   13b8e:	8626                	mv	a2,s1
   13b90:	04810823          	sb	s0,80(sp)
   13b94:	6505                	lui	a0,0x1
   13b96:	4491                	li	s1,4
   13b98:	4599                	li	a1,6
   13b9a:	9bf50793          	addi	a5,a0,-1601 # 9bf <.Lline_table_start1+0x794>
   13b9e:	04400693          	li	a3,68
   13ba2:	4711                	li	a4,4
   13ba4:	853e                	mv	a0,a5
   13ba6:	00000073          	ecall
   13baa:	00851863          	bne	a0,s0,13bba <_ZN20complex_dynamic_type3app17h55c0a09cd52a665fE+0x68>
   13bae:	4505                	li	a0,1
   13bb0:	00aa8023          	sb	a0,0(s5)
   13bb4:	00baa223          	sw	a1,4(s5)
   13bb8:	a0bd                	j	13c26 <_ZN20complex_dynamic_type3app17h55c0a09cd52a665fE+0xd4>
   13bba:	853e                	mv	a0,a5
   13bbc:	8652                	mv	a2,s4
   13bbe:	009105a3          	sb	s1,11(sp)
   13bc2:	478d                	li	a5,3
   13bc4:	458d                	li	a1,3
   13bc6:	02300693          	li	a3,35
   13bca:	470d                	li	a4,3
   13bcc:	00000073          	ecall
   13bd0:	00851d63          	bne	a0,s0,13bea <_ZN20complex_dynamic_type3app17h55c0a09cd52a665fE+0x98>
   13bd4:	05014703          	lbu	a4,80(sp)
   13bd8:	4505                	li	a0,1
   13bda:	4609                	li	a2,2
   13bdc:	00aa8023          	sb	a0,0(s5)
   13be0:	00baa223          	sw	a1,4(s5)
   13be4:	02c71963          	bne	a4,a2,13c16 <_ZN20complex_dynamic_type3app17h55c0a09cd52a665fE+0xc4>
   13be8:	a83d                	j	13c26 <_ZN20complex_dynamic_type3app17h55c0a09cd52a665fE+0xd4>
   13bea:	4681                	li	a3,0
   13bec:	04f10823          	sb	a5,80(sp)
   13bf0:	6505                	lui	a0,0x1
   13bf2:	4599                	li	a1,6
   13bf4:	460d                	li	a2,3
   13bf6:	4709                	li	a4,2
   13bf8:	9bf50513          	addi	a0,a0,-1601 # 9bf <.Lline_table_start1+0x794>
   13bfc:	08000793          	li	a5,128
   13c00:	00000073          	ecall
   13c04:	4609                	li	a2,2
   13c06:	04f57663          	bgeu	a0,a5,13c52 <_ZN20complex_dynamic_type3app17h55c0a09cd52a665fE+0x100>
   13c0a:	4505                	li	a0,1
   13c0c:	00aa8023          	sb	a0,0(s5)
   13c10:	00baa223          	sw	a1,4(s5)
   13c14:	470d                	li	a4,3
   13c16:	6505                	lui	a0,0x1
   13c18:	9bf50513          	addi	a0,a0,-1601 # 9bf <.Lline_table_start1+0x794>
   13c1c:	458d                	li	a1,3
   13c1e:	4601                	li	a2,0
   13c20:	4681                	li	a3,0
   13c22:	00000073          	ecall
   13c26:	00b14703          	lbu	a4,11(sp)
   13c2a:	4509                	li	a0,2
   13c2c:	00a70a63          	beq	a4,a0,13c40 <_ZN20complex_dynamic_type3app17h55c0a09cd52a665fE+0xee>
   13c30:	6505                	lui	a0,0x1
   13c32:	9bf50513          	addi	a0,a0,-1601 # 9bf <.Lline_table_start1+0x794>
   13c36:	4599                	li	a1,6
   13c38:	4601                	li	a2,0
   13c3a:	4681                	li	a3,0
   13c3c:	00000073          	ecall
   13c40:	40ba                	lw	ra,140(sp)
   13c42:	442a                	lw	s0,136(sp)
   13c44:	449a                	lw	s1,132(sp)
   13c46:	490a                	lw	s2,128(sp)
   13c48:	59f6                	lw	s3,124(sp)
   13c4a:	5a66                	lw	s4,120(sp)
   13c4c:	5ad6                	lw	s5,116(sp)
   13c4e:	6149                	addi	sp,sp,144
   13c50:	8082                	ret
   13c52:	00b14703          	lbu	a4,11(sp)
   13c56:	00c71463          	bne	a4,a2,13c5e <_ZN20complex_dynamic_type3app17h55c0a09cd52a665fE+0x10c>
   13c5a:	470d                	li	a4,3
   13c5c:	a825                	j	13c94 <_ZN20complex_dynamic_type3app17h55c0a09cd52a665fE+0x142>
   13c5e:	6505                	lui	a0,0x1
   13c60:	9bf50513          	addi	a0,a0,-1601 # 9bf <.Lline_table_start1+0x794>
   13c64:	4599                	li	a1,6
   13c66:	4601                	li	a2,0
   13c68:	4681                	li	a3,0
   13c6a:	00000073          	ecall
   13c6e:	05014703          	lbu	a4,80(sp)
   13c72:	4509                	li	a0,2
   13c74:	00a105a3          	sb	a0,11(sp)
   13c78:	00a71e63          	bne	a4,a0,13c94 <_ZN20complex_dynamic_type3app17h55c0a09cd52a665fE+0x142>
   13c7c:	001a8513          	addi	a0,s5,1
   13c80:	02300613          	li	a2,35
   13c84:	85d2                	mv	a1,s4
   13c86:	0000b097          	auipc	ra,0xb
   13c8a:	88e080e7          	jalr	-1906(ra) # 1e514 <memcpy>
   13c8e:	000a8023          	sb	zero,0(s5)
   13c92:	b77d                	j	13c40 <_ZN20complex_dynamic_type3app17h55c0a09cd52a665fE+0xee>
   13c94:	6505                	lui	a0,0x1
   13c96:	9bf50913          	addi	s2,a0,-1601 # 9bf <.Lline_table_start1+0x794>
   13c9a:	458d                	li	a1,3
   13c9c:	854a                	mv	a0,s2
   13c9e:	4601                	li	a2,0
   13ca0:	4681                	li	a3,0
   13ca2:	00000073          	ecall
   13ca6:	00b14983          	lbu	s3,11(sp)
   13caa:	001a8513          	addi	a0,s5,1
   13cae:	02300613          	li	a2,35
   13cb2:	85d2                	mv	a1,s4
   13cb4:	0000b097          	auipc	ra,0xb
   13cb8:	860080e7          	jalr	-1952(ra) # 1e514 <memcpy>
   13cbc:	4509                	li	a0,2
   13cbe:	000a8023          	sb	zero,0(s5)
   13cc2:	f6a98fe3          	beq	s3,a0,13c40 <_ZN20complex_dynamic_type3app17h55c0a09cd52a665fE+0xee>
   13cc6:	4599                	li	a1,6
   13cc8:	854a                	mv	a0,s2
   13cca:	4601                	li	a2,0
   13ccc:	4681                	li	a3,0
   13cce:	874e                	mv	a4,s3
   13cd0:	00000073          	ecall
   13cd4:	b7b5                	j	13c40 <_ZN20complex_dynamic_type3app17h55c0a09cd52a665fE+0xee>

00013cd6 <_ZN20complex_dynamic_type3app17h57be45c0c6adcb42E>:
   13cd6:	7159                	addi	sp,sp,-112
   13cd8:	d686                	sw	ra,108(sp)
   13cda:	d4a2                	sw	s0,104(sp)
   13cdc:	d2a6                	sw	s1,100(sp)
   13cde:	d0ca                	sw	s2,96(sp)
   13ce0:	cece                	sw	s3,92(sp)
   13ce2:	ccd2                	sw	s4,88(sp)
   13ce4:	8a2a                	mv	s4,a0
   13ce6:	4409                	li	s0,2
   13ce8:	008102a3          	sb	s0,5(sp)
   13cec:	00610493          	addi	s1,sp,6
   13cf0:	02c00613          	li	a2,44
   13cf4:	8526                	mv	a0,s1
   13cf6:	0000b097          	auipc	ra,0xb
   13cfa:	81e080e7          	jalr	-2018(ra) # 1e514 <memcpy>
   13cfe:	03310993          	addi	s3,sp,51
   13d02:	02500613          	li	a2,37
   13d06:	854e                	mv	a0,s3
   13d08:	4581                	li	a1,0
   13d0a:	0000a097          	auipc	ra,0xa
   13d0e:	79e080e7          	jalr	1950(ra) # 1e4a8 <memset>
   13d12:	8626                	mv	a2,s1
   13d14:	02810923          	sb	s0,50(sp)
   13d18:	4791                	li	a5,4
   13d1a:	77f00513          	li	a0,1919
   13d1e:	458d                	li	a1,3
   13d20:	02c00693          	li	a3,44
   13d24:	4711                	li	a4,4
   13d26:	00000073          	ecall
   13d2a:	00851863          	bne	a0,s0,13d3a <_ZN20complex_dynamic_type3app17h57be45c0c6adcb42E+0x64>
   13d2e:	4505                	li	a0,1
   13d30:	00aa0023          	sb	a0,0(s4)
   13d34:	00ba2223          	sw	a1,4(s4)
   13d38:	a0b5                	j	13da4 <_ZN20complex_dynamic_type3app17h57be45c0c6adcb42E+0xce>
   13d3a:	4581                	li	a1,0
   13d3c:	864e                	mv	a2,s3
   13d3e:	00f102a3          	sb	a5,5(sp)
   13d42:	478d                	li	a5,3
   13d44:	77f00513          	li	a0,1919
   13d48:	02500693          	li	a3,37
   13d4c:	470d                	li	a4,3
   13d4e:	00000073          	ecall
   13d52:	00851d63          	bne	a0,s0,13d6c <_ZN20complex_dynamic_type3app17h57be45c0c6adcb42E+0x96>
   13d56:	03214703          	lbu	a4,50(sp)
   13d5a:	4505                	li	a0,1
   13d5c:	4609                	li	a2,2
   13d5e:	00aa0023          	sb	a0,0(s4)
   13d62:	00ba2223          	sw	a1,4(s4)
   13d66:	02c71863          	bne	a4,a2,13d96 <_ZN20complex_dynamic_type3app17h57be45c0c6adcb42E+0xc0>
   13d6a:	a82d                	j	13da4 <_ZN20complex_dynamic_type3app17h57be45c0c6adcb42E+0xce>
   13d6c:	4601                	li	a2,0
   13d6e:	4681                	li	a3,0
   13d70:	02f10923          	sb	a5,50(sp)
   13d74:	77f00513          	li	a0,1919
   13d78:	458d                	li	a1,3
   13d7a:	4709                	li	a4,2
   13d7c:	08000793          	li	a5,128
   13d80:	00000073          	ecall
   13d84:	4609                	li	a2,2
   13d86:	04f57363          	bgeu	a0,a5,13dcc <_ZN20complex_dynamic_type3app17h57be45c0c6adcb42E+0xf6>
   13d8a:	4505                	li	a0,1
   13d8c:	00aa0023          	sb	a0,0(s4)
   13d90:	00ba2223          	sw	a1,4(s4)
   13d94:	470d                	li	a4,3
   13d96:	77f00513          	li	a0,1919
   13d9a:	4581                	li	a1,0
   13d9c:	4601                	li	a2,0
   13d9e:	4681                	li	a3,0
   13da0:	00000073          	ecall
   13da4:	00514703          	lbu	a4,5(sp)
   13da8:	4509                	li	a0,2
   13daa:	00a70963          	beq	a4,a0,13dbc <_ZN20complex_dynamic_type3app17h57be45c0c6adcb42E+0xe6>
   13dae:	77f00513          	li	a0,1919
   13db2:	458d                	li	a1,3
   13db4:	4601                	li	a2,0
   13db6:	4681                	li	a3,0
   13db8:	00000073          	ecall
   13dbc:	50b6                	lw	ra,108(sp)
   13dbe:	5426                	lw	s0,104(sp)
   13dc0:	5496                	lw	s1,100(sp)
   13dc2:	5906                	lw	s2,96(sp)
   13dc4:	49f6                	lw	s3,92(sp)
   13dc6:	4a66                	lw	s4,88(sp)
   13dc8:	6165                	addi	sp,sp,112
   13dca:	8082                	ret
   13dcc:	00514703          	lbu	a4,5(sp)
   13dd0:	00c71463          	bne	a4,a2,13dd8 <_ZN20complex_dynamic_type3app17h57be45c0c6adcb42E+0x102>
   13dd4:	470d                	li	a4,3
   13dd6:	a81d                	j	13e0c <_ZN20complex_dynamic_type3app17h57be45c0c6adcb42E+0x136>
   13dd8:	77f00513          	li	a0,1919
   13ddc:	458d                	li	a1,3
   13dde:	4601                	li	a2,0
   13de0:	4681                	li	a3,0
   13de2:	00000073          	ecall
   13de6:	03214703          	lbu	a4,50(sp)
   13dea:	4509                	li	a0,2
   13dec:	00a102a3          	sb	a0,5(sp)
   13df0:	00a71e63          	bne	a4,a0,13e0c <_ZN20complex_dynamic_type3app17h57be45c0c6adcb42E+0x136>
   13df4:	001a0513          	addi	a0,s4,1
   13df8:	02500613          	li	a2,37
   13dfc:	85ce                	mv	a1,s3
   13dfe:	0000a097          	auipc	ra,0xa
   13e02:	716080e7          	jalr	1814(ra) # 1e514 <memcpy>
   13e06:	000a0023          	sb	zero,0(s4)
   13e0a:	bf4d                	j	13dbc <_ZN20complex_dynamic_type3app17h57be45c0c6adcb42E+0xe6>
   13e0c:	77f00513          	li	a0,1919
   13e10:	4581                	li	a1,0
   13e12:	4601                	li	a2,0
   13e14:	4681                	li	a3,0
   13e16:	00000073          	ecall
   13e1a:	00514903          	lbu	s2,5(sp)
   13e1e:	001a0513          	addi	a0,s4,1
   13e22:	02500613          	li	a2,37
   13e26:	85ce                	mv	a1,s3
   13e28:	0000a097          	auipc	ra,0xa
   13e2c:	6ec080e7          	jalr	1772(ra) # 1e514 <memcpy>
   13e30:	4509                	li	a0,2
   13e32:	000a0023          	sb	zero,0(s4)
   13e36:	f8a903e3          	beq	s2,a0,13dbc <_ZN20complex_dynamic_type3app17h57be45c0c6adcb42E+0xe6>
   13e3a:	77f00513          	li	a0,1919
   13e3e:	458d                	li	a1,3
   13e40:	4601                	li	a2,0
   13e42:	4681                	li	a3,0
   13e44:	874a                	mv	a4,s2
   13e46:	00000073          	ecall
   13e4a:	bf8d                	j	13dbc <_ZN20complex_dynamic_type3app17h57be45c0c6adcb42E+0xe6>

00013e4c <_ZN20complex_dynamic_type3app17h581e8fc3be0e32bdE>:
   13e4c:	7171                	addi	sp,sp,-176
   13e4e:	d706                	sw	ra,172(sp)
   13e50:	d522                	sw	s0,168(sp)
   13e52:	d326                	sw	s1,164(sp)
   13e54:	d14a                	sw	s2,160(sp)
   13e56:	cf4e                	sw	s3,156(sp)
   13e58:	cd52                	sw	s4,152(sp)
   13e5a:	cb56                	sw	s5,148(sp)
   13e5c:	8aaa                	mv	s5,a0
   13e5e:	4409                	li	s0,2
   13e60:	00810423          	sb	s0,8(sp)
   13e64:	00910493          	addi	s1,sp,9
   13e68:	04f00613          	li	a2,79
   13e6c:	8526                	mv	a0,s1
   13e6e:	0000a097          	auipc	ra,0xa
   13e72:	6a6080e7          	jalr	1702(ra) # 1e514 <memcpy>
   13e76:	05910a13          	addi	s4,sp,89
   13e7a:	03b00613          	li	a2,59
   13e7e:	8552                	mv	a0,s4
   13e80:	4581                	li	a1,0
   13e82:	0000a097          	auipc	ra,0xa
   13e86:	626080e7          	jalr	1574(ra) # 1e4a8 <memset>
   13e8a:	8626                	mv	a2,s1
   13e8c:	04810c23          	sb	s0,88(sp)
   13e90:	6505                	lui	a0,0x1
   13e92:	4491                	li	s1,4
   13e94:	45a1                	li	a1,8
   13e96:	a0650793          	addi	a5,a0,-1530 # a06 <.Lline_table_start1+0x7db>
   13e9a:	04f00693          	li	a3,79
   13e9e:	4711                	li	a4,4
   13ea0:	853e                	mv	a0,a5
   13ea2:	00000073          	ecall
   13ea6:	00851863          	bne	a0,s0,13eb6 <_ZN20complex_dynamic_type3app17h581e8fc3be0e32bdE+0x6a>
   13eaa:	4505                	li	a0,1
   13eac:	00aa8023          	sb	a0,0(s5)
   13eb0:	00baa223          	sw	a1,4(s5)
   13eb4:	a0bd                	j	13f22 <_ZN20complex_dynamic_type3app17h581e8fc3be0e32bdE+0xd6>
   13eb6:	853e                	mv	a0,a5
   13eb8:	8652                	mv	a2,s4
   13eba:	00910423          	sb	s1,8(sp)
   13ebe:	478d                	li	a5,3
   13ec0:	4595                	li	a1,5
   13ec2:	03b00693          	li	a3,59
   13ec6:	470d                	li	a4,3
   13ec8:	00000073          	ecall
   13ecc:	00851d63          	bne	a0,s0,13ee6 <_ZN20complex_dynamic_type3app17h581e8fc3be0e32bdE+0x9a>
   13ed0:	05814703          	lbu	a4,88(sp)
   13ed4:	4505                	li	a0,1
   13ed6:	4609                	li	a2,2
   13ed8:	00aa8023          	sb	a0,0(s5)
   13edc:	00baa223          	sw	a1,4(s5)
   13ee0:	02c71963          	bne	a4,a2,13f12 <_ZN20complex_dynamic_type3app17h581e8fc3be0e32bdE+0xc6>
   13ee4:	a83d                	j	13f22 <_ZN20complex_dynamic_type3app17h581e8fc3be0e32bdE+0xd6>
   13ee6:	4681                	li	a3,0
   13ee8:	04f10c23          	sb	a5,88(sp)
   13eec:	6505                	lui	a0,0x1
   13eee:	45a1                	li	a1,8
   13ef0:	4615                	li	a2,5
   13ef2:	4709                	li	a4,2
   13ef4:	a0650513          	addi	a0,a0,-1530 # a06 <.Lline_table_start1+0x7db>
   13ef8:	08000793          	li	a5,128
   13efc:	00000073          	ecall
   13f00:	4609                	li	a2,2
   13f02:	04f57663          	bgeu	a0,a5,13f4e <_ZN20complex_dynamic_type3app17h581e8fc3be0e32bdE+0x102>
   13f06:	4505                	li	a0,1
   13f08:	00aa8023          	sb	a0,0(s5)
   13f0c:	00baa223          	sw	a1,4(s5)
   13f10:	470d                	li	a4,3
   13f12:	6505                	lui	a0,0x1
   13f14:	a0650513          	addi	a0,a0,-1530 # a06 <.Lline_table_start1+0x7db>
   13f18:	4595                	li	a1,5
   13f1a:	4601                	li	a2,0
   13f1c:	4681                	li	a3,0
   13f1e:	00000073          	ecall
   13f22:	00814703          	lbu	a4,8(sp)
   13f26:	4509                	li	a0,2
   13f28:	00a70a63          	beq	a4,a0,13f3c <_ZN20complex_dynamic_type3app17h581e8fc3be0e32bdE+0xf0>
   13f2c:	6505                	lui	a0,0x1
   13f2e:	a0650513          	addi	a0,a0,-1530 # a06 <.Lline_table_start1+0x7db>
   13f32:	45a1                	li	a1,8
   13f34:	4601                	li	a2,0
   13f36:	4681                	li	a3,0
   13f38:	00000073          	ecall
   13f3c:	50ba                	lw	ra,172(sp)
   13f3e:	542a                	lw	s0,168(sp)
   13f40:	549a                	lw	s1,164(sp)
   13f42:	590a                	lw	s2,160(sp)
   13f44:	49fa                	lw	s3,156(sp)
   13f46:	4a6a                	lw	s4,152(sp)
   13f48:	4ada                	lw	s5,148(sp)
   13f4a:	614d                	addi	sp,sp,176
   13f4c:	8082                	ret
   13f4e:	00814703          	lbu	a4,8(sp)
   13f52:	00c71463          	bne	a4,a2,13f5a <_ZN20complex_dynamic_type3app17h581e8fc3be0e32bdE+0x10e>
   13f56:	470d                	li	a4,3
   13f58:	a825                	j	13f90 <_ZN20complex_dynamic_type3app17h581e8fc3be0e32bdE+0x144>
   13f5a:	6505                	lui	a0,0x1
   13f5c:	a0650513          	addi	a0,a0,-1530 # a06 <.Lline_table_start1+0x7db>
   13f60:	45a1                	li	a1,8
   13f62:	4601                	li	a2,0
   13f64:	4681                	li	a3,0
   13f66:	00000073          	ecall
   13f6a:	05814703          	lbu	a4,88(sp)
   13f6e:	4509                	li	a0,2
   13f70:	00a10423          	sb	a0,8(sp)
   13f74:	00a71e63          	bne	a4,a0,13f90 <_ZN20complex_dynamic_type3app17h581e8fc3be0e32bdE+0x144>
   13f78:	001a8513          	addi	a0,s5,1
   13f7c:	03b00613          	li	a2,59
   13f80:	85d2                	mv	a1,s4
   13f82:	0000a097          	auipc	ra,0xa
   13f86:	592080e7          	jalr	1426(ra) # 1e514 <memcpy>
   13f8a:	000a8023          	sb	zero,0(s5)
   13f8e:	b77d                	j	13f3c <_ZN20complex_dynamic_type3app17h581e8fc3be0e32bdE+0xf0>
   13f90:	6505                	lui	a0,0x1
   13f92:	a0650913          	addi	s2,a0,-1530 # a06 <.Lline_table_start1+0x7db>
   13f96:	4595                	li	a1,5
   13f98:	854a                	mv	a0,s2
   13f9a:	4601                	li	a2,0
   13f9c:	4681                	li	a3,0
   13f9e:	00000073          	ecall
   13fa2:	00814983          	lbu	s3,8(sp)
   13fa6:	001a8513          	addi	a0,s5,1
   13faa:	03b00613          	li	a2,59
   13fae:	85d2                	mv	a1,s4
   13fb0:	0000a097          	auipc	ra,0xa
   13fb4:	564080e7          	jalr	1380(ra) # 1e514 <memcpy>
   13fb8:	4509                	li	a0,2
   13fba:	000a8023          	sb	zero,0(s5)
   13fbe:	f6a98fe3          	beq	s3,a0,13f3c <_ZN20complex_dynamic_type3app17h581e8fc3be0e32bdE+0xf0>
   13fc2:	45a1                	li	a1,8
   13fc4:	854a                	mv	a0,s2
   13fc6:	4601                	li	a2,0
   13fc8:	4681                	li	a3,0
   13fca:	874e                	mv	a4,s3
   13fcc:	00000073          	ecall
   13fd0:	b7b5                	j	13f3c <_ZN20complex_dynamic_type3app17h581e8fc3be0e32bdE+0xf0>

00013fd2 <_ZN20complex_dynamic_type3app17h599f2dad14098ebcE>:
   13fd2:	7119                	addi	sp,sp,-128
   13fd4:	de86                	sw	ra,124(sp)
   13fd6:	dca2                	sw	s0,120(sp)
   13fd8:	daa6                	sw	s1,116(sp)
   13fda:	d8ca                	sw	s2,112(sp)
   13fdc:	d6ce                	sw	s3,108(sp)
   13fde:	d4d2                	sw	s4,104(sp)
   13fe0:	d2d6                	sw	s5,100(sp)
   13fe2:	8aaa                	mv	s5,a0
   13fe4:	4409                	li	s0,2
   13fe6:	008100a3          	sb	s0,1(sp)
   13fea:	00210493          	addi	s1,sp,2
   13fee:	4645                	li	a2,17
   13ff0:	8526                	mv	a0,s1
   13ff2:	0000a097          	auipc	ra,0xa
   13ff6:	522080e7          	jalr	1314(ra) # 1e514 <memcpy>
   13ffa:	01410a13          	addi	s4,sp,20
   13ffe:	05000613          	li	a2,80
   14002:	8552                	mv	a0,s4
   14004:	4581                	li	a1,0
   14006:	0000a097          	auipc	ra,0xa
   1400a:	4a2080e7          	jalr	1186(ra) # 1e4a8 <memset>
   1400e:	8626                	mv	a2,s1
   14010:	008109a3          	sb	s0,19(sp)
   14014:	6509                	lui	a0,0x2
   14016:	4491                	li	s1,4
   14018:	4599                	li	a1,6
   1401a:	aa950793          	addi	a5,a0,-1367 # 1aa9 <.Lline_table_start1+0x187e>
   1401e:	46c5                	li	a3,17
   14020:	4711                	li	a4,4
   14022:	853e                	mv	a0,a5
   14024:	00000073          	ecall
   14028:	00851863          	bne	a0,s0,14038 <_ZN20complex_dynamic_type3app17h599f2dad14098ebcE+0x66>
   1402c:	4505                	li	a0,1
   1402e:	00aa8023          	sb	a0,0(s5)
   14032:	00baa223          	sw	a1,4(s5)
   14036:	a0bd                	j	140a4 <_ZN20complex_dynamic_type3app17h599f2dad14098ebcE+0xd2>
   14038:	853e                	mv	a0,a5
   1403a:	8652                	mv	a2,s4
   1403c:	009100a3          	sb	s1,1(sp)
   14040:	478d                	li	a5,3
   14042:	4595                	li	a1,5
   14044:	05000693          	li	a3,80
   14048:	470d                	li	a4,3
   1404a:	00000073          	ecall
   1404e:	00851d63          	bne	a0,s0,14068 <_ZN20complex_dynamic_type3app17h599f2dad14098ebcE+0x96>
   14052:	01314703          	lbu	a4,19(sp)
   14056:	4505                	li	a0,1
   14058:	4609                	li	a2,2
   1405a:	00aa8023          	sb	a0,0(s5)
   1405e:	00baa223          	sw	a1,4(s5)
   14062:	02c71963          	bne	a4,a2,14094 <_ZN20complex_dynamic_type3app17h599f2dad14098ebcE+0xc2>
   14066:	a83d                	j	140a4 <_ZN20complex_dynamic_type3app17h599f2dad14098ebcE+0xd2>
   14068:	4681                	li	a3,0
   1406a:	00f109a3          	sb	a5,19(sp)
   1406e:	6509                	lui	a0,0x2
   14070:	4599                	li	a1,6
   14072:	4615                	li	a2,5
   14074:	4709                	li	a4,2
   14076:	aa950513          	addi	a0,a0,-1367 # 1aa9 <.Lline_table_start1+0x187e>
   1407a:	08000793          	li	a5,128
   1407e:	00000073          	ecall
   14082:	4609                	li	a2,2
   14084:	04f57663          	bgeu	a0,a5,140d0 <_ZN20complex_dynamic_type3app17h599f2dad14098ebcE+0xfe>
   14088:	4505                	li	a0,1
   1408a:	00aa8023          	sb	a0,0(s5)
   1408e:	00baa223          	sw	a1,4(s5)
   14092:	470d                	li	a4,3
   14094:	6509                	lui	a0,0x2
   14096:	aa950513          	addi	a0,a0,-1367 # 1aa9 <.Lline_table_start1+0x187e>
   1409a:	4595                	li	a1,5
   1409c:	4601                	li	a2,0
   1409e:	4681                	li	a3,0
   140a0:	00000073          	ecall
   140a4:	00114703          	lbu	a4,1(sp)
   140a8:	4509                	li	a0,2
   140aa:	00a70a63          	beq	a4,a0,140be <_ZN20complex_dynamic_type3app17h599f2dad14098ebcE+0xec>
   140ae:	6509                	lui	a0,0x2
   140b0:	aa950513          	addi	a0,a0,-1367 # 1aa9 <.Lline_table_start1+0x187e>
   140b4:	4599                	li	a1,6
   140b6:	4601                	li	a2,0
   140b8:	4681                	li	a3,0
   140ba:	00000073          	ecall
   140be:	50f6                	lw	ra,124(sp)
   140c0:	5466                	lw	s0,120(sp)
   140c2:	54d6                	lw	s1,116(sp)
   140c4:	5946                	lw	s2,112(sp)
   140c6:	59b6                	lw	s3,108(sp)
   140c8:	5a26                	lw	s4,104(sp)
   140ca:	5a96                	lw	s5,100(sp)
   140cc:	6109                	addi	sp,sp,128
   140ce:	8082                	ret
   140d0:	00114703          	lbu	a4,1(sp)
   140d4:	00c71463          	bne	a4,a2,140dc <_ZN20complex_dynamic_type3app17h599f2dad14098ebcE+0x10a>
   140d8:	470d                	li	a4,3
   140da:	a825                	j	14112 <_ZN20complex_dynamic_type3app17h599f2dad14098ebcE+0x140>
   140dc:	6509                	lui	a0,0x2
   140de:	aa950513          	addi	a0,a0,-1367 # 1aa9 <.Lline_table_start1+0x187e>
   140e2:	4599                	li	a1,6
   140e4:	4601                	li	a2,0
   140e6:	4681                	li	a3,0
   140e8:	00000073          	ecall
   140ec:	01314703          	lbu	a4,19(sp)
   140f0:	4509                	li	a0,2
   140f2:	00a100a3          	sb	a0,1(sp)
   140f6:	00a71e63          	bne	a4,a0,14112 <_ZN20complex_dynamic_type3app17h599f2dad14098ebcE+0x140>
   140fa:	001a8513          	addi	a0,s5,1
   140fe:	05000613          	li	a2,80
   14102:	85d2                	mv	a1,s4
   14104:	0000a097          	auipc	ra,0xa
   14108:	410080e7          	jalr	1040(ra) # 1e514 <memcpy>
   1410c:	000a8023          	sb	zero,0(s5)
   14110:	b77d                	j	140be <_ZN20complex_dynamic_type3app17h599f2dad14098ebcE+0xec>
   14112:	6509                	lui	a0,0x2
   14114:	aa950913          	addi	s2,a0,-1367 # 1aa9 <.Lline_table_start1+0x187e>
   14118:	4595                	li	a1,5
   1411a:	854a                	mv	a0,s2
   1411c:	4601                	li	a2,0
   1411e:	4681                	li	a3,0
   14120:	00000073          	ecall
   14124:	00114983          	lbu	s3,1(sp)
   14128:	001a8513          	addi	a0,s5,1
   1412c:	05000613          	li	a2,80
   14130:	85d2                	mv	a1,s4
   14132:	0000a097          	auipc	ra,0xa
   14136:	3e2080e7          	jalr	994(ra) # 1e514 <memcpy>
   1413a:	4509                	li	a0,2
   1413c:	000a8023          	sb	zero,0(s5)
   14140:	f6a98fe3          	beq	s3,a0,140be <_ZN20complex_dynamic_type3app17h599f2dad14098ebcE+0xec>
   14144:	4599                	li	a1,6
   14146:	854a                	mv	a0,s2
   14148:	4601                	li	a2,0
   1414a:	4681                	li	a3,0
   1414c:	874e                	mv	a4,s3
   1414e:	00000073          	ecall
   14152:	b7b5                	j	140be <_ZN20complex_dynamic_type3app17h599f2dad14098ebcE+0xec>

00014154 <_ZN20complex_dynamic_type3app17h631b8e38c99d86feE>:
   14154:	7131                	addi	sp,sp,-192
   14156:	df06                	sw	ra,188(sp)
   14158:	dd22                	sw	s0,184(sp)
   1415a:	db26                	sw	s1,180(sp)
   1415c:	d94a                	sw	s2,176(sp)
   1415e:	d74e                	sw	s3,172(sp)
   14160:	d552                	sw	s4,168(sp)
   14162:	d356                	sw	s5,164(sp)
   14164:	8aaa                	mv	s5,a0
   14166:	4409                	li	s0,2
   14168:	00810323          	sb	s0,6(sp)
   1416c:	00710493          	addi	s1,sp,7
   14170:	04600613          	li	a2,70
   14174:	8526                	mv	a0,s1
   14176:	0000a097          	auipc	ra,0xa
   1417a:	39e080e7          	jalr	926(ra) # 1e514 <memcpy>
   1417e:	04e10a13          	addi	s4,sp,78
   14182:	05600613          	li	a2,86
   14186:	8552                	mv	a0,s4
   14188:	4581                	li	a1,0
   1418a:	0000a097          	auipc	ra,0xa
   1418e:	31e080e7          	jalr	798(ra) # 1e4a8 <memset>
   14192:	8626                	mv	a2,s1
   14194:	048106a3          	sb	s0,77(sp)
   14198:	6509                	lui	a0,0x2
   1419a:	4491                	li	s1,4
   1419c:	459d                	li	a1,7
   1419e:	e5050793          	addi	a5,a0,-432 # 1e50 <.Lline_table_start1+0x1c25>
   141a2:	04600693          	li	a3,70
   141a6:	4711                	li	a4,4
   141a8:	853e                	mv	a0,a5
   141aa:	00000073          	ecall
   141ae:	00851863          	bne	a0,s0,141be <_ZN20complex_dynamic_type3app17h631b8e38c99d86feE+0x6a>
   141b2:	4505                	li	a0,1
   141b4:	00aa8023          	sb	a0,0(s5)
   141b8:	00baa223          	sw	a1,4(s5)
   141bc:	a0bd                	j	1422a <_ZN20complex_dynamic_type3app17h631b8e38c99d86feE+0xd6>
   141be:	853e                	mv	a0,a5
   141c0:	8652                	mv	a2,s4
   141c2:	00910323          	sb	s1,6(sp)
   141c6:	478d                	li	a5,3
   141c8:	458d                	li	a1,3
   141ca:	05600693          	li	a3,86
   141ce:	470d                	li	a4,3
   141d0:	00000073          	ecall
   141d4:	00851d63          	bne	a0,s0,141ee <_ZN20complex_dynamic_type3app17h631b8e38c99d86feE+0x9a>
   141d8:	04d14703          	lbu	a4,77(sp)
   141dc:	4505                	li	a0,1
   141de:	4609                	li	a2,2
   141e0:	00aa8023          	sb	a0,0(s5)
   141e4:	00baa223          	sw	a1,4(s5)
   141e8:	02c71963          	bne	a4,a2,1421a <_ZN20complex_dynamic_type3app17h631b8e38c99d86feE+0xc6>
   141ec:	a83d                	j	1422a <_ZN20complex_dynamic_type3app17h631b8e38c99d86feE+0xd6>
   141ee:	4681                	li	a3,0
   141f0:	04f106a3          	sb	a5,77(sp)
   141f4:	6509                	lui	a0,0x2
   141f6:	459d                	li	a1,7
   141f8:	460d                	li	a2,3
   141fa:	4709                	li	a4,2
   141fc:	e5050513          	addi	a0,a0,-432 # 1e50 <.Lline_table_start1+0x1c25>
   14200:	08000793          	li	a5,128
   14204:	00000073          	ecall
   14208:	4609                	li	a2,2
   1420a:	04f57663          	bgeu	a0,a5,14256 <_ZN20complex_dynamic_type3app17h631b8e38c99d86feE+0x102>
   1420e:	4505                	li	a0,1
   14210:	00aa8023          	sb	a0,0(s5)
   14214:	00baa223          	sw	a1,4(s5)
   14218:	470d                	li	a4,3
   1421a:	6509                	lui	a0,0x2
   1421c:	e5050513          	addi	a0,a0,-432 # 1e50 <.Lline_table_start1+0x1c25>
   14220:	458d                	li	a1,3
   14222:	4601                	li	a2,0
   14224:	4681                	li	a3,0
   14226:	00000073          	ecall
   1422a:	00614703          	lbu	a4,6(sp)
   1422e:	4509                	li	a0,2
   14230:	00a70a63          	beq	a4,a0,14244 <_ZN20complex_dynamic_type3app17h631b8e38c99d86feE+0xf0>
   14234:	6509                	lui	a0,0x2
   14236:	e5050513          	addi	a0,a0,-432 # 1e50 <.Lline_table_start1+0x1c25>
   1423a:	459d                	li	a1,7
   1423c:	4601                	li	a2,0
   1423e:	4681                	li	a3,0
   14240:	00000073          	ecall
   14244:	50fa                	lw	ra,188(sp)
   14246:	546a                	lw	s0,184(sp)
   14248:	54da                	lw	s1,180(sp)
   1424a:	594a                	lw	s2,176(sp)
   1424c:	59ba                	lw	s3,172(sp)
   1424e:	5a2a                	lw	s4,168(sp)
   14250:	5a9a                	lw	s5,164(sp)
   14252:	6129                	addi	sp,sp,192
   14254:	8082                	ret
   14256:	00614703          	lbu	a4,6(sp)
   1425a:	00c71463          	bne	a4,a2,14262 <_ZN20complex_dynamic_type3app17h631b8e38c99d86feE+0x10e>
   1425e:	470d                	li	a4,3
   14260:	a825                	j	14298 <_ZN20complex_dynamic_type3app17h631b8e38c99d86feE+0x144>
   14262:	6509                	lui	a0,0x2
   14264:	e5050513          	addi	a0,a0,-432 # 1e50 <.Lline_table_start1+0x1c25>
   14268:	459d                	li	a1,7
   1426a:	4601                	li	a2,0
   1426c:	4681                	li	a3,0
   1426e:	00000073          	ecall
   14272:	04d14703          	lbu	a4,77(sp)
   14276:	4509                	li	a0,2
   14278:	00a10323          	sb	a0,6(sp)
   1427c:	00a71e63          	bne	a4,a0,14298 <_ZN20complex_dynamic_type3app17h631b8e38c99d86feE+0x144>
   14280:	001a8513          	addi	a0,s5,1
   14284:	05600613          	li	a2,86
   14288:	85d2                	mv	a1,s4
   1428a:	0000a097          	auipc	ra,0xa
   1428e:	28a080e7          	jalr	650(ra) # 1e514 <memcpy>
   14292:	000a8023          	sb	zero,0(s5)
   14296:	b77d                	j	14244 <_ZN20complex_dynamic_type3app17h631b8e38c99d86feE+0xf0>
   14298:	6509                	lui	a0,0x2
   1429a:	e5050913          	addi	s2,a0,-432 # 1e50 <.Lline_table_start1+0x1c25>
   1429e:	458d                	li	a1,3
   142a0:	854a                	mv	a0,s2
   142a2:	4601                	li	a2,0
   142a4:	4681                	li	a3,0
   142a6:	00000073          	ecall
   142aa:	00614983          	lbu	s3,6(sp)
   142ae:	001a8513          	addi	a0,s5,1
   142b2:	05600613          	li	a2,86
   142b6:	85d2                	mv	a1,s4
   142b8:	0000a097          	auipc	ra,0xa
   142bc:	25c080e7          	jalr	604(ra) # 1e514 <memcpy>
   142c0:	4509                	li	a0,2
   142c2:	000a8023          	sb	zero,0(s5)
   142c6:	f6a98fe3          	beq	s3,a0,14244 <_ZN20complex_dynamic_type3app17h631b8e38c99d86feE+0xf0>
   142ca:	459d                	li	a1,7
   142cc:	854a                	mv	a0,s2
   142ce:	4601                	li	a2,0
   142d0:	4681                	li	a3,0
   142d2:	874e                	mv	a4,s3
   142d4:	00000073          	ecall
   142d8:	b7b5                	j	14244 <_ZN20complex_dynamic_type3app17h631b8e38c99d86feE+0xf0>

000142da <_ZN20complex_dynamic_type3app17h63ce48baba51a4eeE>:
   142da:	7175                	addi	sp,sp,-144
   142dc:	c706                	sw	ra,140(sp)
   142de:	c522                	sw	s0,136(sp)
   142e0:	c326                	sw	s1,132(sp)
   142e2:	c14a                	sw	s2,128(sp)
   142e4:	dece                	sw	s3,124(sp)
   142e6:	dcd2                	sw	s4,120(sp)
   142e8:	dad6                	sw	s5,116(sp)
   142ea:	8aaa                	mv	s5,a0
   142ec:	4409                	li	s0,2
   142ee:	00810723          	sb	s0,14(sp)
   142f2:	00f10493          	addi	s1,sp,15
   142f6:	03200613          	li	a2,50
   142fa:	8526                	mv	a0,s1
   142fc:	0000a097          	auipc	ra,0xa
   14300:	218080e7          	jalr	536(ra) # 1e514 <memcpy>
   14304:	04210a13          	addi	s4,sp,66
   14308:	03200613          	li	a2,50
   1430c:	8552                	mv	a0,s4
   1430e:	4581                	li	a1,0
   14310:	0000a097          	auipc	ra,0xa
   14314:	198080e7          	jalr	408(ra) # 1e4a8 <memset>
   14318:	8626                	mv	a2,s1
   1431a:	048100a3          	sb	s0,65(sp)
   1431e:	6509                	lui	a0,0x2
   14320:	4491                	li	s1,4
   14322:	458d                	li	a1,3
   14324:	f0750793          	addi	a5,a0,-249 # 1f07 <.Lline_table_start1+0x1cdc>
   14328:	03200693          	li	a3,50
   1432c:	4711                	li	a4,4
   1432e:	853e                	mv	a0,a5
   14330:	00000073          	ecall
   14334:	00851863          	bne	a0,s0,14344 <_ZN20complex_dynamic_type3app17h63ce48baba51a4eeE+0x6a>
   14338:	4505                	li	a0,1
   1433a:	00aa8023          	sb	a0,0(s5)
   1433e:	00baa223          	sw	a1,4(s5)
   14342:	a0bd                	j	143b0 <_ZN20complex_dynamic_type3app17h63ce48baba51a4eeE+0xd6>
   14344:	853e                	mv	a0,a5
   14346:	8652                	mv	a2,s4
   14348:	00910723          	sb	s1,14(sp)
   1434c:	4785                	li	a5,1
   1434e:	448d                	li	s1,3
   14350:	4585                	li	a1,1
   14352:	03200693          	li	a3,50
   14356:	470d                	li	a4,3
   14358:	00000073          	ecall
   1435c:	00851c63          	bne	a0,s0,14374 <_ZN20complex_dynamic_type3app17h63ce48baba51a4eeE+0x9a>
   14360:	04114703          	lbu	a4,65(sp)
   14364:	4509                	li	a0,2
   14366:	00fa8023          	sb	a5,0(s5)
   1436a:	00baa223          	sw	a1,4(s5)
   1436e:	02a71963          	bne	a4,a0,143a0 <_ZN20complex_dynamic_type3app17h63ce48baba51a4eeE+0xc6>
   14372:	a83d                	j	143b0 <_ZN20complex_dynamic_type3app17h63ce48baba51a4eeE+0xd6>
   14374:	4681                	li	a3,0
   14376:	049100a3          	sb	s1,65(sp)
   1437a:	6509                	lui	a0,0x2
   1437c:	4785                	li	a5,1
   1437e:	458d                	li	a1,3
   14380:	4605                	li	a2,1
   14382:	4709                	li	a4,2
   14384:	f0750513          	addi	a0,a0,-249 # 1f07 <.Lline_table_start1+0x1cdc>
   14388:	08000493          	li	s1,128
   1438c:	00000073          	ecall
   14390:	4609                	li	a2,2
   14392:	04957563          	bgeu	a0,s1,143dc <_ZN20complex_dynamic_type3app17h63ce48baba51a4eeE+0x102>
   14396:	00fa8023          	sb	a5,0(s5)
   1439a:	00baa223          	sw	a1,4(s5)
   1439e:	470d                	li	a4,3
   143a0:	6509                	lui	a0,0x2
   143a2:	f0750513          	addi	a0,a0,-249 # 1f07 <.Lline_table_start1+0x1cdc>
   143a6:	4585                	li	a1,1
   143a8:	4601                	li	a2,0
   143aa:	4681                	li	a3,0
   143ac:	00000073          	ecall
   143b0:	00e14703          	lbu	a4,14(sp)
   143b4:	4509                	li	a0,2
   143b6:	00a70a63          	beq	a4,a0,143ca <_ZN20complex_dynamic_type3app17h63ce48baba51a4eeE+0xf0>
   143ba:	6509                	lui	a0,0x2
   143bc:	f0750513          	addi	a0,a0,-249 # 1f07 <.Lline_table_start1+0x1cdc>
   143c0:	458d                	li	a1,3
   143c2:	4601                	li	a2,0
   143c4:	4681                	li	a3,0
   143c6:	00000073          	ecall
   143ca:	40ba                	lw	ra,140(sp)
   143cc:	442a                	lw	s0,136(sp)
   143ce:	449a                	lw	s1,132(sp)
   143d0:	490a                	lw	s2,128(sp)
   143d2:	59f6                	lw	s3,124(sp)
   143d4:	5a66                	lw	s4,120(sp)
   143d6:	5ad6                	lw	s5,116(sp)
   143d8:	6149                	addi	sp,sp,144
   143da:	8082                	ret
   143dc:	00e14703          	lbu	a4,14(sp)
   143e0:	00c71463          	bne	a4,a2,143e8 <_ZN20complex_dynamic_type3app17h63ce48baba51a4eeE+0x10e>
   143e4:	470d                	li	a4,3
   143e6:	a825                	j	1441e <_ZN20complex_dynamic_type3app17h63ce48baba51a4eeE+0x144>
   143e8:	6509                	lui	a0,0x2
   143ea:	f0750513          	addi	a0,a0,-249 # 1f07 <.Lline_table_start1+0x1cdc>
   143ee:	458d                	li	a1,3
   143f0:	4601                	li	a2,0
   143f2:	4681                	li	a3,0
   143f4:	00000073          	ecall
   143f8:	04114703          	lbu	a4,65(sp)
   143fc:	4509                	li	a0,2
   143fe:	00a10723          	sb	a0,14(sp)
   14402:	00a71e63          	bne	a4,a0,1441e <_ZN20complex_dynamic_type3app17h63ce48baba51a4eeE+0x144>
   14406:	001a8513          	addi	a0,s5,1
   1440a:	03200613          	li	a2,50
   1440e:	85d2                	mv	a1,s4
   14410:	0000a097          	auipc	ra,0xa
   14414:	104080e7          	jalr	260(ra) # 1e514 <memcpy>
   14418:	000a8023          	sb	zero,0(s5)
   1441c:	b77d                	j	143ca <_ZN20complex_dynamic_type3app17h63ce48baba51a4eeE+0xf0>
   1441e:	6509                	lui	a0,0x2
   14420:	f0750913          	addi	s2,a0,-249 # 1f07 <.Lline_table_start1+0x1cdc>
   14424:	4585                	li	a1,1
   14426:	854a                	mv	a0,s2
   14428:	4601                	li	a2,0
   1442a:	4681                	li	a3,0
   1442c:	00000073          	ecall
   14430:	00e14983          	lbu	s3,14(sp)
   14434:	001a8513          	addi	a0,s5,1
   14438:	03200613          	li	a2,50
   1443c:	85d2                	mv	a1,s4
   1443e:	0000a097          	auipc	ra,0xa
   14442:	0d6080e7          	jalr	214(ra) # 1e514 <memcpy>
   14446:	4509                	li	a0,2
   14448:	000a8023          	sb	zero,0(s5)
   1444c:	f6a98fe3          	beq	s3,a0,143ca <_ZN20complex_dynamic_type3app17h63ce48baba51a4eeE+0xf0>
   14450:	458d                	li	a1,3
   14452:	854a                	mv	a0,s2
   14454:	4601                	li	a2,0
   14456:	4681                	li	a3,0
   14458:	874e                	mv	a4,s3
   1445a:	00000073          	ecall
   1445e:	b7b5                	j	143ca <_ZN20complex_dynamic_type3app17h63ce48baba51a4eeE+0xf0>

00014460 <_ZN20complex_dynamic_type3app17h646ab5d188221613E>:
   14460:	711d                	addi	sp,sp,-96
   14462:	ce86                	sw	ra,92(sp)
   14464:	cca2                	sw	s0,88(sp)
   14466:	caa6                	sw	s1,84(sp)
   14468:	c8ca                	sw	s2,80(sp)
   1446a:	c6ce                	sw	s3,76(sp)
   1446c:	c4d2                	sw	s4,72(sp)
   1446e:	c2d6                	sw	s5,68(sp)
   14470:	8aaa                	mv	s5,a0
   14472:	4409                	li	s0,2
   14474:	008106a3          	sb	s0,13(sp)
   14478:	00e10493          	addi	s1,sp,14
   1447c:	4669                	li	a2,26
   1447e:	8526                	mv	a0,s1
   14480:	0000a097          	auipc	ra,0xa
   14484:	094080e7          	jalr	148(ra) # 1e514 <memcpy>
   14488:	02910a13          	addi	s4,sp,41
   1448c:	466d                	li	a2,27
   1448e:	8552                	mv	a0,s4
   14490:	4581                	li	a1,0
   14492:	0000a097          	auipc	ra,0xa
   14496:	016080e7          	jalr	22(ra) # 1e4a8 <memset>
   1449a:	8626                	mv	a2,s1
   1449c:	02810423          	sb	s0,40(sp)
   144a0:	6509                	lui	a0,0x2
   144a2:	4491                	li	s1,4
   144a4:	4595                	li	a1,5
   144a6:	cce50793          	addi	a5,a0,-818 # 1cce <.Lline_table_start1+0x1aa3>
   144aa:	46e9                	li	a3,26
   144ac:	4711                	li	a4,4
   144ae:	853e                	mv	a0,a5
   144b0:	00000073          	ecall
   144b4:	00851863          	bne	a0,s0,144c4 <_ZN20complex_dynamic_type3app17h646ab5d188221613E+0x64>
   144b8:	4505                	li	a0,1
   144ba:	00aa8023          	sb	a0,0(s5)
   144be:	00baa223          	sw	a1,4(s5)
   144c2:	a0b5                	j	1452e <_ZN20complex_dynamic_type3app17h646ab5d188221613E+0xce>
   144c4:	853e                	mv	a0,a5
   144c6:	8652                	mv	a2,s4
   144c8:	009106a3          	sb	s1,13(sp)
   144cc:	478d                	li	a5,3
   144ce:	4589                	li	a1,2
   144d0:	46ed                	li	a3,27
   144d2:	470d                	li	a4,3
   144d4:	00000073          	ecall
   144d8:	00851d63          	bne	a0,s0,144f2 <_ZN20complex_dynamic_type3app17h646ab5d188221613E+0x92>
   144dc:	02814703          	lbu	a4,40(sp)
   144e0:	4505                	li	a0,1
   144e2:	4609                	li	a2,2
   144e4:	00aa8023          	sb	a0,0(s5)
   144e8:	00baa223          	sw	a1,4(s5)
   144ec:	02c71963          	bne	a4,a2,1451e <_ZN20complex_dynamic_type3app17h646ab5d188221613E+0xbe>
   144f0:	a83d                	j	1452e <_ZN20complex_dynamic_type3app17h646ab5d188221613E+0xce>
   144f2:	4681                	li	a3,0
   144f4:	02f10423          	sb	a5,40(sp)
   144f8:	6509                	lui	a0,0x2
   144fa:	4595                	li	a1,5
   144fc:	4609                	li	a2,2
   144fe:	4709                	li	a4,2
   14500:	cce50513          	addi	a0,a0,-818 # 1cce <.Lline_table_start1+0x1aa3>
   14504:	08000793          	li	a5,128
   14508:	00000073          	ecall
   1450c:	4609                	li	a2,2
   1450e:	04f57663          	bgeu	a0,a5,1455a <_ZN20complex_dynamic_type3app17h646ab5d188221613E+0xfa>
   14512:	4505                	li	a0,1
   14514:	00aa8023          	sb	a0,0(s5)
   14518:	00baa223          	sw	a1,4(s5)
   1451c:	470d                	li	a4,3
   1451e:	6509                	lui	a0,0x2
   14520:	cce50513          	addi	a0,a0,-818 # 1cce <.Lline_table_start1+0x1aa3>
   14524:	4589                	li	a1,2
   14526:	4601                	li	a2,0
   14528:	4681                	li	a3,0
   1452a:	00000073          	ecall
   1452e:	00d14703          	lbu	a4,13(sp)
   14532:	4509                	li	a0,2
   14534:	00a70a63          	beq	a4,a0,14548 <_ZN20complex_dynamic_type3app17h646ab5d188221613E+0xe8>
   14538:	6509                	lui	a0,0x2
   1453a:	cce50513          	addi	a0,a0,-818 # 1cce <.Lline_table_start1+0x1aa3>
   1453e:	4595                	li	a1,5
   14540:	4601                	li	a2,0
   14542:	4681                	li	a3,0
   14544:	00000073          	ecall
   14548:	40f6                	lw	ra,92(sp)
   1454a:	4466                	lw	s0,88(sp)
   1454c:	44d6                	lw	s1,84(sp)
   1454e:	4946                	lw	s2,80(sp)
   14550:	49b6                	lw	s3,76(sp)
   14552:	4a26                	lw	s4,72(sp)
   14554:	4a96                	lw	s5,68(sp)
   14556:	6125                	addi	sp,sp,96
   14558:	8082                	ret
   1455a:	00d14703          	lbu	a4,13(sp)
   1455e:	00c71463          	bne	a4,a2,14566 <_ZN20complex_dynamic_type3app17h646ab5d188221613E+0x106>
   14562:	470d                	li	a4,3
   14564:	a81d                	j	1459a <_ZN20complex_dynamic_type3app17h646ab5d188221613E+0x13a>
   14566:	6509                	lui	a0,0x2
   14568:	cce50513          	addi	a0,a0,-818 # 1cce <.Lline_table_start1+0x1aa3>
   1456c:	4595                	li	a1,5
   1456e:	4601                	li	a2,0
   14570:	4681                	li	a3,0
   14572:	00000073          	ecall
   14576:	02814703          	lbu	a4,40(sp)
   1457a:	4509                	li	a0,2
   1457c:	00a106a3          	sb	a0,13(sp)
   14580:	00a71d63          	bne	a4,a0,1459a <_ZN20complex_dynamic_type3app17h646ab5d188221613E+0x13a>
   14584:	001a8513          	addi	a0,s5,1
   14588:	466d                	li	a2,27
   1458a:	85d2                	mv	a1,s4
   1458c:	0000a097          	auipc	ra,0xa
   14590:	f88080e7          	jalr	-120(ra) # 1e514 <memcpy>
   14594:	000a8023          	sb	zero,0(s5)
   14598:	bf45                	j	14548 <_ZN20complex_dynamic_type3app17h646ab5d188221613E+0xe8>
   1459a:	4601                	li	a2,0
   1459c:	4681                	li	a3,0
   1459e:	6509                	lui	a0,0x2
   145a0:	cce50913          	addi	s2,a0,-818 # 1cce <.Lline_table_start1+0x1aa3>
   145a4:	4589                	li	a1,2
   145a6:	854a                	mv	a0,s2
   145a8:	00000073          	ecall
   145ac:	00d14983          	lbu	s3,13(sp)
   145b0:	4409                	li	s0,2
   145b2:	001a8513          	addi	a0,s5,1
   145b6:	466d                	li	a2,27
   145b8:	85d2                	mv	a1,s4
   145ba:	0000a097          	auipc	ra,0xa
   145be:	f5a080e7          	jalr	-166(ra) # 1e514 <memcpy>
   145c2:	000a8023          	sb	zero,0(s5)
   145c6:	f88981e3          	beq	s3,s0,14548 <_ZN20complex_dynamic_type3app17h646ab5d188221613E+0xe8>
   145ca:	4595                	li	a1,5
   145cc:	854a                	mv	a0,s2
   145ce:	4601                	li	a2,0
   145d0:	4681                	li	a3,0
   145d2:	874e                	mv	a4,s3
   145d4:	00000073          	ecall
   145d8:	bf85                	j	14548 <_ZN20complex_dynamic_type3app17h646ab5d188221613E+0xe8>

000145da <_ZN20complex_dynamic_type3app17h6501c55718de8fbfE>:
   145da:	7175                	addi	sp,sp,-144
   145dc:	c706                	sw	ra,140(sp)
   145de:	c522                	sw	s0,136(sp)
   145e0:	c326                	sw	s1,132(sp)
   145e2:	c14a                	sw	s2,128(sp)
   145e4:	dece                	sw	s3,124(sp)
   145e6:	dcd2                	sw	s4,120(sp)
   145e8:	dad6                	sw	s5,116(sp)
   145ea:	8aaa                	mv	s5,a0
   145ec:	4409                	li	s0,2
   145ee:	00810323          	sb	s0,6(sp)
   145f2:	00710493          	addi	s1,sp,7
   145f6:	04900613          	li	a2,73
   145fa:	8526                	mv	a0,s1
   145fc:	0000a097          	auipc	ra,0xa
   14600:	f18080e7          	jalr	-232(ra) # 1e514 <memcpy>
   14604:	05110a13          	addi	s4,sp,81
   14608:	02300613          	li	a2,35
   1460c:	8552                	mv	a0,s4
   1460e:	4581                	li	a1,0
   14610:	0000a097          	auipc	ra,0xa
   14614:	e98080e7          	jalr	-360(ra) # 1e4a8 <memset>
   14618:	8626                	mv	a2,s1
   1461a:	04810823          	sb	s0,80(sp)
   1461e:	6505                	lui	a0,0x1
   14620:	4491                	li	s1,4
   14622:	459d                	li	a1,7
   14624:	55150793          	addi	a5,a0,1361 # 1551 <.Lline_table_start1+0x1326>
   14628:	04900693          	li	a3,73
   1462c:	4711                	li	a4,4
   1462e:	853e                	mv	a0,a5
   14630:	00000073          	ecall
   14634:	00851863          	bne	a0,s0,14644 <_ZN20complex_dynamic_type3app17h6501c55718de8fbfE+0x6a>
   14638:	4505                	li	a0,1
   1463a:	00aa8023          	sb	a0,0(s5)
   1463e:	00baa223          	sw	a1,4(s5)
   14642:	a0bd                	j	146b0 <_ZN20complex_dynamic_type3app17h6501c55718de8fbfE+0xd6>
   14644:	853e                	mv	a0,a5
   14646:	8652                	mv	a2,s4
   14648:	00910323          	sb	s1,6(sp)
   1464c:	4785                	li	a5,1
   1464e:	448d                	li	s1,3
   14650:	4585                	li	a1,1
   14652:	02300693          	li	a3,35
   14656:	470d                	li	a4,3
   14658:	00000073          	ecall
   1465c:	00851c63          	bne	a0,s0,14674 <_ZN20complex_dynamic_type3app17h6501c55718de8fbfE+0x9a>
   14660:	05014703          	lbu	a4,80(sp)
   14664:	4509                	li	a0,2
   14666:	00fa8023          	sb	a5,0(s5)
   1466a:	00baa223          	sw	a1,4(s5)
   1466e:	02a71963          	bne	a4,a0,146a0 <_ZN20complex_dynamic_type3app17h6501c55718de8fbfE+0xc6>
   14672:	a83d                	j	146b0 <_ZN20complex_dynamic_type3app17h6501c55718de8fbfE+0xd6>
   14674:	4681                	li	a3,0
   14676:	04910823          	sb	s1,80(sp)
   1467a:	6505                	lui	a0,0x1
   1467c:	4785                	li	a5,1
   1467e:	459d                	li	a1,7
   14680:	4605                	li	a2,1
   14682:	4709                	li	a4,2
   14684:	55150513          	addi	a0,a0,1361 # 1551 <.Lline_table_start1+0x1326>
   14688:	08000493          	li	s1,128
   1468c:	00000073          	ecall
   14690:	4609                	li	a2,2
   14692:	04957563          	bgeu	a0,s1,146dc <_ZN20complex_dynamic_type3app17h6501c55718de8fbfE+0x102>
   14696:	00fa8023          	sb	a5,0(s5)
   1469a:	00baa223          	sw	a1,4(s5)
   1469e:	470d                	li	a4,3
   146a0:	6505                	lui	a0,0x1
   146a2:	55150513          	addi	a0,a0,1361 # 1551 <.Lline_table_start1+0x1326>
   146a6:	4585                	li	a1,1
   146a8:	4601                	li	a2,0
   146aa:	4681                	li	a3,0
   146ac:	00000073          	ecall
   146b0:	00614703          	lbu	a4,6(sp)
   146b4:	4509                	li	a0,2
   146b6:	00a70a63          	beq	a4,a0,146ca <_ZN20complex_dynamic_type3app17h6501c55718de8fbfE+0xf0>
   146ba:	6505                	lui	a0,0x1
   146bc:	55150513          	addi	a0,a0,1361 # 1551 <.Lline_table_start1+0x1326>
   146c0:	459d                	li	a1,7
   146c2:	4601                	li	a2,0
   146c4:	4681                	li	a3,0
   146c6:	00000073          	ecall
   146ca:	40ba                	lw	ra,140(sp)
   146cc:	442a                	lw	s0,136(sp)
   146ce:	449a                	lw	s1,132(sp)
   146d0:	490a                	lw	s2,128(sp)
   146d2:	59f6                	lw	s3,124(sp)
   146d4:	5a66                	lw	s4,120(sp)
   146d6:	5ad6                	lw	s5,116(sp)
   146d8:	6149                	addi	sp,sp,144
   146da:	8082                	ret
   146dc:	00614703          	lbu	a4,6(sp)
   146e0:	00c71463          	bne	a4,a2,146e8 <_ZN20complex_dynamic_type3app17h6501c55718de8fbfE+0x10e>
   146e4:	470d                	li	a4,3
   146e6:	a825                	j	1471e <_ZN20complex_dynamic_type3app17h6501c55718de8fbfE+0x144>
   146e8:	6505                	lui	a0,0x1
   146ea:	55150513          	addi	a0,a0,1361 # 1551 <.Lline_table_start1+0x1326>
   146ee:	459d                	li	a1,7
   146f0:	4601                	li	a2,0
   146f2:	4681                	li	a3,0
   146f4:	00000073          	ecall
   146f8:	05014703          	lbu	a4,80(sp)
   146fc:	4509                	li	a0,2
   146fe:	00a10323          	sb	a0,6(sp)
   14702:	00a71e63          	bne	a4,a0,1471e <_ZN20complex_dynamic_type3app17h6501c55718de8fbfE+0x144>
   14706:	001a8513          	addi	a0,s5,1
   1470a:	02300613          	li	a2,35
   1470e:	85d2                	mv	a1,s4
   14710:	0000a097          	auipc	ra,0xa
   14714:	e04080e7          	jalr	-508(ra) # 1e514 <memcpy>
   14718:	000a8023          	sb	zero,0(s5)
   1471c:	b77d                	j	146ca <_ZN20complex_dynamic_type3app17h6501c55718de8fbfE+0xf0>
   1471e:	6505                	lui	a0,0x1
   14720:	55150913          	addi	s2,a0,1361 # 1551 <.Lline_table_start1+0x1326>
   14724:	4585                	li	a1,1
   14726:	854a                	mv	a0,s2
   14728:	4601                	li	a2,0
   1472a:	4681                	li	a3,0
   1472c:	00000073          	ecall
   14730:	00614983          	lbu	s3,6(sp)
   14734:	001a8513          	addi	a0,s5,1
   14738:	02300613          	li	a2,35
   1473c:	85d2                	mv	a1,s4
   1473e:	0000a097          	auipc	ra,0xa
   14742:	dd6080e7          	jalr	-554(ra) # 1e514 <memcpy>
   14746:	4509                	li	a0,2
   14748:	000a8023          	sb	zero,0(s5)
   1474c:	f6a98fe3          	beq	s3,a0,146ca <_ZN20complex_dynamic_type3app17h6501c55718de8fbfE+0xf0>
   14750:	459d                	li	a1,7
   14752:	854a                	mv	a0,s2
   14754:	4601                	li	a2,0
   14756:	4681                	li	a3,0
   14758:	874e                	mv	a4,s3
   1475a:	00000073          	ecall
   1475e:	b7b5                	j	146ca <_ZN20complex_dynamic_type3app17h6501c55718de8fbfE+0xf0>

00014760 <_ZN20complex_dynamic_type3app17h6a1f6147428e806fE>:
   14760:	7119                	addi	sp,sp,-128
   14762:	de86                	sw	ra,124(sp)
   14764:	dca2                	sw	s0,120(sp)
   14766:	daa6                	sw	s1,116(sp)
   14768:	d8ca                	sw	s2,112(sp)
   1476a:	d6ce                	sw	s3,108(sp)
   1476c:	d4d2                	sw	s4,104(sp)
   1476e:	d2d6                	sw	s5,100(sp)
   14770:	8aaa                	mv	s5,a0
   14772:	4409                	li	s0,2
   14774:	00810123          	sb	s0,2(sp)
   14778:	00310493          	addi	s1,sp,3
   1477c:	05100613          	li	a2,81
   14780:	8526                	mv	a0,s1
   14782:	0000a097          	auipc	ra,0xa
   14786:	d92080e7          	jalr	-622(ra) # 1e514 <memcpy>
   1478a:	05510a13          	addi	s4,sp,85
   1478e:	463d                	li	a2,15
   14790:	8552                	mv	a0,s4
   14792:	4581                	li	a1,0
   14794:	0000a097          	auipc	ra,0xa
   14798:	d14080e7          	jalr	-748(ra) # 1e4a8 <memset>
   1479c:	4581                	li	a1,0
   1479e:	8626                	mv	a2,s1
   147a0:	04810a23          	sb	s0,84(sp)
   147a4:	6505                	lui	a0,0x1
   147a6:	4491                	li	s1,4
   147a8:	3bf50793          	addi	a5,a0,959 # 13bf <.Lline_table_start1+0x1194>
   147ac:	05100693          	li	a3,81
   147b0:	4711                	li	a4,4
   147b2:	853e                	mv	a0,a5
   147b4:	00000073          	ecall
   147b8:	00851863          	bne	a0,s0,147c8 <_ZN20complex_dynamic_type3app17h6a1f6147428e806fE+0x68>
   147bc:	4505                	li	a0,1
   147be:	00aa8023          	sb	a0,0(s5)
   147c2:	00baa223          	sw	a1,4(s5)
   147c6:	a0b5                	j	14832 <_ZN20complex_dynamic_type3app17h6a1f6147428e806fE+0xd2>
   147c8:	853e                	mv	a0,a5
   147ca:	8652                	mv	a2,s4
   147cc:	00910123          	sb	s1,2(sp)
   147d0:	478d                	li	a5,3
   147d2:	458d                	li	a1,3
   147d4:	46bd                	li	a3,15
   147d6:	470d                	li	a4,3
   147d8:	00000073          	ecall
   147dc:	00851d63          	bne	a0,s0,147f6 <_ZN20complex_dynamic_type3app17h6a1f6147428e806fE+0x96>
   147e0:	05414703          	lbu	a4,84(sp)
   147e4:	4505                	li	a0,1
   147e6:	4609                	li	a2,2
   147e8:	00aa8023          	sb	a0,0(s5)
   147ec:	00baa223          	sw	a1,4(s5)
   147f0:	02c71963          	bne	a4,a2,14822 <_ZN20complex_dynamic_type3app17h6a1f6147428e806fE+0xc2>
   147f4:	a83d                	j	14832 <_ZN20complex_dynamic_type3app17h6a1f6147428e806fE+0xd2>
   147f6:	4581                	li	a1,0
   147f8:	4681                	li	a3,0
   147fa:	04f10a23          	sb	a5,84(sp)
   147fe:	6505                	lui	a0,0x1
   14800:	460d                	li	a2,3
   14802:	4709                	li	a4,2
   14804:	3bf50513          	addi	a0,a0,959 # 13bf <.Lline_table_start1+0x1194>
   14808:	08000793          	li	a5,128
   1480c:	00000073          	ecall
   14810:	4609                	li	a2,2
   14812:	04f57663          	bgeu	a0,a5,1485e <_ZN20complex_dynamic_type3app17h6a1f6147428e806fE+0xfe>
   14816:	4505                	li	a0,1
   14818:	00aa8023          	sb	a0,0(s5)
   1481c:	00baa223          	sw	a1,4(s5)
   14820:	470d                	li	a4,3
   14822:	6505                	lui	a0,0x1
   14824:	3bf50513          	addi	a0,a0,959 # 13bf <.Lline_table_start1+0x1194>
   14828:	458d                	li	a1,3
   1482a:	4601                	li	a2,0
   1482c:	4681                	li	a3,0
   1482e:	00000073          	ecall
   14832:	00214703          	lbu	a4,2(sp)
   14836:	4509                	li	a0,2
   14838:	00a70a63          	beq	a4,a0,1484c <_ZN20complex_dynamic_type3app17h6a1f6147428e806fE+0xec>
   1483c:	6505                	lui	a0,0x1
   1483e:	3bf50513          	addi	a0,a0,959 # 13bf <.Lline_table_start1+0x1194>
   14842:	4581                	li	a1,0
   14844:	4601                	li	a2,0
   14846:	4681                	li	a3,0
   14848:	00000073          	ecall
   1484c:	50f6                	lw	ra,124(sp)
   1484e:	5466                	lw	s0,120(sp)
   14850:	54d6                	lw	s1,116(sp)
   14852:	5946                	lw	s2,112(sp)
   14854:	59b6                	lw	s3,108(sp)
   14856:	5a26                	lw	s4,104(sp)
   14858:	5a96                	lw	s5,100(sp)
   1485a:	6109                	addi	sp,sp,128
   1485c:	8082                	ret
   1485e:	00214703          	lbu	a4,2(sp)
   14862:	00c71463          	bne	a4,a2,1486a <_ZN20complex_dynamic_type3app17h6a1f6147428e806fE+0x10a>
   14866:	470d                	li	a4,3
   14868:	a81d                	j	1489e <_ZN20complex_dynamic_type3app17h6a1f6147428e806fE+0x13e>
   1486a:	6505                	lui	a0,0x1
   1486c:	3bf50513          	addi	a0,a0,959 # 13bf <.Lline_table_start1+0x1194>
   14870:	4581                	li	a1,0
   14872:	4601                	li	a2,0
   14874:	4681                	li	a3,0
   14876:	00000073          	ecall
   1487a:	05414703          	lbu	a4,84(sp)
   1487e:	4509                	li	a0,2
   14880:	00a10123          	sb	a0,2(sp)
   14884:	00a71d63          	bne	a4,a0,1489e <_ZN20complex_dynamic_type3app17h6a1f6147428e806fE+0x13e>
   14888:	001a8513          	addi	a0,s5,1
   1488c:	463d                	li	a2,15
   1488e:	85d2                	mv	a1,s4
   14890:	0000a097          	auipc	ra,0xa
   14894:	c84080e7          	jalr	-892(ra) # 1e514 <memcpy>
   14898:	000a8023          	sb	zero,0(s5)
   1489c:	bf45                	j	1484c <_ZN20complex_dynamic_type3app17h6a1f6147428e806fE+0xec>
   1489e:	6505                	lui	a0,0x1
   148a0:	3bf50913          	addi	s2,a0,959 # 13bf <.Lline_table_start1+0x1194>
   148a4:	458d                	li	a1,3
   148a6:	854a                	mv	a0,s2
   148a8:	4601                	li	a2,0
   148aa:	4681                	li	a3,0
   148ac:	00000073          	ecall
   148b0:	00214983          	lbu	s3,2(sp)
   148b4:	001a8513          	addi	a0,s5,1
   148b8:	463d                	li	a2,15
   148ba:	85d2                	mv	a1,s4
   148bc:	0000a097          	auipc	ra,0xa
   148c0:	c58080e7          	jalr	-936(ra) # 1e514 <memcpy>
   148c4:	4509                	li	a0,2
   148c6:	000a8023          	sb	zero,0(s5)
   148ca:	f8a981e3          	beq	s3,a0,1484c <_ZN20complex_dynamic_type3app17h6a1f6147428e806fE+0xec>
   148ce:	854a                	mv	a0,s2
   148d0:	4581                	li	a1,0
   148d2:	4601                	li	a2,0
   148d4:	4681                	li	a3,0
   148d6:	874e                	mv	a4,s3
   148d8:	00000073          	ecall
   148dc:	bf85                	j	1484c <_ZN20complex_dynamic_type3app17h6a1f6147428e806fE+0xec>

000148de <_ZN20complex_dynamic_type3app17h6c218069da8e90dcE>:
   148de:	7135                	addi	sp,sp,-160
   148e0:	cf06                	sw	ra,156(sp)
   148e2:	cd22                	sw	s0,152(sp)
   148e4:	cb26                	sw	s1,148(sp)
   148e6:	c94a                	sw	s2,144(sp)
   148e8:	c74e                	sw	s3,140(sp)
   148ea:	c552                	sw	s4,136(sp)
   148ec:	c356                	sw	s5,132(sp)
   148ee:	8aaa                	mv	s5,a0
   148f0:	4409                	li	s0,2
   148f2:	008104a3          	sb	s0,9(sp)
   148f6:	00a10493          	addi	s1,sp,10
   148fa:	4671                	li	a2,28
   148fc:	8526                	mv	a0,s1
   148fe:	0000a097          	auipc	ra,0xa
   14902:	c16080e7          	jalr	-1002(ra) # 1e514 <memcpy>
   14906:	02710a13          	addi	s4,sp,39
   1490a:	05d00613          	li	a2,93
   1490e:	8552                	mv	a0,s4
   14910:	4581                	li	a1,0
   14912:	0000a097          	auipc	ra,0xa
   14916:	b96080e7          	jalr	-1130(ra) # 1e4a8 <memset>
   1491a:	8626                	mv	a2,s1
   1491c:	02810323          	sb	s0,38(sp)
   14920:	6505                	lui	a0,0x1
   14922:	4491                	li	s1,4
   14924:	45a1                	li	a1,8
   14926:	c3e50793          	addi	a5,a0,-962 # c3e <.Lline_table_start1+0xa13>
   1492a:	46f1                	li	a3,28
   1492c:	4711                	li	a4,4
   1492e:	853e                	mv	a0,a5
   14930:	00000073          	ecall
   14934:	00851863          	bne	a0,s0,14944 <_ZN20complex_dynamic_type3app17h6c218069da8e90dcE+0x66>
   14938:	4505                	li	a0,1
   1493a:	00aa8023          	sb	a0,0(s5)
   1493e:	00baa223          	sw	a1,4(s5)
   14942:	a0bd                	j	149b0 <_ZN20complex_dynamic_type3app17h6c218069da8e90dcE+0xd2>
   14944:	853e                	mv	a0,a5
   14946:	8652                	mv	a2,s4
   14948:	009104a3          	sb	s1,9(sp)
   1494c:	478d                	li	a5,3
   1494e:	4595                	li	a1,5
   14950:	05d00693          	li	a3,93
   14954:	470d                	li	a4,3
   14956:	00000073          	ecall
   1495a:	00851d63          	bne	a0,s0,14974 <_ZN20complex_dynamic_type3app17h6c218069da8e90dcE+0x96>
   1495e:	02614703          	lbu	a4,38(sp)
   14962:	4505                	li	a0,1
   14964:	4609                	li	a2,2
   14966:	00aa8023          	sb	a0,0(s5)
   1496a:	00baa223          	sw	a1,4(s5)
   1496e:	02c71963          	bne	a4,a2,149a0 <_ZN20complex_dynamic_type3app17h6c218069da8e90dcE+0xc2>
   14972:	a83d                	j	149b0 <_ZN20complex_dynamic_type3app17h6c218069da8e90dcE+0xd2>
   14974:	4681                	li	a3,0
   14976:	02f10323          	sb	a5,38(sp)
   1497a:	6505                	lui	a0,0x1
   1497c:	45a1                	li	a1,8
   1497e:	4615                	li	a2,5
   14980:	4709                	li	a4,2
   14982:	c3e50513          	addi	a0,a0,-962 # c3e <.Lline_table_start1+0xa13>
   14986:	08000793          	li	a5,128
   1498a:	00000073          	ecall
   1498e:	4609                	li	a2,2
   14990:	04f57663          	bgeu	a0,a5,149dc <_ZN20complex_dynamic_type3app17h6c218069da8e90dcE+0xfe>
   14994:	4505                	li	a0,1
   14996:	00aa8023          	sb	a0,0(s5)
   1499a:	00baa223          	sw	a1,4(s5)
   1499e:	470d                	li	a4,3
   149a0:	6505                	lui	a0,0x1
   149a2:	c3e50513          	addi	a0,a0,-962 # c3e <.Lline_table_start1+0xa13>
   149a6:	4595                	li	a1,5
   149a8:	4601                	li	a2,0
   149aa:	4681                	li	a3,0
   149ac:	00000073          	ecall
   149b0:	00914703          	lbu	a4,9(sp)
   149b4:	4509                	li	a0,2
   149b6:	00a70a63          	beq	a4,a0,149ca <_ZN20complex_dynamic_type3app17h6c218069da8e90dcE+0xec>
   149ba:	6505                	lui	a0,0x1
   149bc:	c3e50513          	addi	a0,a0,-962 # c3e <.Lline_table_start1+0xa13>
   149c0:	45a1                	li	a1,8
   149c2:	4601                	li	a2,0
   149c4:	4681                	li	a3,0
   149c6:	00000073          	ecall
   149ca:	40fa                	lw	ra,156(sp)
   149cc:	446a                	lw	s0,152(sp)
   149ce:	44da                	lw	s1,148(sp)
   149d0:	494a                	lw	s2,144(sp)
   149d2:	49ba                	lw	s3,140(sp)
   149d4:	4a2a                	lw	s4,136(sp)
   149d6:	4a9a                	lw	s5,132(sp)
   149d8:	610d                	addi	sp,sp,160
   149da:	8082                	ret
   149dc:	00914703          	lbu	a4,9(sp)
   149e0:	00c71463          	bne	a4,a2,149e8 <_ZN20complex_dynamic_type3app17h6c218069da8e90dcE+0x10a>
   149e4:	470d                	li	a4,3
   149e6:	a825                	j	14a1e <_ZN20complex_dynamic_type3app17h6c218069da8e90dcE+0x140>
   149e8:	6505                	lui	a0,0x1
   149ea:	c3e50513          	addi	a0,a0,-962 # c3e <.Lline_table_start1+0xa13>
   149ee:	45a1                	li	a1,8
   149f0:	4601                	li	a2,0
   149f2:	4681                	li	a3,0
   149f4:	00000073          	ecall
   149f8:	02614703          	lbu	a4,38(sp)
   149fc:	4509                	li	a0,2
   149fe:	00a104a3          	sb	a0,9(sp)
   14a02:	00a71e63          	bne	a4,a0,14a1e <_ZN20complex_dynamic_type3app17h6c218069da8e90dcE+0x140>
   14a06:	001a8513          	addi	a0,s5,1
   14a0a:	05d00613          	li	a2,93
   14a0e:	85d2                	mv	a1,s4
   14a10:	0000a097          	auipc	ra,0xa
   14a14:	b04080e7          	jalr	-1276(ra) # 1e514 <memcpy>
   14a18:	000a8023          	sb	zero,0(s5)
   14a1c:	b77d                	j	149ca <_ZN20complex_dynamic_type3app17h6c218069da8e90dcE+0xec>
   14a1e:	6505                	lui	a0,0x1
   14a20:	c3e50913          	addi	s2,a0,-962 # c3e <.Lline_table_start1+0xa13>
   14a24:	4595                	li	a1,5
   14a26:	854a                	mv	a0,s2
   14a28:	4601                	li	a2,0
   14a2a:	4681                	li	a3,0
   14a2c:	00000073          	ecall
   14a30:	00914983          	lbu	s3,9(sp)
   14a34:	001a8513          	addi	a0,s5,1
   14a38:	05d00613          	li	a2,93
   14a3c:	85d2                	mv	a1,s4
   14a3e:	0000a097          	auipc	ra,0xa
   14a42:	ad6080e7          	jalr	-1322(ra) # 1e514 <memcpy>
   14a46:	4509                	li	a0,2
   14a48:	000a8023          	sb	zero,0(s5)
   14a4c:	f6a98fe3          	beq	s3,a0,149ca <_ZN20complex_dynamic_type3app17h6c218069da8e90dcE+0xec>
   14a50:	45a1                	li	a1,8
   14a52:	854a                	mv	a0,s2
   14a54:	4601                	li	a2,0
   14a56:	4681                	li	a3,0
   14a58:	874e                	mv	a4,s3
   14a5a:	00000073          	ecall
   14a5e:	b7b5                	j	149ca <_ZN20complex_dynamic_type3app17h6c218069da8e90dcE+0xec>

00014a60 <_ZN20complex_dynamic_type3app17h6e73aca2418ce238E>:
   14a60:	7119                	addi	sp,sp,-128
   14a62:	de86                	sw	ra,124(sp)
   14a64:	dca2                	sw	s0,120(sp)
   14a66:	daa6                	sw	s1,116(sp)
   14a68:	d8ca                	sw	s2,112(sp)
   14a6a:	d6ce                	sw	s3,108(sp)
   14a6c:	d4d2                	sw	s4,104(sp)
   14a6e:	8a2a                	mv	s4,a0
   14a70:	4409                	li	s0,2
   14a72:	00810523          	sb	s0,10(sp)
   14a76:	00b10493          	addi	s1,sp,11
   14a7a:	466d                	li	a2,27
   14a7c:	8526                	mv	a0,s1
   14a7e:	0000a097          	auipc	ra,0xa
   14a82:	a96080e7          	jalr	-1386(ra) # 1e514 <memcpy>
   14a86:	02710993          	addi	s3,sp,39
   14a8a:	04100613          	li	a2,65
   14a8e:	854e                	mv	a0,s3
   14a90:	4581                	li	a1,0
   14a92:	0000a097          	auipc	ra,0xa
   14a96:	a16080e7          	jalr	-1514(ra) # 1e4a8 <memset>
   14a9a:	8626                	mv	a2,s1
   14a9c:	02810323          	sb	s0,38(sp)
   14aa0:	4791                	li	a5,4
   14aa2:	14000513          	li	a0,320
   14aa6:	45a1                	li	a1,8
   14aa8:	46ed                	li	a3,27
   14aaa:	4711                	li	a4,4
   14aac:	00000073          	ecall
   14ab0:	00851863          	bne	a0,s0,14ac0 <_ZN20complex_dynamic_type3app17h6e73aca2418ce238E+0x60>
   14ab4:	4505                	li	a0,1
   14ab6:	00aa0023          	sb	a0,0(s4)
   14aba:	00ba2223          	sw	a1,4(s4)
   14abe:	a0b5                	j	14b2a <_ZN20complex_dynamic_type3app17h6e73aca2418ce238E+0xca>
   14ac0:	864e                	mv	a2,s3
   14ac2:	00f10523          	sb	a5,10(sp)
   14ac6:	478d                	li	a5,3
   14ac8:	14000513          	li	a0,320
   14acc:	45a5                	li	a1,9
   14ace:	04100693          	li	a3,65
   14ad2:	470d                	li	a4,3
   14ad4:	00000073          	ecall
   14ad8:	00851d63          	bne	a0,s0,14af2 <_ZN20complex_dynamic_type3app17h6e73aca2418ce238E+0x92>
   14adc:	02614703          	lbu	a4,38(sp)
   14ae0:	4505                	li	a0,1
   14ae2:	4609                	li	a2,2
   14ae4:	00aa0023          	sb	a0,0(s4)
   14ae8:	00ba2223          	sw	a1,4(s4)
   14aec:	02c71863          	bne	a4,a2,14b1c <_ZN20complex_dynamic_type3app17h6e73aca2418ce238E+0xbc>
   14af0:	a82d                	j	14b2a <_ZN20complex_dynamic_type3app17h6e73aca2418ce238E+0xca>
   14af2:	4681                	li	a3,0
   14af4:	02f10323          	sb	a5,38(sp)
   14af8:	14000513          	li	a0,320
   14afc:	45a1                	li	a1,8
   14afe:	4625                	li	a2,9
   14b00:	4709                	li	a4,2
   14b02:	08000793          	li	a5,128
   14b06:	00000073          	ecall
   14b0a:	4609                	li	a2,2
   14b0c:	04f57363          	bgeu	a0,a5,14b52 <_ZN20complex_dynamic_type3app17h6e73aca2418ce238E+0xf2>
   14b10:	4505                	li	a0,1
   14b12:	00aa0023          	sb	a0,0(s4)
   14b16:	00ba2223          	sw	a1,4(s4)
   14b1a:	470d                	li	a4,3
   14b1c:	14000513          	li	a0,320
   14b20:	45a5                	li	a1,9
   14b22:	4601                	li	a2,0
   14b24:	4681                	li	a3,0
   14b26:	00000073          	ecall
   14b2a:	00a14703          	lbu	a4,10(sp)
   14b2e:	4509                	li	a0,2
   14b30:	00a70963          	beq	a4,a0,14b42 <_ZN20complex_dynamic_type3app17h6e73aca2418ce238E+0xe2>
   14b34:	14000513          	li	a0,320
   14b38:	45a1                	li	a1,8
   14b3a:	4601                	li	a2,0
   14b3c:	4681                	li	a3,0
   14b3e:	00000073          	ecall
   14b42:	50f6                	lw	ra,124(sp)
   14b44:	5466                	lw	s0,120(sp)
   14b46:	54d6                	lw	s1,116(sp)
   14b48:	5946                	lw	s2,112(sp)
   14b4a:	59b6                	lw	s3,108(sp)
   14b4c:	5a26                	lw	s4,104(sp)
   14b4e:	6109                	addi	sp,sp,128
   14b50:	8082                	ret
   14b52:	00a14703          	lbu	a4,10(sp)
   14b56:	00c71463          	bne	a4,a2,14b5e <_ZN20complex_dynamic_type3app17h6e73aca2418ce238E+0xfe>
   14b5a:	470d                	li	a4,3
   14b5c:	a81d                	j	14b92 <_ZN20complex_dynamic_type3app17h6e73aca2418ce238E+0x132>
   14b5e:	14000513          	li	a0,320
   14b62:	45a1                	li	a1,8
   14b64:	4601                	li	a2,0
   14b66:	4681                	li	a3,0
   14b68:	00000073          	ecall
   14b6c:	02614703          	lbu	a4,38(sp)
   14b70:	4509                	li	a0,2
   14b72:	00a10523          	sb	a0,10(sp)
   14b76:	00a71e63          	bne	a4,a0,14b92 <_ZN20complex_dynamic_type3app17h6e73aca2418ce238E+0x132>
   14b7a:	001a0513          	addi	a0,s4,1
   14b7e:	04100613          	li	a2,65
   14b82:	85ce                	mv	a1,s3
   14b84:	0000a097          	auipc	ra,0xa
   14b88:	990080e7          	jalr	-1648(ra) # 1e514 <memcpy>
   14b8c:	000a0023          	sb	zero,0(s4)
   14b90:	bf4d                	j	14b42 <_ZN20complex_dynamic_type3app17h6e73aca2418ce238E+0xe2>
   14b92:	14000513          	li	a0,320
   14b96:	45a5                	li	a1,9
   14b98:	4601                	li	a2,0
   14b9a:	4681                	li	a3,0
   14b9c:	00000073          	ecall
   14ba0:	00a14903          	lbu	s2,10(sp)
   14ba4:	001a0513          	addi	a0,s4,1
   14ba8:	04100613          	li	a2,65
   14bac:	85ce                	mv	a1,s3
   14bae:	0000a097          	auipc	ra,0xa
   14bb2:	966080e7          	jalr	-1690(ra) # 1e514 <memcpy>
   14bb6:	4509                	li	a0,2
   14bb8:	000a0023          	sb	zero,0(s4)
   14bbc:	f8a903e3          	beq	s2,a0,14b42 <_ZN20complex_dynamic_type3app17h6e73aca2418ce238E+0xe2>
   14bc0:	14000513          	li	a0,320
   14bc4:	45a1                	li	a1,8
   14bc6:	4601                	li	a2,0
   14bc8:	4681                	li	a3,0
   14bca:	874a                	mv	a4,s2
   14bcc:	00000073          	ecall
   14bd0:	bf8d                	j	14b42 <_ZN20complex_dynamic_type3app17h6e73aca2418ce238E+0xe2>

00014bd2 <_ZN20complex_dynamic_type3app17h7272dd8e91891c06E>:
   14bd2:	7175                	addi	sp,sp,-144
   14bd4:	c706                	sw	ra,140(sp)
   14bd6:	c522                	sw	s0,136(sp)
   14bd8:	c326                	sw	s1,132(sp)
   14bda:	c14a                	sw	s2,128(sp)
   14bdc:	dece                	sw	s3,124(sp)
   14bde:	dcd2                	sw	s4,120(sp)
   14be0:	dad6                	sw	s5,116(sp)
   14be2:	8aaa                	mv	s5,a0
   14be4:	4409                	li	s0,2
   14be6:	00810523          	sb	s0,10(sp)
   14bea:	00b10493          	addi	s1,sp,11
   14bee:	03c00613          	li	a2,60
   14bf2:	8526                	mv	a0,s1
   14bf4:	0000a097          	auipc	ra,0xa
   14bf8:	920080e7          	jalr	-1760(ra) # 1e514 <memcpy>
   14bfc:	04810a13          	addi	s4,sp,72
   14c00:	02c00613          	li	a2,44
   14c04:	8552                	mv	a0,s4
   14c06:	4581                	li	a1,0
   14c08:	0000a097          	auipc	ra,0xa
   14c0c:	8a0080e7          	jalr	-1888(ra) # 1e4a8 <memset>
   14c10:	8626                	mv	a2,s1
   14c12:	048103a3          	sb	s0,71(sp)
   14c16:	6509                	lui	a0,0x2
   14c18:	4491                	li	s1,4
   14c1a:	4595                	li	a1,5
   14c1c:	eac50793          	addi	a5,a0,-340 # 1eac <.Lline_table_start1+0x1c81>
   14c20:	03c00693          	li	a3,60
   14c24:	4711                	li	a4,4
   14c26:	853e                	mv	a0,a5
   14c28:	00000073          	ecall
   14c2c:	00851863          	bne	a0,s0,14c3c <_ZN20complex_dynamic_type3app17h7272dd8e91891c06E+0x6a>
   14c30:	4505                	li	a0,1
   14c32:	00aa8023          	sb	a0,0(s5)
   14c36:	00baa223          	sw	a1,4(s5)
   14c3a:	a0bd                	j	14ca8 <_ZN20complex_dynamic_type3app17h7272dd8e91891c06E+0xd6>
   14c3c:	853e                	mv	a0,a5
   14c3e:	8652                	mv	a2,s4
   14c40:	00910523          	sb	s1,10(sp)
   14c44:	478d                	li	a5,3
   14c46:	459d                	li	a1,7
   14c48:	02c00693          	li	a3,44
   14c4c:	470d                	li	a4,3
   14c4e:	00000073          	ecall
   14c52:	00851d63          	bne	a0,s0,14c6c <_ZN20complex_dynamic_type3app17h7272dd8e91891c06E+0x9a>
   14c56:	04714703          	lbu	a4,71(sp)
   14c5a:	4505                	li	a0,1
   14c5c:	4609                	li	a2,2
   14c5e:	00aa8023          	sb	a0,0(s5)
   14c62:	00baa223          	sw	a1,4(s5)
   14c66:	02c71963          	bne	a4,a2,14c98 <_ZN20complex_dynamic_type3app17h7272dd8e91891c06E+0xc6>
   14c6a:	a83d                	j	14ca8 <_ZN20complex_dynamic_type3app17h7272dd8e91891c06E+0xd6>
   14c6c:	4681                	li	a3,0
   14c6e:	04f103a3          	sb	a5,71(sp)
   14c72:	6509                	lui	a0,0x2
   14c74:	4595                	li	a1,5
   14c76:	461d                	li	a2,7
   14c78:	4709                	li	a4,2
   14c7a:	eac50513          	addi	a0,a0,-340 # 1eac <.Lline_table_start1+0x1c81>
   14c7e:	08000793          	li	a5,128
   14c82:	00000073          	ecall
   14c86:	4609                	li	a2,2
   14c88:	04f57663          	bgeu	a0,a5,14cd4 <_ZN20complex_dynamic_type3app17h7272dd8e91891c06E+0x102>
   14c8c:	4505                	li	a0,1
   14c8e:	00aa8023          	sb	a0,0(s5)
   14c92:	00baa223          	sw	a1,4(s5)
   14c96:	470d                	li	a4,3
   14c98:	6509                	lui	a0,0x2
   14c9a:	eac50513          	addi	a0,a0,-340 # 1eac <.Lline_table_start1+0x1c81>
   14c9e:	459d                	li	a1,7
   14ca0:	4601                	li	a2,0
   14ca2:	4681                	li	a3,0
   14ca4:	00000073          	ecall
   14ca8:	00a14703          	lbu	a4,10(sp)
   14cac:	4509                	li	a0,2
   14cae:	00a70a63          	beq	a4,a0,14cc2 <_ZN20complex_dynamic_type3app17h7272dd8e91891c06E+0xf0>
   14cb2:	6509                	lui	a0,0x2
   14cb4:	eac50513          	addi	a0,a0,-340 # 1eac <.Lline_table_start1+0x1c81>
   14cb8:	4595                	li	a1,5
   14cba:	4601                	li	a2,0
   14cbc:	4681                	li	a3,0
   14cbe:	00000073          	ecall
   14cc2:	40ba                	lw	ra,140(sp)
   14cc4:	442a                	lw	s0,136(sp)
   14cc6:	449a                	lw	s1,132(sp)
   14cc8:	490a                	lw	s2,128(sp)
   14cca:	59f6                	lw	s3,124(sp)
   14ccc:	5a66                	lw	s4,120(sp)
   14cce:	5ad6                	lw	s5,116(sp)
   14cd0:	6149                	addi	sp,sp,144
   14cd2:	8082                	ret
   14cd4:	00a14703          	lbu	a4,10(sp)
   14cd8:	00c71463          	bne	a4,a2,14ce0 <_ZN20complex_dynamic_type3app17h7272dd8e91891c06E+0x10e>
   14cdc:	470d                	li	a4,3
   14cde:	a825                	j	14d16 <_ZN20complex_dynamic_type3app17h7272dd8e91891c06E+0x144>
   14ce0:	6509                	lui	a0,0x2
   14ce2:	eac50513          	addi	a0,a0,-340 # 1eac <.Lline_table_start1+0x1c81>
   14ce6:	4595                	li	a1,5
   14ce8:	4601                	li	a2,0
   14cea:	4681                	li	a3,0
   14cec:	00000073          	ecall
   14cf0:	04714703          	lbu	a4,71(sp)
   14cf4:	4509                	li	a0,2
   14cf6:	00a10523          	sb	a0,10(sp)
   14cfa:	00a71e63          	bne	a4,a0,14d16 <_ZN20complex_dynamic_type3app17h7272dd8e91891c06E+0x144>
   14cfe:	001a8513          	addi	a0,s5,1
   14d02:	02c00613          	li	a2,44
   14d06:	85d2                	mv	a1,s4
   14d08:	0000a097          	auipc	ra,0xa
   14d0c:	80c080e7          	jalr	-2036(ra) # 1e514 <memcpy>
   14d10:	000a8023          	sb	zero,0(s5)
   14d14:	b77d                	j	14cc2 <_ZN20complex_dynamic_type3app17h7272dd8e91891c06E+0xf0>
   14d16:	6509                	lui	a0,0x2
   14d18:	eac50913          	addi	s2,a0,-340 # 1eac <.Lline_table_start1+0x1c81>
   14d1c:	459d                	li	a1,7
   14d1e:	854a                	mv	a0,s2
   14d20:	4601                	li	a2,0
   14d22:	4681                	li	a3,0
   14d24:	00000073          	ecall
   14d28:	00a14983          	lbu	s3,10(sp)
   14d2c:	001a8513          	addi	a0,s5,1
   14d30:	02c00613          	li	a2,44
   14d34:	85d2                	mv	a1,s4
   14d36:	00009097          	auipc	ra,0x9
   14d3a:	7de080e7          	jalr	2014(ra) # 1e514 <memcpy>
   14d3e:	4509                	li	a0,2
   14d40:	000a8023          	sb	zero,0(s5)
   14d44:	f6a98fe3          	beq	s3,a0,14cc2 <_ZN20complex_dynamic_type3app17h7272dd8e91891c06E+0xf0>
   14d48:	4595                	li	a1,5
   14d4a:	854a                	mv	a0,s2
   14d4c:	4601                	li	a2,0
   14d4e:	4681                	li	a3,0
   14d50:	874e                	mv	a4,s3
   14d52:	00000073          	ecall
   14d56:	b7b5                	j	14cc2 <_ZN20complex_dynamic_type3app17h7272dd8e91891c06E+0xf0>

00014d58 <_ZN20complex_dynamic_type3app17h73a288a07c554540E>:
   14d58:	7115                	addi	sp,sp,-224
   14d5a:	cf86                	sw	ra,220(sp)
   14d5c:	cda2                	sw	s0,216(sp)
   14d5e:	cba6                	sw	s1,212(sp)
   14d60:	c9ca                	sw	s2,208(sp)
   14d62:	c7ce                	sw	s3,204(sp)
   14d64:	c5d2                	sw	s4,200(sp)
   14d66:	c3d6                	sw	s5,196(sp)
   14d68:	8aaa                	mv	s5,a0
   14d6a:	4409                	li	s0,2
   14d6c:	008107a3          	sb	s0,15(sp)
   14d70:	0804                	addi	s1,sp,16
   14d72:	05e00613          	li	a2,94
   14d76:	8526                	mv	a0,s1
   14d78:	00009097          	auipc	ra,0x9
   14d7c:	79c080e7          	jalr	1948(ra) # 1e514 <memcpy>
   14d80:	06f10a13          	addi	s4,sp,111
   14d84:	05500613          	li	a2,85
   14d88:	8552                	mv	a0,s4
   14d8a:	4581                	li	a1,0
   14d8c:	00009097          	auipc	ra,0x9
   14d90:	71c080e7          	jalr	1820(ra) # 1e4a8 <memset>
   14d94:	8626                	mv	a2,s1
   14d96:	06810723          	sb	s0,110(sp)
   14d9a:	6505                	lui	a0,0x1
   14d9c:	4491                	li	s1,4
   14d9e:	459d                	li	a1,7
   14da0:	78a50793          	addi	a5,a0,1930 # 178a <.Lline_table_start1+0x155f>
   14da4:	05e00693          	li	a3,94
   14da8:	4711                	li	a4,4
   14daa:	853e                	mv	a0,a5
   14dac:	00000073          	ecall
   14db0:	00851863          	bne	a0,s0,14dc0 <_ZN20complex_dynamic_type3app17h73a288a07c554540E+0x68>
   14db4:	4505                	li	a0,1
   14db6:	00aa8023          	sb	a0,0(s5)
   14dba:	00baa223          	sw	a1,4(s5)
   14dbe:	a0bd                	j	14e2c <_ZN20complex_dynamic_type3app17h73a288a07c554540E+0xd4>
   14dc0:	853e                	mv	a0,a5
   14dc2:	8652                	mv	a2,s4
   14dc4:	009107a3          	sb	s1,15(sp)
   14dc8:	478d                	li	a5,3
   14dca:	458d                	li	a1,3
   14dcc:	05500693          	li	a3,85
   14dd0:	470d                	li	a4,3
   14dd2:	00000073          	ecall
   14dd6:	00851d63          	bne	a0,s0,14df0 <_ZN20complex_dynamic_type3app17h73a288a07c554540E+0x98>
   14dda:	06e14703          	lbu	a4,110(sp)
   14dde:	4505                	li	a0,1
   14de0:	4609                	li	a2,2
   14de2:	00aa8023          	sb	a0,0(s5)
   14de6:	00baa223          	sw	a1,4(s5)
   14dea:	02c71963          	bne	a4,a2,14e1c <_ZN20complex_dynamic_type3app17h73a288a07c554540E+0xc4>
   14dee:	a83d                	j	14e2c <_ZN20complex_dynamic_type3app17h73a288a07c554540E+0xd4>
   14df0:	4681                	li	a3,0
   14df2:	06f10723          	sb	a5,110(sp)
   14df6:	6505                	lui	a0,0x1
   14df8:	459d                	li	a1,7
   14dfa:	460d                	li	a2,3
   14dfc:	4709                	li	a4,2
   14dfe:	78a50513          	addi	a0,a0,1930 # 178a <.Lline_table_start1+0x155f>
   14e02:	08000793          	li	a5,128
   14e06:	00000073          	ecall
   14e0a:	4609                	li	a2,2
   14e0c:	04f57663          	bgeu	a0,a5,14e58 <_ZN20complex_dynamic_type3app17h73a288a07c554540E+0x100>
   14e10:	4505                	li	a0,1
   14e12:	00aa8023          	sb	a0,0(s5)
   14e16:	00baa223          	sw	a1,4(s5)
   14e1a:	470d                	li	a4,3
   14e1c:	6505                	lui	a0,0x1
   14e1e:	78a50513          	addi	a0,a0,1930 # 178a <.Lline_table_start1+0x155f>
   14e22:	458d                	li	a1,3
   14e24:	4601                	li	a2,0
   14e26:	4681                	li	a3,0
   14e28:	00000073          	ecall
   14e2c:	00f14703          	lbu	a4,15(sp)
   14e30:	4509                	li	a0,2
   14e32:	00a70a63          	beq	a4,a0,14e46 <_ZN20complex_dynamic_type3app17h73a288a07c554540E+0xee>
   14e36:	6505                	lui	a0,0x1
   14e38:	78a50513          	addi	a0,a0,1930 # 178a <.Lline_table_start1+0x155f>
   14e3c:	459d                	li	a1,7
   14e3e:	4601                	li	a2,0
   14e40:	4681                	li	a3,0
   14e42:	00000073          	ecall
   14e46:	40fe                	lw	ra,220(sp)
   14e48:	446e                	lw	s0,216(sp)
   14e4a:	44de                	lw	s1,212(sp)
   14e4c:	494e                	lw	s2,208(sp)
   14e4e:	49be                	lw	s3,204(sp)
   14e50:	4a2e                	lw	s4,200(sp)
   14e52:	4a9e                	lw	s5,196(sp)
   14e54:	612d                	addi	sp,sp,224
   14e56:	8082                	ret
   14e58:	00f14703          	lbu	a4,15(sp)
   14e5c:	00c71463          	bne	a4,a2,14e64 <_ZN20complex_dynamic_type3app17h73a288a07c554540E+0x10c>
   14e60:	470d                	li	a4,3
   14e62:	a825                	j	14e9a <_ZN20complex_dynamic_type3app17h73a288a07c554540E+0x142>
   14e64:	6505                	lui	a0,0x1
   14e66:	78a50513          	addi	a0,a0,1930 # 178a <.Lline_table_start1+0x155f>
   14e6a:	459d                	li	a1,7
   14e6c:	4601                	li	a2,0
   14e6e:	4681                	li	a3,0
   14e70:	00000073          	ecall
   14e74:	06e14703          	lbu	a4,110(sp)
   14e78:	4509                	li	a0,2
   14e7a:	00a107a3          	sb	a0,15(sp)
   14e7e:	00a71e63          	bne	a4,a0,14e9a <_ZN20complex_dynamic_type3app17h73a288a07c554540E+0x142>
   14e82:	001a8513          	addi	a0,s5,1
   14e86:	05500613          	li	a2,85
   14e8a:	85d2                	mv	a1,s4
   14e8c:	00009097          	auipc	ra,0x9
   14e90:	688080e7          	jalr	1672(ra) # 1e514 <memcpy>
   14e94:	000a8023          	sb	zero,0(s5)
   14e98:	b77d                	j	14e46 <_ZN20complex_dynamic_type3app17h73a288a07c554540E+0xee>
   14e9a:	6505                	lui	a0,0x1
   14e9c:	78a50913          	addi	s2,a0,1930 # 178a <.Lline_table_start1+0x155f>
   14ea0:	458d                	li	a1,3
   14ea2:	854a                	mv	a0,s2
   14ea4:	4601                	li	a2,0
   14ea6:	4681                	li	a3,0
   14ea8:	00000073          	ecall
   14eac:	00f14983          	lbu	s3,15(sp)
   14eb0:	001a8513          	addi	a0,s5,1
   14eb4:	05500613          	li	a2,85
   14eb8:	85d2                	mv	a1,s4
   14eba:	00009097          	auipc	ra,0x9
   14ebe:	65a080e7          	jalr	1626(ra) # 1e514 <memcpy>
   14ec2:	4509                	li	a0,2
   14ec4:	000a8023          	sb	zero,0(s5)
   14ec8:	f6a98fe3          	beq	s3,a0,14e46 <_ZN20complex_dynamic_type3app17h73a288a07c554540E+0xee>
   14ecc:	459d                	li	a1,7
   14ece:	854a                	mv	a0,s2
   14ed0:	4601                	li	a2,0
   14ed2:	4681                	li	a3,0
   14ed4:	874e                	mv	a4,s3
   14ed6:	00000073          	ecall
   14eda:	b7b5                	j	14e46 <_ZN20complex_dynamic_type3app17h73a288a07c554540E+0xee>

00014edc <_ZN20complex_dynamic_type3app17h749b7cd109792883E>:
   14edc:	7119                	addi	sp,sp,-128
   14ede:	de86                	sw	ra,124(sp)
   14ee0:	dca2                	sw	s0,120(sp)
   14ee2:	daa6                	sw	s1,116(sp)
   14ee4:	d8ca                	sw	s2,112(sp)
   14ee6:	d6ce                	sw	s3,108(sp)
   14ee8:	d4d2                	sw	s4,104(sp)
   14eea:	d2d6                	sw	s5,100(sp)
   14eec:	8aaa                	mv	s5,a0
   14eee:	4409                	li	s0,2
   14ef0:	008107a3          	sb	s0,15(sp)
   14ef4:	0804                	addi	s1,sp,16
   14ef6:	02400613          	li	a2,36
   14efa:	8526                	mv	a0,s1
   14efc:	00009097          	auipc	ra,0x9
   14f00:	618080e7          	jalr	1560(ra) # 1e514 <memcpy>
   14f04:	03510a13          	addi	s4,sp,53
   14f08:	02f00613          	li	a2,47
   14f0c:	8552                	mv	a0,s4
   14f0e:	4581                	li	a1,0
   14f10:	00009097          	auipc	ra,0x9
   14f14:	598080e7          	jalr	1432(ra) # 1e4a8 <memset>
   14f18:	8626                	mv	a2,s1
   14f1a:	02810a23          	sb	s0,52(sp)
   14f1e:	6505                	lui	a0,0x1
   14f20:	4491                	li	s1,4
   14f22:	4599                	li	a1,6
   14f24:	27350793          	addi	a5,a0,627 # 1273 <.Lline_table_start1+0x1048>
   14f28:	02400693          	li	a3,36
   14f2c:	4711                	li	a4,4
   14f2e:	853e                	mv	a0,a5
   14f30:	00000073          	ecall
   14f34:	00851863          	bne	a0,s0,14f44 <_ZN20complex_dynamic_type3app17h749b7cd109792883E+0x68>
   14f38:	4505                	li	a0,1
   14f3a:	00aa8023          	sb	a0,0(s5)
   14f3e:	00baa223          	sw	a1,4(s5)
   14f42:	a0bd                	j	14fb0 <_ZN20complex_dynamic_type3app17h749b7cd109792883E+0xd4>
   14f44:	853e                	mv	a0,a5
   14f46:	8652                	mv	a2,s4
   14f48:	009107a3          	sb	s1,15(sp)
   14f4c:	478d                	li	a5,3
   14f4e:	45a5                	li	a1,9
   14f50:	02f00693          	li	a3,47
   14f54:	470d                	li	a4,3
   14f56:	00000073          	ecall
   14f5a:	00851d63          	bne	a0,s0,14f74 <_ZN20complex_dynamic_type3app17h749b7cd109792883E+0x98>
   14f5e:	03414703          	lbu	a4,52(sp)
   14f62:	4505                	li	a0,1
   14f64:	4609                	li	a2,2
   14f66:	00aa8023          	sb	a0,0(s5)
   14f6a:	00baa223          	sw	a1,4(s5)
   14f6e:	02c71963          	bne	a4,a2,14fa0 <_ZN20complex_dynamic_type3app17h749b7cd109792883E+0xc4>
   14f72:	a83d                	j	14fb0 <_ZN20complex_dynamic_type3app17h749b7cd109792883E+0xd4>
   14f74:	4681                	li	a3,0
   14f76:	02f10a23          	sb	a5,52(sp)
   14f7a:	6505                	lui	a0,0x1
   14f7c:	4599                	li	a1,6
   14f7e:	4625                	li	a2,9
   14f80:	4709                	li	a4,2
   14f82:	27350513          	addi	a0,a0,627 # 1273 <.Lline_table_start1+0x1048>
   14f86:	08000793          	li	a5,128
   14f8a:	00000073          	ecall
   14f8e:	4609                	li	a2,2
   14f90:	04f57663          	bgeu	a0,a5,14fdc <_ZN20complex_dynamic_type3app17h749b7cd109792883E+0x100>
   14f94:	4505                	li	a0,1
   14f96:	00aa8023          	sb	a0,0(s5)
   14f9a:	00baa223          	sw	a1,4(s5)
   14f9e:	470d                	li	a4,3
   14fa0:	6505                	lui	a0,0x1
   14fa2:	27350513          	addi	a0,a0,627 # 1273 <.Lline_table_start1+0x1048>
   14fa6:	45a5                	li	a1,9
   14fa8:	4601                	li	a2,0
   14faa:	4681                	li	a3,0
   14fac:	00000073          	ecall
   14fb0:	00f14703          	lbu	a4,15(sp)
   14fb4:	4509                	li	a0,2
   14fb6:	00a70a63          	beq	a4,a0,14fca <_ZN20complex_dynamic_type3app17h749b7cd109792883E+0xee>
   14fba:	6505                	lui	a0,0x1
   14fbc:	27350513          	addi	a0,a0,627 # 1273 <.Lline_table_start1+0x1048>
   14fc0:	4599                	li	a1,6
   14fc2:	4601                	li	a2,0
   14fc4:	4681                	li	a3,0
   14fc6:	00000073          	ecall
   14fca:	50f6                	lw	ra,124(sp)
   14fcc:	5466                	lw	s0,120(sp)
   14fce:	54d6                	lw	s1,116(sp)
   14fd0:	5946                	lw	s2,112(sp)
   14fd2:	59b6                	lw	s3,108(sp)
   14fd4:	5a26                	lw	s4,104(sp)
   14fd6:	5a96                	lw	s5,100(sp)
   14fd8:	6109                	addi	sp,sp,128
   14fda:	8082                	ret
   14fdc:	00f14703          	lbu	a4,15(sp)
   14fe0:	00c71463          	bne	a4,a2,14fe8 <_ZN20complex_dynamic_type3app17h749b7cd109792883E+0x10c>
   14fe4:	470d                	li	a4,3
   14fe6:	a825                	j	1501e <_ZN20complex_dynamic_type3app17h749b7cd109792883E+0x142>
   14fe8:	6505                	lui	a0,0x1
   14fea:	27350513          	addi	a0,a0,627 # 1273 <.Lline_table_start1+0x1048>
   14fee:	4599                	li	a1,6
   14ff0:	4601                	li	a2,0
   14ff2:	4681                	li	a3,0
   14ff4:	00000073          	ecall
   14ff8:	03414703          	lbu	a4,52(sp)
   14ffc:	4509                	li	a0,2
   14ffe:	00a107a3          	sb	a0,15(sp)
   15002:	00a71e63          	bne	a4,a0,1501e <_ZN20complex_dynamic_type3app17h749b7cd109792883E+0x142>
   15006:	001a8513          	addi	a0,s5,1
   1500a:	02f00613          	li	a2,47
   1500e:	85d2                	mv	a1,s4
   15010:	00009097          	auipc	ra,0x9
   15014:	504080e7          	jalr	1284(ra) # 1e514 <memcpy>
   15018:	000a8023          	sb	zero,0(s5)
   1501c:	b77d                	j	14fca <_ZN20complex_dynamic_type3app17h749b7cd109792883E+0xee>
   1501e:	6505                	lui	a0,0x1
   15020:	27350913          	addi	s2,a0,627 # 1273 <.Lline_table_start1+0x1048>
   15024:	45a5                	li	a1,9
   15026:	854a                	mv	a0,s2
   15028:	4601                	li	a2,0
   1502a:	4681                	li	a3,0
   1502c:	00000073          	ecall
   15030:	00f14983          	lbu	s3,15(sp)
   15034:	001a8513          	addi	a0,s5,1
   15038:	02f00613          	li	a2,47
   1503c:	85d2                	mv	a1,s4
   1503e:	00009097          	auipc	ra,0x9
   15042:	4d6080e7          	jalr	1238(ra) # 1e514 <memcpy>
   15046:	4509                	li	a0,2
   15048:	000a8023          	sb	zero,0(s5)
   1504c:	f6a98fe3          	beq	s3,a0,14fca <_ZN20complex_dynamic_type3app17h749b7cd109792883E+0xee>
   15050:	4599                	li	a1,6
   15052:	854a                	mv	a0,s2
   15054:	4601                	li	a2,0
   15056:	4681                	li	a3,0
   15058:	874e                	mv	a4,s3
   1505a:	00000073          	ecall
   1505e:	b7b5                	j	14fca <_ZN20complex_dynamic_type3app17h749b7cd109792883E+0xee>

00015060 <_ZN20complex_dynamic_type3app17h7673a1b0f93e25e4E>:
   15060:	7159                	addi	sp,sp,-112
   15062:	d686                	sw	ra,108(sp)
   15064:	d4a2                	sw	s0,104(sp)
   15066:	d2a6                	sw	s1,100(sp)
   15068:	d0ca                	sw	s2,96(sp)
   1506a:	cece                	sw	s3,92(sp)
   1506c:	ccd2                	sw	s4,88(sp)
   1506e:	cad6                	sw	s5,84(sp)
   15070:	8aaa                	mv	s5,a0
   15072:	4409                	li	s0,2
   15074:	008105a3          	sb	s0,11(sp)
   15078:	0064                	addi	s1,sp,12
   1507a:	02300613          	li	a2,35
   1507e:	8526                	mv	a0,s1
   15080:	00009097          	auipc	ra,0x9
   15084:	494080e7          	jalr	1172(ra) # 1e514 <memcpy>
   15088:	03010a13          	addi	s4,sp,48
   1508c:	02400613          	li	a2,36
   15090:	8552                	mv	a0,s4
   15092:	4581                	li	a1,0
   15094:	00009097          	auipc	ra,0x9
   15098:	414080e7          	jalr	1044(ra) # 1e4a8 <memset>
   1509c:	8626                	mv	a2,s1
   1509e:	028107a3          	sb	s0,47(sp)
   150a2:	6509                	lui	a0,0x2
   150a4:	4491                	li	s1,4
   150a6:	4591                	li	a1,4
   150a8:	bd650793          	addi	a5,a0,-1066 # 1bd6 <.Lline_table_start1+0x19ab>
   150ac:	02300693          	li	a3,35
   150b0:	4711                	li	a4,4
   150b2:	853e                	mv	a0,a5
   150b4:	00000073          	ecall
   150b8:	00851863          	bne	a0,s0,150c8 <_ZN20complex_dynamic_type3app17h7673a1b0f93e25e4E+0x68>
   150bc:	4505                	li	a0,1
   150be:	00aa8023          	sb	a0,0(s5)
   150c2:	00baa223          	sw	a1,4(s5)
   150c6:	a0bd                	j	15134 <_ZN20complex_dynamic_type3app17h7673a1b0f93e25e4E+0xd4>
   150c8:	853e                	mv	a0,a5
   150ca:	8652                	mv	a2,s4
   150cc:	009105a3          	sb	s1,11(sp)
   150d0:	478d                	li	a5,3
   150d2:	45a1                	li	a1,8
   150d4:	02400693          	li	a3,36
   150d8:	470d                	li	a4,3
   150da:	00000073          	ecall
   150de:	00851d63          	bne	a0,s0,150f8 <_ZN20complex_dynamic_type3app17h7673a1b0f93e25e4E+0x98>
   150e2:	02f14703          	lbu	a4,47(sp)
   150e6:	4505                	li	a0,1
   150e8:	4609                	li	a2,2
   150ea:	00aa8023          	sb	a0,0(s5)
   150ee:	00baa223          	sw	a1,4(s5)
   150f2:	02c71963          	bne	a4,a2,15124 <_ZN20complex_dynamic_type3app17h7673a1b0f93e25e4E+0xc4>
   150f6:	a83d                	j	15134 <_ZN20complex_dynamic_type3app17h7673a1b0f93e25e4E+0xd4>
   150f8:	4681                	li	a3,0
   150fa:	02f107a3          	sb	a5,47(sp)
   150fe:	6509                	lui	a0,0x2
   15100:	4591                	li	a1,4
   15102:	4621                	li	a2,8
   15104:	4709                	li	a4,2
   15106:	bd650513          	addi	a0,a0,-1066 # 1bd6 <.Lline_table_start1+0x19ab>
   1510a:	08000793          	li	a5,128
   1510e:	00000073          	ecall
   15112:	4609                	li	a2,2
   15114:	04f57663          	bgeu	a0,a5,15160 <_ZN20complex_dynamic_type3app17h7673a1b0f93e25e4E+0x100>
   15118:	4505                	li	a0,1
   1511a:	00aa8023          	sb	a0,0(s5)
   1511e:	00baa223          	sw	a1,4(s5)
   15122:	470d                	li	a4,3
   15124:	6509                	lui	a0,0x2
   15126:	bd650513          	addi	a0,a0,-1066 # 1bd6 <.Lline_table_start1+0x19ab>
   1512a:	45a1                	li	a1,8
   1512c:	4601                	li	a2,0
   1512e:	4681                	li	a3,0
   15130:	00000073          	ecall
   15134:	00b14703          	lbu	a4,11(sp)
   15138:	4509                	li	a0,2
   1513a:	00a70a63          	beq	a4,a0,1514e <_ZN20complex_dynamic_type3app17h7673a1b0f93e25e4E+0xee>
   1513e:	6509                	lui	a0,0x2
   15140:	bd650513          	addi	a0,a0,-1066 # 1bd6 <.Lline_table_start1+0x19ab>
   15144:	4591                	li	a1,4
   15146:	4601                	li	a2,0
   15148:	4681                	li	a3,0
   1514a:	00000073          	ecall
   1514e:	50b6                	lw	ra,108(sp)
   15150:	5426                	lw	s0,104(sp)
   15152:	5496                	lw	s1,100(sp)
   15154:	5906                	lw	s2,96(sp)
   15156:	49f6                	lw	s3,92(sp)
   15158:	4a66                	lw	s4,88(sp)
   1515a:	4ad6                	lw	s5,84(sp)
   1515c:	6165                	addi	sp,sp,112
   1515e:	8082                	ret
   15160:	00b14703          	lbu	a4,11(sp)
   15164:	00c71463          	bne	a4,a2,1516c <_ZN20complex_dynamic_type3app17h7673a1b0f93e25e4E+0x10c>
   15168:	470d                	li	a4,3
   1516a:	a825                	j	151a2 <_ZN20complex_dynamic_type3app17h7673a1b0f93e25e4E+0x142>
   1516c:	6509                	lui	a0,0x2
   1516e:	bd650513          	addi	a0,a0,-1066 # 1bd6 <.Lline_table_start1+0x19ab>
   15172:	4591                	li	a1,4
   15174:	4601                	li	a2,0
   15176:	4681                	li	a3,0
   15178:	00000073          	ecall
   1517c:	02f14703          	lbu	a4,47(sp)
   15180:	4509                	li	a0,2
   15182:	00a105a3          	sb	a0,11(sp)
   15186:	00a71e63          	bne	a4,a0,151a2 <_ZN20complex_dynamic_type3app17h7673a1b0f93e25e4E+0x142>
   1518a:	001a8513          	addi	a0,s5,1
   1518e:	02400613          	li	a2,36
   15192:	85d2                	mv	a1,s4
   15194:	00009097          	auipc	ra,0x9
   15198:	380080e7          	jalr	896(ra) # 1e514 <memcpy>
   1519c:	000a8023          	sb	zero,0(s5)
   151a0:	b77d                	j	1514e <_ZN20complex_dynamic_type3app17h7673a1b0f93e25e4E+0xee>
   151a2:	6509                	lui	a0,0x2
   151a4:	bd650913          	addi	s2,a0,-1066 # 1bd6 <.Lline_table_start1+0x19ab>
   151a8:	45a1                	li	a1,8
   151aa:	854a                	mv	a0,s2
   151ac:	4601                	li	a2,0
   151ae:	4681                	li	a3,0
   151b0:	00000073          	ecall
   151b4:	00b14983          	lbu	s3,11(sp)
   151b8:	001a8513          	addi	a0,s5,1
   151bc:	02400613          	li	a2,36
   151c0:	85d2                	mv	a1,s4
   151c2:	00009097          	auipc	ra,0x9
   151c6:	352080e7          	jalr	850(ra) # 1e514 <memcpy>
   151ca:	4509                	li	a0,2
   151cc:	000a8023          	sb	zero,0(s5)
   151d0:	f6a98fe3          	beq	s3,a0,1514e <_ZN20complex_dynamic_type3app17h7673a1b0f93e25e4E+0xee>
   151d4:	4591                	li	a1,4
   151d6:	854a                	mv	a0,s2
   151d8:	4601                	li	a2,0
   151da:	4681                	li	a3,0
   151dc:	874e                	mv	a4,s3
   151de:	00000073          	ecall
   151e2:	b7b5                	j	1514e <_ZN20complex_dynamic_type3app17h7673a1b0f93e25e4E+0xee>

000151e4 <_ZN20complex_dynamic_type3app17h7751f38c1fe6c522E>:
   151e4:	7159                	addi	sp,sp,-112
   151e6:	d686                	sw	ra,108(sp)
   151e8:	d4a2                	sw	s0,104(sp)
   151ea:	d2a6                	sw	s1,100(sp)
   151ec:	d0ca                	sw	s2,96(sp)
   151ee:	cece                	sw	s3,92(sp)
   151f0:	ccd2                	sw	s4,88(sp)
   151f2:	cad6                	sw	s5,84(sp)
   151f4:	8aaa                	mv	s5,a0
   151f6:	4409                	li	s0,2
   151f8:	00810223          	sb	s0,4(sp)
   151fc:	00510493          	addi	s1,sp,5
   15200:	02300613          	li	a2,35
   15204:	8526                	mv	a0,s1
   15206:	00009097          	auipc	ra,0x9
   1520a:	30e080e7          	jalr	782(ra) # 1e514 <memcpy>
   1520e:	02910a13          	addi	s4,sp,41
   15212:	02b00613          	li	a2,43
   15216:	8552                	mv	a0,s4
   15218:	4581                	li	a1,0
   1521a:	00009097          	auipc	ra,0x9
   1521e:	28e080e7          	jalr	654(ra) # 1e4a8 <memset>
   15222:	8626                	mv	a2,s1
   15224:	02810423          	sb	s0,40(sp)
   15228:	6505                	lui	a0,0x1
   1522a:	4491                	li	s1,4
   1522c:	4589                	li	a1,2
   1522e:	d5d50793          	addi	a5,a0,-675 # d5d <.Lline_table_start1+0xb32>
   15232:	02300693          	li	a3,35
   15236:	4711                	li	a4,4
   15238:	853e                	mv	a0,a5
   1523a:	00000073          	ecall
   1523e:	00851863          	bne	a0,s0,1524e <_ZN20complex_dynamic_type3app17h7751f38c1fe6c522E+0x6a>
   15242:	4505                	li	a0,1
   15244:	00aa8023          	sb	a0,0(s5)
   15248:	00baa223          	sw	a1,4(s5)
   1524c:	a0bd                	j	152ba <_ZN20complex_dynamic_type3app17h7751f38c1fe6c522E+0xd6>
   1524e:	853e                	mv	a0,a5
   15250:	4581                	li	a1,0
   15252:	8652                	mv	a2,s4
   15254:	00910223          	sb	s1,4(sp)
   15258:	478d                	li	a5,3
   1525a:	02b00693          	li	a3,43
   1525e:	470d                	li	a4,3
   15260:	00000073          	ecall
   15264:	00851d63          	bne	a0,s0,1527e <_ZN20complex_dynamic_type3app17h7751f38c1fe6c522E+0x9a>
   15268:	02814703          	lbu	a4,40(sp)
   1526c:	4505                	li	a0,1
   1526e:	4609                	li	a2,2
   15270:	00aa8023          	sb	a0,0(s5)
   15274:	00baa223          	sw	a1,4(s5)
   15278:	02c71963          	bne	a4,a2,152aa <_ZN20complex_dynamic_type3app17h7751f38c1fe6c522E+0xc6>
   1527c:	a83d                	j	152ba <_ZN20complex_dynamic_type3app17h7751f38c1fe6c522E+0xd6>
   1527e:	4601                	li	a2,0
   15280:	4681                	li	a3,0
   15282:	02f10423          	sb	a5,40(sp)
   15286:	6505                	lui	a0,0x1
   15288:	4589                	li	a1,2
   1528a:	4709                	li	a4,2
   1528c:	d5d50513          	addi	a0,a0,-675 # d5d <.Lline_table_start1+0xb32>
   15290:	08000793          	li	a5,128
   15294:	00000073          	ecall
   15298:	4609                	li	a2,2
   1529a:	04f57663          	bgeu	a0,a5,152e6 <_ZN20complex_dynamic_type3app17h7751f38c1fe6c522E+0x102>
   1529e:	4505                	li	a0,1
   152a0:	00aa8023          	sb	a0,0(s5)
   152a4:	00baa223          	sw	a1,4(s5)
   152a8:	470d                	li	a4,3
   152aa:	6505                	lui	a0,0x1
   152ac:	d5d50513          	addi	a0,a0,-675 # d5d <.Lline_table_start1+0xb32>
   152b0:	4581                	li	a1,0
   152b2:	4601                	li	a2,0
   152b4:	4681                	li	a3,0
   152b6:	00000073          	ecall
   152ba:	00414703          	lbu	a4,4(sp)
   152be:	4509                	li	a0,2
   152c0:	00a70a63          	beq	a4,a0,152d4 <_ZN20complex_dynamic_type3app17h7751f38c1fe6c522E+0xf0>
   152c4:	6505                	lui	a0,0x1
   152c6:	d5d50513          	addi	a0,a0,-675 # d5d <.Lline_table_start1+0xb32>
   152ca:	4589                	li	a1,2
   152cc:	4601                	li	a2,0
   152ce:	4681                	li	a3,0
   152d0:	00000073          	ecall
   152d4:	50b6                	lw	ra,108(sp)
   152d6:	5426                	lw	s0,104(sp)
   152d8:	5496                	lw	s1,100(sp)
   152da:	5906                	lw	s2,96(sp)
   152dc:	49f6                	lw	s3,92(sp)
   152de:	4a66                	lw	s4,88(sp)
   152e0:	4ad6                	lw	s5,84(sp)
   152e2:	6165                	addi	sp,sp,112
   152e4:	8082                	ret
   152e6:	00414703          	lbu	a4,4(sp)
   152ea:	00c71463          	bne	a4,a2,152f2 <_ZN20complex_dynamic_type3app17h7751f38c1fe6c522E+0x10e>
   152ee:	470d                	li	a4,3
   152f0:	a825                	j	15328 <_ZN20complex_dynamic_type3app17h7751f38c1fe6c522E+0x144>
   152f2:	6505                	lui	a0,0x1
   152f4:	d5d50513          	addi	a0,a0,-675 # d5d <.Lline_table_start1+0xb32>
   152f8:	4589                	li	a1,2
   152fa:	4601                	li	a2,0
   152fc:	4681                	li	a3,0
   152fe:	00000073          	ecall
   15302:	02814703          	lbu	a4,40(sp)
   15306:	4509                	li	a0,2
   15308:	00a10223          	sb	a0,4(sp)
   1530c:	00a71e63          	bne	a4,a0,15328 <_ZN20complex_dynamic_type3app17h7751f38c1fe6c522E+0x144>
   15310:	001a8513          	addi	a0,s5,1
   15314:	02b00613          	li	a2,43
   15318:	85d2                	mv	a1,s4
   1531a:	00009097          	auipc	ra,0x9
   1531e:	1fa080e7          	jalr	506(ra) # 1e514 <memcpy>
   15322:	000a8023          	sb	zero,0(s5)
   15326:	b77d                	j	152d4 <_ZN20complex_dynamic_type3app17h7751f38c1fe6c522E+0xf0>
   15328:	6505                	lui	a0,0x1
   1532a:	d5d50913          	addi	s2,a0,-675 # d5d <.Lline_table_start1+0xb32>
   1532e:	854a                	mv	a0,s2
   15330:	4581                	li	a1,0
   15332:	4601                	li	a2,0
   15334:	4681                	li	a3,0
   15336:	00000073          	ecall
   1533a:	00414983          	lbu	s3,4(sp)
   1533e:	001a8513          	addi	a0,s5,1
   15342:	02b00613          	li	a2,43
   15346:	85d2                	mv	a1,s4
   15348:	00009097          	auipc	ra,0x9
   1534c:	1cc080e7          	jalr	460(ra) # 1e514 <memcpy>
   15350:	4509                	li	a0,2
   15352:	000a8023          	sb	zero,0(s5)
   15356:	f6a98fe3          	beq	s3,a0,152d4 <_ZN20complex_dynamic_type3app17h7751f38c1fe6c522E+0xf0>
   1535a:	4589                	li	a1,2
   1535c:	854a                	mv	a0,s2
   1535e:	4601                	li	a2,0
   15360:	4681                	li	a3,0
   15362:	874e                	mv	a4,s3
   15364:	00000073          	ecall
   15368:	b7b5                	j	152d4 <_ZN20complex_dynamic_type3app17h7751f38c1fe6c522E+0xf0>

0001536a <_ZN20complex_dynamic_type3app17h7a093db2e7f61292E>:
   1536a:	7175                	addi	sp,sp,-144
   1536c:	c706                	sw	ra,140(sp)
   1536e:	c522                	sw	s0,136(sp)
   15370:	c326                	sw	s1,132(sp)
   15372:	c14a                	sw	s2,128(sp)
   15374:	dece                	sw	s3,124(sp)
   15376:	dcd2                	sw	s4,120(sp)
   15378:	8a2a                	mv	s4,a0
   1537a:	4409                	li	s0,2
   1537c:	008101a3          	sb	s0,3(sp)
   15380:	0044                	addi	s1,sp,4
   15382:	02200613          	li	a2,34
   15386:	8526                	mv	a0,s1
   15388:	00009097          	auipc	ra,0x9
   1538c:	18c080e7          	jalr	396(ra) # 1e514 <memcpy>
   15390:	02710993          	addi	s3,sp,39
   15394:	05100613          	li	a2,81
   15398:	854e                	mv	a0,s3
   1539a:	4581                	li	a1,0
   1539c:	00009097          	auipc	ra,0x9
   153a0:	10c080e7          	jalr	268(ra) # 1e4a8 <memset>
   153a4:	8626                	mv	a2,s1
   153a6:	02810323          	sb	s0,38(sp)
   153aa:	4791                	li	a5,4
   153ac:	55e00513          	li	a0,1374
   153b0:	45a5                	li	a1,9
   153b2:	02200693          	li	a3,34
   153b6:	4711                	li	a4,4
   153b8:	00000073          	ecall
   153bc:	00851863          	bne	a0,s0,153cc <_ZN20complex_dynamic_type3app17h7a093db2e7f61292E+0x62>
   153c0:	4505                	li	a0,1
   153c2:	00aa0023          	sb	a0,0(s4)
   153c6:	00ba2223          	sw	a1,4(s4)
   153ca:	a0b5                	j	15436 <_ZN20complex_dynamic_type3app17h7a093db2e7f61292E+0xcc>
   153cc:	864e                	mv	a2,s3
   153ce:	00f101a3          	sb	a5,3(sp)
   153d2:	478d                	li	a5,3
   153d4:	55e00513          	li	a0,1374
   153d8:	45a5                	li	a1,9
   153da:	05100693          	li	a3,81
   153de:	470d                	li	a4,3
   153e0:	00000073          	ecall
   153e4:	00851d63          	bne	a0,s0,153fe <_ZN20complex_dynamic_type3app17h7a093db2e7f61292E+0x94>
   153e8:	02614703          	lbu	a4,38(sp)
   153ec:	4505                	li	a0,1
   153ee:	4609                	li	a2,2
   153f0:	00aa0023          	sb	a0,0(s4)
   153f4:	00ba2223          	sw	a1,4(s4)
   153f8:	02c71863          	bne	a4,a2,15428 <_ZN20complex_dynamic_type3app17h7a093db2e7f61292E+0xbe>
   153fc:	a82d                	j	15436 <_ZN20complex_dynamic_type3app17h7a093db2e7f61292E+0xcc>
   153fe:	4681                	li	a3,0
   15400:	02f10323          	sb	a5,38(sp)
   15404:	55e00513          	li	a0,1374
   15408:	45a5                	li	a1,9
   1540a:	4625                	li	a2,9
   1540c:	4709                	li	a4,2
   1540e:	08000793          	li	a5,128
   15412:	00000073          	ecall
   15416:	4609                	li	a2,2
   15418:	04f57363          	bgeu	a0,a5,1545e <_ZN20complex_dynamic_type3app17h7a093db2e7f61292E+0xf4>
   1541c:	4505                	li	a0,1
   1541e:	00aa0023          	sb	a0,0(s4)
   15422:	00ba2223          	sw	a1,4(s4)
   15426:	470d                	li	a4,3
   15428:	55e00513          	li	a0,1374
   1542c:	45a5                	li	a1,9
   1542e:	4601                	li	a2,0
   15430:	4681                	li	a3,0
   15432:	00000073          	ecall
   15436:	00314703          	lbu	a4,3(sp)
   1543a:	4509                	li	a0,2
   1543c:	00a70963          	beq	a4,a0,1544e <_ZN20complex_dynamic_type3app17h7a093db2e7f61292E+0xe4>
   15440:	55e00513          	li	a0,1374
   15444:	45a5                	li	a1,9
   15446:	4601                	li	a2,0
   15448:	4681                	li	a3,0
   1544a:	00000073          	ecall
   1544e:	40ba                	lw	ra,140(sp)
   15450:	442a                	lw	s0,136(sp)
   15452:	449a                	lw	s1,132(sp)
   15454:	490a                	lw	s2,128(sp)
   15456:	59f6                	lw	s3,124(sp)
   15458:	5a66                	lw	s4,120(sp)
   1545a:	6149                	addi	sp,sp,144
   1545c:	8082                	ret
   1545e:	00314703          	lbu	a4,3(sp)
   15462:	00c71463          	bne	a4,a2,1546a <_ZN20complex_dynamic_type3app17h7a093db2e7f61292E+0x100>
   15466:	470d                	li	a4,3
   15468:	a81d                	j	1549e <_ZN20complex_dynamic_type3app17h7a093db2e7f61292E+0x134>
   1546a:	55e00513          	li	a0,1374
   1546e:	45a5                	li	a1,9
   15470:	4601                	li	a2,0
   15472:	4681                	li	a3,0
   15474:	00000073          	ecall
   15478:	02614703          	lbu	a4,38(sp)
   1547c:	4509                	li	a0,2
   1547e:	00a101a3          	sb	a0,3(sp)
   15482:	00a71e63          	bne	a4,a0,1549e <_ZN20complex_dynamic_type3app17h7a093db2e7f61292E+0x134>
   15486:	001a0513          	addi	a0,s4,1
   1548a:	05100613          	li	a2,81
   1548e:	85ce                	mv	a1,s3
   15490:	00009097          	auipc	ra,0x9
   15494:	084080e7          	jalr	132(ra) # 1e514 <memcpy>
   15498:	000a0023          	sb	zero,0(s4)
   1549c:	bf4d                	j	1544e <_ZN20complex_dynamic_type3app17h7a093db2e7f61292E+0xe4>
   1549e:	55e00513          	li	a0,1374
   154a2:	45a5                	li	a1,9
   154a4:	4601                	li	a2,0
   154a6:	4681                	li	a3,0
   154a8:	00000073          	ecall
   154ac:	00314903          	lbu	s2,3(sp)
   154b0:	001a0513          	addi	a0,s4,1
   154b4:	05100613          	li	a2,81
   154b8:	85ce                	mv	a1,s3
   154ba:	00009097          	auipc	ra,0x9
   154be:	05a080e7          	jalr	90(ra) # 1e514 <memcpy>
   154c2:	4509                	li	a0,2
   154c4:	000a0023          	sb	zero,0(s4)
   154c8:	f8a903e3          	beq	s2,a0,1544e <_ZN20complex_dynamic_type3app17h7a093db2e7f61292E+0xe4>
   154cc:	55e00513          	li	a0,1374
   154d0:	45a5                	li	a1,9
   154d2:	4601                	li	a2,0
   154d4:	4681                	li	a3,0
   154d6:	874a                	mv	a4,s2
   154d8:	00000073          	ecall
   154dc:	bf8d                	j	1544e <_ZN20complex_dynamic_type3app17h7a093db2e7f61292E+0xe4>

000154de <_ZN20complex_dynamic_type3app17h7a7524171868f636E>:
   154de:	7135                	addi	sp,sp,-160
   154e0:	cf06                	sw	ra,156(sp)
   154e2:	cd22                	sw	s0,152(sp)
   154e4:	cb26                	sw	s1,148(sp)
   154e6:	c94a                	sw	s2,144(sp)
   154e8:	c74e                	sw	s3,140(sp)
   154ea:	c552                	sw	s4,136(sp)
   154ec:	c356                	sw	s5,132(sp)
   154ee:	8aaa                	mv	s5,a0
   154f0:	4409                	li	s0,2
   154f2:	008104a3          	sb	s0,9(sp)
   154f6:	00a10493          	addi	s1,sp,10
   154fa:	03100613          	li	a2,49
   154fe:	8526                	mv	a0,s1
   15500:	00009097          	auipc	ra,0x9
   15504:	014080e7          	jalr	20(ra) # 1e514 <memcpy>
   15508:	03c10a13          	addi	s4,sp,60
   1550c:	04800613          	li	a2,72
   15510:	8552                	mv	a0,s4
   15512:	4581                	li	a1,0
   15514:	00009097          	auipc	ra,0x9
   15518:	f94080e7          	jalr	-108(ra) # 1e4a8 <memset>
   1551c:	8626                	mv	a2,s1
   1551e:	02810da3          	sb	s0,59(sp)
   15522:	6509                	lui	a0,0x2
   15524:	4491                	li	s1,4
   15526:	4591                	li	a1,4
   15528:	80e50793          	addi	a5,a0,-2034 # 180e <.Lline_table_start1+0x15e3>
   1552c:	03100693          	li	a3,49
   15530:	4711                	li	a4,4
   15532:	853e                	mv	a0,a5
   15534:	00000073          	ecall
   15538:	00851863          	bne	a0,s0,15548 <_ZN20complex_dynamic_type3app17h7a7524171868f636E+0x6a>
   1553c:	4505                	li	a0,1
   1553e:	00aa8023          	sb	a0,0(s5)
   15542:	00baa223          	sw	a1,4(s5)
   15546:	a0bd                	j	155b4 <_ZN20complex_dynamic_type3app17h7a7524171868f636E+0xd6>
   15548:	853e                	mv	a0,a5
   1554a:	8652                	mv	a2,s4
   1554c:	009104a3          	sb	s1,9(sp)
   15550:	478d                	li	a5,3
   15552:	458d                	li	a1,3
   15554:	04800693          	li	a3,72
   15558:	470d                	li	a4,3
   1555a:	00000073          	ecall
   1555e:	00851d63          	bne	a0,s0,15578 <_ZN20complex_dynamic_type3app17h7a7524171868f636E+0x9a>
   15562:	03b14703          	lbu	a4,59(sp)
   15566:	4505                	li	a0,1
   15568:	4609                	li	a2,2
   1556a:	00aa8023          	sb	a0,0(s5)
   1556e:	00baa223          	sw	a1,4(s5)
   15572:	02c71963          	bne	a4,a2,155a4 <_ZN20complex_dynamic_type3app17h7a7524171868f636E+0xc6>
   15576:	a83d                	j	155b4 <_ZN20complex_dynamic_type3app17h7a7524171868f636E+0xd6>
   15578:	4681                	li	a3,0
   1557a:	02f10da3          	sb	a5,59(sp)
   1557e:	6509                	lui	a0,0x2
   15580:	4591                	li	a1,4
   15582:	460d                	li	a2,3
   15584:	4709                	li	a4,2
   15586:	80e50513          	addi	a0,a0,-2034 # 180e <.Lline_table_start1+0x15e3>
   1558a:	08000793          	li	a5,128
   1558e:	00000073          	ecall
   15592:	4609                	li	a2,2
   15594:	04f57663          	bgeu	a0,a5,155e0 <_ZN20complex_dynamic_type3app17h7a7524171868f636E+0x102>
   15598:	4505                	li	a0,1
   1559a:	00aa8023          	sb	a0,0(s5)
   1559e:	00baa223          	sw	a1,4(s5)
   155a2:	470d                	li	a4,3
   155a4:	6509                	lui	a0,0x2
   155a6:	80e50513          	addi	a0,a0,-2034 # 180e <.Lline_table_start1+0x15e3>
   155aa:	458d                	li	a1,3
   155ac:	4601                	li	a2,0
   155ae:	4681                	li	a3,0
   155b0:	00000073          	ecall
   155b4:	00914703          	lbu	a4,9(sp)
   155b8:	4509                	li	a0,2
   155ba:	00a70a63          	beq	a4,a0,155ce <_ZN20complex_dynamic_type3app17h7a7524171868f636E+0xf0>
   155be:	6509                	lui	a0,0x2
   155c0:	80e50513          	addi	a0,a0,-2034 # 180e <.Lline_table_start1+0x15e3>
   155c4:	4591                	li	a1,4
   155c6:	4601                	li	a2,0
   155c8:	4681                	li	a3,0
   155ca:	00000073          	ecall
   155ce:	40fa                	lw	ra,156(sp)
   155d0:	446a                	lw	s0,152(sp)
   155d2:	44da                	lw	s1,148(sp)
   155d4:	494a                	lw	s2,144(sp)
   155d6:	49ba                	lw	s3,140(sp)
   155d8:	4a2a                	lw	s4,136(sp)
   155da:	4a9a                	lw	s5,132(sp)
   155dc:	610d                	addi	sp,sp,160
   155de:	8082                	ret
   155e0:	00914703          	lbu	a4,9(sp)
   155e4:	00c71463          	bne	a4,a2,155ec <_ZN20complex_dynamic_type3app17h7a7524171868f636E+0x10e>
   155e8:	470d                	li	a4,3
   155ea:	a825                	j	15622 <_ZN20complex_dynamic_type3app17h7a7524171868f636E+0x144>
   155ec:	6509                	lui	a0,0x2
   155ee:	80e50513          	addi	a0,a0,-2034 # 180e <.Lline_table_start1+0x15e3>
   155f2:	4591                	li	a1,4
   155f4:	4601                	li	a2,0
   155f6:	4681                	li	a3,0
   155f8:	00000073          	ecall
   155fc:	03b14703          	lbu	a4,59(sp)
   15600:	4509                	li	a0,2
   15602:	00a104a3          	sb	a0,9(sp)
   15606:	00a71e63          	bne	a4,a0,15622 <_ZN20complex_dynamic_type3app17h7a7524171868f636E+0x144>
   1560a:	001a8513          	addi	a0,s5,1
   1560e:	04800613          	li	a2,72
   15612:	85d2                	mv	a1,s4
   15614:	00009097          	auipc	ra,0x9
   15618:	f00080e7          	jalr	-256(ra) # 1e514 <memcpy>
   1561c:	000a8023          	sb	zero,0(s5)
   15620:	b77d                	j	155ce <_ZN20complex_dynamic_type3app17h7a7524171868f636E+0xf0>
   15622:	6509                	lui	a0,0x2
   15624:	80e50913          	addi	s2,a0,-2034 # 180e <.Lline_table_start1+0x15e3>
   15628:	458d                	li	a1,3
   1562a:	854a                	mv	a0,s2
   1562c:	4601                	li	a2,0
   1562e:	4681                	li	a3,0
   15630:	00000073          	ecall
   15634:	00914983          	lbu	s3,9(sp)
   15638:	001a8513          	addi	a0,s5,1
   1563c:	04800613          	li	a2,72
   15640:	85d2                	mv	a1,s4
   15642:	00009097          	auipc	ra,0x9
   15646:	ed2080e7          	jalr	-302(ra) # 1e514 <memcpy>
   1564a:	4509                	li	a0,2
   1564c:	000a8023          	sb	zero,0(s5)
   15650:	f6a98fe3          	beq	s3,a0,155ce <_ZN20complex_dynamic_type3app17h7a7524171868f636E+0xf0>
   15654:	4591                	li	a1,4
   15656:	854a                	mv	a0,s2
   15658:	4601                	li	a2,0
   1565a:	4681                	li	a3,0
   1565c:	874e                	mv	a4,s3
   1565e:	00000073          	ecall
   15662:	b7b5                	j	155ce <_ZN20complex_dynamic_type3app17h7a7524171868f636E+0xf0>

00015664 <_ZN20complex_dynamic_type3app17h7aaf6972d2771ffbE>:
   15664:	7119                	addi	sp,sp,-128
   15666:	de86                	sw	ra,124(sp)
   15668:	dca2                	sw	s0,120(sp)
   1566a:	daa6                	sw	s1,116(sp)
   1566c:	d8ca                	sw	s2,112(sp)
   1566e:	d6ce                	sw	s3,108(sp)
   15670:	d4d2                	sw	s4,104(sp)
   15672:	d2d6                	sw	s5,100(sp)
   15674:	8aaa                	mv	s5,a0
   15676:	4409                	li	s0,2
   15678:	008101a3          	sb	s0,3(sp)
   1567c:	0044                	addi	s1,sp,4
   1567e:	03800613          	li	a2,56
   15682:	8526                	mv	a0,s1
   15684:	00009097          	auipc	ra,0x9
   15688:	e90080e7          	jalr	-368(ra) # 1e514 <memcpy>
   1568c:	03d10a13          	addi	s4,sp,61
   15690:	02700613          	li	a2,39
   15694:	8552                	mv	a0,s4
   15696:	4581                	li	a1,0
   15698:	00009097          	auipc	ra,0x9
   1569c:	e10080e7          	jalr	-496(ra) # 1e4a8 <memset>
   156a0:	8626                	mv	a2,s1
   156a2:	02810e23          	sb	s0,60(sp)
   156a6:	6505                	lui	a0,0x1
   156a8:	4491                	li	s1,4
   156aa:	4589                	li	a1,2
   156ac:	e2b50793          	addi	a5,a0,-469 # e2b <.Lline_table_start1+0xc00>
   156b0:	03800693          	li	a3,56
   156b4:	4711                	li	a4,4
   156b6:	853e                	mv	a0,a5
   156b8:	00000073          	ecall
   156bc:	00851863          	bne	a0,s0,156cc <_ZN20complex_dynamic_type3app17h7aaf6972d2771ffbE+0x68>
   156c0:	4505                	li	a0,1
   156c2:	00aa8023          	sb	a0,0(s5)
   156c6:	00baa223          	sw	a1,4(s5)
   156ca:	a0bd                	j	15738 <_ZN20complex_dynamic_type3app17h7aaf6972d2771ffbE+0xd4>
   156cc:	853e                	mv	a0,a5
   156ce:	8652                	mv	a2,s4
   156d0:	009101a3          	sb	s1,3(sp)
   156d4:	478d                	li	a5,3
   156d6:	45a1                	li	a1,8
   156d8:	02700693          	li	a3,39
   156dc:	470d                	li	a4,3
   156de:	00000073          	ecall
   156e2:	00851d63          	bne	a0,s0,156fc <_ZN20complex_dynamic_type3app17h7aaf6972d2771ffbE+0x98>
   156e6:	03c14703          	lbu	a4,60(sp)
   156ea:	4505                	li	a0,1
   156ec:	4609                	li	a2,2
   156ee:	00aa8023          	sb	a0,0(s5)
   156f2:	00baa223          	sw	a1,4(s5)
   156f6:	02c71963          	bne	a4,a2,15728 <_ZN20complex_dynamic_type3app17h7aaf6972d2771ffbE+0xc4>
   156fa:	a83d                	j	15738 <_ZN20complex_dynamic_type3app17h7aaf6972d2771ffbE+0xd4>
   156fc:	4681                	li	a3,0
   156fe:	02f10e23          	sb	a5,60(sp)
   15702:	6505                	lui	a0,0x1
   15704:	4589                	li	a1,2
   15706:	4621                	li	a2,8
   15708:	4709                	li	a4,2
   1570a:	e2b50513          	addi	a0,a0,-469 # e2b <.Lline_table_start1+0xc00>
   1570e:	08000793          	li	a5,128
   15712:	00000073          	ecall
   15716:	4609                	li	a2,2
   15718:	04f57663          	bgeu	a0,a5,15764 <_ZN20complex_dynamic_type3app17h7aaf6972d2771ffbE+0x100>
   1571c:	4505                	li	a0,1
   1571e:	00aa8023          	sb	a0,0(s5)
   15722:	00baa223          	sw	a1,4(s5)
   15726:	470d                	li	a4,3
   15728:	6505                	lui	a0,0x1
   1572a:	e2b50513          	addi	a0,a0,-469 # e2b <.Lline_table_start1+0xc00>
   1572e:	45a1                	li	a1,8
   15730:	4601                	li	a2,0
   15732:	4681                	li	a3,0
   15734:	00000073          	ecall
   15738:	00314703          	lbu	a4,3(sp)
   1573c:	4509                	li	a0,2
   1573e:	00a70a63          	beq	a4,a0,15752 <_ZN20complex_dynamic_type3app17h7aaf6972d2771ffbE+0xee>
   15742:	6505                	lui	a0,0x1
   15744:	e2b50513          	addi	a0,a0,-469 # e2b <.Lline_table_start1+0xc00>
   15748:	4589                	li	a1,2
   1574a:	4601                	li	a2,0
   1574c:	4681                	li	a3,0
   1574e:	00000073          	ecall
   15752:	50f6                	lw	ra,124(sp)
   15754:	5466                	lw	s0,120(sp)
   15756:	54d6                	lw	s1,116(sp)
   15758:	5946                	lw	s2,112(sp)
   1575a:	59b6                	lw	s3,108(sp)
   1575c:	5a26                	lw	s4,104(sp)
   1575e:	5a96                	lw	s5,100(sp)
   15760:	6109                	addi	sp,sp,128
   15762:	8082                	ret
   15764:	00314703          	lbu	a4,3(sp)
   15768:	00c71463          	bne	a4,a2,15770 <_ZN20complex_dynamic_type3app17h7aaf6972d2771ffbE+0x10c>
   1576c:	470d                	li	a4,3
   1576e:	a825                	j	157a6 <_ZN20complex_dynamic_type3app17h7aaf6972d2771ffbE+0x142>
   15770:	6505                	lui	a0,0x1
   15772:	e2b50513          	addi	a0,a0,-469 # e2b <.Lline_table_start1+0xc00>
   15776:	4589                	li	a1,2
   15778:	4601                	li	a2,0
   1577a:	4681                	li	a3,0
   1577c:	00000073          	ecall
   15780:	03c14703          	lbu	a4,60(sp)
   15784:	4509                	li	a0,2
   15786:	00a101a3          	sb	a0,3(sp)
   1578a:	00a71e63          	bne	a4,a0,157a6 <_ZN20complex_dynamic_type3app17h7aaf6972d2771ffbE+0x142>
   1578e:	001a8513          	addi	a0,s5,1
   15792:	02700613          	li	a2,39
   15796:	85d2                	mv	a1,s4
   15798:	00009097          	auipc	ra,0x9
   1579c:	d7c080e7          	jalr	-644(ra) # 1e514 <memcpy>
   157a0:	000a8023          	sb	zero,0(s5)
   157a4:	b77d                	j	15752 <_ZN20complex_dynamic_type3app17h7aaf6972d2771ffbE+0xee>
   157a6:	6505                	lui	a0,0x1
   157a8:	e2b50913          	addi	s2,a0,-469 # e2b <.Lline_table_start1+0xc00>
   157ac:	45a1                	li	a1,8
   157ae:	854a                	mv	a0,s2
   157b0:	4601                	li	a2,0
   157b2:	4681                	li	a3,0
   157b4:	00000073          	ecall
   157b8:	00314983          	lbu	s3,3(sp)
   157bc:	001a8513          	addi	a0,s5,1
   157c0:	02700613          	li	a2,39
   157c4:	85d2                	mv	a1,s4
   157c6:	00009097          	auipc	ra,0x9
   157ca:	d4e080e7          	jalr	-690(ra) # 1e514 <memcpy>
   157ce:	4509                	li	a0,2
   157d0:	000a8023          	sb	zero,0(s5)
   157d4:	f6a98fe3          	beq	s3,a0,15752 <_ZN20complex_dynamic_type3app17h7aaf6972d2771ffbE+0xee>
   157d8:	4589                	li	a1,2
   157da:	854a                	mv	a0,s2
   157dc:	4601                	li	a2,0
   157de:	4681                	li	a3,0
   157e0:	874e                	mv	a4,s3
   157e2:	00000073          	ecall
   157e6:	b7b5                	j	15752 <_ZN20complex_dynamic_type3app17h7aaf6972d2771ffbE+0xee>

000157e8 <_ZN20complex_dynamic_type3app17h7c8e5adb6260604fE>:
   157e8:	7175                	addi	sp,sp,-144
   157ea:	c706                	sw	ra,140(sp)
   157ec:	c522                	sw	s0,136(sp)
   157ee:	c326                	sw	s1,132(sp)
   157f0:	c14a                	sw	s2,128(sp)
   157f2:	dece                	sw	s3,124(sp)
   157f4:	dcd2                	sw	s4,120(sp)
   157f6:	dad6                	sw	s5,116(sp)
   157f8:	8aaa                	mv	s5,a0
   157fa:	4409                	li	s0,2
   157fc:	00810423          	sb	s0,8(sp)
   15800:	00910493          	addi	s1,sp,9
   15804:	03600613          	li	a2,54
   15808:	8526                	mv	a0,s1
   1580a:	00009097          	auipc	ra,0x9
   1580e:	d0a080e7          	jalr	-758(ra) # 1e514 <memcpy>
   15812:	04010a13          	addi	s4,sp,64
   15816:	03400613          	li	a2,52
   1581a:	8552                	mv	a0,s4
   1581c:	4581                	li	a1,0
   1581e:	00009097          	auipc	ra,0x9
   15822:	c8a080e7          	jalr	-886(ra) # 1e4a8 <memset>
   15826:	8626                	mv	a2,s1
   15828:	02810fa3          	sb	s0,63(sp)
   1582c:	6509                	lui	a0,0x2
   1582e:	4491                	li	s1,4
   15830:	4591                	li	a1,4
   15832:	3c650793          	addi	a5,a0,966 # 23c6 <.Lline_table_start1+0x219b>
   15836:	03600693          	li	a3,54
   1583a:	4711                	li	a4,4
   1583c:	853e                	mv	a0,a5
   1583e:	00000073          	ecall
   15842:	00851863          	bne	a0,s0,15852 <_ZN20complex_dynamic_type3app17h7c8e5adb6260604fE+0x6a>
   15846:	4505                	li	a0,1
   15848:	00aa8023          	sb	a0,0(s5)
   1584c:	00baa223          	sw	a1,4(s5)
   15850:	a0bd                	j	158be <_ZN20complex_dynamic_type3app17h7c8e5adb6260604fE+0xd6>
   15852:	853e                	mv	a0,a5
   15854:	8652                	mv	a2,s4
   15856:	00910423          	sb	s1,8(sp)
   1585a:	478d                	li	a5,3
   1585c:	4589                	li	a1,2
   1585e:	03400693          	li	a3,52
   15862:	470d                	li	a4,3
   15864:	00000073          	ecall
   15868:	00851d63          	bne	a0,s0,15882 <_ZN20complex_dynamic_type3app17h7c8e5adb6260604fE+0x9a>
   1586c:	03f14703          	lbu	a4,63(sp)
   15870:	4505                	li	a0,1
   15872:	4609                	li	a2,2
   15874:	00aa8023          	sb	a0,0(s5)
   15878:	00baa223          	sw	a1,4(s5)
   1587c:	02c71963          	bne	a4,a2,158ae <_ZN20complex_dynamic_type3app17h7c8e5adb6260604fE+0xc6>
   15880:	a83d                	j	158be <_ZN20complex_dynamic_type3app17h7c8e5adb6260604fE+0xd6>
   15882:	4681                	li	a3,0
   15884:	02f10fa3          	sb	a5,63(sp)
   15888:	6509                	lui	a0,0x2
   1588a:	4591                	li	a1,4
   1588c:	4609                	li	a2,2
   1588e:	4709                	li	a4,2
   15890:	3c650513          	addi	a0,a0,966 # 23c6 <.Lline_table_start1+0x219b>
   15894:	08000793          	li	a5,128
   15898:	00000073          	ecall
   1589c:	4609                	li	a2,2
   1589e:	04f57663          	bgeu	a0,a5,158ea <_ZN20complex_dynamic_type3app17h7c8e5adb6260604fE+0x102>
   158a2:	4505                	li	a0,1
   158a4:	00aa8023          	sb	a0,0(s5)
   158a8:	00baa223          	sw	a1,4(s5)
   158ac:	470d                	li	a4,3
   158ae:	6509                	lui	a0,0x2
   158b0:	3c650513          	addi	a0,a0,966 # 23c6 <.Lline_table_start1+0x219b>
   158b4:	4589                	li	a1,2
   158b6:	4601                	li	a2,0
   158b8:	4681                	li	a3,0
   158ba:	00000073          	ecall
   158be:	00814703          	lbu	a4,8(sp)
   158c2:	4509                	li	a0,2
   158c4:	00a70a63          	beq	a4,a0,158d8 <_ZN20complex_dynamic_type3app17h7c8e5adb6260604fE+0xf0>
   158c8:	6509                	lui	a0,0x2
   158ca:	3c650513          	addi	a0,a0,966 # 23c6 <.Lline_table_start1+0x219b>
   158ce:	4591                	li	a1,4
   158d0:	4601                	li	a2,0
   158d2:	4681                	li	a3,0
   158d4:	00000073          	ecall
   158d8:	40ba                	lw	ra,140(sp)
   158da:	442a                	lw	s0,136(sp)
   158dc:	449a                	lw	s1,132(sp)
   158de:	490a                	lw	s2,128(sp)
   158e0:	59f6                	lw	s3,124(sp)
   158e2:	5a66                	lw	s4,120(sp)
   158e4:	5ad6                	lw	s5,116(sp)
   158e6:	6149                	addi	sp,sp,144
   158e8:	8082                	ret
   158ea:	00814703          	lbu	a4,8(sp)
   158ee:	00c71463          	bne	a4,a2,158f6 <_ZN20complex_dynamic_type3app17h7c8e5adb6260604fE+0x10e>
   158f2:	470d                	li	a4,3
   158f4:	a825                	j	1592c <_ZN20complex_dynamic_type3app17h7c8e5adb6260604fE+0x144>
   158f6:	6509                	lui	a0,0x2
   158f8:	3c650513          	addi	a0,a0,966 # 23c6 <.Lline_table_start1+0x219b>
   158fc:	4591                	li	a1,4
   158fe:	4601                	li	a2,0
   15900:	4681                	li	a3,0
   15902:	00000073          	ecall
   15906:	03f14703          	lbu	a4,63(sp)
   1590a:	4509                	li	a0,2
   1590c:	00a10423          	sb	a0,8(sp)
   15910:	00a71e63          	bne	a4,a0,1592c <_ZN20complex_dynamic_type3app17h7c8e5adb6260604fE+0x144>
   15914:	001a8513          	addi	a0,s5,1
   15918:	03400613          	li	a2,52
   1591c:	85d2                	mv	a1,s4
   1591e:	00009097          	auipc	ra,0x9
   15922:	bf6080e7          	jalr	-1034(ra) # 1e514 <memcpy>
   15926:	000a8023          	sb	zero,0(s5)
   1592a:	b77d                	j	158d8 <_ZN20complex_dynamic_type3app17h7c8e5adb6260604fE+0xf0>
   1592c:	4601                	li	a2,0
   1592e:	4681                	li	a3,0
   15930:	6509                	lui	a0,0x2
   15932:	3c650913          	addi	s2,a0,966 # 23c6 <.Lline_table_start1+0x219b>
   15936:	4589                	li	a1,2
   15938:	854a                	mv	a0,s2
   1593a:	00000073          	ecall
   1593e:	00814983          	lbu	s3,8(sp)
   15942:	4409                	li	s0,2
   15944:	001a8513          	addi	a0,s5,1
   15948:	03400613          	li	a2,52
   1594c:	85d2                	mv	a1,s4
   1594e:	00009097          	auipc	ra,0x9
   15952:	bc6080e7          	jalr	-1082(ra) # 1e514 <memcpy>
   15956:	000a8023          	sb	zero,0(s5)
   1595a:	f6898fe3          	beq	s3,s0,158d8 <_ZN20complex_dynamic_type3app17h7c8e5adb6260604fE+0xf0>
   1595e:	4591                	li	a1,4
   15960:	854a                	mv	a0,s2
   15962:	4601                	li	a2,0
   15964:	4681                	li	a3,0
   15966:	874e                	mv	a4,s3
   15968:	00000073          	ecall
   1596c:	b7b5                	j	158d8 <_ZN20complex_dynamic_type3app17h7c8e5adb6260604fE+0xf0>

0001596e <_ZN20complex_dynamic_type3app17h80493a4b13fcafbaE>:
   1596e:	7175                	addi	sp,sp,-144
   15970:	c706                	sw	ra,140(sp)
   15972:	c522                	sw	s0,136(sp)
   15974:	c326                	sw	s1,132(sp)
   15976:	c14a                	sw	s2,128(sp)
   15978:	dece                	sw	s3,124(sp)
   1597a:	dcd2                	sw	s4,120(sp)
   1597c:	dad6                	sw	s5,116(sp)
   1597e:	8aaa                	mv	s5,a0
   15980:	4409                	li	s0,2
   15982:	008107a3          	sb	s0,15(sp)
   15986:	0804                	addi	s1,sp,16
   15988:	04100613          	li	a2,65
   1598c:	8526                	mv	a0,s1
   1598e:	00009097          	auipc	ra,0x9
   15992:	b86080e7          	jalr	-1146(ra) # 1e514 <memcpy>
   15996:	05210a13          	addi	s4,sp,82
   1599a:	02200613          	li	a2,34
   1599e:	8552                	mv	a0,s4
   159a0:	4581                	li	a1,0
   159a2:	00009097          	auipc	ra,0x9
   159a6:	b06080e7          	jalr	-1274(ra) # 1e4a8 <memset>
   159aa:	8626                	mv	a2,s1
   159ac:	048108a3          	sb	s0,81(sp)
   159b0:	6509                	lui	a0,0x2
   159b2:	4485                	li	s1,1
   159b4:	4811                	li	a6,4
   159b6:	4585                	li	a1,1
   159b8:	47c50793          	addi	a5,a0,1148 # 247c <.Lline_table_start1+0x2251>
   159bc:	04100693          	li	a3,65
   159c0:	4711                	li	a4,4
   159c2:	853e                	mv	a0,a5
   159c4:	00000073          	ecall
   159c8:	00851763          	bne	a0,s0,159d6 <_ZN20complex_dynamic_type3app17h80493a4b13fcafbaE+0x68>
   159cc:	009a8023          	sb	s1,0(s5)
   159d0:	00baa223          	sw	a1,4(s5)
   159d4:	a0bd                	j	15a42 <_ZN20complex_dynamic_type3app17h80493a4b13fcafbaE+0xd4>
   159d6:	853e                	mv	a0,a5
   159d8:	4581                	li	a1,0
   159da:	8652                	mv	a2,s4
   159dc:	010107a3          	sb	a6,15(sp)
   159e0:	478d                	li	a5,3
   159e2:	02200693          	li	a3,34
   159e6:	470d                	li	a4,3
   159e8:	00000073          	ecall
   159ec:	00851d63          	bne	a0,s0,15a06 <_ZN20complex_dynamic_type3app17h80493a4b13fcafbaE+0x98>
   159f0:	05114703          	lbu	a4,81(sp)
   159f4:	4505                	li	a0,1
   159f6:	4609                	li	a2,2
   159f8:	00aa8023          	sb	a0,0(s5)
   159fc:	00baa223          	sw	a1,4(s5)
   15a00:	02c71963          	bne	a4,a2,15a32 <_ZN20complex_dynamic_type3app17h80493a4b13fcafbaE+0xc4>
   15a04:	a83d                	j	15a42 <_ZN20complex_dynamic_type3app17h80493a4b13fcafbaE+0xd4>
   15a06:	4601                	li	a2,0
   15a08:	4681                	li	a3,0
   15a0a:	04f108a3          	sb	a5,81(sp)
   15a0e:	6509                	lui	a0,0x2
   15a10:	4785                	li	a5,1
   15a12:	4585                	li	a1,1
   15a14:	4709                	li	a4,2
   15a16:	47c50513          	addi	a0,a0,1148 # 247c <.Lline_table_start1+0x2251>
   15a1a:	08000493          	li	s1,128
   15a1e:	00000073          	ecall
   15a22:	4609                	li	a2,2
   15a24:	04957563          	bgeu	a0,s1,15a6e <_ZN20complex_dynamic_type3app17h80493a4b13fcafbaE+0x100>
   15a28:	00fa8023          	sb	a5,0(s5)
   15a2c:	00baa223          	sw	a1,4(s5)
   15a30:	470d                	li	a4,3
   15a32:	6509                	lui	a0,0x2
   15a34:	47c50513          	addi	a0,a0,1148 # 247c <.Lline_table_start1+0x2251>
   15a38:	4581                	li	a1,0
   15a3a:	4601                	li	a2,0
   15a3c:	4681                	li	a3,0
   15a3e:	00000073          	ecall
   15a42:	00f14703          	lbu	a4,15(sp)
   15a46:	4509                	li	a0,2
   15a48:	00a70a63          	beq	a4,a0,15a5c <_ZN20complex_dynamic_type3app17h80493a4b13fcafbaE+0xee>
   15a4c:	6509                	lui	a0,0x2
   15a4e:	47c50513          	addi	a0,a0,1148 # 247c <.Lline_table_start1+0x2251>
   15a52:	4585                	li	a1,1
   15a54:	4601                	li	a2,0
   15a56:	4681                	li	a3,0
   15a58:	00000073          	ecall
   15a5c:	40ba                	lw	ra,140(sp)
   15a5e:	442a                	lw	s0,136(sp)
   15a60:	449a                	lw	s1,132(sp)
   15a62:	490a                	lw	s2,128(sp)
   15a64:	59f6                	lw	s3,124(sp)
   15a66:	5a66                	lw	s4,120(sp)
   15a68:	5ad6                	lw	s5,116(sp)
   15a6a:	6149                	addi	sp,sp,144
   15a6c:	8082                	ret
   15a6e:	00f14703          	lbu	a4,15(sp)
   15a72:	00c71463          	bne	a4,a2,15a7a <_ZN20complex_dynamic_type3app17h80493a4b13fcafbaE+0x10c>
   15a76:	470d                	li	a4,3
   15a78:	a825                	j	15ab0 <_ZN20complex_dynamic_type3app17h80493a4b13fcafbaE+0x142>
   15a7a:	6509                	lui	a0,0x2
   15a7c:	47c50513          	addi	a0,a0,1148 # 247c <.Lline_table_start1+0x2251>
   15a80:	4585                	li	a1,1
   15a82:	4601                	li	a2,0
   15a84:	4681                	li	a3,0
   15a86:	00000073          	ecall
   15a8a:	05114703          	lbu	a4,81(sp)
   15a8e:	4509                	li	a0,2
   15a90:	00a107a3          	sb	a0,15(sp)
   15a94:	00a71e63          	bne	a4,a0,15ab0 <_ZN20complex_dynamic_type3app17h80493a4b13fcafbaE+0x142>
   15a98:	001a8513          	addi	a0,s5,1
   15a9c:	02200613          	li	a2,34
   15aa0:	85d2                	mv	a1,s4
   15aa2:	00009097          	auipc	ra,0x9
   15aa6:	a72080e7          	jalr	-1422(ra) # 1e514 <memcpy>
   15aaa:	000a8023          	sb	zero,0(s5)
   15aae:	b77d                	j	15a5c <_ZN20complex_dynamic_type3app17h80493a4b13fcafbaE+0xee>
   15ab0:	6509                	lui	a0,0x2
   15ab2:	47c50913          	addi	s2,a0,1148 # 247c <.Lline_table_start1+0x2251>
   15ab6:	854a                	mv	a0,s2
   15ab8:	4581                	li	a1,0
   15aba:	4601                	li	a2,0
   15abc:	4681                	li	a3,0
   15abe:	00000073          	ecall
   15ac2:	00f14983          	lbu	s3,15(sp)
   15ac6:	001a8513          	addi	a0,s5,1
   15aca:	02200613          	li	a2,34
   15ace:	85d2                	mv	a1,s4
   15ad0:	00009097          	auipc	ra,0x9
   15ad4:	a44080e7          	jalr	-1468(ra) # 1e514 <memcpy>
   15ad8:	4509                	li	a0,2
   15ada:	000a8023          	sb	zero,0(s5)
   15ade:	f6a98fe3          	beq	s3,a0,15a5c <_ZN20complex_dynamic_type3app17h80493a4b13fcafbaE+0xee>
   15ae2:	4585                	li	a1,1
   15ae4:	854a                	mv	a0,s2
   15ae6:	4601                	li	a2,0
   15ae8:	4681                	li	a3,0
   15aea:	874e                	mv	a4,s3
   15aec:	00000073          	ecall
   15af0:	b7b5                	j	15a5c <_ZN20complex_dynamic_type3app17h80493a4b13fcafbaE+0xee>

00015af2 <_ZN20complex_dynamic_type3app17h86923270f351acf3E>:
   15af2:	7175                	addi	sp,sp,-144
   15af4:	c706                	sw	ra,140(sp)
   15af6:	c522                	sw	s0,136(sp)
   15af8:	c326                	sw	s1,132(sp)
   15afa:	c14a                	sw	s2,128(sp)
   15afc:	dece                	sw	s3,124(sp)
   15afe:	dcd2                	sw	s4,120(sp)
   15b00:	dad6                	sw	s5,116(sp)
   15b02:	8aaa                	mv	s5,a0
   15b04:	4409                	li	s0,2
   15b06:	00810623          	sb	s0,12(sp)
   15b0a:	00d10493          	addi	s1,sp,13
   15b0e:	05500613          	li	a2,85
   15b12:	8526                	mv	a0,s1
   15b14:	00009097          	auipc	ra,0x9
   15b18:	a00080e7          	jalr	-1536(ra) # 1e514 <memcpy>
   15b1c:	06310a13          	addi	s4,sp,99
   15b20:	4645                	li	a2,17
   15b22:	8552                	mv	a0,s4
   15b24:	4581                	li	a1,0
   15b26:	00009097          	auipc	ra,0x9
   15b2a:	982080e7          	jalr	-1662(ra) # 1e4a8 <memset>
   15b2e:	8626                	mv	a2,s1
   15b30:	06810123          	sb	s0,98(sp)
   15b34:	6505                	lui	a0,0x1
   15b36:	4491                	li	s1,4
   15b38:	4589                	li	a1,2
   15b3a:	c8950793          	addi	a5,a0,-887 # c89 <.Lline_table_start1+0xa5e>
   15b3e:	05500693          	li	a3,85
   15b42:	4711                	li	a4,4
   15b44:	853e                	mv	a0,a5
   15b46:	00000073          	ecall
   15b4a:	00851863          	bne	a0,s0,15b5a <_ZN20complex_dynamic_type3app17h86923270f351acf3E+0x68>
   15b4e:	4505                	li	a0,1
   15b50:	00aa8023          	sb	a0,0(s5)
   15b54:	00baa223          	sw	a1,4(s5)
   15b58:	a0b5                	j	15bc4 <_ZN20complex_dynamic_type3app17h86923270f351acf3E+0xd2>
   15b5a:	853e                	mv	a0,a5
   15b5c:	8652                	mv	a2,s4
   15b5e:	00910623          	sb	s1,12(sp)
   15b62:	478d                	li	a5,3
   15b64:	4589                	li	a1,2
   15b66:	46c5                	li	a3,17
   15b68:	470d                	li	a4,3
   15b6a:	00000073          	ecall
   15b6e:	00851d63          	bne	a0,s0,15b88 <_ZN20complex_dynamic_type3app17h86923270f351acf3E+0x96>
   15b72:	06214703          	lbu	a4,98(sp)
   15b76:	4505                	li	a0,1
   15b78:	4609                	li	a2,2
   15b7a:	00aa8023          	sb	a0,0(s5)
   15b7e:	00baa223          	sw	a1,4(s5)
   15b82:	02c71963          	bne	a4,a2,15bb4 <_ZN20complex_dynamic_type3app17h86923270f351acf3E+0xc2>
   15b86:	a83d                	j	15bc4 <_ZN20complex_dynamic_type3app17h86923270f351acf3E+0xd2>
   15b88:	4681                	li	a3,0
   15b8a:	06f10123          	sb	a5,98(sp)
   15b8e:	6505                	lui	a0,0x1
   15b90:	4589                	li	a1,2
   15b92:	4609                	li	a2,2
   15b94:	4709                	li	a4,2
   15b96:	c8950513          	addi	a0,a0,-887 # c89 <.Lline_table_start1+0xa5e>
   15b9a:	08000793          	li	a5,128
   15b9e:	00000073          	ecall
   15ba2:	4609                	li	a2,2
   15ba4:	04f57663          	bgeu	a0,a5,15bf0 <_ZN20complex_dynamic_type3app17h86923270f351acf3E+0xfe>
   15ba8:	4505                	li	a0,1
   15baa:	00aa8023          	sb	a0,0(s5)
   15bae:	00baa223          	sw	a1,4(s5)
   15bb2:	470d                	li	a4,3
   15bb4:	6505                	lui	a0,0x1
   15bb6:	c8950513          	addi	a0,a0,-887 # c89 <.Lline_table_start1+0xa5e>
   15bba:	4589                	li	a1,2
   15bbc:	4601                	li	a2,0
   15bbe:	4681                	li	a3,0
   15bc0:	00000073          	ecall
   15bc4:	00c14703          	lbu	a4,12(sp)
   15bc8:	4509                	li	a0,2
   15bca:	00a70a63          	beq	a4,a0,15bde <_ZN20complex_dynamic_type3app17h86923270f351acf3E+0xec>
   15bce:	6505                	lui	a0,0x1
   15bd0:	c8950513          	addi	a0,a0,-887 # c89 <.Lline_table_start1+0xa5e>
   15bd4:	4589                	li	a1,2
   15bd6:	4601                	li	a2,0
   15bd8:	4681                	li	a3,0
   15bda:	00000073          	ecall
   15bde:	40ba                	lw	ra,140(sp)
   15be0:	442a                	lw	s0,136(sp)
   15be2:	449a                	lw	s1,132(sp)
   15be4:	490a                	lw	s2,128(sp)
   15be6:	59f6                	lw	s3,124(sp)
   15be8:	5a66                	lw	s4,120(sp)
   15bea:	5ad6                	lw	s5,116(sp)
   15bec:	6149                	addi	sp,sp,144
   15bee:	8082                	ret
   15bf0:	00c14703          	lbu	a4,12(sp)
   15bf4:	00c71463          	bne	a4,a2,15bfc <_ZN20complex_dynamic_type3app17h86923270f351acf3E+0x10a>
   15bf8:	470d                	li	a4,3
   15bfa:	a81d                	j	15c30 <_ZN20complex_dynamic_type3app17h86923270f351acf3E+0x13e>
   15bfc:	6505                	lui	a0,0x1
   15bfe:	c8950513          	addi	a0,a0,-887 # c89 <.Lline_table_start1+0xa5e>
   15c02:	4589                	li	a1,2
   15c04:	4601                	li	a2,0
   15c06:	4681                	li	a3,0
   15c08:	00000073          	ecall
   15c0c:	06214703          	lbu	a4,98(sp)
   15c10:	4509                	li	a0,2
   15c12:	00a10623          	sb	a0,12(sp)
   15c16:	00a71d63          	bne	a4,a0,15c30 <_ZN20complex_dynamic_type3app17h86923270f351acf3E+0x13e>
   15c1a:	001a8513          	addi	a0,s5,1
   15c1e:	4645                	li	a2,17
   15c20:	85d2                	mv	a1,s4
   15c22:	00009097          	auipc	ra,0x9
   15c26:	8f2080e7          	jalr	-1806(ra) # 1e514 <memcpy>
   15c2a:	000a8023          	sb	zero,0(s5)
   15c2e:	bf45                	j	15bde <_ZN20complex_dynamic_type3app17h86923270f351acf3E+0xec>
   15c30:	4601                	li	a2,0
   15c32:	4681                	li	a3,0
   15c34:	6505                	lui	a0,0x1
   15c36:	c8950913          	addi	s2,a0,-887 # c89 <.Lline_table_start1+0xa5e>
   15c3a:	4589                	li	a1,2
   15c3c:	854a                	mv	a0,s2
   15c3e:	00000073          	ecall
   15c42:	00c14983          	lbu	s3,12(sp)
   15c46:	4409                	li	s0,2
   15c48:	001a8513          	addi	a0,s5,1
   15c4c:	4645                	li	a2,17
   15c4e:	85d2                	mv	a1,s4
   15c50:	00009097          	auipc	ra,0x9
   15c54:	8c4080e7          	jalr	-1852(ra) # 1e514 <memcpy>
   15c58:	000a8023          	sb	zero,0(s5)
   15c5c:	f88981e3          	beq	s3,s0,15bde <_ZN20complex_dynamic_type3app17h86923270f351acf3E+0xec>
   15c60:	4589                	li	a1,2
   15c62:	854a                	mv	a0,s2
   15c64:	4601                	li	a2,0
   15c66:	4681                	li	a3,0
   15c68:	874e                	mv	a4,s3
   15c6a:	00000073          	ecall
   15c6e:	bf85                	j	15bde <_ZN20complex_dynamic_type3app17h86923270f351acf3E+0xec>

00015c70 <_ZN20complex_dynamic_type3app17h8c3cc57edeee1062E>:
   15c70:	7119                	addi	sp,sp,-128
   15c72:	de86                	sw	ra,124(sp)
   15c74:	dca2                	sw	s0,120(sp)
   15c76:	daa6                	sw	s1,116(sp)
   15c78:	d8ca                	sw	s2,112(sp)
   15c7a:	d6ce                	sw	s3,108(sp)
   15c7c:	d4d2                	sw	s4,104(sp)
   15c7e:	d2d6                	sw	s5,100(sp)
   15c80:	8aaa                	mv	s5,a0
   15c82:	4409                	li	s0,2
   15c84:	00810623          	sb	s0,12(sp)
   15c88:	00d10493          	addi	s1,sp,13
   15c8c:	4639                	li	a2,14
   15c8e:	8526                	mv	a0,s1
   15c90:	00009097          	auipc	ra,0x9
   15c94:	884080e7          	jalr	-1916(ra) # 1e514 <memcpy>
   15c98:	01c10a13          	addi	s4,sp,28
   15c9c:	04800613          	li	a2,72
   15ca0:	8552                	mv	a0,s4
   15ca2:	4581                	li	a1,0
   15ca4:	00009097          	auipc	ra,0x9
   15ca8:	804080e7          	jalr	-2044(ra) # 1e4a8 <memset>
   15cac:	8626                	mv	a2,s1
   15cae:	00810da3          	sb	s0,27(sp)
   15cb2:	6505                	lui	a0,0x1
   15cb4:	4491                	li	s1,4
   15cb6:	458d                	li	a1,3
   15cb8:	2d150793          	addi	a5,a0,721 # 12d1 <.Lline_table_start1+0x10a6>
   15cbc:	46b9                	li	a3,14
   15cbe:	4711                	li	a4,4
   15cc0:	853e                	mv	a0,a5
   15cc2:	00000073          	ecall
   15cc6:	00851863          	bne	a0,s0,15cd6 <_ZN20complex_dynamic_type3app17h8c3cc57edeee1062E+0x66>
   15cca:	4505                	li	a0,1
   15ccc:	00aa8023          	sb	a0,0(s5)
   15cd0:	00baa223          	sw	a1,4(s5)
   15cd4:	a0bd                	j	15d42 <_ZN20complex_dynamic_type3app17h8c3cc57edeee1062E+0xd2>
   15cd6:	853e                	mv	a0,a5
   15cd8:	8652                	mv	a2,s4
   15cda:	00910623          	sb	s1,12(sp)
   15cde:	478d                	li	a5,3
   15ce0:	45a1                	li	a1,8
   15ce2:	04800693          	li	a3,72
   15ce6:	470d                	li	a4,3
   15ce8:	00000073          	ecall
   15cec:	00851d63          	bne	a0,s0,15d06 <_ZN20complex_dynamic_type3app17h8c3cc57edeee1062E+0x96>
   15cf0:	01b14703          	lbu	a4,27(sp)
   15cf4:	4505                	li	a0,1
   15cf6:	4609                	li	a2,2
   15cf8:	00aa8023          	sb	a0,0(s5)
   15cfc:	00baa223          	sw	a1,4(s5)
   15d00:	02c71963          	bne	a4,a2,15d32 <_ZN20complex_dynamic_type3app17h8c3cc57edeee1062E+0xc2>
   15d04:	a83d                	j	15d42 <_ZN20complex_dynamic_type3app17h8c3cc57edeee1062E+0xd2>
   15d06:	4681                	li	a3,0
   15d08:	00f10da3          	sb	a5,27(sp)
   15d0c:	6505                	lui	a0,0x1
   15d0e:	458d                	li	a1,3
   15d10:	4621                	li	a2,8
   15d12:	4709                	li	a4,2
   15d14:	2d150513          	addi	a0,a0,721 # 12d1 <.Lline_table_start1+0x10a6>
   15d18:	08000793          	li	a5,128
   15d1c:	00000073          	ecall
   15d20:	4609                	li	a2,2
   15d22:	04f57663          	bgeu	a0,a5,15d6e <_ZN20complex_dynamic_type3app17h8c3cc57edeee1062E+0xfe>
   15d26:	4505                	li	a0,1
   15d28:	00aa8023          	sb	a0,0(s5)
   15d2c:	00baa223          	sw	a1,4(s5)
   15d30:	470d                	li	a4,3
   15d32:	6505                	lui	a0,0x1
   15d34:	2d150513          	addi	a0,a0,721 # 12d1 <.Lline_table_start1+0x10a6>
   15d38:	45a1                	li	a1,8
   15d3a:	4601                	li	a2,0
   15d3c:	4681                	li	a3,0
   15d3e:	00000073          	ecall
   15d42:	00c14703          	lbu	a4,12(sp)
   15d46:	4509                	li	a0,2
   15d48:	00a70a63          	beq	a4,a0,15d5c <_ZN20complex_dynamic_type3app17h8c3cc57edeee1062E+0xec>
   15d4c:	6505                	lui	a0,0x1
   15d4e:	2d150513          	addi	a0,a0,721 # 12d1 <.Lline_table_start1+0x10a6>
   15d52:	458d                	li	a1,3
   15d54:	4601                	li	a2,0
   15d56:	4681                	li	a3,0
   15d58:	00000073          	ecall
   15d5c:	50f6                	lw	ra,124(sp)
   15d5e:	5466                	lw	s0,120(sp)
   15d60:	54d6                	lw	s1,116(sp)
   15d62:	5946                	lw	s2,112(sp)
   15d64:	59b6                	lw	s3,108(sp)
   15d66:	5a26                	lw	s4,104(sp)
   15d68:	5a96                	lw	s5,100(sp)
   15d6a:	6109                	addi	sp,sp,128
   15d6c:	8082                	ret
   15d6e:	00c14703          	lbu	a4,12(sp)
   15d72:	00c71463          	bne	a4,a2,15d7a <_ZN20complex_dynamic_type3app17h8c3cc57edeee1062E+0x10a>
   15d76:	470d                	li	a4,3
   15d78:	a825                	j	15db0 <_ZN20complex_dynamic_type3app17h8c3cc57edeee1062E+0x140>
   15d7a:	6505                	lui	a0,0x1
   15d7c:	2d150513          	addi	a0,a0,721 # 12d1 <.Lline_table_start1+0x10a6>
   15d80:	458d                	li	a1,3
   15d82:	4601                	li	a2,0
   15d84:	4681                	li	a3,0
   15d86:	00000073          	ecall
   15d8a:	01b14703          	lbu	a4,27(sp)
   15d8e:	4509                	li	a0,2
   15d90:	00a10623          	sb	a0,12(sp)
   15d94:	00a71e63          	bne	a4,a0,15db0 <_ZN20complex_dynamic_type3app17h8c3cc57edeee1062E+0x140>
   15d98:	001a8513          	addi	a0,s5,1
   15d9c:	04800613          	li	a2,72
   15da0:	85d2                	mv	a1,s4
   15da2:	00008097          	auipc	ra,0x8
   15da6:	772080e7          	jalr	1906(ra) # 1e514 <memcpy>
   15daa:	000a8023          	sb	zero,0(s5)
   15dae:	b77d                	j	15d5c <_ZN20complex_dynamic_type3app17h8c3cc57edeee1062E+0xec>
   15db0:	6505                	lui	a0,0x1
   15db2:	2d150913          	addi	s2,a0,721 # 12d1 <.Lline_table_start1+0x10a6>
   15db6:	45a1                	li	a1,8
   15db8:	854a                	mv	a0,s2
   15dba:	4601                	li	a2,0
   15dbc:	4681                	li	a3,0
   15dbe:	00000073          	ecall
   15dc2:	00c14983          	lbu	s3,12(sp)
   15dc6:	001a8513          	addi	a0,s5,1
   15dca:	04800613          	li	a2,72
   15dce:	85d2                	mv	a1,s4
   15dd0:	00008097          	auipc	ra,0x8
   15dd4:	744080e7          	jalr	1860(ra) # 1e514 <memcpy>
   15dd8:	4509                	li	a0,2
   15dda:	000a8023          	sb	zero,0(s5)
   15dde:	f6a98fe3          	beq	s3,a0,15d5c <_ZN20complex_dynamic_type3app17h8c3cc57edeee1062E+0xec>
   15de2:	458d                	li	a1,3
   15de4:	854a                	mv	a0,s2
   15de6:	4601                	li	a2,0
   15de8:	4681                	li	a3,0
   15dea:	874e                	mv	a4,s3
   15dec:	00000073          	ecall
   15df0:	b7b5                	j	15d5c <_ZN20complex_dynamic_type3app17h8c3cc57edeee1062E+0xec>

00015df2 <_ZN20complex_dynamic_type3app17h8df10570fdc5566cE>:
   15df2:	7175                	addi	sp,sp,-144
   15df4:	c706                	sw	ra,140(sp)
   15df6:	c522                	sw	s0,136(sp)
   15df8:	c326                	sw	s1,132(sp)
   15dfa:	c14a                	sw	s2,128(sp)
   15dfc:	dece                	sw	s3,124(sp)
   15dfe:	dcd2                	sw	s4,120(sp)
   15e00:	8a2a                	mv	s4,a0
   15e02:	4409                	li	s0,2
   15e04:	008105a3          	sb	s0,11(sp)
   15e08:	0064                	addi	s1,sp,12
   15e0a:	05000613          	li	a2,80
   15e0e:	8526                	mv	a0,s1
   15e10:	00008097          	auipc	ra,0x8
   15e14:	704080e7          	jalr	1796(ra) # 1e514 <memcpy>
   15e18:	05d10993          	addi	s3,sp,93
   15e1c:	466d                	li	a2,27
   15e1e:	854e                	mv	a0,s3
   15e20:	4581                	li	a1,0
   15e22:	00008097          	auipc	ra,0x8
   15e26:	686080e7          	jalr	1670(ra) # 1e4a8 <memset>
   15e2a:	8626                	mv	a2,s1
   15e2c:	04810e23          	sb	s0,92(sp)
   15e30:	4785                	li	a5,1
   15e32:	4491                	li	s1,4
   15e34:	3d900513          	li	a0,985
   15e38:	4585                	li	a1,1
   15e3a:	05000693          	li	a3,80
   15e3e:	4711                	li	a4,4
   15e40:	00000073          	ecall
   15e44:	00851763          	bne	a0,s0,15e52 <_ZN20complex_dynamic_type3app17h8df10570fdc5566cE+0x60>
   15e48:	00fa0023          	sb	a5,0(s4)
   15e4c:	00ba2223          	sw	a1,4(s4)
   15e50:	a0ad                	j	15eba <_ZN20complex_dynamic_type3app17h8df10570fdc5566cE+0xc8>
   15e52:	864e                	mv	a2,s3
   15e54:	009105a3          	sb	s1,11(sp)
   15e58:	478d                	li	a5,3
   15e5a:	3d900513          	li	a0,985
   15e5e:	4589                	li	a1,2
   15e60:	46ed                	li	a3,27
   15e62:	470d                	li	a4,3
   15e64:	00000073          	ecall
   15e68:	00851d63          	bne	a0,s0,15e82 <_ZN20complex_dynamic_type3app17h8df10570fdc5566cE+0x90>
   15e6c:	05c14703          	lbu	a4,92(sp)
   15e70:	4505                	li	a0,1
   15e72:	4609                	li	a2,2
   15e74:	00aa0023          	sb	a0,0(s4)
   15e78:	00ba2223          	sw	a1,4(s4)
   15e7c:	02c71863          	bne	a4,a2,15eac <_ZN20complex_dynamic_type3app17h8df10570fdc5566cE+0xba>
   15e80:	a82d                	j	15eba <_ZN20complex_dynamic_type3app17h8df10570fdc5566cE+0xc8>
   15e82:	4681                	li	a3,0
   15e84:	04f10e23          	sb	a5,92(sp)
   15e88:	4785                	li	a5,1
   15e8a:	3d900513          	li	a0,985
   15e8e:	4585                	li	a1,1
   15e90:	4609                	li	a2,2
   15e92:	4709                	li	a4,2
   15e94:	08000493          	li	s1,128
   15e98:	00000073          	ecall
   15e9c:	4609                	li	a2,2
   15e9e:	04957263          	bgeu	a0,s1,15ee2 <_ZN20complex_dynamic_type3app17h8df10570fdc5566cE+0xf0>
   15ea2:	00fa0023          	sb	a5,0(s4)
   15ea6:	00ba2223          	sw	a1,4(s4)
   15eaa:	470d                	li	a4,3
   15eac:	3d900513          	li	a0,985
   15eb0:	4589                	li	a1,2
   15eb2:	4601                	li	a2,0
   15eb4:	4681                	li	a3,0
   15eb6:	00000073          	ecall
   15eba:	00b14703          	lbu	a4,11(sp)
   15ebe:	4509                	li	a0,2
   15ec0:	00a70963          	beq	a4,a0,15ed2 <_ZN20complex_dynamic_type3app17h8df10570fdc5566cE+0xe0>
   15ec4:	3d900513          	li	a0,985
   15ec8:	4585                	li	a1,1
   15eca:	4601                	li	a2,0
   15ecc:	4681                	li	a3,0
   15ece:	00000073          	ecall
   15ed2:	40ba                	lw	ra,140(sp)
   15ed4:	442a                	lw	s0,136(sp)
   15ed6:	449a                	lw	s1,132(sp)
   15ed8:	490a                	lw	s2,128(sp)
   15eda:	59f6                	lw	s3,124(sp)
   15edc:	5a66                	lw	s4,120(sp)
   15ede:	6149                	addi	sp,sp,144
   15ee0:	8082                	ret
   15ee2:	00b14703          	lbu	a4,11(sp)
   15ee6:	00c71463          	bne	a4,a2,15eee <_ZN20complex_dynamic_type3app17h8df10570fdc5566cE+0xfc>
   15eea:	470d                	li	a4,3
   15eec:	a815                	j	15f20 <_ZN20complex_dynamic_type3app17h8df10570fdc5566cE+0x12e>
   15eee:	3d900513          	li	a0,985
   15ef2:	4585                	li	a1,1
   15ef4:	4601                	li	a2,0
   15ef6:	4681                	li	a3,0
   15ef8:	00000073          	ecall
   15efc:	05c14703          	lbu	a4,92(sp)
   15f00:	4509                	li	a0,2
   15f02:	00a105a3          	sb	a0,11(sp)
   15f06:	00a71d63          	bne	a4,a0,15f20 <_ZN20complex_dynamic_type3app17h8df10570fdc5566cE+0x12e>
   15f0a:	001a0513          	addi	a0,s4,1
   15f0e:	466d                	li	a2,27
   15f10:	85ce                	mv	a1,s3
   15f12:	00008097          	auipc	ra,0x8
   15f16:	602080e7          	jalr	1538(ra) # 1e514 <memcpy>
   15f1a:	000a0023          	sb	zero,0(s4)
   15f1e:	bf55                	j	15ed2 <_ZN20complex_dynamic_type3app17h8df10570fdc5566cE+0xe0>
   15f20:	4601                	li	a2,0
   15f22:	4681                	li	a3,0
   15f24:	3d900513          	li	a0,985
   15f28:	4589                	li	a1,2
   15f2a:	00000073          	ecall
   15f2e:	00b14903          	lbu	s2,11(sp)
   15f32:	4409                	li	s0,2
   15f34:	001a0513          	addi	a0,s4,1
   15f38:	466d                	li	a2,27
   15f3a:	85ce                	mv	a1,s3
   15f3c:	00008097          	auipc	ra,0x8
   15f40:	5d8080e7          	jalr	1496(ra) # 1e514 <memcpy>
   15f44:	000a0023          	sb	zero,0(s4)
   15f48:	f88905e3          	beq	s2,s0,15ed2 <_ZN20complex_dynamic_type3app17h8df10570fdc5566cE+0xe0>
   15f4c:	3d900513          	li	a0,985
   15f50:	4585                	li	a1,1
   15f52:	4601                	li	a2,0
   15f54:	4681                	li	a3,0
   15f56:	874a                	mv	a4,s2
   15f58:	00000073          	ecall
   15f5c:	bf9d                	j	15ed2 <_ZN20complex_dynamic_type3app17h8df10570fdc5566cE+0xe0>

00015f5e <_ZN20complex_dynamic_type3app17h900a943613b2b360E>:
   15f5e:	7159                	addi	sp,sp,-112
   15f60:	d686                	sw	ra,108(sp)
   15f62:	d4a2                	sw	s0,104(sp)
   15f64:	d2a6                	sw	s1,100(sp)
   15f66:	d0ca                	sw	s2,96(sp)
   15f68:	cece                	sw	s3,92(sp)
   15f6a:	ccd2                	sw	s4,88(sp)
   15f6c:	8a2a                	mv	s4,a0
   15f6e:	4409                	li	s0,2
   15f70:	00810623          	sb	s0,12(sp)
   15f74:	00d10493          	addi	s1,sp,13
   15f78:	4679                	li	a2,30
   15f7a:	8526                	mv	a0,s1
   15f7c:	00008097          	auipc	ra,0x8
   15f80:	598080e7          	jalr	1432(ra) # 1e514 <memcpy>
   15f84:	02c10993          	addi	s3,sp,44
   15f88:	02c00613          	li	a2,44
   15f8c:	854e                	mv	a0,s3
   15f8e:	4581                	li	a1,0
   15f90:	00008097          	auipc	ra,0x8
   15f94:	518080e7          	jalr	1304(ra) # 1e4a8 <memset>
   15f98:	8626                	mv	a2,s1
   15f9a:	028105a3          	sb	s0,43(sp)
   15f9e:	4791                	li	a5,4
   15fa0:	3fb00513          	li	a0,1019
   15fa4:	459d                	li	a1,7
   15fa6:	46f9                	li	a3,30
   15fa8:	4711                	li	a4,4
   15faa:	00000073          	ecall
   15fae:	00851863          	bne	a0,s0,15fbe <_ZN20complex_dynamic_type3app17h900a943613b2b360E+0x60>
   15fb2:	4505                	li	a0,1
   15fb4:	00aa0023          	sb	a0,0(s4)
   15fb8:	00ba2223          	sw	a1,4(s4)
   15fbc:	a0b5                	j	16028 <_ZN20complex_dynamic_type3app17h900a943613b2b360E+0xca>
   15fbe:	4581                	li	a1,0
   15fc0:	864e                	mv	a2,s3
   15fc2:	00f10623          	sb	a5,12(sp)
   15fc6:	478d                	li	a5,3
   15fc8:	3fb00513          	li	a0,1019
   15fcc:	02c00693          	li	a3,44
   15fd0:	470d                	li	a4,3
   15fd2:	00000073          	ecall
   15fd6:	00851d63          	bne	a0,s0,15ff0 <_ZN20complex_dynamic_type3app17h900a943613b2b360E+0x92>
   15fda:	02b14703          	lbu	a4,43(sp)
   15fde:	4505                	li	a0,1
   15fe0:	4609                	li	a2,2
   15fe2:	00aa0023          	sb	a0,0(s4)
   15fe6:	00ba2223          	sw	a1,4(s4)
   15fea:	02c71863          	bne	a4,a2,1601a <_ZN20complex_dynamic_type3app17h900a943613b2b360E+0xbc>
   15fee:	a82d                	j	16028 <_ZN20complex_dynamic_type3app17h900a943613b2b360E+0xca>
   15ff0:	4601                	li	a2,0
   15ff2:	4681                	li	a3,0
   15ff4:	02f105a3          	sb	a5,43(sp)
   15ff8:	3fb00513          	li	a0,1019
   15ffc:	459d                	li	a1,7
   15ffe:	4709                	li	a4,2
   16000:	08000793          	li	a5,128
   16004:	00000073          	ecall
   16008:	4609                	li	a2,2
   1600a:	04f57363          	bgeu	a0,a5,16050 <_ZN20complex_dynamic_type3app17h900a943613b2b360E+0xf2>
   1600e:	4505                	li	a0,1
   16010:	00aa0023          	sb	a0,0(s4)
   16014:	00ba2223          	sw	a1,4(s4)
   16018:	470d                	li	a4,3
   1601a:	3fb00513          	li	a0,1019
   1601e:	4581                	li	a1,0
   16020:	4601                	li	a2,0
   16022:	4681                	li	a3,0
   16024:	00000073          	ecall
   16028:	00c14703          	lbu	a4,12(sp)
   1602c:	4509                	li	a0,2
   1602e:	00a70963          	beq	a4,a0,16040 <_ZN20complex_dynamic_type3app17h900a943613b2b360E+0xe2>
   16032:	3fb00513          	li	a0,1019
   16036:	459d                	li	a1,7
   16038:	4601                	li	a2,0
   1603a:	4681                	li	a3,0
   1603c:	00000073          	ecall
   16040:	50b6                	lw	ra,108(sp)
   16042:	5426                	lw	s0,104(sp)
   16044:	5496                	lw	s1,100(sp)
   16046:	5906                	lw	s2,96(sp)
   16048:	49f6                	lw	s3,92(sp)
   1604a:	4a66                	lw	s4,88(sp)
   1604c:	6165                	addi	sp,sp,112
   1604e:	8082                	ret
   16050:	00c14703          	lbu	a4,12(sp)
   16054:	00c71463          	bne	a4,a2,1605c <_ZN20complex_dynamic_type3app17h900a943613b2b360E+0xfe>
   16058:	470d                	li	a4,3
   1605a:	a81d                	j	16090 <_ZN20complex_dynamic_type3app17h900a943613b2b360E+0x132>
   1605c:	3fb00513          	li	a0,1019
   16060:	459d                	li	a1,7
   16062:	4601                	li	a2,0
   16064:	4681                	li	a3,0
   16066:	00000073          	ecall
   1606a:	02b14703          	lbu	a4,43(sp)
   1606e:	4509                	li	a0,2
   16070:	00a10623          	sb	a0,12(sp)
   16074:	00a71e63          	bne	a4,a0,16090 <_ZN20complex_dynamic_type3app17h900a943613b2b360E+0x132>
   16078:	001a0513          	addi	a0,s4,1
   1607c:	02c00613          	li	a2,44
   16080:	85ce                	mv	a1,s3
   16082:	00008097          	auipc	ra,0x8
   16086:	492080e7          	jalr	1170(ra) # 1e514 <memcpy>
   1608a:	000a0023          	sb	zero,0(s4)
   1608e:	bf4d                	j	16040 <_ZN20complex_dynamic_type3app17h900a943613b2b360E+0xe2>
   16090:	3fb00513          	li	a0,1019
   16094:	4581                	li	a1,0
   16096:	4601                	li	a2,0
   16098:	4681                	li	a3,0
   1609a:	00000073          	ecall
   1609e:	00c14903          	lbu	s2,12(sp)
   160a2:	001a0513          	addi	a0,s4,1
   160a6:	02c00613          	li	a2,44
   160aa:	85ce                	mv	a1,s3
   160ac:	00008097          	auipc	ra,0x8
   160b0:	468080e7          	jalr	1128(ra) # 1e514 <memcpy>
   160b4:	4509                	li	a0,2
   160b6:	000a0023          	sb	zero,0(s4)
   160ba:	f8a903e3          	beq	s2,a0,16040 <_ZN20complex_dynamic_type3app17h900a943613b2b360E+0xe2>
   160be:	3fb00513          	li	a0,1019
   160c2:	459d                	li	a1,7
   160c4:	4601                	li	a2,0
   160c6:	4681                	li	a3,0
   160c8:	874a                	mv	a4,s2
   160ca:	00000073          	ecall
   160ce:	bf8d                	j	16040 <_ZN20complex_dynamic_type3app17h900a943613b2b360E+0xe2>

000160d0 <_ZN20complex_dynamic_type3app17h973a697955f65159E>:
   160d0:	7159                	addi	sp,sp,-112
   160d2:	d686                	sw	ra,108(sp)
   160d4:	d4a2                	sw	s0,104(sp)
   160d6:	d2a6                	sw	s1,100(sp)
   160d8:	d0ca                	sw	s2,96(sp)
   160da:	cece                	sw	s3,92(sp)
   160dc:	ccd2                	sw	s4,88(sp)
   160de:	8a2a                	mv	s4,a0
   160e0:	4409                	li	s0,2
   160e2:	008106a3          	sb	s0,13(sp)
   160e6:	00e10493          	addi	s1,sp,14
   160ea:	02b00613          	li	a2,43
   160ee:	8526                	mv	a0,s1
   160f0:	00008097          	auipc	ra,0x8
   160f4:	424080e7          	jalr	1060(ra) # 1e514 <memcpy>
   160f8:	03a10993          	addi	s3,sp,58
   160fc:	4679                	li	a2,30
   160fe:	854e                	mv	a0,s3
   16100:	4581                	li	a1,0
   16102:	00008097          	auipc	ra,0x8
   16106:	3a6080e7          	jalr	934(ra) # 1e4a8 <memset>
   1610a:	8626                	mv	a2,s1
   1610c:	02810ca3          	sb	s0,57(sp)
   16110:	4791                	li	a5,4
   16112:	7e300513          	li	a0,2019
   16116:	459d                	li	a1,7
   16118:	02b00693          	li	a3,43
   1611c:	4711                	li	a4,4
   1611e:	00000073          	ecall
   16122:	00851863          	bne	a0,s0,16132 <_ZN20complex_dynamic_type3app17h973a697955f65159E+0x62>
   16126:	4505                	li	a0,1
   16128:	00aa0023          	sb	a0,0(s4)
   1612c:	00ba2223          	sw	a1,4(s4)
   16130:	a0ad                	j	1619a <_ZN20complex_dynamic_type3app17h973a697955f65159E+0xca>
   16132:	864e                	mv	a2,s3
   16134:	00f106a3          	sb	a5,13(sp)
   16138:	478d                	li	a5,3
   1613a:	7e300513          	li	a0,2019
   1613e:	45a1                	li	a1,8
   16140:	46f9                	li	a3,30
   16142:	470d                	li	a4,3
   16144:	00000073          	ecall
   16148:	00851d63          	bne	a0,s0,16162 <_ZN20complex_dynamic_type3app17h973a697955f65159E+0x92>
   1614c:	03914703          	lbu	a4,57(sp)
   16150:	4505                	li	a0,1
   16152:	4609                	li	a2,2
   16154:	00aa0023          	sb	a0,0(s4)
   16158:	00ba2223          	sw	a1,4(s4)
   1615c:	02c71863          	bne	a4,a2,1618c <_ZN20complex_dynamic_type3app17h973a697955f65159E+0xbc>
   16160:	a82d                	j	1619a <_ZN20complex_dynamic_type3app17h973a697955f65159E+0xca>
   16162:	4681                	li	a3,0
   16164:	02f10ca3          	sb	a5,57(sp)
   16168:	7e300513          	li	a0,2019
   1616c:	459d                	li	a1,7
   1616e:	4621                	li	a2,8
   16170:	4709                	li	a4,2
   16172:	08000793          	li	a5,128
   16176:	00000073          	ecall
   1617a:	4609                	li	a2,2
   1617c:	04f57363          	bgeu	a0,a5,161c2 <_ZN20complex_dynamic_type3app17h973a697955f65159E+0xf2>
   16180:	4505                	li	a0,1
   16182:	00aa0023          	sb	a0,0(s4)
   16186:	00ba2223          	sw	a1,4(s4)
   1618a:	470d                	li	a4,3
   1618c:	7e300513          	li	a0,2019
   16190:	45a1                	li	a1,8
   16192:	4601                	li	a2,0
   16194:	4681                	li	a3,0
   16196:	00000073          	ecall
   1619a:	00d14703          	lbu	a4,13(sp)
   1619e:	4509                	li	a0,2
   161a0:	00a70963          	beq	a4,a0,161b2 <_ZN20complex_dynamic_type3app17h973a697955f65159E+0xe2>
   161a4:	7e300513          	li	a0,2019
   161a8:	459d                	li	a1,7
   161aa:	4601                	li	a2,0
   161ac:	4681                	li	a3,0
   161ae:	00000073          	ecall
   161b2:	50b6                	lw	ra,108(sp)
   161b4:	5426                	lw	s0,104(sp)
   161b6:	5496                	lw	s1,100(sp)
   161b8:	5906                	lw	s2,96(sp)
   161ba:	49f6                	lw	s3,92(sp)
   161bc:	4a66                	lw	s4,88(sp)
   161be:	6165                	addi	sp,sp,112
   161c0:	8082                	ret
   161c2:	00d14703          	lbu	a4,13(sp)
   161c6:	00c71463          	bne	a4,a2,161ce <_ZN20complex_dynamic_type3app17h973a697955f65159E+0xfe>
   161ca:	470d                	li	a4,3
   161cc:	a815                	j	16200 <_ZN20complex_dynamic_type3app17h973a697955f65159E+0x130>
   161ce:	7e300513          	li	a0,2019
   161d2:	459d                	li	a1,7
   161d4:	4601                	li	a2,0
   161d6:	4681                	li	a3,0
   161d8:	00000073          	ecall
   161dc:	03914703          	lbu	a4,57(sp)
   161e0:	4509                	li	a0,2
   161e2:	00a106a3          	sb	a0,13(sp)
   161e6:	00a71d63          	bne	a4,a0,16200 <_ZN20complex_dynamic_type3app17h973a697955f65159E+0x130>
   161ea:	001a0513          	addi	a0,s4,1
   161ee:	4679                	li	a2,30
   161f0:	85ce                	mv	a1,s3
   161f2:	00008097          	auipc	ra,0x8
   161f6:	322080e7          	jalr	802(ra) # 1e514 <memcpy>
   161fa:	000a0023          	sb	zero,0(s4)
   161fe:	bf55                	j	161b2 <_ZN20complex_dynamic_type3app17h973a697955f65159E+0xe2>
   16200:	7e300513          	li	a0,2019
   16204:	45a1                	li	a1,8
   16206:	4601                	li	a2,0
   16208:	4681                	li	a3,0
   1620a:	00000073          	ecall
   1620e:	00d14903          	lbu	s2,13(sp)
   16212:	001a0513          	addi	a0,s4,1
   16216:	4679                	li	a2,30
   16218:	85ce                	mv	a1,s3
   1621a:	00008097          	auipc	ra,0x8
   1621e:	2fa080e7          	jalr	762(ra) # 1e514 <memcpy>
   16222:	4509                	li	a0,2
   16224:	000a0023          	sb	zero,0(s4)
   16228:	f8a905e3          	beq	s2,a0,161b2 <_ZN20complex_dynamic_type3app17h973a697955f65159E+0xe2>
   1622c:	7e300513          	li	a0,2019
   16230:	459d                	li	a1,7
   16232:	4601                	li	a2,0
   16234:	4681                	li	a3,0
   16236:	874a                	mv	a4,s2
   16238:	00000073          	ecall
   1623c:	bf9d                	j	161b2 <_ZN20complex_dynamic_type3app17h973a697955f65159E+0xe2>

0001623e <_ZN20complex_dynamic_type3app17ha0ba74cd1a614251E>:
   1623e:	711d                	addi	sp,sp,-96
   16240:	ce86                	sw	ra,92(sp)
   16242:	cca2                	sw	s0,88(sp)
   16244:	caa6                	sw	s1,84(sp)
   16246:	c8ca                	sw	s2,80(sp)
   16248:	c6ce                	sw	s3,76(sp)
   1624a:	c4d2                	sw	s4,72(sp)
   1624c:	c2d6                	sw	s5,68(sp)
   1624e:	8aaa                	mv	s5,a0
   16250:	4409                	li	s0,2
   16252:	008103a3          	sb	s0,7(sp)
   16256:	0024                	addi	s1,sp,8
   16258:	02700613          	li	a2,39
   1625c:	8526                	mv	a0,s1
   1625e:	00008097          	auipc	ra,0x8
   16262:	2b6080e7          	jalr	694(ra) # 1e514 <memcpy>
   16266:	03010a13          	addi	s4,sp,48
   1626a:	4651                	li	a2,20
   1626c:	8552                	mv	a0,s4
   1626e:	4581                	li	a1,0
   16270:	00008097          	auipc	ra,0x8
   16274:	238080e7          	jalr	568(ra) # 1e4a8 <memset>
   16278:	8626                	mv	a2,s1
   1627a:	028107a3          	sb	s0,47(sp)
   1627e:	6509                	lui	a0,0x2
   16280:	4491                	li	s1,4
   16282:	4599                	li	a1,6
   16284:	2c950793          	addi	a5,a0,713 # 22c9 <.Lline_table_start1+0x209e>
   16288:	02700693          	li	a3,39
   1628c:	4711                	li	a4,4
   1628e:	853e                	mv	a0,a5
   16290:	00000073          	ecall
   16294:	00851863          	bne	a0,s0,162a4 <_ZN20complex_dynamic_type3app17ha0ba74cd1a614251E+0x66>
   16298:	4505                	li	a0,1
   1629a:	00aa8023          	sb	a0,0(s5)
   1629e:	00baa223          	sw	a1,4(s5)
   162a2:	a0b5                	j	1630e <_ZN20complex_dynamic_type3app17ha0ba74cd1a614251E+0xd0>
   162a4:	853e                	mv	a0,a5
   162a6:	8652                	mv	a2,s4
   162a8:	009103a3          	sb	s1,7(sp)
   162ac:	478d                	li	a5,3
   162ae:	4595                	li	a1,5
   162b0:	46d1                	li	a3,20
   162b2:	470d                	li	a4,3
   162b4:	00000073          	ecall
   162b8:	00851d63          	bne	a0,s0,162d2 <_ZN20complex_dynamic_type3app17ha0ba74cd1a614251E+0x94>
   162bc:	02f14703          	lbu	a4,47(sp)
   162c0:	4505                	li	a0,1
   162c2:	4609                	li	a2,2
   162c4:	00aa8023          	sb	a0,0(s5)
   162c8:	00baa223          	sw	a1,4(s5)
   162cc:	02c71963          	bne	a4,a2,162fe <_ZN20complex_dynamic_type3app17ha0ba74cd1a614251E+0xc0>
   162d0:	a83d                	j	1630e <_ZN20complex_dynamic_type3app17ha0ba74cd1a614251E+0xd0>
   162d2:	4681                	li	a3,0
   162d4:	02f107a3          	sb	a5,47(sp)
   162d8:	6509                	lui	a0,0x2
   162da:	4599                	li	a1,6
   162dc:	4615                	li	a2,5
   162de:	4709                	li	a4,2
   162e0:	2c950513          	addi	a0,a0,713 # 22c9 <.Lline_table_start1+0x209e>
   162e4:	08000793          	li	a5,128
   162e8:	00000073          	ecall
   162ec:	4609                	li	a2,2
   162ee:	04f57663          	bgeu	a0,a5,1633a <_ZN20complex_dynamic_type3app17ha0ba74cd1a614251E+0xfc>
   162f2:	4505                	li	a0,1
   162f4:	00aa8023          	sb	a0,0(s5)
   162f8:	00baa223          	sw	a1,4(s5)
   162fc:	470d                	li	a4,3
   162fe:	6509                	lui	a0,0x2
   16300:	2c950513          	addi	a0,a0,713 # 22c9 <.Lline_table_start1+0x209e>
   16304:	4595                	li	a1,5
   16306:	4601                	li	a2,0
   16308:	4681                	li	a3,0
   1630a:	00000073          	ecall
   1630e:	00714703          	lbu	a4,7(sp)
   16312:	4509                	li	a0,2
   16314:	00a70a63          	beq	a4,a0,16328 <_ZN20complex_dynamic_type3app17ha0ba74cd1a614251E+0xea>
   16318:	6509                	lui	a0,0x2
   1631a:	2c950513          	addi	a0,a0,713 # 22c9 <.Lline_table_start1+0x209e>
   1631e:	4599                	li	a1,6
   16320:	4601                	li	a2,0
   16322:	4681                	li	a3,0
   16324:	00000073          	ecall
   16328:	40f6                	lw	ra,92(sp)
   1632a:	4466                	lw	s0,88(sp)
   1632c:	44d6                	lw	s1,84(sp)
   1632e:	4946                	lw	s2,80(sp)
   16330:	49b6                	lw	s3,76(sp)
   16332:	4a26                	lw	s4,72(sp)
   16334:	4a96                	lw	s5,68(sp)
   16336:	6125                	addi	sp,sp,96
   16338:	8082                	ret
   1633a:	00714703          	lbu	a4,7(sp)
   1633e:	00c71463          	bne	a4,a2,16346 <_ZN20complex_dynamic_type3app17ha0ba74cd1a614251E+0x108>
   16342:	470d                	li	a4,3
   16344:	a81d                	j	1637a <_ZN20complex_dynamic_type3app17ha0ba74cd1a614251E+0x13c>
   16346:	6509                	lui	a0,0x2
   16348:	2c950513          	addi	a0,a0,713 # 22c9 <.Lline_table_start1+0x209e>
   1634c:	4599                	li	a1,6
   1634e:	4601                	li	a2,0
   16350:	4681                	li	a3,0
   16352:	00000073          	ecall
   16356:	02f14703          	lbu	a4,47(sp)
   1635a:	4509                	li	a0,2
   1635c:	00a103a3          	sb	a0,7(sp)
   16360:	00a71d63          	bne	a4,a0,1637a <_ZN20complex_dynamic_type3app17ha0ba74cd1a614251E+0x13c>
   16364:	001a8513          	addi	a0,s5,1
   16368:	4651                	li	a2,20
   1636a:	85d2                	mv	a1,s4
   1636c:	00008097          	auipc	ra,0x8
   16370:	1a8080e7          	jalr	424(ra) # 1e514 <memcpy>
   16374:	000a8023          	sb	zero,0(s5)
   16378:	bf45                	j	16328 <_ZN20complex_dynamic_type3app17ha0ba74cd1a614251E+0xea>
   1637a:	6509                	lui	a0,0x2
   1637c:	2c950913          	addi	s2,a0,713 # 22c9 <.Lline_table_start1+0x209e>
   16380:	4595                	li	a1,5
   16382:	854a                	mv	a0,s2
   16384:	4601                	li	a2,0
   16386:	4681                	li	a3,0
   16388:	00000073          	ecall
   1638c:	00714983          	lbu	s3,7(sp)
   16390:	001a8513          	addi	a0,s5,1
   16394:	4651                	li	a2,20
   16396:	85d2                	mv	a1,s4
   16398:	00008097          	auipc	ra,0x8
   1639c:	17c080e7          	jalr	380(ra) # 1e514 <memcpy>
   163a0:	4509                	li	a0,2
   163a2:	000a8023          	sb	zero,0(s5)
   163a6:	f8a981e3          	beq	s3,a0,16328 <_ZN20complex_dynamic_type3app17ha0ba74cd1a614251E+0xea>
   163aa:	4599                	li	a1,6
   163ac:	854a                	mv	a0,s2
   163ae:	4601                	li	a2,0
   163b0:	4681                	li	a3,0
   163b2:	874e                	mv	a4,s3
   163b4:	00000073          	ecall
   163b8:	bf85                	j	16328 <_ZN20complex_dynamic_type3app17ha0ba74cd1a614251E+0xea>

000163ba <_ZN20complex_dynamic_type3app17ha0dae70fb104ad26E>:
   163ba:	7171                	addi	sp,sp,-176
   163bc:	d706                	sw	ra,172(sp)
   163be:	d522                	sw	s0,168(sp)
   163c0:	d326                	sw	s1,164(sp)
   163c2:	d14a                	sw	s2,160(sp)
   163c4:	cf4e                	sw	s3,156(sp)
   163c6:	cd52                	sw	s4,152(sp)
   163c8:	cb56                	sw	s5,148(sp)
   163ca:	8aaa                	mv	s5,a0
   163cc:	4409                	li	s0,2
   163ce:	008104a3          	sb	s0,9(sp)
   163d2:	00a10493          	addi	s1,sp,10
   163d6:	04d00613          	li	a2,77
   163da:	8526                	mv	a0,s1
   163dc:	00008097          	auipc	ra,0x8
   163e0:	138080e7          	jalr	312(ra) # 1e514 <memcpy>
   163e4:	05810a13          	addi	s4,sp,88
   163e8:	03c00613          	li	a2,60
   163ec:	8552                	mv	a0,s4
   163ee:	4581                	li	a1,0
   163f0:	00008097          	auipc	ra,0x8
   163f4:	0b8080e7          	jalr	184(ra) # 1e4a8 <memset>
   163f8:	8626                	mv	a2,s1
   163fa:	04810ba3          	sb	s0,87(sp)
   163fe:	6509                	lui	a0,0x2
   16400:	4491                	li	s1,4
   16402:	4591                	li	a1,4
   16404:	1ab50793          	addi	a5,a0,427 # 21ab <.Lline_table_start1+0x1f80>
   16408:	04d00693          	li	a3,77
   1640c:	4711                	li	a4,4
   1640e:	853e                	mv	a0,a5
   16410:	00000073          	ecall
   16414:	00851863          	bne	a0,s0,16424 <_ZN20complex_dynamic_type3app17ha0dae70fb104ad26E+0x6a>
   16418:	4505                	li	a0,1
   1641a:	00aa8023          	sb	a0,0(s5)
   1641e:	00baa223          	sw	a1,4(s5)
   16422:	a0bd                	j	16490 <_ZN20complex_dynamic_type3app17ha0dae70fb104ad26E+0xd6>
   16424:	853e                	mv	a0,a5
   16426:	8652                	mv	a2,s4
   16428:	009104a3          	sb	s1,9(sp)
   1642c:	478d                	li	a5,3
   1642e:	45a5                	li	a1,9
   16430:	03c00693          	li	a3,60
   16434:	470d                	li	a4,3
   16436:	00000073          	ecall
   1643a:	00851d63          	bne	a0,s0,16454 <_ZN20complex_dynamic_type3app17ha0dae70fb104ad26E+0x9a>
   1643e:	05714703          	lbu	a4,87(sp)
   16442:	4505                	li	a0,1
   16444:	4609                	li	a2,2
   16446:	00aa8023          	sb	a0,0(s5)
   1644a:	00baa223          	sw	a1,4(s5)
   1644e:	02c71963          	bne	a4,a2,16480 <_ZN20complex_dynamic_type3app17ha0dae70fb104ad26E+0xc6>
   16452:	a83d                	j	16490 <_ZN20complex_dynamic_type3app17ha0dae70fb104ad26E+0xd6>
   16454:	4681                	li	a3,0
   16456:	04f10ba3          	sb	a5,87(sp)
   1645a:	6509                	lui	a0,0x2
   1645c:	4591                	li	a1,4
   1645e:	4625                	li	a2,9
   16460:	4709                	li	a4,2
   16462:	1ab50513          	addi	a0,a0,427 # 21ab <.Lline_table_start1+0x1f80>
   16466:	08000793          	li	a5,128
   1646a:	00000073          	ecall
   1646e:	4609                	li	a2,2
   16470:	04f57663          	bgeu	a0,a5,164bc <_ZN20complex_dynamic_type3app17ha0dae70fb104ad26E+0x102>
   16474:	4505                	li	a0,1
   16476:	00aa8023          	sb	a0,0(s5)
   1647a:	00baa223          	sw	a1,4(s5)
   1647e:	470d                	li	a4,3
   16480:	6509                	lui	a0,0x2
   16482:	1ab50513          	addi	a0,a0,427 # 21ab <.Lline_table_start1+0x1f80>
   16486:	45a5                	li	a1,9
   16488:	4601                	li	a2,0
   1648a:	4681                	li	a3,0
   1648c:	00000073          	ecall
   16490:	00914703          	lbu	a4,9(sp)
   16494:	4509                	li	a0,2
   16496:	00a70a63          	beq	a4,a0,164aa <_ZN20complex_dynamic_type3app17ha0dae70fb104ad26E+0xf0>
   1649a:	6509                	lui	a0,0x2
   1649c:	1ab50513          	addi	a0,a0,427 # 21ab <.Lline_table_start1+0x1f80>
   164a0:	4591                	li	a1,4
   164a2:	4601                	li	a2,0
   164a4:	4681                	li	a3,0
   164a6:	00000073          	ecall
   164aa:	50ba                	lw	ra,172(sp)
   164ac:	542a                	lw	s0,168(sp)
   164ae:	549a                	lw	s1,164(sp)
   164b0:	590a                	lw	s2,160(sp)
   164b2:	49fa                	lw	s3,156(sp)
   164b4:	4a6a                	lw	s4,152(sp)
   164b6:	4ada                	lw	s5,148(sp)
   164b8:	614d                	addi	sp,sp,176
   164ba:	8082                	ret
   164bc:	00914703          	lbu	a4,9(sp)
   164c0:	00c71463          	bne	a4,a2,164c8 <_ZN20complex_dynamic_type3app17ha0dae70fb104ad26E+0x10e>
   164c4:	470d                	li	a4,3
   164c6:	a825                	j	164fe <_ZN20complex_dynamic_type3app17ha0dae70fb104ad26E+0x144>
   164c8:	6509                	lui	a0,0x2
   164ca:	1ab50513          	addi	a0,a0,427 # 21ab <.Lline_table_start1+0x1f80>
   164ce:	4591                	li	a1,4
   164d0:	4601                	li	a2,0
   164d2:	4681                	li	a3,0
   164d4:	00000073          	ecall
   164d8:	05714703          	lbu	a4,87(sp)
   164dc:	4509                	li	a0,2
   164de:	00a104a3          	sb	a0,9(sp)
   164e2:	00a71e63          	bne	a4,a0,164fe <_ZN20complex_dynamic_type3app17ha0dae70fb104ad26E+0x144>
   164e6:	001a8513          	addi	a0,s5,1
   164ea:	03c00613          	li	a2,60
   164ee:	85d2                	mv	a1,s4
   164f0:	00008097          	auipc	ra,0x8
   164f4:	024080e7          	jalr	36(ra) # 1e514 <memcpy>
   164f8:	000a8023          	sb	zero,0(s5)
   164fc:	b77d                	j	164aa <_ZN20complex_dynamic_type3app17ha0dae70fb104ad26E+0xf0>
   164fe:	6509                	lui	a0,0x2
   16500:	1ab50913          	addi	s2,a0,427 # 21ab <.Lline_table_start1+0x1f80>
   16504:	45a5                	li	a1,9
   16506:	854a                	mv	a0,s2
   16508:	4601                	li	a2,0
   1650a:	4681                	li	a3,0
   1650c:	00000073          	ecall
   16510:	00914983          	lbu	s3,9(sp)
   16514:	001a8513          	addi	a0,s5,1
   16518:	03c00613          	li	a2,60
   1651c:	85d2                	mv	a1,s4
   1651e:	00008097          	auipc	ra,0x8
   16522:	ff6080e7          	jalr	-10(ra) # 1e514 <memcpy>
   16526:	4509                	li	a0,2
   16528:	000a8023          	sb	zero,0(s5)
   1652c:	f6a98fe3          	beq	s3,a0,164aa <_ZN20complex_dynamic_type3app17ha0dae70fb104ad26E+0xf0>
   16530:	4591                	li	a1,4
   16532:	854a                	mv	a0,s2
   16534:	4601                	li	a2,0
   16536:	4681                	li	a3,0
   16538:	874e                	mv	a4,s3
   1653a:	00000073          	ecall
   1653e:	b7b5                	j	164aa <_ZN20complex_dynamic_type3app17ha0dae70fb104ad26E+0xf0>

00016540 <_ZN20complex_dynamic_type3app17ha17aa5d517b56555E>:
   16540:	7159                	addi	sp,sp,-112
   16542:	d686                	sw	ra,108(sp)
   16544:	d4a2                	sw	s0,104(sp)
   16546:	d2a6                	sw	s1,100(sp)
   16548:	d0ca                	sw	s2,96(sp)
   1654a:	cece                	sw	s3,92(sp)
   1654c:	ccd2                	sw	s4,88(sp)
   1654e:	cad6                	sw	s5,84(sp)
   16550:	8aaa                	mv	s5,a0
   16552:	4409                	li	s0,2
   16554:	008107a3          	sb	s0,15(sp)
   16558:	0804                	addi	s1,sp,16
   1655a:	02900613          	li	a2,41
   1655e:	8526                	mv	a0,s1
   16560:	00008097          	auipc	ra,0x8
   16564:	fb4080e7          	jalr	-76(ra) # 1e514 <memcpy>
   16568:	03a10a13          	addi	s4,sp,58
   1656c:	4669                	li	a2,26
   1656e:	8552                	mv	a0,s4
   16570:	4581                	li	a1,0
   16572:	00008097          	auipc	ra,0x8
   16576:	f36080e7          	jalr	-202(ra) # 1e4a8 <memset>
   1657a:	8626                	mv	a2,s1
   1657c:	02810ca3          	sb	s0,57(sp)
   16580:	6509                	lui	a0,0x2
   16582:	4491                	li	s1,4
   16584:	4595                	li	a1,5
   16586:	04850793          	addi	a5,a0,72 # 2048 <.Lline_table_start1+0x1e1d>
   1658a:	02900693          	li	a3,41
   1658e:	4711                	li	a4,4
   16590:	853e                	mv	a0,a5
   16592:	00000073          	ecall
   16596:	00851863          	bne	a0,s0,165a6 <_ZN20complex_dynamic_type3app17ha17aa5d517b56555E+0x66>
   1659a:	4505                	li	a0,1
   1659c:	00aa8023          	sb	a0,0(s5)
   165a0:	00baa223          	sw	a1,4(s5)
   165a4:	a0b5                	j	16610 <_ZN20complex_dynamic_type3app17ha17aa5d517b56555E+0xd0>
   165a6:	853e                	mv	a0,a5
   165a8:	8652                	mv	a2,s4
   165aa:	009107a3          	sb	s1,15(sp)
   165ae:	478d                	li	a5,3
   165b0:	458d                	li	a1,3
   165b2:	46e9                	li	a3,26
   165b4:	470d                	li	a4,3
   165b6:	00000073          	ecall
   165ba:	00851d63          	bne	a0,s0,165d4 <_ZN20complex_dynamic_type3app17ha17aa5d517b56555E+0x94>
   165be:	03914703          	lbu	a4,57(sp)
   165c2:	4505                	li	a0,1
   165c4:	4609                	li	a2,2
   165c6:	00aa8023          	sb	a0,0(s5)
   165ca:	00baa223          	sw	a1,4(s5)
   165ce:	02c71963          	bne	a4,a2,16600 <_ZN20complex_dynamic_type3app17ha17aa5d517b56555E+0xc0>
   165d2:	a83d                	j	16610 <_ZN20complex_dynamic_type3app17ha17aa5d517b56555E+0xd0>
   165d4:	4681                	li	a3,0
   165d6:	02f10ca3          	sb	a5,57(sp)
   165da:	6509                	lui	a0,0x2
   165dc:	4595                	li	a1,5
   165de:	460d                	li	a2,3
   165e0:	4709                	li	a4,2
   165e2:	04850513          	addi	a0,a0,72 # 2048 <.Lline_table_start1+0x1e1d>
   165e6:	08000793          	li	a5,128
   165ea:	00000073          	ecall
   165ee:	4609                	li	a2,2
   165f0:	04f57663          	bgeu	a0,a5,1663c <_ZN20complex_dynamic_type3app17ha17aa5d517b56555E+0xfc>
   165f4:	4505                	li	a0,1
   165f6:	00aa8023          	sb	a0,0(s5)
   165fa:	00baa223          	sw	a1,4(s5)
   165fe:	470d                	li	a4,3
   16600:	6509                	lui	a0,0x2
   16602:	04850513          	addi	a0,a0,72 # 2048 <.Lline_table_start1+0x1e1d>
   16606:	458d                	li	a1,3
   16608:	4601                	li	a2,0
   1660a:	4681                	li	a3,0
   1660c:	00000073          	ecall
   16610:	00f14703          	lbu	a4,15(sp)
   16614:	4509                	li	a0,2
   16616:	00a70a63          	beq	a4,a0,1662a <_ZN20complex_dynamic_type3app17ha17aa5d517b56555E+0xea>
   1661a:	6509                	lui	a0,0x2
   1661c:	04850513          	addi	a0,a0,72 # 2048 <.Lline_table_start1+0x1e1d>
   16620:	4595                	li	a1,5
   16622:	4601                	li	a2,0
   16624:	4681                	li	a3,0
   16626:	00000073          	ecall
   1662a:	50b6                	lw	ra,108(sp)
   1662c:	5426                	lw	s0,104(sp)
   1662e:	5496                	lw	s1,100(sp)
   16630:	5906                	lw	s2,96(sp)
   16632:	49f6                	lw	s3,92(sp)
   16634:	4a66                	lw	s4,88(sp)
   16636:	4ad6                	lw	s5,84(sp)
   16638:	6165                	addi	sp,sp,112
   1663a:	8082                	ret
   1663c:	00f14703          	lbu	a4,15(sp)
   16640:	00c71463          	bne	a4,a2,16648 <_ZN20complex_dynamic_type3app17ha17aa5d517b56555E+0x108>
   16644:	470d                	li	a4,3
   16646:	a81d                	j	1667c <_ZN20complex_dynamic_type3app17ha17aa5d517b56555E+0x13c>
   16648:	6509                	lui	a0,0x2
   1664a:	04850513          	addi	a0,a0,72 # 2048 <.Lline_table_start1+0x1e1d>
   1664e:	4595                	li	a1,5
   16650:	4601                	li	a2,0
   16652:	4681                	li	a3,0
   16654:	00000073          	ecall
   16658:	03914703          	lbu	a4,57(sp)
   1665c:	4509                	li	a0,2
   1665e:	00a107a3          	sb	a0,15(sp)
   16662:	00a71d63          	bne	a4,a0,1667c <_ZN20complex_dynamic_type3app17ha17aa5d517b56555E+0x13c>
   16666:	001a8513          	addi	a0,s5,1
   1666a:	4669                	li	a2,26
   1666c:	85d2                	mv	a1,s4
   1666e:	00008097          	auipc	ra,0x8
   16672:	ea6080e7          	jalr	-346(ra) # 1e514 <memcpy>
   16676:	000a8023          	sb	zero,0(s5)
   1667a:	bf45                	j	1662a <_ZN20complex_dynamic_type3app17ha17aa5d517b56555E+0xea>
   1667c:	6509                	lui	a0,0x2
   1667e:	04850913          	addi	s2,a0,72 # 2048 <.Lline_table_start1+0x1e1d>
   16682:	458d                	li	a1,3
   16684:	854a                	mv	a0,s2
   16686:	4601                	li	a2,0
   16688:	4681                	li	a3,0
   1668a:	00000073          	ecall
   1668e:	00f14983          	lbu	s3,15(sp)
   16692:	001a8513          	addi	a0,s5,1
   16696:	4669                	li	a2,26
   16698:	85d2                	mv	a1,s4
   1669a:	00008097          	auipc	ra,0x8
   1669e:	e7a080e7          	jalr	-390(ra) # 1e514 <memcpy>
   166a2:	4509                	li	a0,2
   166a4:	000a8023          	sb	zero,0(s5)
   166a8:	f8a981e3          	beq	s3,a0,1662a <_ZN20complex_dynamic_type3app17ha17aa5d517b56555E+0xea>
   166ac:	4595                	li	a1,5
   166ae:	854a                	mv	a0,s2
   166b0:	4601                	li	a2,0
   166b2:	4681                	li	a3,0
   166b4:	874e                	mv	a4,s3
   166b6:	00000073          	ecall
   166ba:	bf85                	j	1662a <_ZN20complex_dynamic_type3app17ha17aa5d517b56555E+0xea>

000166bc <_ZN20complex_dynamic_type3app17ha22ff8487eabf2c1E>:
   166bc:	711d                	addi	sp,sp,-96
   166be:	ce86                	sw	ra,92(sp)
   166c0:	cca2                	sw	s0,88(sp)
   166c2:	caa6                	sw	s1,84(sp)
   166c4:	c8ca                	sw	s2,80(sp)
   166c6:	c6ce                	sw	s3,76(sp)
   166c8:	c4d2                	sw	s4,72(sp)
   166ca:	c2d6                	sw	s5,68(sp)
   166cc:	8aaa                	mv	s5,a0
   166ce:	4409                	li	s0,2
   166d0:	008101a3          	sb	s0,3(sp)
   166d4:	0044                	addi	s1,sp,4
   166d6:	4651                	li	a2,20
   166d8:	8526                	mv	a0,s1
   166da:	00008097          	auipc	ra,0x8
   166de:	e3a080e7          	jalr	-454(ra) # 1e514 <memcpy>
   166e2:	01910a13          	addi	s4,sp,25
   166e6:	02b00613          	li	a2,43
   166ea:	8552                	mv	a0,s4
   166ec:	4581                	li	a1,0
   166ee:	00008097          	auipc	ra,0x8
   166f2:	dba080e7          	jalr	-582(ra) # 1e4a8 <memset>
   166f6:	8626                	mv	a2,s1
   166f8:	00810c23          	sb	s0,24(sp)
   166fc:	6509                	lui	a0,0x2
   166fe:	4491                	li	s1,4
   16700:	45a1                	li	a1,8
   16702:	39f50793          	addi	a5,a0,927 # 239f <.Lline_table_start1+0x2174>
   16706:	46d1                	li	a3,20
   16708:	4711                	li	a4,4
   1670a:	853e                	mv	a0,a5
   1670c:	00000073          	ecall
   16710:	00851863          	bne	a0,s0,16720 <_ZN20complex_dynamic_type3app17ha22ff8487eabf2c1E+0x64>
   16714:	4505                	li	a0,1
   16716:	00aa8023          	sb	a0,0(s5)
   1671a:	00baa223          	sw	a1,4(s5)
   1671e:	a0bd                	j	1678c <_ZN20complex_dynamic_type3app17ha22ff8487eabf2c1E+0xd0>
   16720:	853e                	mv	a0,a5
   16722:	8652                	mv	a2,s4
   16724:	009101a3          	sb	s1,3(sp)
   16728:	478d                	li	a5,3
   1672a:	4591                	li	a1,4
   1672c:	02b00693          	li	a3,43
   16730:	470d                	li	a4,3
   16732:	00000073          	ecall
   16736:	00851d63          	bne	a0,s0,16750 <_ZN20complex_dynamic_type3app17ha22ff8487eabf2c1E+0x94>
   1673a:	01814703          	lbu	a4,24(sp)
   1673e:	4505                	li	a0,1
   16740:	4609                	li	a2,2
   16742:	00aa8023          	sb	a0,0(s5)
   16746:	00baa223          	sw	a1,4(s5)
   1674a:	02c71963          	bne	a4,a2,1677c <_ZN20complex_dynamic_type3app17ha22ff8487eabf2c1E+0xc0>
   1674e:	a83d                	j	1678c <_ZN20complex_dynamic_type3app17ha22ff8487eabf2c1E+0xd0>
   16750:	4681                	li	a3,0
   16752:	00f10c23          	sb	a5,24(sp)
   16756:	6509                	lui	a0,0x2
   16758:	45a1                	li	a1,8
   1675a:	4611                	li	a2,4
   1675c:	4709                	li	a4,2
   1675e:	39f50513          	addi	a0,a0,927 # 239f <.Lline_table_start1+0x2174>
   16762:	08000793          	li	a5,128
   16766:	00000073          	ecall
   1676a:	4609                	li	a2,2
   1676c:	04f57663          	bgeu	a0,a5,167b8 <_ZN20complex_dynamic_type3app17ha22ff8487eabf2c1E+0xfc>
   16770:	4505                	li	a0,1
   16772:	00aa8023          	sb	a0,0(s5)
   16776:	00baa223          	sw	a1,4(s5)
   1677a:	470d                	li	a4,3
   1677c:	6509                	lui	a0,0x2
   1677e:	39f50513          	addi	a0,a0,927 # 239f <.Lline_table_start1+0x2174>
   16782:	4591                	li	a1,4
   16784:	4601                	li	a2,0
   16786:	4681                	li	a3,0
   16788:	00000073          	ecall
   1678c:	00314703          	lbu	a4,3(sp)
   16790:	4509                	li	a0,2
   16792:	00a70a63          	beq	a4,a0,167a6 <_ZN20complex_dynamic_type3app17ha22ff8487eabf2c1E+0xea>
   16796:	6509                	lui	a0,0x2
   16798:	39f50513          	addi	a0,a0,927 # 239f <.Lline_table_start1+0x2174>
   1679c:	45a1                	li	a1,8
   1679e:	4601                	li	a2,0
   167a0:	4681                	li	a3,0
   167a2:	00000073          	ecall
   167a6:	40f6                	lw	ra,92(sp)
   167a8:	4466                	lw	s0,88(sp)
   167aa:	44d6                	lw	s1,84(sp)
   167ac:	4946                	lw	s2,80(sp)
   167ae:	49b6                	lw	s3,76(sp)
   167b0:	4a26                	lw	s4,72(sp)
   167b2:	4a96                	lw	s5,68(sp)
   167b4:	6125                	addi	sp,sp,96
   167b6:	8082                	ret
   167b8:	00314703          	lbu	a4,3(sp)
   167bc:	00c71463          	bne	a4,a2,167c4 <_ZN20complex_dynamic_type3app17ha22ff8487eabf2c1E+0x108>
   167c0:	470d                	li	a4,3
   167c2:	a825                	j	167fa <_ZN20complex_dynamic_type3app17ha22ff8487eabf2c1E+0x13e>
   167c4:	6509                	lui	a0,0x2
   167c6:	39f50513          	addi	a0,a0,927 # 239f <.Lline_table_start1+0x2174>
   167ca:	45a1                	li	a1,8
   167cc:	4601                	li	a2,0
   167ce:	4681                	li	a3,0
   167d0:	00000073          	ecall
   167d4:	01814703          	lbu	a4,24(sp)
   167d8:	4509                	li	a0,2
   167da:	00a101a3          	sb	a0,3(sp)
   167de:	00a71e63          	bne	a4,a0,167fa <_ZN20complex_dynamic_type3app17ha22ff8487eabf2c1E+0x13e>
   167e2:	001a8513          	addi	a0,s5,1
   167e6:	02b00613          	li	a2,43
   167ea:	85d2                	mv	a1,s4
   167ec:	00008097          	auipc	ra,0x8
   167f0:	d28080e7          	jalr	-728(ra) # 1e514 <memcpy>
   167f4:	000a8023          	sb	zero,0(s5)
   167f8:	b77d                	j	167a6 <_ZN20complex_dynamic_type3app17ha22ff8487eabf2c1E+0xea>
   167fa:	6509                	lui	a0,0x2
   167fc:	39f50913          	addi	s2,a0,927 # 239f <.Lline_table_start1+0x2174>
   16800:	4591                	li	a1,4
   16802:	854a                	mv	a0,s2
   16804:	4601                	li	a2,0
   16806:	4681                	li	a3,0
   16808:	00000073          	ecall
   1680c:	00314983          	lbu	s3,3(sp)
   16810:	001a8513          	addi	a0,s5,1
   16814:	02b00613          	li	a2,43
   16818:	85d2                	mv	a1,s4
   1681a:	00008097          	auipc	ra,0x8
   1681e:	cfa080e7          	jalr	-774(ra) # 1e514 <memcpy>
   16822:	4509                	li	a0,2
   16824:	000a8023          	sb	zero,0(s5)
   16828:	f6a98fe3          	beq	s3,a0,167a6 <_ZN20complex_dynamic_type3app17ha22ff8487eabf2c1E+0xea>
   1682c:	45a1                	li	a1,8
   1682e:	854a                	mv	a0,s2
   16830:	4601                	li	a2,0
   16832:	4681                	li	a3,0
   16834:	874e                	mv	a4,s3
   16836:	00000073          	ecall
   1683a:	b7b5                	j	167a6 <_ZN20complex_dynamic_type3app17ha22ff8487eabf2c1E+0xea>

0001683c <_ZN20complex_dynamic_type3app17ha345b70cbb93470bE>:
   1683c:	7171                	addi	sp,sp,-176
   1683e:	d706                	sw	ra,172(sp)
   16840:	d522                	sw	s0,168(sp)
   16842:	d326                	sw	s1,164(sp)
   16844:	d14a                	sw	s2,160(sp)
   16846:	cf4e                	sw	s3,156(sp)
   16848:	cd52                	sw	s4,152(sp)
   1684a:	cb56                	sw	s5,148(sp)
   1684c:	8aaa                	mv	s5,a0
   1684e:	4409                	li	s0,2
   16850:	008102a3          	sb	s0,5(sp)
   16854:	00610493          	addi	s1,sp,6
   16858:	05300613          	li	a2,83
   1685c:	8526                	mv	a0,s1
   1685e:	00008097          	auipc	ra,0x8
   16862:	cb6080e7          	jalr	-842(ra) # 1e514 <memcpy>
   16866:	05a10a13          	addi	s4,sp,90
   1686a:	03a00613          	li	a2,58
   1686e:	8552                	mv	a0,s4
   16870:	4581                	li	a1,0
   16872:	00008097          	auipc	ra,0x8
   16876:	c36080e7          	jalr	-970(ra) # 1e4a8 <memset>
   1687a:	8626                	mv	a2,s1
   1687c:	04810ca3          	sb	s0,89(sp)
   16880:	6509                	lui	a0,0x2
   16882:	4491                	li	s1,4
   16884:	4599                	li	a1,6
   16886:	64550793          	addi	a5,a0,1605 # 2645 <.Lline_table_start1+0x241a>
   1688a:	05300693          	li	a3,83
   1688e:	4711                	li	a4,4
   16890:	853e                	mv	a0,a5
   16892:	00000073          	ecall
   16896:	00851863          	bne	a0,s0,168a6 <_ZN20complex_dynamic_type3app17ha345b70cbb93470bE+0x6a>
   1689a:	4505                	li	a0,1
   1689c:	00aa8023          	sb	a0,0(s5)
   168a0:	00baa223          	sw	a1,4(s5)
   168a4:	a0bd                	j	16912 <_ZN20complex_dynamic_type3app17ha345b70cbb93470bE+0xd6>
   168a6:	853e                	mv	a0,a5
   168a8:	8652                	mv	a2,s4
   168aa:	009102a3          	sb	s1,5(sp)
   168ae:	478d                	li	a5,3
   168b0:	459d                	li	a1,7
   168b2:	03a00693          	li	a3,58
   168b6:	470d                	li	a4,3
   168b8:	00000073          	ecall
   168bc:	00851d63          	bne	a0,s0,168d6 <_ZN20complex_dynamic_type3app17ha345b70cbb93470bE+0x9a>
   168c0:	05914703          	lbu	a4,89(sp)
   168c4:	4505                	li	a0,1
   168c6:	4609                	li	a2,2
   168c8:	00aa8023          	sb	a0,0(s5)
   168cc:	00baa223          	sw	a1,4(s5)
   168d0:	02c71963          	bne	a4,a2,16902 <_ZN20complex_dynamic_type3app17ha345b70cbb93470bE+0xc6>
   168d4:	a83d                	j	16912 <_ZN20complex_dynamic_type3app17ha345b70cbb93470bE+0xd6>
   168d6:	4681                	li	a3,0
   168d8:	04f10ca3          	sb	a5,89(sp)
   168dc:	6509                	lui	a0,0x2
   168de:	4599                	li	a1,6
   168e0:	461d                	li	a2,7
   168e2:	4709                	li	a4,2
   168e4:	64550513          	addi	a0,a0,1605 # 2645 <.Lline_table_start1+0x241a>
   168e8:	08000793          	li	a5,128
   168ec:	00000073          	ecall
   168f0:	4609                	li	a2,2
   168f2:	04f57663          	bgeu	a0,a5,1693e <_ZN20complex_dynamic_type3app17ha345b70cbb93470bE+0x102>
   168f6:	4505                	li	a0,1
   168f8:	00aa8023          	sb	a0,0(s5)
   168fc:	00baa223          	sw	a1,4(s5)
   16900:	470d                	li	a4,3
   16902:	6509                	lui	a0,0x2
   16904:	64550513          	addi	a0,a0,1605 # 2645 <.Lline_table_start1+0x241a>
   16908:	459d                	li	a1,7
   1690a:	4601                	li	a2,0
   1690c:	4681                	li	a3,0
   1690e:	00000073          	ecall
   16912:	00514703          	lbu	a4,5(sp)
   16916:	4509                	li	a0,2
   16918:	00a70a63          	beq	a4,a0,1692c <_ZN20complex_dynamic_type3app17ha345b70cbb93470bE+0xf0>
   1691c:	6509                	lui	a0,0x2
   1691e:	64550513          	addi	a0,a0,1605 # 2645 <.Lline_table_start1+0x241a>
   16922:	4599                	li	a1,6
   16924:	4601                	li	a2,0
   16926:	4681                	li	a3,0
   16928:	00000073          	ecall
   1692c:	50ba                	lw	ra,172(sp)
   1692e:	542a                	lw	s0,168(sp)
   16930:	549a                	lw	s1,164(sp)
   16932:	590a                	lw	s2,160(sp)
   16934:	49fa                	lw	s3,156(sp)
   16936:	4a6a                	lw	s4,152(sp)
   16938:	4ada                	lw	s5,148(sp)
   1693a:	614d                	addi	sp,sp,176
   1693c:	8082                	ret
   1693e:	00514703          	lbu	a4,5(sp)
   16942:	00c71463          	bne	a4,a2,1694a <_ZN20complex_dynamic_type3app17ha345b70cbb93470bE+0x10e>
   16946:	470d                	li	a4,3
   16948:	a825                	j	16980 <_ZN20complex_dynamic_type3app17ha345b70cbb93470bE+0x144>
   1694a:	6509                	lui	a0,0x2
   1694c:	64550513          	addi	a0,a0,1605 # 2645 <.Lline_table_start1+0x241a>
   16950:	4599                	li	a1,6
   16952:	4601                	li	a2,0
   16954:	4681                	li	a3,0
   16956:	00000073          	ecall
   1695a:	05914703          	lbu	a4,89(sp)
   1695e:	4509                	li	a0,2
   16960:	00a102a3          	sb	a0,5(sp)
   16964:	00a71e63          	bne	a4,a0,16980 <_ZN20complex_dynamic_type3app17ha345b70cbb93470bE+0x144>
   16968:	001a8513          	addi	a0,s5,1
   1696c:	03a00613          	li	a2,58
   16970:	85d2                	mv	a1,s4
   16972:	00008097          	auipc	ra,0x8
   16976:	ba2080e7          	jalr	-1118(ra) # 1e514 <memcpy>
   1697a:	000a8023          	sb	zero,0(s5)
   1697e:	b77d                	j	1692c <_ZN20complex_dynamic_type3app17ha345b70cbb93470bE+0xf0>
   16980:	6509                	lui	a0,0x2
   16982:	64550913          	addi	s2,a0,1605 # 2645 <.Lline_table_start1+0x241a>
   16986:	459d                	li	a1,7
   16988:	854a                	mv	a0,s2
   1698a:	4601                	li	a2,0
   1698c:	4681                	li	a3,0
   1698e:	00000073          	ecall
   16992:	00514983          	lbu	s3,5(sp)
   16996:	001a8513          	addi	a0,s5,1
   1699a:	03a00613          	li	a2,58
   1699e:	85d2                	mv	a1,s4
   169a0:	00008097          	auipc	ra,0x8
   169a4:	b74080e7          	jalr	-1164(ra) # 1e514 <memcpy>
   169a8:	4509                	li	a0,2
   169aa:	000a8023          	sb	zero,0(s5)
   169ae:	f6a98fe3          	beq	s3,a0,1692c <_ZN20complex_dynamic_type3app17ha345b70cbb93470bE+0xf0>
   169b2:	4599                	li	a1,6
   169b4:	854a                	mv	a0,s2
   169b6:	4601                	li	a2,0
   169b8:	4681                	li	a3,0
   169ba:	874e                	mv	a4,s3
   169bc:	00000073          	ecall
   169c0:	b7b5                	j	1692c <_ZN20complex_dynamic_type3app17ha345b70cbb93470bE+0xf0>

000169c2 <_ZN20complex_dynamic_type3app17ha4e4e182195f6b66E>:
   169c2:	7159                	addi	sp,sp,-112
   169c4:	d686                	sw	ra,108(sp)
   169c6:	d4a2                	sw	s0,104(sp)
   169c8:	d2a6                	sw	s1,100(sp)
   169ca:	d0ca                	sw	s2,96(sp)
   169cc:	cece                	sw	s3,92(sp)
   169ce:	ccd2                	sw	s4,88(sp)
   169d0:	cad6                	sw	s5,84(sp)
   169d2:	8aaa                	mv	s5,a0
   169d4:	4409                	li	s0,2
   169d6:	00810023          	sb	s0,0(sp)
   169da:	00110493          	addi	s1,sp,1
   169de:	02a00613          	li	a2,42
   169e2:	8526                	mv	a0,s1
   169e4:	00008097          	auipc	ra,0x8
   169e8:	b30080e7          	jalr	-1232(ra) # 1e514 <memcpy>
   169ec:	02c10a13          	addi	s4,sp,44
   169f0:	02800613          	li	a2,40
   169f4:	8552                	mv	a0,s4
   169f6:	4581                	li	a1,0
   169f8:	00008097          	auipc	ra,0x8
   169fc:	ab0080e7          	jalr	-1360(ra) # 1e4a8 <memset>
   16a00:	8626                	mv	a2,s1
   16a02:	028105a3          	sb	s0,43(sp)
   16a06:	6509                	lui	a0,0x2
   16a08:	4491                	li	s1,4
   16a0a:	4591                	li	a1,4
   16a0c:	efa50793          	addi	a5,a0,-262 # 1efa <.Lline_table_start1+0x1ccf>
   16a10:	02a00693          	li	a3,42
   16a14:	4711                	li	a4,4
   16a16:	853e                	mv	a0,a5
   16a18:	00000073          	ecall
   16a1c:	00851863          	bne	a0,s0,16a2c <_ZN20complex_dynamic_type3app17ha4e4e182195f6b66E+0x6a>
   16a20:	4505                	li	a0,1
   16a22:	00aa8023          	sb	a0,0(s5)
   16a26:	00baa223          	sw	a1,4(s5)
   16a2a:	a0bd                	j	16a98 <_ZN20complex_dynamic_type3app17ha4e4e182195f6b66E+0xd6>
   16a2c:	853e                	mv	a0,a5
   16a2e:	8652                	mv	a2,s4
   16a30:	00910023          	sb	s1,0(sp)
   16a34:	478d                	li	a5,3
   16a36:	45a1                	li	a1,8
   16a38:	02800693          	li	a3,40
   16a3c:	470d                	li	a4,3
   16a3e:	00000073          	ecall
   16a42:	00851d63          	bne	a0,s0,16a5c <_ZN20complex_dynamic_type3app17ha4e4e182195f6b66E+0x9a>
   16a46:	02b14703          	lbu	a4,43(sp)
   16a4a:	4505                	li	a0,1
   16a4c:	4609                	li	a2,2
   16a4e:	00aa8023          	sb	a0,0(s5)
   16a52:	00baa223          	sw	a1,4(s5)
   16a56:	02c71963          	bne	a4,a2,16a88 <_ZN20complex_dynamic_type3app17ha4e4e182195f6b66E+0xc6>
   16a5a:	a83d                	j	16a98 <_ZN20complex_dynamic_type3app17ha4e4e182195f6b66E+0xd6>
   16a5c:	4681                	li	a3,0
   16a5e:	02f105a3          	sb	a5,43(sp)
   16a62:	6509                	lui	a0,0x2
   16a64:	4591                	li	a1,4
   16a66:	4621                	li	a2,8
   16a68:	4709                	li	a4,2
   16a6a:	efa50513          	addi	a0,a0,-262 # 1efa <.Lline_table_start1+0x1ccf>
   16a6e:	08000793          	li	a5,128
   16a72:	00000073          	ecall
   16a76:	4609                	li	a2,2
   16a78:	04f57663          	bgeu	a0,a5,16ac4 <_ZN20complex_dynamic_type3app17ha4e4e182195f6b66E+0x102>
   16a7c:	4505                	li	a0,1
   16a7e:	00aa8023          	sb	a0,0(s5)
   16a82:	00baa223          	sw	a1,4(s5)
   16a86:	470d                	li	a4,3
   16a88:	6509                	lui	a0,0x2
   16a8a:	efa50513          	addi	a0,a0,-262 # 1efa <.Lline_table_start1+0x1ccf>
   16a8e:	45a1                	li	a1,8
   16a90:	4601                	li	a2,0
   16a92:	4681                	li	a3,0
   16a94:	00000073          	ecall
   16a98:	00014703          	lbu	a4,0(sp)
   16a9c:	4509                	li	a0,2
   16a9e:	00a70a63          	beq	a4,a0,16ab2 <_ZN20complex_dynamic_type3app17ha4e4e182195f6b66E+0xf0>
   16aa2:	6509                	lui	a0,0x2
   16aa4:	efa50513          	addi	a0,a0,-262 # 1efa <.Lline_table_start1+0x1ccf>
   16aa8:	4591                	li	a1,4
   16aaa:	4601                	li	a2,0
   16aac:	4681                	li	a3,0
   16aae:	00000073          	ecall
   16ab2:	50b6                	lw	ra,108(sp)
   16ab4:	5426                	lw	s0,104(sp)
   16ab6:	5496                	lw	s1,100(sp)
   16ab8:	5906                	lw	s2,96(sp)
   16aba:	49f6                	lw	s3,92(sp)
   16abc:	4a66                	lw	s4,88(sp)
   16abe:	4ad6                	lw	s5,84(sp)
   16ac0:	6165                	addi	sp,sp,112
   16ac2:	8082                	ret
   16ac4:	00014703          	lbu	a4,0(sp)
   16ac8:	00c71463          	bne	a4,a2,16ad0 <_ZN20complex_dynamic_type3app17ha4e4e182195f6b66E+0x10e>
   16acc:	470d                	li	a4,3
   16ace:	a825                	j	16b06 <_ZN20complex_dynamic_type3app17ha4e4e182195f6b66E+0x144>
   16ad0:	6509                	lui	a0,0x2
   16ad2:	efa50513          	addi	a0,a0,-262 # 1efa <.Lline_table_start1+0x1ccf>
   16ad6:	4591                	li	a1,4
   16ad8:	4601                	li	a2,0
   16ada:	4681                	li	a3,0
   16adc:	00000073          	ecall
   16ae0:	02b14703          	lbu	a4,43(sp)
   16ae4:	4509                	li	a0,2
   16ae6:	00a10023          	sb	a0,0(sp)
   16aea:	00a71e63          	bne	a4,a0,16b06 <_ZN20complex_dynamic_type3app17ha4e4e182195f6b66E+0x144>
   16aee:	001a8513          	addi	a0,s5,1
   16af2:	02800613          	li	a2,40
   16af6:	85d2                	mv	a1,s4
   16af8:	00008097          	auipc	ra,0x8
   16afc:	a1c080e7          	jalr	-1508(ra) # 1e514 <memcpy>
   16b00:	000a8023          	sb	zero,0(s5)
   16b04:	b77d                	j	16ab2 <_ZN20complex_dynamic_type3app17ha4e4e182195f6b66E+0xf0>
   16b06:	6509                	lui	a0,0x2
   16b08:	efa50913          	addi	s2,a0,-262 # 1efa <.Lline_table_start1+0x1ccf>
   16b0c:	45a1                	li	a1,8
   16b0e:	854a                	mv	a0,s2
   16b10:	4601                	li	a2,0
   16b12:	4681                	li	a3,0
   16b14:	00000073          	ecall
   16b18:	00014983          	lbu	s3,0(sp)
   16b1c:	001a8513          	addi	a0,s5,1
   16b20:	02800613          	li	a2,40
   16b24:	85d2                	mv	a1,s4
   16b26:	00008097          	auipc	ra,0x8
   16b2a:	9ee080e7          	jalr	-1554(ra) # 1e514 <memcpy>
   16b2e:	4509                	li	a0,2
   16b30:	000a8023          	sb	zero,0(s5)
   16b34:	f6a98fe3          	beq	s3,a0,16ab2 <_ZN20complex_dynamic_type3app17ha4e4e182195f6b66E+0xf0>
   16b38:	4591                	li	a1,4
   16b3a:	854a                	mv	a0,s2
   16b3c:	4601                	li	a2,0
   16b3e:	4681                	li	a3,0
   16b40:	874e                	mv	a4,s3
   16b42:	00000073          	ecall
   16b46:	b7b5                	j	16ab2 <_ZN20complex_dynamic_type3app17ha4e4e182195f6b66E+0xf0>

00016b48 <_ZN20complex_dynamic_type3app17haa3eeeb06e37f7d0E>:
   16b48:	715d                	addi	sp,sp,-80
   16b4a:	c686                	sw	ra,76(sp)
   16b4c:	c4a2                	sw	s0,72(sp)
   16b4e:	c2a6                	sw	s1,68(sp)
   16b50:	c0ca                	sw	s2,64(sp)
   16b52:	de4e                	sw	s3,60(sp)
   16b54:	dc52                	sw	s4,56(sp)
   16b56:	8a2a                	mv	s4,a0
   16b58:	4409                	li	s0,2
   16b5a:	00810123          	sb	s0,2(sp)
   16b5e:	00310493          	addi	s1,sp,3
   16b62:	463d                	li	a2,15
   16b64:	8526                	mv	a0,s1
   16b66:	00008097          	auipc	ra,0x8
   16b6a:	9ae080e7          	jalr	-1618(ra) # 1e514 <memcpy>
   16b6e:	01310993          	addi	s3,sp,19
   16b72:	02500613          	li	a2,37
   16b76:	854e                	mv	a0,s3
   16b78:	4581                	li	a1,0
   16b7a:	00008097          	auipc	ra,0x8
   16b7e:	92e080e7          	jalr	-1746(ra) # 1e4a8 <memset>
   16b82:	8626                	mv	a2,s1
   16b84:	00810923          	sb	s0,18(sp)
   16b88:	4791                	li	a5,4
   16b8a:	0a200513          	li	a0,162
   16b8e:	45a1                	li	a1,8
   16b90:	46bd                	li	a3,15
   16b92:	4711                	li	a4,4
   16b94:	00000073          	ecall
   16b98:	00851863          	bne	a0,s0,16ba8 <_ZN20complex_dynamic_type3app17haa3eeeb06e37f7d0E+0x60>
   16b9c:	4505                	li	a0,1
   16b9e:	00aa0023          	sb	a0,0(s4)
   16ba2:	00ba2223          	sw	a1,4(s4)
   16ba6:	a0b5                	j	16c12 <_ZN20complex_dynamic_type3app17haa3eeeb06e37f7d0E+0xca>
   16ba8:	4581                	li	a1,0
   16baa:	864e                	mv	a2,s3
   16bac:	00f10123          	sb	a5,2(sp)
   16bb0:	478d                	li	a5,3
   16bb2:	0a200513          	li	a0,162
   16bb6:	02500693          	li	a3,37
   16bba:	470d                	li	a4,3
   16bbc:	00000073          	ecall
   16bc0:	00851d63          	bne	a0,s0,16bda <_ZN20complex_dynamic_type3app17haa3eeeb06e37f7d0E+0x92>
   16bc4:	01214703          	lbu	a4,18(sp)
   16bc8:	4505                	li	a0,1
   16bca:	4609                	li	a2,2
   16bcc:	00aa0023          	sb	a0,0(s4)
   16bd0:	00ba2223          	sw	a1,4(s4)
   16bd4:	02c71863          	bne	a4,a2,16c04 <_ZN20complex_dynamic_type3app17haa3eeeb06e37f7d0E+0xbc>
   16bd8:	a82d                	j	16c12 <_ZN20complex_dynamic_type3app17haa3eeeb06e37f7d0E+0xca>
   16bda:	4601                	li	a2,0
   16bdc:	4681                	li	a3,0
   16bde:	00f10923          	sb	a5,18(sp)
   16be2:	0a200513          	li	a0,162
   16be6:	45a1                	li	a1,8
   16be8:	4709                	li	a4,2
   16bea:	08000793          	li	a5,128
   16bee:	00000073          	ecall
   16bf2:	4609                	li	a2,2
   16bf4:	04f57363          	bgeu	a0,a5,16c3a <_ZN20complex_dynamic_type3app17haa3eeeb06e37f7d0E+0xf2>
   16bf8:	4505                	li	a0,1
   16bfa:	00aa0023          	sb	a0,0(s4)
   16bfe:	00ba2223          	sw	a1,4(s4)
   16c02:	470d                	li	a4,3
   16c04:	0a200513          	li	a0,162
   16c08:	4581                	li	a1,0
   16c0a:	4601                	li	a2,0
   16c0c:	4681                	li	a3,0
   16c0e:	00000073          	ecall
   16c12:	00214703          	lbu	a4,2(sp)
   16c16:	4509                	li	a0,2
   16c18:	00a70963          	beq	a4,a0,16c2a <_ZN20complex_dynamic_type3app17haa3eeeb06e37f7d0E+0xe2>
   16c1c:	0a200513          	li	a0,162
   16c20:	45a1                	li	a1,8
   16c22:	4601                	li	a2,0
   16c24:	4681                	li	a3,0
   16c26:	00000073          	ecall
   16c2a:	40b6                	lw	ra,76(sp)
   16c2c:	4426                	lw	s0,72(sp)
   16c2e:	4496                	lw	s1,68(sp)
   16c30:	4906                	lw	s2,64(sp)
   16c32:	59f2                	lw	s3,60(sp)
   16c34:	5a62                	lw	s4,56(sp)
   16c36:	6161                	addi	sp,sp,80
   16c38:	8082                	ret
   16c3a:	00214703          	lbu	a4,2(sp)
   16c3e:	00c71463          	bne	a4,a2,16c46 <_ZN20complex_dynamic_type3app17haa3eeeb06e37f7d0E+0xfe>
   16c42:	470d                	li	a4,3
   16c44:	a81d                	j	16c7a <_ZN20complex_dynamic_type3app17haa3eeeb06e37f7d0E+0x132>
   16c46:	0a200513          	li	a0,162
   16c4a:	45a1                	li	a1,8
   16c4c:	4601                	li	a2,0
   16c4e:	4681                	li	a3,0
   16c50:	00000073          	ecall
   16c54:	01214703          	lbu	a4,18(sp)
   16c58:	4509                	li	a0,2
   16c5a:	00a10123          	sb	a0,2(sp)
   16c5e:	00a71e63          	bne	a4,a0,16c7a <_ZN20complex_dynamic_type3app17haa3eeeb06e37f7d0E+0x132>
   16c62:	001a0513          	addi	a0,s4,1
   16c66:	02500613          	li	a2,37
   16c6a:	85ce                	mv	a1,s3
   16c6c:	00008097          	auipc	ra,0x8
   16c70:	8a8080e7          	jalr	-1880(ra) # 1e514 <memcpy>
   16c74:	000a0023          	sb	zero,0(s4)
   16c78:	bf4d                	j	16c2a <_ZN20complex_dynamic_type3app17haa3eeeb06e37f7d0E+0xe2>
   16c7a:	0a200513          	li	a0,162
   16c7e:	4581                	li	a1,0
   16c80:	4601                	li	a2,0
   16c82:	4681                	li	a3,0
   16c84:	00000073          	ecall
   16c88:	00214903          	lbu	s2,2(sp)
   16c8c:	001a0513          	addi	a0,s4,1
   16c90:	02500613          	li	a2,37
   16c94:	85ce                	mv	a1,s3
   16c96:	00008097          	auipc	ra,0x8
   16c9a:	87e080e7          	jalr	-1922(ra) # 1e514 <memcpy>
   16c9e:	4509                	li	a0,2
   16ca0:	000a0023          	sb	zero,0(s4)
   16ca4:	f8a903e3          	beq	s2,a0,16c2a <_ZN20complex_dynamic_type3app17haa3eeeb06e37f7d0E+0xe2>
   16ca8:	0a200513          	li	a0,162
   16cac:	45a1                	li	a1,8
   16cae:	4601                	li	a2,0
   16cb0:	4681                	li	a3,0
   16cb2:	874a                	mv	a4,s2
   16cb4:	00000073          	ecall
   16cb8:	bf8d                	j	16c2a <_ZN20complex_dynamic_type3app17haa3eeeb06e37f7d0E+0xe2>

00016cba <_ZN20complex_dynamic_type3app17hab05b484d57519e1E>:
   16cba:	7135                	addi	sp,sp,-160
   16cbc:	cf06                	sw	ra,156(sp)
   16cbe:	cd22                	sw	s0,152(sp)
   16cc0:	cb26                	sw	s1,148(sp)
   16cc2:	c94a                	sw	s2,144(sp)
   16cc4:	c74e                	sw	s3,140(sp)
   16cc6:	c552                	sw	s4,136(sp)
   16cc8:	8a2a                	mv	s4,a0
   16cca:	4409                	li	s0,2
   16ccc:	008103a3          	sb	s0,7(sp)
   16cd0:	0024                	addi	s1,sp,8
   16cd2:	06100613          	li	a2,97
   16cd6:	8526                	mv	a0,s1
   16cd8:	00008097          	auipc	ra,0x8
   16cdc:	83c080e7          	jalr	-1988(ra) # 1e514 <memcpy>
   16ce0:	06a10993          	addi	s3,sp,106
   16ce4:	4679                	li	a2,30
   16ce6:	854e                	mv	a0,s3
   16ce8:	4581                	li	a1,0
   16cea:	00007097          	auipc	ra,0x7
   16cee:	7be080e7          	jalr	1982(ra) # 1e4a8 <memset>
   16cf2:	8626                	mv	a2,s1
   16cf4:	068104a3          	sb	s0,105(sp)
   16cf8:	4791                	li	a5,4
   16cfa:	18800513          	li	a0,392
   16cfe:	4591                	li	a1,4
   16d00:	06100693          	li	a3,97
   16d04:	4711                	li	a4,4
   16d06:	00000073          	ecall
   16d0a:	00851863          	bne	a0,s0,16d1a <_ZN20complex_dynamic_type3app17hab05b484d57519e1E+0x60>
   16d0e:	4505                	li	a0,1
   16d10:	00aa0023          	sb	a0,0(s4)
   16d14:	00ba2223          	sw	a1,4(s4)
   16d18:	a0ad                	j	16d82 <_ZN20complex_dynamic_type3app17hab05b484d57519e1E+0xc8>
   16d1a:	864e                	mv	a2,s3
   16d1c:	00f103a3          	sb	a5,7(sp)
   16d20:	478d                	li	a5,3
   16d22:	18800513          	li	a0,392
   16d26:	4599                	li	a1,6
   16d28:	46f9                	li	a3,30
   16d2a:	470d                	li	a4,3
   16d2c:	00000073          	ecall
   16d30:	00851d63          	bne	a0,s0,16d4a <_ZN20complex_dynamic_type3app17hab05b484d57519e1E+0x90>
   16d34:	06914703          	lbu	a4,105(sp)
   16d38:	4505                	li	a0,1
   16d3a:	4609                	li	a2,2
   16d3c:	00aa0023          	sb	a0,0(s4)
   16d40:	00ba2223          	sw	a1,4(s4)
   16d44:	02c71863          	bne	a4,a2,16d74 <_ZN20complex_dynamic_type3app17hab05b484d57519e1E+0xba>
   16d48:	a82d                	j	16d82 <_ZN20complex_dynamic_type3app17hab05b484d57519e1E+0xc8>
   16d4a:	4681                	li	a3,0
   16d4c:	06f104a3          	sb	a5,105(sp)
   16d50:	18800513          	li	a0,392
   16d54:	4591                	li	a1,4
   16d56:	4619                	li	a2,6
   16d58:	4709                	li	a4,2
   16d5a:	08000793          	li	a5,128
   16d5e:	00000073          	ecall
   16d62:	4609                	li	a2,2
   16d64:	04f57363          	bgeu	a0,a5,16daa <_ZN20complex_dynamic_type3app17hab05b484d57519e1E+0xf0>
   16d68:	4505                	li	a0,1
   16d6a:	00aa0023          	sb	a0,0(s4)
   16d6e:	00ba2223          	sw	a1,4(s4)
   16d72:	470d                	li	a4,3
   16d74:	18800513          	li	a0,392
   16d78:	4599                	li	a1,6
   16d7a:	4601                	li	a2,0
   16d7c:	4681                	li	a3,0
   16d7e:	00000073          	ecall
   16d82:	00714703          	lbu	a4,7(sp)
   16d86:	4509                	li	a0,2
   16d88:	00a70963          	beq	a4,a0,16d9a <_ZN20complex_dynamic_type3app17hab05b484d57519e1E+0xe0>
   16d8c:	18800513          	li	a0,392
   16d90:	4591                	li	a1,4
   16d92:	4601                	li	a2,0
   16d94:	4681                	li	a3,0
   16d96:	00000073          	ecall
   16d9a:	40fa                	lw	ra,156(sp)
   16d9c:	446a                	lw	s0,152(sp)
   16d9e:	44da                	lw	s1,148(sp)
   16da0:	494a                	lw	s2,144(sp)
   16da2:	49ba                	lw	s3,140(sp)
   16da4:	4a2a                	lw	s4,136(sp)
   16da6:	610d                	addi	sp,sp,160
   16da8:	8082                	ret
   16daa:	00714703          	lbu	a4,7(sp)
   16dae:	00c71463          	bne	a4,a2,16db6 <_ZN20complex_dynamic_type3app17hab05b484d57519e1E+0xfc>
   16db2:	470d                	li	a4,3
   16db4:	a815                	j	16de8 <_ZN20complex_dynamic_type3app17hab05b484d57519e1E+0x12e>
   16db6:	18800513          	li	a0,392
   16dba:	4591                	li	a1,4
   16dbc:	4601                	li	a2,0
   16dbe:	4681                	li	a3,0
   16dc0:	00000073          	ecall
   16dc4:	06914703          	lbu	a4,105(sp)
   16dc8:	4509                	li	a0,2
   16dca:	00a103a3          	sb	a0,7(sp)
   16dce:	00a71d63          	bne	a4,a0,16de8 <_ZN20complex_dynamic_type3app17hab05b484d57519e1E+0x12e>
   16dd2:	001a0513          	addi	a0,s4,1
   16dd6:	4679                	li	a2,30
   16dd8:	85ce                	mv	a1,s3
   16dda:	00007097          	auipc	ra,0x7
   16dde:	73a080e7          	jalr	1850(ra) # 1e514 <memcpy>
   16de2:	000a0023          	sb	zero,0(s4)
   16de6:	bf55                	j	16d9a <_ZN20complex_dynamic_type3app17hab05b484d57519e1E+0xe0>
   16de8:	18800513          	li	a0,392
   16dec:	4599                	li	a1,6
   16dee:	4601                	li	a2,0
   16df0:	4681                	li	a3,0
   16df2:	00000073          	ecall
   16df6:	00714903          	lbu	s2,7(sp)
   16dfa:	001a0513          	addi	a0,s4,1
   16dfe:	4679                	li	a2,30
   16e00:	85ce                	mv	a1,s3
   16e02:	00007097          	auipc	ra,0x7
   16e06:	712080e7          	jalr	1810(ra) # 1e514 <memcpy>
   16e0a:	4509                	li	a0,2
   16e0c:	000a0023          	sb	zero,0(s4)
   16e10:	f8a905e3          	beq	s2,a0,16d9a <_ZN20complex_dynamic_type3app17hab05b484d57519e1E+0xe0>
   16e14:	18800513          	li	a0,392
   16e18:	4591                	li	a1,4
   16e1a:	4601                	li	a2,0
   16e1c:	4681                	li	a3,0
   16e1e:	874a                	mv	a4,s2
   16e20:	00000073          	ecall
   16e24:	bf9d                	j	16d9a <_ZN20complex_dynamic_type3app17hab05b484d57519e1E+0xe0>

00016e26 <_ZN20complex_dynamic_type3app17had988e6d148fe6feE>:
   16e26:	7155                	addi	sp,sp,-208
   16e28:	c786                	sw	ra,204(sp)
   16e2a:	c5a2                	sw	s0,200(sp)
   16e2c:	c3a6                	sw	s1,196(sp)
   16e2e:	c1ca                	sw	s2,192(sp)
   16e30:	df4e                	sw	s3,188(sp)
   16e32:	dd52                	sw	s4,184(sp)
   16e34:	8a2a                	mv	s4,a0
   16e36:	4409                	li	s0,2
   16e38:	00810323          	sb	s0,6(sp)
   16e3c:	00710493          	addi	s1,sp,7
   16e40:	04f00613          	li	a2,79
   16e44:	8526                	mv	a0,s1
   16e46:	00007097          	auipc	ra,0x7
   16e4a:	6ce080e7          	jalr	1742(ra) # 1e514 <memcpy>
   16e4e:	05710993          	addi	s3,sp,87
   16e52:	06100613          	li	a2,97
   16e56:	854e                	mv	a0,s3
   16e58:	4581                	li	a1,0
   16e5a:	00007097          	auipc	ra,0x7
   16e5e:	64e080e7          	jalr	1614(ra) # 1e4a8 <memset>
   16e62:	8626                	mv	a2,s1
   16e64:	04810b23          	sb	s0,86(sp)
   16e68:	4791                	li	a5,4
   16e6a:	1b600513          	li	a0,438
   16e6e:	4589                	li	a1,2
   16e70:	04f00693          	li	a3,79
   16e74:	4711                	li	a4,4
   16e76:	00000073          	ecall
   16e7a:	00851863          	bne	a0,s0,16e8a <_ZN20complex_dynamic_type3app17had988e6d148fe6feE+0x64>
   16e7e:	4505                	li	a0,1
   16e80:	00aa0023          	sb	a0,0(s4)
   16e84:	00ba2223          	sw	a1,4(s4)
   16e88:	a0b5                	j	16ef4 <_ZN20complex_dynamic_type3app17had988e6d148fe6feE+0xce>
   16e8a:	864e                	mv	a2,s3
   16e8c:	00f10323          	sb	a5,6(sp)
   16e90:	478d                	li	a5,3
   16e92:	1b600513          	li	a0,438
   16e96:	45a1                	li	a1,8
   16e98:	06100693          	li	a3,97
   16e9c:	470d                	li	a4,3
   16e9e:	00000073          	ecall
   16ea2:	00851d63          	bne	a0,s0,16ebc <_ZN20complex_dynamic_type3app17had988e6d148fe6feE+0x96>
   16ea6:	05614703          	lbu	a4,86(sp)
   16eaa:	4505                	li	a0,1
   16eac:	4609                	li	a2,2
   16eae:	00aa0023          	sb	a0,0(s4)
   16eb2:	00ba2223          	sw	a1,4(s4)
   16eb6:	02c71863          	bne	a4,a2,16ee6 <_ZN20complex_dynamic_type3app17had988e6d148fe6feE+0xc0>
   16eba:	a82d                	j	16ef4 <_ZN20complex_dynamic_type3app17had988e6d148fe6feE+0xce>
   16ebc:	4681                	li	a3,0
   16ebe:	04f10b23          	sb	a5,86(sp)
   16ec2:	1b600513          	li	a0,438
   16ec6:	4589                	li	a1,2
   16ec8:	4621                	li	a2,8
   16eca:	4709                	li	a4,2
   16ecc:	08000793          	li	a5,128
   16ed0:	00000073          	ecall
   16ed4:	4609                	li	a2,2
   16ed6:	04f57363          	bgeu	a0,a5,16f1c <_ZN20complex_dynamic_type3app17had988e6d148fe6feE+0xf6>
   16eda:	4505                	li	a0,1
   16edc:	00aa0023          	sb	a0,0(s4)
   16ee0:	00ba2223          	sw	a1,4(s4)
   16ee4:	470d                	li	a4,3
   16ee6:	1b600513          	li	a0,438
   16eea:	45a1                	li	a1,8
   16eec:	4601                	li	a2,0
   16eee:	4681                	li	a3,0
   16ef0:	00000073          	ecall
   16ef4:	00614703          	lbu	a4,6(sp)
   16ef8:	4509                	li	a0,2
   16efa:	00a70963          	beq	a4,a0,16f0c <_ZN20complex_dynamic_type3app17had988e6d148fe6feE+0xe6>
   16efe:	1b600513          	li	a0,438
   16f02:	4589                	li	a1,2
   16f04:	4601                	li	a2,0
   16f06:	4681                	li	a3,0
   16f08:	00000073          	ecall
   16f0c:	40be                	lw	ra,204(sp)
   16f0e:	442e                	lw	s0,200(sp)
   16f10:	449e                	lw	s1,196(sp)
   16f12:	490e                	lw	s2,192(sp)
   16f14:	59fa                	lw	s3,188(sp)
   16f16:	5a6a                	lw	s4,184(sp)
   16f18:	6169                	addi	sp,sp,208
   16f1a:	8082                	ret
   16f1c:	00614703          	lbu	a4,6(sp)
   16f20:	00c71463          	bne	a4,a2,16f28 <_ZN20complex_dynamic_type3app17had988e6d148fe6feE+0x102>
   16f24:	470d                	li	a4,3
   16f26:	a81d                	j	16f5c <_ZN20complex_dynamic_type3app17had988e6d148fe6feE+0x136>
   16f28:	1b600513          	li	a0,438
   16f2c:	4589                	li	a1,2
   16f2e:	4601                	li	a2,0
   16f30:	4681                	li	a3,0
   16f32:	00000073          	ecall
   16f36:	05614703          	lbu	a4,86(sp)
   16f3a:	4509                	li	a0,2
   16f3c:	00a10323          	sb	a0,6(sp)
   16f40:	00a71e63          	bne	a4,a0,16f5c <_ZN20complex_dynamic_type3app17had988e6d148fe6feE+0x136>
   16f44:	001a0513          	addi	a0,s4,1
   16f48:	06100613          	li	a2,97
   16f4c:	85ce                	mv	a1,s3
   16f4e:	00007097          	auipc	ra,0x7
   16f52:	5c6080e7          	jalr	1478(ra) # 1e514 <memcpy>
   16f56:	000a0023          	sb	zero,0(s4)
   16f5a:	bf4d                	j	16f0c <_ZN20complex_dynamic_type3app17had988e6d148fe6feE+0xe6>
   16f5c:	1b600513          	li	a0,438
   16f60:	45a1                	li	a1,8
   16f62:	4601                	li	a2,0
   16f64:	4681                	li	a3,0
   16f66:	00000073          	ecall
   16f6a:	00614903          	lbu	s2,6(sp)
   16f6e:	001a0513          	addi	a0,s4,1
   16f72:	06100613          	li	a2,97
   16f76:	85ce                	mv	a1,s3
   16f78:	00007097          	auipc	ra,0x7
   16f7c:	59c080e7          	jalr	1436(ra) # 1e514 <memcpy>
   16f80:	4509                	li	a0,2
   16f82:	000a0023          	sb	zero,0(s4)
   16f86:	f8a903e3          	beq	s2,a0,16f0c <_ZN20complex_dynamic_type3app17had988e6d148fe6feE+0xe6>
   16f8a:	1b600513          	li	a0,438
   16f8e:	4589                	li	a1,2
   16f90:	4601                	li	a2,0
   16f92:	4681                	li	a3,0
   16f94:	874a                	mv	a4,s2
   16f96:	00000073          	ecall
   16f9a:	bf8d                	j	16f0c <_ZN20complex_dynamic_type3app17had988e6d148fe6feE+0xe6>

00016f9c <_ZN20complex_dynamic_type3app17hae9f62c76944900bE>:
   16f9c:	7131                	addi	sp,sp,-192
   16f9e:	df06                	sw	ra,188(sp)
   16fa0:	dd22                	sw	s0,184(sp)
   16fa2:	db26                	sw	s1,180(sp)
   16fa4:	d94a                	sw	s2,176(sp)
   16fa6:	d74e                	sw	s3,172(sp)
   16fa8:	d552                	sw	s4,168(sp)
   16faa:	d356                	sw	s5,164(sp)
   16fac:	8aaa                	mv	s5,a0
   16fae:	4409                	li	s0,2
   16fb0:	008101a3          	sb	s0,3(sp)
   16fb4:	0044                	addi	s1,sp,4
   16fb6:	05600613          	li	a2,86
   16fba:	8526                	mv	a0,s1
   16fbc:	00007097          	auipc	ra,0x7
   16fc0:	558080e7          	jalr	1368(ra) # 1e514 <memcpy>
   16fc4:	05b10a13          	addi	s4,sp,91
   16fc8:	04900613          	li	a2,73
   16fcc:	8552                	mv	a0,s4
   16fce:	4581                	li	a1,0
   16fd0:	00007097          	auipc	ra,0x7
   16fd4:	4d8080e7          	jalr	1240(ra) # 1e4a8 <memset>
   16fd8:	8626                	mv	a2,s1
   16fda:	04810d23          	sb	s0,90(sp)
   16fde:	6509                	lui	a0,0x2
   16fe0:	4491                	li	s1,4
   16fe2:	4599                	li	a1,6
   16fe4:	c6b50793          	addi	a5,a0,-917 # 1c6b <.Lline_table_start1+0x1a40>
   16fe8:	05600693          	li	a3,86
   16fec:	4711                	li	a4,4
   16fee:	853e                	mv	a0,a5
   16ff0:	00000073          	ecall
   16ff4:	00851863          	bne	a0,s0,17004 <_ZN20complex_dynamic_type3app17hae9f62c76944900bE+0x68>
   16ff8:	4505                	li	a0,1
   16ffa:	00aa8023          	sb	a0,0(s5)
   16ffe:	00baa223          	sw	a1,4(s5)
   17002:	a0bd                	j	17070 <_ZN20complex_dynamic_type3app17hae9f62c76944900bE+0xd4>
   17004:	853e                	mv	a0,a5
   17006:	8652                	mv	a2,s4
   17008:	009101a3          	sb	s1,3(sp)
   1700c:	478d                	li	a5,3
   1700e:	4599                	li	a1,6
   17010:	04900693          	li	a3,73
   17014:	470d                	li	a4,3
   17016:	00000073          	ecall
   1701a:	00851d63          	bne	a0,s0,17034 <_ZN20complex_dynamic_type3app17hae9f62c76944900bE+0x98>
   1701e:	05a14703          	lbu	a4,90(sp)
   17022:	4505                	li	a0,1
   17024:	4609                	li	a2,2
   17026:	00aa8023          	sb	a0,0(s5)
   1702a:	00baa223          	sw	a1,4(s5)
   1702e:	02c71963          	bne	a4,a2,17060 <_ZN20complex_dynamic_type3app17hae9f62c76944900bE+0xc4>
   17032:	a83d                	j	17070 <_ZN20complex_dynamic_type3app17hae9f62c76944900bE+0xd4>
   17034:	4681                	li	a3,0
   17036:	04f10d23          	sb	a5,90(sp)
   1703a:	6509                	lui	a0,0x2
   1703c:	4599                	li	a1,6
   1703e:	4619                	li	a2,6
   17040:	4709                	li	a4,2
   17042:	c6b50513          	addi	a0,a0,-917 # 1c6b <.Lline_table_start1+0x1a40>
   17046:	08000793          	li	a5,128
   1704a:	00000073          	ecall
   1704e:	4609                	li	a2,2
   17050:	04f57663          	bgeu	a0,a5,1709c <_ZN20complex_dynamic_type3app17hae9f62c76944900bE+0x100>
   17054:	4505                	li	a0,1
   17056:	00aa8023          	sb	a0,0(s5)
   1705a:	00baa223          	sw	a1,4(s5)
   1705e:	470d                	li	a4,3
   17060:	6509                	lui	a0,0x2
   17062:	c6b50513          	addi	a0,a0,-917 # 1c6b <.Lline_table_start1+0x1a40>
   17066:	4599                	li	a1,6
   17068:	4601                	li	a2,0
   1706a:	4681                	li	a3,0
   1706c:	00000073          	ecall
   17070:	00314703          	lbu	a4,3(sp)
   17074:	4509                	li	a0,2
   17076:	00a70a63          	beq	a4,a0,1708a <_ZN20complex_dynamic_type3app17hae9f62c76944900bE+0xee>
   1707a:	6509                	lui	a0,0x2
   1707c:	c6b50513          	addi	a0,a0,-917 # 1c6b <.Lline_table_start1+0x1a40>
   17080:	4599                	li	a1,6
   17082:	4601                	li	a2,0
   17084:	4681                	li	a3,0
   17086:	00000073          	ecall
   1708a:	50fa                	lw	ra,188(sp)
   1708c:	546a                	lw	s0,184(sp)
   1708e:	54da                	lw	s1,180(sp)
   17090:	594a                	lw	s2,176(sp)
   17092:	59ba                	lw	s3,172(sp)
   17094:	5a2a                	lw	s4,168(sp)
   17096:	5a9a                	lw	s5,164(sp)
   17098:	6129                	addi	sp,sp,192
   1709a:	8082                	ret
   1709c:	00314703          	lbu	a4,3(sp)
   170a0:	00c71463          	bne	a4,a2,170a8 <_ZN20complex_dynamic_type3app17hae9f62c76944900bE+0x10c>
   170a4:	470d                	li	a4,3
   170a6:	a825                	j	170de <_ZN20complex_dynamic_type3app17hae9f62c76944900bE+0x142>
   170a8:	6509                	lui	a0,0x2
   170aa:	c6b50513          	addi	a0,a0,-917 # 1c6b <.Lline_table_start1+0x1a40>
   170ae:	4599                	li	a1,6
   170b0:	4601                	li	a2,0
   170b2:	4681                	li	a3,0
   170b4:	00000073          	ecall
   170b8:	05a14703          	lbu	a4,90(sp)
   170bc:	4509                	li	a0,2
   170be:	00a101a3          	sb	a0,3(sp)
   170c2:	00a71e63          	bne	a4,a0,170de <_ZN20complex_dynamic_type3app17hae9f62c76944900bE+0x142>
   170c6:	001a8513          	addi	a0,s5,1
   170ca:	04900613          	li	a2,73
   170ce:	85d2                	mv	a1,s4
   170d0:	00007097          	auipc	ra,0x7
   170d4:	444080e7          	jalr	1092(ra) # 1e514 <memcpy>
   170d8:	000a8023          	sb	zero,0(s5)
   170dc:	b77d                	j	1708a <_ZN20complex_dynamic_type3app17hae9f62c76944900bE+0xee>
   170de:	6509                	lui	a0,0x2
   170e0:	c6b50913          	addi	s2,a0,-917 # 1c6b <.Lline_table_start1+0x1a40>
   170e4:	4599                	li	a1,6
   170e6:	854a                	mv	a0,s2
   170e8:	4601                	li	a2,0
   170ea:	4681                	li	a3,0
   170ec:	00000073          	ecall
   170f0:	00314983          	lbu	s3,3(sp)
   170f4:	001a8513          	addi	a0,s5,1
   170f8:	04900613          	li	a2,73
   170fc:	85d2                	mv	a1,s4
   170fe:	00007097          	auipc	ra,0x7
   17102:	416080e7          	jalr	1046(ra) # 1e514 <memcpy>
   17106:	4509                	li	a0,2
   17108:	000a8023          	sb	zero,0(s5)
   1710c:	f6a98fe3          	beq	s3,a0,1708a <_ZN20complex_dynamic_type3app17hae9f62c76944900bE+0xee>
   17110:	4599                	li	a1,6
   17112:	854a                	mv	a0,s2
   17114:	4601                	li	a2,0
   17116:	4681                	li	a3,0
   17118:	874e                	mv	a4,s3
   1711a:	00000073          	ecall
   1711e:	b7b5                	j	1708a <_ZN20complex_dynamic_type3app17hae9f62c76944900bE+0xee>

00017120 <_ZN20complex_dynamic_type3app17hb58345328837f57eE>:
   17120:	711d                	addi	sp,sp,-96
   17122:	ce86                	sw	ra,92(sp)
   17124:	cca2                	sw	s0,88(sp)
   17126:	caa6                	sw	s1,84(sp)
   17128:	c8ca                	sw	s2,80(sp)
   1712a:	c6ce                	sw	s3,76(sp)
   1712c:	c4d2                	sw	s4,72(sp)
   1712e:	c2d6                	sw	s5,68(sp)
   17130:	8aaa                	mv	s5,a0
   17132:	4409                	li	s0,2
   17134:	00810623          	sb	s0,12(sp)
   17138:	00d10493          	addi	s1,sp,13
   1713c:	4661                	li	a2,24
   1713e:	8526                	mv	a0,s1
   17140:	00007097          	auipc	ra,0x7
   17144:	3d4080e7          	jalr	980(ra) # 1e514 <memcpy>
   17148:	02610a13          	addi	s4,sp,38
   1714c:	4679                	li	a2,30
   1714e:	8552                	mv	a0,s4
   17150:	4581                	li	a1,0
   17152:	00007097          	auipc	ra,0x7
   17156:	356080e7          	jalr	854(ra) # 1e4a8 <memset>
   1715a:	8626                	mv	a2,s1
   1715c:	028102a3          	sb	s0,37(sp)
   17160:	6505                	lui	a0,0x1
   17162:	4491                	li	s1,4
   17164:	45a5                	li	a1,9
   17166:	cbb50793          	addi	a5,a0,-837 # cbb <.Lline_table_start1+0xa90>
   1716a:	46e1                	li	a3,24
   1716c:	4711                	li	a4,4
   1716e:	853e                	mv	a0,a5
   17170:	00000073          	ecall
   17174:	00851863          	bne	a0,s0,17184 <_ZN20complex_dynamic_type3app17hb58345328837f57eE+0x64>
   17178:	4505                	li	a0,1
   1717a:	00aa8023          	sb	a0,0(s5)
   1717e:	00baa223          	sw	a1,4(s5)
   17182:	a0b5                	j	171ee <_ZN20complex_dynamic_type3app17hb58345328837f57eE+0xce>
   17184:	853e                	mv	a0,a5
   17186:	8652                	mv	a2,s4
   17188:	00910623          	sb	s1,12(sp)
   1718c:	478d                	li	a5,3
   1718e:	4595                	li	a1,5
   17190:	46f9                	li	a3,30
   17192:	470d                	li	a4,3
   17194:	00000073          	ecall
   17198:	00851d63          	bne	a0,s0,171b2 <_ZN20complex_dynamic_type3app17hb58345328837f57eE+0x92>
   1719c:	02514703          	lbu	a4,37(sp)
   171a0:	4505                	li	a0,1
   171a2:	4609                	li	a2,2
   171a4:	00aa8023          	sb	a0,0(s5)
   171a8:	00baa223          	sw	a1,4(s5)
   171ac:	02c71963          	bne	a4,a2,171de <_ZN20complex_dynamic_type3app17hb58345328837f57eE+0xbe>
   171b0:	a83d                	j	171ee <_ZN20complex_dynamic_type3app17hb58345328837f57eE+0xce>
   171b2:	4681                	li	a3,0
   171b4:	02f102a3          	sb	a5,37(sp)
   171b8:	6505                	lui	a0,0x1
   171ba:	45a5                	li	a1,9
   171bc:	4615                	li	a2,5
   171be:	4709                	li	a4,2
   171c0:	cbb50513          	addi	a0,a0,-837 # cbb <.Lline_table_start1+0xa90>
   171c4:	08000793          	li	a5,128
   171c8:	00000073          	ecall
   171cc:	4609                	li	a2,2
   171ce:	04f57663          	bgeu	a0,a5,1721a <_ZN20complex_dynamic_type3app17hb58345328837f57eE+0xfa>
   171d2:	4505                	li	a0,1
   171d4:	00aa8023          	sb	a0,0(s5)
   171d8:	00baa223          	sw	a1,4(s5)
   171dc:	470d                	li	a4,3
   171de:	6505                	lui	a0,0x1
   171e0:	cbb50513          	addi	a0,a0,-837 # cbb <.Lline_table_start1+0xa90>
   171e4:	4595                	li	a1,5
   171e6:	4601                	li	a2,0
   171e8:	4681                	li	a3,0
   171ea:	00000073          	ecall
   171ee:	00c14703          	lbu	a4,12(sp)
   171f2:	4509                	li	a0,2
   171f4:	00a70a63          	beq	a4,a0,17208 <_ZN20complex_dynamic_type3app17hb58345328837f57eE+0xe8>
   171f8:	6505                	lui	a0,0x1
   171fa:	cbb50513          	addi	a0,a0,-837 # cbb <.Lline_table_start1+0xa90>
   171fe:	45a5                	li	a1,9
   17200:	4601                	li	a2,0
   17202:	4681                	li	a3,0
   17204:	00000073          	ecall
   17208:	40f6                	lw	ra,92(sp)
   1720a:	4466                	lw	s0,88(sp)
   1720c:	44d6                	lw	s1,84(sp)
   1720e:	4946                	lw	s2,80(sp)
   17210:	49b6                	lw	s3,76(sp)
   17212:	4a26                	lw	s4,72(sp)
   17214:	4a96                	lw	s5,68(sp)
   17216:	6125                	addi	sp,sp,96
   17218:	8082                	ret
   1721a:	00c14703          	lbu	a4,12(sp)
   1721e:	00c71463          	bne	a4,a2,17226 <_ZN20complex_dynamic_type3app17hb58345328837f57eE+0x106>
   17222:	470d                	li	a4,3
   17224:	a81d                	j	1725a <_ZN20complex_dynamic_type3app17hb58345328837f57eE+0x13a>
   17226:	6505                	lui	a0,0x1
   17228:	cbb50513          	addi	a0,a0,-837 # cbb <.Lline_table_start1+0xa90>
   1722c:	45a5                	li	a1,9
   1722e:	4601                	li	a2,0
   17230:	4681                	li	a3,0
   17232:	00000073          	ecall
   17236:	02514703          	lbu	a4,37(sp)
   1723a:	4509                	li	a0,2
   1723c:	00a10623          	sb	a0,12(sp)
   17240:	00a71d63          	bne	a4,a0,1725a <_ZN20complex_dynamic_type3app17hb58345328837f57eE+0x13a>
   17244:	001a8513          	addi	a0,s5,1
   17248:	4679                	li	a2,30
   1724a:	85d2                	mv	a1,s4
   1724c:	00007097          	auipc	ra,0x7
   17250:	2c8080e7          	jalr	712(ra) # 1e514 <memcpy>
   17254:	000a8023          	sb	zero,0(s5)
   17258:	bf45                	j	17208 <_ZN20complex_dynamic_type3app17hb58345328837f57eE+0xe8>
   1725a:	6505                	lui	a0,0x1
   1725c:	cbb50913          	addi	s2,a0,-837 # cbb <.Lline_table_start1+0xa90>
   17260:	4595                	li	a1,5
   17262:	854a                	mv	a0,s2
   17264:	4601                	li	a2,0
   17266:	4681                	li	a3,0
   17268:	00000073          	ecall
   1726c:	00c14983          	lbu	s3,12(sp)
   17270:	001a8513          	addi	a0,s5,1
   17274:	4679                	li	a2,30
   17276:	85d2                	mv	a1,s4
   17278:	00007097          	auipc	ra,0x7
   1727c:	29c080e7          	jalr	668(ra) # 1e514 <memcpy>
   17280:	4509                	li	a0,2
   17282:	000a8023          	sb	zero,0(s5)
   17286:	f8a981e3          	beq	s3,a0,17208 <_ZN20complex_dynamic_type3app17hb58345328837f57eE+0xe8>
   1728a:	45a5                	li	a1,9
   1728c:	854a                	mv	a0,s2
   1728e:	4601                	li	a2,0
   17290:	4681                	li	a3,0
   17292:	874e                	mv	a4,s3
   17294:	00000073          	ecall
   17298:	bf85                	j	17208 <_ZN20complex_dynamic_type3app17hb58345328837f57eE+0xe8>

0001729a <_ZN20complex_dynamic_type3app17hb60c8335373029afE>:
   1729a:	7119                	addi	sp,sp,-128
   1729c:	de86                	sw	ra,124(sp)
   1729e:	dca2                	sw	s0,120(sp)
   172a0:	daa6                	sw	s1,116(sp)
   172a2:	d8ca                	sw	s2,112(sp)
   172a4:	d6ce                	sw	s3,108(sp)
   172a6:	d4d2                	sw	s4,104(sp)
   172a8:	d2d6                	sw	s5,100(sp)
   172aa:	8aaa                	mv	s5,a0
   172ac:	4409                	li	s0,2
   172ae:	008105a3          	sb	s0,11(sp)
   172b2:	0064                	addi	s1,sp,12
   172b4:	04800613          	li	a2,72
   172b8:	8526                	mv	a0,s1
   172ba:	00007097          	auipc	ra,0x7
   172be:	25a080e7          	jalr	602(ra) # 1e514 <memcpy>
   172c2:	05510a13          	addi	s4,sp,85
   172c6:	463d                	li	a2,15
   172c8:	8552                	mv	a0,s4
   172ca:	4581                	li	a1,0
   172cc:	00007097          	auipc	ra,0x7
   172d0:	1dc080e7          	jalr	476(ra) # 1e4a8 <memset>
   172d4:	8626                	mv	a2,s1
   172d6:	04810a23          	sb	s0,84(sp)
   172da:	6505                	lui	a0,0x1
   172dc:	4491                	li	s1,4
   172de:	45a1                	li	a1,8
   172e0:	11d50793          	addi	a5,a0,285 # 111d <.Lline_table_start1+0xef2>
   172e4:	04800693          	li	a3,72
   172e8:	4711                	li	a4,4
   172ea:	853e                	mv	a0,a5
   172ec:	00000073          	ecall
   172f0:	00851863          	bne	a0,s0,17300 <_ZN20complex_dynamic_type3app17hb60c8335373029afE+0x66>
   172f4:	4505                	li	a0,1
   172f6:	00aa8023          	sb	a0,0(s5)
   172fa:	00baa223          	sw	a1,4(s5)
   172fe:	a0b5                	j	1736a <_ZN20complex_dynamic_type3app17hb60c8335373029afE+0xd0>
   17300:	853e                	mv	a0,a5
   17302:	8652                	mv	a2,s4
   17304:	009105a3          	sb	s1,11(sp)
   17308:	478d                	li	a5,3
   1730a:	45a5                	li	a1,9
   1730c:	46bd                	li	a3,15
   1730e:	470d                	li	a4,3
   17310:	00000073          	ecall
   17314:	00851d63          	bne	a0,s0,1732e <_ZN20complex_dynamic_type3app17hb60c8335373029afE+0x94>
   17318:	05414703          	lbu	a4,84(sp)
   1731c:	4505                	li	a0,1
   1731e:	4609                	li	a2,2
   17320:	00aa8023          	sb	a0,0(s5)
   17324:	00baa223          	sw	a1,4(s5)
   17328:	02c71963          	bne	a4,a2,1735a <_ZN20complex_dynamic_type3app17hb60c8335373029afE+0xc0>
   1732c:	a83d                	j	1736a <_ZN20complex_dynamic_type3app17hb60c8335373029afE+0xd0>
   1732e:	4681                	li	a3,0
   17330:	04f10a23          	sb	a5,84(sp)
   17334:	6505                	lui	a0,0x1
   17336:	45a1                	li	a1,8
   17338:	4625                	li	a2,9
   1733a:	4709                	li	a4,2
   1733c:	11d50513          	addi	a0,a0,285 # 111d <.Lline_table_start1+0xef2>
   17340:	08000793          	li	a5,128
   17344:	00000073          	ecall
   17348:	4609                	li	a2,2
   1734a:	04f57663          	bgeu	a0,a5,17396 <_ZN20complex_dynamic_type3app17hb60c8335373029afE+0xfc>
   1734e:	4505                	li	a0,1
   17350:	00aa8023          	sb	a0,0(s5)
   17354:	00baa223          	sw	a1,4(s5)
   17358:	470d                	li	a4,3
   1735a:	6505                	lui	a0,0x1
   1735c:	11d50513          	addi	a0,a0,285 # 111d <.Lline_table_start1+0xef2>
   17360:	45a5                	li	a1,9
   17362:	4601                	li	a2,0
   17364:	4681                	li	a3,0
   17366:	00000073          	ecall
   1736a:	00b14703          	lbu	a4,11(sp)
   1736e:	4509                	li	a0,2
   17370:	00a70a63          	beq	a4,a0,17384 <_ZN20complex_dynamic_type3app17hb60c8335373029afE+0xea>
   17374:	6505                	lui	a0,0x1
   17376:	11d50513          	addi	a0,a0,285 # 111d <.Lline_table_start1+0xef2>
   1737a:	45a1                	li	a1,8
   1737c:	4601                	li	a2,0
   1737e:	4681                	li	a3,0
   17380:	00000073          	ecall
   17384:	50f6                	lw	ra,124(sp)
   17386:	5466                	lw	s0,120(sp)
   17388:	54d6                	lw	s1,116(sp)
   1738a:	5946                	lw	s2,112(sp)
   1738c:	59b6                	lw	s3,108(sp)
   1738e:	5a26                	lw	s4,104(sp)
   17390:	5a96                	lw	s5,100(sp)
   17392:	6109                	addi	sp,sp,128
   17394:	8082                	ret
   17396:	00b14703          	lbu	a4,11(sp)
   1739a:	00c71463          	bne	a4,a2,173a2 <_ZN20complex_dynamic_type3app17hb60c8335373029afE+0x108>
   1739e:	470d                	li	a4,3
   173a0:	a81d                	j	173d6 <_ZN20complex_dynamic_type3app17hb60c8335373029afE+0x13c>
   173a2:	6505                	lui	a0,0x1
   173a4:	11d50513          	addi	a0,a0,285 # 111d <.Lline_table_start1+0xef2>
   173a8:	45a1                	li	a1,8
   173aa:	4601                	li	a2,0
   173ac:	4681                	li	a3,0
   173ae:	00000073          	ecall
   173b2:	05414703          	lbu	a4,84(sp)
   173b6:	4509                	li	a0,2
   173b8:	00a105a3          	sb	a0,11(sp)
   173bc:	00a71d63          	bne	a4,a0,173d6 <_ZN20complex_dynamic_type3app17hb60c8335373029afE+0x13c>
   173c0:	001a8513          	addi	a0,s5,1
   173c4:	463d                	li	a2,15
   173c6:	85d2                	mv	a1,s4
   173c8:	00007097          	auipc	ra,0x7
   173cc:	14c080e7          	jalr	332(ra) # 1e514 <memcpy>
   173d0:	000a8023          	sb	zero,0(s5)
   173d4:	bf45                	j	17384 <_ZN20complex_dynamic_type3app17hb60c8335373029afE+0xea>
   173d6:	6505                	lui	a0,0x1
   173d8:	11d50913          	addi	s2,a0,285 # 111d <.Lline_table_start1+0xef2>
   173dc:	45a5                	li	a1,9
   173de:	854a                	mv	a0,s2
   173e0:	4601                	li	a2,0
   173e2:	4681                	li	a3,0
   173e4:	00000073          	ecall
   173e8:	00b14983          	lbu	s3,11(sp)
   173ec:	001a8513          	addi	a0,s5,1
   173f0:	463d                	li	a2,15
   173f2:	85d2                	mv	a1,s4
   173f4:	00007097          	auipc	ra,0x7
   173f8:	120080e7          	jalr	288(ra) # 1e514 <memcpy>
   173fc:	4509                	li	a0,2
   173fe:	000a8023          	sb	zero,0(s5)
   17402:	f8a981e3          	beq	s3,a0,17384 <_ZN20complex_dynamic_type3app17hb60c8335373029afE+0xea>
   17406:	45a1                	li	a1,8
   17408:	854a                	mv	a0,s2
   1740a:	4601                	li	a2,0
   1740c:	4681                	li	a3,0
   1740e:	874e                	mv	a4,s3
   17410:	00000073          	ecall
   17414:	bf85                	j	17384 <_ZN20complex_dynamic_type3app17hb60c8335373029afE+0xea>

00017416 <_ZN20complex_dynamic_type3app17hb97100d11fca7244E>:
   17416:	711d                	addi	sp,sp,-96
   17418:	ce86                	sw	ra,92(sp)
   1741a:	cca2                	sw	s0,88(sp)
   1741c:	caa6                	sw	s1,84(sp)
   1741e:	c8ca                	sw	s2,80(sp)
   17420:	c6ce                	sw	s3,76(sp)
   17422:	c4d2                	sw	s4,72(sp)
   17424:	c2d6                	sw	s5,68(sp)
   17426:	8aaa                	mv	s5,a0
   17428:	4409                	li	s0,2
   1742a:	008102a3          	sb	s0,5(sp)
   1742e:	00610493          	addi	s1,sp,6
   17432:	02500613          	li	a2,37
   17436:	8526                	mv	a0,s1
   17438:	00007097          	auipc	ra,0x7
   1743c:	0dc080e7          	jalr	220(ra) # 1e514 <memcpy>
   17440:	02c10a13          	addi	s4,sp,44
   17444:	4661                	li	a2,24
   17446:	8552                	mv	a0,s4
   17448:	4581                	li	a1,0
   1744a:	00007097          	auipc	ra,0x7
   1744e:	05e080e7          	jalr	94(ra) # 1e4a8 <memset>
   17452:	8626                	mv	a2,s1
   17454:	028105a3          	sb	s0,43(sp)
   17458:	6505                	lui	a0,0x1
   1745a:	4491                	li	s1,4
   1745c:	45a5                	li	a1,9
   1745e:	a7050793          	addi	a5,a0,-1424 # a70 <.Lline_table_start1+0x845>
   17462:	02500693          	li	a3,37
   17466:	4711                	li	a4,4
   17468:	853e                	mv	a0,a5
   1746a:	00000073          	ecall
   1746e:	00851863          	bne	a0,s0,1747e <_ZN20complex_dynamic_type3app17hb97100d11fca7244E+0x68>
   17472:	4505                	li	a0,1
   17474:	00aa8023          	sb	a0,0(s5)
   17478:	00baa223          	sw	a1,4(s5)
   1747c:	a0b5                	j	174e8 <_ZN20complex_dynamic_type3app17hb97100d11fca7244E+0xd2>
   1747e:	853e                	mv	a0,a5
   17480:	8652                	mv	a2,s4
   17482:	009102a3          	sb	s1,5(sp)
   17486:	478d                	li	a5,3
   17488:	45a1                	li	a1,8
   1748a:	46e1                	li	a3,24
   1748c:	470d                	li	a4,3
   1748e:	00000073          	ecall
   17492:	00851d63          	bne	a0,s0,174ac <_ZN20complex_dynamic_type3app17hb97100d11fca7244E+0x96>
   17496:	02b14703          	lbu	a4,43(sp)
   1749a:	4505                	li	a0,1
   1749c:	4609                	li	a2,2
   1749e:	00aa8023          	sb	a0,0(s5)
   174a2:	00baa223          	sw	a1,4(s5)
   174a6:	02c71963          	bne	a4,a2,174d8 <_ZN20complex_dynamic_type3app17hb97100d11fca7244E+0xc2>
   174aa:	a83d                	j	174e8 <_ZN20complex_dynamic_type3app17hb97100d11fca7244E+0xd2>
   174ac:	4681                	li	a3,0
   174ae:	02f105a3          	sb	a5,43(sp)
   174b2:	6505                	lui	a0,0x1
   174b4:	45a5                	li	a1,9
   174b6:	4621                	li	a2,8
   174b8:	4709                	li	a4,2
   174ba:	a7050513          	addi	a0,a0,-1424 # a70 <.Lline_table_start1+0x845>
   174be:	08000793          	li	a5,128
   174c2:	00000073          	ecall
   174c6:	4609                	li	a2,2
   174c8:	04f57663          	bgeu	a0,a5,17514 <_ZN20complex_dynamic_type3app17hb97100d11fca7244E+0xfe>
   174cc:	4505                	li	a0,1
   174ce:	00aa8023          	sb	a0,0(s5)
   174d2:	00baa223          	sw	a1,4(s5)
   174d6:	470d                	li	a4,3
   174d8:	6505                	lui	a0,0x1
   174da:	a7050513          	addi	a0,a0,-1424 # a70 <.Lline_table_start1+0x845>
   174de:	45a1                	li	a1,8
   174e0:	4601                	li	a2,0
   174e2:	4681                	li	a3,0
   174e4:	00000073          	ecall
   174e8:	00514703          	lbu	a4,5(sp)
   174ec:	4509                	li	a0,2
   174ee:	00a70a63          	beq	a4,a0,17502 <_ZN20complex_dynamic_type3app17hb97100d11fca7244E+0xec>
   174f2:	6505                	lui	a0,0x1
   174f4:	a7050513          	addi	a0,a0,-1424 # a70 <.Lline_table_start1+0x845>
   174f8:	45a5                	li	a1,9
   174fa:	4601                	li	a2,0
   174fc:	4681                	li	a3,0
   174fe:	00000073          	ecall
   17502:	40f6                	lw	ra,92(sp)
   17504:	4466                	lw	s0,88(sp)
   17506:	44d6                	lw	s1,84(sp)
   17508:	4946                	lw	s2,80(sp)
   1750a:	49b6                	lw	s3,76(sp)
   1750c:	4a26                	lw	s4,72(sp)
   1750e:	4a96                	lw	s5,68(sp)
   17510:	6125                	addi	sp,sp,96
   17512:	8082                	ret
   17514:	00514703          	lbu	a4,5(sp)
   17518:	00c71463          	bne	a4,a2,17520 <_ZN20complex_dynamic_type3app17hb97100d11fca7244E+0x10a>
   1751c:	470d                	li	a4,3
   1751e:	a81d                	j	17554 <_ZN20complex_dynamic_type3app17hb97100d11fca7244E+0x13e>
   17520:	6505                	lui	a0,0x1
   17522:	a7050513          	addi	a0,a0,-1424 # a70 <.Lline_table_start1+0x845>
   17526:	45a5                	li	a1,9
   17528:	4601                	li	a2,0
   1752a:	4681                	li	a3,0
   1752c:	00000073          	ecall
   17530:	02b14703          	lbu	a4,43(sp)
   17534:	4509                	li	a0,2
   17536:	00a102a3          	sb	a0,5(sp)
   1753a:	00a71d63          	bne	a4,a0,17554 <_ZN20complex_dynamic_type3app17hb97100d11fca7244E+0x13e>
   1753e:	001a8513          	addi	a0,s5,1
   17542:	4661                	li	a2,24
   17544:	85d2                	mv	a1,s4
   17546:	00007097          	auipc	ra,0x7
   1754a:	fce080e7          	jalr	-50(ra) # 1e514 <memcpy>
   1754e:	000a8023          	sb	zero,0(s5)
   17552:	bf45                	j	17502 <_ZN20complex_dynamic_type3app17hb97100d11fca7244E+0xec>
   17554:	6505                	lui	a0,0x1
   17556:	a7050913          	addi	s2,a0,-1424 # a70 <.Lline_table_start1+0x845>
   1755a:	45a1                	li	a1,8
   1755c:	854a                	mv	a0,s2
   1755e:	4601                	li	a2,0
   17560:	4681                	li	a3,0
   17562:	00000073          	ecall
   17566:	00514983          	lbu	s3,5(sp)
   1756a:	001a8513          	addi	a0,s5,1
   1756e:	4661                	li	a2,24
   17570:	85d2                	mv	a1,s4
   17572:	00007097          	auipc	ra,0x7
   17576:	fa2080e7          	jalr	-94(ra) # 1e514 <memcpy>
   1757a:	4509                	li	a0,2
   1757c:	000a8023          	sb	zero,0(s5)
   17580:	f8a981e3          	beq	s3,a0,17502 <_ZN20complex_dynamic_type3app17hb97100d11fca7244E+0xec>
   17584:	45a5                	li	a1,9
   17586:	854a                	mv	a0,s2
   17588:	4601                	li	a2,0
   1758a:	4681                	li	a3,0
   1758c:	874e                	mv	a4,s3
   1758e:	00000073          	ecall
   17592:	bf85                	j	17502 <_ZN20complex_dynamic_type3app17hb97100d11fca7244E+0xec>

00017594 <_ZN20complex_dynamic_type3app17hbd7739a6fdf9d0a6E>:
   17594:	7175                	addi	sp,sp,-144
   17596:	c706                	sw	ra,140(sp)
   17598:	c522                	sw	s0,136(sp)
   1759a:	c326                	sw	s1,132(sp)
   1759c:	c14a                	sw	s2,128(sp)
   1759e:	dece                	sw	s3,124(sp)
   175a0:	dcd2                	sw	s4,120(sp)
   175a2:	dad6                	sw	s5,116(sp)
   175a4:	8aaa                	mv	s5,a0
   175a6:	4409                	li	s0,2
   175a8:	00810423          	sb	s0,8(sp)
   175ac:	00910493          	addi	s1,sp,9
   175b0:	4669                	li	a2,26
   175b2:	8526                	mv	a0,s1
   175b4:	00007097          	auipc	ra,0x7
   175b8:	f60080e7          	jalr	-160(ra) # 1e514 <memcpy>
   175bc:	02410a13          	addi	s4,sp,36
   175c0:	05000613          	li	a2,80
   175c4:	8552                	mv	a0,s4
   175c6:	4581                	li	a1,0
   175c8:	00007097          	auipc	ra,0x7
   175cc:	ee0080e7          	jalr	-288(ra) # 1e4a8 <memset>
   175d0:	8626                	mv	a2,s1
   175d2:	028101a3          	sb	s0,35(sp)
   175d6:	6505                	lui	a0,0x1
   175d8:	4491                	li	s1,4
   175da:	459d                	li	a1,7
   175dc:	aee50793          	addi	a5,a0,-1298 # aee <.Lline_table_start1+0x8c3>
   175e0:	46e9                	li	a3,26
   175e2:	4711                	li	a4,4
   175e4:	853e                	mv	a0,a5
   175e6:	00000073          	ecall
   175ea:	00851863          	bne	a0,s0,175fa <_ZN20complex_dynamic_type3app17hbd7739a6fdf9d0a6E+0x66>
   175ee:	4505                	li	a0,1
   175f0:	00aa8023          	sb	a0,0(s5)
   175f4:	00baa223          	sw	a1,4(s5)
   175f8:	a0bd                	j	17666 <_ZN20complex_dynamic_type3app17hbd7739a6fdf9d0a6E+0xd2>
   175fa:	853e                	mv	a0,a5
   175fc:	8652                	mv	a2,s4
   175fe:	00910423          	sb	s1,8(sp)
   17602:	478d                	li	a5,3
   17604:	4591                	li	a1,4
   17606:	05000693          	li	a3,80
   1760a:	470d                	li	a4,3
   1760c:	00000073          	ecall
   17610:	00851d63          	bne	a0,s0,1762a <_ZN20complex_dynamic_type3app17hbd7739a6fdf9d0a6E+0x96>
   17614:	02314703          	lbu	a4,35(sp)
   17618:	4505                	li	a0,1
   1761a:	4609                	li	a2,2
   1761c:	00aa8023          	sb	a0,0(s5)
   17620:	00baa223          	sw	a1,4(s5)
   17624:	02c71963          	bne	a4,a2,17656 <_ZN20complex_dynamic_type3app17hbd7739a6fdf9d0a6E+0xc2>
   17628:	a83d                	j	17666 <_ZN20complex_dynamic_type3app17hbd7739a6fdf9d0a6E+0xd2>
   1762a:	4681                	li	a3,0
   1762c:	02f101a3          	sb	a5,35(sp)
   17630:	6505                	lui	a0,0x1
   17632:	459d                	li	a1,7
   17634:	4611                	li	a2,4
   17636:	4709                	li	a4,2
   17638:	aee50513          	addi	a0,a0,-1298 # aee <.Lline_table_start1+0x8c3>
   1763c:	08000793          	li	a5,128
   17640:	00000073          	ecall
   17644:	4609                	li	a2,2
   17646:	04f57663          	bgeu	a0,a5,17692 <_ZN20complex_dynamic_type3app17hbd7739a6fdf9d0a6E+0xfe>
   1764a:	4505                	li	a0,1
   1764c:	00aa8023          	sb	a0,0(s5)
   17650:	00baa223          	sw	a1,4(s5)
   17654:	470d                	li	a4,3
   17656:	6505                	lui	a0,0x1
   17658:	aee50513          	addi	a0,a0,-1298 # aee <.Lline_table_start1+0x8c3>
   1765c:	4591                	li	a1,4
   1765e:	4601                	li	a2,0
   17660:	4681                	li	a3,0
   17662:	00000073          	ecall
   17666:	00814703          	lbu	a4,8(sp)
   1766a:	4509                	li	a0,2
   1766c:	00a70a63          	beq	a4,a0,17680 <_ZN20complex_dynamic_type3app17hbd7739a6fdf9d0a6E+0xec>
   17670:	6505                	lui	a0,0x1
   17672:	aee50513          	addi	a0,a0,-1298 # aee <.Lline_table_start1+0x8c3>
   17676:	459d                	li	a1,7
   17678:	4601                	li	a2,0
   1767a:	4681                	li	a3,0
   1767c:	00000073          	ecall
   17680:	40ba                	lw	ra,140(sp)
   17682:	442a                	lw	s0,136(sp)
   17684:	449a                	lw	s1,132(sp)
   17686:	490a                	lw	s2,128(sp)
   17688:	59f6                	lw	s3,124(sp)
   1768a:	5a66                	lw	s4,120(sp)
   1768c:	5ad6                	lw	s5,116(sp)
   1768e:	6149                	addi	sp,sp,144
   17690:	8082                	ret
   17692:	00814703          	lbu	a4,8(sp)
   17696:	00c71463          	bne	a4,a2,1769e <_ZN20complex_dynamic_type3app17hbd7739a6fdf9d0a6E+0x10a>
   1769a:	470d                	li	a4,3
   1769c:	a825                	j	176d4 <_ZN20complex_dynamic_type3app17hbd7739a6fdf9d0a6E+0x140>
   1769e:	6505                	lui	a0,0x1
   176a0:	aee50513          	addi	a0,a0,-1298 # aee <.Lline_table_start1+0x8c3>
   176a4:	459d                	li	a1,7
   176a6:	4601                	li	a2,0
   176a8:	4681                	li	a3,0
   176aa:	00000073          	ecall
   176ae:	02314703          	lbu	a4,35(sp)
   176b2:	4509                	li	a0,2
   176b4:	00a10423          	sb	a0,8(sp)
   176b8:	00a71e63          	bne	a4,a0,176d4 <_ZN20complex_dynamic_type3app17hbd7739a6fdf9d0a6E+0x140>
   176bc:	001a8513          	addi	a0,s5,1
   176c0:	05000613          	li	a2,80
   176c4:	85d2                	mv	a1,s4
   176c6:	00007097          	auipc	ra,0x7
   176ca:	e4e080e7          	jalr	-434(ra) # 1e514 <memcpy>
   176ce:	000a8023          	sb	zero,0(s5)
   176d2:	b77d                	j	17680 <_ZN20complex_dynamic_type3app17hbd7739a6fdf9d0a6E+0xec>
   176d4:	6505                	lui	a0,0x1
   176d6:	aee50913          	addi	s2,a0,-1298 # aee <.Lline_table_start1+0x8c3>
   176da:	4591                	li	a1,4
   176dc:	854a                	mv	a0,s2
   176de:	4601                	li	a2,0
   176e0:	4681                	li	a3,0
   176e2:	00000073          	ecall
   176e6:	00814983          	lbu	s3,8(sp)
   176ea:	001a8513          	addi	a0,s5,1
   176ee:	05000613          	li	a2,80
   176f2:	85d2                	mv	a1,s4
   176f4:	00007097          	auipc	ra,0x7
   176f8:	e20080e7          	jalr	-480(ra) # 1e514 <memcpy>
   176fc:	4509                	li	a0,2
   176fe:	000a8023          	sb	zero,0(s5)
   17702:	f6a98fe3          	beq	s3,a0,17680 <_ZN20complex_dynamic_type3app17hbd7739a6fdf9d0a6E+0xec>
   17706:	459d                	li	a1,7
   17708:	854a                	mv	a0,s2
   1770a:	4601                	li	a2,0
   1770c:	4681                	li	a3,0
   1770e:	874e                	mv	a4,s3
   17710:	00000073          	ecall
   17714:	b7b5                	j	17680 <_ZN20complex_dynamic_type3app17hbd7739a6fdf9d0a6E+0xec>

00017716 <_ZN20complex_dynamic_type3app17hbe01e31ea27314f8E>:
   17716:	711d                	addi	sp,sp,-96
   17718:	ce86                	sw	ra,92(sp)
   1771a:	cca2                	sw	s0,88(sp)
   1771c:	caa6                	sw	s1,84(sp)
   1771e:	c8ca                	sw	s2,80(sp)
   17720:	c6ce                	sw	s3,76(sp)
   17722:	c4d2                	sw	s4,72(sp)
   17724:	c2d6                	sw	s5,68(sp)
   17726:	8aaa                	mv	s5,a0
   17728:	4409                	li	s0,2
   1772a:	008101a3          	sb	s0,3(sp)
   1772e:	0044                	addi	s1,sp,4
   17730:	4679                	li	a2,30
   17732:	8526                	mv	a0,s1
   17734:	00007097          	auipc	ra,0x7
   17738:	de0080e7          	jalr	-544(ra) # 1e514 <memcpy>
   1773c:	02310a13          	addi	s4,sp,35
   17740:	02100613          	li	a2,33
   17744:	8552                	mv	a0,s4
   17746:	4581                	li	a1,0
   17748:	00007097          	auipc	ra,0x7
   1774c:	d60080e7          	jalr	-672(ra) # 1e4a8 <memset>
   17750:	8626                	mv	a2,s1
   17752:	02810123          	sb	s0,34(sp)
   17756:	6509                	lui	a0,0x2
   17758:	4491                	li	s1,4
   1775a:	4599                	li	a1,6
   1775c:	9b550793          	addi	a5,a0,-1611 # 19b5 <.Lline_table_start1+0x178a>
   17760:	46f9                	li	a3,30
   17762:	4711                	li	a4,4
   17764:	853e                	mv	a0,a5
   17766:	00000073          	ecall
   1776a:	00851863          	bne	a0,s0,1777a <_ZN20complex_dynamic_type3app17hbe01e31ea27314f8E+0x64>
   1776e:	4505                	li	a0,1
   17770:	00aa8023          	sb	a0,0(s5)
   17774:	00baa223          	sw	a1,4(s5)
   17778:	a0bd                	j	177e6 <_ZN20complex_dynamic_type3app17hbe01e31ea27314f8E+0xd0>
   1777a:	853e                	mv	a0,a5
   1777c:	8652                	mv	a2,s4
   1777e:	009101a3          	sb	s1,3(sp)
   17782:	478d                	li	a5,3
   17784:	45a5                	li	a1,9
   17786:	02100693          	li	a3,33
   1778a:	470d                	li	a4,3
   1778c:	00000073          	ecall
   17790:	00851d63          	bne	a0,s0,177aa <_ZN20complex_dynamic_type3app17hbe01e31ea27314f8E+0x94>
   17794:	02214703          	lbu	a4,34(sp)
   17798:	4505                	li	a0,1
   1779a:	4609                	li	a2,2
   1779c:	00aa8023          	sb	a0,0(s5)
   177a0:	00baa223          	sw	a1,4(s5)
   177a4:	02c71963          	bne	a4,a2,177d6 <_ZN20complex_dynamic_type3app17hbe01e31ea27314f8E+0xc0>
   177a8:	a83d                	j	177e6 <_ZN20complex_dynamic_type3app17hbe01e31ea27314f8E+0xd0>
   177aa:	4681                	li	a3,0
   177ac:	02f10123          	sb	a5,34(sp)
   177b0:	6509                	lui	a0,0x2
   177b2:	4599                	li	a1,6
   177b4:	4625                	li	a2,9
   177b6:	4709                	li	a4,2
   177b8:	9b550513          	addi	a0,a0,-1611 # 19b5 <.Lline_table_start1+0x178a>
   177bc:	08000793          	li	a5,128
   177c0:	00000073          	ecall
   177c4:	4609                	li	a2,2
   177c6:	04f57663          	bgeu	a0,a5,17812 <_ZN20complex_dynamic_type3app17hbe01e31ea27314f8E+0xfc>
   177ca:	4505                	li	a0,1
   177cc:	00aa8023          	sb	a0,0(s5)
   177d0:	00baa223          	sw	a1,4(s5)
   177d4:	470d                	li	a4,3
   177d6:	6509                	lui	a0,0x2
   177d8:	9b550513          	addi	a0,a0,-1611 # 19b5 <.Lline_table_start1+0x178a>
   177dc:	45a5                	li	a1,9
   177de:	4601                	li	a2,0
   177e0:	4681                	li	a3,0
   177e2:	00000073          	ecall
   177e6:	00314703          	lbu	a4,3(sp)
   177ea:	4509                	li	a0,2
   177ec:	00a70a63          	beq	a4,a0,17800 <_ZN20complex_dynamic_type3app17hbe01e31ea27314f8E+0xea>
   177f0:	6509                	lui	a0,0x2
   177f2:	9b550513          	addi	a0,a0,-1611 # 19b5 <.Lline_table_start1+0x178a>
   177f6:	4599                	li	a1,6
   177f8:	4601                	li	a2,0
   177fa:	4681                	li	a3,0
   177fc:	00000073          	ecall
   17800:	40f6                	lw	ra,92(sp)
   17802:	4466                	lw	s0,88(sp)
   17804:	44d6                	lw	s1,84(sp)
   17806:	4946                	lw	s2,80(sp)
   17808:	49b6                	lw	s3,76(sp)
   1780a:	4a26                	lw	s4,72(sp)
   1780c:	4a96                	lw	s5,68(sp)
   1780e:	6125                	addi	sp,sp,96
   17810:	8082                	ret
   17812:	00314703          	lbu	a4,3(sp)
   17816:	00c71463          	bne	a4,a2,1781e <_ZN20complex_dynamic_type3app17hbe01e31ea27314f8E+0x108>
   1781a:	470d                	li	a4,3
   1781c:	a825                	j	17854 <_ZN20complex_dynamic_type3app17hbe01e31ea27314f8E+0x13e>
   1781e:	6509                	lui	a0,0x2
   17820:	9b550513          	addi	a0,a0,-1611 # 19b5 <.Lline_table_start1+0x178a>
   17824:	4599                	li	a1,6
   17826:	4601                	li	a2,0
   17828:	4681                	li	a3,0
   1782a:	00000073          	ecall
   1782e:	02214703          	lbu	a4,34(sp)
   17832:	4509                	li	a0,2
   17834:	00a101a3          	sb	a0,3(sp)
   17838:	00a71e63          	bne	a4,a0,17854 <_ZN20complex_dynamic_type3app17hbe01e31ea27314f8E+0x13e>
   1783c:	001a8513          	addi	a0,s5,1
   17840:	02100613          	li	a2,33
   17844:	85d2                	mv	a1,s4
   17846:	00007097          	auipc	ra,0x7
   1784a:	cce080e7          	jalr	-818(ra) # 1e514 <memcpy>
   1784e:	000a8023          	sb	zero,0(s5)
   17852:	b77d                	j	17800 <_ZN20complex_dynamic_type3app17hbe01e31ea27314f8E+0xea>
   17854:	6509                	lui	a0,0x2
   17856:	9b550913          	addi	s2,a0,-1611 # 19b5 <.Lline_table_start1+0x178a>
   1785a:	45a5                	li	a1,9
   1785c:	854a                	mv	a0,s2
   1785e:	4601                	li	a2,0
   17860:	4681                	li	a3,0
   17862:	00000073          	ecall
   17866:	00314983          	lbu	s3,3(sp)
   1786a:	001a8513          	addi	a0,s5,1
   1786e:	02100613          	li	a2,33
   17872:	85d2                	mv	a1,s4
   17874:	00007097          	auipc	ra,0x7
   17878:	ca0080e7          	jalr	-864(ra) # 1e514 <memcpy>
   1787c:	4509                	li	a0,2
   1787e:	000a8023          	sb	zero,0(s5)
   17882:	f6a98fe3          	beq	s3,a0,17800 <_ZN20complex_dynamic_type3app17hbe01e31ea27314f8E+0xea>
   17886:	4599                	li	a1,6
   17888:	854a                	mv	a0,s2
   1788a:	4601                	li	a2,0
   1788c:	4681                	li	a3,0
   1788e:	874e                	mv	a4,s3
   17890:	00000073          	ecall
   17894:	b7b5                	j	17800 <_ZN20complex_dynamic_type3app17hbe01e31ea27314f8E+0xea>

00017896 <_ZN20complex_dynamic_type3app17hbe424d95830fe2c2E>:
   17896:	7159                	addi	sp,sp,-112
   17898:	d686                	sw	ra,108(sp)
   1789a:	d4a2                	sw	s0,104(sp)
   1789c:	d2a6                	sw	s1,100(sp)
   1789e:	d0ca                	sw	s2,96(sp)
   178a0:	cece                	sw	s3,92(sp)
   178a2:	ccd2                	sw	s4,88(sp)
   178a4:	8a2a                	mv	s4,a0
   178a6:	4409                	li	s0,2
   178a8:	00810423          	sb	s0,8(sp)
   178ac:	00910493          	addi	s1,sp,9
   178b0:	4661                	li	a2,24
   178b2:	8526                	mv	a0,s1
   178b4:	00007097          	auipc	ra,0x7
   178b8:	c60080e7          	jalr	-928(ra) # 1e514 <memcpy>
   178bc:	02210993          	addi	s3,sp,34
   178c0:	03600613          	li	a2,54
   178c4:	854e                	mv	a0,s3
   178c6:	4581                	li	a1,0
   178c8:	00007097          	auipc	ra,0x7
   178cc:	be0080e7          	jalr	-1056(ra) # 1e4a8 <memset>
   178d0:	8626                	mv	a2,s1
   178d2:	028100a3          	sb	s0,33(sp)
   178d6:	4791                	li	a5,4
   178d8:	0f300513          	li	a0,243
   178dc:	45a1                	li	a1,8
   178de:	46e1                	li	a3,24
   178e0:	4711                	li	a4,4
   178e2:	00000073          	ecall
   178e6:	00851863          	bne	a0,s0,178f6 <_ZN20complex_dynamic_type3app17hbe424d95830fe2c2E+0x60>
   178ea:	4505                	li	a0,1
   178ec:	00aa0023          	sb	a0,0(s4)
   178f0:	00ba2223          	sw	a1,4(s4)
   178f4:	a0b5                	j	17960 <_ZN20complex_dynamic_type3app17hbe424d95830fe2c2E+0xca>
   178f6:	864e                	mv	a2,s3
   178f8:	00f10423          	sb	a5,8(sp)
   178fc:	478d                	li	a5,3
   178fe:	0f300513          	li	a0,243
   17902:	4591                	li	a1,4
   17904:	03600693          	li	a3,54
   17908:	470d                	li	a4,3
   1790a:	00000073          	ecall
   1790e:	00851d63          	bne	a0,s0,17928 <_ZN20complex_dynamic_type3app17hbe424d95830fe2c2E+0x92>
   17912:	02114703          	lbu	a4,33(sp)
   17916:	4505                	li	a0,1
   17918:	4609                	li	a2,2
   1791a:	00aa0023          	sb	a0,0(s4)
   1791e:	00ba2223          	sw	a1,4(s4)
   17922:	02c71863          	bne	a4,a2,17952 <_ZN20complex_dynamic_type3app17hbe424d95830fe2c2E+0xbc>
   17926:	a82d                	j	17960 <_ZN20complex_dynamic_type3app17hbe424d95830fe2c2E+0xca>
   17928:	4681                	li	a3,0
   1792a:	02f100a3          	sb	a5,33(sp)
   1792e:	0f300513          	li	a0,243
   17932:	45a1                	li	a1,8
   17934:	4611                	li	a2,4
   17936:	4709                	li	a4,2
   17938:	08000793          	li	a5,128
   1793c:	00000073          	ecall
   17940:	4609                	li	a2,2
   17942:	04f57363          	bgeu	a0,a5,17988 <_ZN20complex_dynamic_type3app17hbe424d95830fe2c2E+0xf2>
   17946:	4505                	li	a0,1
   17948:	00aa0023          	sb	a0,0(s4)
   1794c:	00ba2223          	sw	a1,4(s4)
   17950:	470d                	li	a4,3
   17952:	0f300513          	li	a0,243
   17956:	4591                	li	a1,4
   17958:	4601                	li	a2,0
   1795a:	4681                	li	a3,0
   1795c:	00000073          	ecall
   17960:	00814703          	lbu	a4,8(sp)
   17964:	4509                	li	a0,2
   17966:	00a70963          	beq	a4,a0,17978 <_ZN20complex_dynamic_type3app17hbe424d95830fe2c2E+0xe2>
   1796a:	0f300513          	li	a0,243
   1796e:	45a1                	li	a1,8
   17970:	4601                	li	a2,0
   17972:	4681                	li	a3,0
   17974:	00000073          	ecall
   17978:	50b6                	lw	ra,108(sp)
   1797a:	5426                	lw	s0,104(sp)
   1797c:	5496                	lw	s1,100(sp)
   1797e:	5906                	lw	s2,96(sp)
   17980:	49f6                	lw	s3,92(sp)
   17982:	4a66                	lw	s4,88(sp)
   17984:	6165                	addi	sp,sp,112
   17986:	8082                	ret
   17988:	00814703          	lbu	a4,8(sp)
   1798c:	00c71463          	bne	a4,a2,17994 <_ZN20complex_dynamic_type3app17hbe424d95830fe2c2E+0xfe>
   17990:	470d                	li	a4,3
   17992:	a81d                	j	179c8 <_ZN20complex_dynamic_type3app17hbe424d95830fe2c2E+0x132>
   17994:	0f300513          	li	a0,243
   17998:	45a1                	li	a1,8
   1799a:	4601                	li	a2,0
   1799c:	4681                	li	a3,0
   1799e:	00000073          	ecall
   179a2:	02114703          	lbu	a4,33(sp)
   179a6:	4509                	li	a0,2
   179a8:	00a10423          	sb	a0,8(sp)
   179ac:	00a71e63          	bne	a4,a0,179c8 <_ZN20complex_dynamic_type3app17hbe424d95830fe2c2E+0x132>
   179b0:	001a0513          	addi	a0,s4,1
   179b4:	03600613          	li	a2,54
   179b8:	85ce                	mv	a1,s3
   179ba:	00007097          	auipc	ra,0x7
   179be:	b5a080e7          	jalr	-1190(ra) # 1e514 <memcpy>
   179c2:	000a0023          	sb	zero,0(s4)
   179c6:	bf4d                	j	17978 <_ZN20complex_dynamic_type3app17hbe424d95830fe2c2E+0xe2>
   179c8:	0f300513          	li	a0,243
   179cc:	4591                	li	a1,4
   179ce:	4601                	li	a2,0
   179d0:	4681                	li	a3,0
   179d2:	00000073          	ecall
   179d6:	00814903          	lbu	s2,8(sp)
   179da:	001a0513          	addi	a0,s4,1
   179de:	03600613          	li	a2,54
   179e2:	85ce                	mv	a1,s3
   179e4:	00007097          	auipc	ra,0x7
   179e8:	b30080e7          	jalr	-1232(ra) # 1e514 <memcpy>
   179ec:	4509                	li	a0,2
   179ee:	000a0023          	sb	zero,0(s4)
   179f2:	f8a903e3          	beq	s2,a0,17978 <_ZN20complex_dynamic_type3app17hbe424d95830fe2c2E+0xe2>
   179f6:	0f300513          	li	a0,243
   179fa:	45a1                	li	a1,8
   179fc:	4601                	li	a2,0
   179fe:	4681                	li	a3,0
   17a00:	874a                	mv	a4,s2
   17a02:	00000073          	ecall
   17a06:	bf8d                	j	17978 <_ZN20complex_dynamic_type3app17hbe424d95830fe2c2E+0xe2>

00017a08 <_ZN20complex_dynamic_type3app17hbf0e202c19d8d7b1E>:
   17a08:	7119                	addi	sp,sp,-128
   17a0a:	de86                	sw	ra,124(sp)
   17a0c:	dca2                	sw	s0,120(sp)
   17a0e:	daa6                	sw	s1,116(sp)
   17a10:	d8ca                	sw	s2,112(sp)
   17a12:	d6ce                	sw	s3,108(sp)
   17a14:	d4d2                	sw	s4,104(sp)
   17a16:	d2d6                	sw	s5,100(sp)
   17a18:	8aaa                	mv	s5,a0
   17a1a:	4409                	li	s0,2
   17a1c:	008106a3          	sb	s0,13(sp)
   17a20:	00e10493          	addi	s1,sp,14
   17a24:	463d                	li	a2,15
   17a26:	8526                	mv	a0,s1
   17a28:	00007097          	auipc	ra,0x7
   17a2c:	aec080e7          	jalr	-1300(ra) # 1e514 <memcpy>
   17a30:	01e10a13          	addi	s4,sp,30
   17a34:	04600613          	li	a2,70
   17a38:	8552                	mv	a0,s4
   17a3a:	4581                	li	a1,0
   17a3c:	00007097          	auipc	ra,0x7
   17a40:	a6c080e7          	jalr	-1428(ra) # 1e4a8 <memset>
   17a44:	8626                	mv	a2,s1
   17a46:	00810ea3          	sb	s0,29(sp)
   17a4a:	6509                	lui	a0,0x2
   17a4c:	4491                	li	s1,4
   17a4e:	45a5                	li	a1,9
   17a50:	d7e50793          	addi	a5,a0,-642 # 1d7e <.Lline_table_start1+0x1b53>
   17a54:	46bd                	li	a3,15
   17a56:	4711                	li	a4,4
   17a58:	853e                	mv	a0,a5
   17a5a:	00000073          	ecall
   17a5e:	00851863          	bne	a0,s0,17a6e <_ZN20complex_dynamic_type3app17hbf0e202c19d8d7b1E+0x66>
   17a62:	4505                	li	a0,1
   17a64:	00aa8023          	sb	a0,0(s5)
   17a68:	00baa223          	sw	a1,4(s5)
   17a6c:	a0bd                	j	17ada <_ZN20complex_dynamic_type3app17hbf0e202c19d8d7b1E+0xd2>
   17a6e:	853e                	mv	a0,a5
   17a70:	8652                	mv	a2,s4
   17a72:	009106a3          	sb	s1,13(sp)
   17a76:	478d                	li	a5,3
   17a78:	4589                	li	a1,2
   17a7a:	04600693          	li	a3,70
   17a7e:	470d                	li	a4,3
   17a80:	00000073          	ecall
   17a84:	00851d63          	bne	a0,s0,17a9e <_ZN20complex_dynamic_type3app17hbf0e202c19d8d7b1E+0x96>
   17a88:	01d14703          	lbu	a4,29(sp)
   17a8c:	4505                	li	a0,1
   17a8e:	4609                	li	a2,2
   17a90:	00aa8023          	sb	a0,0(s5)
   17a94:	00baa223          	sw	a1,4(s5)
   17a98:	02c71963          	bne	a4,a2,17aca <_ZN20complex_dynamic_type3app17hbf0e202c19d8d7b1E+0xc2>
   17a9c:	a83d                	j	17ada <_ZN20complex_dynamic_type3app17hbf0e202c19d8d7b1E+0xd2>
   17a9e:	4681                	li	a3,0
   17aa0:	00f10ea3          	sb	a5,29(sp)
   17aa4:	6509                	lui	a0,0x2
   17aa6:	45a5                	li	a1,9
   17aa8:	4609                	li	a2,2
   17aaa:	4709                	li	a4,2
   17aac:	d7e50513          	addi	a0,a0,-642 # 1d7e <.Lline_table_start1+0x1b53>
   17ab0:	08000793          	li	a5,128
   17ab4:	00000073          	ecall
   17ab8:	4609                	li	a2,2
   17aba:	04f57663          	bgeu	a0,a5,17b06 <_ZN20complex_dynamic_type3app17hbf0e202c19d8d7b1E+0xfe>
   17abe:	4505                	li	a0,1
   17ac0:	00aa8023          	sb	a0,0(s5)
   17ac4:	00baa223          	sw	a1,4(s5)
   17ac8:	470d                	li	a4,3
   17aca:	6509                	lui	a0,0x2
   17acc:	d7e50513          	addi	a0,a0,-642 # 1d7e <.Lline_table_start1+0x1b53>
   17ad0:	4589                	li	a1,2
   17ad2:	4601                	li	a2,0
   17ad4:	4681                	li	a3,0
   17ad6:	00000073          	ecall
   17ada:	00d14703          	lbu	a4,13(sp)
   17ade:	4509                	li	a0,2
   17ae0:	00a70a63          	beq	a4,a0,17af4 <_ZN20complex_dynamic_type3app17hbf0e202c19d8d7b1E+0xec>
   17ae4:	6509                	lui	a0,0x2
   17ae6:	d7e50513          	addi	a0,a0,-642 # 1d7e <.Lline_table_start1+0x1b53>
   17aea:	45a5                	li	a1,9
   17aec:	4601                	li	a2,0
   17aee:	4681                	li	a3,0
   17af0:	00000073          	ecall
   17af4:	50f6                	lw	ra,124(sp)
   17af6:	5466                	lw	s0,120(sp)
   17af8:	54d6                	lw	s1,116(sp)
   17afa:	5946                	lw	s2,112(sp)
   17afc:	59b6                	lw	s3,108(sp)
   17afe:	5a26                	lw	s4,104(sp)
   17b00:	5a96                	lw	s5,100(sp)
   17b02:	6109                	addi	sp,sp,128
   17b04:	8082                	ret
   17b06:	00d14703          	lbu	a4,13(sp)
   17b0a:	00c71463          	bne	a4,a2,17b12 <_ZN20complex_dynamic_type3app17hbf0e202c19d8d7b1E+0x10a>
   17b0e:	470d                	li	a4,3
   17b10:	a825                	j	17b48 <_ZN20complex_dynamic_type3app17hbf0e202c19d8d7b1E+0x140>
   17b12:	6509                	lui	a0,0x2
   17b14:	d7e50513          	addi	a0,a0,-642 # 1d7e <.Lline_table_start1+0x1b53>
   17b18:	45a5                	li	a1,9
   17b1a:	4601                	li	a2,0
   17b1c:	4681                	li	a3,0
   17b1e:	00000073          	ecall
   17b22:	01d14703          	lbu	a4,29(sp)
   17b26:	4509                	li	a0,2
   17b28:	00a106a3          	sb	a0,13(sp)
   17b2c:	00a71e63          	bne	a4,a0,17b48 <_ZN20complex_dynamic_type3app17hbf0e202c19d8d7b1E+0x140>
   17b30:	001a8513          	addi	a0,s5,1
   17b34:	04600613          	li	a2,70
   17b38:	85d2                	mv	a1,s4
   17b3a:	00007097          	auipc	ra,0x7
   17b3e:	9da080e7          	jalr	-1574(ra) # 1e514 <memcpy>
   17b42:	000a8023          	sb	zero,0(s5)
   17b46:	b77d                	j	17af4 <_ZN20complex_dynamic_type3app17hbf0e202c19d8d7b1E+0xec>
   17b48:	4601                	li	a2,0
   17b4a:	4681                	li	a3,0
   17b4c:	6509                	lui	a0,0x2
   17b4e:	d7e50913          	addi	s2,a0,-642 # 1d7e <.Lline_table_start1+0x1b53>
   17b52:	4589                	li	a1,2
   17b54:	854a                	mv	a0,s2
   17b56:	00000073          	ecall
   17b5a:	00d14983          	lbu	s3,13(sp)
   17b5e:	4409                	li	s0,2
   17b60:	001a8513          	addi	a0,s5,1
   17b64:	04600613          	li	a2,70
   17b68:	85d2                	mv	a1,s4
   17b6a:	00007097          	auipc	ra,0x7
   17b6e:	9aa080e7          	jalr	-1622(ra) # 1e514 <memcpy>
   17b72:	000a8023          	sb	zero,0(s5)
   17b76:	f6898fe3          	beq	s3,s0,17af4 <_ZN20complex_dynamic_type3app17hbf0e202c19d8d7b1E+0xec>
   17b7a:	45a5                	li	a1,9
   17b7c:	854a                	mv	a0,s2
   17b7e:	4601                	li	a2,0
   17b80:	4681                	li	a3,0
   17b82:	874e                	mv	a4,s3
   17b84:	00000073          	ecall
   17b88:	b7b5                	j	17af4 <_ZN20complex_dynamic_type3app17hbf0e202c19d8d7b1E+0xec>

00017b8a <_ZN20complex_dynamic_type3app17hc0f7a4903748c8a2E>:
   17b8a:	7171                	addi	sp,sp,-176
   17b8c:	d706                	sw	ra,172(sp)
   17b8e:	d522                	sw	s0,168(sp)
   17b90:	d326                	sw	s1,164(sp)
   17b92:	d14a                	sw	s2,160(sp)
   17b94:	cf4e                	sw	s3,156(sp)
   17b96:	cd52                	sw	s4,152(sp)
   17b98:	8a2a                	mv	s4,a0
   17b9a:	4409                	li	s0,2
   17b9c:	008103a3          	sb	s0,7(sp)
   17ba0:	0024                	addi	s1,sp,8
   17ba2:	06300613          	li	a2,99
   17ba6:	8526                	mv	a0,s1
   17ba8:	00007097          	auipc	ra,0x7
   17bac:	96c080e7          	jalr	-1684(ra) # 1e514 <memcpy>
   17bb0:	06c10993          	addi	s3,sp,108
   17bb4:	02c00613          	li	a2,44
   17bb8:	854e                	mv	a0,s3
   17bba:	4581                	li	a1,0
   17bbc:	00007097          	auipc	ra,0x7
   17bc0:	8ec080e7          	jalr	-1812(ra) # 1e4a8 <memset>
   17bc4:	8626                	mv	a2,s1
   17bc6:	068105a3          	sb	s0,107(sp)
   17bca:	4791                	li	a5,4
   17bcc:	4561                	li	a0,24
   17bce:	4595                	li	a1,5
   17bd0:	06300693          	li	a3,99
   17bd4:	4711                	li	a4,4
   17bd6:	00000073          	ecall
   17bda:	00851863          	bne	a0,s0,17bea <_ZN20complex_dynamic_type3app17hc0f7a4903748c8a2E+0x60>
   17bde:	4505                	li	a0,1
   17be0:	00aa0023          	sb	a0,0(s4)
   17be4:	00ba2223          	sw	a1,4(s4)
   17be8:	a09d                	j	17c4e <_ZN20complex_dynamic_type3app17hc0f7a4903748c8a2E+0xc4>
   17bea:	864e                	mv	a2,s3
   17bec:	00f103a3          	sb	a5,7(sp)
   17bf0:	478d                	li	a5,3
   17bf2:	4561                	li	a0,24
   17bf4:	458d                	li	a1,3
   17bf6:	02c00693          	li	a3,44
   17bfa:	470d                	li	a4,3
   17bfc:	00000073          	ecall
   17c00:	00851d63          	bne	a0,s0,17c1a <_ZN20complex_dynamic_type3app17hc0f7a4903748c8a2E+0x90>
   17c04:	06b14703          	lbu	a4,107(sp)
   17c08:	4505                	li	a0,1
   17c0a:	4609                	li	a2,2
   17c0c:	00aa0023          	sb	a0,0(s4)
   17c10:	00ba2223          	sw	a1,4(s4)
   17c14:	02c71763          	bne	a4,a2,17c42 <_ZN20complex_dynamic_type3app17hc0f7a4903748c8a2E+0xb8>
   17c18:	a81d                	j	17c4e <_ZN20complex_dynamic_type3app17hc0f7a4903748c8a2E+0xc4>
   17c1a:	4681                	li	a3,0
   17c1c:	06f105a3          	sb	a5,107(sp)
   17c20:	4561                	li	a0,24
   17c22:	4595                	li	a1,5
   17c24:	460d                	li	a2,3
   17c26:	4709                	li	a4,2
   17c28:	08000793          	li	a5,128
   17c2c:	00000073          	ecall
   17c30:	4609                	li	a2,2
   17c32:	04f57163          	bgeu	a0,a5,17c74 <_ZN20complex_dynamic_type3app17hc0f7a4903748c8a2E+0xea>
   17c36:	4505                	li	a0,1
   17c38:	00aa0023          	sb	a0,0(s4)
   17c3c:	00ba2223          	sw	a1,4(s4)
   17c40:	470d                	li	a4,3
   17c42:	4561                	li	a0,24
   17c44:	458d                	li	a1,3
   17c46:	4601                	li	a2,0
   17c48:	4681                	li	a3,0
   17c4a:	00000073          	ecall
   17c4e:	00714703          	lbu	a4,7(sp)
   17c52:	4509                	li	a0,2
   17c54:	00a70863          	beq	a4,a0,17c64 <_ZN20complex_dynamic_type3app17hc0f7a4903748c8a2E+0xda>
   17c58:	4561                	li	a0,24
   17c5a:	4595                	li	a1,5
   17c5c:	4601                	li	a2,0
   17c5e:	4681                	li	a3,0
   17c60:	00000073          	ecall
   17c64:	50ba                	lw	ra,172(sp)
   17c66:	542a                	lw	s0,168(sp)
   17c68:	549a                	lw	s1,164(sp)
   17c6a:	590a                	lw	s2,160(sp)
   17c6c:	49fa                	lw	s3,156(sp)
   17c6e:	4a6a                	lw	s4,152(sp)
   17c70:	614d                	addi	sp,sp,176
   17c72:	8082                	ret
   17c74:	00714703          	lbu	a4,7(sp)
   17c78:	00c71463          	bne	a4,a2,17c80 <_ZN20complex_dynamic_type3app17hc0f7a4903748c8a2E+0xf6>
   17c7c:	470d                	li	a4,3
   17c7e:	a815                	j	17cb2 <_ZN20complex_dynamic_type3app17hc0f7a4903748c8a2E+0x128>
   17c80:	4561                	li	a0,24
   17c82:	4595                	li	a1,5
   17c84:	4601                	li	a2,0
   17c86:	4681                	li	a3,0
   17c88:	00000073          	ecall
   17c8c:	06b14703          	lbu	a4,107(sp)
   17c90:	4509                	li	a0,2
   17c92:	00a103a3          	sb	a0,7(sp)
   17c96:	00a71e63          	bne	a4,a0,17cb2 <_ZN20complex_dynamic_type3app17hc0f7a4903748c8a2E+0x128>
   17c9a:	001a0513          	addi	a0,s4,1
   17c9e:	02c00613          	li	a2,44
   17ca2:	85ce                	mv	a1,s3
   17ca4:	00007097          	auipc	ra,0x7
   17ca8:	870080e7          	jalr	-1936(ra) # 1e514 <memcpy>
   17cac:	000a0023          	sb	zero,0(s4)
   17cb0:	bf55                	j	17c64 <_ZN20complex_dynamic_type3app17hc0f7a4903748c8a2E+0xda>
   17cb2:	4561                	li	a0,24
   17cb4:	458d                	li	a1,3
   17cb6:	4601                	li	a2,0
   17cb8:	4681                	li	a3,0
   17cba:	00000073          	ecall
   17cbe:	00714903          	lbu	s2,7(sp)
   17cc2:	001a0513          	addi	a0,s4,1
   17cc6:	02c00613          	li	a2,44
   17cca:	85ce                	mv	a1,s3
   17ccc:	00007097          	auipc	ra,0x7
   17cd0:	848080e7          	jalr	-1976(ra) # 1e514 <memcpy>
   17cd4:	4509                	li	a0,2
   17cd6:	000a0023          	sb	zero,0(s4)
   17cda:	f8a905e3          	beq	s2,a0,17c64 <_ZN20complex_dynamic_type3app17hc0f7a4903748c8a2E+0xda>
   17cde:	4561                	li	a0,24
   17ce0:	4595                	li	a1,5
   17ce2:	4601                	li	a2,0
   17ce4:	4681                	li	a3,0
   17ce6:	874a                	mv	a4,s2
   17ce8:	00000073          	ecall
   17cec:	bfa5                	j	17c64 <_ZN20complex_dynamic_type3app17hc0f7a4903748c8a2E+0xda>

00017cee <_ZN20complex_dynamic_type3app17hc4a02f984c93cc45E>:
   17cee:	715d                	addi	sp,sp,-80
   17cf0:	c686                	sw	ra,76(sp)
   17cf2:	c4a2                	sw	s0,72(sp)
   17cf4:	c2a6                	sw	s1,68(sp)
   17cf6:	c0ca                	sw	s2,64(sp)
   17cf8:	de4e                	sw	s3,60(sp)
   17cfa:	dc52                	sw	s4,56(sp)
   17cfc:	da56                	sw	s5,52(sp)
   17cfe:	8aaa                	mv	s5,a0
   17d00:	4409                	li	s0,2
   17d02:	00810223          	sb	s0,4(sp)
   17d06:	00510493          	addi	s1,sp,5
   17d0a:	4635                	li	a2,13
   17d0c:	8526                	mv	a0,s1
   17d0e:	00007097          	auipc	ra,0x7
   17d12:	806080e7          	jalr	-2042(ra) # 1e514 <memcpy>
   17d16:	01310a13          	addi	s4,sp,19
   17d1a:	02100613          	li	a2,33
   17d1e:	8552                	mv	a0,s4
   17d20:	4581                	li	a1,0
   17d22:	00006097          	auipc	ra,0x6
   17d26:	786080e7          	jalr	1926(ra) # 1e4a8 <memset>
   17d2a:	4581                	li	a1,0
   17d2c:	8626                	mv	a2,s1
   17d2e:	00810923          	sb	s0,18(sp)
   17d32:	6505                	lui	a0,0x1
   17d34:	4491                	li	s1,4
   17d36:	6b050793          	addi	a5,a0,1712 # 16b0 <.Lline_table_start1+0x1485>
   17d3a:	46b5                	li	a3,13
   17d3c:	4711                	li	a4,4
   17d3e:	853e                	mv	a0,a5
   17d40:	00000073          	ecall
   17d44:	00851863          	bne	a0,s0,17d54 <_ZN20complex_dynamic_type3app17hc4a02f984c93cc45E+0x66>
   17d48:	4505                	li	a0,1
   17d4a:	00aa8023          	sb	a0,0(s5)
   17d4e:	00baa223          	sw	a1,4(s5)
   17d52:	a0bd                	j	17dc0 <_ZN20complex_dynamic_type3app17hc4a02f984c93cc45E+0xd2>
   17d54:	853e                	mv	a0,a5
   17d56:	4581                	li	a1,0
   17d58:	8652                	mv	a2,s4
   17d5a:	00910223          	sb	s1,4(sp)
   17d5e:	478d                	li	a5,3
   17d60:	02100693          	li	a3,33
   17d64:	470d                	li	a4,3
   17d66:	00000073          	ecall
   17d6a:	00851d63          	bne	a0,s0,17d84 <_ZN20complex_dynamic_type3app17hc4a02f984c93cc45E+0x96>
   17d6e:	01214703          	lbu	a4,18(sp)
   17d72:	4505                	li	a0,1
   17d74:	4609                	li	a2,2
   17d76:	00aa8023          	sb	a0,0(s5)
   17d7a:	00baa223          	sw	a1,4(s5)
   17d7e:	02c71963          	bne	a4,a2,17db0 <_ZN20complex_dynamic_type3app17hc4a02f984c93cc45E+0xc2>
   17d82:	a83d                	j	17dc0 <_ZN20complex_dynamic_type3app17hc4a02f984c93cc45E+0xd2>
   17d84:	4581                	li	a1,0
   17d86:	4601                	li	a2,0
   17d88:	4681                	li	a3,0
   17d8a:	00f10923          	sb	a5,18(sp)
   17d8e:	6505                	lui	a0,0x1
   17d90:	4709                	li	a4,2
   17d92:	6b050513          	addi	a0,a0,1712 # 16b0 <.Lline_table_start1+0x1485>
   17d96:	08000793          	li	a5,128
   17d9a:	00000073          	ecall
   17d9e:	4609                	li	a2,2
   17da0:	04f57663          	bgeu	a0,a5,17dec <_ZN20complex_dynamic_type3app17hc4a02f984c93cc45E+0xfe>
   17da4:	4505                	li	a0,1
   17da6:	00aa8023          	sb	a0,0(s5)
   17daa:	00baa223          	sw	a1,4(s5)
   17dae:	470d                	li	a4,3
   17db0:	6505                	lui	a0,0x1
   17db2:	6b050513          	addi	a0,a0,1712 # 16b0 <.Lline_table_start1+0x1485>
   17db6:	4581                	li	a1,0
   17db8:	4601                	li	a2,0
   17dba:	4681                	li	a3,0
   17dbc:	00000073          	ecall
   17dc0:	00414703          	lbu	a4,4(sp)
   17dc4:	4509                	li	a0,2
   17dc6:	00a70a63          	beq	a4,a0,17dda <_ZN20complex_dynamic_type3app17hc4a02f984c93cc45E+0xec>
   17dca:	6505                	lui	a0,0x1
   17dcc:	6b050513          	addi	a0,a0,1712 # 16b0 <.Lline_table_start1+0x1485>
   17dd0:	4581                	li	a1,0
   17dd2:	4601                	li	a2,0
   17dd4:	4681                	li	a3,0
   17dd6:	00000073          	ecall
   17dda:	40b6                	lw	ra,76(sp)
   17ddc:	4426                	lw	s0,72(sp)
   17dde:	4496                	lw	s1,68(sp)
   17de0:	4906                	lw	s2,64(sp)
   17de2:	59f2                	lw	s3,60(sp)
   17de4:	5a62                	lw	s4,56(sp)
   17de6:	5ad2                	lw	s5,52(sp)
   17de8:	6161                	addi	sp,sp,80
   17dea:	8082                	ret
   17dec:	00414703          	lbu	a4,4(sp)
   17df0:	00c71463          	bne	a4,a2,17df8 <_ZN20complex_dynamic_type3app17hc4a02f984c93cc45E+0x10a>
   17df4:	470d                	li	a4,3
   17df6:	a825                	j	17e2e <_ZN20complex_dynamic_type3app17hc4a02f984c93cc45E+0x140>
   17df8:	6505                	lui	a0,0x1
   17dfa:	6b050513          	addi	a0,a0,1712 # 16b0 <.Lline_table_start1+0x1485>
   17dfe:	4581                	li	a1,0
   17e00:	4601                	li	a2,0
   17e02:	4681                	li	a3,0
   17e04:	00000073          	ecall
   17e08:	01214703          	lbu	a4,18(sp)
   17e0c:	4509                	li	a0,2
   17e0e:	00a10223          	sb	a0,4(sp)
   17e12:	00a71e63          	bne	a4,a0,17e2e <_ZN20complex_dynamic_type3app17hc4a02f984c93cc45E+0x140>
   17e16:	001a8513          	addi	a0,s5,1
   17e1a:	02100613          	li	a2,33
   17e1e:	85d2                	mv	a1,s4
   17e20:	00006097          	auipc	ra,0x6
   17e24:	6f4080e7          	jalr	1780(ra) # 1e514 <memcpy>
   17e28:	000a8023          	sb	zero,0(s5)
   17e2c:	b77d                	j	17dda <_ZN20complex_dynamic_type3app17hc4a02f984c93cc45E+0xec>
   17e2e:	6505                	lui	a0,0x1
   17e30:	6b050913          	addi	s2,a0,1712 # 16b0 <.Lline_table_start1+0x1485>
   17e34:	854a                	mv	a0,s2
   17e36:	4581                	li	a1,0
   17e38:	4601                	li	a2,0
   17e3a:	4681                	li	a3,0
   17e3c:	00000073          	ecall
   17e40:	00414983          	lbu	s3,4(sp)
   17e44:	001a8513          	addi	a0,s5,1
   17e48:	02100613          	li	a2,33
   17e4c:	85d2                	mv	a1,s4
   17e4e:	00006097          	auipc	ra,0x6
   17e52:	6c6080e7          	jalr	1734(ra) # 1e514 <memcpy>
   17e56:	4509                	li	a0,2
   17e58:	000a8023          	sb	zero,0(s5)
   17e5c:	f6a98fe3          	beq	s3,a0,17dda <_ZN20complex_dynamic_type3app17hc4a02f984c93cc45E+0xec>
   17e60:	854a                	mv	a0,s2
   17e62:	4581                	li	a1,0
   17e64:	4601                	li	a2,0
   17e66:	4681                	li	a3,0
   17e68:	874e                	mv	a4,s3
   17e6a:	00000073          	ecall
   17e6e:	b7b5                	j	17dda <_ZN20complex_dynamic_type3app17hc4a02f984c93cc45E+0xec>

00017e70 <_ZN20complex_dynamic_type3app17hc9fd19c8bb7c452fE>:
   17e70:	7135                	addi	sp,sp,-160
   17e72:	cf06                	sw	ra,156(sp)
   17e74:	cd22                	sw	s0,152(sp)
   17e76:	cb26                	sw	s1,148(sp)
   17e78:	c94a                	sw	s2,144(sp)
   17e7a:	c74e                	sw	s3,140(sp)
   17e7c:	c552                	sw	s4,136(sp)
   17e7e:	c356                	sw	s5,132(sp)
   17e80:	8aaa                	mv	s5,a0
   17e82:	4409                	li	s0,2
   17e84:	00810723          	sb	s0,14(sp)
   17e88:	00f10493          	addi	s1,sp,15
   17e8c:	02100613          	li	a2,33
   17e90:	8526                	mv	a0,s1
   17e92:	00006097          	auipc	ra,0x6
   17e96:	682080e7          	jalr	1666(ra) # 1e514 <memcpy>
   17e9a:	03110a13          	addi	s4,sp,49
   17e9e:	05300613          	li	a2,83
   17ea2:	8552                	mv	a0,s4
   17ea4:	4581                	li	a1,0
   17ea6:	00006097          	auipc	ra,0x6
   17eaa:	602080e7          	jalr	1538(ra) # 1e4a8 <memset>
   17eae:	8626                	mv	a2,s1
   17eb0:	02810823          	sb	s0,48(sp)
   17eb4:	6509                	lui	a0,0x2
   17eb6:	4491                	li	s1,4
   17eb8:	4589                	li	a1,2
   17eba:	53e50793          	addi	a5,a0,1342 # 253e <.Lline_table_start1+0x2313>
   17ebe:	02100693          	li	a3,33
   17ec2:	4711                	li	a4,4
   17ec4:	853e                	mv	a0,a5
   17ec6:	00000073          	ecall
   17eca:	00851863          	bne	a0,s0,17eda <_ZN20complex_dynamic_type3app17hc9fd19c8bb7c452fE+0x6a>
   17ece:	4505                	li	a0,1
   17ed0:	00aa8023          	sb	a0,0(s5)
   17ed4:	00baa223          	sw	a1,4(s5)
   17ed8:	a0bd                	j	17f46 <_ZN20complex_dynamic_type3app17hc9fd19c8bb7c452fE+0xd6>
   17eda:	853e                	mv	a0,a5
   17edc:	8652                	mv	a2,s4
   17ede:	00910723          	sb	s1,14(sp)
   17ee2:	478d                	li	a5,3
   17ee4:	45a1                	li	a1,8
   17ee6:	05300693          	li	a3,83
   17eea:	470d                	li	a4,3
   17eec:	00000073          	ecall
   17ef0:	00851d63          	bne	a0,s0,17f0a <_ZN20complex_dynamic_type3app17hc9fd19c8bb7c452fE+0x9a>
   17ef4:	03014703          	lbu	a4,48(sp)
   17ef8:	4505                	li	a0,1
   17efa:	4609                	li	a2,2
   17efc:	00aa8023          	sb	a0,0(s5)
   17f00:	00baa223          	sw	a1,4(s5)
   17f04:	02c71963          	bne	a4,a2,17f36 <_ZN20complex_dynamic_type3app17hc9fd19c8bb7c452fE+0xc6>
   17f08:	a83d                	j	17f46 <_ZN20complex_dynamic_type3app17hc9fd19c8bb7c452fE+0xd6>
   17f0a:	4681                	li	a3,0
   17f0c:	02f10823          	sb	a5,48(sp)
   17f10:	6509                	lui	a0,0x2
   17f12:	4589                	li	a1,2
   17f14:	4621                	li	a2,8
   17f16:	4709                	li	a4,2
   17f18:	53e50513          	addi	a0,a0,1342 # 253e <.Lline_table_start1+0x2313>
   17f1c:	08000793          	li	a5,128
   17f20:	00000073          	ecall
   17f24:	4609                	li	a2,2
   17f26:	04f57663          	bgeu	a0,a5,17f72 <_ZN20complex_dynamic_type3app17hc9fd19c8bb7c452fE+0x102>
   17f2a:	4505                	li	a0,1
   17f2c:	00aa8023          	sb	a0,0(s5)
   17f30:	00baa223          	sw	a1,4(s5)
   17f34:	470d                	li	a4,3
   17f36:	6509                	lui	a0,0x2
   17f38:	53e50513          	addi	a0,a0,1342 # 253e <.Lline_table_start1+0x2313>
   17f3c:	45a1                	li	a1,8
   17f3e:	4601                	li	a2,0
   17f40:	4681                	li	a3,0
   17f42:	00000073          	ecall
   17f46:	00e14703          	lbu	a4,14(sp)
   17f4a:	4509                	li	a0,2
   17f4c:	00a70a63          	beq	a4,a0,17f60 <_ZN20complex_dynamic_type3app17hc9fd19c8bb7c452fE+0xf0>
   17f50:	6509                	lui	a0,0x2
   17f52:	53e50513          	addi	a0,a0,1342 # 253e <.Lline_table_start1+0x2313>
   17f56:	4589                	li	a1,2
   17f58:	4601                	li	a2,0
   17f5a:	4681                	li	a3,0
   17f5c:	00000073          	ecall
   17f60:	40fa                	lw	ra,156(sp)
   17f62:	446a                	lw	s0,152(sp)
   17f64:	44da                	lw	s1,148(sp)
   17f66:	494a                	lw	s2,144(sp)
   17f68:	49ba                	lw	s3,140(sp)
   17f6a:	4a2a                	lw	s4,136(sp)
   17f6c:	4a9a                	lw	s5,132(sp)
   17f6e:	610d                	addi	sp,sp,160
   17f70:	8082                	ret
   17f72:	00e14703          	lbu	a4,14(sp)
   17f76:	00c71463          	bne	a4,a2,17f7e <_ZN20complex_dynamic_type3app17hc9fd19c8bb7c452fE+0x10e>
   17f7a:	470d                	li	a4,3
   17f7c:	a825                	j	17fb4 <_ZN20complex_dynamic_type3app17hc9fd19c8bb7c452fE+0x144>
   17f7e:	6509                	lui	a0,0x2
   17f80:	53e50513          	addi	a0,a0,1342 # 253e <.Lline_table_start1+0x2313>
   17f84:	4589                	li	a1,2
   17f86:	4601                	li	a2,0
   17f88:	4681                	li	a3,0
   17f8a:	00000073          	ecall
   17f8e:	03014703          	lbu	a4,48(sp)
   17f92:	4509                	li	a0,2
   17f94:	00a10723          	sb	a0,14(sp)
   17f98:	00a71e63          	bne	a4,a0,17fb4 <_ZN20complex_dynamic_type3app17hc9fd19c8bb7c452fE+0x144>
   17f9c:	001a8513          	addi	a0,s5,1
   17fa0:	05300613          	li	a2,83
   17fa4:	85d2                	mv	a1,s4
   17fa6:	00006097          	auipc	ra,0x6
   17faa:	56e080e7          	jalr	1390(ra) # 1e514 <memcpy>
   17fae:	000a8023          	sb	zero,0(s5)
   17fb2:	b77d                	j	17f60 <_ZN20complex_dynamic_type3app17hc9fd19c8bb7c452fE+0xf0>
   17fb4:	6509                	lui	a0,0x2
   17fb6:	53e50913          	addi	s2,a0,1342 # 253e <.Lline_table_start1+0x2313>
   17fba:	45a1                	li	a1,8
   17fbc:	854a                	mv	a0,s2
   17fbe:	4601                	li	a2,0
   17fc0:	4681                	li	a3,0
   17fc2:	00000073          	ecall
   17fc6:	00e14983          	lbu	s3,14(sp)
   17fca:	001a8513          	addi	a0,s5,1
   17fce:	05300613          	li	a2,83
   17fd2:	85d2                	mv	a1,s4
   17fd4:	00006097          	auipc	ra,0x6
   17fd8:	540080e7          	jalr	1344(ra) # 1e514 <memcpy>
   17fdc:	4509                	li	a0,2
   17fde:	000a8023          	sb	zero,0(s5)
   17fe2:	f6a98fe3          	beq	s3,a0,17f60 <_ZN20complex_dynamic_type3app17hc9fd19c8bb7c452fE+0xf0>
   17fe6:	4589                	li	a1,2
   17fe8:	854a                	mv	a0,s2
   17fea:	4601                	li	a2,0
   17fec:	4681                	li	a3,0
   17fee:	874e                	mv	a4,s3
   17ff0:	00000073          	ecall
   17ff4:	b7b5                	j	17f60 <_ZN20complex_dynamic_type3app17hc9fd19c8bb7c452fE+0xf0>

00017ff6 <_ZN20complex_dynamic_type3app17hca20296d65ff26a1E>:
   17ff6:	7175                	addi	sp,sp,-144
   17ff8:	c706                	sw	ra,140(sp)
   17ffa:	c522                	sw	s0,136(sp)
   17ffc:	c326                	sw	s1,132(sp)
   17ffe:	c14a                	sw	s2,128(sp)
   18000:	dece                	sw	s3,124(sp)
   18002:	dcd2                	sw	s4,120(sp)
   18004:	8a2a                	mv	s4,a0
   18006:	4409                	li	s0,2
   18008:	00810723          	sb	s0,14(sp)
   1800c:	00f10493          	addi	s1,sp,15
   18010:	464d                	li	a2,19
   18012:	8526                	mv	a0,s1
   18014:	00006097          	auipc	ra,0x6
   18018:	500080e7          	jalr	1280(ra) # 1e514 <memcpy>
   1801c:	02310993          	addi	s3,sp,35
   18020:	05500613          	li	a2,85
   18024:	854e                	mv	a0,s3
   18026:	4581                	li	a1,0
   18028:	00006097          	auipc	ra,0x6
   1802c:	480080e7          	jalr	1152(ra) # 1e4a8 <memset>
   18030:	8626                	mv	a2,s1
   18032:	02810123          	sb	s0,34(sp)
   18036:	4791                	li	a5,4
   18038:	32e00513          	li	a0,814
   1803c:	45a5                	li	a1,9
   1803e:	46cd                	li	a3,19
   18040:	4711                	li	a4,4
   18042:	00000073          	ecall
   18046:	00851863          	bne	a0,s0,18056 <_ZN20complex_dynamic_type3app17hca20296d65ff26a1E+0x60>
   1804a:	4505                	li	a0,1
   1804c:	00aa0023          	sb	a0,0(s4)
   18050:	00ba2223          	sw	a1,4(s4)
   18054:	a0b5                	j	180c0 <_ZN20complex_dynamic_type3app17hca20296d65ff26a1E+0xca>
   18056:	864e                	mv	a2,s3
   18058:	00f10723          	sb	a5,14(sp)
   1805c:	478d                	li	a5,3
   1805e:	32e00513          	li	a0,814
   18062:	459d                	li	a1,7
   18064:	05500693          	li	a3,85
   18068:	470d                	li	a4,3
   1806a:	00000073          	ecall
   1806e:	00851d63          	bne	a0,s0,18088 <_ZN20complex_dynamic_type3app17hca20296d65ff26a1E+0x92>
   18072:	02214703          	lbu	a4,34(sp)
   18076:	4505                	li	a0,1
   18078:	4609                	li	a2,2
   1807a:	00aa0023          	sb	a0,0(s4)
   1807e:	00ba2223          	sw	a1,4(s4)
   18082:	02c71863          	bne	a4,a2,180b2 <_ZN20complex_dynamic_type3app17hca20296d65ff26a1E+0xbc>
   18086:	a82d                	j	180c0 <_ZN20complex_dynamic_type3app17hca20296d65ff26a1E+0xca>
   18088:	4681                	li	a3,0
   1808a:	02f10123          	sb	a5,34(sp)
   1808e:	32e00513          	li	a0,814
   18092:	45a5                	li	a1,9
   18094:	461d                	li	a2,7
   18096:	4709                	li	a4,2
   18098:	08000793          	li	a5,128
   1809c:	00000073          	ecall
   180a0:	4609                	li	a2,2
   180a2:	04f57363          	bgeu	a0,a5,180e8 <_ZN20complex_dynamic_type3app17hca20296d65ff26a1E+0xf2>
   180a6:	4505                	li	a0,1
   180a8:	00aa0023          	sb	a0,0(s4)
   180ac:	00ba2223          	sw	a1,4(s4)
   180b0:	470d                	li	a4,3
   180b2:	32e00513          	li	a0,814
   180b6:	459d                	li	a1,7
   180b8:	4601                	li	a2,0
   180ba:	4681                	li	a3,0
   180bc:	00000073          	ecall
   180c0:	00e14703          	lbu	a4,14(sp)
   180c4:	4509                	li	a0,2
   180c6:	00a70963          	beq	a4,a0,180d8 <_ZN20complex_dynamic_type3app17hca20296d65ff26a1E+0xe2>
   180ca:	32e00513          	li	a0,814
   180ce:	45a5                	li	a1,9
   180d0:	4601                	li	a2,0
   180d2:	4681                	li	a3,0
   180d4:	00000073          	ecall
   180d8:	40ba                	lw	ra,140(sp)
   180da:	442a                	lw	s0,136(sp)
   180dc:	449a                	lw	s1,132(sp)
   180de:	490a                	lw	s2,128(sp)
   180e0:	59f6                	lw	s3,124(sp)
   180e2:	5a66                	lw	s4,120(sp)
   180e4:	6149                	addi	sp,sp,144
   180e6:	8082                	ret
   180e8:	00e14703          	lbu	a4,14(sp)
   180ec:	00c71463          	bne	a4,a2,180f4 <_ZN20complex_dynamic_type3app17hca20296d65ff26a1E+0xfe>
   180f0:	470d                	li	a4,3
   180f2:	a81d                	j	18128 <_ZN20complex_dynamic_type3app17hca20296d65ff26a1E+0x132>
   180f4:	32e00513          	li	a0,814
   180f8:	45a5                	li	a1,9
   180fa:	4601                	li	a2,0
   180fc:	4681                	li	a3,0
   180fe:	00000073          	ecall
   18102:	02214703          	lbu	a4,34(sp)
   18106:	4509                	li	a0,2
   18108:	00a10723          	sb	a0,14(sp)
   1810c:	00a71e63          	bne	a4,a0,18128 <_ZN20complex_dynamic_type3app17hca20296d65ff26a1E+0x132>
   18110:	001a0513          	addi	a0,s4,1
   18114:	05500613          	li	a2,85
   18118:	85ce                	mv	a1,s3
   1811a:	00006097          	auipc	ra,0x6
   1811e:	3fa080e7          	jalr	1018(ra) # 1e514 <memcpy>
   18122:	000a0023          	sb	zero,0(s4)
   18126:	bf4d                	j	180d8 <_ZN20complex_dynamic_type3app17hca20296d65ff26a1E+0xe2>
   18128:	32e00513          	li	a0,814
   1812c:	459d                	li	a1,7
   1812e:	4601                	li	a2,0
   18130:	4681                	li	a3,0
   18132:	00000073          	ecall
   18136:	00e14903          	lbu	s2,14(sp)
   1813a:	001a0513          	addi	a0,s4,1
   1813e:	05500613          	li	a2,85
   18142:	85ce                	mv	a1,s3
   18144:	00006097          	auipc	ra,0x6
   18148:	3d0080e7          	jalr	976(ra) # 1e514 <memcpy>
   1814c:	4509                	li	a0,2
   1814e:	000a0023          	sb	zero,0(s4)
   18152:	f8a903e3          	beq	s2,a0,180d8 <_ZN20complex_dynamic_type3app17hca20296d65ff26a1E+0xe2>
   18156:	32e00513          	li	a0,814
   1815a:	45a5                	li	a1,9
   1815c:	4601                	li	a2,0
   1815e:	4681                	li	a3,0
   18160:	874a                	mv	a4,s2
   18162:	00000073          	ecall
   18166:	bf8d                	j	180d8 <_ZN20complex_dynamic_type3app17hca20296d65ff26a1E+0xe2>

00018168 <_ZN20complex_dynamic_type3app17hcbcd25fba34c9e82E>:
   18168:	7159                	addi	sp,sp,-112
   1816a:	d686                	sw	ra,108(sp)
   1816c:	d4a2                	sw	s0,104(sp)
   1816e:	d2a6                	sw	s1,100(sp)
   18170:	d0ca                	sw	s2,96(sp)
   18172:	cece                	sw	s3,92(sp)
   18174:	ccd2                	sw	s4,88(sp)
   18176:	cad6                	sw	s5,84(sp)
   18178:	8aaa                	mv	s5,a0
   1817a:	4409                	li	s0,2
   1817c:	00810123          	sb	s0,2(sp)
   18180:	00310493          	addi	s1,sp,3
   18184:	03f00613          	li	a2,63
   18188:	8526                	mv	a0,s1
   1818a:	00006097          	auipc	ra,0x6
   1818e:	38a080e7          	jalr	906(ra) # 1e514 <memcpy>
   18192:	04310a13          	addi	s4,sp,67
   18196:	4645                	li	a2,17
   18198:	8552                	mv	a0,s4
   1819a:	4581                	li	a1,0
   1819c:	00006097          	auipc	ra,0x6
   181a0:	30c080e7          	jalr	780(ra) # 1e4a8 <memset>
   181a4:	8626                	mv	a2,s1
   181a6:	04810123          	sb	s0,66(sp)
   181aa:	6505                	lui	a0,0x1
   181ac:	4491                	li	s1,4
   181ae:	4591                	li	a1,4
   181b0:	4d750793          	addi	a5,a0,1239 # 14d7 <.Lline_table_start1+0x12ac>
   181b4:	03f00693          	li	a3,63
   181b8:	4711                	li	a4,4
   181ba:	853e                	mv	a0,a5
   181bc:	00000073          	ecall
   181c0:	00851863          	bne	a0,s0,181d0 <_ZN20complex_dynamic_type3app17hcbcd25fba34c9e82E+0x68>
   181c4:	4505                	li	a0,1
   181c6:	00aa8023          	sb	a0,0(s5)
   181ca:	00baa223          	sw	a1,4(s5)
   181ce:	a0b5                	j	1823a <_ZN20complex_dynamic_type3app17hcbcd25fba34c9e82E+0xd2>
   181d0:	853e                	mv	a0,a5
   181d2:	8652                	mv	a2,s4
   181d4:	00910123          	sb	s1,2(sp)
   181d8:	478d                	li	a5,3
   181da:	458d                	li	a1,3
   181dc:	46c5                	li	a3,17
   181de:	470d                	li	a4,3
   181e0:	00000073          	ecall
   181e4:	00851d63          	bne	a0,s0,181fe <_ZN20complex_dynamic_type3app17hcbcd25fba34c9e82E+0x96>
   181e8:	04214703          	lbu	a4,66(sp)
   181ec:	4505                	li	a0,1
   181ee:	4609                	li	a2,2
   181f0:	00aa8023          	sb	a0,0(s5)
   181f4:	00baa223          	sw	a1,4(s5)
   181f8:	02c71963          	bne	a4,a2,1822a <_ZN20complex_dynamic_type3app17hcbcd25fba34c9e82E+0xc2>
   181fc:	a83d                	j	1823a <_ZN20complex_dynamic_type3app17hcbcd25fba34c9e82E+0xd2>
   181fe:	4681                	li	a3,0
   18200:	04f10123          	sb	a5,66(sp)
   18204:	6505                	lui	a0,0x1
   18206:	4591                	li	a1,4
   18208:	460d                	li	a2,3
   1820a:	4709                	li	a4,2
   1820c:	4d750513          	addi	a0,a0,1239 # 14d7 <.Lline_table_start1+0x12ac>
   18210:	08000793          	li	a5,128
   18214:	00000073          	ecall
   18218:	4609                	li	a2,2
   1821a:	04f57663          	bgeu	a0,a5,18266 <_ZN20complex_dynamic_type3app17hcbcd25fba34c9e82E+0xfe>
   1821e:	4505                	li	a0,1
   18220:	00aa8023          	sb	a0,0(s5)
   18224:	00baa223          	sw	a1,4(s5)
   18228:	470d                	li	a4,3
   1822a:	6505                	lui	a0,0x1
   1822c:	4d750513          	addi	a0,a0,1239 # 14d7 <.Lline_table_start1+0x12ac>
   18230:	458d                	li	a1,3
   18232:	4601                	li	a2,0
   18234:	4681                	li	a3,0
   18236:	00000073          	ecall
   1823a:	00214703          	lbu	a4,2(sp)
   1823e:	4509                	li	a0,2
   18240:	00a70a63          	beq	a4,a0,18254 <_ZN20complex_dynamic_type3app17hcbcd25fba34c9e82E+0xec>
   18244:	6505                	lui	a0,0x1
   18246:	4d750513          	addi	a0,a0,1239 # 14d7 <.Lline_table_start1+0x12ac>
   1824a:	4591                	li	a1,4
   1824c:	4601                	li	a2,0
   1824e:	4681                	li	a3,0
   18250:	00000073          	ecall
   18254:	50b6                	lw	ra,108(sp)
   18256:	5426                	lw	s0,104(sp)
   18258:	5496                	lw	s1,100(sp)
   1825a:	5906                	lw	s2,96(sp)
   1825c:	49f6                	lw	s3,92(sp)
   1825e:	4a66                	lw	s4,88(sp)
   18260:	4ad6                	lw	s5,84(sp)
   18262:	6165                	addi	sp,sp,112
   18264:	8082                	ret
   18266:	00214703          	lbu	a4,2(sp)
   1826a:	00c71463          	bne	a4,a2,18272 <_ZN20complex_dynamic_type3app17hcbcd25fba34c9e82E+0x10a>
   1826e:	470d                	li	a4,3
   18270:	a81d                	j	182a6 <_ZN20complex_dynamic_type3app17hcbcd25fba34c9e82E+0x13e>
   18272:	6505                	lui	a0,0x1
   18274:	4d750513          	addi	a0,a0,1239 # 14d7 <.Lline_table_start1+0x12ac>
   18278:	4591                	li	a1,4
   1827a:	4601                	li	a2,0
   1827c:	4681                	li	a3,0
   1827e:	00000073          	ecall
   18282:	04214703          	lbu	a4,66(sp)
   18286:	4509                	li	a0,2
   18288:	00a10123          	sb	a0,2(sp)
   1828c:	00a71d63          	bne	a4,a0,182a6 <_ZN20complex_dynamic_type3app17hcbcd25fba34c9e82E+0x13e>
   18290:	001a8513          	addi	a0,s5,1
   18294:	4645                	li	a2,17
   18296:	85d2                	mv	a1,s4
   18298:	00006097          	auipc	ra,0x6
   1829c:	27c080e7          	jalr	636(ra) # 1e514 <memcpy>
   182a0:	000a8023          	sb	zero,0(s5)
   182a4:	bf45                	j	18254 <_ZN20complex_dynamic_type3app17hcbcd25fba34c9e82E+0xec>
   182a6:	6505                	lui	a0,0x1
   182a8:	4d750913          	addi	s2,a0,1239 # 14d7 <.Lline_table_start1+0x12ac>
   182ac:	458d                	li	a1,3
   182ae:	854a                	mv	a0,s2
   182b0:	4601                	li	a2,0
   182b2:	4681                	li	a3,0
   182b4:	00000073          	ecall
   182b8:	00214983          	lbu	s3,2(sp)
   182bc:	001a8513          	addi	a0,s5,1
   182c0:	4645                	li	a2,17
   182c2:	85d2                	mv	a1,s4
   182c4:	00006097          	auipc	ra,0x6
   182c8:	250080e7          	jalr	592(ra) # 1e514 <memcpy>
   182cc:	4509                	li	a0,2
   182ce:	000a8023          	sb	zero,0(s5)
   182d2:	f8a981e3          	beq	s3,a0,18254 <_ZN20complex_dynamic_type3app17hcbcd25fba34c9e82E+0xec>
   182d6:	4591                	li	a1,4
   182d8:	854a                	mv	a0,s2
   182da:	4601                	li	a2,0
   182dc:	4681                	li	a3,0
   182de:	874e                	mv	a4,s3
   182e0:	00000073          	ecall
   182e4:	bf85                	j	18254 <_ZN20complex_dynamic_type3app17hcbcd25fba34c9e82E+0xec>

000182e6 <_ZN20complex_dynamic_type3app17hcd4c911a661d50b9E>:
   182e6:	7159                	addi	sp,sp,-112
   182e8:	d686                	sw	ra,108(sp)
   182ea:	d4a2                	sw	s0,104(sp)
   182ec:	d2a6                	sw	s1,100(sp)
   182ee:	d0ca                	sw	s2,96(sp)
   182f0:	cece                	sw	s3,92(sp)
   182f2:	ccd2                	sw	s4,88(sp)
   182f4:	cad6                	sw	s5,84(sp)
   182f6:	8aaa                	mv	s5,a0
   182f8:	4409                	li	s0,2
   182fa:	008103a3          	sb	s0,7(sp)
   182fe:	0024                	addi	s1,sp,8
   18300:	02100613          	li	a2,33
   18304:	8526                	mv	a0,s1
   18306:	00006097          	auipc	ra,0x6
   1830a:	20e080e7          	jalr	526(ra) # 1e514 <memcpy>
   1830e:	02a10a13          	addi	s4,sp,42
   18312:	02a00613          	li	a2,42
   18316:	8552                	mv	a0,s4
   18318:	4581                	li	a1,0
   1831a:	00006097          	auipc	ra,0x6
   1831e:	18e080e7          	jalr	398(ra) # 1e4a8 <memset>
   18322:	8626                	mv	a2,s1
   18324:	028104a3          	sb	s0,41(sp)
   18328:	6505                	lui	a0,0x1
   1832a:	4805                	li	a6,1
   1832c:	4491                	li	s1,4
   1832e:	4585                	li	a1,1
   18330:	5f350793          	addi	a5,a0,1523 # 15f3 <.Lline_table_start1+0x13c8>
   18334:	02100693          	li	a3,33
   18338:	4711                	li	a4,4
   1833a:	853e                	mv	a0,a5
   1833c:	00000073          	ecall
   18340:	00851763          	bne	a0,s0,1834e <_ZN20complex_dynamic_type3app17hcd4c911a661d50b9E+0x68>
   18344:	010a8023          	sb	a6,0(s5)
   18348:	00baa223          	sw	a1,4(s5)
   1834c:	a0bd                	j	183ba <_ZN20complex_dynamic_type3app17hcd4c911a661d50b9E+0xd4>
   1834e:	853e                	mv	a0,a5
   18350:	8652                	mv	a2,s4
   18352:	009103a3          	sb	s1,7(sp)
   18356:	478d                	li	a5,3
   18358:	458d                	li	a1,3
   1835a:	02a00693          	li	a3,42
   1835e:	470d                	li	a4,3
   18360:	00000073          	ecall
   18364:	00851d63          	bne	a0,s0,1837e <_ZN20complex_dynamic_type3app17hcd4c911a661d50b9E+0x98>
   18368:	02914703          	lbu	a4,41(sp)
   1836c:	4505                	li	a0,1
   1836e:	4609                	li	a2,2
   18370:	00aa8023          	sb	a0,0(s5)
   18374:	00baa223          	sw	a1,4(s5)
   18378:	02c71963          	bne	a4,a2,183aa <_ZN20complex_dynamic_type3app17hcd4c911a661d50b9E+0xc4>
   1837c:	a83d                	j	183ba <_ZN20complex_dynamic_type3app17hcd4c911a661d50b9E+0xd4>
   1837e:	4681                	li	a3,0
   18380:	02f104a3          	sb	a5,41(sp)
   18384:	6505                	lui	a0,0x1
   18386:	4785                	li	a5,1
   18388:	4585                	li	a1,1
   1838a:	460d                	li	a2,3
   1838c:	4709                	li	a4,2
   1838e:	5f350513          	addi	a0,a0,1523 # 15f3 <.Lline_table_start1+0x13c8>
   18392:	08000493          	li	s1,128
   18396:	00000073          	ecall
   1839a:	4609                	li	a2,2
   1839c:	04957563          	bgeu	a0,s1,183e6 <_ZN20complex_dynamic_type3app17hcd4c911a661d50b9E+0x100>
   183a0:	00fa8023          	sb	a5,0(s5)
   183a4:	00baa223          	sw	a1,4(s5)
   183a8:	470d                	li	a4,3
   183aa:	6505                	lui	a0,0x1
   183ac:	5f350513          	addi	a0,a0,1523 # 15f3 <.Lline_table_start1+0x13c8>
   183b0:	458d                	li	a1,3
   183b2:	4601                	li	a2,0
   183b4:	4681                	li	a3,0
   183b6:	00000073          	ecall
   183ba:	00714703          	lbu	a4,7(sp)
   183be:	4509                	li	a0,2
   183c0:	00a70a63          	beq	a4,a0,183d4 <_ZN20complex_dynamic_type3app17hcd4c911a661d50b9E+0xee>
   183c4:	6505                	lui	a0,0x1
   183c6:	5f350513          	addi	a0,a0,1523 # 15f3 <.Lline_table_start1+0x13c8>
   183ca:	4585                	li	a1,1
   183cc:	4601                	li	a2,0
   183ce:	4681                	li	a3,0
   183d0:	00000073          	ecall
   183d4:	50b6                	lw	ra,108(sp)
   183d6:	5426                	lw	s0,104(sp)
   183d8:	5496                	lw	s1,100(sp)
   183da:	5906                	lw	s2,96(sp)
   183dc:	49f6                	lw	s3,92(sp)
   183de:	4a66                	lw	s4,88(sp)
   183e0:	4ad6                	lw	s5,84(sp)
   183e2:	6165                	addi	sp,sp,112
   183e4:	8082                	ret
   183e6:	00714703          	lbu	a4,7(sp)
   183ea:	00c71463          	bne	a4,a2,183f2 <_ZN20complex_dynamic_type3app17hcd4c911a661d50b9E+0x10c>
   183ee:	470d                	li	a4,3
   183f0:	a825                	j	18428 <_ZN20complex_dynamic_type3app17hcd4c911a661d50b9E+0x142>
   183f2:	6505                	lui	a0,0x1
   183f4:	5f350513          	addi	a0,a0,1523 # 15f3 <.Lline_table_start1+0x13c8>
   183f8:	4585                	li	a1,1
   183fa:	4601                	li	a2,0
   183fc:	4681                	li	a3,0
   183fe:	00000073          	ecall
   18402:	02914703          	lbu	a4,41(sp)
   18406:	4509                	li	a0,2
   18408:	00a103a3          	sb	a0,7(sp)
   1840c:	00a71e63          	bne	a4,a0,18428 <_ZN20complex_dynamic_type3app17hcd4c911a661d50b9E+0x142>
   18410:	001a8513          	addi	a0,s5,1
   18414:	02a00613          	li	a2,42
   18418:	85d2                	mv	a1,s4
   1841a:	00006097          	auipc	ra,0x6
   1841e:	0fa080e7          	jalr	250(ra) # 1e514 <memcpy>
   18422:	000a8023          	sb	zero,0(s5)
   18426:	b77d                	j	183d4 <_ZN20complex_dynamic_type3app17hcd4c911a661d50b9E+0xee>
   18428:	6505                	lui	a0,0x1
   1842a:	5f350913          	addi	s2,a0,1523 # 15f3 <.Lline_table_start1+0x13c8>
   1842e:	458d                	li	a1,3
   18430:	854a                	mv	a0,s2
   18432:	4601                	li	a2,0
   18434:	4681                	li	a3,0
   18436:	00000073          	ecall
   1843a:	00714983          	lbu	s3,7(sp)
   1843e:	001a8513          	addi	a0,s5,1
   18442:	02a00613          	li	a2,42
   18446:	85d2                	mv	a1,s4
   18448:	00006097          	auipc	ra,0x6
   1844c:	0cc080e7          	jalr	204(ra) # 1e514 <memcpy>
   18450:	4509                	li	a0,2
   18452:	000a8023          	sb	zero,0(s5)
   18456:	f6a98fe3          	beq	s3,a0,183d4 <_ZN20complex_dynamic_type3app17hcd4c911a661d50b9E+0xee>
   1845a:	4585                	li	a1,1
   1845c:	854a                	mv	a0,s2
   1845e:	4601                	li	a2,0
   18460:	4681                	li	a3,0
   18462:	874e                	mv	a4,s3
   18464:	00000073          	ecall
   18468:	b7b5                	j	183d4 <_ZN20complex_dynamic_type3app17hcd4c911a661d50b9E+0xee>

0001846a <_ZN20complex_dynamic_type3app17hcec521b48812a62eE>:
   1846a:	7119                	addi	sp,sp,-128
   1846c:	de86                	sw	ra,124(sp)
   1846e:	dca2                	sw	s0,120(sp)
   18470:	daa6                	sw	s1,116(sp)
   18472:	d8ca                	sw	s2,112(sp)
   18474:	d6ce                	sw	s3,108(sp)
   18476:	d4d2                	sw	s4,104(sp)
   18478:	d2d6                	sw	s5,100(sp)
   1847a:	8aaa                	mv	s5,a0
   1847c:	4409                	li	s0,2
   1847e:	00810423          	sb	s0,8(sp)
   18482:	00910493          	addi	s1,sp,9
   18486:	4679                	li	a2,30
   18488:	8526                	mv	a0,s1
   1848a:	00006097          	auipc	ra,0x6
   1848e:	08a080e7          	jalr	138(ra) # 1e514 <memcpy>
   18492:	02810a13          	addi	s4,sp,40
   18496:	03c00613          	li	a2,60
   1849a:	8552                	mv	a0,s4
   1849c:	4581                	li	a1,0
   1849e:	00006097          	auipc	ra,0x6
   184a2:	00a080e7          	jalr	10(ra) # 1e4a8 <memset>
   184a6:	8626                	mv	a2,s1
   184a8:	028103a3          	sb	s0,39(sp)
   184ac:	6505                	lui	a0,0x1
   184ae:	4491                	li	s1,4
   184b0:	4589                	li	a1,2
   184b2:	b3c50793          	addi	a5,a0,-1220 # b3c <.Lline_table_start1+0x911>
   184b6:	46f9                	li	a3,30
   184b8:	4711                	li	a4,4
   184ba:	853e                	mv	a0,a5
   184bc:	00000073          	ecall
   184c0:	00851863          	bne	a0,s0,184d0 <_ZN20complex_dynamic_type3app17hcec521b48812a62eE+0x66>
   184c4:	4505                	li	a0,1
   184c6:	00aa8023          	sb	a0,0(s5)
   184ca:	00baa223          	sw	a1,4(s5)
   184ce:	a0bd                	j	1853c <_ZN20complex_dynamic_type3app17hcec521b48812a62eE+0xd2>
   184d0:	853e                	mv	a0,a5
   184d2:	8652                	mv	a2,s4
   184d4:	00910423          	sb	s1,8(sp)
   184d8:	478d                	li	a5,3
   184da:	458d                	li	a1,3
   184dc:	03c00693          	li	a3,60
   184e0:	470d                	li	a4,3
   184e2:	00000073          	ecall
   184e6:	00851d63          	bne	a0,s0,18500 <_ZN20complex_dynamic_type3app17hcec521b48812a62eE+0x96>
   184ea:	02714703          	lbu	a4,39(sp)
   184ee:	4505                	li	a0,1
   184f0:	4609                	li	a2,2
   184f2:	00aa8023          	sb	a0,0(s5)
   184f6:	00baa223          	sw	a1,4(s5)
   184fa:	02c71963          	bne	a4,a2,1852c <_ZN20complex_dynamic_type3app17hcec521b48812a62eE+0xc2>
   184fe:	a83d                	j	1853c <_ZN20complex_dynamic_type3app17hcec521b48812a62eE+0xd2>
   18500:	4681                	li	a3,0
   18502:	02f103a3          	sb	a5,39(sp)
   18506:	6505                	lui	a0,0x1
   18508:	4589                	li	a1,2
   1850a:	460d                	li	a2,3
   1850c:	4709                	li	a4,2
   1850e:	b3c50513          	addi	a0,a0,-1220 # b3c <.Lline_table_start1+0x911>
   18512:	08000793          	li	a5,128
   18516:	00000073          	ecall
   1851a:	4609                	li	a2,2
   1851c:	04f57663          	bgeu	a0,a5,18568 <_ZN20complex_dynamic_type3app17hcec521b48812a62eE+0xfe>
   18520:	4505                	li	a0,1
   18522:	00aa8023          	sb	a0,0(s5)
   18526:	00baa223          	sw	a1,4(s5)
   1852a:	470d                	li	a4,3
   1852c:	6505                	lui	a0,0x1
   1852e:	b3c50513          	addi	a0,a0,-1220 # b3c <.Lline_table_start1+0x911>
   18532:	458d                	li	a1,3
   18534:	4601                	li	a2,0
   18536:	4681                	li	a3,0
   18538:	00000073          	ecall
   1853c:	00814703          	lbu	a4,8(sp)
   18540:	4509                	li	a0,2
   18542:	00a70a63          	beq	a4,a0,18556 <_ZN20complex_dynamic_type3app17hcec521b48812a62eE+0xec>
   18546:	6505                	lui	a0,0x1
   18548:	b3c50513          	addi	a0,a0,-1220 # b3c <.Lline_table_start1+0x911>
   1854c:	4589                	li	a1,2
   1854e:	4601                	li	a2,0
   18550:	4681                	li	a3,0
   18552:	00000073          	ecall
   18556:	50f6                	lw	ra,124(sp)
   18558:	5466                	lw	s0,120(sp)
   1855a:	54d6                	lw	s1,116(sp)
   1855c:	5946                	lw	s2,112(sp)
   1855e:	59b6                	lw	s3,108(sp)
   18560:	5a26                	lw	s4,104(sp)
   18562:	5a96                	lw	s5,100(sp)
   18564:	6109                	addi	sp,sp,128
   18566:	8082                	ret
   18568:	00814703          	lbu	a4,8(sp)
   1856c:	00c71463          	bne	a4,a2,18574 <_ZN20complex_dynamic_type3app17hcec521b48812a62eE+0x10a>
   18570:	470d                	li	a4,3
   18572:	a825                	j	185aa <_ZN20complex_dynamic_type3app17hcec521b48812a62eE+0x140>
   18574:	6505                	lui	a0,0x1
   18576:	b3c50513          	addi	a0,a0,-1220 # b3c <.Lline_table_start1+0x911>
   1857a:	4589                	li	a1,2
   1857c:	4601                	li	a2,0
   1857e:	4681                	li	a3,0
   18580:	00000073          	ecall
   18584:	02714703          	lbu	a4,39(sp)
   18588:	4509                	li	a0,2
   1858a:	00a10423          	sb	a0,8(sp)
   1858e:	00a71e63          	bne	a4,a0,185aa <_ZN20complex_dynamic_type3app17hcec521b48812a62eE+0x140>
   18592:	001a8513          	addi	a0,s5,1
   18596:	03c00613          	li	a2,60
   1859a:	85d2                	mv	a1,s4
   1859c:	00006097          	auipc	ra,0x6
   185a0:	f78080e7          	jalr	-136(ra) # 1e514 <memcpy>
   185a4:	000a8023          	sb	zero,0(s5)
   185a8:	b77d                	j	18556 <_ZN20complex_dynamic_type3app17hcec521b48812a62eE+0xec>
   185aa:	6505                	lui	a0,0x1
   185ac:	b3c50913          	addi	s2,a0,-1220 # b3c <.Lline_table_start1+0x911>
   185b0:	458d                	li	a1,3
   185b2:	854a                	mv	a0,s2
   185b4:	4601                	li	a2,0
   185b6:	4681                	li	a3,0
   185b8:	00000073          	ecall
   185bc:	00814983          	lbu	s3,8(sp)
   185c0:	001a8513          	addi	a0,s5,1
   185c4:	03c00613          	li	a2,60
   185c8:	85d2                	mv	a1,s4
   185ca:	00006097          	auipc	ra,0x6
   185ce:	f4a080e7          	jalr	-182(ra) # 1e514 <memcpy>
   185d2:	4509                	li	a0,2
   185d4:	000a8023          	sb	zero,0(s5)
   185d8:	f6a98fe3          	beq	s3,a0,18556 <_ZN20complex_dynamic_type3app17hcec521b48812a62eE+0xec>
   185dc:	4589                	li	a1,2
   185de:	854a                	mv	a0,s2
   185e0:	4601                	li	a2,0
   185e2:	4681                	li	a3,0
   185e4:	874e                	mv	a4,s3
   185e6:	00000073          	ecall
   185ea:	b7b5                	j	18556 <_ZN20complex_dynamic_type3app17hcec521b48812a62eE+0xec>

000185ec <_ZN20complex_dynamic_type3app17hd0ef04aa4ad96a2dE>:
   185ec:	7119                	addi	sp,sp,-128
   185ee:	de86                	sw	ra,124(sp)
   185f0:	dca2                	sw	s0,120(sp)
   185f2:	daa6                	sw	s1,116(sp)
   185f4:	d8ca                	sw	s2,112(sp)
   185f6:	d6ce                	sw	s3,108(sp)
   185f8:	d4d2                	sw	s4,104(sp)
   185fa:	d2d6                	sw	s5,100(sp)
   185fc:	8aaa                	mv	s5,a0
   185fe:	4409                	li	s0,2
   18600:	008107a3          	sb	s0,15(sp)
   18604:	0804                	addi	s1,sp,16
   18606:	02c00613          	li	a2,44
   1860a:	8526                	mv	a0,s1
   1860c:	00006097          	auipc	ra,0x6
   18610:	f08080e7          	jalr	-248(ra) # 1e514 <memcpy>
   18614:	03d10a13          	addi	s4,sp,61
   18618:	02700613          	li	a2,39
   1861c:	8552                	mv	a0,s4
   1861e:	4581                	li	a1,0
   18620:	00006097          	auipc	ra,0x6
   18624:	e88080e7          	jalr	-376(ra) # 1e4a8 <memset>
   18628:	8626                	mv	a2,s1
   1862a:	02810e23          	sb	s0,60(sp)
   1862e:	6505                	lui	a0,0x1
   18630:	4491                	li	s1,4
   18632:	4591                	li	a1,4
   18634:	1b550793          	addi	a5,a0,437 # 11b5 <.Lline_table_start1+0xf8a>
   18638:	02c00693          	li	a3,44
   1863c:	4711                	li	a4,4
   1863e:	853e                	mv	a0,a5
   18640:	00000073          	ecall
   18644:	00851863          	bne	a0,s0,18654 <_ZN20complex_dynamic_type3app17hd0ef04aa4ad96a2dE+0x68>
   18648:	4505                	li	a0,1
   1864a:	00aa8023          	sb	a0,0(s5)
   1864e:	00baa223          	sw	a1,4(s5)
   18652:	a0bd                	j	186c0 <_ZN20complex_dynamic_type3app17hd0ef04aa4ad96a2dE+0xd4>
   18654:	853e                	mv	a0,a5
   18656:	8652                	mv	a2,s4
   18658:	009107a3          	sb	s1,15(sp)
   1865c:	478d                	li	a5,3
   1865e:	458d                	li	a1,3
   18660:	02700693          	li	a3,39
   18664:	470d                	li	a4,3
   18666:	00000073          	ecall
   1866a:	00851d63          	bne	a0,s0,18684 <_ZN20complex_dynamic_type3app17hd0ef04aa4ad96a2dE+0x98>
   1866e:	03c14703          	lbu	a4,60(sp)
   18672:	4505                	li	a0,1
   18674:	4609                	li	a2,2
   18676:	00aa8023          	sb	a0,0(s5)
   1867a:	00baa223          	sw	a1,4(s5)
   1867e:	02c71963          	bne	a4,a2,186b0 <_ZN20complex_dynamic_type3app17hd0ef04aa4ad96a2dE+0xc4>
   18682:	a83d                	j	186c0 <_ZN20complex_dynamic_type3app17hd0ef04aa4ad96a2dE+0xd4>
   18684:	4681                	li	a3,0
   18686:	02f10e23          	sb	a5,60(sp)
   1868a:	6505                	lui	a0,0x1
   1868c:	4591                	li	a1,4
   1868e:	460d                	li	a2,3
   18690:	4709                	li	a4,2
   18692:	1b550513          	addi	a0,a0,437 # 11b5 <.Lline_table_start1+0xf8a>
   18696:	08000793          	li	a5,128
   1869a:	00000073          	ecall
   1869e:	4609                	li	a2,2
   186a0:	04f57663          	bgeu	a0,a5,186ec <_ZN20complex_dynamic_type3app17hd0ef04aa4ad96a2dE+0x100>
   186a4:	4505                	li	a0,1
   186a6:	00aa8023          	sb	a0,0(s5)
   186aa:	00baa223          	sw	a1,4(s5)
   186ae:	470d                	li	a4,3
   186b0:	6505                	lui	a0,0x1
   186b2:	1b550513          	addi	a0,a0,437 # 11b5 <.Lline_table_start1+0xf8a>
   186b6:	458d                	li	a1,3
   186b8:	4601                	li	a2,0
   186ba:	4681                	li	a3,0
   186bc:	00000073          	ecall
   186c0:	00f14703          	lbu	a4,15(sp)
   186c4:	4509                	li	a0,2
   186c6:	00a70a63          	beq	a4,a0,186da <_ZN20complex_dynamic_type3app17hd0ef04aa4ad96a2dE+0xee>
   186ca:	6505                	lui	a0,0x1
   186cc:	1b550513          	addi	a0,a0,437 # 11b5 <.Lline_table_start1+0xf8a>
   186d0:	4591                	li	a1,4
   186d2:	4601                	li	a2,0
   186d4:	4681                	li	a3,0
   186d6:	00000073          	ecall
   186da:	50f6                	lw	ra,124(sp)
   186dc:	5466                	lw	s0,120(sp)
   186de:	54d6                	lw	s1,116(sp)
   186e0:	5946                	lw	s2,112(sp)
   186e2:	59b6                	lw	s3,108(sp)
   186e4:	5a26                	lw	s4,104(sp)
   186e6:	5a96                	lw	s5,100(sp)
   186e8:	6109                	addi	sp,sp,128
   186ea:	8082                	ret
   186ec:	00f14703          	lbu	a4,15(sp)
   186f0:	00c71463          	bne	a4,a2,186f8 <_ZN20complex_dynamic_type3app17hd0ef04aa4ad96a2dE+0x10c>
   186f4:	470d                	li	a4,3
   186f6:	a825                	j	1872e <_ZN20complex_dynamic_type3app17hd0ef04aa4ad96a2dE+0x142>
   186f8:	6505                	lui	a0,0x1
   186fa:	1b550513          	addi	a0,a0,437 # 11b5 <.Lline_table_start1+0xf8a>
   186fe:	4591                	li	a1,4
   18700:	4601                	li	a2,0
   18702:	4681                	li	a3,0
   18704:	00000073          	ecall
   18708:	03c14703          	lbu	a4,60(sp)
   1870c:	4509                	li	a0,2
   1870e:	00a107a3          	sb	a0,15(sp)
   18712:	00a71e63          	bne	a4,a0,1872e <_ZN20complex_dynamic_type3app17hd0ef04aa4ad96a2dE+0x142>
   18716:	001a8513          	addi	a0,s5,1
   1871a:	02700613          	li	a2,39
   1871e:	85d2                	mv	a1,s4
   18720:	00006097          	auipc	ra,0x6
   18724:	df4080e7          	jalr	-524(ra) # 1e514 <memcpy>
   18728:	000a8023          	sb	zero,0(s5)
   1872c:	b77d                	j	186da <_ZN20complex_dynamic_type3app17hd0ef04aa4ad96a2dE+0xee>
   1872e:	6505                	lui	a0,0x1
   18730:	1b550913          	addi	s2,a0,437 # 11b5 <.Lline_table_start1+0xf8a>
   18734:	458d                	li	a1,3
   18736:	854a                	mv	a0,s2
   18738:	4601                	li	a2,0
   1873a:	4681                	li	a3,0
   1873c:	00000073          	ecall
   18740:	00f14983          	lbu	s3,15(sp)
   18744:	001a8513          	addi	a0,s5,1
   18748:	02700613          	li	a2,39
   1874c:	85d2                	mv	a1,s4
   1874e:	00006097          	auipc	ra,0x6
   18752:	dc6080e7          	jalr	-570(ra) # 1e514 <memcpy>
   18756:	4509                	li	a0,2
   18758:	000a8023          	sb	zero,0(s5)
   1875c:	f6a98fe3          	beq	s3,a0,186da <_ZN20complex_dynamic_type3app17hd0ef04aa4ad96a2dE+0xee>
   18760:	4591                	li	a1,4
   18762:	854a                	mv	a0,s2
   18764:	4601                	li	a2,0
   18766:	4681                	li	a3,0
   18768:	874e                	mv	a4,s3
   1876a:	00000073          	ecall
   1876e:	b7b5                	j	186da <_ZN20complex_dynamic_type3app17hd0ef04aa4ad96a2dE+0xee>

00018770 <_ZN20complex_dynamic_type3app17hd18f5c64f97ec030E>:
   18770:	7175                	addi	sp,sp,-144
   18772:	c706                	sw	ra,140(sp)
   18774:	c522                	sw	s0,136(sp)
   18776:	c326                	sw	s1,132(sp)
   18778:	c14a                	sw	s2,128(sp)
   1877a:	dece                	sw	s3,124(sp)
   1877c:	dcd2                	sw	s4,120(sp)
   1877e:	dad6                	sw	s5,116(sp)
   18780:	8aaa                	mv	s5,a0
   18782:	4409                	li	s0,2
   18784:	008100a3          	sb	s0,1(sp)
   18788:	00210493          	addi	s1,sp,2
   1878c:	04000613          	li	a2,64
   18790:	8526                	mv	a0,s1
   18792:	00006097          	auipc	ra,0x6
   18796:	d82080e7          	jalr	-638(ra) # 1e514 <memcpy>
   1879a:	04310a13          	addi	s4,sp,67
   1879e:	03100613          	li	a2,49
   187a2:	8552                	mv	a0,s4
   187a4:	4581                	li	a1,0
   187a6:	00006097          	auipc	ra,0x6
   187aa:	d02080e7          	jalr	-766(ra) # 1e4a8 <memset>
   187ae:	8626                	mv	a2,s1
   187b0:	04810123          	sb	s0,66(sp)
   187b4:	6505                	lui	a0,0x1
   187b6:	4491                	li	s1,4
   187b8:	45a1                	li	a1,8
   187ba:	fce50793          	addi	a5,a0,-50 # fce <.Lline_table_start1+0xda3>
   187be:	04000693          	li	a3,64
   187c2:	4711                	li	a4,4
   187c4:	853e                	mv	a0,a5
   187c6:	00000073          	ecall
   187ca:	00851863          	bne	a0,s0,187da <_ZN20complex_dynamic_type3app17hd18f5c64f97ec030E+0x6a>
   187ce:	4505                	li	a0,1
   187d0:	00aa8023          	sb	a0,0(s5)
   187d4:	00baa223          	sw	a1,4(s5)
   187d8:	a0bd                	j	18846 <_ZN20complex_dynamic_type3app17hd18f5c64f97ec030E+0xd6>
   187da:	853e                	mv	a0,a5
   187dc:	8652                	mv	a2,s4
   187de:	009100a3          	sb	s1,1(sp)
   187e2:	478d                	li	a5,3
   187e4:	4595                	li	a1,5
   187e6:	03100693          	li	a3,49
   187ea:	470d                	li	a4,3
   187ec:	00000073          	ecall
   187f0:	00851d63          	bne	a0,s0,1880a <_ZN20complex_dynamic_type3app17hd18f5c64f97ec030E+0x9a>
   187f4:	04214703          	lbu	a4,66(sp)
   187f8:	4505                	li	a0,1
   187fa:	4609                	li	a2,2
   187fc:	00aa8023          	sb	a0,0(s5)
   18800:	00baa223          	sw	a1,4(s5)
   18804:	02c71963          	bne	a4,a2,18836 <_ZN20complex_dynamic_type3app17hd18f5c64f97ec030E+0xc6>
   18808:	a83d                	j	18846 <_ZN20complex_dynamic_type3app17hd18f5c64f97ec030E+0xd6>
   1880a:	4681                	li	a3,0
   1880c:	04f10123          	sb	a5,66(sp)
   18810:	6505                	lui	a0,0x1
   18812:	45a1                	li	a1,8
   18814:	4615                	li	a2,5
   18816:	4709                	li	a4,2
   18818:	fce50513          	addi	a0,a0,-50 # fce <.Lline_table_start1+0xda3>
   1881c:	08000793          	li	a5,128
   18820:	00000073          	ecall
   18824:	4609                	li	a2,2
   18826:	04f57663          	bgeu	a0,a5,18872 <_ZN20complex_dynamic_type3app17hd18f5c64f97ec030E+0x102>
   1882a:	4505                	li	a0,1
   1882c:	00aa8023          	sb	a0,0(s5)
   18830:	00baa223          	sw	a1,4(s5)
   18834:	470d                	li	a4,3
   18836:	6505                	lui	a0,0x1
   18838:	fce50513          	addi	a0,a0,-50 # fce <.Lline_table_start1+0xda3>
   1883c:	4595                	li	a1,5
   1883e:	4601                	li	a2,0
   18840:	4681                	li	a3,0
   18842:	00000073          	ecall
   18846:	00114703          	lbu	a4,1(sp)
   1884a:	4509                	li	a0,2
   1884c:	00a70a63          	beq	a4,a0,18860 <_ZN20complex_dynamic_type3app17hd18f5c64f97ec030E+0xf0>
   18850:	6505                	lui	a0,0x1
   18852:	fce50513          	addi	a0,a0,-50 # fce <.Lline_table_start1+0xda3>
   18856:	45a1                	li	a1,8
   18858:	4601                	li	a2,0
   1885a:	4681                	li	a3,0
   1885c:	00000073          	ecall
   18860:	40ba                	lw	ra,140(sp)
   18862:	442a                	lw	s0,136(sp)
   18864:	449a                	lw	s1,132(sp)
   18866:	490a                	lw	s2,128(sp)
   18868:	59f6                	lw	s3,124(sp)
   1886a:	5a66                	lw	s4,120(sp)
   1886c:	5ad6                	lw	s5,116(sp)
   1886e:	6149                	addi	sp,sp,144
   18870:	8082                	ret
   18872:	00114703          	lbu	a4,1(sp)
   18876:	00c71463          	bne	a4,a2,1887e <_ZN20complex_dynamic_type3app17hd18f5c64f97ec030E+0x10e>
   1887a:	470d                	li	a4,3
   1887c:	a825                	j	188b4 <_ZN20complex_dynamic_type3app17hd18f5c64f97ec030E+0x144>
   1887e:	6505                	lui	a0,0x1
   18880:	fce50513          	addi	a0,a0,-50 # fce <.Lline_table_start1+0xda3>
   18884:	45a1                	li	a1,8
   18886:	4601                	li	a2,0
   18888:	4681                	li	a3,0
   1888a:	00000073          	ecall
   1888e:	04214703          	lbu	a4,66(sp)
   18892:	4509                	li	a0,2
   18894:	00a100a3          	sb	a0,1(sp)
   18898:	00a71e63          	bne	a4,a0,188b4 <_ZN20complex_dynamic_type3app17hd18f5c64f97ec030E+0x144>
   1889c:	001a8513          	addi	a0,s5,1
   188a0:	03100613          	li	a2,49
   188a4:	85d2                	mv	a1,s4
   188a6:	00006097          	auipc	ra,0x6
   188aa:	c6e080e7          	jalr	-914(ra) # 1e514 <memcpy>
   188ae:	000a8023          	sb	zero,0(s5)
   188b2:	b77d                	j	18860 <_ZN20complex_dynamic_type3app17hd18f5c64f97ec030E+0xf0>
   188b4:	6505                	lui	a0,0x1
   188b6:	fce50913          	addi	s2,a0,-50 # fce <.Lline_table_start1+0xda3>
   188ba:	4595                	li	a1,5
   188bc:	854a                	mv	a0,s2
   188be:	4601                	li	a2,0
   188c0:	4681                	li	a3,0
   188c2:	00000073          	ecall
   188c6:	00114983          	lbu	s3,1(sp)
   188ca:	001a8513          	addi	a0,s5,1
   188ce:	03100613          	li	a2,49
   188d2:	85d2                	mv	a1,s4
   188d4:	00006097          	auipc	ra,0x6
   188d8:	c40080e7          	jalr	-960(ra) # 1e514 <memcpy>
   188dc:	4509                	li	a0,2
   188de:	000a8023          	sb	zero,0(s5)
   188e2:	f6a98fe3          	beq	s3,a0,18860 <_ZN20complex_dynamic_type3app17hd18f5c64f97ec030E+0xf0>
   188e6:	45a1                	li	a1,8
   188e8:	854a                	mv	a0,s2
   188ea:	4601                	li	a2,0
   188ec:	4681                	li	a3,0
   188ee:	874e                	mv	a4,s3
   188f0:	00000073          	ecall
   188f4:	b7b5                	j	18860 <_ZN20complex_dynamic_type3app17hd18f5c64f97ec030E+0xf0>

000188f6 <_ZN20complex_dynamic_type3app17hd2a0eea8f0919b92E>:
   188f6:	7131                	addi	sp,sp,-192
   188f8:	df06                	sw	ra,188(sp)
   188fa:	dd22                	sw	s0,184(sp)
   188fc:	db26                	sw	s1,180(sp)
   188fe:	d94a                	sw	s2,176(sp)
   18900:	d74e                	sw	s3,172(sp)
   18902:	d552                	sw	s4,168(sp)
   18904:	d356                	sw	s5,164(sp)
   18906:	8aaa                	mv	s5,a0
   18908:	4409                	li	s0,2
   1890a:	008102a3          	sb	s0,5(sp)
   1890e:	00610493          	addi	s1,sp,6
   18912:	05d00613          	li	a2,93
   18916:	8526                	mv	a0,s1
   18918:	00006097          	auipc	ra,0x6
   1891c:	bfc080e7          	jalr	-1028(ra) # 1e514 <memcpy>
   18920:	06410a13          	addi	s4,sp,100
   18924:	04000613          	li	a2,64
   18928:	8552                	mv	a0,s4
   1892a:	4581                	li	a1,0
   1892c:	00006097          	auipc	ra,0x6
   18930:	b7c080e7          	jalr	-1156(ra) # 1e4a8 <memset>
   18934:	8626                	mv	a2,s1
   18936:	068101a3          	sb	s0,99(sp)
   1893a:	6505                	lui	a0,0x1
   1893c:	4491                	li	s1,4
   1893e:	45a1                	li	a1,8
   18940:	02850793          	addi	a5,a0,40 # 1028 <.Lline_table_start1+0xdfd>
   18944:	05d00693          	li	a3,93
   18948:	4711                	li	a4,4
   1894a:	853e                	mv	a0,a5
   1894c:	00000073          	ecall
   18950:	00851863          	bne	a0,s0,18960 <_ZN20complex_dynamic_type3app17hd2a0eea8f0919b92E+0x6a>
   18954:	4505                	li	a0,1
   18956:	00aa8023          	sb	a0,0(s5)
   1895a:	00baa223          	sw	a1,4(s5)
   1895e:	a0bd                	j	189cc <_ZN20complex_dynamic_type3app17hd2a0eea8f0919b92E+0xd6>
   18960:	853e                	mv	a0,a5
   18962:	8652                	mv	a2,s4
   18964:	009102a3          	sb	s1,5(sp)
   18968:	478d                	li	a5,3
   1896a:	4591                	li	a1,4
   1896c:	04000693          	li	a3,64
   18970:	470d                	li	a4,3
   18972:	00000073          	ecall
   18976:	00851d63          	bne	a0,s0,18990 <_ZN20complex_dynamic_type3app17hd2a0eea8f0919b92E+0x9a>
   1897a:	06314703          	lbu	a4,99(sp)
   1897e:	4505                	li	a0,1
   18980:	4609                	li	a2,2
   18982:	00aa8023          	sb	a0,0(s5)
   18986:	00baa223          	sw	a1,4(s5)
   1898a:	02c71963          	bne	a4,a2,189bc <_ZN20complex_dynamic_type3app17hd2a0eea8f0919b92E+0xc6>
   1898e:	a83d                	j	189cc <_ZN20complex_dynamic_type3app17hd2a0eea8f0919b92E+0xd6>
   18990:	4681                	li	a3,0
   18992:	06f101a3          	sb	a5,99(sp)
   18996:	6505                	lui	a0,0x1
   18998:	45a1                	li	a1,8
   1899a:	4611                	li	a2,4
   1899c:	4709                	li	a4,2
   1899e:	02850513          	addi	a0,a0,40 # 1028 <.Lline_table_start1+0xdfd>
   189a2:	08000793          	li	a5,128
   189a6:	00000073          	ecall
   189aa:	4609                	li	a2,2
   189ac:	04f57663          	bgeu	a0,a5,189f8 <_ZN20complex_dynamic_type3app17hd2a0eea8f0919b92E+0x102>
   189b0:	4505                	li	a0,1
   189b2:	00aa8023          	sb	a0,0(s5)
   189b6:	00baa223          	sw	a1,4(s5)
   189ba:	470d                	li	a4,3
   189bc:	6505                	lui	a0,0x1
   189be:	02850513          	addi	a0,a0,40 # 1028 <.Lline_table_start1+0xdfd>
   189c2:	4591                	li	a1,4
   189c4:	4601                	li	a2,0
   189c6:	4681                	li	a3,0
   189c8:	00000073          	ecall
   189cc:	00514703          	lbu	a4,5(sp)
   189d0:	4509                	li	a0,2
   189d2:	00a70a63          	beq	a4,a0,189e6 <_ZN20complex_dynamic_type3app17hd2a0eea8f0919b92E+0xf0>
   189d6:	6505                	lui	a0,0x1
   189d8:	02850513          	addi	a0,a0,40 # 1028 <.Lline_table_start1+0xdfd>
   189dc:	45a1                	li	a1,8
   189de:	4601                	li	a2,0
   189e0:	4681                	li	a3,0
   189e2:	00000073          	ecall
   189e6:	50fa                	lw	ra,188(sp)
   189e8:	546a                	lw	s0,184(sp)
   189ea:	54da                	lw	s1,180(sp)
   189ec:	594a                	lw	s2,176(sp)
   189ee:	59ba                	lw	s3,172(sp)
   189f0:	5a2a                	lw	s4,168(sp)
   189f2:	5a9a                	lw	s5,164(sp)
   189f4:	6129                	addi	sp,sp,192
   189f6:	8082                	ret
   189f8:	00514703          	lbu	a4,5(sp)
   189fc:	00c71463          	bne	a4,a2,18a04 <_ZN20complex_dynamic_type3app17hd2a0eea8f0919b92E+0x10e>
   18a00:	470d                	li	a4,3
   18a02:	a825                	j	18a3a <_ZN20complex_dynamic_type3app17hd2a0eea8f0919b92E+0x144>
   18a04:	6505                	lui	a0,0x1
   18a06:	02850513          	addi	a0,a0,40 # 1028 <.Lline_table_start1+0xdfd>
   18a0a:	45a1                	li	a1,8
   18a0c:	4601                	li	a2,0
   18a0e:	4681                	li	a3,0
   18a10:	00000073          	ecall
   18a14:	06314703          	lbu	a4,99(sp)
   18a18:	4509                	li	a0,2
   18a1a:	00a102a3          	sb	a0,5(sp)
   18a1e:	00a71e63          	bne	a4,a0,18a3a <_ZN20complex_dynamic_type3app17hd2a0eea8f0919b92E+0x144>
   18a22:	001a8513          	addi	a0,s5,1
   18a26:	04000613          	li	a2,64
   18a2a:	85d2                	mv	a1,s4
   18a2c:	00006097          	auipc	ra,0x6
   18a30:	ae8080e7          	jalr	-1304(ra) # 1e514 <memcpy>
   18a34:	000a8023          	sb	zero,0(s5)
   18a38:	b77d                	j	189e6 <_ZN20complex_dynamic_type3app17hd2a0eea8f0919b92E+0xf0>
   18a3a:	6505                	lui	a0,0x1
   18a3c:	02850913          	addi	s2,a0,40 # 1028 <.Lline_table_start1+0xdfd>
   18a40:	4591                	li	a1,4
   18a42:	854a                	mv	a0,s2
   18a44:	4601                	li	a2,0
   18a46:	4681                	li	a3,0
   18a48:	00000073          	ecall
   18a4c:	00514983          	lbu	s3,5(sp)
   18a50:	001a8513          	addi	a0,s5,1
   18a54:	04000613          	li	a2,64
   18a58:	85d2                	mv	a1,s4
   18a5a:	00006097          	auipc	ra,0x6
   18a5e:	aba080e7          	jalr	-1350(ra) # 1e514 <memcpy>
   18a62:	4509                	li	a0,2
   18a64:	000a8023          	sb	zero,0(s5)
   18a68:	f6a98fe3          	beq	s3,a0,189e6 <_ZN20complex_dynamic_type3app17hd2a0eea8f0919b92E+0xf0>
   18a6c:	45a1                	li	a1,8
   18a6e:	854a                	mv	a0,s2
   18a70:	4601                	li	a2,0
   18a72:	4681                	li	a3,0
   18a74:	874e                	mv	a4,s3
   18a76:	00000073          	ecall
   18a7a:	b7b5                	j	189e6 <_ZN20complex_dynamic_type3app17hd2a0eea8f0919b92E+0xf0>

00018a7c <_ZN20complex_dynamic_type3app17hd646001e35d532fbE>:
   18a7c:	7135                	addi	sp,sp,-160
   18a7e:	cf06                	sw	ra,156(sp)
   18a80:	cd22                	sw	s0,152(sp)
   18a82:	cb26                	sw	s1,148(sp)
   18a84:	c94a                	sw	s2,144(sp)
   18a86:	c74e                	sw	s3,140(sp)
   18a88:	c552                	sw	s4,136(sp)
   18a8a:	c356                	sw	s5,132(sp)
   18a8c:	8aaa                	mv	s5,a0
   18a8e:	4409                	li	s0,2
   18a90:	00810723          	sb	s0,14(sp)
   18a94:	00f10493          	addi	s1,sp,15
   18a98:	03500613          	li	a2,53
   18a9c:	8526                	mv	a0,s1
   18a9e:	00006097          	auipc	ra,0x6
   18aa2:	a76080e7          	jalr	-1418(ra) # 1e514 <memcpy>
   18aa6:	04510a13          	addi	s4,sp,69
   18aaa:	03f00613          	li	a2,63
   18aae:	8552                	mv	a0,s4
   18ab0:	4581                	li	a1,0
   18ab2:	00006097          	auipc	ra,0x6
   18ab6:	9f6080e7          	jalr	-1546(ra) # 1e4a8 <memset>
   18aba:	4581                	li	a1,0
   18abc:	8626                	mv	a2,s1
   18abe:	04810223          	sb	s0,68(sp)
   18ac2:	6505                	lui	a0,0x1
   18ac4:	4491                	li	s1,4
   18ac6:	e5750793          	addi	a5,a0,-425 # e57 <.Lline_table_start1+0xc2c>
   18aca:	03500693          	li	a3,53
   18ace:	4711                	li	a4,4
   18ad0:	853e                	mv	a0,a5
   18ad2:	00000073          	ecall
   18ad6:	00851863          	bne	a0,s0,18ae6 <_ZN20complex_dynamic_type3app17hd646001e35d532fbE+0x6a>
   18ada:	4505                	li	a0,1
   18adc:	00aa8023          	sb	a0,0(s5)
   18ae0:	00baa223          	sw	a1,4(s5)
   18ae4:	a0bd                	j	18b52 <_ZN20complex_dynamic_type3app17hd646001e35d532fbE+0xd6>
   18ae6:	853e                	mv	a0,a5
   18ae8:	8652                	mv	a2,s4
   18aea:	00910723          	sb	s1,14(sp)
   18aee:	478d                	li	a5,3
   18af0:	458d                	li	a1,3
   18af2:	03f00693          	li	a3,63
   18af6:	470d                	li	a4,3
   18af8:	00000073          	ecall
   18afc:	00851d63          	bne	a0,s0,18b16 <_ZN20complex_dynamic_type3app17hd646001e35d532fbE+0x9a>
   18b00:	04414703          	lbu	a4,68(sp)
   18b04:	4505                	li	a0,1
   18b06:	4609                	li	a2,2
   18b08:	00aa8023          	sb	a0,0(s5)
   18b0c:	00baa223          	sw	a1,4(s5)
   18b10:	02c71963          	bne	a4,a2,18b42 <_ZN20complex_dynamic_type3app17hd646001e35d532fbE+0xc6>
   18b14:	a83d                	j	18b52 <_ZN20complex_dynamic_type3app17hd646001e35d532fbE+0xd6>
   18b16:	4581                	li	a1,0
   18b18:	4681                	li	a3,0
   18b1a:	04f10223          	sb	a5,68(sp)
   18b1e:	6505                	lui	a0,0x1
   18b20:	460d                	li	a2,3
   18b22:	4709                	li	a4,2
   18b24:	e5750513          	addi	a0,a0,-425 # e57 <.Lline_table_start1+0xc2c>
   18b28:	08000793          	li	a5,128
   18b2c:	00000073          	ecall
   18b30:	4609                	li	a2,2
   18b32:	04f57663          	bgeu	a0,a5,18b7e <_ZN20complex_dynamic_type3app17hd646001e35d532fbE+0x102>
   18b36:	4505                	li	a0,1
   18b38:	00aa8023          	sb	a0,0(s5)
   18b3c:	00baa223          	sw	a1,4(s5)
   18b40:	470d                	li	a4,3
   18b42:	6505                	lui	a0,0x1
   18b44:	e5750513          	addi	a0,a0,-425 # e57 <.Lline_table_start1+0xc2c>
   18b48:	458d                	li	a1,3
   18b4a:	4601                	li	a2,0
   18b4c:	4681                	li	a3,0
   18b4e:	00000073          	ecall
   18b52:	00e14703          	lbu	a4,14(sp)
   18b56:	4509                	li	a0,2
   18b58:	00a70a63          	beq	a4,a0,18b6c <_ZN20complex_dynamic_type3app17hd646001e35d532fbE+0xf0>
   18b5c:	6505                	lui	a0,0x1
   18b5e:	e5750513          	addi	a0,a0,-425 # e57 <.Lline_table_start1+0xc2c>
   18b62:	4581                	li	a1,0
   18b64:	4601                	li	a2,0
   18b66:	4681                	li	a3,0
   18b68:	00000073          	ecall
   18b6c:	40fa                	lw	ra,156(sp)
   18b6e:	446a                	lw	s0,152(sp)
   18b70:	44da                	lw	s1,148(sp)
   18b72:	494a                	lw	s2,144(sp)
   18b74:	49ba                	lw	s3,140(sp)
   18b76:	4a2a                	lw	s4,136(sp)
   18b78:	4a9a                	lw	s5,132(sp)
   18b7a:	610d                	addi	sp,sp,160
   18b7c:	8082                	ret
   18b7e:	00e14703          	lbu	a4,14(sp)
   18b82:	00c71463          	bne	a4,a2,18b8a <_ZN20complex_dynamic_type3app17hd646001e35d532fbE+0x10e>
   18b86:	470d                	li	a4,3
   18b88:	a825                	j	18bc0 <_ZN20complex_dynamic_type3app17hd646001e35d532fbE+0x144>
   18b8a:	6505                	lui	a0,0x1
   18b8c:	e5750513          	addi	a0,a0,-425 # e57 <.Lline_table_start1+0xc2c>
   18b90:	4581                	li	a1,0
   18b92:	4601                	li	a2,0
   18b94:	4681                	li	a3,0
   18b96:	00000073          	ecall
   18b9a:	04414703          	lbu	a4,68(sp)
   18b9e:	4509                	li	a0,2
   18ba0:	00a10723          	sb	a0,14(sp)
   18ba4:	00a71e63          	bne	a4,a0,18bc0 <_ZN20complex_dynamic_type3app17hd646001e35d532fbE+0x144>
   18ba8:	001a8513          	addi	a0,s5,1
   18bac:	03f00613          	li	a2,63
   18bb0:	85d2                	mv	a1,s4
   18bb2:	00006097          	auipc	ra,0x6
   18bb6:	962080e7          	jalr	-1694(ra) # 1e514 <memcpy>
   18bba:	000a8023          	sb	zero,0(s5)
   18bbe:	b77d                	j	18b6c <_ZN20complex_dynamic_type3app17hd646001e35d532fbE+0xf0>
   18bc0:	6505                	lui	a0,0x1
   18bc2:	e5750913          	addi	s2,a0,-425 # e57 <.Lline_table_start1+0xc2c>
   18bc6:	458d                	li	a1,3
   18bc8:	854a                	mv	a0,s2
   18bca:	4601                	li	a2,0
   18bcc:	4681                	li	a3,0
   18bce:	00000073          	ecall
   18bd2:	00e14983          	lbu	s3,14(sp)
   18bd6:	001a8513          	addi	a0,s5,1
   18bda:	03f00613          	li	a2,63
   18bde:	85d2                	mv	a1,s4
   18be0:	00006097          	auipc	ra,0x6
   18be4:	934080e7          	jalr	-1740(ra) # 1e514 <memcpy>
   18be8:	4509                	li	a0,2
   18bea:	000a8023          	sb	zero,0(s5)
   18bee:	f6a98fe3          	beq	s3,a0,18b6c <_ZN20complex_dynamic_type3app17hd646001e35d532fbE+0xf0>
   18bf2:	854a                	mv	a0,s2
   18bf4:	4581                	li	a1,0
   18bf6:	4601                	li	a2,0
   18bf8:	4681                	li	a3,0
   18bfa:	874e                	mv	a4,s3
   18bfc:	00000073          	ecall
   18c00:	b7b5                	j	18b6c <_ZN20complex_dynamic_type3app17hd646001e35d532fbE+0xf0>

00018c02 <_ZN20complex_dynamic_type3app17hd830c65e2b28a9a9E>:
   18c02:	7119                	addi	sp,sp,-128
   18c04:	de86                	sw	ra,124(sp)
   18c06:	dca2                	sw	s0,120(sp)
   18c08:	daa6                	sw	s1,116(sp)
   18c0a:	d8ca                	sw	s2,112(sp)
   18c0c:	d6ce                	sw	s3,108(sp)
   18c0e:	d4d2                	sw	s4,104(sp)
   18c10:	d2d6                	sw	s5,100(sp)
   18c12:	8aaa                	mv	s5,a0
   18c14:	4409                	li	s0,2
   18c16:	008104a3          	sb	s0,9(sp)
   18c1a:	00a10493          	addi	s1,sp,10
   18c1e:	04100613          	li	a2,65
   18c22:	8526                	mv	a0,s1
   18c24:	00006097          	auipc	ra,0x6
   18c28:	8f0080e7          	jalr	-1808(ra) # 1e514 <memcpy>
   18c2c:	04c10a13          	addi	s4,sp,76
   18c30:	4661                	li	a2,24
   18c32:	8552                	mv	a0,s4
   18c34:	4581                	li	a1,0
   18c36:	00006097          	auipc	ra,0x6
   18c3a:	872080e7          	jalr	-1934(ra) # 1e4a8 <memset>
   18c3e:	8626                	mv	a2,s1
   18c40:	048105a3          	sb	s0,75(sp)
   18c44:	6509                	lui	a0,0x2
   18c46:	4805                	li	a6,1
   18c48:	4491                	li	s1,4
   18c4a:	4585                	li	a1,1
   18c4c:	15650793          	addi	a5,a0,342 # 2156 <.Lline_table_start1+0x1f2b>
   18c50:	04100693          	li	a3,65
   18c54:	4711                	li	a4,4
   18c56:	853e                	mv	a0,a5
   18c58:	00000073          	ecall
   18c5c:	00851763          	bne	a0,s0,18c6a <_ZN20complex_dynamic_type3app17hd830c65e2b28a9a9E+0x68>
   18c60:	010a8023          	sb	a6,0(s5)
   18c64:	00baa223          	sw	a1,4(s5)
   18c68:	a0b5                	j	18cd4 <_ZN20complex_dynamic_type3app17hd830c65e2b28a9a9E+0xd2>
   18c6a:	853e                	mv	a0,a5
   18c6c:	8652                	mv	a2,s4
   18c6e:	009104a3          	sb	s1,9(sp)
   18c72:	478d                	li	a5,3
   18c74:	45a5                	li	a1,9
   18c76:	46e1                	li	a3,24
   18c78:	470d                	li	a4,3
   18c7a:	00000073          	ecall
   18c7e:	00851d63          	bne	a0,s0,18c98 <_ZN20complex_dynamic_type3app17hd830c65e2b28a9a9E+0x96>
   18c82:	04b14703          	lbu	a4,75(sp)
   18c86:	4505                	li	a0,1
   18c88:	4609                	li	a2,2
   18c8a:	00aa8023          	sb	a0,0(s5)
   18c8e:	00baa223          	sw	a1,4(s5)
   18c92:	02c71963          	bne	a4,a2,18cc4 <_ZN20complex_dynamic_type3app17hd830c65e2b28a9a9E+0xc2>
   18c96:	a83d                	j	18cd4 <_ZN20complex_dynamic_type3app17hd830c65e2b28a9a9E+0xd2>
   18c98:	4681                	li	a3,0
   18c9a:	04f105a3          	sb	a5,75(sp)
   18c9e:	6509                	lui	a0,0x2
   18ca0:	4785                	li	a5,1
   18ca2:	4585                	li	a1,1
   18ca4:	4625                	li	a2,9
   18ca6:	4709                	li	a4,2
   18ca8:	15650513          	addi	a0,a0,342 # 2156 <.Lline_table_start1+0x1f2b>
   18cac:	08000493          	li	s1,128
   18cb0:	00000073          	ecall
   18cb4:	4609                	li	a2,2
   18cb6:	04957563          	bgeu	a0,s1,18d00 <_ZN20complex_dynamic_type3app17hd830c65e2b28a9a9E+0xfe>
   18cba:	00fa8023          	sb	a5,0(s5)
   18cbe:	00baa223          	sw	a1,4(s5)
   18cc2:	470d                	li	a4,3
   18cc4:	6509                	lui	a0,0x2
   18cc6:	15650513          	addi	a0,a0,342 # 2156 <.Lline_table_start1+0x1f2b>
   18cca:	45a5                	li	a1,9
   18ccc:	4601                	li	a2,0
   18cce:	4681                	li	a3,0
   18cd0:	00000073          	ecall
   18cd4:	00914703          	lbu	a4,9(sp)
   18cd8:	4509                	li	a0,2
   18cda:	00a70a63          	beq	a4,a0,18cee <_ZN20complex_dynamic_type3app17hd830c65e2b28a9a9E+0xec>
   18cde:	6509                	lui	a0,0x2
   18ce0:	15650513          	addi	a0,a0,342 # 2156 <.Lline_table_start1+0x1f2b>
   18ce4:	4585                	li	a1,1
   18ce6:	4601                	li	a2,0
   18ce8:	4681                	li	a3,0
   18cea:	00000073          	ecall
   18cee:	50f6                	lw	ra,124(sp)
   18cf0:	5466                	lw	s0,120(sp)
   18cf2:	54d6                	lw	s1,116(sp)
   18cf4:	5946                	lw	s2,112(sp)
   18cf6:	59b6                	lw	s3,108(sp)
   18cf8:	5a26                	lw	s4,104(sp)
   18cfa:	5a96                	lw	s5,100(sp)
   18cfc:	6109                	addi	sp,sp,128
   18cfe:	8082                	ret
   18d00:	00914703          	lbu	a4,9(sp)
   18d04:	00c71463          	bne	a4,a2,18d0c <_ZN20complex_dynamic_type3app17hd830c65e2b28a9a9E+0x10a>
   18d08:	470d                	li	a4,3
   18d0a:	a81d                	j	18d40 <_ZN20complex_dynamic_type3app17hd830c65e2b28a9a9E+0x13e>
   18d0c:	6509                	lui	a0,0x2
   18d0e:	15650513          	addi	a0,a0,342 # 2156 <.Lline_table_start1+0x1f2b>
   18d12:	4585                	li	a1,1
   18d14:	4601                	li	a2,0
   18d16:	4681                	li	a3,0
   18d18:	00000073          	ecall
   18d1c:	04b14703          	lbu	a4,75(sp)
   18d20:	4509                	li	a0,2
   18d22:	00a104a3          	sb	a0,9(sp)
   18d26:	00a71d63          	bne	a4,a0,18d40 <_ZN20complex_dynamic_type3app17hd830c65e2b28a9a9E+0x13e>
   18d2a:	001a8513          	addi	a0,s5,1
   18d2e:	4661                	li	a2,24
   18d30:	85d2                	mv	a1,s4
   18d32:	00005097          	auipc	ra,0x5
   18d36:	7e2080e7          	jalr	2018(ra) # 1e514 <memcpy>
   18d3a:	000a8023          	sb	zero,0(s5)
   18d3e:	bf45                	j	18cee <_ZN20complex_dynamic_type3app17hd830c65e2b28a9a9E+0xec>
   18d40:	6509                	lui	a0,0x2
   18d42:	15650913          	addi	s2,a0,342 # 2156 <.Lline_table_start1+0x1f2b>
   18d46:	45a5                	li	a1,9
   18d48:	854a                	mv	a0,s2
   18d4a:	4601                	li	a2,0
   18d4c:	4681                	li	a3,0
   18d4e:	00000073          	ecall
   18d52:	00914983          	lbu	s3,9(sp)
   18d56:	001a8513          	addi	a0,s5,1
   18d5a:	4661                	li	a2,24
   18d5c:	85d2                	mv	a1,s4
   18d5e:	00005097          	auipc	ra,0x5
   18d62:	7b6080e7          	jalr	1974(ra) # 1e514 <memcpy>
   18d66:	4509                	li	a0,2
   18d68:	000a8023          	sb	zero,0(s5)
   18d6c:	f8a981e3          	beq	s3,a0,18cee <_ZN20complex_dynamic_type3app17hd830c65e2b28a9a9E+0xec>
   18d70:	4585                	li	a1,1
   18d72:	854a                	mv	a0,s2
   18d74:	4601                	li	a2,0
   18d76:	4681                	li	a3,0
   18d78:	874e                	mv	a4,s3
   18d7a:	00000073          	ecall
   18d7e:	bf85                	j	18cee <_ZN20complex_dynamic_type3app17hd830c65e2b28a9a9E+0xec>

00018d80 <_ZN20complex_dynamic_type3app17hdb7b2fd1a3a80052E>:
   18d80:	711d                	addi	sp,sp,-96
   18d82:	ce86                	sw	ra,92(sp)
   18d84:	cca2                	sw	s0,88(sp)
   18d86:	caa6                	sw	s1,84(sp)
   18d88:	c8ca                	sw	s2,80(sp)
   18d8a:	c6ce                	sw	s3,76(sp)
   18d8c:	c4d2                	sw	s4,72(sp)
   18d8e:	c2d6                	sw	s5,68(sp)
   18d90:	8aaa                	mv	s5,a0
   18d92:	4409                	li	s0,2
   18d94:	00810523          	sb	s0,10(sp)
   18d98:	00b10493          	addi	s1,sp,11
   18d9c:	02b00613          	li	a2,43
   18da0:	8526                	mv	a0,s1
   18da2:	00005097          	auipc	ra,0x5
   18da6:	772080e7          	jalr	1906(ra) # 1e514 <memcpy>
   18daa:	03710a13          	addi	s4,sp,55
   18dae:	4635                	li	a2,13
   18db0:	8552                	mv	a0,s4
   18db2:	4581                	li	a1,0
   18db4:	00005097          	auipc	ra,0x5
   18db8:	6f4080e7          	jalr	1780(ra) # 1e4a8 <memset>
   18dbc:	8626                	mv	a2,s1
   18dbe:	02810b23          	sb	s0,54(sp)
   18dc2:	6505                	lui	a0,0x1
   18dc4:	4491                	li	s1,4
   18dc6:	4599                	li	a1,6
   18dc8:	46550793          	addi	a5,a0,1125 # 1465 <.Lline_table_start1+0x123a>
   18dcc:	02b00693          	li	a3,43
   18dd0:	4711                	li	a4,4
   18dd2:	853e                	mv	a0,a5
   18dd4:	00000073          	ecall
   18dd8:	00851863          	bne	a0,s0,18de8 <_ZN20complex_dynamic_type3app17hdb7b2fd1a3a80052E+0x68>
   18ddc:	4505                	li	a0,1
   18dde:	00aa8023          	sb	a0,0(s5)
   18de2:	00baa223          	sw	a1,4(s5)
   18de6:	a0b5                	j	18e52 <_ZN20complex_dynamic_type3app17hdb7b2fd1a3a80052E+0xd2>
   18de8:	853e                	mv	a0,a5
   18dea:	4581                	li	a1,0
   18dec:	8652                	mv	a2,s4
   18dee:	00910523          	sb	s1,10(sp)
   18df2:	478d                	li	a5,3
   18df4:	46b5                	li	a3,13
   18df6:	470d                	li	a4,3
   18df8:	00000073          	ecall
   18dfc:	00851d63          	bne	a0,s0,18e16 <_ZN20complex_dynamic_type3app17hdb7b2fd1a3a80052E+0x96>
   18e00:	03614703          	lbu	a4,54(sp)
   18e04:	4505                	li	a0,1
   18e06:	4609                	li	a2,2
   18e08:	00aa8023          	sb	a0,0(s5)
   18e0c:	00baa223          	sw	a1,4(s5)
   18e10:	02c71963          	bne	a4,a2,18e42 <_ZN20complex_dynamic_type3app17hdb7b2fd1a3a80052E+0xc2>
   18e14:	a83d                	j	18e52 <_ZN20complex_dynamic_type3app17hdb7b2fd1a3a80052E+0xd2>
   18e16:	4601                	li	a2,0
   18e18:	4681                	li	a3,0
   18e1a:	02f10b23          	sb	a5,54(sp)
   18e1e:	6505                	lui	a0,0x1
   18e20:	4599                	li	a1,6
   18e22:	4709                	li	a4,2
   18e24:	46550513          	addi	a0,a0,1125 # 1465 <.Lline_table_start1+0x123a>
   18e28:	08000793          	li	a5,128
   18e2c:	00000073          	ecall
   18e30:	4609                	li	a2,2
   18e32:	04f57663          	bgeu	a0,a5,18e7e <_ZN20complex_dynamic_type3app17hdb7b2fd1a3a80052E+0xfe>
   18e36:	4505                	li	a0,1
   18e38:	00aa8023          	sb	a0,0(s5)
   18e3c:	00baa223          	sw	a1,4(s5)
   18e40:	470d                	li	a4,3
   18e42:	6505                	lui	a0,0x1
   18e44:	46550513          	addi	a0,a0,1125 # 1465 <.Lline_table_start1+0x123a>
   18e48:	4581                	li	a1,0
   18e4a:	4601                	li	a2,0
   18e4c:	4681                	li	a3,0
   18e4e:	00000073          	ecall
   18e52:	00a14703          	lbu	a4,10(sp)
   18e56:	4509                	li	a0,2
   18e58:	00a70a63          	beq	a4,a0,18e6c <_ZN20complex_dynamic_type3app17hdb7b2fd1a3a80052E+0xec>
   18e5c:	6505                	lui	a0,0x1
   18e5e:	46550513          	addi	a0,a0,1125 # 1465 <.Lline_table_start1+0x123a>
   18e62:	4599                	li	a1,6
   18e64:	4601                	li	a2,0
   18e66:	4681                	li	a3,0
   18e68:	00000073          	ecall
   18e6c:	40f6                	lw	ra,92(sp)
   18e6e:	4466                	lw	s0,88(sp)
   18e70:	44d6                	lw	s1,84(sp)
   18e72:	4946                	lw	s2,80(sp)
   18e74:	49b6                	lw	s3,76(sp)
   18e76:	4a26                	lw	s4,72(sp)
   18e78:	4a96                	lw	s5,68(sp)
   18e7a:	6125                	addi	sp,sp,96
   18e7c:	8082                	ret
   18e7e:	00a14703          	lbu	a4,10(sp)
   18e82:	00c71463          	bne	a4,a2,18e8a <_ZN20complex_dynamic_type3app17hdb7b2fd1a3a80052E+0x10a>
   18e86:	470d                	li	a4,3
   18e88:	a81d                	j	18ebe <_ZN20complex_dynamic_type3app17hdb7b2fd1a3a80052E+0x13e>
   18e8a:	6505                	lui	a0,0x1
   18e8c:	46550513          	addi	a0,a0,1125 # 1465 <.Lline_table_start1+0x123a>
   18e90:	4599                	li	a1,6
   18e92:	4601                	li	a2,0
   18e94:	4681                	li	a3,0
   18e96:	00000073          	ecall
   18e9a:	03614703          	lbu	a4,54(sp)
   18e9e:	4509                	li	a0,2
   18ea0:	00a10523          	sb	a0,10(sp)
   18ea4:	00a71d63          	bne	a4,a0,18ebe <_ZN20complex_dynamic_type3app17hdb7b2fd1a3a80052E+0x13e>
   18ea8:	001a8513          	addi	a0,s5,1
   18eac:	4635                	li	a2,13
   18eae:	85d2                	mv	a1,s4
   18eb0:	00005097          	auipc	ra,0x5
   18eb4:	664080e7          	jalr	1636(ra) # 1e514 <memcpy>
   18eb8:	000a8023          	sb	zero,0(s5)
   18ebc:	bf45                	j	18e6c <_ZN20complex_dynamic_type3app17hdb7b2fd1a3a80052E+0xec>
   18ebe:	6505                	lui	a0,0x1
   18ec0:	46550913          	addi	s2,a0,1125 # 1465 <.Lline_table_start1+0x123a>
   18ec4:	854a                	mv	a0,s2
   18ec6:	4581                	li	a1,0
   18ec8:	4601                	li	a2,0
   18eca:	4681                	li	a3,0
   18ecc:	00000073          	ecall
   18ed0:	00a14983          	lbu	s3,10(sp)
   18ed4:	001a8513          	addi	a0,s5,1
   18ed8:	4635                	li	a2,13
   18eda:	85d2                	mv	a1,s4
   18edc:	00005097          	auipc	ra,0x5
   18ee0:	638080e7          	jalr	1592(ra) # 1e514 <memcpy>
   18ee4:	4509                	li	a0,2
   18ee6:	000a8023          	sb	zero,0(s5)
   18eea:	f8a981e3          	beq	s3,a0,18e6c <_ZN20complex_dynamic_type3app17hdb7b2fd1a3a80052E+0xec>
   18eee:	4599                	li	a1,6
   18ef0:	854a                	mv	a0,s2
   18ef2:	4601                	li	a2,0
   18ef4:	4681                	li	a3,0
   18ef6:	874e                	mv	a4,s3
   18ef8:	00000073          	ecall
   18efc:	bf85                	j	18e6c <_ZN20complex_dynamic_type3app17hdb7b2fd1a3a80052E+0xec>

00018efe <_ZN20complex_dynamic_type3app17hdcd6222850112a03E>:
   18efe:	7159                	addi	sp,sp,-112
   18f00:	d686                	sw	ra,108(sp)
   18f02:	d4a2                	sw	s0,104(sp)
   18f04:	d2a6                	sw	s1,100(sp)
   18f06:	d0ca                	sw	s2,96(sp)
   18f08:	cece                	sw	s3,92(sp)
   18f0a:	ccd2                	sw	s4,88(sp)
   18f0c:	cad6                	sw	s5,84(sp)
   18f0e:	8aaa                	mv	s5,a0
   18f10:	4409                	li	s0,2
   18f12:	008101a3          	sb	s0,3(sp)
   18f16:	0044                	addi	s1,sp,4
   18f18:	02500613          	li	a2,37
   18f1c:	8526                	mv	a0,s1
   18f1e:	00005097          	auipc	ra,0x5
   18f22:	5f6080e7          	jalr	1526(ra) # 1e514 <memcpy>
   18f26:	02a10a13          	addi	s4,sp,42
   18f2a:	02a00613          	li	a2,42
   18f2e:	8552                	mv	a0,s4
   18f30:	4581                	li	a1,0
   18f32:	00005097          	auipc	ra,0x5
   18f36:	576080e7          	jalr	1398(ra) # 1e4a8 <memset>
   18f3a:	4581                	li	a1,0
   18f3c:	8626                	mv	a2,s1
   18f3e:	028104a3          	sb	s0,41(sp)
   18f42:	6505                	lui	a0,0x1
   18f44:	4491                	li	s1,4
   18f46:	93c50793          	addi	a5,a0,-1732 # 93c <.Lline_table_start1+0x711>
   18f4a:	02500693          	li	a3,37
   18f4e:	4711                	li	a4,4
   18f50:	853e                	mv	a0,a5
   18f52:	00000073          	ecall
   18f56:	00851863          	bne	a0,s0,18f66 <_ZN20complex_dynamic_type3app17hdcd6222850112a03E+0x68>
   18f5a:	4505                	li	a0,1
   18f5c:	00aa8023          	sb	a0,0(s5)
   18f60:	00baa223          	sw	a1,4(s5)
   18f64:	a0bd                	j	18fd2 <_ZN20complex_dynamic_type3app17hdcd6222850112a03E+0xd4>
   18f66:	853e                	mv	a0,a5
   18f68:	8652                	mv	a2,s4
   18f6a:	009101a3          	sb	s1,3(sp)
   18f6e:	478d                	li	a5,3
   18f70:	458d                	li	a1,3
   18f72:	02a00693          	li	a3,42
   18f76:	470d                	li	a4,3
   18f78:	00000073          	ecall
   18f7c:	00851d63          	bne	a0,s0,18f96 <_ZN20complex_dynamic_type3app17hdcd6222850112a03E+0x98>
   18f80:	02914703          	lbu	a4,41(sp)
   18f84:	4505                	li	a0,1
   18f86:	4609                	li	a2,2
   18f88:	00aa8023          	sb	a0,0(s5)
   18f8c:	00baa223          	sw	a1,4(s5)
   18f90:	02c71963          	bne	a4,a2,18fc2 <_ZN20complex_dynamic_type3app17hdcd6222850112a03E+0xc4>
   18f94:	a83d                	j	18fd2 <_ZN20complex_dynamic_type3app17hdcd6222850112a03E+0xd4>
   18f96:	4581                	li	a1,0
   18f98:	4681                	li	a3,0
   18f9a:	02f104a3          	sb	a5,41(sp)
   18f9e:	6505                	lui	a0,0x1
   18fa0:	460d                	li	a2,3
   18fa2:	4709                	li	a4,2
   18fa4:	93c50513          	addi	a0,a0,-1732 # 93c <.Lline_table_start1+0x711>
   18fa8:	08000793          	li	a5,128
   18fac:	00000073          	ecall
   18fb0:	4609                	li	a2,2
   18fb2:	04f57663          	bgeu	a0,a5,18ffe <_ZN20complex_dynamic_type3app17hdcd6222850112a03E+0x100>
   18fb6:	4505                	li	a0,1
   18fb8:	00aa8023          	sb	a0,0(s5)
   18fbc:	00baa223          	sw	a1,4(s5)
   18fc0:	470d                	li	a4,3
   18fc2:	6505                	lui	a0,0x1
   18fc4:	93c50513          	addi	a0,a0,-1732 # 93c <.Lline_table_start1+0x711>
   18fc8:	458d                	li	a1,3
   18fca:	4601                	li	a2,0
   18fcc:	4681                	li	a3,0
   18fce:	00000073          	ecall
   18fd2:	00314703          	lbu	a4,3(sp)
   18fd6:	4509                	li	a0,2
   18fd8:	00a70a63          	beq	a4,a0,18fec <_ZN20complex_dynamic_type3app17hdcd6222850112a03E+0xee>
   18fdc:	6505                	lui	a0,0x1
   18fde:	93c50513          	addi	a0,a0,-1732 # 93c <.Lline_table_start1+0x711>
   18fe2:	4581                	li	a1,0
   18fe4:	4601                	li	a2,0
   18fe6:	4681                	li	a3,0
   18fe8:	00000073          	ecall
   18fec:	50b6                	lw	ra,108(sp)
   18fee:	5426                	lw	s0,104(sp)
   18ff0:	5496                	lw	s1,100(sp)
   18ff2:	5906                	lw	s2,96(sp)
   18ff4:	49f6                	lw	s3,92(sp)
   18ff6:	4a66                	lw	s4,88(sp)
   18ff8:	4ad6                	lw	s5,84(sp)
   18ffa:	6165                	addi	sp,sp,112
   18ffc:	8082                	ret
   18ffe:	00314703          	lbu	a4,3(sp)
   19002:	00c71463          	bne	a4,a2,1900a <_ZN20complex_dynamic_type3app17hdcd6222850112a03E+0x10c>
   19006:	470d                	li	a4,3
   19008:	a825                	j	19040 <_ZN20complex_dynamic_type3app17hdcd6222850112a03E+0x142>
   1900a:	6505                	lui	a0,0x1
   1900c:	93c50513          	addi	a0,a0,-1732 # 93c <.Lline_table_start1+0x711>
   19010:	4581                	li	a1,0
   19012:	4601                	li	a2,0
   19014:	4681                	li	a3,0
   19016:	00000073          	ecall
   1901a:	02914703          	lbu	a4,41(sp)
   1901e:	4509                	li	a0,2
   19020:	00a101a3          	sb	a0,3(sp)
   19024:	00a71e63          	bne	a4,a0,19040 <_ZN20complex_dynamic_type3app17hdcd6222850112a03E+0x142>
   19028:	001a8513          	addi	a0,s5,1
   1902c:	02a00613          	li	a2,42
   19030:	85d2                	mv	a1,s4
   19032:	00005097          	auipc	ra,0x5
   19036:	4e2080e7          	jalr	1250(ra) # 1e514 <memcpy>
   1903a:	000a8023          	sb	zero,0(s5)
   1903e:	b77d                	j	18fec <_ZN20complex_dynamic_type3app17hdcd6222850112a03E+0xee>
   19040:	6505                	lui	a0,0x1
   19042:	93c50913          	addi	s2,a0,-1732 # 93c <.Lline_table_start1+0x711>
   19046:	458d                	li	a1,3
   19048:	854a                	mv	a0,s2
   1904a:	4601                	li	a2,0
   1904c:	4681                	li	a3,0
   1904e:	00000073          	ecall
   19052:	00314983          	lbu	s3,3(sp)
   19056:	001a8513          	addi	a0,s5,1
   1905a:	02a00613          	li	a2,42
   1905e:	85d2                	mv	a1,s4
   19060:	00005097          	auipc	ra,0x5
   19064:	4b4080e7          	jalr	1204(ra) # 1e514 <memcpy>
   19068:	4509                	li	a0,2
   1906a:	000a8023          	sb	zero,0(s5)
   1906e:	f6a98fe3          	beq	s3,a0,18fec <_ZN20complex_dynamic_type3app17hdcd6222850112a03E+0xee>
   19072:	854a                	mv	a0,s2
   19074:	4581                	li	a1,0
   19076:	4601                	li	a2,0
   19078:	4681                	li	a3,0
   1907a:	874e                	mv	a4,s3
   1907c:	00000073          	ecall
   19080:	b7b5                	j	18fec <_ZN20complex_dynamic_type3app17hdcd6222850112a03E+0xee>

00019082 <_ZN20complex_dynamic_type3app17hdd5c8514b51dbbc6E>:
   19082:	7135                	addi	sp,sp,-160
   19084:	cf06                	sw	ra,156(sp)
   19086:	cd22                	sw	s0,152(sp)
   19088:	cb26                	sw	s1,148(sp)
   1908a:	c94a                	sw	s2,144(sp)
   1908c:	c74e                	sw	s3,140(sp)
   1908e:	c552                	sw	s4,136(sp)
   19090:	c356                	sw	s5,132(sp)
   19092:	8aaa                	mv	s5,a0
   19094:	4409                	li	s0,2
   19096:	008107a3          	sb	s0,15(sp)
   1909a:	0804                	addi	s1,sp,16
   1909c:	03200613          	li	a2,50
   190a0:	8526                	mv	a0,s1
   190a2:	00005097          	auipc	ra,0x5
   190a6:	472080e7          	jalr	1138(ra) # 1e514 <memcpy>
   190aa:	04310a13          	addi	s4,sp,67
   190ae:	04100613          	li	a2,65
   190b2:	8552                	mv	a0,s4
   190b4:	4581                	li	a1,0
   190b6:	00005097          	auipc	ra,0x5
   190ba:	3f2080e7          	jalr	1010(ra) # 1e4a8 <memset>
   190be:	8626                	mv	a2,s1
   190c0:	04810123          	sb	s0,66(sp)
   190c4:	6505                	lui	a0,0x1
   190c6:	4491                	li	s1,4
   190c8:	459d                	li	a1,7
   190ca:	91d50793          	addi	a5,a0,-1763 # 91d <.Lline_table_start1+0x6f2>
   190ce:	03200693          	li	a3,50
   190d2:	4711                	li	a4,4
   190d4:	853e                	mv	a0,a5
   190d6:	00000073          	ecall
   190da:	00851863          	bne	a0,s0,190ea <_ZN20complex_dynamic_type3app17hdd5c8514b51dbbc6E+0x68>
   190de:	4505                	li	a0,1
   190e0:	00aa8023          	sb	a0,0(s5)
   190e4:	00baa223          	sw	a1,4(s5)
   190e8:	a0bd                	j	19156 <_ZN20complex_dynamic_type3app17hdd5c8514b51dbbc6E+0xd4>
   190ea:	853e                	mv	a0,a5
   190ec:	8652                	mv	a2,s4
   190ee:	009107a3          	sb	s1,15(sp)
   190f2:	478d                	li	a5,3
   190f4:	4595                	li	a1,5
   190f6:	04100693          	li	a3,65
   190fa:	470d                	li	a4,3
   190fc:	00000073          	ecall
   19100:	00851d63          	bne	a0,s0,1911a <_ZN20complex_dynamic_type3app17hdd5c8514b51dbbc6E+0x98>
   19104:	04214703          	lbu	a4,66(sp)
   19108:	4505                	li	a0,1
   1910a:	4609                	li	a2,2
   1910c:	00aa8023          	sb	a0,0(s5)
   19110:	00baa223          	sw	a1,4(s5)
   19114:	02c71963          	bne	a4,a2,19146 <_ZN20complex_dynamic_type3app17hdd5c8514b51dbbc6E+0xc4>
   19118:	a83d                	j	19156 <_ZN20complex_dynamic_type3app17hdd5c8514b51dbbc6E+0xd4>
   1911a:	4681                	li	a3,0
   1911c:	04f10123          	sb	a5,66(sp)
   19120:	6505                	lui	a0,0x1
   19122:	459d                	li	a1,7
   19124:	4615                	li	a2,5
   19126:	4709                	li	a4,2
   19128:	91d50513          	addi	a0,a0,-1763 # 91d <.Lline_table_start1+0x6f2>
   1912c:	08000793          	li	a5,128
   19130:	00000073          	ecall
   19134:	4609                	li	a2,2
   19136:	04f57663          	bgeu	a0,a5,19182 <_ZN20complex_dynamic_type3app17hdd5c8514b51dbbc6E+0x100>
   1913a:	4505                	li	a0,1
   1913c:	00aa8023          	sb	a0,0(s5)
   19140:	00baa223          	sw	a1,4(s5)
   19144:	470d                	li	a4,3
   19146:	6505                	lui	a0,0x1
   19148:	91d50513          	addi	a0,a0,-1763 # 91d <.Lline_table_start1+0x6f2>
   1914c:	4595                	li	a1,5
   1914e:	4601                	li	a2,0
   19150:	4681                	li	a3,0
   19152:	00000073          	ecall
   19156:	00f14703          	lbu	a4,15(sp)
   1915a:	4509                	li	a0,2
   1915c:	00a70a63          	beq	a4,a0,19170 <_ZN20complex_dynamic_type3app17hdd5c8514b51dbbc6E+0xee>
   19160:	6505                	lui	a0,0x1
   19162:	91d50513          	addi	a0,a0,-1763 # 91d <.Lline_table_start1+0x6f2>
   19166:	459d                	li	a1,7
   19168:	4601                	li	a2,0
   1916a:	4681                	li	a3,0
   1916c:	00000073          	ecall
   19170:	40fa                	lw	ra,156(sp)
   19172:	446a                	lw	s0,152(sp)
   19174:	44da                	lw	s1,148(sp)
   19176:	494a                	lw	s2,144(sp)
   19178:	49ba                	lw	s3,140(sp)
   1917a:	4a2a                	lw	s4,136(sp)
   1917c:	4a9a                	lw	s5,132(sp)
   1917e:	610d                	addi	sp,sp,160
   19180:	8082                	ret
   19182:	00f14703          	lbu	a4,15(sp)
   19186:	00c71463          	bne	a4,a2,1918e <_ZN20complex_dynamic_type3app17hdd5c8514b51dbbc6E+0x10c>
   1918a:	470d                	li	a4,3
   1918c:	a825                	j	191c4 <_ZN20complex_dynamic_type3app17hdd5c8514b51dbbc6E+0x142>
   1918e:	6505                	lui	a0,0x1
   19190:	91d50513          	addi	a0,a0,-1763 # 91d <.Lline_table_start1+0x6f2>
   19194:	459d                	li	a1,7
   19196:	4601                	li	a2,0
   19198:	4681                	li	a3,0
   1919a:	00000073          	ecall
   1919e:	04214703          	lbu	a4,66(sp)
   191a2:	4509                	li	a0,2
   191a4:	00a107a3          	sb	a0,15(sp)
   191a8:	00a71e63          	bne	a4,a0,191c4 <_ZN20complex_dynamic_type3app17hdd5c8514b51dbbc6E+0x142>
   191ac:	001a8513          	addi	a0,s5,1
   191b0:	04100613          	li	a2,65
   191b4:	85d2                	mv	a1,s4
   191b6:	00005097          	auipc	ra,0x5
   191ba:	35e080e7          	jalr	862(ra) # 1e514 <memcpy>
   191be:	000a8023          	sb	zero,0(s5)
   191c2:	b77d                	j	19170 <_ZN20complex_dynamic_type3app17hdd5c8514b51dbbc6E+0xee>
   191c4:	6505                	lui	a0,0x1
   191c6:	91d50913          	addi	s2,a0,-1763 # 91d <.Lline_table_start1+0x6f2>
   191ca:	4595                	li	a1,5
   191cc:	854a                	mv	a0,s2
   191ce:	4601                	li	a2,0
   191d0:	4681                	li	a3,0
   191d2:	00000073          	ecall
   191d6:	00f14983          	lbu	s3,15(sp)
   191da:	001a8513          	addi	a0,s5,1
   191de:	04100613          	li	a2,65
   191e2:	85d2                	mv	a1,s4
   191e4:	00005097          	auipc	ra,0x5
   191e8:	330080e7          	jalr	816(ra) # 1e514 <memcpy>
   191ec:	4509                	li	a0,2
   191ee:	000a8023          	sb	zero,0(s5)
   191f2:	f6a98fe3          	beq	s3,a0,19170 <_ZN20complex_dynamic_type3app17hdd5c8514b51dbbc6E+0xee>
   191f6:	459d                	li	a1,7
   191f8:	854a                	mv	a0,s2
   191fa:	4601                	li	a2,0
   191fc:	4681                	li	a3,0
   191fe:	874e                	mv	a4,s3
   19200:	00000073          	ecall
   19204:	b7b5                	j	19170 <_ZN20complex_dynamic_type3app17hdd5c8514b51dbbc6E+0xee>

00019206 <_ZN20complex_dynamic_type3app17he788737d48ed4f82E>:
   19206:	7175                	addi	sp,sp,-144
   19208:	c706                	sw	ra,140(sp)
   1920a:	c522                	sw	s0,136(sp)
   1920c:	c326                	sw	s1,132(sp)
   1920e:	c14a                	sw	s2,128(sp)
   19210:	dece                	sw	s3,124(sp)
   19212:	dcd2                	sw	s4,120(sp)
   19214:	dad6                	sw	s5,116(sp)
   19216:	8aaa                	mv	s5,a0
   19218:	4409                	li	s0,2
   1921a:	008101a3          	sb	s0,3(sp)
   1921e:	0044                	addi	s1,sp,4
   19220:	05d00613          	li	a2,93
   19224:	8526                	mv	a0,s1
   19226:	00005097          	auipc	ra,0x5
   1922a:	2ee080e7          	jalr	750(ra) # 1e514 <memcpy>
   1922e:	06210a13          	addi	s4,sp,98
   19232:	4649                	li	a2,18
   19234:	8552                	mv	a0,s4
   19236:	4581                	li	a1,0
   19238:	00005097          	auipc	ra,0x5
   1923c:	270080e7          	jalr	624(ra) # 1e4a8 <memset>
   19240:	4581                	li	a1,0
   19242:	8626                	mv	a2,s1
   19244:	068100a3          	sb	s0,97(sp)
   19248:	6505                	lui	a0,0x1
   1924a:	4491                	li	s1,4
   1924c:	5f150793          	addi	a5,a0,1521 # 15f1 <.Lline_table_start1+0x13c6>
   19250:	05d00693          	li	a3,93
   19254:	4711                	li	a4,4
   19256:	853e                	mv	a0,a5
   19258:	00000073          	ecall
   1925c:	00851863          	bne	a0,s0,1926c <_ZN20complex_dynamic_type3app17he788737d48ed4f82E+0x66>
   19260:	4505                	li	a0,1
   19262:	00aa8023          	sb	a0,0(s5)
   19266:	00baa223          	sw	a1,4(s5)
   1926a:	a0b5                	j	192d6 <_ZN20complex_dynamic_type3app17he788737d48ed4f82E+0xd0>
   1926c:	853e                	mv	a0,a5
   1926e:	8652                	mv	a2,s4
   19270:	009101a3          	sb	s1,3(sp)
   19274:	478d                	li	a5,3
   19276:	4589                	li	a1,2
   19278:	46c9                	li	a3,18
   1927a:	470d                	li	a4,3
   1927c:	00000073          	ecall
   19280:	00851d63          	bne	a0,s0,1929a <_ZN20complex_dynamic_type3app17he788737d48ed4f82E+0x94>
   19284:	06114703          	lbu	a4,97(sp)
   19288:	4505                	li	a0,1
   1928a:	4609                	li	a2,2
   1928c:	00aa8023          	sb	a0,0(s5)
   19290:	00baa223          	sw	a1,4(s5)
   19294:	02c71963          	bne	a4,a2,192c6 <_ZN20complex_dynamic_type3app17he788737d48ed4f82E+0xc0>
   19298:	a83d                	j	192d6 <_ZN20complex_dynamic_type3app17he788737d48ed4f82E+0xd0>
   1929a:	4581                	li	a1,0
   1929c:	4681                	li	a3,0
   1929e:	06f100a3          	sb	a5,97(sp)
   192a2:	6505                	lui	a0,0x1
   192a4:	4609                	li	a2,2
   192a6:	4709                	li	a4,2
   192a8:	5f150513          	addi	a0,a0,1521 # 15f1 <.Lline_table_start1+0x13c6>
   192ac:	08000793          	li	a5,128
   192b0:	00000073          	ecall
   192b4:	4609                	li	a2,2
   192b6:	04f57663          	bgeu	a0,a5,19302 <_ZN20complex_dynamic_type3app17he788737d48ed4f82E+0xfc>
   192ba:	4505                	li	a0,1
   192bc:	00aa8023          	sb	a0,0(s5)
   192c0:	00baa223          	sw	a1,4(s5)
   192c4:	470d                	li	a4,3
   192c6:	6505                	lui	a0,0x1
   192c8:	5f150513          	addi	a0,a0,1521 # 15f1 <.Lline_table_start1+0x13c6>
   192cc:	4589                	li	a1,2
   192ce:	4601                	li	a2,0
   192d0:	4681                	li	a3,0
   192d2:	00000073          	ecall
   192d6:	00314703          	lbu	a4,3(sp)
   192da:	4509                	li	a0,2
   192dc:	00a70a63          	beq	a4,a0,192f0 <_ZN20complex_dynamic_type3app17he788737d48ed4f82E+0xea>
   192e0:	6505                	lui	a0,0x1
   192e2:	5f150513          	addi	a0,a0,1521 # 15f1 <.Lline_table_start1+0x13c6>
   192e6:	4581                	li	a1,0
   192e8:	4601                	li	a2,0
   192ea:	4681                	li	a3,0
   192ec:	00000073          	ecall
   192f0:	40ba                	lw	ra,140(sp)
   192f2:	442a                	lw	s0,136(sp)
   192f4:	449a                	lw	s1,132(sp)
   192f6:	490a                	lw	s2,128(sp)
   192f8:	59f6                	lw	s3,124(sp)
   192fa:	5a66                	lw	s4,120(sp)
   192fc:	5ad6                	lw	s5,116(sp)
   192fe:	6149                	addi	sp,sp,144
   19300:	8082                	ret
   19302:	00314703          	lbu	a4,3(sp)
   19306:	00c71463          	bne	a4,a2,1930e <_ZN20complex_dynamic_type3app17he788737d48ed4f82E+0x108>
   1930a:	470d                	li	a4,3
   1930c:	a81d                	j	19342 <_ZN20complex_dynamic_type3app17he788737d48ed4f82E+0x13c>
   1930e:	6505                	lui	a0,0x1
   19310:	5f150513          	addi	a0,a0,1521 # 15f1 <.Lline_table_start1+0x13c6>
   19314:	4581                	li	a1,0
   19316:	4601                	li	a2,0
   19318:	4681                	li	a3,0
   1931a:	00000073          	ecall
   1931e:	06114703          	lbu	a4,97(sp)
   19322:	4509                	li	a0,2
   19324:	00a101a3          	sb	a0,3(sp)
   19328:	00a71d63          	bne	a4,a0,19342 <_ZN20complex_dynamic_type3app17he788737d48ed4f82E+0x13c>
   1932c:	001a8513          	addi	a0,s5,1
   19330:	4649                	li	a2,18
   19332:	85d2                	mv	a1,s4
   19334:	00005097          	auipc	ra,0x5
   19338:	1e0080e7          	jalr	480(ra) # 1e514 <memcpy>
   1933c:	000a8023          	sb	zero,0(s5)
   19340:	bf45                	j	192f0 <_ZN20complex_dynamic_type3app17he788737d48ed4f82E+0xea>
   19342:	4601                	li	a2,0
   19344:	4681                	li	a3,0
   19346:	6505                	lui	a0,0x1
   19348:	5f150913          	addi	s2,a0,1521 # 15f1 <.Lline_table_start1+0x13c6>
   1934c:	4589                	li	a1,2
   1934e:	854a                	mv	a0,s2
   19350:	00000073          	ecall
   19354:	00314983          	lbu	s3,3(sp)
   19358:	4409                	li	s0,2
   1935a:	001a8513          	addi	a0,s5,1
   1935e:	4649                	li	a2,18
   19360:	85d2                	mv	a1,s4
   19362:	00005097          	auipc	ra,0x5
   19366:	1b2080e7          	jalr	434(ra) # 1e514 <memcpy>
   1936a:	000a8023          	sb	zero,0(s5)
   1936e:	f88981e3          	beq	s3,s0,192f0 <_ZN20complex_dynamic_type3app17he788737d48ed4f82E+0xea>
   19372:	854a                	mv	a0,s2
   19374:	4581                	li	a1,0
   19376:	4601                	li	a2,0
   19378:	4681                	li	a3,0
   1937a:	874e                	mv	a4,s3
   1937c:	00000073          	ecall
   19380:	bf85                	j	192f0 <_ZN20complex_dynamic_type3app17he788737d48ed4f82E+0xea>

00019382 <_ZN20complex_dynamic_type3app17he79c8d2b524f175dE>:
   19382:	7175                	addi	sp,sp,-144
   19384:	c706                	sw	ra,140(sp)
   19386:	c522                	sw	s0,136(sp)
   19388:	c326                	sw	s1,132(sp)
   1938a:	c14a                	sw	s2,128(sp)
   1938c:	dece                	sw	s3,124(sp)
   1938e:	dcd2                	sw	s4,120(sp)
   19390:	dad6                	sw	s5,116(sp)
   19392:	8aaa                	mv	s5,a0
   19394:	4409                	li	s0,2
   19396:	00810223          	sb	s0,4(sp)
   1939a:	00510493          	addi	s1,sp,5
   1939e:	03c00613          	li	a2,60
   193a2:	8526                	mv	a0,s1
   193a4:	00005097          	auipc	ra,0x5
   193a8:	170080e7          	jalr	368(ra) # 1e514 <memcpy>
   193ac:	04210a13          	addi	s4,sp,66
   193b0:	03200613          	li	a2,50
   193b4:	8552                	mv	a0,s4
   193b6:	4581                	li	a1,0
   193b8:	00005097          	auipc	ra,0x5
   193bc:	0f0080e7          	jalr	240(ra) # 1e4a8 <memset>
   193c0:	8626                	mv	a2,s1
   193c2:	048100a3          	sb	s0,65(sp)
   193c6:	6509                	lui	a0,0x2
   193c8:	4491                	li	s1,4
   193ca:	4599                	li	a1,6
   193cc:	b1e50793          	addi	a5,a0,-1250 # 1b1e <.Lline_table_start1+0x18f3>
   193d0:	03c00693          	li	a3,60
   193d4:	4711                	li	a4,4
   193d6:	853e                	mv	a0,a5
   193d8:	00000073          	ecall
   193dc:	00851863          	bne	a0,s0,193ec <_ZN20complex_dynamic_type3app17he79c8d2b524f175dE+0x6a>
   193e0:	4505                	li	a0,1
   193e2:	00aa8023          	sb	a0,0(s5)
   193e6:	00baa223          	sw	a1,4(s5)
   193ea:	a0bd                	j	19458 <_ZN20complex_dynamic_type3app17he79c8d2b524f175dE+0xd6>
   193ec:	853e                	mv	a0,a5
   193ee:	8652                	mv	a2,s4
   193f0:	00910223          	sb	s1,4(sp)
   193f4:	478d                	li	a5,3
   193f6:	45a1                	li	a1,8
   193f8:	03200693          	li	a3,50
   193fc:	470d                	li	a4,3
   193fe:	00000073          	ecall
   19402:	00851d63          	bne	a0,s0,1941c <_ZN20complex_dynamic_type3app17he79c8d2b524f175dE+0x9a>
   19406:	04114703          	lbu	a4,65(sp)
   1940a:	4505                	li	a0,1
   1940c:	4609                	li	a2,2
   1940e:	00aa8023          	sb	a0,0(s5)
   19412:	00baa223          	sw	a1,4(s5)
   19416:	02c71963          	bne	a4,a2,19448 <_ZN20complex_dynamic_type3app17he79c8d2b524f175dE+0xc6>
   1941a:	a83d                	j	19458 <_ZN20complex_dynamic_type3app17he79c8d2b524f175dE+0xd6>
   1941c:	4681                	li	a3,0
   1941e:	04f100a3          	sb	a5,65(sp)
   19422:	6509                	lui	a0,0x2
   19424:	4599                	li	a1,6
   19426:	4621                	li	a2,8
   19428:	4709                	li	a4,2
   1942a:	b1e50513          	addi	a0,a0,-1250 # 1b1e <.Lline_table_start1+0x18f3>
   1942e:	08000793          	li	a5,128
   19432:	00000073          	ecall
   19436:	4609                	li	a2,2
   19438:	04f57663          	bgeu	a0,a5,19484 <_ZN20complex_dynamic_type3app17he79c8d2b524f175dE+0x102>
   1943c:	4505                	li	a0,1
   1943e:	00aa8023          	sb	a0,0(s5)
   19442:	00baa223          	sw	a1,4(s5)
   19446:	470d                	li	a4,3
   19448:	6509                	lui	a0,0x2
   1944a:	b1e50513          	addi	a0,a0,-1250 # 1b1e <.Lline_table_start1+0x18f3>
   1944e:	45a1                	li	a1,8
   19450:	4601                	li	a2,0
   19452:	4681                	li	a3,0
   19454:	00000073          	ecall
   19458:	00414703          	lbu	a4,4(sp)
   1945c:	4509                	li	a0,2
   1945e:	00a70a63          	beq	a4,a0,19472 <_ZN20complex_dynamic_type3app17he79c8d2b524f175dE+0xf0>
   19462:	6509                	lui	a0,0x2
   19464:	b1e50513          	addi	a0,a0,-1250 # 1b1e <.Lline_table_start1+0x18f3>
   19468:	4599                	li	a1,6
   1946a:	4601                	li	a2,0
   1946c:	4681                	li	a3,0
   1946e:	00000073          	ecall
   19472:	40ba                	lw	ra,140(sp)
   19474:	442a                	lw	s0,136(sp)
   19476:	449a                	lw	s1,132(sp)
   19478:	490a                	lw	s2,128(sp)
   1947a:	59f6                	lw	s3,124(sp)
   1947c:	5a66                	lw	s4,120(sp)
   1947e:	5ad6                	lw	s5,116(sp)
   19480:	6149                	addi	sp,sp,144
   19482:	8082                	ret
   19484:	00414703          	lbu	a4,4(sp)
   19488:	00c71463          	bne	a4,a2,19490 <_ZN20complex_dynamic_type3app17he79c8d2b524f175dE+0x10e>
   1948c:	470d                	li	a4,3
   1948e:	a825                	j	194c6 <_ZN20complex_dynamic_type3app17he79c8d2b524f175dE+0x144>
   19490:	6509                	lui	a0,0x2
   19492:	b1e50513          	addi	a0,a0,-1250 # 1b1e <.Lline_table_start1+0x18f3>
   19496:	4599                	li	a1,6
   19498:	4601                	li	a2,0
   1949a:	4681                	li	a3,0
   1949c:	00000073          	ecall
   194a0:	04114703          	lbu	a4,65(sp)
   194a4:	4509                	li	a0,2
   194a6:	00a10223          	sb	a0,4(sp)
   194aa:	00a71e63          	bne	a4,a0,194c6 <_ZN20complex_dynamic_type3app17he79c8d2b524f175dE+0x144>
   194ae:	001a8513          	addi	a0,s5,1
   194b2:	03200613          	li	a2,50
   194b6:	85d2                	mv	a1,s4
   194b8:	00005097          	auipc	ra,0x5
   194bc:	05c080e7          	jalr	92(ra) # 1e514 <memcpy>
   194c0:	000a8023          	sb	zero,0(s5)
   194c4:	b77d                	j	19472 <_ZN20complex_dynamic_type3app17he79c8d2b524f175dE+0xf0>
   194c6:	6509                	lui	a0,0x2
   194c8:	b1e50913          	addi	s2,a0,-1250 # 1b1e <.Lline_table_start1+0x18f3>
   194cc:	45a1                	li	a1,8
   194ce:	854a                	mv	a0,s2
   194d0:	4601                	li	a2,0
   194d2:	4681                	li	a3,0
   194d4:	00000073          	ecall
   194d8:	00414983          	lbu	s3,4(sp)
   194dc:	001a8513          	addi	a0,s5,1
   194e0:	03200613          	li	a2,50
   194e4:	85d2                	mv	a1,s4
   194e6:	00005097          	auipc	ra,0x5
   194ea:	02e080e7          	jalr	46(ra) # 1e514 <memcpy>
   194ee:	4509                	li	a0,2
   194f0:	000a8023          	sb	zero,0(s5)
   194f4:	f6a98fe3          	beq	s3,a0,19472 <_ZN20complex_dynamic_type3app17he79c8d2b524f175dE+0xf0>
   194f8:	4599                	li	a1,6
   194fa:	854a                	mv	a0,s2
   194fc:	4601                	li	a2,0
   194fe:	4681                	li	a3,0
   19500:	874e                	mv	a4,s3
   19502:	00000073          	ecall
   19506:	b7b5                	j	19472 <_ZN20complex_dynamic_type3app17he79c8d2b524f175dE+0xf0>

00019508 <_ZN20complex_dynamic_type3app17he7fcb3a741390ffcE>:
   19508:	711d                	addi	sp,sp,-96
   1950a:	ce86                	sw	ra,92(sp)
   1950c:	cca2                	sw	s0,88(sp)
   1950e:	caa6                	sw	s1,84(sp)
   19510:	c8ca                	sw	s2,80(sp)
   19512:	c6ce                	sw	s3,76(sp)
   19514:	c4d2                	sw	s4,72(sp)
   19516:	c2d6                	sw	s5,68(sp)
   19518:	8aaa                	mv	s5,a0
   1951a:	4409                	li	s0,2
   1951c:	00810023          	sb	s0,0(sp)
   19520:	00110493          	addi	s1,sp,1
   19524:	03200613          	li	a2,50
   19528:	8526                	mv	a0,s1
   1952a:	00005097          	auipc	ra,0x5
   1952e:	fea080e7          	jalr	-22(ra) # 1e514 <memcpy>
   19532:	03410a13          	addi	s4,sp,52
   19536:	4641                	li	a2,16
   19538:	8552                	mv	a0,s4
   1953a:	4581                	li	a1,0
   1953c:	00005097          	auipc	ra,0x5
   19540:	f6c080e7          	jalr	-148(ra) # 1e4a8 <memset>
   19544:	8626                	mv	a2,s1
   19546:	028109a3          	sb	s0,51(sp)
   1954a:	6509                	lui	a0,0x2
   1954c:	4491                	li	s1,4
   1954e:	4591                	li	a1,4
   19550:	9d650793          	addi	a5,a0,-1578 # 19d6 <.Lline_table_start1+0x17ab>
   19554:	03200693          	li	a3,50
   19558:	4711                	li	a4,4
   1955a:	853e                	mv	a0,a5
   1955c:	00000073          	ecall
   19560:	00851863          	bne	a0,s0,19570 <_ZN20complex_dynamic_type3app17he7fcb3a741390ffcE+0x68>
   19564:	4505                	li	a0,1
   19566:	00aa8023          	sb	a0,0(s5)
   1956a:	00baa223          	sw	a1,4(s5)
   1956e:	a0b5                	j	195da <_ZN20complex_dynamic_type3app17he7fcb3a741390ffcE+0xd2>
   19570:	853e                	mv	a0,a5
   19572:	8652                	mv	a2,s4
   19574:	00910023          	sb	s1,0(sp)
   19578:	478d                	li	a5,3
   1957a:	45a5                	li	a1,9
   1957c:	46c1                	li	a3,16
   1957e:	470d                	li	a4,3
   19580:	00000073          	ecall
   19584:	00851d63          	bne	a0,s0,1959e <_ZN20complex_dynamic_type3app17he7fcb3a741390ffcE+0x96>
   19588:	03314703          	lbu	a4,51(sp)
   1958c:	4505                	li	a0,1
   1958e:	4609                	li	a2,2
   19590:	00aa8023          	sb	a0,0(s5)
   19594:	00baa223          	sw	a1,4(s5)
   19598:	02c71963          	bne	a4,a2,195ca <_ZN20complex_dynamic_type3app17he7fcb3a741390ffcE+0xc2>
   1959c:	a83d                	j	195da <_ZN20complex_dynamic_type3app17he7fcb3a741390ffcE+0xd2>
   1959e:	4681                	li	a3,0
   195a0:	02f109a3          	sb	a5,51(sp)
   195a4:	6509                	lui	a0,0x2
   195a6:	4591                	li	a1,4
   195a8:	4625                	li	a2,9
   195aa:	4709                	li	a4,2
   195ac:	9d650513          	addi	a0,a0,-1578 # 19d6 <.Lline_table_start1+0x17ab>
   195b0:	08000793          	li	a5,128
   195b4:	00000073          	ecall
   195b8:	4609                	li	a2,2
   195ba:	04f57663          	bgeu	a0,a5,19606 <_ZN20complex_dynamic_type3app17he7fcb3a741390ffcE+0xfe>
   195be:	4505                	li	a0,1
   195c0:	00aa8023          	sb	a0,0(s5)
   195c4:	00baa223          	sw	a1,4(s5)
   195c8:	470d                	li	a4,3
   195ca:	6509                	lui	a0,0x2
   195cc:	9d650513          	addi	a0,a0,-1578 # 19d6 <.Lline_table_start1+0x17ab>
   195d0:	45a5                	li	a1,9
   195d2:	4601                	li	a2,0
   195d4:	4681                	li	a3,0
   195d6:	00000073          	ecall
   195da:	00014703          	lbu	a4,0(sp)
   195de:	4509                	li	a0,2
   195e0:	00a70a63          	beq	a4,a0,195f4 <_ZN20complex_dynamic_type3app17he7fcb3a741390ffcE+0xec>
   195e4:	6509                	lui	a0,0x2
   195e6:	9d650513          	addi	a0,a0,-1578 # 19d6 <.Lline_table_start1+0x17ab>
   195ea:	4591                	li	a1,4
   195ec:	4601                	li	a2,0
   195ee:	4681                	li	a3,0
   195f0:	00000073          	ecall
   195f4:	40f6                	lw	ra,92(sp)
   195f6:	4466                	lw	s0,88(sp)
   195f8:	44d6                	lw	s1,84(sp)
   195fa:	4946                	lw	s2,80(sp)
   195fc:	49b6                	lw	s3,76(sp)
   195fe:	4a26                	lw	s4,72(sp)
   19600:	4a96                	lw	s5,68(sp)
   19602:	6125                	addi	sp,sp,96
   19604:	8082                	ret
   19606:	00014703          	lbu	a4,0(sp)
   1960a:	00c71463          	bne	a4,a2,19612 <_ZN20complex_dynamic_type3app17he7fcb3a741390ffcE+0x10a>
   1960e:	470d                	li	a4,3
   19610:	a81d                	j	19646 <_ZN20complex_dynamic_type3app17he7fcb3a741390ffcE+0x13e>
   19612:	6509                	lui	a0,0x2
   19614:	9d650513          	addi	a0,a0,-1578 # 19d6 <.Lline_table_start1+0x17ab>
   19618:	4591                	li	a1,4
   1961a:	4601                	li	a2,0
   1961c:	4681                	li	a3,0
   1961e:	00000073          	ecall
   19622:	03314703          	lbu	a4,51(sp)
   19626:	4509                	li	a0,2
   19628:	00a10023          	sb	a0,0(sp)
   1962c:	00a71d63          	bne	a4,a0,19646 <_ZN20complex_dynamic_type3app17he7fcb3a741390ffcE+0x13e>
   19630:	001a8513          	addi	a0,s5,1
   19634:	4641                	li	a2,16
   19636:	85d2                	mv	a1,s4
   19638:	00005097          	auipc	ra,0x5
   1963c:	edc080e7          	jalr	-292(ra) # 1e514 <memcpy>
   19640:	000a8023          	sb	zero,0(s5)
   19644:	bf45                	j	195f4 <_ZN20complex_dynamic_type3app17he7fcb3a741390ffcE+0xec>
   19646:	6509                	lui	a0,0x2
   19648:	9d650913          	addi	s2,a0,-1578 # 19d6 <.Lline_table_start1+0x17ab>
   1964c:	45a5                	li	a1,9
   1964e:	854a                	mv	a0,s2
   19650:	4601                	li	a2,0
   19652:	4681                	li	a3,0
   19654:	00000073          	ecall
   19658:	00014983          	lbu	s3,0(sp)
   1965c:	001a8513          	addi	a0,s5,1
   19660:	4641                	li	a2,16
   19662:	85d2                	mv	a1,s4
   19664:	00005097          	auipc	ra,0x5
   19668:	eb0080e7          	jalr	-336(ra) # 1e514 <memcpy>
   1966c:	4509                	li	a0,2
   1966e:	000a8023          	sb	zero,0(s5)
   19672:	f8a981e3          	beq	s3,a0,195f4 <_ZN20complex_dynamic_type3app17he7fcb3a741390ffcE+0xec>
   19676:	4591                	li	a1,4
   19678:	854a                	mv	a0,s2
   1967a:	4601                	li	a2,0
   1967c:	4681                	li	a3,0
   1967e:	874e                	mv	a4,s3
   19680:	00000073          	ecall
   19684:	bf85                	j	195f4 <_ZN20complex_dynamic_type3app17he7fcb3a741390ffcE+0xec>

00019686 <_ZN20complex_dynamic_type3app17hecb839c6a7495336E>:
   19686:	7171                	addi	sp,sp,-176
   19688:	d706                	sw	ra,172(sp)
   1968a:	d522                	sw	s0,168(sp)
   1968c:	d326                	sw	s1,164(sp)
   1968e:	d14a                	sw	s2,160(sp)
   19690:	cf4e                	sw	s3,156(sp)
   19692:	cd52                	sw	s4,152(sp)
   19694:	cb56                	sw	s5,148(sp)
   19696:	8aaa                	mv	s5,a0
   19698:	4409                	li	s0,2
   1969a:	008107a3          	sb	s0,15(sp)
   1969e:	0804                	addi	s1,sp,16
   196a0:	02a00613          	li	a2,42
   196a4:	8526                	mv	a0,s1
   196a6:	00005097          	auipc	ra,0x5
   196aa:	e6e080e7          	jalr	-402(ra) # 1e514 <memcpy>
   196ae:	03b10a13          	addi	s4,sp,59
   196b2:	05900613          	li	a2,89
   196b6:	8552                	mv	a0,s4
   196b8:	4581                	li	a1,0
   196ba:	00005097          	auipc	ra,0x5
   196be:	dee080e7          	jalr	-530(ra) # 1e4a8 <memset>
   196c2:	8626                	mv	a2,s1
   196c4:	02810d23          	sb	s0,58(sp)
   196c8:	6505                	lui	a0,0x1
   196ca:	4805                	li	a6,1
   196cc:	4491                	li	s1,4
   196ce:	4585                	li	a1,1
   196d0:	ed250793          	addi	a5,a0,-302 # ed2 <.Lline_table_start1+0xca7>
   196d4:	02a00693          	li	a3,42
   196d8:	4711                	li	a4,4
   196da:	853e                	mv	a0,a5
   196dc:	00000073          	ecall
   196e0:	00851763          	bne	a0,s0,196ee <_ZN20complex_dynamic_type3app17hecb839c6a7495336E+0x68>
   196e4:	010a8023          	sb	a6,0(s5)
   196e8:	00baa223          	sw	a1,4(s5)
   196ec:	a0bd                	j	1975a <_ZN20complex_dynamic_type3app17hecb839c6a7495336E+0xd4>
   196ee:	853e                	mv	a0,a5
   196f0:	8652                	mv	a2,s4
   196f2:	009107a3          	sb	s1,15(sp)
   196f6:	478d                	li	a5,3
   196f8:	458d                	li	a1,3
   196fa:	05900693          	li	a3,89
   196fe:	470d                	li	a4,3
   19700:	00000073          	ecall
   19704:	00851d63          	bne	a0,s0,1971e <_ZN20complex_dynamic_type3app17hecb839c6a7495336E+0x98>
   19708:	03a14703          	lbu	a4,58(sp)
   1970c:	4505                	li	a0,1
   1970e:	4609                	li	a2,2
   19710:	00aa8023          	sb	a0,0(s5)
   19714:	00baa223          	sw	a1,4(s5)
   19718:	02c71963          	bne	a4,a2,1974a <_ZN20complex_dynamic_type3app17hecb839c6a7495336E+0xc4>
   1971c:	a83d                	j	1975a <_ZN20complex_dynamic_type3app17hecb839c6a7495336E+0xd4>
   1971e:	4681                	li	a3,0
   19720:	02f10d23          	sb	a5,58(sp)
   19724:	6505                	lui	a0,0x1
   19726:	4785                	li	a5,1
   19728:	4585                	li	a1,1
   1972a:	460d                	li	a2,3
   1972c:	4709                	li	a4,2
   1972e:	ed250513          	addi	a0,a0,-302 # ed2 <.Lline_table_start1+0xca7>
   19732:	08000493          	li	s1,128
   19736:	00000073          	ecall
   1973a:	4609                	li	a2,2
   1973c:	04957563          	bgeu	a0,s1,19786 <_ZN20complex_dynamic_type3app17hecb839c6a7495336E+0x100>
   19740:	00fa8023          	sb	a5,0(s5)
   19744:	00baa223          	sw	a1,4(s5)
   19748:	470d                	li	a4,3
   1974a:	6505                	lui	a0,0x1
   1974c:	ed250513          	addi	a0,a0,-302 # ed2 <.Lline_table_start1+0xca7>
   19750:	458d                	li	a1,3
   19752:	4601                	li	a2,0
   19754:	4681                	li	a3,0
   19756:	00000073          	ecall
   1975a:	00f14703          	lbu	a4,15(sp)
   1975e:	4509                	li	a0,2
   19760:	00a70a63          	beq	a4,a0,19774 <_ZN20complex_dynamic_type3app17hecb839c6a7495336E+0xee>
   19764:	6505                	lui	a0,0x1
   19766:	ed250513          	addi	a0,a0,-302 # ed2 <.Lline_table_start1+0xca7>
   1976a:	4585                	li	a1,1
   1976c:	4601                	li	a2,0
   1976e:	4681                	li	a3,0
   19770:	00000073          	ecall
   19774:	50ba                	lw	ra,172(sp)
   19776:	542a                	lw	s0,168(sp)
   19778:	549a                	lw	s1,164(sp)
   1977a:	590a                	lw	s2,160(sp)
   1977c:	49fa                	lw	s3,156(sp)
   1977e:	4a6a                	lw	s4,152(sp)
   19780:	4ada                	lw	s5,148(sp)
   19782:	614d                	addi	sp,sp,176
   19784:	8082                	ret
   19786:	00f14703          	lbu	a4,15(sp)
   1978a:	00c71463          	bne	a4,a2,19792 <_ZN20complex_dynamic_type3app17hecb839c6a7495336E+0x10c>
   1978e:	470d                	li	a4,3
   19790:	a825                	j	197c8 <_ZN20complex_dynamic_type3app17hecb839c6a7495336E+0x142>
   19792:	6505                	lui	a0,0x1
   19794:	ed250513          	addi	a0,a0,-302 # ed2 <.Lline_table_start1+0xca7>
   19798:	4585                	li	a1,1
   1979a:	4601                	li	a2,0
   1979c:	4681                	li	a3,0
   1979e:	00000073          	ecall
   197a2:	03a14703          	lbu	a4,58(sp)
   197a6:	4509                	li	a0,2
   197a8:	00a107a3          	sb	a0,15(sp)
   197ac:	00a71e63          	bne	a4,a0,197c8 <_ZN20complex_dynamic_type3app17hecb839c6a7495336E+0x142>
   197b0:	001a8513          	addi	a0,s5,1
   197b4:	05900613          	li	a2,89
   197b8:	85d2                	mv	a1,s4
   197ba:	00005097          	auipc	ra,0x5
   197be:	d5a080e7          	jalr	-678(ra) # 1e514 <memcpy>
   197c2:	000a8023          	sb	zero,0(s5)
   197c6:	b77d                	j	19774 <_ZN20complex_dynamic_type3app17hecb839c6a7495336E+0xee>
   197c8:	6505                	lui	a0,0x1
   197ca:	ed250913          	addi	s2,a0,-302 # ed2 <.Lline_table_start1+0xca7>
   197ce:	458d                	li	a1,3
   197d0:	854a                	mv	a0,s2
   197d2:	4601                	li	a2,0
   197d4:	4681                	li	a3,0
   197d6:	00000073          	ecall
   197da:	00f14983          	lbu	s3,15(sp)
   197de:	001a8513          	addi	a0,s5,1
   197e2:	05900613          	li	a2,89
   197e6:	85d2                	mv	a1,s4
   197e8:	00005097          	auipc	ra,0x5
   197ec:	d2c080e7          	jalr	-724(ra) # 1e514 <memcpy>
   197f0:	4509                	li	a0,2
   197f2:	000a8023          	sb	zero,0(s5)
   197f6:	f6a98fe3          	beq	s3,a0,19774 <_ZN20complex_dynamic_type3app17hecb839c6a7495336E+0xee>
   197fa:	4585                	li	a1,1
   197fc:	854a                	mv	a0,s2
   197fe:	4601                	li	a2,0
   19800:	4681                	li	a3,0
   19802:	874e                	mv	a4,s3
   19804:	00000073          	ecall
   19808:	b7b5                	j	19774 <_ZN20complex_dynamic_type3app17hecb839c6a7495336E+0xee>

0001980a <_ZN20complex_dynamic_type3app17hf89f02cc7ca275a2E>:
   1980a:	7119                	addi	sp,sp,-128
   1980c:	de86                	sw	ra,124(sp)
   1980e:	dca2                	sw	s0,120(sp)
   19810:	daa6                	sw	s1,116(sp)
   19812:	d8ca                	sw	s2,112(sp)
   19814:	d6ce                	sw	s3,108(sp)
   19816:	d4d2                	sw	s4,104(sp)
   19818:	d2d6                	sw	s5,100(sp)
   1981a:	8aaa                	mv	s5,a0
   1981c:	4409                	li	s0,2
   1981e:	00810023          	sb	s0,0(sp)
   19822:	00110493          	addi	s1,sp,1
   19826:	03b00613          	li	a2,59
   1982a:	8526                	mv	a0,s1
   1982c:	00005097          	auipc	ra,0x5
   19830:	ce8080e7          	jalr	-792(ra) # 1e514 <memcpy>
   19834:	03d10a13          	addi	s4,sp,61
   19838:	02700613          	li	a2,39
   1983c:	8552                	mv	a0,s4
   1983e:	4581                	li	a1,0
   19840:	00005097          	auipc	ra,0x5
   19844:	c68080e7          	jalr	-920(ra) # 1e4a8 <memset>
   19848:	8626                	mv	a2,s1
   1984a:	02810e23          	sb	s0,60(sp)
   1984e:	6505                	lui	a0,0x1
   19850:	4491                	li	s1,4
   19852:	4595                	li	a1,5
   19854:	bd350793          	addi	a5,a0,-1069 # bd3 <.Lline_table_start1+0x9a8>
   19858:	03b00693          	li	a3,59
   1985c:	4711                	li	a4,4
   1985e:	853e                	mv	a0,a5
   19860:	00000073          	ecall
   19864:	00851863          	bne	a0,s0,19874 <_ZN20complex_dynamic_type3app17hf89f02cc7ca275a2E+0x6a>
   19868:	4505                	li	a0,1
   1986a:	00aa8023          	sb	a0,0(s5)
   1986e:	00baa223          	sw	a1,4(s5)
   19872:	a0bd                	j	198e0 <_ZN20complex_dynamic_type3app17hf89f02cc7ca275a2E+0xd6>
   19874:	853e                	mv	a0,a5
   19876:	8652                	mv	a2,s4
   19878:	00910023          	sb	s1,0(sp)
   1987c:	478d                	li	a5,3
   1987e:	458d                	li	a1,3
   19880:	02700693          	li	a3,39
   19884:	470d                	li	a4,3
   19886:	00000073          	ecall
   1988a:	00851d63          	bne	a0,s0,198a4 <_ZN20complex_dynamic_type3app17hf89f02cc7ca275a2E+0x9a>
   1988e:	03c14703          	lbu	a4,60(sp)
   19892:	4505                	li	a0,1
   19894:	4609                	li	a2,2
   19896:	00aa8023          	sb	a0,0(s5)
   1989a:	00baa223          	sw	a1,4(s5)
   1989e:	02c71963          	bne	a4,a2,198d0 <_ZN20complex_dynamic_type3app17hf89f02cc7ca275a2E+0xc6>
   198a2:	a83d                	j	198e0 <_ZN20complex_dynamic_type3app17hf89f02cc7ca275a2E+0xd6>
   198a4:	4681                	li	a3,0
   198a6:	02f10e23          	sb	a5,60(sp)
   198aa:	6505                	lui	a0,0x1
   198ac:	4595                	li	a1,5
   198ae:	460d                	li	a2,3
   198b0:	4709                	li	a4,2
   198b2:	bd350513          	addi	a0,a0,-1069 # bd3 <.Lline_table_start1+0x9a8>
   198b6:	08000793          	li	a5,128
   198ba:	00000073          	ecall
   198be:	4609                	li	a2,2
   198c0:	04f57663          	bgeu	a0,a5,1990c <_ZN20complex_dynamic_type3app17hf89f02cc7ca275a2E+0x102>
   198c4:	4505                	li	a0,1
   198c6:	00aa8023          	sb	a0,0(s5)
   198ca:	00baa223          	sw	a1,4(s5)
   198ce:	470d                	li	a4,3
   198d0:	6505                	lui	a0,0x1
   198d2:	bd350513          	addi	a0,a0,-1069 # bd3 <.Lline_table_start1+0x9a8>
   198d6:	458d                	li	a1,3
   198d8:	4601                	li	a2,0
   198da:	4681                	li	a3,0
   198dc:	00000073          	ecall
   198e0:	00014703          	lbu	a4,0(sp)
   198e4:	4509                	li	a0,2
   198e6:	00a70a63          	beq	a4,a0,198fa <_ZN20complex_dynamic_type3app17hf89f02cc7ca275a2E+0xf0>
   198ea:	6505                	lui	a0,0x1
   198ec:	bd350513          	addi	a0,a0,-1069 # bd3 <.Lline_table_start1+0x9a8>
   198f0:	4595                	li	a1,5
   198f2:	4601                	li	a2,0
   198f4:	4681                	li	a3,0
   198f6:	00000073          	ecall
   198fa:	50f6                	lw	ra,124(sp)
   198fc:	5466                	lw	s0,120(sp)
   198fe:	54d6                	lw	s1,116(sp)
   19900:	5946                	lw	s2,112(sp)
   19902:	59b6                	lw	s3,108(sp)
   19904:	5a26                	lw	s4,104(sp)
   19906:	5a96                	lw	s5,100(sp)
   19908:	6109                	addi	sp,sp,128
   1990a:	8082                	ret
   1990c:	00014703          	lbu	a4,0(sp)
   19910:	00c71463          	bne	a4,a2,19918 <_ZN20complex_dynamic_type3app17hf89f02cc7ca275a2E+0x10e>
   19914:	470d                	li	a4,3
   19916:	a825                	j	1994e <_ZN20complex_dynamic_type3app17hf89f02cc7ca275a2E+0x144>
   19918:	6505                	lui	a0,0x1
   1991a:	bd350513          	addi	a0,a0,-1069 # bd3 <.Lline_table_start1+0x9a8>
   1991e:	4595                	li	a1,5
   19920:	4601                	li	a2,0
   19922:	4681                	li	a3,0
   19924:	00000073          	ecall
   19928:	03c14703          	lbu	a4,60(sp)
   1992c:	4509                	li	a0,2
   1992e:	00a10023          	sb	a0,0(sp)
   19932:	00a71e63          	bne	a4,a0,1994e <_ZN20complex_dynamic_type3app17hf89f02cc7ca275a2E+0x144>
   19936:	001a8513          	addi	a0,s5,1
   1993a:	02700613          	li	a2,39
   1993e:	85d2                	mv	a1,s4
   19940:	00005097          	auipc	ra,0x5
   19944:	bd4080e7          	jalr	-1068(ra) # 1e514 <memcpy>
   19948:	000a8023          	sb	zero,0(s5)
   1994c:	b77d                	j	198fa <_ZN20complex_dynamic_type3app17hf89f02cc7ca275a2E+0xf0>
   1994e:	6505                	lui	a0,0x1
   19950:	bd350913          	addi	s2,a0,-1069 # bd3 <.Lline_table_start1+0x9a8>
   19954:	458d                	li	a1,3
   19956:	854a                	mv	a0,s2
   19958:	4601                	li	a2,0
   1995a:	4681                	li	a3,0
   1995c:	00000073          	ecall
   19960:	00014983          	lbu	s3,0(sp)
   19964:	001a8513          	addi	a0,s5,1
   19968:	02700613          	li	a2,39
   1996c:	85d2                	mv	a1,s4
   1996e:	00005097          	auipc	ra,0x5
   19972:	ba6080e7          	jalr	-1114(ra) # 1e514 <memcpy>
   19976:	4509                	li	a0,2
   19978:	000a8023          	sb	zero,0(s5)
   1997c:	f6a98fe3          	beq	s3,a0,198fa <_ZN20complex_dynamic_type3app17hf89f02cc7ca275a2E+0xf0>
   19980:	4595                	li	a1,5
   19982:	854a                	mv	a0,s2
   19984:	4601                	li	a2,0
   19986:	4681                	li	a3,0
   19988:	874e                	mv	a4,s3
   1998a:	00000073          	ecall
   1998e:	b7b5                	j	198fa <_ZN20complex_dynamic_type3app17hf89f02cc7ca275a2E+0xf0>

00019990 <_ZN20complex_dynamic_type3app17hfa022a10db34b2aaE>:
   19990:	7175                	addi	sp,sp,-144
   19992:	c706                	sw	ra,140(sp)
   19994:	c522                	sw	s0,136(sp)
   19996:	c326                	sw	s1,132(sp)
   19998:	c14a                	sw	s2,128(sp)
   1999a:	dece                	sw	s3,124(sp)
   1999c:	dcd2                	sw	s4,120(sp)
   1999e:	dad6                	sw	s5,116(sp)
   199a0:	8aaa                	mv	s5,a0
   199a2:	4409                	li	s0,2
   199a4:	008100a3          	sb	s0,1(sp)
   199a8:	00210493          	addi	s1,sp,2
   199ac:	04800613          	li	a2,72
   199b0:	8526                	mv	a0,s1
   199b2:	00005097          	auipc	ra,0x5
   199b6:	b62080e7          	jalr	-1182(ra) # 1e514 <memcpy>
   199ba:	04b10a13          	addi	s4,sp,75
   199be:	02900613          	li	a2,41
   199c2:	8552                	mv	a0,s4
   199c4:	4581                	li	a1,0
   199c6:	00005097          	auipc	ra,0x5
   199ca:	ae2080e7          	jalr	-1310(ra) # 1e4a8 <memset>
   199ce:	8626                	mv	a2,s1
   199d0:	04810523          	sb	s0,74(sp)
   199d4:	6509                	lui	a0,0x2
   199d6:	4491                	li	s1,4
   199d8:	458d                	li	a1,3
   199da:	6a450793          	addi	a5,a0,1700 # 26a4 <.Lline_table_start1+0x2479>
   199de:	04800693          	li	a3,72
   199e2:	4711                	li	a4,4
   199e4:	853e                	mv	a0,a5
   199e6:	00000073          	ecall
   199ea:	00851863          	bne	a0,s0,199fa <_ZN20complex_dynamic_type3app17hfa022a10db34b2aaE+0x6a>
   199ee:	4505                	li	a0,1
   199f0:	00aa8023          	sb	a0,0(s5)
   199f4:	00baa223          	sw	a1,4(s5)
   199f8:	a0bd                	j	19a66 <_ZN20complex_dynamic_type3app17hfa022a10db34b2aaE+0xd6>
   199fa:	853e                	mv	a0,a5
   199fc:	8652                	mv	a2,s4
   199fe:	009100a3          	sb	s1,1(sp)
   19a02:	478d                	li	a5,3
   19a04:	4591                	li	a1,4
   19a06:	02900693          	li	a3,41
   19a0a:	470d                	li	a4,3
   19a0c:	00000073          	ecall
   19a10:	00851d63          	bne	a0,s0,19a2a <_ZN20complex_dynamic_type3app17hfa022a10db34b2aaE+0x9a>
   19a14:	04a14703          	lbu	a4,74(sp)
   19a18:	4505                	li	a0,1
   19a1a:	4609                	li	a2,2
   19a1c:	00aa8023          	sb	a0,0(s5)
   19a20:	00baa223          	sw	a1,4(s5)
   19a24:	02c71963          	bne	a4,a2,19a56 <_ZN20complex_dynamic_type3app17hfa022a10db34b2aaE+0xc6>
   19a28:	a83d                	j	19a66 <_ZN20complex_dynamic_type3app17hfa022a10db34b2aaE+0xd6>
   19a2a:	4681                	li	a3,0
   19a2c:	04f10523          	sb	a5,74(sp)
   19a30:	6509                	lui	a0,0x2
   19a32:	458d                	li	a1,3
   19a34:	4611                	li	a2,4
   19a36:	4709                	li	a4,2
   19a38:	6a450513          	addi	a0,a0,1700 # 26a4 <.Lline_table_start1+0x2479>
   19a3c:	08000793          	li	a5,128
   19a40:	00000073          	ecall
   19a44:	4609                	li	a2,2
   19a46:	04f57663          	bgeu	a0,a5,19a92 <_ZN20complex_dynamic_type3app17hfa022a10db34b2aaE+0x102>
   19a4a:	4505                	li	a0,1
   19a4c:	00aa8023          	sb	a0,0(s5)
   19a50:	00baa223          	sw	a1,4(s5)
   19a54:	470d                	li	a4,3
   19a56:	6509                	lui	a0,0x2
   19a58:	6a450513          	addi	a0,a0,1700 # 26a4 <.Lline_table_start1+0x2479>
   19a5c:	4591                	li	a1,4
   19a5e:	4601                	li	a2,0
   19a60:	4681                	li	a3,0
   19a62:	00000073          	ecall
   19a66:	00114703          	lbu	a4,1(sp)
   19a6a:	4509                	li	a0,2
   19a6c:	00a70a63          	beq	a4,a0,19a80 <_ZN20complex_dynamic_type3app17hfa022a10db34b2aaE+0xf0>
   19a70:	6509                	lui	a0,0x2
   19a72:	6a450513          	addi	a0,a0,1700 # 26a4 <.Lline_table_start1+0x2479>
   19a76:	458d                	li	a1,3
   19a78:	4601                	li	a2,0
   19a7a:	4681                	li	a3,0
   19a7c:	00000073          	ecall
   19a80:	40ba                	lw	ra,140(sp)
   19a82:	442a                	lw	s0,136(sp)
   19a84:	449a                	lw	s1,132(sp)
   19a86:	490a                	lw	s2,128(sp)
   19a88:	59f6                	lw	s3,124(sp)
   19a8a:	5a66                	lw	s4,120(sp)
   19a8c:	5ad6                	lw	s5,116(sp)
   19a8e:	6149                	addi	sp,sp,144
   19a90:	8082                	ret
   19a92:	00114703          	lbu	a4,1(sp)
   19a96:	00c71463          	bne	a4,a2,19a9e <_ZN20complex_dynamic_type3app17hfa022a10db34b2aaE+0x10e>
   19a9a:	470d                	li	a4,3
   19a9c:	a825                	j	19ad4 <_ZN20complex_dynamic_type3app17hfa022a10db34b2aaE+0x144>
   19a9e:	6509                	lui	a0,0x2
   19aa0:	6a450513          	addi	a0,a0,1700 # 26a4 <.Lline_table_start1+0x2479>
   19aa4:	458d                	li	a1,3
   19aa6:	4601                	li	a2,0
   19aa8:	4681                	li	a3,0
   19aaa:	00000073          	ecall
   19aae:	04a14703          	lbu	a4,74(sp)
   19ab2:	4509                	li	a0,2
   19ab4:	00a100a3          	sb	a0,1(sp)
   19ab8:	00a71e63          	bne	a4,a0,19ad4 <_ZN20complex_dynamic_type3app17hfa022a10db34b2aaE+0x144>
   19abc:	001a8513          	addi	a0,s5,1
   19ac0:	02900613          	li	a2,41
   19ac4:	85d2                	mv	a1,s4
   19ac6:	00005097          	auipc	ra,0x5
   19aca:	a4e080e7          	jalr	-1458(ra) # 1e514 <memcpy>
   19ace:	000a8023          	sb	zero,0(s5)
   19ad2:	b77d                	j	19a80 <_ZN20complex_dynamic_type3app17hfa022a10db34b2aaE+0xf0>
   19ad4:	6509                	lui	a0,0x2
   19ad6:	6a450913          	addi	s2,a0,1700 # 26a4 <.Lline_table_start1+0x2479>
   19ada:	4591                	li	a1,4
   19adc:	854a                	mv	a0,s2
   19ade:	4601                	li	a2,0
   19ae0:	4681                	li	a3,0
   19ae2:	00000073          	ecall
   19ae6:	00114983          	lbu	s3,1(sp)
   19aea:	001a8513          	addi	a0,s5,1
   19aee:	02900613          	li	a2,41
   19af2:	85d2                	mv	a1,s4
   19af4:	00005097          	auipc	ra,0x5
   19af8:	a20080e7          	jalr	-1504(ra) # 1e514 <memcpy>
   19afc:	4509                	li	a0,2
   19afe:	000a8023          	sb	zero,0(s5)
   19b02:	f6a98fe3          	beq	s3,a0,19a80 <_ZN20complex_dynamic_type3app17hfa022a10db34b2aaE+0xf0>
   19b06:	458d                	li	a1,3
   19b08:	854a                	mv	a0,s2
   19b0a:	4601                	li	a2,0
   19b0c:	4681                	li	a3,0
   19b0e:	874e                	mv	a4,s3
   19b10:	00000073          	ecall
   19b14:	b7b5                	j	19a80 <_ZN20complex_dynamic_type3app17hfa022a10db34b2aaE+0xf0>

00019b16 <_ZN20complex_dynamic_type3app17hfa4826dc998d4462E>:
   19b16:	7131                	addi	sp,sp,-192
   19b18:	df06                	sw	ra,188(sp)
   19b1a:	dd22                	sw	s0,184(sp)
   19b1c:	db26                	sw	s1,180(sp)
   19b1e:	d94a                	sw	s2,176(sp)
   19b20:	d74e                	sw	s3,172(sp)
   19b22:	d552                	sw	s4,168(sp)
   19b24:	d356                	sw	s5,164(sp)
   19b26:	8aaa                	mv	s5,a0
   19b28:	4409                	li	s0,2
   19b2a:	00810123          	sb	s0,2(sp)
   19b2e:	00310493          	addi	s1,sp,3
   19b32:	05100613          	li	a2,81
   19b36:	8526                	mv	a0,s1
   19b38:	00005097          	auipc	ra,0x5
   19b3c:	9dc080e7          	jalr	-1572(ra) # 1e514 <memcpy>
   19b40:	05510a13          	addi	s4,sp,85
   19b44:	04f00613          	li	a2,79
   19b48:	8552                	mv	a0,s4
   19b4a:	4581                	li	a1,0
   19b4c:	00005097          	auipc	ra,0x5
   19b50:	95c080e7          	jalr	-1700(ra) # 1e4a8 <memset>
   19b54:	8626                	mv	a2,s1
   19b56:	04810a23          	sb	s0,84(sp)
   19b5a:	6505                	lui	a0,0x1
   19b5c:	4491                	li	s1,4
   19b5e:	4589                	li	a1,2
   19b60:	e1650793          	addi	a5,a0,-490 # e16 <.Lline_table_start1+0xbeb>
   19b64:	05100693          	li	a3,81
   19b68:	4711                	li	a4,4
   19b6a:	853e                	mv	a0,a5
   19b6c:	00000073          	ecall
   19b70:	00851863          	bne	a0,s0,19b80 <_ZN20complex_dynamic_type3app17hfa4826dc998d4462E+0x6a>
   19b74:	4505                	li	a0,1
   19b76:	00aa8023          	sb	a0,0(s5)
   19b7a:	00baa223          	sw	a1,4(s5)
   19b7e:	a0bd                	j	19bec <_ZN20complex_dynamic_type3app17hfa4826dc998d4462E+0xd6>
   19b80:	853e                	mv	a0,a5
   19b82:	8652                	mv	a2,s4
   19b84:	00910123          	sb	s1,2(sp)
   19b88:	478d                	li	a5,3
   19b8a:	4591                	li	a1,4
   19b8c:	04f00693          	li	a3,79
   19b90:	470d                	li	a4,3
   19b92:	00000073          	ecall
   19b96:	00851d63          	bne	a0,s0,19bb0 <_ZN20complex_dynamic_type3app17hfa4826dc998d4462E+0x9a>
   19b9a:	05414703          	lbu	a4,84(sp)
   19b9e:	4505                	li	a0,1
   19ba0:	4609                	li	a2,2
   19ba2:	00aa8023          	sb	a0,0(s5)
   19ba6:	00baa223          	sw	a1,4(s5)
   19baa:	02c71963          	bne	a4,a2,19bdc <_ZN20complex_dynamic_type3app17hfa4826dc998d4462E+0xc6>
   19bae:	a83d                	j	19bec <_ZN20complex_dynamic_type3app17hfa4826dc998d4462E+0xd6>
   19bb0:	4681                	li	a3,0
   19bb2:	04f10a23          	sb	a5,84(sp)
   19bb6:	6505                	lui	a0,0x1
   19bb8:	4589                	li	a1,2
   19bba:	4611                	li	a2,4
   19bbc:	4709                	li	a4,2
   19bbe:	e1650513          	addi	a0,a0,-490 # e16 <.Lline_table_start1+0xbeb>
   19bc2:	08000793          	li	a5,128
   19bc6:	00000073          	ecall
   19bca:	4609                	li	a2,2
   19bcc:	04f57663          	bgeu	a0,a5,19c18 <_ZN20complex_dynamic_type3app17hfa4826dc998d4462E+0x102>
   19bd0:	4505                	li	a0,1
   19bd2:	00aa8023          	sb	a0,0(s5)
   19bd6:	00baa223          	sw	a1,4(s5)
   19bda:	470d                	li	a4,3
   19bdc:	6505                	lui	a0,0x1
   19bde:	e1650513          	addi	a0,a0,-490 # e16 <.Lline_table_start1+0xbeb>
   19be2:	4591                	li	a1,4
   19be4:	4601                	li	a2,0
   19be6:	4681                	li	a3,0
   19be8:	00000073          	ecall
   19bec:	00214703          	lbu	a4,2(sp)
   19bf0:	4509                	li	a0,2
   19bf2:	00a70a63          	beq	a4,a0,19c06 <_ZN20complex_dynamic_type3app17hfa4826dc998d4462E+0xf0>
   19bf6:	6505                	lui	a0,0x1
   19bf8:	e1650513          	addi	a0,a0,-490 # e16 <.Lline_table_start1+0xbeb>
   19bfc:	4589                	li	a1,2
   19bfe:	4601                	li	a2,0
   19c00:	4681                	li	a3,0
   19c02:	00000073          	ecall
   19c06:	50fa                	lw	ra,188(sp)
   19c08:	546a                	lw	s0,184(sp)
   19c0a:	54da                	lw	s1,180(sp)
   19c0c:	594a                	lw	s2,176(sp)
   19c0e:	59ba                	lw	s3,172(sp)
   19c10:	5a2a                	lw	s4,168(sp)
   19c12:	5a9a                	lw	s5,164(sp)
   19c14:	6129                	addi	sp,sp,192
   19c16:	8082                	ret
   19c18:	00214703          	lbu	a4,2(sp)
   19c1c:	00c71463          	bne	a4,a2,19c24 <_ZN20complex_dynamic_type3app17hfa4826dc998d4462E+0x10e>
   19c20:	470d                	li	a4,3
   19c22:	a825                	j	19c5a <_ZN20complex_dynamic_type3app17hfa4826dc998d4462E+0x144>
   19c24:	6505                	lui	a0,0x1
   19c26:	e1650513          	addi	a0,a0,-490 # e16 <.Lline_table_start1+0xbeb>
   19c2a:	4589                	li	a1,2
   19c2c:	4601                	li	a2,0
   19c2e:	4681                	li	a3,0
   19c30:	00000073          	ecall
   19c34:	05414703          	lbu	a4,84(sp)
   19c38:	4509                	li	a0,2
   19c3a:	00a10123          	sb	a0,2(sp)
   19c3e:	00a71e63          	bne	a4,a0,19c5a <_ZN20complex_dynamic_type3app17hfa4826dc998d4462E+0x144>
   19c42:	001a8513          	addi	a0,s5,1
   19c46:	04f00613          	li	a2,79
   19c4a:	85d2                	mv	a1,s4
   19c4c:	00005097          	auipc	ra,0x5
   19c50:	8c8080e7          	jalr	-1848(ra) # 1e514 <memcpy>
   19c54:	000a8023          	sb	zero,0(s5)
   19c58:	b77d                	j	19c06 <_ZN20complex_dynamic_type3app17hfa4826dc998d4462E+0xf0>
   19c5a:	6505                	lui	a0,0x1
   19c5c:	e1650913          	addi	s2,a0,-490 # e16 <.Lline_table_start1+0xbeb>
   19c60:	4591                	li	a1,4
   19c62:	854a                	mv	a0,s2
   19c64:	4601                	li	a2,0
   19c66:	4681                	li	a3,0
   19c68:	00000073          	ecall
   19c6c:	00214983          	lbu	s3,2(sp)
   19c70:	001a8513          	addi	a0,s5,1
   19c74:	04f00613          	li	a2,79
   19c78:	85d2                	mv	a1,s4
   19c7a:	00005097          	auipc	ra,0x5
   19c7e:	89a080e7          	jalr	-1894(ra) # 1e514 <memcpy>
   19c82:	4509                	li	a0,2
   19c84:	000a8023          	sb	zero,0(s5)
   19c88:	f6a98fe3          	beq	s3,a0,19c06 <_ZN20complex_dynamic_type3app17hfa4826dc998d4462E+0xf0>
   19c8c:	4589                	li	a1,2
   19c8e:	854a                	mv	a0,s2
   19c90:	4601                	li	a2,0
   19c92:	4681                	li	a3,0
   19c94:	874e                	mv	a4,s3
   19c96:	00000073          	ecall
   19c9a:	b7b5                	j	19c06 <_ZN20complex_dynamic_type3app17hfa4826dc998d4462E+0xf0>

00019c9c <_ZN20complex_dynamic_type3app17hfe0f6912851dbea1E>:
   19c9c:	7135                	addi	sp,sp,-160
   19c9e:	cf06                	sw	ra,156(sp)
   19ca0:	cd22                	sw	s0,152(sp)
   19ca2:	cb26                	sw	s1,148(sp)
   19ca4:	c94a                	sw	s2,144(sp)
   19ca6:	c74e                	sw	s3,140(sp)
   19ca8:	c552                	sw	s4,136(sp)
   19caa:	c356                	sw	s5,132(sp)
   19cac:	8aaa                	mv	s5,a0
   19cae:	4409                	li	s0,2
   19cb0:	008105a3          	sb	s0,11(sp)
   19cb4:	0064                	addi	s1,sp,12
   19cb6:	04a00613          	li	a2,74
   19cba:	8526                	mv	a0,s1
   19cbc:	00005097          	auipc	ra,0x5
   19cc0:	858080e7          	jalr	-1960(ra) # 1e514 <memcpy>
   19cc4:	05710a13          	addi	s4,sp,87
   19cc8:	02d00613          	li	a2,45
   19ccc:	8552                	mv	a0,s4
   19cce:	4581                	li	a1,0
   19cd0:	00004097          	auipc	ra,0x4
   19cd4:	7d8080e7          	jalr	2008(ra) # 1e4a8 <memset>
   19cd8:	8626                	mv	a2,s1
   19cda:	04810b23          	sb	s0,86(sp)
   19cde:	6505                	lui	a0,0x1
   19ce0:	4491                	li	s1,4
   19ce2:	4589                	li	a1,2
   19ce4:	e3d50793          	addi	a5,a0,-451 # e3d <.Lline_table_start1+0xc12>
   19ce8:	04a00693          	li	a3,74
   19cec:	4711                	li	a4,4
   19cee:	853e                	mv	a0,a5
   19cf0:	00000073          	ecall
   19cf4:	00851863          	bne	a0,s0,19d04 <_ZN20complex_dynamic_type3app17hfe0f6912851dbea1E+0x68>
   19cf8:	4505                	li	a0,1
   19cfa:	00aa8023          	sb	a0,0(s5)
   19cfe:	00baa223          	sw	a1,4(s5)
   19d02:	a0bd                	j	19d70 <_ZN20complex_dynamic_type3app17hfe0f6912851dbea1E+0xd4>
   19d04:	853e                	mv	a0,a5
   19d06:	8652                	mv	a2,s4
   19d08:	009105a3          	sb	s1,11(sp)
   19d0c:	478d                	li	a5,3
   19d0e:	458d                	li	a1,3
   19d10:	02d00693          	li	a3,45
   19d14:	470d                	li	a4,3
   19d16:	00000073          	ecall
   19d1a:	00851d63          	bne	a0,s0,19d34 <_ZN20complex_dynamic_type3app17hfe0f6912851dbea1E+0x98>
   19d1e:	05614703          	lbu	a4,86(sp)
   19d22:	4505                	li	a0,1
   19d24:	4609                	li	a2,2
   19d26:	00aa8023          	sb	a0,0(s5)
   19d2a:	00baa223          	sw	a1,4(s5)
   19d2e:	02c71963          	bne	a4,a2,19d60 <_ZN20complex_dynamic_type3app17hfe0f6912851dbea1E+0xc4>
   19d32:	a83d                	j	19d70 <_ZN20complex_dynamic_type3app17hfe0f6912851dbea1E+0xd4>
   19d34:	4681                	li	a3,0
   19d36:	04f10b23          	sb	a5,86(sp)
   19d3a:	6505                	lui	a0,0x1
   19d3c:	4589                	li	a1,2
   19d3e:	460d                	li	a2,3
   19d40:	4709                	li	a4,2
   19d42:	e3d50513          	addi	a0,a0,-451 # e3d <.Lline_table_start1+0xc12>
   19d46:	08000793          	li	a5,128
   19d4a:	00000073          	ecall
   19d4e:	4609                	li	a2,2
   19d50:	04f57663          	bgeu	a0,a5,19d9c <_ZN20complex_dynamic_type3app17hfe0f6912851dbea1E+0x100>
   19d54:	4505                	li	a0,1
   19d56:	00aa8023          	sb	a0,0(s5)
   19d5a:	00baa223          	sw	a1,4(s5)
   19d5e:	470d                	li	a4,3
   19d60:	6505                	lui	a0,0x1
   19d62:	e3d50513          	addi	a0,a0,-451 # e3d <.Lline_table_start1+0xc12>
   19d66:	458d                	li	a1,3
   19d68:	4601                	li	a2,0
   19d6a:	4681                	li	a3,0
   19d6c:	00000073          	ecall
   19d70:	00b14703          	lbu	a4,11(sp)
   19d74:	4509                	li	a0,2
   19d76:	00a70a63          	beq	a4,a0,19d8a <_ZN20complex_dynamic_type3app17hfe0f6912851dbea1E+0xee>
   19d7a:	6505                	lui	a0,0x1
   19d7c:	e3d50513          	addi	a0,a0,-451 # e3d <.Lline_table_start1+0xc12>
   19d80:	4589                	li	a1,2
   19d82:	4601                	li	a2,0
   19d84:	4681                	li	a3,0
   19d86:	00000073          	ecall
   19d8a:	40fa                	lw	ra,156(sp)
   19d8c:	446a                	lw	s0,152(sp)
   19d8e:	44da                	lw	s1,148(sp)
   19d90:	494a                	lw	s2,144(sp)
   19d92:	49ba                	lw	s3,140(sp)
   19d94:	4a2a                	lw	s4,136(sp)
   19d96:	4a9a                	lw	s5,132(sp)
   19d98:	610d                	addi	sp,sp,160
   19d9a:	8082                	ret
   19d9c:	00b14703          	lbu	a4,11(sp)
   19da0:	00c71463          	bne	a4,a2,19da8 <_ZN20complex_dynamic_type3app17hfe0f6912851dbea1E+0x10c>
   19da4:	470d                	li	a4,3
   19da6:	a825                	j	19dde <_ZN20complex_dynamic_type3app17hfe0f6912851dbea1E+0x142>
   19da8:	6505                	lui	a0,0x1
   19daa:	e3d50513          	addi	a0,a0,-451 # e3d <.Lline_table_start1+0xc12>
   19dae:	4589                	li	a1,2
   19db0:	4601                	li	a2,0
   19db2:	4681                	li	a3,0
   19db4:	00000073          	ecall
   19db8:	05614703          	lbu	a4,86(sp)
   19dbc:	4509                	li	a0,2
   19dbe:	00a105a3          	sb	a0,11(sp)
   19dc2:	00a71e63          	bne	a4,a0,19dde <_ZN20complex_dynamic_type3app17hfe0f6912851dbea1E+0x142>
   19dc6:	001a8513          	addi	a0,s5,1
   19dca:	02d00613          	li	a2,45
   19dce:	85d2                	mv	a1,s4
   19dd0:	00004097          	auipc	ra,0x4
   19dd4:	744080e7          	jalr	1860(ra) # 1e514 <memcpy>
   19dd8:	000a8023          	sb	zero,0(s5)
   19ddc:	b77d                	j	19d8a <_ZN20complex_dynamic_type3app17hfe0f6912851dbea1E+0xee>
   19dde:	6505                	lui	a0,0x1
   19de0:	e3d50913          	addi	s2,a0,-451 # e3d <.Lline_table_start1+0xc12>
   19de4:	458d                	li	a1,3
   19de6:	854a                	mv	a0,s2
   19de8:	4601                	li	a2,0
   19dea:	4681                	li	a3,0
   19dec:	00000073          	ecall
   19df0:	00b14983          	lbu	s3,11(sp)
   19df4:	001a8513          	addi	a0,s5,1
   19df8:	02d00613          	li	a2,45
   19dfc:	85d2                	mv	a1,s4
   19dfe:	00004097          	auipc	ra,0x4
   19e02:	716080e7          	jalr	1814(ra) # 1e514 <memcpy>
   19e06:	4509                	li	a0,2
   19e08:	000a8023          	sb	zero,0(s5)
   19e0c:	f6a98fe3          	beq	s3,a0,19d8a <_ZN20complex_dynamic_type3app17hfe0f6912851dbea1E+0xee>
   19e10:	4589                	li	a1,2
   19e12:	854a                	mv	a0,s2
   19e14:	4601                	li	a2,0
   19e16:	4681                	li	a3,0
   19e18:	874e                	mv	a4,s3
   19e1a:	00000073          	ecall
   19e1e:	b7b5                	j	19d8a <_ZN20complex_dynamic_type3app17hfe0f6912851dbea1E+0xee>

00019e20 <_start>:
   19e20:	81010113          	addi	sp,sp,-2032
   19e24:	7e112623          	sw	ra,2028(sp)
   19e28:	7e812423          	sw	s0,2024(sp)
   19e2c:	7e912223          	sw	s1,2020(sp)
   19e30:	7f212023          	sw	s2,2016(sp)
   19e34:	7d312e23          	sw	s3,2012(sp)
   19e38:	7d412c23          	sw	s4,2008(sp)
   19e3c:	7d512a23          	sw	s5,2004(sp)
   19e40:	7d612823          	sw	s6,2000(sp)
   19e44:	7d712623          	sw	s7,1996(sp)
   19e48:	7d812423          	sw	s8,1992(sp)
   19e4c:	7d912223          	sw	s9,1988(sp)
   19e50:	7da12023          	sw	s10,1984(sp)
   19e54:	7bb12e23          	sw	s11,1980(sp)
   19e58:	80010113          	addi	sp,sp,-2048
   19e5c:	b1010113          	addi	sp,sp,-1264
   19e60:	7ff10993          	addi	s3,sp,2047
   19e64:	7a198993          	addi	s3,s3,1953
   19e68:	06110493          	addi	s1,sp,97
   19e6c:	02800613          	li	a2,40
   19e70:	8526                	mv	a0,s1
   19e72:	4581                	li	a1,0
   19e74:	00004097          	auipc	ra,0x4
   19e78:	634080e7          	jalr	1588(ra) # 1e4a8 <memset>
   19e7c:	4409                	li	s0,2
   19e7e:	06810023          	sb	s0,96(sp)
   19e82:	6505                	lui	a0,0x1
   19e84:	38d50513          	addi	a0,a0,909 # 138d <.Lline_table_start1+0x1162>
   19e88:	00a10a33          	add	s4,sp,a0
   19e8c:	05100613          	li	a2,81
   19e90:	8552                	mv	a0,s4
   19e92:	4581                	li	a1,0
   19e94:	00004097          	auipc	ra,0x4
   19e98:	614080e7          	jalr	1556(ra) # 1e4a8 <memset>
   19e9c:	8626                	mv	a2,s1
   19e9e:	3e898623          	sb	s0,1004(s3)
   19ea2:	6789                	lui	a5,0x2
   19ea4:	4491                	li	s1,4
   19ea6:	45a5                	li	a1,9
   19ea8:	0799                	addi	a5,a5,6 # 2006 <.Lline_table_start1+0x1ddb>
   19eaa:	02800693          	li	a3,40
   19eae:	4711                	li	a4,4
   19eb0:	853e                	mv	a0,a5
   19eb2:	00000073          	ecall
   19eb6:	04850e63          	beq	a0,s0,19f12 <_start+0xf2>
   19eba:	853e                	mv	a0,a5
   19ebc:	8652                	mv	a2,s4
   19ebe:	06910023          	sb	s1,96(sp)
   19ec2:	478d                	li	a5,3
   19ec4:	45a5                	li	a1,9
   19ec6:	05100693          	li	a3,81
   19eca:	470d                	li	a4,3
   19ecc:	00000073          	ecall
   19ed0:	00851863          	bne	a0,s0,19ee0 <_start+0xc0>
   19ed4:	3ec9c703          	lbu	a4,1004(s3)
   19ed8:	4509                	li	a0,2
   19eda:	02a71363          	bne	a4,a0,19f00 <_start+0xe0>
   19ede:	a815                	j	19f12 <_start+0xf2>
   19ee0:	4681                	li	a3,0
   19ee2:	3ef98623          	sb	a5,1004(s3)
   19ee6:	6509                	lui	a0,0x2
   19ee8:	45a5                	li	a1,9
   19eea:	4625                	li	a2,9
   19eec:	4709                	li	a4,2
   19eee:	0519                	addi	a0,a0,6 # 2006 <.Lline_table_start1+0x1ddb>
   19ef0:	08000793          	li	a5,128
   19ef4:	00000073          	ecall
   19ef8:	4609                	li	a2,2
   19efa:	06f57c63          	bgeu	a0,a5,19f72 <_start+0x152>
   19efe:	470d                	li	a4,3
   19f00:	6509                	lui	a0,0x2
   19f02:	0519                	addi	a0,a0,6 # 2006 <.Lline_table_start1+0x1ddb>
   19f04:	87ae                	mv	a5,a1
   19f06:	45a5                	li	a1,9
   19f08:	4601                	li	a2,0
   19f0a:	4681                	li	a3,0
   19f0c:	00000073          	ecall
   19f10:	85be                	mv	a1,a5
   19f12:	06014703          	lbu	a4,96(sp)
   19f16:	4509                	li	a0,2
   19f18:	00a70b63          	beq	a4,a0,19f2e <_start+0x10e>
   19f1c:	6509                	lui	a0,0x2
   19f1e:	0519                	addi	a0,a0,6 # 2006 <.Lline_table_start1+0x1ddb>
   19f20:	87ae                	mv	a5,a1
   19f22:	45a5                	li	a1,9
   19f24:	4601                	li	a2,0
   19f26:	4681                	li	a3,0
   19f28:	00000073          	ecall
   19f2c:	85be                	mv	a1,a5
   19f2e:	4505                	li	a0,1
   19f30:	7f010113          	addi	sp,sp,2032
   19f34:	50010113          	addi	sp,sp,1280
   19f38:	7ec12083          	lw	ra,2028(sp)
   19f3c:	7e812403          	lw	s0,2024(sp)
   19f40:	7e412483          	lw	s1,2020(sp)
   19f44:	7e012903          	lw	s2,2016(sp)
   19f48:	7dc12983          	lw	s3,2012(sp)
   19f4c:	7d812a03          	lw	s4,2008(sp)
   19f50:	7d412a83          	lw	s5,2004(sp)
   19f54:	7d012b03          	lw	s6,2000(sp)
   19f58:	7cc12b83          	lw	s7,1996(sp)
   19f5c:	7c812c03          	lw	s8,1992(sp)
   19f60:	7c412c83          	lw	s9,1988(sp)
   19f64:	7c012d03          	lw	s10,1984(sp)
   19f68:	7bc12d83          	lw	s11,1980(sp)
   19f6c:	7f010113          	addi	sp,sp,2032
   19f70:	8082                	ret
   19f72:	06014703          	lbu	a4,96(sp)
   19f76:	00c71463          	bne	a4,a2,19f7e <_start+0x15e>
   19f7a:	470d                	li	a4,3
   19f7c:	a0bd                	j	19fea <_start+0x1ca>
   19f7e:	6509                	lui	a0,0x2
   19f80:	0519                	addi	a0,a0,6 # 2006 <.Lline_table_start1+0x1ddb>
   19f82:	45a5                	li	a1,9
   19f84:	4601                	li	a2,0
   19f86:	4681                	li	a3,0
   19f88:	00000073          	ecall
   19f8c:	3ec9c703          	lbu	a4,1004(s3)
   19f90:	4509                	li	a0,2
   19f92:	06a10023          	sb	a0,96(sp)
   19f96:	04a71a63          	bne	a4,a0,19fea <_start+0x1ca>
   19f9a:	001a4503          	lbu	a0,1(s4)
   19f9e:	000a4583          	lbu	a1,0(s4)
   19fa2:	002a4603          	lbu	a2,2(s4)
   19fa6:	0522                	slli	a0,a0,0x8
   19fa8:	3f09c683          	lbu	a3,1008(s3)
   19fac:	3f19c703          	lbu	a4,1009(s3)
   19fb0:	8d4d                	or	a0,a0,a1
   19fb2:	3f29c583          	lbu	a1,1010(s3)
   19fb6:	3f39c783          	lbu	a5,1011(s3)
   19fba:	0722                	slli	a4,a4,0x8
   19fbc:	8ed9                	or	a3,a3,a4
   19fbe:	05c2                	slli	a1,a1,0x10
   19fc0:	07e2                	slli	a5,a5,0x18
   19fc2:	8ddd                	or	a1,a1,a5
   19fc4:	0aa11023          	sh	a0,160(sp)
   19fc8:	0ac10123          	sb	a2,162(sp)
   19fcc:	00d5e4b3          	or	s1,a1,a3
   19fd0:	6505                	lui	a0,0x1
   19fd2:	39450513          	addi	a0,a0,916 # 1394 <.Lline_table_start1+0x1169>
   19fd6:	00a105b3          	add	a1,sp,a0
   19fda:	0848                	addi	a0,sp,20
   19fdc:	04a00613          	li	a2,74
   19fe0:	00004097          	auipc	ra,0x4
   19fe4:	534080e7          	jalr	1332(ra) # 1e514 <memcpy>
   19fe8:	a8a5                	j	1a060 <_start+0x240>
   19fea:	4601                	li	a2,0
   19fec:	4681                	li	a3,0
   19fee:	6909                	lui	s2,0x2
   19ff0:	0919                	addi	s2,s2,6 # 2006 <.Lline_table_start1+0x1ddb>
   19ff2:	45a5                	li	a1,9
   19ff4:	854a                	mv	a0,s2
   19ff6:	00000073          	ecall
   19ffa:	001a4503          	lbu	a0,1(s4)
   19ffe:	000a4583          	lbu	a1,0(s4)
   1a002:	002a4603          	lbu	a2,2(s4)
   1a006:	0522                	slli	a0,a0,0x8
   1a008:	3f09c683          	lbu	a3,1008(s3)
   1a00c:	3f19c703          	lbu	a4,1009(s3)
   1a010:	8d4d                	or	a0,a0,a1
   1a012:	3f29c583          	lbu	a1,1010(s3)
   1a016:	3f39c783          	lbu	a5,1011(s3)
   1a01a:	0722                	slli	a4,a4,0x8
   1a01c:	8ed9                	or	a3,a3,a4
   1a01e:	06014403          	lbu	s0,96(sp)
   1a022:	05c2                	slli	a1,a1,0x10
   1a024:	07e2                	slli	a5,a5,0x18
   1a026:	8ddd                	or	a1,a1,a5
   1a028:	0aa11023          	sh	a0,160(sp)
   1a02c:	0ac10123          	sb	a2,162(sp)
   1a030:	00d5e4b3          	or	s1,a1,a3
   1a034:	6505                	lui	a0,0x1
   1a036:	39450513          	addi	a0,a0,916 # 1394 <.Lline_table_start1+0x1169>
   1a03a:	00a105b3          	add	a1,sp,a0
   1a03e:	0848                	addi	a0,sp,20
   1a040:	04a00613          	li	a2,74
   1a044:	00004097          	auipc	ra,0x4
   1a048:	4d0080e7          	jalr	1232(ra) # 1e514 <memcpy>
   1a04c:	4509                	li	a0,2
   1a04e:	00a40963          	beq	s0,a0,1a060 <_start+0x240>
   1a052:	45a5                	li	a1,9
   1a054:	854a                	mv	a0,s2
   1a056:	4601                	li	a2,0
   1a058:	4681                	li	a3,0
   1a05a:	8722                	mv	a4,s0
   1a05c:	00000073          	ecall
   1a060:	0a014503          	lbu	a0,160(sp)
   1a064:	0a114583          	lbu	a1,161(sp)
   1a068:	0a214603          	lbu	a2,162(sp)
   1a06c:	6685                	lui	a3,0x1
   1a06e:	38d68693          	addi	a3,a3,909 # 138d <.Lline_table_start1+0x1162>
   1a072:	00d10a33          	add	s4,sp,a3
   1a076:	3ea986a3          	sb	a0,1005(s3)
   1a07a:	3eb98723          	sb	a1,1006(s3)
   1a07e:	3ec987a3          	sb	a2,1007(s3)
   1a082:	6505                	lui	a0,0x1
   1a084:	33050513          	addi	a0,a0,816 # 1330 <.Lline_table_start1+0x1105>
   1a088:	950a                	add	a0,a0,sp
   1a08a:	084c                	addi	a1,sp,20
   1a08c:	04a00613          	li	a2,74
   1a090:	00004097          	auipc	ra,0x4
   1a094:	484080e7          	jalr	1156(ra) # 1e514 <memcpy>
   1a098:	6505                	lui	a0,0x1
   1a09a:	39450513          	addi	a0,a0,916 # 1394 <.Lline_table_start1+0x1169>
   1a09e:	950a                	add	a0,a0,sp
   1a0a0:	6585                	lui	a1,0x1
   1a0a2:	33058593          	addi	a1,a1,816 # 1330 <.Lline_table_start1+0x1105>
   1a0a6:	958a                	add	a1,a1,sp
   1a0a8:	04a00613          	li	a2,74
   1a0ac:	00004097          	auipc	ra,0x4
   1a0b0:	468080e7          	jalr	1128(ra) # 1e514 <memcpy>
   1a0b4:	4409                	li	s0,2
   1a0b6:	0184d513          	srli	a0,s1,0x18
   1a0ba:	0104d593          	srli	a1,s1,0x10
   1a0be:	3ea989a3          	sb	a0,1011(s3)
   1a0c2:	0084d513          	srli	a0,s1,0x8
   1a0c6:	3e898623          	sb	s0,1004(s3)
   1a0ca:	3e998823          	sb	s1,1008(s3)
   1a0ce:	3ea988a3          	sb	a0,1009(s3)
   1a0d2:	3eb98923          	sb	a1,1010(s3)
   1a0d6:	6505                	lui	a0,0x1
   1a0d8:	33150513          	addi	a0,a0,817 # 1331 <.Lline_table_start1+0x1106>
   1a0dc:	00a10933          	add	s2,sp,a0
   1a0e0:	04600613          	li	a2,70
   1a0e4:	854a                	mv	a0,s2
   1a0e6:	4581                	li	a1,0
   1a0e8:	00004097          	auipc	ra,0x4
   1a0ec:	3c0080e7          	jalr	960(ra) # 1e4a8 <memset>
   1a0f0:	8652                	mv	a2,s4
   1a0f2:	38898823          	sb	s0,912(s3)
   1a0f6:	6509                	lui	a0,0x2
   1a0f8:	4491                	li	s1,4
   1a0fa:	459d                	li	a1,7
   1a0fc:	0c450793          	addi	a5,a0,196 # 20c4 <.Lline_table_start1+0x1e99>
   1a100:	05100693          	li	a3,81
   1a104:	4711                	li	a4,4
   1a106:	853e                	mv	a0,a5
   1a108:	00000073          	ecall
   1a10c:	06850063          	beq	a0,s0,1a16c <_start+0x34c>
   1a110:	853e                	mv	a0,a5
   1a112:	4581                	li	a1,0
   1a114:	864a                	mv	a2,s2
   1a116:	3e998623          	sb	s1,1004(s3)
   1a11a:	478d                	li	a5,3
   1a11c:	04600693          	li	a3,70
   1a120:	470d                	li	a4,3
   1a122:	00000073          	ecall
   1a126:	00851863          	bne	a0,s0,1a136 <_start+0x316>
   1a12a:	3909c703          	lbu	a4,912(s3)
   1a12e:	4509                	li	a0,2
   1a130:	02a71463          	bne	a4,a0,1a158 <_start+0x338>
   1a134:	a825                	j	1a16c <_start+0x34c>
   1a136:	4601                	li	a2,0
   1a138:	4681                	li	a3,0
   1a13a:	38f98823          	sb	a5,912(s3)
   1a13e:	6509                	lui	a0,0x2
   1a140:	459d                	li	a1,7
   1a142:	4709                	li	a4,2
   1a144:	0c450513          	addi	a0,a0,196 # 20c4 <.Lline_table_start1+0x1e99>
   1a148:	08000793          	li	a5,128
   1a14c:	00000073          	ecall
   1a150:	4609                	li	a2,2
   1a152:	02f57c63          	bgeu	a0,a5,1a18a <_start+0x36a>
   1a156:	470d                	li	a4,3
   1a158:	6509                	lui	a0,0x2
   1a15a:	0c450513          	addi	a0,a0,196 # 20c4 <.Lline_table_start1+0x1e99>
   1a15e:	87ae                	mv	a5,a1
   1a160:	4581                	li	a1,0
   1a162:	4601                	li	a2,0
   1a164:	4681                	li	a3,0
   1a166:	00000073          	ecall
   1a16a:	85be                	mv	a1,a5
   1a16c:	3ec9c703          	lbu	a4,1004(s3)
   1a170:	4509                	li	a0,2
   1a172:	daa70ee3          	beq	a4,a0,19f2e <_start+0x10e>
   1a176:	6509                	lui	a0,0x2
   1a178:	0c450513          	addi	a0,a0,196 # 20c4 <.Lline_table_start1+0x1e99>
   1a17c:	87ae                	mv	a5,a1
   1a17e:	459d                	li	a1,7
   1a180:	4601                	li	a2,0
   1a182:	4681                	li	a3,0
   1a184:	00000073          	ecall
   1a188:	b355                	j	19f2c <_start+0x10c>
   1a18a:	3ec9c703          	lbu	a4,1004(s3)
   1a18e:	00c71463          	bne	a4,a2,1a196 <_start+0x376>
   1a192:	470d                	li	a4,3
   1a194:	a885                	j	1a204 <_start+0x3e4>
   1a196:	6509                	lui	a0,0x2
   1a198:	0c450513          	addi	a0,a0,196 # 20c4 <.Lline_table_start1+0x1e99>
   1a19c:	459d                	li	a1,7
   1a19e:	4601                	li	a2,0
   1a1a0:	4681                	li	a3,0
   1a1a2:	00000073          	ecall
   1a1a6:	3909c703          	lbu	a4,912(s3)
   1a1aa:	4509                	li	a0,2
   1a1ac:	3ea98623          	sb	a0,1004(s3)
   1a1b0:	04a71a63          	bne	a4,a0,1a204 <_start+0x3e4>
   1a1b4:	00194503          	lbu	a0,1(s2)
   1a1b8:	00094583          	lbu	a1,0(s2)
   1a1bc:	00294603          	lbu	a2,2(s2)
   1a1c0:	0522                	slli	a0,a0,0x8
   1a1c2:	3949c683          	lbu	a3,916(s3)
   1a1c6:	3959c703          	lbu	a4,917(s3)
   1a1ca:	8d4d                	or	a0,a0,a1
   1a1cc:	3969c583          	lbu	a1,918(s3)
   1a1d0:	3979c783          	lbu	a5,919(s3)
   1a1d4:	0722                	slli	a4,a4,0x8
   1a1d6:	8ed9                	or	a3,a3,a4
   1a1d8:	05c2                	slli	a1,a1,0x10
   1a1da:	07e2                	slli	a5,a5,0x18
   1a1dc:	8ddd                	or	a1,a1,a5
   1a1de:	0aa11023          	sh	a0,160(sp)
   1a1e2:	0ac10123          	sb	a2,162(sp)
   1a1e6:	00d5e4b3          	or	s1,a1,a3
   1a1ea:	6505                	lui	a0,0x1
   1a1ec:	33850513          	addi	a0,a0,824 # 1338 <.Lline_table_start1+0x110d>
   1a1f0:	00a105b3          	add	a1,sp,a0
   1a1f4:	1088                	addi	a0,sp,96
   1a1f6:	03f00613          	li	a2,63
   1a1fa:	00004097          	auipc	ra,0x4
   1a1fe:	31a080e7          	jalr	794(ra) # 1e514 <memcpy>
   1a202:	a8ad                	j	1a27c <_start+0x45c>
   1a204:	4581                	li	a1,0
   1a206:	4601                	li	a2,0
   1a208:	4681                	li	a3,0
   1a20a:	6509                	lui	a0,0x2
   1a20c:	0c450a13          	addi	s4,a0,196 # 20c4 <.Lline_table_start1+0x1e99>
   1a210:	8552                	mv	a0,s4
   1a212:	00000073          	ecall
   1a216:	00194503          	lbu	a0,1(s2)
   1a21a:	00094583          	lbu	a1,0(s2)
   1a21e:	00294603          	lbu	a2,2(s2)
   1a222:	0522                	slli	a0,a0,0x8
   1a224:	3949c683          	lbu	a3,916(s3)
   1a228:	3959c703          	lbu	a4,917(s3)
   1a22c:	8d4d                	or	a0,a0,a1
   1a22e:	3969c583          	lbu	a1,918(s3)
   1a232:	3979c783          	lbu	a5,919(s3)
   1a236:	0722                	slli	a4,a4,0x8
   1a238:	8ed9                	or	a3,a3,a4
   1a23a:	05c2                	slli	a1,a1,0x10
   1a23c:	07e2                	slli	a5,a5,0x18
   1a23e:	8ddd                	or	a1,a1,a5
   1a240:	3ec9c403          	lbu	s0,1004(s3)
   1a244:	0aa11023          	sh	a0,160(sp)
   1a248:	0ac10123          	sb	a2,162(sp)
   1a24c:	00d5e4b3          	or	s1,a1,a3
   1a250:	6505                	lui	a0,0x1
   1a252:	33850513          	addi	a0,a0,824 # 1338 <.Lline_table_start1+0x110d>
   1a256:	00a105b3          	add	a1,sp,a0
   1a25a:	1088                	addi	a0,sp,96
   1a25c:	03f00613          	li	a2,63
   1a260:	00004097          	auipc	ra,0x4
   1a264:	2b4080e7          	jalr	692(ra) # 1e514 <memcpy>
   1a268:	4509                	li	a0,2
   1a26a:	00a40963          	beq	s0,a0,1a27c <_start+0x45c>
   1a26e:	459d                	li	a1,7
   1a270:	8552                	mv	a0,s4
   1a272:	4601                	li	a2,0
   1a274:	4681                	li	a3,0
   1a276:	8722                	mv	a4,s0
   1a278:	00000073          	ecall
   1a27c:	0a014503          	lbu	a0,160(sp)
   1a280:	0a114583          	lbu	a1,161(sp)
   1a284:	0a214603          	lbu	a2,162(sp)
   1a288:	6685                	lui	a3,0x1
   1a28a:	38d68693          	addi	a3,a3,909 # 138d <.Lline_table_start1+0x1162>
   1a28e:	00d10a33          	add	s4,sp,a3
   1a292:	3ea986a3          	sb	a0,1005(s3)
   1a296:	3eb98723          	sb	a1,1006(s3)
   1a29a:	3ec987a3          	sb	a2,1007(s3)
   1a29e:	0848                	addi	a0,sp,20
   1a2a0:	108c                	addi	a1,sp,96
   1a2a2:	03f00613          	li	a2,63
   1a2a6:	00004097          	auipc	ra,0x4
   1a2aa:	26e080e7          	jalr	622(ra) # 1e514 <memcpy>
   1a2ae:	6505                	lui	a0,0x1
   1a2b0:	39450513          	addi	a0,a0,916 # 1394 <.Lline_table_start1+0x1169>
   1a2b4:	950a                	add	a0,a0,sp
   1a2b6:	084c                	addi	a1,sp,20
   1a2b8:	03f00613          	li	a2,63
   1a2bc:	00004097          	auipc	ra,0x4
   1a2c0:	258080e7          	jalr	600(ra) # 1e514 <memcpy>
   1a2c4:	4409                	li	s0,2
   1a2c6:	0184d513          	srli	a0,s1,0x18
   1a2ca:	0104d593          	srli	a1,s1,0x10
   1a2ce:	3ea989a3          	sb	a0,1011(s3)
   1a2d2:	0084d513          	srli	a0,s1,0x8
   1a2d6:	3e898623          	sb	s0,1004(s3)
   1a2da:	3e998823          	sb	s1,1008(s3)
   1a2de:	3ea988a3          	sb	a0,1009(s3)
   1a2e2:	3eb98923          	sb	a1,1010(s3)
   1a2e6:	4661                	li	a2,24
   1a2e8:	854a                	mv	a0,s2
   1a2ea:	4581                	li	a1,0
   1a2ec:	00004097          	auipc	ra,0x4
   1a2f0:	1bc080e7          	jalr	444(ra) # 1e4a8 <memset>
   1a2f4:	8652                	mv	a2,s4
   1a2f6:	38898823          	sb	s0,912(s3)
   1a2fa:	6509                	lui	a0,0x2
   1a2fc:	4491                	li	s1,4
   1a2fe:	458d                	li	a1,3
   1a300:	3cf50793          	addi	a5,a0,975 # 23cf <.Lline_table_start1+0x21a4>
   1a304:	04600693          	li	a3,70
   1a308:	4711                	li	a4,4
   1a30a:	853e                	mv	a0,a5
   1a30c:	00000073          	ecall
   1a310:	04850f63          	beq	a0,s0,1a36e <_start+0x54e>
   1a314:	853e                	mv	a0,a5
   1a316:	864a                	mv	a2,s2
   1a318:	3e998623          	sb	s1,1004(s3)
   1a31c:	478d                	li	a5,3
   1a31e:	4589                	li	a1,2
   1a320:	46e1                	li	a3,24
   1a322:	470d                	li	a4,3
   1a324:	00000073          	ecall
   1a328:	00851863          	bne	a0,s0,1a338 <_start+0x518>
   1a32c:	3909c703          	lbu	a4,912(s3)
   1a330:	4509                	li	a0,2
   1a332:	02a71463          	bne	a4,a0,1a35a <_start+0x53a>
   1a336:	a825                	j	1a36e <_start+0x54e>
   1a338:	4681                	li	a3,0
   1a33a:	38f98823          	sb	a5,912(s3)
   1a33e:	6509                	lui	a0,0x2
   1a340:	458d                	li	a1,3
   1a342:	4609                	li	a2,2
   1a344:	4709                	li	a4,2
   1a346:	3cf50513          	addi	a0,a0,975 # 23cf <.Lline_table_start1+0x21a4>
   1a34a:	08000793          	li	a5,128
   1a34e:	00000073          	ecall
   1a352:	4609                	li	a2,2
   1a354:	02f57c63          	bgeu	a0,a5,1a38c <_start+0x56c>
   1a358:	470d                	li	a4,3
   1a35a:	6509                	lui	a0,0x2
   1a35c:	3cf50513          	addi	a0,a0,975 # 23cf <.Lline_table_start1+0x21a4>
   1a360:	87ae                	mv	a5,a1
   1a362:	4589                	li	a1,2
   1a364:	4601                	li	a2,0
   1a366:	4681                	li	a3,0
   1a368:	00000073          	ecall
   1a36c:	85be                	mv	a1,a5
   1a36e:	3ec9c703          	lbu	a4,1004(s3)
   1a372:	4509                	li	a0,2
   1a374:	baa70de3          	beq	a4,a0,19f2e <_start+0x10e>
   1a378:	6509                	lui	a0,0x2
   1a37a:	3cf50513          	addi	a0,a0,975 # 23cf <.Lline_table_start1+0x21a4>
   1a37e:	87ae                	mv	a5,a1
   1a380:	458d                	li	a1,3
   1a382:	4601                	li	a2,0
   1a384:	4681                	li	a3,0
   1a386:	00000073          	ecall
   1a38a:	b64d                	j	19f2c <_start+0x10c>
   1a38c:	3ec9c703          	lbu	a4,1004(s3)
   1a390:	00c71463          	bne	a4,a2,1a398 <_start+0x578>
   1a394:	470d                	li	a4,3
   1a396:	a0dd                	j	1a47c <_start+0x65c>
   1a398:	6509                	lui	a0,0x2
   1a39a:	3cf50513          	addi	a0,a0,975 # 23cf <.Lline_table_start1+0x21a4>
   1a39e:	458d                	li	a1,3
   1a3a0:	4601                	li	a2,0
   1a3a2:	4681                	li	a3,0
   1a3a4:	00000073          	ecall
   1a3a8:	3909c703          	lbu	a4,912(s3)
   1a3ac:	4509                	li	a0,2
   1a3ae:	3ea98623          	sb	a0,1004(s3)
   1a3b2:	0ca71563          	bne	a4,a0,1a47c <_start+0x65c>
   1a3b6:	00094583          	lbu	a1,0(s2)
   1a3ba:	00194603          	lbu	a2,1(s2)
   1a3be:	00294803          	lbu	a6,2(s2)
   1a3c2:	3949c883          	lbu	a7,916(s3)
   1a3c6:	3959c283          	lbu	t0,917(s3)
   1a3ca:	3969c303          	lbu	t1,918(s3)
   1a3ce:	3979c483          	lbu	s1,919(s3)
   1a3d2:	3a89c403          	lbu	s0,936(s3)
   1a3d6:	3989c503          	lbu	a0,920(s3)
   1a3da:	3999c683          	lbu	a3,921(s3)
   1a3de:	39a9c703          	lbu	a4,922(s3)
   1a3e2:	39b9c783          	lbu	a5,923(s3)
   1a3e6:	0622                	slli	a2,a2,0x8
   1a3e8:	0a810823          	sb	s0,176(sp)
   1a3ec:	00b663b3          	or	t2,a2,a1
   1a3f0:	39c9ce03          	lbu	t3,924(s3)
   1a3f4:	39d9c403          	lbu	s0,925(s3)
   1a3f8:	39e9c583          	lbu	a1,926(s3)
   1a3fc:	39f9c603          	lbu	a2,927(s3)
   1a400:	02a2                	slli	t0,t0,0x8
   1a402:	0342                	slli	t1,t1,0x10
   1a404:	04e2                	slli	s1,s1,0x18
   1a406:	06a2                	slli	a3,a3,0x8
   1a408:	0742                	slli	a4,a4,0x10
   1a40a:	07e2                	slli	a5,a5,0x18
   1a40c:	0112e8b3          	or	a7,t0,a7
   1a410:	0064e333          	or	t1,s1,t1
   1a414:	00a6e2b3          	or	t0,a3,a0
   1a418:	00e7eeb3          	or	t4,a5,a4
   1a41c:	3a09c683          	lbu	a3,928(s3)
   1a420:	3a19c783          	lbu	a5,929(s3)
   1a424:	3a29c503          	lbu	a0,930(s3)
   1a428:	3a39c483          	lbu	s1,931(s3)
   1a42c:	0422                	slli	s0,s0,0x8
   1a42e:	05c2                	slli	a1,a1,0x10
   1a430:	0662                	slli	a2,a2,0x18
   1a432:	07a2                	slli	a5,a5,0x8
   1a434:	0542                	slli	a0,a0,0x10
   1a436:	04e2                	slli	s1,s1,0x18
   1a438:	01c46433          	or	s0,s0,t3
   1a43c:	8dd1                	or	a1,a1,a2
   1a43e:	8edd                	or	a3,a3,a5
   1a440:	3a49c603          	lbu	a2,932(s3)
   1a444:	3a59c783          	lbu	a5,933(s3)
   1a448:	8d45                	or	a0,a0,s1
   1a44a:	3a69c483          	lbu	s1,934(s3)
   1a44e:	3a79c703          	lbu	a4,935(s3)
   1a452:	07a2                	slli	a5,a5,0x8
   1a454:	8e5d                	or	a2,a2,a5
   1a456:	04c2                	slli	s1,s1,0x10
   1a458:	0762                	slli	a4,a4,0x18
   1a45a:	8f45                	or	a4,a4,s1
   1a45c:	0a711a23          	sh	t2,180(sp)
   1a460:	0b010b23          	sb	a6,182(sp)
   1a464:	011364b3          	or	s1,t1,a7
   1a468:	005ee7b3          	or	a5,t4,t0
   1a46c:	8dc1                	or	a1,a1,s0
   1a46e:	8d55                	or	a0,a0,a3
   1a470:	8e59                	or	a2,a2,a4
   1a472:	d13e                	sw	a5,160(sp)
   1a474:	d32e                	sw	a1,164(sp)
   1a476:	d52a                	sw	a0,168(sp)
   1a478:	d732                	sw	a2,172(sp)
   1a47a:	a0fd                	j	1a568 <_start+0x748>
   1a47c:	4601                	li	a2,0
   1a47e:	4681                	li	a3,0
   1a480:	6509                	lui	a0,0x2
   1a482:	3cf50813          	addi	a6,a0,975 # 23cf <.Lline_table_start1+0x21a4>
   1a486:	4589                	li	a1,2
   1a488:	8542                	mv	a0,a6
   1a48a:	00000073          	ecall
   1a48e:	00094583          	lbu	a1,0(s2)
   1a492:	00194603          	lbu	a2,1(s2)
   1a496:	00294883          	lbu	a7,2(s2)
   1a49a:	3949c283          	lbu	t0,916(s3)
   1a49e:	3959c303          	lbu	t1,917(s3)
   1a4a2:	3969c383          	lbu	t2,918(s3)
   1a4a6:	3979c403          	lbu	s0,919(s3)
   1a4aa:	3a89c783          	lbu	a5,936(s3)
   1a4ae:	3989c503          	lbu	a0,920(s3)
   1a4b2:	3999c683          	lbu	a3,921(s3)
   1a4b6:	39a9c703          	lbu	a4,922(s3)
   1a4ba:	39b9c483          	lbu	s1,923(s3)
   1a4be:	0622                	slli	a2,a2,0x8
   1a4c0:	0af10823          	sb	a5,176(sp)
   1a4c4:	00b66e33          	or	t3,a2,a1
   1a4c8:	39c9ce83          	lbu	t4,924(s3)
   1a4cc:	39d9c783          	lbu	a5,925(s3)
   1a4d0:	39e9c583          	lbu	a1,926(s3)
   1a4d4:	39f9c603          	lbu	a2,927(s3)
   1a4d8:	0322                	slli	t1,t1,0x8
   1a4da:	03c2                	slli	t2,t2,0x10
   1a4dc:	0462                	slli	s0,s0,0x18
   1a4de:	06a2                	slli	a3,a3,0x8
   1a4e0:	0742                	slli	a4,a4,0x10
   1a4e2:	04e2                	slli	s1,s1,0x18
   1a4e4:	005362b3          	or	t0,t1,t0
   1a4e8:	007463b3          	or	t2,s0,t2
   1a4ec:	00a6e333          	or	t1,a3,a0
   1a4f0:	00e4ef33          	or	t5,s1,a4
   1a4f4:	3a09c683          	lbu	a3,928(s3)
   1a4f8:	3a19c483          	lbu	s1,929(s3)
   1a4fc:	3a29c503          	lbu	a0,930(s3)
   1a500:	3a39c403          	lbu	s0,931(s3)
   1a504:	07a2                	slli	a5,a5,0x8
   1a506:	05c2                	slli	a1,a1,0x10
   1a508:	0662                	slli	a2,a2,0x18
   1a50a:	04a2                	slli	s1,s1,0x8
   1a50c:	0542                	slli	a0,a0,0x10
   1a50e:	0462                	slli	s0,s0,0x18
   1a510:	01d7e7b3          	or	a5,a5,t4
   1a514:	8dd1                	or	a1,a1,a2
   1a516:	8ec5                	or	a3,a3,s1
   1a518:	3a49c603          	lbu	a2,932(s3)
   1a51c:	3a59c483          	lbu	s1,933(s3)
   1a520:	8d41                	or	a0,a0,s0
   1a522:	3a69c403          	lbu	s0,934(s3)
   1a526:	3a79c703          	lbu	a4,935(s3)
   1a52a:	04a2                	slli	s1,s1,0x8
   1a52c:	8e45                	or	a2,a2,s1
   1a52e:	0442                	slli	s0,s0,0x10
   1a530:	0762                	slli	a4,a4,0x18
   1a532:	8f41                	or	a4,a4,s0
   1a534:	0bc11a23          	sh	t3,180(sp)
   1a538:	0b110b23          	sb	a7,182(sp)
   1a53c:	0053e4b3          	or	s1,t2,t0
   1a540:	006f6433          	or	s0,t5,t1
   1a544:	8ddd                	or	a1,a1,a5
   1a546:	8d55                	or	a0,a0,a3
   1a548:	4689                	li	a3,2
   1a54a:	8e59                	or	a2,a2,a4
   1a54c:	3ec9c703          	lbu	a4,1004(s3)
   1a550:	d122                	sw	s0,160(sp)
   1a552:	d32e                	sw	a1,164(sp)
   1a554:	d52a                	sw	a0,168(sp)
   1a556:	d732                	sw	a2,172(sp)
   1a558:	00d70863          	beq	a4,a3,1a568 <_start+0x748>
   1a55c:	458d                	li	a1,3
   1a55e:	8542                	mv	a0,a6
   1a560:	4601                	li	a2,0
   1a562:	4681                	li	a3,0
   1a564:	00000073          	ecall
   1a568:	0b414503          	lbu	a0,180(sp)
   1a56c:	0b514583          	lbu	a1,181(sp)
   1a570:	0b614603          	lbu	a2,182(sp)
   1a574:	568a                	lw	a3,160(sp)
   1a576:	571a                	lw	a4,164(sp)
   1a578:	57aa                	lw	a5,168(sp)
   1a57a:	543a                	lw	s0,172(sp)
   1a57c:	06a100a3          	sb	a0,97(sp)
   1a580:	06b10123          	sb	a1,98(sp)
   1a584:	06c101a3          	sb	a2,99(sp)
   1a588:	0b014503          	lbu	a0,176(sp)
   1a58c:	ca36                	sw	a3,20(sp)
   1a58e:	cc3a                	sw	a4,24(sp)
   1a590:	ce3e                	sw	a5,28(sp)
   1a592:	d022                	sw	s0,32(sp)
   1a594:	06110a93          	addi	s5,sp,97
   1a598:	02a10223          	sb	a0,36(sp)
   1a59c:	10a8                	addi	a0,sp,104
   1a59e:	084c                	addi	a1,sp,20
   1a5a0:	4645                	li	a2,17
   1a5a2:	00004097          	auipc	ra,0x4
   1a5a6:	f72080e7          	jalr	-142(ra) # 1e514 <memcpy>
   1a5aa:	4409                	li	s0,2
   1a5ac:	0184d513          	srli	a0,s1,0x18
   1a5b0:	0104d593          	srli	a1,s1,0x10
   1a5b4:	06a103a3          	sb	a0,103(sp)
   1a5b8:	0084d513          	srli	a0,s1,0x8
   1a5bc:	06810023          	sb	s0,96(sp)
   1a5c0:	06910223          	sb	s1,100(sp)
   1a5c4:	06a102a3          	sb	a0,101(sp)
   1a5c8:	06b10323          	sb	a1,102(sp)
   1a5cc:	03600613          	li	a2,54
   1a5d0:	8552                	mv	a0,s4
   1a5d2:	4581                	li	a1,0
   1a5d4:	00004097          	auipc	ra,0x4
   1a5d8:	ed4080e7          	jalr	-300(ra) # 1e4a8 <memset>
   1a5dc:	4581                	li	a1,0
   1a5de:	8656                	mv	a2,s5
   1a5e0:	3e898623          	sb	s0,1004(s3)
   1a5e4:	4791                	li	a5,4
   1a5e6:	21f00513          	li	a0,543
   1a5ea:	46e1                	li	a3,24
   1a5ec:	4711                	li	a4,4
   1a5ee:	00000073          	ecall
   1a5f2:	04850f63          	beq	a0,s0,1a650 <_start+0x830>
   1a5f6:	8652                	mv	a2,s4
   1a5f8:	06f10023          	sb	a5,96(sp)
   1a5fc:	478d                	li	a5,3
   1a5fe:	21f00513          	li	a0,543
   1a602:	459d                	li	a1,7
   1a604:	03600693          	li	a3,54
   1a608:	470d                	li	a4,3
   1a60a:	00000073          	ecall
   1a60e:	00851863          	bne	a0,s0,1a61e <_start+0x7fe>
   1a612:	3ec9c703          	lbu	a4,1004(s3)
   1a616:	4509                	li	a0,2
   1a618:	02a71363          	bne	a4,a0,1a63e <_start+0x81e>
   1a61c:	a815                	j	1a650 <_start+0x830>
   1a61e:	4581                	li	a1,0
   1a620:	4681                	li	a3,0
   1a622:	3ef98623          	sb	a5,1004(s3)
   1a626:	21f00513          	li	a0,543
   1a62a:	461d                	li	a2,7
   1a62c:	4709                	li	a4,2
   1a62e:	08000793          	li	a5,128
   1a632:	00000073          	ecall
   1a636:	4609                	li	a2,2
   1a638:	02f57a63          	bgeu	a0,a5,1a66c <_start+0x84c>
   1a63c:	470d                	li	a4,3
   1a63e:	21f00513          	li	a0,543
   1a642:	87ae                	mv	a5,a1
   1a644:	459d                	li	a1,7
   1a646:	4601                	li	a2,0
   1a648:	4681                	li	a3,0
   1a64a:	00000073          	ecall
   1a64e:	85be                	mv	a1,a5
   1a650:	06014703          	lbu	a4,96(sp)
   1a654:	4509                	li	a0,2
   1a656:	8ca70ce3          	beq	a4,a0,19f2e <_start+0x10e>
   1a65a:	21f00513          	li	a0,543
   1a65e:	87ae                	mv	a5,a1
   1a660:	4581                	li	a1,0
   1a662:	4601                	li	a2,0
   1a664:	4681                	li	a3,0
   1a666:	00000073          	ecall
   1a66a:	b0c9                	j	19f2c <_start+0x10c>
   1a66c:	06014703          	lbu	a4,96(sp)
   1a670:	00c71463          	bne	a4,a2,1a678 <_start+0x858>
   1a674:	470d                	li	a4,3
   1a676:	a0bd                	j	1a6e4 <_start+0x8c4>
   1a678:	21f00513          	li	a0,543
   1a67c:	4581                	li	a1,0
   1a67e:	4601                	li	a2,0
   1a680:	4681                	li	a3,0
   1a682:	00000073          	ecall
   1a686:	3ec9c703          	lbu	a4,1004(s3)
   1a68a:	4509                	li	a0,2
   1a68c:	06a10023          	sb	a0,96(sp)
   1a690:	04a71a63          	bne	a4,a0,1a6e4 <_start+0x8c4>
   1a694:	001a4503          	lbu	a0,1(s4)
   1a698:	000a4583          	lbu	a1,0(s4)
   1a69c:	002a4603          	lbu	a2,2(s4)
   1a6a0:	0522                	slli	a0,a0,0x8
   1a6a2:	3f09c683          	lbu	a3,1008(s3)
   1a6a6:	3f19c703          	lbu	a4,1009(s3)
   1a6aa:	8d4d                	or	a0,a0,a1
   1a6ac:	3f29c583          	lbu	a1,1010(s3)
   1a6b0:	3f39c783          	lbu	a5,1011(s3)
   1a6b4:	0722                	slli	a4,a4,0x8
   1a6b6:	8ed9                	or	a3,a3,a4
   1a6b8:	05c2                	slli	a1,a1,0x10
   1a6ba:	07e2                	slli	a5,a5,0x18
   1a6bc:	8ddd                	or	a1,a1,a5
   1a6be:	0aa11023          	sh	a0,160(sp)
   1a6c2:	0ac10123          	sb	a2,162(sp)
   1a6c6:	00d5e433          	or	s0,a1,a3
   1a6ca:	6505                	lui	a0,0x1
   1a6cc:	39450513          	addi	a0,a0,916 # 1394 <.Lline_table_start1+0x1169>
   1a6d0:	00a105b3          	add	a1,sp,a0
   1a6d4:	0848                	addi	a0,sp,20
   1a6d6:	02f00613          	li	a2,47
   1a6da:	00004097          	auipc	ra,0x4
   1a6de:	e3a080e7          	jalr	-454(ra) # 1e514 <memcpy>
   1a6e2:	a8a5                	j	1a75a <_start+0x93a>
   1a6e4:	4601                	li	a2,0
   1a6e6:	4681                	li	a3,0
   1a6e8:	21f00513          	li	a0,543
   1a6ec:	459d                	li	a1,7
   1a6ee:	00000073          	ecall
   1a6f2:	001a4503          	lbu	a0,1(s4)
   1a6f6:	000a4583          	lbu	a1,0(s4)
   1a6fa:	002a4603          	lbu	a2,2(s4)
   1a6fe:	0522                	slli	a0,a0,0x8
   1a700:	3f09c683          	lbu	a3,1008(s3)
   1a704:	3f19c703          	lbu	a4,1009(s3)
   1a708:	8d4d                	or	a0,a0,a1
   1a70a:	3f29c583          	lbu	a1,1010(s3)
   1a70e:	3f39c783          	lbu	a5,1011(s3)
   1a712:	0722                	slli	a4,a4,0x8
   1a714:	8ed9                	or	a3,a3,a4
   1a716:	06014483          	lbu	s1,96(sp)
   1a71a:	05c2                	slli	a1,a1,0x10
   1a71c:	07e2                	slli	a5,a5,0x18
   1a71e:	8ddd                	or	a1,a1,a5
   1a720:	0aa11023          	sh	a0,160(sp)
   1a724:	0ac10123          	sb	a2,162(sp)
   1a728:	00d5e433          	or	s0,a1,a3
   1a72c:	6505                	lui	a0,0x1
   1a72e:	39450513          	addi	a0,a0,916 # 1394 <.Lline_table_start1+0x1169>
   1a732:	00a105b3          	add	a1,sp,a0
   1a736:	0848                	addi	a0,sp,20
   1a738:	02f00613          	li	a2,47
   1a73c:	00004097          	auipc	ra,0x4
   1a740:	dd8080e7          	jalr	-552(ra) # 1e514 <memcpy>
   1a744:	4509                	li	a0,2
   1a746:	00a48a63          	beq	s1,a0,1a75a <_start+0x93a>
   1a74a:	21f00513          	li	a0,543
   1a74e:	4581                	li	a1,0
   1a750:	4601                	li	a2,0
   1a752:	4681                	li	a3,0
   1a754:	8726                	mv	a4,s1
   1a756:	00000073          	ecall
   1a75a:	0a014503          	lbu	a0,160(sp)
   1a75e:	0a114583          	lbu	a1,161(sp)
   1a762:	0a214603          	lbu	a2,162(sp)
   1a766:	6685                	lui	a3,0x1
   1a768:	38d68693          	addi	a3,a3,909 # 138d <.Lline_table_start1+0x1162>
   1a76c:	00d10a33          	add	s4,sp,a3
   1a770:	3ea986a3          	sb	a0,1005(s3)
   1a774:	3eb98723          	sb	a1,1006(s3)
   1a778:	3ec987a3          	sb	a2,1007(s3)
   1a77c:	6505                	lui	a0,0x1
   1a77e:	33050513          	addi	a0,a0,816 # 1330 <.Lline_table_start1+0x1105>
   1a782:	950a                	add	a0,a0,sp
   1a784:	084c                	addi	a1,sp,20
   1a786:	02f00613          	li	a2,47
   1a78a:	00004097          	auipc	ra,0x4
   1a78e:	d8a080e7          	jalr	-630(ra) # 1e514 <memcpy>
   1a792:	6505                	lui	a0,0x1
   1a794:	39450513          	addi	a0,a0,916 # 1394 <.Lline_table_start1+0x1169>
   1a798:	950a                	add	a0,a0,sp
   1a79a:	6585                	lui	a1,0x1
   1a79c:	33058593          	addi	a1,a1,816 # 1330 <.Lline_table_start1+0x1105>
   1a7a0:	958a                	add	a1,a1,sp
   1a7a2:	02f00613          	li	a2,47
   1a7a6:	00004097          	auipc	ra,0x4
   1a7aa:	d6e080e7          	jalr	-658(ra) # 1e514 <memcpy>
   1a7ae:	4489                	li	s1,2
   1a7b0:	01845513          	srli	a0,s0,0x18
   1a7b4:	01045593          	srli	a1,s0,0x10
   1a7b8:	3ea989a3          	sb	a0,1011(s3)
   1a7bc:	00845513          	srli	a0,s0,0x8
   1a7c0:	3e998623          	sb	s1,1004(s3)
   1a7c4:	3e898823          	sb	s0,1008(s3)
   1a7c8:	3ea988a3          	sb	a0,1009(s3)
   1a7cc:	3eb98923          	sb	a1,1010(s3)
   1a7d0:	02500613          	li	a2,37
   1a7d4:	854a                	mv	a0,s2
   1a7d6:	4581                	li	a1,0
   1a7d8:	00004097          	auipc	ra,0x4
   1a7dc:	cd0080e7          	jalr	-816(ra) # 1e4a8 <memset>
   1a7e0:	8652                	mv	a2,s4
   1a7e2:	38998823          	sb	s1,912(s3)
   1a7e6:	6505                	lui	a0,0x1
   1a7e8:	4411                	li	s0,4
   1a7ea:	459d                	li	a1,7
   1a7ec:	59750793          	addi	a5,a0,1431 # 1597 <.Lline_table_start1+0x136c>
   1a7f0:	03600693          	li	a3,54
   1a7f4:	4711                	li	a4,4
   1a7f6:	853e                	mv	a0,a5
   1a7f8:	00000073          	ecall
   1a7fc:	06950063          	beq	a0,s1,1a85c <_start+0xa3c>
   1a800:	853e                	mv	a0,a5
   1a802:	4581                	li	a1,0
   1a804:	864a                	mv	a2,s2
   1a806:	3e898623          	sb	s0,1004(s3)
   1a80a:	478d                	li	a5,3
   1a80c:	02500693          	li	a3,37
   1a810:	470d                	li	a4,3
   1a812:	00000073          	ecall
   1a816:	00951863          	bne	a0,s1,1a826 <_start+0xa06>
   1a81a:	3909c703          	lbu	a4,912(s3)
   1a81e:	4509                	li	a0,2
   1a820:	02a71463          	bne	a4,a0,1a848 <_start+0xa28>
   1a824:	a825                	j	1a85c <_start+0xa3c>
   1a826:	4601                	li	a2,0
   1a828:	4681                	li	a3,0
   1a82a:	38f98823          	sb	a5,912(s3)
   1a82e:	6505                	lui	a0,0x1
   1a830:	459d                	li	a1,7
   1a832:	4709                	li	a4,2
   1a834:	59750513          	addi	a0,a0,1431 # 1597 <.Lline_table_start1+0x136c>
   1a838:	08000793          	li	a5,128
   1a83c:	00000073          	ecall
   1a840:	4609                	li	a2,2
   1a842:	02f57d63          	bgeu	a0,a5,1a87c <_start+0xa5c>
   1a846:	470d                	li	a4,3
   1a848:	6505                	lui	a0,0x1
   1a84a:	59750513          	addi	a0,a0,1431 # 1597 <.Lline_table_start1+0x136c>
   1a84e:	87ae                	mv	a5,a1
   1a850:	4581                	li	a1,0
   1a852:	4601                	li	a2,0
   1a854:	4681                	li	a3,0
   1a856:	00000073          	ecall
   1a85a:	85be                	mv	a1,a5
   1a85c:	3ec9c703          	lbu	a4,1004(s3)
   1a860:	4509                	li	a0,2
   1a862:	eca70663          	beq	a4,a0,19f2e <_start+0x10e>
   1a866:	6505                	lui	a0,0x1
   1a868:	59750513          	addi	a0,a0,1431 # 1597 <.Lline_table_start1+0x136c>
   1a86c:	87ae                	mv	a5,a1
   1a86e:	459d                	li	a1,7
   1a870:	4601                	li	a2,0
   1a872:	4681                	li	a3,0
   1a874:	00000073          	ecall
   1a878:	eb4ff06f          	j	19f2c <_start+0x10c>
   1a87c:	3ec9c703          	lbu	a4,1004(s3)
   1a880:	00c71463          	bne	a4,a2,1a888 <_start+0xa68>
   1a884:	470d                	li	a4,3
   1a886:	aa8d                	j	1a9f8 <_start+0xbd8>
   1a888:	6505                	lui	a0,0x1
   1a88a:	59750513          	addi	a0,a0,1431 # 1597 <.Lline_table_start1+0x136c>
   1a88e:	459d                	li	a1,7
   1a890:	4601                	li	a2,0
   1a892:	4681                	li	a3,0
   1a894:	00000073          	ecall
   1a898:	3909c703          	lbu	a4,912(s3)
   1a89c:	4509                	li	a0,2
   1a89e:	3ea98623          	sb	a0,1004(s3)
   1a8a2:	14a71b63          	bne	a4,a0,1a9f8 <_start+0xbd8>
   1a8a6:	00094883          	lbu	a7,0(s2)
   1a8aa:	00194303          	lbu	t1,1(s2)
   1a8ae:	00294503          	lbu	a0,2(s2)
   1a8b2:	c82a                	sw	a0,16(sp)
   1a8b4:	3949c383          	lbu	t2,916(s3)
   1a8b8:	3959cf83          	lbu	t6,917(s3)
   1a8bc:	3969c783          	lbu	a5,918(s3)
   1a8c0:	3979c483          	lbu	s1,919(s3)
   1a8c4:	3b49c403          	lbu	s0,948(s3)
   1a8c8:	3b59c503          	lbu	a0,949(s3)
   1a8cc:	3989c283          	lbu	t0,920(s3)
   1a8d0:	3999ce03          	lbu	t3,921(s3)
   1a8d4:	39a9ce83          	lbu	t4,922(s3)
   1a8d8:	39b9cf03          	lbu	t5,923(s3)
   1a8dc:	39c9cb83          	lbu	s7,924(s3)
   1a8e0:	39d9c583          	lbu	a1,925(s3)
   1a8e4:	39e9c603          	lbu	a2,926(s3)
   1a8e8:	39f9c683          	lbu	a3,927(s3)
   1a8ec:	3a09ca03          	lbu	s4,928(s3)
   1a8f0:	3a19ca83          	lbu	s5,929(s3)
   1a8f4:	3a29cb03          	lbu	s6,930(s3)
   1a8f8:	3a39cc03          	lbu	s8,931(s3)
   1a8fc:	0322                	slli	t1,t1,0x8
   1a8fe:	008f9713          	slli	a4,t6,0x8
   1a902:	07c2                	slli	a5,a5,0x10
   1a904:	04e2                	slli	s1,s1,0x18
   1a906:	0522                	slli	a0,a0,0x8
   1a908:	01136fb3          	or	t6,t1,a7
   1a90c:	00776333          	or	t1,a4,t2
   1a910:	00f4e3b3          	or	t2,s1,a5
   1a914:	008568b3          	or	a7,a0,s0
   1a918:	3a49c703          	lbu	a4,932(s3)
   1a91c:	3a59c403          	lbu	s0,933(s3)
   1a920:	3a69c783          	lbu	a5,934(s3)
   1a924:	3a79c483          	lbu	s1,935(s3)
   1a928:	0e22                	slli	t3,t3,0x8
   1a92a:	0ec2                	slli	t4,t4,0x10
   1a92c:	0f62                	slli	t5,t5,0x18
   1a92e:	05a2                	slli	a1,a1,0x8
   1a930:	0642                	slli	a2,a2,0x10
   1a932:	01869513          	slli	a0,a3,0x18
   1a936:	005e62b3          	or	t0,t3,t0
   1a93a:	01df6e33          	or	t3,t5,t4
   1a93e:	0175eeb3          	or	t4,a1,s7
   1a942:	00c56f33          	or	t5,a0,a2
   1a946:	3a89c583          	lbu	a1,936(s3)
   1a94a:	3a99c603          	lbu	a2,937(s3)
   1a94e:	3aa9c683          	lbu	a3,938(s3)
   1a952:	3ab9c503          	lbu	a0,939(s3)
   1a956:	0aa2                	slli	s5,s5,0x8
   1a958:	0b42                	slli	s6,s6,0x10
   1a95a:	0c62                	slli	s8,s8,0x18
   1a95c:	0422                	slli	s0,s0,0x8
   1a95e:	07c2                	slli	a5,a5,0x10
   1a960:	04e2                	slli	s1,s1,0x18
   1a962:	014aea33          	or	s4,s5,s4
   1a966:	016c6833          	or	a6,s8,s6
   1a96a:	00e46b33          	or	s6,s0,a4
   1a96e:	00f4ebb3          	or	s7,s1,a5
   1a972:	3ac9c403          	lbu	s0,940(s3)
   1a976:	3ad9c483          	lbu	s1,941(s3)
   1a97a:	3ae9c703          	lbu	a4,942(s3)
   1a97e:	3af9c783          	lbu	a5,943(s3)
   1a982:	0622                	slli	a2,a2,0x8
   1a984:	06c2                	slli	a3,a3,0x10
   1a986:	0562                	slli	a0,a0,0x18
   1a988:	04a2                	slli	s1,s1,0x8
   1a98a:	0742                	slli	a4,a4,0x10
   1a98c:	07e2                	slli	a5,a5,0x18
   1a98e:	00b66c33          	or	s8,a2,a1
   1a992:	00d56cb3          	or	s9,a0,a3
   1a996:	0084ed33          	or	s10,s1,s0
   1a99a:	3b09c603          	lbu	a2,944(s3)
   1a99e:	3b19c683          	lbu	a3,945(s3)
   1a9a2:	00e7edb3          	or	s11,a5,a4
   1a9a6:	3b29c783          	lbu	a5,946(s3)
   1a9aa:	3b39c403          	lbu	s0,947(s3)
   1a9ae:	06a2                	slli	a3,a3,0x8
   1a9b0:	00c6e0b3          	or	ra,a3,a2
   1a9b4:	07c2                	slli	a5,a5,0x10
   1a9b6:	0462                	slli	s0,s0,0x18
   1a9b8:	8fc1                	or	a5,a5,s0
   1a9ba:	0bf11023          	sh	t6,160(sp)
   1a9be:	4542                	lw	a0,16(sp)
   1a9c0:	0aa10123          	sb	a0,162(sp)
   1a9c4:	0063eab3          	or	s5,t2,t1
   1a9c8:	005e66b3          	or	a3,t3,t0
   1a9cc:	01df65b3          	or	a1,t5,t4
   1a9d0:	01486533          	or	a0,a6,s4
   1a9d4:	016be4b3          	or	s1,s7,s6
   1a9d8:	018ce733          	or	a4,s9,s8
   1a9dc:	01ade633          	or	a2,s11,s10
   1a9e0:	0017e7b3          	or	a5,a5,ra
   1a9e4:	d8ba                	sw	a4,112(sp)
   1a9e6:	dab2                	sw	a2,116(sp)
   1a9e8:	dcbe                	sw	a5,120(sp)
   1a9ea:	07111e23          	sh	a7,124(sp)
   1a9ee:	d0b6                	sw	a3,96(sp)
   1a9f0:	d2ae                	sw	a1,100(sp)
   1a9f2:	d4aa                	sw	a0,104(sp)
   1a9f4:	d6a6                	sw	s1,108(sp)
   1a9f6:	aa8d                	j	1ab68 <_start+0xd48>
   1a9f8:	4581                	li	a1,0
   1a9fa:	4601                	li	a2,0
   1a9fc:	4681                	li	a3,0
   1a9fe:	6505                	lui	a0,0x1
   1aa00:	59750813          	addi	a6,a0,1431 # 1597 <.Lline_table_start1+0x136c>
   1aa04:	8542                	mv	a0,a6
   1aa06:	00000073          	ecall
   1aa0a:	3b49c283          	lbu	t0,948(s3)
   1aa0e:	3b59cf83          	lbu	t6,949(s3)
   1aa12:	3ec9c703          	lbu	a4,1004(s3)
   1aa16:	00094a03          	lbu	s4,0(s2)
   1aa1a:	00194783          	lbu	a5,1(s2)
   1aa1e:	00294883          	lbu	a7,2(s2)
   1aa22:	3949ca83          	lbu	s5,916(s3)
   1aa26:	3959c403          	lbu	s0,917(s3)
   1aa2a:	3969c503          	lbu	a0,918(s3)
   1aa2e:	3979c583          	lbu	a1,919(s3)
   1aa32:	3989c303          	lbu	t1,920(s3)
   1aa36:	3999c383          	lbu	t2,921(s3)
   1aa3a:	39a9ce03          	lbu	t3,922(s3)
   1aa3e:	39b9ce83          	lbu	t4,923(s3)
   1aa42:	39c9cf03          	lbu	t5,924(s3)
   1aa46:	39d9cd03          	lbu	s10,925(s3)
   1aa4a:	39e9c683          	lbu	a3,926(s3)
   1aa4e:	39f9c483          	lbu	s1,927(s3)
   1aa52:	3a09cb03          	lbu	s6,928(s3)
   1aa56:	3a19cb83          	lbu	s7,929(s3)
   1aa5a:	3a29cc03          	lbu	s8,930(s3)
   1aa5e:	3a39cc83          	lbu	s9,931(s3)
   1aa62:	07a2                	slli	a5,a5,0x8
   1aa64:	0422                	slli	s0,s0,0x8
   1aa66:	0542                	slli	a0,a0,0x10
   1aa68:	05e2                	slli	a1,a1,0x18
   1aa6a:	008f9613          	slli	a2,t6,0x8
   1aa6e:	0147ea33          	or	s4,a5,s4
   1aa72:	01546fb3          	or	t6,s0,s5
   1aa76:	00a5eab3          	or	s5,a1,a0
   1aa7a:	005662b3          	or	t0,a2,t0
   1aa7e:	3a49cd83          	lbu	s11,932(s3)
   1aa82:	3a59c403          	lbu	s0,933(s3)
   1aa86:	3a69c503          	lbu	a0,934(s3)
   1aa8a:	3a79c783          	lbu	a5,935(s3)
   1aa8e:	03a2                	slli	t2,t2,0x8
   1aa90:	0e42                	slli	t3,t3,0x10
   1aa92:	0ee2                	slli	t4,t4,0x18
   1aa94:	0d22                	slli	s10,s10,0x8
   1aa96:	06c2                	slli	a3,a3,0x10
   1aa98:	01849593          	slli	a1,s1,0x18
   1aa9c:	0063e333          	or	t1,t2,t1
   1aaa0:	01ceee33          	or	t3,t4,t3
   1aaa4:	01ed63b3          	or	t2,s10,t5
   1aaa8:	00d5eeb3          	or	t4,a1,a3
   1aaac:	3a89cd03          	lbu	s10,936(s3)
   1aab0:	3a99c483          	lbu	s1,937(s3)
   1aab4:	3aa9c583          	lbu	a1,938(s3)
   1aab8:	3ab9c603          	lbu	a2,939(s3)
   1aabc:	0ba2                	slli	s7,s7,0x8
   1aabe:	0c42                	slli	s8,s8,0x10
   1aac0:	0ce2                	slli	s9,s9,0x18
   1aac2:	0422                	slli	s0,s0,0x8
   1aac4:	0542                	slli	a0,a0,0x10
   1aac6:	07e2                	slli	a5,a5,0x18
   1aac8:	016bef33          	or	t5,s7,s6
   1aacc:	018ceb33          	or	s6,s9,s8
   1aad0:	01b46bb3          	or	s7,s0,s11
   1aad4:	00a7ec33          	or	s8,a5,a0
   1aad8:	3ac9c783          	lbu	a5,940(s3)
   1aadc:	3ad9c403          	lbu	s0,941(s3)
   1aae0:	3ae9c503          	lbu	a0,942(s3)
   1aae4:	3af9c683          	lbu	a3,943(s3)
   1aae8:	04a2                	slli	s1,s1,0x8
   1aaea:	05c2                	slli	a1,a1,0x10
   1aaec:	0662                	slli	a2,a2,0x18
   1aaee:	0422                	slli	s0,s0,0x8
   1aaf0:	0542                	slli	a0,a0,0x10
   1aaf2:	06e2                	slli	a3,a3,0x18
   1aaf4:	01a4ecb3          	or	s9,s1,s10
   1aaf8:	00b66d33          	or	s10,a2,a1
   1aafc:	00f46db3          	or	s11,s0,a5
   1ab00:	3b09c603          	lbu	a2,944(s3)
   1ab04:	3b19c403          	lbu	s0,945(s3)
   1ab08:	00a6e0b3          	or	ra,a3,a0
   1ab0c:	3b29c683          	lbu	a3,946(s3)
   1ab10:	3b39c483          	lbu	s1,947(s3)
   1ab14:	0422                	slli	s0,s0,0x8
   1ab16:	8e41                	or	a2,a2,s0
   1ab18:	06c2                	slli	a3,a3,0x10
   1ab1a:	04e2                	slli	s1,s1,0x18
   1ab1c:	8ec5                	or	a3,a3,s1
   1ab1e:	0b411023          	sh	s4,160(sp)
   1ab22:	0b110123          	sb	a7,162(sp)
   1ab26:	01faeab3          	or	s5,s5,t6
   1ab2a:	006e64b3          	or	s1,t3,t1
   1ab2e:	007ee5b3          	or	a1,t4,t2
   1ab32:	01eb67b3          	or	a5,s6,t5
   1ab36:	017c68b3          	or	a7,s8,s7
   1ab3a:	019d6433          	or	s0,s10,s9
   1ab3e:	01b0e533          	or	a0,ra,s11
   1ab42:	8e55                	or	a2,a2,a3
   1ab44:	d8a2                	sw	s0,112(sp)
   1ab46:	daaa                	sw	a0,116(sp)
   1ab48:	dcb2                	sw	a2,120(sp)
   1ab4a:	06511e23          	sh	t0,124(sp)
   1ab4e:	4509                	li	a0,2
   1ab50:	d0a6                	sw	s1,96(sp)
   1ab52:	d2ae                	sw	a1,100(sp)
   1ab54:	d4be                	sw	a5,104(sp)
   1ab56:	d6c6                	sw	a7,108(sp)
   1ab58:	00a70863          	beq	a4,a0,1ab68 <_start+0xd48>
   1ab5c:	459d                	li	a1,7
   1ab5e:	8542                	mv	a0,a6
   1ab60:	4601                	li	a2,0
   1ab62:	4681                	li	a3,0
   1ab64:	00000073          	ecall
   1ab68:	0a014503          	lbu	a0,160(sp)
   1ab6c:	0a114583          	lbu	a1,161(sp)
   1ab70:	0a214603          	lbu	a2,162(sp)
   1ab74:	6685                	lui	a3,0x1
   1ab76:	38d68693          	addi	a3,a3,909 # 138d <.Lline_table_start1+0x1162>
   1ab7a:	00d10a33          	add	s4,sp,a3
   1ab7e:	3ea986a3          	sb	a0,1005(s3)
   1ab82:	3eb98723          	sb	a1,1006(s3)
   1ab86:	3ec987a3          	sb	a2,1007(s3)
   1ab8a:	5506                	lw	a0,96(sp)
   1ab8c:	5596                	lw	a1,100(sp)
   1ab8e:	5626                	lw	a2,104(sp)
   1ab90:	56b6                	lw	a3,108(sp)
   1ab92:	ca2a                	sw	a0,20(sp)
   1ab94:	cc2e                	sw	a1,24(sp)
   1ab96:	ce32                	sw	a2,28(sp)
   1ab98:	d036                	sw	a3,32(sp)
   1ab9a:	5546                	lw	a0,112(sp)
   1ab9c:	55d6                	lw	a1,116(sp)
   1ab9e:	5666                	lw	a2,120(sp)
   1aba0:	07c11683          	lh	a3,124(sp)
   1aba4:	d22a                	sw	a0,36(sp)
   1aba6:	d42e                	sw	a1,40(sp)
   1aba8:	d632                	sw	a2,44(sp)
   1abaa:	02d11823          	sh	a3,48(sp)
   1abae:	6505                	lui	a0,0x1
   1abb0:	39450513          	addi	a0,a0,916 # 1394 <.Lline_table_start1+0x1169>
   1abb4:	950a                	add	a0,a0,sp
   1abb6:	084c                	addi	a1,sp,20
   1abb8:	4679                	li	a2,30
   1abba:	00004097          	auipc	ra,0x4
   1abbe:	95a080e7          	jalr	-1702(ra) # 1e514 <memcpy>
   1abc2:	4489                	li	s1,2
   1abc4:	018ad513          	srli	a0,s5,0x18
   1abc8:	010ad593          	srli	a1,s5,0x10
   1abcc:	3ea989a3          	sb	a0,1011(s3)
   1abd0:	008ad513          	srli	a0,s5,0x8
   1abd4:	3e998623          	sb	s1,1004(s3)
   1abd8:	3f598823          	sb	s5,1008(s3)
   1abdc:	3ea988a3          	sb	a0,1009(s3)
   1abe0:	3eb98923          	sb	a1,1010(s3)
   1abe4:	4639                	li	a2,14
   1abe6:	854a                	mv	a0,s2
   1abe8:	4581                	li	a1,0
   1abea:	00004097          	auipc	ra,0x4
   1abee:	8be080e7          	jalr	-1858(ra) # 1e4a8 <memset>
   1abf2:	8652                	mv	a2,s4
   1abf4:	38998823          	sb	s1,912(s3)
   1abf8:	4411                	li	s0,4
   1abfa:	66700513          	li	a0,1639
   1abfe:	4589                	li	a1,2
   1ac00:	02500693          	li	a3,37
   1ac04:	4711                	li	a4,4
   1ac06:	00000073          	ecall
   1ac0a:	00951463          	bne	a0,s1,1ac12 <_start+0xdf2>
   1ac0e:	87ae                	mv	a5,a1
   1ac10:	a8a9                	j	1ac6a <_start+0xe4a>
   1ac12:	864a                	mv	a2,s2
   1ac14:	3e898623          	sb	s0,1004(s3)
   1ac18:	440d                	li	s0,3
   1ac1a:	66700513          	li	a0,1639
   1ac1e:	45a1                	li	a1,8
   1ac20:	46b9                	li	a3,14
   1ac22:	470d                	li	a4,3
   1ac24:	00000073          	ecall
   1ac28:	00951963          	bne	a0,s1,1ac3a <_start+0xe1a>
   1ac2c:	87ae                	mv	a5,a1
   1ac2e:	3909c703          	lbu	a4,912(s3)
   1ac32:	4509                	li	a0,2
   1ac34:	02a71463          	bne	a4,a0,1ac5c <_start+0xe3c>
   1ac38:	a80d                	j	1ac6a <_start+0xe4a>
   1ac3a:	4681                	li	a3,0
   1ac3c:	38898823          	sb	s0,912(s3)
   1ac40:	66700513          	li	a0,1639
   1ac44:	4589                	li	a1,2
   1ac46:	4621                	li	a2,8
   1ac48:	4709                	li	a4,2
   1ac4a:	08000493          	li	s1,128
   1ac4e:	00000073          	ecall
   1ac52:	87ae                	mv	a5,a1
   1ac54:	4589                	li	a1,2
   1ac56:	02957a63          	bgeu	a0,s1,1ac8a <_start+0xe6a>
   1ac5a:	470d                	li	a4,3
   1ac5c:	66700513          	li	a0,1639
   1ac60:	45a1                	li	a1,8
   1ac62:	4601                	li	a2,0
   1ac64:	4681                	li	a3,0
   1ac66:	00000073          	ecall
   1ac6a:	3ec9c703          	lbu	a4,1004(s3)
   1ac6e:	4509                	li	a0,2
   1ac70:	00a70963          	beq	a4,a0,1ac82 <_start+0xe62>
   1ac74:	66700513          	li	a0,1639
   1ac78:	4589                	li	a1,2
   1ac7a:	4601                	li	a2,0
   1ac7c:	4681                	li	a3,0
   1ac7e:	00000073          	ecall
   1ac82:	4505                	li	a0,1
   1ac84:	85be                	mv	a1,a5
   1ac86:	aaaff06f          	j	19f30 <_start+0x110>
   1ac8a:	3ec9c703          	lbu	a4,1004(s3)
   1ac8e:	00b71463          	bne	a4,a1,1ac96 <_start+0xe76>
   1ac92:	470d                	li	a4,3
   1ac94:	a069                	j	1ad1e <_start+0xefe>
   1ac96:	66700513          	li	a0,1639
   1ac9a:	4589                	li	a1,2
   1ac9c:	4601                	li	a2,0
   1ac9e:	4681                	li	a3,0
   1aca0:	00000073          	ecall
   1aca4:	3909c703          	lbu	a4,912(s3)
   1aca8:	4509                	li	a0,2
   1acaa:	3ea98623          	sb	a0,1004(s3)
   1acae:	06a71863          	bne	a4,a0,1ad1e <_start+0xefe>
   1acb2:	00094503          	lbu	a0,0(s2)
   1acb6:	00194583          	lbu	a1,1(s2)
   1acba:	00294803          	lbu	a6,2(s2)
   1acbe:	3949c683          	lbu	a3,916(s3)
   1acc2:	3959c703          	lbu	a4,917(s3)
   1acc6:	3969c783          	lbu	a5,918(s3)
   1acca:	3979c483          	lbu	s1,919(s3)
   1acce:	39c9c403          	lbu	s0,924(s3)
   1acd2:	39d9c603          	lbu	a2,925(s3)
   1acd6:	39e9c883          	lbu	a7,926(s3)
   1acda:	05a2                	slli	a1,a1,0x8
   1acdc:	0722                	slli	a4,a4,0x8
   1acde:	07c2                	slli	a5,a5,0x10
   1ace0:	04e2                	slli	s1,s1,0x18
   1ace2:	0622                	slli	a2,a2,0x8
   1ace4:	8d4d                	or	a0,a0,a1
   1ace6:	8ed9                	or	a3,a3,a4
   1ace8:	8fc5                	or	a5,a5,s1
   1acea:	3989c583          	lbu	a1,920(s3)
   1acee:	3999c703          	lbu	a4,921(s3)
   1acf2:	8e41                	or	a2,a2,s0
   1acf4:	39a9c483          	lbu	s1,922(s3)
   1acf8:	39b9c403          	lbu	s0,923(s3)
   1acfc:	0722                	slli	a4,a4,0x8
   1acfe:	8dd9                	or	a1,a1,a4
   1ad00:	04c2                	slli	s1,s1,0x10
   1ad02:	0462                	slli	s0,s0,0x18
   1ad04:	8c45                	or	s0,s0,s1
   1ad06:	0aa11023          	sh	a0,160(sp)
   1ad0a:	0b010123          	sb	a6,162(sp)
   1ad0e:	8fd5                	or	a5,a5,a3
   1ad10:	8dc1                	or	a1,a1,s0
   1ad12:	d0ae                	sw	a1,96(sp)
   1ad14:	06c11223          	sh	a2,100(sp)
   1ad18:	07110323          	sb	a7,102(sp)
   1ad1c:	a849                	j	1adae <_start+0xf8e>
   1ad1e:	4601                	li	a2,0
   1ad20:	4681                	li	a3,0
   1ad22:	66700513          	li	a0,1639
   1ad26:	45a1                	li	a1,8
   1ad28:	00000073          	ecall
   1ad2c:	00094503          	lbu	a0,0(s2)
   1ad30:	00194583          	lbu	a1,1(s2)
   1ad34:	00294803          	lbu	a6,2(s2)
   1ad38:	3949c683          	lbu	a3,916(s3)
   1ad3c:	3959c703          	lbu	a4,917(s3)
   1ad40:	3969c783          	lbu	a5,918(s3)
   1ad44:	3979c483          	lbu	s1,919(s3)
   1ad48:	39c9c403          	lbu	s0,924(s3)
   1ad4c:	39d9c603          	lbu	a2,925(s3)
   1ad50:	39e9c883          	lbu	a7,926(s3)
   1ad54:	05a2                	slli	a1,a1,0x8
   1ad56:	0722                	slli	a4,a4,0x8
   1ad58:	07c2                	slli	a5,a5,0x10
   1ad5a:	04e2                	slli	s1,s1,0x18
   1ad5c:	0622                	slli	a2,a2,0x8
   1ad5e:	8d4d                	or	a0,a0,a1
   1ad60:	8ed9                	or	a3,a3,a4
   1ad62:	8fc5                	or	a5,a5,s1
   1ad64:	3989c583          	lbu	a1,920(s3)
   1ad68:	3999c703          	lbu	a4,921(s3)
   1ad6c:	8e41                	or	a2,a2,s0
   1ad6e:	39a9c483          	lbu	s1,922(s3)
   1ad72:	39b9c403          	lbu	s0,923(s3)
   1ad76:	0722                	slli	a4,a4,0x8
   1ad78:	8dd9                	or	a1,a1,a4
   1ad7a:	04c2                	slli	s1,s1,0x10
   1ad7c:	0462                	slli	s0,s0,0x18
   1ad7e:	8c45                	or	s0,s0,s1
   1ad80:	0aa11023          	sh	a0,160(sp)
   1ad84:	0b010123          	sb	a6,162(sp)
   1ad88:	8fd5                	or	a5,a5,a3
   1ad8a:	3ec9c703          	lbu	a4,1004(s3)
   1ad8e:	8dc1                	or	a1,a1,s0
   1ad90:	4509                	li	a0,2
   1ad92:	d0ae                	sw	a1,96(sp)
   1ad94:	06c11223          	sh	a2,100(sp)
   1ad98:	07110323          	sb	a7,102(sp)
   1ad9c:	00a70963          	beq	a4,a0,1adae <_start+0xf8e>
   1ada0:	66700513          	li	a0,1639
   1ada4:	4589                	li	a1,2
   1ada6:	4601                	li	a2,0
   1ada8:	4681                	li	a3,0
   1adaa:	00000073          	ecall
   1adae:	0a011503          	lh	a0,160(sp)
   1adb2:	0a214583          	lbu	a1,162(sp)
   1adb6:	5606                	lw	a2,96(sp)
   1adb8:	06411683          	lh	a3,100(sp)
   1adbc:	06614703          	lbu	a4,102(sp)
   1adc0:	0187d493          	srli	s1,a5,0x18
   1adc4:	0107d413          	srli	s0,a5,0x10
   1adc8:	ca32                	sw	a2,20(sp)
   1adca:	00d11c23          	sh	a3,24(sp)
   1adce:	0087d693          	srli	a3,a5,0x8
   1add2:	0aa11c23          	sh	a0,184(sp)
   1add6:	0ab10d23          	sb	a1,186(sp)
   1adda:	0af10da3          	sb	a5,187(sp)
   1adde:	0ad10e23          	sb	a3,188(sp)
   1ade2:	0ce102a3          	sb	a4,197(sp)
   1ade6:	01514503          	lbu	a0,21(sp)
   1adea:	01614583          	lbu	a1,22(sp)
   1adee:	01714683          	lbu	a3,23(sp)
   1adf2:	01814703          	lbu	a4,24(sp)
   1adf6:	0a810ea3          	sb	s0,189(sp)
   1adfa:	0a910f23          	sb	s1,190(sp)
   1adfe:	0ac10fa3          	sb	a2,191(sp)
   1ae02:	0ca10023          	sb	a0,192(sp)
   1ae06:	01914503          	lbu	a0,25(sp)
   1ae0a:	0cb100a3          	sb	a1,193(sp)
   1ae0e:	0cd10123          	sb	a3,194(sp)
   1ae12:	0ce101a3          	sb	a4,195(sp)
   1ae16:	0ca10223          	sb	a0,196(sp)
   1ae1a:	6505                	lui	a0,0x1
   1ae1c:	38c50513          	addi	a0,a0,908 # 138c <.Lline_table_start1+0x1161>
   1ae20:	950a                	add	a0,a0,sp
   1ae22:	192c                	addi	a1,sp,184
   1ae24:	ffffb097          	auipc	ra,0xffffb
   1ae28:	e4c080e7          	jalr	-436(ra) # 15c70 <_ZN20complex_dynamic_type3app17h8c3cc57edeee1062E>
   1ae2c:	3ec9c503          	lbu	a0,1004(s3)
   1ae30:	c119                	beqz	a0,1ae36 <_start+0x1016>
   1ae32:	5d80306f          	j	1e40a <_start+0x45ea>
   1ae36:	3ee9c503          	lbu	a0,1006(s3)
   1ae3a:	3ed9c583          	lbu	a1,1005(s3)
   1ae3e:	3ef9c603          	lbu	a2,1007(s3)
   1ae42:	3f09a403          	lw	s0,1008(s3)
   1ae46:	0522                	slli	a0,a0,0x8
   1ae48:	8d4d                	or	a0,a0,a1
   1ae4a:	0ca11323          	sh	a0,198(sp)
   1ae4e:	0cc10423          	sb	a2,200(sp)
   1ae52:	6505                	lui	a0,0x1
   1ae54:	39450513          	addi	a0,a0,916 # 1394 <.Lline_table_start1+0x1169>
   1ae58:	00a105b3          	add	a1,sp,a0
   1ae5c:	6505                	lui	a0,0x1
   1ae5e:	33050513          	addi	a0,a0,816 # 1330 <.Lline_table_start1+0x1105>
   1ae62:	950a                	add	a0,a0,sp
   1ae64:	04100613          	li	a2,65
   1ae68:	00003097          	auipc	ra,0x3
   1ae6c:	6ac080e7          	jalr	1708(ra) # 1e514 <memcpy>
   1ae70:	01845513          	srli	a0,s0,0x18
   1ae74:	01045593          	srli	a1,s0,0x10
   1ae78:	00845613          	srli	a2,s0,0x8
   1ae7c:	0c8104a3          	sb	s0,201(sp)
   1ae80:	0cc10523          	sb	a2,202(sp)
   1ae84:	0cb105a3          	sb	a1,203(sp)
   1ae88:	0ca10623          	sb	a0,204(sp)
   1ae8c:	0cd10513          	addi	a0,sp,205
   1ae90:	6585                	lui	a1,0x1
   1ae92:	33058593          	addi	a1,a1,816 # 1330 <.Lline_table_start1+0x1105>
   1ae96:	958a                	add	a1,a1,sp
   1ae98:	04100613          	li	a2,65
   1ae9c:	00003097          	auipc	ra,0x3
   1aea0:	678080e7          	jalr	1656(ra) # 1e514 <memcpy>
   1aea4:	6505                	lui	a0,0x1
   1aea6:	38c50513          	addi	a0,a0,908 # 138c <.Lline_table_start1+0x1161>
   1aeaa:	950a                	add	a0,a0,sp
   1aeac:	0c610593          	addi	a1,sp,198
   1aeb0:	ffffc097          	auipc	ra,0xffffc
   1aeb4:	3ea080e7          	jalr	1002(ra) # 1729a <_ZN20complex_dynamic_type3app17hb60c8335373029afE>
   1aeb8:	3ec9c503          	lbu	a0,1004(s3)
   1aebc:	c119                	beqz	a0,1aec2 <_start+0x10a2>
   1aebe:	54c0306f          	j	1e40a <_start+0x45ea>
   1aec2:	3ed9c503          	lbu	a0,1005(s3)
   1aec6:	3ee9c583          	lbu	a1,1006(s3)
   1aeca:	3ef9c803          	lbu	a6,1007(s3)
   1aece:	3f09a683          	lw	a3,1008(s3)
   1aed2:	3f49a703          	lw	a4,1012(s3)
   1aed6:	3f89a783          	lw	a5,1016(s3)
   1aeda:	05a2                	slli	a1,a1,0x8
   1aedc:	0186d893          	srli	a7,a3,0x18
   1aee0:	0106d293          	srli	t0,a3,0x10
   1aee4:	0187d613          	srli	a2,a5,0x18
   1aee8:	0107d493          	srli	s1,a5,0x10
   1aeec:	0087d413          	srli	s0,a5,0x8
   1aef0:	8d4d                	or	a0,a0,a1
   1aef2:	01875593          	srli	a1,a4,0x18
   1aef6:	10910da3          	sb	s1,283(sp)
   1aefa:	10c10e23          	sb	a2,284(sp)
   1aefe:	01075613          	srli	a2,a4,0x10
   1af02:	10c10ba3          	sb	a2,279(sp)
   1af06:	10b10c23          	sb	a1,280(sp)
   1af0a:	10f10ca3          	sb	a5,281(sp)
   1af0e:	10810d23          	sb	s0,282(sp)
   1af12:	0086d593          	srli	a1,a3,0x8
   1af16:	10a11723          	sh	a0,270(sp)
   1af1a:	11010823          	sb	a6,272(sp)
   1af1e:	10d108a3          	sb	a3,273(sp)
   1af22:	10b10923          	sb	a1,274(sp)
   1af26:	00875513          	srli	a0,a4,0x8
   1af2a:	105109a3          	sb	t0,275(sp)
   1af2e:	11110a23          	sb	a7,276(sp)
   1af32:	10e10aa3          	sb	a4,277(sp)
   1af36:	10a10b23          	sb	a0,278(sp)
   1af3a:	6505                	lui	a0,0x1
   1af3c:	38c50513          	addi	a0,a0,908 # 138c <.Lline_table_start1+0x1161>
   1af40:	950a                	add	a0,a0,sp
   1af42:	10e10593          	addi	a1,sp,270
   1af46:	ffffc097          	auipc	ra,0xffffc
   1af4a:	c02080e7          	jalr	-1022(ra) # 16b48 <_ZN20complex_dynamic_type3app17haa3eeeb06e37f7d0E>
   1af4e:	3ec9c503          	lbu	a0,1004(s3)
   1af52:	c119                	beqz	a0,1af58 <_start+0x1138>
   1af54:	4b60306f          	j	1e40a <_start+0x45ea>
   1af58:	3ed9c503          	lbu	a0,1005(s3)
   1af5c:	3ee9c583          	lbu	a1,1006(s3)
   1af60:	3ef9c603          	lbu	a2,1007(s3)
   1af64:	3f09a683          	lw	a3,1008(s3)
   1af68:	3f49a703          	lw	a4,1012(s3)
   1af6c:	3f89a783          	lw	a5,1016(s3)
   1af70:	3fc9a483          	lw	s1,1020(s3)
   1af74:	4009a403          	lw	s0,1024(s3)
   1af78:	38e9a823          	sw	a4,912(s3)
   1af7c:	38f9aa23          	sw	a5,916(s3)
   1af80:	3899ac23          	sw	s1,920(s3)
   1af84:	3889ae23          	sw	s0,924(s3)
   1af88:	4049a703          	lw	a4,1028(s3)
   1af8c:	4089a783          	lw	a5,1032(s3)
   1af90:	40c9a483          	lw	s1,1036(s3)
   1af94:	41099403          	lh	s0,1040(s3)
   1af98:	05a2                	slli	a1,a1,0x8
   1af9a:	3ae9a023          	sw	a4,928(s3)
   1af9e:	3af9a223          	sw	a5,932(s3)
   1afa2:	3a99a423          	sw	s1,936(s3)
   1afa6:	3a899623          	sh	s0,940(s3)
   1afaa:	0186d713          	srli	a4,a3,0x18
   1afae:	8d4d                	or	a0,a0,a1
   1afb0:	0106d593          	srli	a1,a3,0x10
   1afb4:	12b101a3          	sb	a1,291(sp)
   1afb8:	12e10223          	sb	a4,292(sp)
   1afbc:	0086d593          	srli	a1,a3,0x8
   1afc0:	10a11f23          	sh	a0,286(sp)
   1afc4:	12c10023          	sb	a2,288(sp)
   1afc8:	12d100a3          	sb	a3,289(sp)
   1afcc:	12b10123          	sb	a1,290(sp)
   1afd0:	12510513          	addi	a0,sp,293
   1afd4:	6585                	lui	a1,0x1
   1afd6:	33058593          	addi	a1,a1,816 # 1330 <.Lline_table_start1+0x1105>
   1afda:	958a                	add	a1,a1,sp
   1afdc:	4679                	li	a2,30
   1afde:	00003097          	auipc	ra,0x3
   1afe2:	536080e7          	jalr	1334(ra) # 1e514 <memcpy>
   1afe6:	6505                	lui	a0,0x1
   1afe8:	38c50513          	addi	a0,a0,908 # 138c <.Lline_table_start1+0x1161>
   1afec:	950a                	add	a0,a0,sp
   1afee:	11e10593          	addi	a1,sp,286
   1aff2:	ffffe097          	auipc	ra,0xffffe
   1aff6:	f0c080e7          	jalr	-244(ra) # 18efe <_ZN20complex_dynamic_type3app17hdcd6222850112a03E>
   1affa:	3ec9c503          	lbu	a0,1004(s3)
   1affe:	c119                	beqz	a0,1b004 <_start+0x11e4>
   1b000:	40a0306f          	j	1e40a <_start+0x45ea>
   1b004:	3ee9c503          	lbu	a0,1006(s3)
   1b008:	3ed9c583          	lbu	a1,1005(s3)
   1b00c:	3ef9c603          	lbu	a2,1007(s3)
   1b010:	3f09a403          	lw	s0,1008(s3)
   1b014:	0522                	slli	a0,a0,0x8
   1b016:	8d4d                	or	a0,a0,a1
   1b018:	14a11223          	sh	a0,324(sp)
   1b01c:	14c10323          	sb	a2,326(sp)
   1b020:	6505                	lui	a0,0x1
   1b022:	39450513          	addi	a0,a0,916 # 1394 <.Lline_table_start1+0x1169>
   1b026:	00a105b3          	add	a1,sp,a0
   1b02a:	6505                	lui	a0,0x1
   1b02c:	33050513          	addi	a0,a0,816 # 1330 <.Lline_table_start1+0x1105>
   1b030:	950a                	add	a0,a0,sp
   1b032:	02300613          	li	a2,35
   1b036:	00003097          	auipc	ra,0x3
   1b03a:	4de080e7          	jalr	1246(ra) # 1e514 <memcpy>
   1b03e:	01845513          	srli	a0,s0,0x18
   1b042:	01045593          	srli	a1,s0,0x10
   1b046:	00845613          	srli	a2,s0,0x8
   1b04a:	148103a3          	sb	s0,327(sp)
   1b04e:	14c10423          	sb	a2,328(sp)
   1b052:	14b104a3          	sb	a1,329(sp)
   1b056:	14a10523          	sb	a0,330(sp)
   1b05a:	14b10513          	addi	a0,sp,331
   1b05e:	6585                	lui	a1,0x1
   1b060:	33058593          	addi	a1,a1,816 # 1330 <.Lline_table_start1+0x1105>
   1b064:	958a                	add	a1,a1,sp
   1b066:	02300613          	li	a2,35
   1b06a:	00003097          	auipc	ra,0x3
   1b06e:	4aa080e7          	jalr	1194(ra) # 1e514 <memcpy>
   1b072:	6505                	lui	a0,0x1
   1b074:	38c50513          	addi	a0,a0,908 # 138c <.Lline_table_start1+0x1161>
   1b078:	950a                	add	a0,a0,sp
   1b07a:	02cc                	addi	a1,sp,324
   1b07c:	ffff9097          	auipc	ra,0xffff9
   1b080:	950080e7          	jalr	-1712(ra) # 139cc <_ZN20complex_dynamic_type3app17h513c53f2c17cce6eE>
   1b084:	3ec9c503          	lbu	a0,1004(s3)
   1b088:	c119                	beqz	a0,1b08e <_start+0x126e>
   1b08a:	3800306f          	j	1e40a <_start+0x45ea>
   1b08e:	3ee9c503          	lbu	a0,1006(s3)
   1b092:	3ed9c583          	lbu	a1,1005(s3)
   1b096:	3ef9c603          	lbu	a2,1007(s3)
   1b09a:	3f09a403          	lw	s0,1008(s3)
   1b09e:	0522                	slli	a0,a0,0x8
   1b0a0:	8d4d                	or	a0,a0,a1
   1b0a2:	16a11723          	sh	a0,366(sp)
   1b0a6:	16c10823          	sb	a2,368(sp)
   1b0aa:	6505                	lui	a0,0x1
   1b0ac:	39450513          	addi	a0,a0,916 # 1394 <.Lline_table_start1+0x1169>
   1b0b0:	00a105b3          	add	a1,sp,a0
   1b0b4:	6505                	lui	a0,0x1
   1b0b6:	33050513          	addi	a0,a0,816 # 1330 <.Lline_table_start1+0x1105>
   1b0ba:	950a                	add	a0,a0,sp
   1b0bc:	05c00613          	li	a2,92
   1b0c0:	00003097          	auipc	ra,0x3
   1b0c4:	454080e7          	jalr	1108(ra) # 1e514 <memcpy>
   1b0c8:	01845513          	srli	a0,s0,0x18
   1b0cc:	01045593          	srli	a1,s0,0x10
   1b0d0:	00845613          	srli	a2,s0,0x8
   1b0d4:	168108a3          	sb	s0,369(sp)
   1b0d8:	16c10923          	sb	a2,370(sp)
   1b0dc:	16b109a3          	sb	a1,371(sp)
   1b0e0:	16a10a23          	sb	a0,372(sp)
   1b0e4:	17510513          	addi	a0,sp,373
   1b0e8:	6585                	lui	a1,0x1
   1b0ea:	33058593          	addi	a1,a1,816 # 1330 <.Lline_table_start1+0x1105>
   1b0ee:	958a                	add	a1,a1,sp
   1b0f0:	05c00613          	li	a2,92
   1b0f4:	00003097          	auipc	ra,0x3
   1b0f8:	420080e7          	jalr	1056(ra) # 1e514 <memcpy>
   1b0fc:	6505                	lui	a0,0x1
   1b0fe:	38c50513          	addi	a0,a0,908 # 138c <.Lline_table_start1+0x1161>
   1b102:	950a                	add	a0,a0,sp
   1b104:	16e10593          	addi	a1,sp,366
   1b108:	ffff8097          	auipc	ra,0xffff8
   1b10c:	73e080e7          	jalr	1854(ra) # 13846 <_ZN20complex_dynamic_type3app17h4e899ce474a14227E>
   1b110:	3ec9c503          	lbu	a0,1004(s3)
   1b114:	c119                	beqz	a0,1b11a <_start+0x12fa>
   1b116:	2f40306f          	j	1e40a <_start+0x45ea>
   1b11a:	3ed9c503          	lbu	a0,1005(s3)
   1b11e:	3ee9c583          	lbu	a1,1006(s3)
   1b122:	3ef9c603          	lbu	a2,1007(s3)
   1b126:	3f09a683          	lw	a3,1008(s3)
   1b12a:	3f49a703          	lw	a4,1012(s3)
   1b12e:	3f89a783          	lw	a5,1016(s3)
   1b132:	3fc9a483          	lw	s1,1020(s3)
   1b136:	4009a403          	lw	s0,1024(s3)
   1b13a:	38e9a823          	sw	a4,912(s3)
   1b13e:	38f9aa23          	sw	a5,916(s3)
   1b142:	3899ac23          	sw	s1,920(s3)
   1b146:	3889ae23          	sw	s0,924(s3)
   1b14a:	4049a703          	lw	a4,1028(s3)
   1b14e:	4089a783          	lw	a5,1032(s3)
   1b152:	40c9a483          	lw	s1,1036(s3)
   1b156:	4109a403          	lw	s0,1040(s3)
   1b15a:	05a2                	slli	a1,a1,0x8
   1b15c:	3ae9a023          	sw	a4,928(s3)
   1b160:	3af9a223          	sw	a5,932(s3)
   1b164:	3a99a423          	sw	s1,936(s3)
   1b168:	3a89a623          	sw	s0,940(s3)
   1b16c:	0186d713          	srli	a4,a3,0x18
   1b170:	8d4d                	or	a0,a0,a1
   1b172:	0106d593          	srli	a1,a3,0x10
   1b176:	1cb10ba3          	sb	a1,471(sp)
   1b17a:	1ce10c23          	sb	a4,472(sp)
   1b17e:	0086d593          	srli	a1,a3,0x8
   1b182:	1ca11923          	sh	a0,466(sp)
   1b186:	1cc10a23          	sb	a2,468(sp)
   1b18a:	1cd10aa3          	sb	a3,469(sp)
   1b18e:	1cb10b23          	sb	a1,470(sp)
   1b192:	1d910513          	addi	a0,sp,473
   1b196:	6585                	lui	a1,0x1
   1b198:	33058593          	addi	a1,a1,816 # 1330 <.Lline_table_start1+0x1105>
   1b19c:	958a                	add	a1,a1,sp
   1b19e:	02000613          	li	a2,32
   1b1a2:	00003097          	auipc	ra,0x3
   1b1a6:	372080e7          	jalr	882(ra) # 1e514 <memcpy>
   1b1aa:	6505                	lui	a0,0x1
   1b1ac:	38c50513          	addi	a0,a0,908 # 138c <.Lline_table_start1+0x1161>
   1b1b0:	950a                	add	a0,a0,sp
   1b1b2:	1d210593          	addi	a1,sp,466
   1b1b6:	ffff6097          	auipc	ra,0xffff6
   1b1ba:	3f2080e7          	jalr	1010(ra) # 115a8 <_ZN20complex_dynamic_type3app17h0a70f99be62fd6e0E>
   1b1be:	3ec9c503          	lbu	a0,1004(s3)
   1b1c2:	c119                	beqz	a0,1b1c8 <_start+0x13a8>
   1b1c4:	2460306f          	j	1e40a <_start+0x45ea>
   1b1c8:	3ed9c503          	lbu	a0,1005(s3)
   1b1cc:	3ee9c583          	lbu	a1,1006(s3)
   1b1d0:	3ef9c603          	lbu	a2,1007(s3)
   1b1d4:	3f09a683          	lw	a3,1008(s3)
   1b1d8:	3f49a703          	lw	a4,1012(s3)
   1b1dc:	3f89a783          	lw	a5,1016(s3)
   1b1e0:	3fc9a483          	lw	s1,1020(s3)
   1b1e4:	4009a403          	lw	s0,1024(s3)
   1b1e8:	38e9a823          	sw	a4,912(s3)
   1b1ec:	38f9aa23          	sw	a5,916(s3)
   1b1f0:	3899ac23          	sw	s1,920(s3)
   1b1f4:	3889ae23          	sw	s0,924(s3)
   1b1f8:	4049a703          	lw	a4,1028(s3)
   1b1fc:	40899783          	lh	a5,1032(s3)
   1b200:	40a9c483          	lbu	s1,1034(s3)
   1b204:	05a2                	slli	a1,a1,0x8
   1b206:	3ae9a023          	sw	a4,928(s3)
   1b20a:	3af99223          	sh	a5,932(s3)
   1b20e:	3a998323          	sb	s1,934(s3)
   1b212:	0186d713          	srli	a4,a3,0x18
   1b216:	8d4d                	or	a0,a0,a1
   1b218:	0106d593          	srli	a1,a3,0x10
   1b21c:	1eb10fa3          	sb	a1,511(sp)
   1b220:	20e10023          	sb	a4,512(sp)
   1b224:	0086d593          	srli	a1,a3,0x8
   1b228:	1ea11d23          	sh	a0,506(sp)
   1b22c:	1ec10e23          	sb	a2,508(sp)
   1b230:	1ed10ea3          	sb	a3,509(sp)
   1b234:	1eb10f23          	sb	a1,510(sp)
   1b238:	20110513          	addi	a0,sp,513
   1b23c:	6585                	lui	a1,0x1
   1b23e:	33058593          	addi	a1,a1,816 # 1330 <.Lline_table_start1+0x1105>
   1b242:	958a                	add	a1,a1,sp
   1b244:	465d                	li	a2,23
   1b246:	00003097          	auipc	ra,0x3
   1b24a:	2ce080e7          	jalr	718(ra) # 1e514 <memcpy>
   1b24e:	6505                	lui	a0,0x1
   1b250:	38c50513          	addi	a0,a0,908 # 138c <.Lline_table_start1+0x1161>
   1b254:	950a                	add	a0,a0,sp
   1b256:	1fa10593          	addi	a1,sp,506
   1b25a:	ffffb097          	auipc	ra,0xffffb
   1b25e:	d04080e7          	jalr	-764(ra) # 15f5e <_ZN20complex_dynamic_type3app17h900a943613b2b360E>
   1b262:	3ec9c503          	lbu	a0,1004(s3)
   1b266:	c119                	beqz	a0,1b26c <_start+0x144c>
   1b268:	1a20306f          	j	1e40a <_start+0x45ea>
   1b26c:	3ee9c503          	lbu	a0,1006(s3)
   1b270:	3ed9c583          	lbu	a1,1005(s3)
   1b274:	3ef9c603          	lbu	a2,1007(s3)
   1b278:	3f09a403          	lw	s0,1008(s3)
   1b27c:	0522                	slli	a0,a0,0x8
   1b27e:	8d4d                	or	a0,a0,a1
   1b280:	20a11c23          	sh	a0,536(sp)
   1b284:	20c10d23          	sb	a2,538(sp)
   1b288:	6505                	lui	a0,0x1
   1b28a:	39450513          	addi	a0,a0,916 # 1394 <.Lline_table_start1+0x1169>
   1b28e:	00a105b3          	add	a1,sp,a0
   1b292:	6505                	lui	a0,0x1
   1b294:	33050513          	addi	a0,a0,816 # 1330 <.Lline_table_start1+0x1105>
   1b298:	950a                	add	a0,a0,sp
   1b29a:	02500613          	li	a2,37
   1b29e:	00003097          	auipc	ra,0x3
   1b2a2:	276080e7          	jalr	630(ra) # 1e514 <memcpy>
   1b2a6:	01845513          	srli	a0,s0,0x18
   1b2aa:	01045593          	srli	a1,s0,0x10
   1b2ae:	00845613          	srli	a2,s0,0x8
   1b2b2:	20810da3          	sb	s0,539(sp)
   1b2b6:	20c10e23          	sb	a2,540(sp)
   1b2ba:	20b10ea3          	sb	a1,541(sp)
   1b2be:	20a10f23          	sb	a0,542(sp)
   1b2c2:	21f10513          	addi	a0,sp,543
   1b2c6:	6585                	lui	a1,0x1
   1b2c8:	33058593          	addi	a1,a1,816 # 1330 <.Lline_table_start1+0x1105>
   1b2cc:	958a                	add	a1,a1,sp
   1b2ce:	02500613          	li	a2,37
   1b2d2:	00003097          	auipc	ra,0x3
   1b2d6:	242080e7          	jalr	578(ra) # 1e514 <memcpy>
   1b2da:	6505                	lui	a0,0x1
   1b2dc:	38c50513          	addi	a0,a0,908 # 138c <.Lline_table_start1+0x1161>
   1b2e0:	950a                	add	a0,a0,sp
   1b2e2:	0c2c                	addi	a1,sp,536
   1b2e4:	ffff9097          	auipc	ra,0xffff9
   1b2e8:	9f2080e7          	jalr	-1550(ra) # 13cd6 <_ZN20complex_dynamic_type3app17h57be45c0c6adcb42E>
   1b2ec:	3ec9c503          	lbu	a0,1004(s3)
   1b2f0:	c119                	beqz	a0,1b2f6 <_start+0x14d6>
   1b2f2:	1180306f          	j	1e40a <_start+0x45ea>
   1b2f6:	3ed9c503          	lbu	a0,1005(s3)
   1b2fa:	3ee9c583          	lbu	a1,1006(s3)
   1b2fe:	3ef9c603          	lbu	a2,1007(s3)
   1b302:	3f09a683          	lw	a3,1008(s3)
   1b306:	3f49a703          	lw	a4,1012(s3)
   1b30a:	3f89a783          	lw	a5,1016(s3)
   1b30e:	3fc9a483          	lw	s1,1020(s3)
   1b312:	4009a403          	lw	s0,1024(s3)
   1b316:	38e9a823          	sw	a4,912(s3)
   1b31a:	38f9aa23          	sw	a5,916(s3)
   1b31e:	3899ac23          	sw	s1,920(s3)
   1b322:	3889ae23          	sw	s0,924(s3)
   1b326:	4049a703          	lw	a4,1028(s3)
   1b32a:	4089a783          	lw	a5,1032(s3)
   1b32e:	40c9a483          	lw	s1,1036(s3)
   1b332:	41099403          	lh	s0,1040(s3)
   1b336:	05a2                	slli	a1,a1,0x8
   1b338:	3ae9a023          	sw	a4,928(s3)
   1b33c:	3af9a223          	sw	a5,932(s3)
   1b340:	3a99a423          	sw	s1,936(s3)
   1b344:	3a899623          	sh	s0,940(s3)
   1b348:	0186d713          	srli	a4,a3,0x18
   1b34c:	8d4d                	or	a0,a0,a1
   1b34e:	0106d593          	srli	a1,a3,0x10
   1b352:	24b104a3          	sb	a1,585(sp)
   1b356:	24e10523          	sb	a4,586(sp)
   1b35a:	0086d593          	srli	a1,a3,0x8
   1b35e:	24a11223          	sh	a0,580(sp)
   1b362:	24c10323          	sb	a2,582(sp)
   1b366:	24d103a3          	sb	a3,583(sp)
   1b36a:	24b10423          	sb	a1,584(sp)
   1b36e:	24b10513          	addi	a0,sp,587
   1b372:	6585                	lui	a1,0x1
   1b374:	33058593          	addi	a1,a1,816 # 1330 <.Lline_table_start1+0x1105>
   1b378:	958a                	add	a1,a1,sp
   1b37a:	4679                	li	a2,30
   1b37c:	00003097          	auipc	ra,0x3
   1b380:	198080e7          	jalr	408(ra) # 1e514 <memcpy>
   1b384:	6505                	lui	a0,0x1
   1b386:	38c50513          	addi	a0,a0,908 # 138c <.Lline_table_start1+0x1161>
   1b38a:	950a                	add	a0,a0,sp
   1b38c:	04cc                	addi	a1,sp,580
   1b38e:	ffffc097          	auipc	ra,0xffffc
   1b392:	088080e7          	jalr	136(ra) # 17416 <_ZN20complex_dynamic_type3app17hb97100d11fca7244E>
   1b396:	3ec9c503          	lbu	a0,1004(s3)
   1b39a:	c119                	beqz	a0,1b3a0 <_start+0x1580>
   1b39c:	06e0306f          	j	1e40a <_start+0x45ea>
   1b3a0:	3ed9c503          	lbu	a0,1005(s3)
   1b3a4:	3ee9c583          	lbu	a1,1006(s3)
   1b3a8:	3ef9c803          	lbu	a6,1007(s3)
   1b3ac:	3f09a683          	lw	a3,1008(s3)
   1b3b0:	3f49a703          	lw	a4,1012(s3)
   1b3b4:	3f89a783          	lw	a5,1016(s3)
   1b3b8:	3fc9a483          	lw	s1,1020(s3)
   1b3bc:	4009a403          	lw	s0,1024(s3)
   1b3c0:	4049c603          	lbu	a2,1028(s3)
   1b3c4:	38e9a823          	sw	a4,912(s3)
   1b3c8:	38f9aa23          	sw	a5,916(s3)
   1b3cc:	3899ac23          	sw	s1,920(s3)
   1b3d0:	3889ae23          	sw	s0,924(s3)
   1b3d4:	05a2                	slli	a1,a1,0x8
   1b3d6:	3ac98023          	sb	a2,928(s3)
   1b3da:	0186d613          	srli	a2,a3,0x18
   1b3de:	8d4d                	or	a0,a0,a1
   1b3e0:	0106d593          	srli	a1,a3,0x10
   1b3e4:	26b107a3          	sb	a1,623(sp)
   1b3e8:	26c10823          	sb	a2,624(sp)
   1b3ec:	0086d593          	srli	a1,a3,0x8
   1b3f0:	26a11523          	sh	a0,618(sp)
   1b3f4:	27010623          	sb	a6,620(sp)
   1b3f8:	26d106a3          	sb	a3,621(sp)
   1b3fc:	26b10723          	sb	a1,622(sp)
   1b400:	27110513          	addi	a0,sp,625
   1b404:	6585                	lui	a1,0x1
   1b406:	33058593          	addi	a1,a1,816 # 1330 <.Lline_table_start1+0x1105>
   1b40a:	958a                	add	a1,a1,sp
   1b40c:	4645                	li	a2,17
   1b40e:	00003097          	auipc	ra,0x3
   1b412:	106080e7          	jalr	262(ra) # 1e514 <memcpy>
   1b416:	6505                	lui	a0,0x1
   1b418:	38c50513          	addi	a0,a0,908 # 138c <.Lline_table_start1+0x1161>
   1b41c:	950a                	add	a0,a0,sp
   1b41e:	26a10593          	addi	a1,sp,618
   1b422:	ffffc097          	auipc	ra,0xffffc
   1b426:	474080e7          	jalr	1140(ra) # 17896 <_ZN20complex_dynamic_type3app17hbe424d95830fe2c2E>
   1b42a:	3ec9c503          	lbu	a0,1004(s3)
   1b42e:	c119                	beqz	a0,1b434 <_start+0x1614>
   1b430:	7db0206f          	j	1e40a <_start+0x45ea>
   1b434:	3ee9c503          	lbu	a0,1006(s3)
   1b438:	3ed9c583          	lbu	a1,1005(s3)
   1b43c:	3ef9c603          	lbu	a2,1007(s3)
   1b440:	3f09a403          	lw	s0,1008(s3)
   1b444:	0522                	slli	a0,a0,0x8
   1b446:	8d4d                	or	a0,a0,a1
   1b448:	28a11123          	sh	a0,642(sp)
   1b44c:	28c10223          	sb	a2,644(sp)
   1b450:	6505                	lui	a0,0x1
   1b452:	39450513          	addi	a0,a0,916 # 1394 <.Lline_table_start1+0x1169>
   1b456:	00a105b3          	add	a1,sp,a0
   1b45a:	6505                	lui	a0,0x1
   1b45c:	33050513          	addi	a0,a0,816 # 1330 <.Lline_table_start1+0x1105>
   1b460:	950a                	add	a0,a0,sp
   1b462:	02f00613          	li	a2,47
   1b466:	00003097          	auipc	ra,0x3
   1b46a:	0ae080e7          	jalr	174(ra) # 1e514 <memcpy>
   1b46e:	01845513          	srli	a0,s0,0x18
   1b472:	01045593          	srli	a1,s0,0x10
   1b476:	00845613          	srli	a2,s0,0x8
   1b47a:	288102a3          	sb	s0,645(sp)
   1b47e:	28c10323          	sb	a2,646(sp)
   1b482:	28b103a3          	sb	a1,647(sp)
   1b486:	28a10423          	sb	a0,648(sp)
   1b48a:	28910513          	addi	a0,sp,649
   1b48e:	6585                	lui	a1,0x1
   1b490:	33058593          	addi	a1,a1,816 # 1330 <.Lline_table_start1+0x1105>
   1b494:	958a                	add	a1,a1,sp
   1b496:	02f00613          	li	a2,47
   1b49a:	00003097          	auipc	ra,0x3
   1b49e:	07a080e7          	jalr	122(ra) # 1e514 <memcpy>
   1b4a2:	6505                	lui	a0,0x1
   1b4a4:	38c50513          	addi	a0,a0,908 # 138c <.Lline_table_start1+0x1161>
   1b4a8:	950a                	add	a0,a0,sp
   1b4aa:	28210593          	addi	a1,sp,642
   1b4ae:	ffffa097          	auipc	ra,0xffffa
   1b4b2:	33a080e7          	jalr	826(ra) # 157e8 <_ZN20complex_dynamic_type3app17h7c8e5adb6260604fE>
   1b4b6:	3ec9c503          	lbu	a0,1004(s3)
   1b4ba:	c119                	beqz	a0,1b4c0 <_start+0x16a0>
   1b4bc:	74f0206f          	j	1e40a <_start+0x45ea>
   1b4c0:	3ee9c503          	lbu	a0,1006(s3)
   1b4c4:	3ed9c583          	lbu	a1,1005(s3)
   1b4c8:	3ef9c603          	lbu	a2,1007(s3)
   1b4cc:	3f09a403          	lw	s0,1008(s3)
   1b4d0:	0522                	slli	a0,a0,0x8
   1b4d2:	8d4d                	or	a0,a0,a1
   1b4d4:	2aa11c23          	sh	a0,696(sp)
   1b4d8:	2ac10d23          	sb	a2,698(sp)
   1b4dc:	6505                	lui	a0,0x1
   1b4de:	39450513          	addi	a0,a0,916 # 1394 <.Lline_table_start1+0x1169>
   1b4e2:	00a105b3          	add	a1,sp,a0
   1b4e6:	6505                	lui	a0,0x1
   1b4e8:	33050513          	addi	a0,a0,816 # 1330 <.Lline_table_start1+0x1105>
   1b4ec:	950a                	add	a0,a0,sp
   1b4ee:	02d00613          	li	a2,45
   1b4f2:	00003097          	auipc	ra,0x3
   1b4f6:	022080e7          	jalr	34(ra) # 1e514 <memcpy>
   1b4fa:	01845513          	srli	a0,s0,0x18
   1b4fe:	01045593          	srli	a1,s0,0x10
   1b502:	00845613          	srli	a2,s0,0x8
   1b506:	2a810da3          	sb	s0,699(sp)
   1b50a:	2ac10e23          	sb	a2,700(sp)
   1b50e:	2ab10ea3          	sb	a1,701(sp)
   1b512:	2aa10f23          	sb	a0,702(sp)
   1b516:	2bf10513          	addi	a0,sp,703
   1b51a:	6585                	lui	a1,0x1
   1b51c:	33058593          	addi	a1,a1,816 # 1330 <.Lline_table_start1+0x1105>
   1b520:	958a                	add	a1,a1,sp
   1b522:	02d00613          	li	a2,45
   1b526:	00003097          	auipc	ra,0x3
   1b52a:	fee080e7          	jalr	-18(ra) # 1e514 <memcpy>
   1b52e:	6505                	lui	a0,0x1
   1b530:	38c50513          	addi	a0,a0,908 # 138c <.Lline_table_start1+0x1161>
   1b534:	950a                	add	a0,a0,sp
   1b536:	1d2c                	addi	a1,sp,696
   1b538:	ffff6097          	auipc	ra,0xffff6
   1b53c:	680080e7          	jalr	1664(ra) # 11bb8 <_ZN20complex_dynamic_type3app17h167f481162ddf486E>
   1b540:	3ec9c503          	lbu	a0,1004(s3)
   1b544:	c119                	beqz	a0,1b54a <_start+0x172a>
   1b546:	6c50206f          	j	1e40a <_start+0x45ea>
   1b54a:	3ee9c503          	lbu	a0,1006(s3)
   1b54e:	3ed9c583          	lbu	a1,1005(s3)
   1b552:	3ef9c603          	lbu	a2,1007(s3)
   1b556:	3f09a403          	lw	s0,1008(s3)
   1b55a:	0522                	slli	a0,a0,0x8
   1b55c:	8d4d                	or	a0,a0,a1
   1b55e:	2ea11623          	sh	a0,748(sp)
   1b562:	2ec10723          	sb	a2,750(sp)
   1b566:	6505                	lui	a0,0x1
   1b568:	39450513          	addi	a0,a0,916 # 1394 <.Lline_table_start1+0x1169>
   1b56c:	00a105b3          	add	a1,sp,a0
   1b570:	6505                	lui	a0,0x1
   1b572:	33050513          	addi	a0,a0,816 # 1330 <.Lline_table_start1+0x1105>
   1b576:	950a                	add	a0,a0,sp
   1b578:	02700613          	li	a2,39
   1b57c:	00003097          	auipc	ra,0x3
   1b580:	f98080e7          	jalr	-104(ra) # 1e514 <memcpy>
   1b584:	01845513          	srli	a0,s0,0x18
   1b588:	01045593          	srli	a1,s0,0x10
   1b58c:	00845613          	srli	a2,s0,0x8
   1b590:	2e8107a3          	sb	s0,751(sp)
   1b594:	2ec10823          	sb	a2,752(sp)
   1b598:	2eb108a3          	sb	a1,753(sp)
   1b59c:	2ea10923          	sb	a0,754(sp)
   1b5a0:	2f310513          	addi	a0,sp,755
   1b5a4:	6585                	lui	a1,0x1
   1b5a6:	33058593          	addi	a1,a1,816 # 1330 <.Lline_table_start1+0x1105>
   1b5aa:	958a                	add	a1,a1,sp
   1b5ac:	02700613          	li	a2,39
   1b5b0:	00003097          	auipc	ra,0x3
   1b5b4:	f64080e7          	jalr	-156(ra) # 1e514 <memcpy>
   1b5b8:	6505                	lui	a0,0x1
   1b5ba:	38c50513          	addi	a0,a0,908 # 138c <.Lline_table_start1+0x1161>
   1b5be:	950a                	add	a0,a0,sp
   1b5c0:	15ec                	addi	a1,sp,748
   1b5c2:	ffff6097          	auipc	ra,0xffff6
   1b5c6:	164080e7          	jalr	356(ra) # 11726 <_ZN20complex_dynamic_type3app17h0ae3f49fceb243c8E>
   1b5ca:	3ec9c503          	lbu	a0,1004(s3)
   1b5ce:	c119                	beqz	a0,1b5d4 <_start+0x17b4>
   1b5d0:	63b0206f          	j	1e40a <_start+0x45ea>
   1b5d4:	3ee9c503          	lbu	a0,1006(s3)
   1b5d8:	3ed9c583          	lbu	a1,1005(s3)
   1b5dc:	3ef9c603          	lbu	a2,1007(s3)
   1b5e0:	3f09a403          	lw	s0,1008(s3)
   1b5e4:	0522                	slli	a0,a0,0x8
   1b5e6:	8d4d                	or	a0,a0,a1
   1b5e8:	30a11d23          	sh	a0,794(sp)
   1b5ec:	30c10e23          	sb	a2,796(sp)
   1b5f0:	6505                	lui	a0,0x1
   1b5f2:	39450513          	addi	a0,a0,916 # 1394 <.Lline_table_start1+0x1169>
   1b5f6:	00a105b3          	add	a1,sp,a0
   1b5fa:	6505                	lui	a0,0x1
   1b5fc:	33050513          	addi	a0,a0,816 # 1330 <.Lline_table_start1+0x1105>
   1b600:	950a                	add	a0,a0,sp
   1b602:	03100613          	li	a2,49
   1b606:	00003097          	auipc	ra,0x3
   1b60a:	f0e080e7          	jalr	-242(ra) # 1e514 <memcpy>
   1b60e:	01845513          	srli	a0,s0,0x18
   1b612:	01045593          	srli	a1,s0,0x10
   1b616:	00845613          	srli	a2,s0,0x8
   1b61a:	30810ea3          	sb	s0,797(sp)
   1b61e:	30c10f23          	sb	a2,798(sp)
   1b622:	30b10fa3          	sb	a1,799(sp)
   1b626:	32a10023          	sb	a0,800(sp)
   1b62a:	32110513          	addi	a0,sp,801
   1b62e:	6585                	lui	a1,0x1
   1b630:	33058593          	addi	a1,a1,816 # 1330 <.Lline_table_start1+0x1105>
   1b634:	958a                	add	a1,a1,sp
   1b636:	03100613          	li	a2,49
   1b63a:	00003097          	auipc	ra,0x3
   1b63e:	eda080e7          	jalr	-294(ra) # 1e514 <memcpy>
   1b642:	6505                	lui	a0,0x1
   1b644:	38c50513          	addi	a0,a0,908 # 138c <.Lline_table_start1+0x1161>
   1b648:	950a                	add	a0,a0,sp
   1b64a:	31a10593          	addi	a1,sp,794
   1b64e:	ffff7097          	auipc	ra,0xffff7
   1b652:	166080e7          	jalr	358(ra) # 127b4 <_ZN20complex_dynamic_type3app17h303acc28182e9665E>
   1b656:	3ec9c503          	lbu	a0,1004(s3)
   1b65a:	c119                	beqz	a0,1b660 <_start+0x1840>
   1b65c:	5af0206f          	j	1e40a <_start+0x45ea>
   1b660:	3ee9c503          	lbu	a0,1006(s3)
   1b664:	3ed9c583          	lbu	a1,1005(s3)
   1b668:	3ef9c603          	lbu	a2,1007(s3)
   1b66c:	3f09a403          	lw	s0,1008(s3)
   1b670:	0522                	slli	a0,a0,0x8
   1b672:	8d4d                	or	a0,a0,a1
   1b674:	34a11923          	sh	a0,850(sp)
   1b678:	34c10a23          	sb	a2,852(sp)
   1b67c:	6505                	lui	a0,0x1
   1b67e:	39450513          	addi	a0,a0,916 # 1394 <.Lline_table_start1+0x1169>
   1b682:	00a105b3          	add	a1,sp,a0
   1b686:	6505                	lui	a0,0x1
   1b688:	33050513          	addi	a0,a0,816 # 1330 <.Lline_table_start1+0x1105>
   1b68c:	950a                	add	a0,a0,sp
   1b68e:	02d00613          	li	a2,45
   1b692:	00003097          	auipc	ra,0x3
   1b696:	e82080e7          	jalr	-382(ra) # 1e514 <memcpy>
   1b69a:	01845513          	srli	a0,s0,0x18
   1b69e:	01045593          	srli	a1,s0,0x10
   1b6a2:	00845613          	srli	a2,s0,0x8
   1b6a6:	34810aa3          	sb	s0,853(sp)
   1b6aa:	34c10b23          	sb	a2,854(sp)
   1b6ae:	34b10ba3          	sb	a1,855(sp)
   1b6b2:	34a10c23          	sb	a0,856(sp)
   1b6b6:	35910513          	addi	a0,sp,857
   1b6ba:	6585                	lui	a1,0x1
   1b6bc:	33058593          	addi	a1,a1,816 # 1330 <.Lline_table_start1+0x1105>
   1b6c0:	958a                	add	a1,a1,sp
   1b6c2:	02d00613          	li	a2,45
   1b6c6:	00003097          	auipc	ra,0x3
   1b6ca:	e4e080e7          	jalr	-434(ra) # 1e514 <memcpy>
   1b6ce:	6505                	lui	a0,0x1
   1b6d0:	38c50513          	addi	a0,a0,908 # 138c <.Lline_table_start1+0x1161>
   1b6d4:	950a                	add	a0,a0,sp
   1b6d6:	35210593          	addi	a1,sp,850
   1b6da:	ffff8097          	auipc	ra,0xffff8
   1b6de:	fee080e7          	jalr	-18(ra) # 136c8 <_ZN20complex_dynamic_type3app17h4df6577adf53dcaaE>
   1b6e2:	3ec9c503          	lbu	a0,1004(s3)
   1b6e6:	c119                	beqz	a0,1b6ec <_start+0x18cc>
   1b6e8:	5230206f          	j	1e40a <_start+0x45ea>
   1b6ec:	3ed9c503          	lbu	a0,1005(s3)
   1b6f0:	3ee9c583          	lbu	a1,1006(s3)
   1b6f4:	3f49a603          	lw	a2,1012(s3)
   1b6f8:	3f89a683          	lw	a3,1016(s3)
   1b6fc:	3fc9a703          	lw	a4,1020(s3)
   1b700:	4009a783          	lw	a5,1024(s3)
   1b704:	40499483          	lh	s1,1028(s3)
   1b708:	4069c403          	lbu	s0,1030(s3)
   1b70c:	38c9a823          	sw	a2,912(s3)
   1b710:	38d9aa23          	sw	a3,916(s3)
   1b714:	38e9ac23          	sw	a4,920(s3)
   1b718:	38f9ae23          	sw	a5,924(s3)
   1b71c:	3ef9c603          	lbu	a2,1007(s3)
   1b720:	3f09a683          	lw	a3,1008(s3)
   1b724:	05a2                	slli	a1,a1,0x8
   1b726:	3a999023          	sh	s1,928(s3)
   1b72a:	3a898123          	sb	s0,930(s3)
   1b72e:	0186d713          	srli	a4,a3,0x18
   1b732:	8d4d                	or	a0,a0,a1
   1b734:	0106d593          	srli	a1,a3,0x10
   1b738:	38b105a3          	sb	a1,907(sp)
   1b73c:	38e10623          	sb	a4,908(sp)
   1b740:	0086d593          	srli	a1,a3,0x8
   1b744:	38a11323          	sh	a0,902(sp)
   1b748:	38c10423          	sb	a2,904(sp)
   1b74c:	38d104a3          	sb	a3,905(sp)
   1b750:	38b10523          	sb	a1,906(sp)
   1b754:	38d10513          	addi	a0,sp,909
   1b758:	6585                	lui	a1,0x1
   1b75a:	33058593          	addi	a1,a1,816 # 1330 <.Lline_table_start1+0x1105>
   1b75e:	958a                	add	a1,a1,sp
   1b760:	464d                	li	a2,19
   1b762:	00003097          	auipc	ra,0x3
   1b766:	db2080e7          	jalr	-590(ra) # 1e514 <memcpy>
   1b76a:	6505                	lui	a0,0x1
   1b76c:	38c50513          	addi	a0,a0,908 # 138c <.Lline_table_start1+0x1161>
   1b770:	950a                	add	a0,a0,sp
   1b772:	38610593          	addi	a1,sp,902
   1b776:	ffffc097          	auipc	ra,0xffffc
   1b77a:	e1e080e7          	jalr	-482(ra) # 17594 <_ZN20complex_dynamic_type3app17hbd7739a6fdf9d0a6E>
   1b77e:	3ec9c503          	lbu	a0,1004(s3)
   1b782:	c119                	beqz	a0,1b788 <_start+0x1968>
   1b784:	4870206f          	j	1e40a <_start+0x45ea>
   1b788:	3ee9c503          	lbu	a0,1006(s3)
   1b78c:	3ed9c583          	lbu	a1,1005(s3)
   1b790:	3ef9c603          	lbu	a2,1007(s3)
   1b794:	3f09a403          	lw	s0,1008(s3)
   1b798:	0522                	slli	a0,a0,0x8
   1b79a:	8d4d                	or	a0,a0,a1
   1b79c:	3aa11023          	sh	a0,928(sp)
   1b7a0:	3ac10123          	sb	a2,930(sp)
   1b7a4:	6505                	lui	a0,0x1
   1b7a6:	39450513          	addi	a0,a0,916 # 1394 <.Lline_table_start1+0x1169>
   1b7aa:	00a105b3          	add	a1,sp,a0
   1b7ae:	6505                	lui	a0,0x1
   1b7b0:	33050513          	addi	a0,a0,816 # 1330 <.Lline_table_start1+0x1105>
   1b7b4:	950a                	add	a0,a0,sp
   1b7b6:	04900613          	li	a2,73
   1b7ba:	00003097          	auipc	ra,0x3
   1b7be:	d5a080e7          	jalr	-678(ra) # 1e514 <memcpy>
   1b7c2:	01845513          	srli	a0,s0,0x18
   1b7c6:	01045593          	srli	a1,s0,0x10
   1b7ca:	00845613          	srli	a2,s0,0x8
   1b7ce:	3a8101a3          	sb	s0,931(sp)
   1b7d2:	3ac10223          	sb	a2,932(sp)
   1b7d6:	3ab102a3          	sb	a1,933(sp)
   1b7da:	3aa10323          	sb	a0,934(sp)
   1b7de:	3a710513          	addi	a0,sp,935
   1b7e2:	6585                	lui	a1,0x1
   1b7e4:	33058593          	addi	a1,a1,816 # 1330 <.Lline_table_start1+0x1105>
   1b7e8:	958a                	add	a1,a1,sp
   1b7ea:	04900613          	li	a2,73
   1b7ee:	00003097          	auipc	ra,0x3
   1b7f2:	d26080e7          	jalr	-730(ra) # 1e514 <memcpy>
   1b7f6:	6505                	lui	a0,0x1
   1b7f8:	38c50513          	addi	a0,a0,908 # 138c <.Lline_table_start1+0x1161>
   1b7fc:	950a                	add	a0,a0,sp
   1b7fe:	170c                	addi	a1,sp,928
   1b800:	ffff7097          	auipc	ra,0xffff7
   1b804:	b2e080e7          	jalr	-1234(ra) # 1232e <_ZN20complex_dynamic_type3app17h27304224519d3ed2E>
   1b808:	3ec9c503          	lbu	a0,1004(s3)
   1b80c:	c119                	beqz	a0,1b812 <_start+0x19f2>
   1b80e:	3fd0206f          	j	1e40a <_start+0x45ea>
   1b812:	3ee9c503          	lbu	a0,1006(s3)
   1b816:	3ed9c583          	lbu	a1,1005(s3)
   1b81a:	3ef9c603          	lbu	a2,1007(s3)
   1b81e:	3f09a403          	lw	s0,1008(s3)
   1b822:	0522                	slli	a0,a0,0x8
   1b824:	8d4d                	or	a0,a0,a1
   1b826:	3ea11823          	sh	a0,1008(sp)
   1b82a:	3ec10923          	sb	a2,1010(sp)
   1b82e:	6505                	lui	a0,0x1
   1b830:	39450513          	addi	a0,a0,916 # 1394 <.Lline_table_start1+0x1169>
   1b834:	00a105b3          	add	a1,sp,a0
   1b838:	6505                	lui	a0,0x1
   1b83a:	33050513          	addi	a0,a0,816 # 1330 <.Lline_table_start1+0x1105>
   1b83e:	950a                	add	a0,a0,sp
   1b840:	03500613          	li	a2,53
   1b844:	00003097          	auipc	ra,0x3
   1b848:	cd0080e7          	jalr	-816(ra) # 1e514 <memcpy>
   1b84c:	01845513          	srli	a0,s0,0x18
   1b850:	01045593          	srli	a1,s0,0x10
   1b854:	00845613          	srli	a2,s0,0x8
   1b858:	3e8109a3          	sb	s0,1011(sp)
   1b85c:	3ec10a23          	sb	a2,1012(sp)
   1b860:	3eb10aa3          	sb	a1,1013(sp)
   1b864:	3ea10b23          	sb	a0,1014(sp)
   1b868:	3f710513          	addi	a0,sp,1015
   1b86c:	6585                	lui	a1,0x1
   1b86e:	33058593          	addi	a1,a1,816 # 1330 <.Lline_table_start1+0x1105>
   1b872:	958a                	add	a1,a1,sp
   1b874:	03500613          	li	a2,53
   1b878:	00003097          	auipc	ra,0x3
   1b87c:	c9c080e7          	jalr	-868(ra) # 1e514 <memcpy>
   1b880:	6505                	lui	a0,0x1
   1b882:	38c50513          	addi	a0,a0,908 # 138c <.Lline_table_start1+0x1161>
   1b886:	950a                	add	a0,a0,sp
   1b888:	1f8c                	addi	a1,sp,1008
   1b88a:	ffffe097          	auipc	ra,0xffffe
   1b88e:	af8080e7          	jalr	-1288(ra) # 19382 <_ZN20complex_dynamic_type3app17he79c8d2b524f175dE>
   1b892:	3ec9c503          	lbu	a0,1004(s3)
   1b896:	c119                	beqz	a0,1b89c <_start+0x1a7c>
   1b898:	3730206f          	j	1e40a <_start+0x45ea>
   1b89c:	3ee9c503          	lbu	a0,1006(s3)
   1b8a0:	3ed9c583          	lbu	a1,1005(s3)
   1b8a4:	3ef9c603          	lbu	a2,1007(s3)
   1b8a8:	3f09a403          	lw	s0,1008(s3)
   1b8ac:	0522                	slli	a0,a0,0x8
   1b8ae:	8d4d                	or	a0,a0,a1
   1b8b0:	42a11623          	sh	a0,1068(sp)
   1b8b4:	42c10723          	sb	a2,1070(sp)
   1b8b8:	6505                	lui	a0,0x1
   1b8ba:	39450513          	addi	a0,a0,916 # 1394 <.Lline_table_start1+0x1169>
   1b8be:	00a105b3          	add	a1,sp,a0
   1b8c2:	6505                	lui	a0,0x1
   1b8c4:	33050513          	addi	a0,a0,816 # 1330 <.Lline_table_start1+0x1105>
   1b8c8:	950a                	add	a0,a0,sp
   1b8ca:	02b00613          	li	a2,43
   1b8ce:	00003097          	auipc	ra,0x3
   1b8d2:	c46080e7          	jalr	-954(ra) # 1e514 <memcpy>
   1b8d6:	01845513          	srli	a0,s0,0x18
   1b8da:	01045593          	srli	a1,s0,0x10
   1b8de:	00845613          	srli	a2,s0,0x8
   1b8e2:	428107a3          	sb	s0,1071(sp)
   1b8e6:	42c10823          	sb	a2,1072(sp)
   1b8ea:	42b108a3          	sb	a1,1073(sp)
   1b8ee:	42a10923          	sb	a0,1074(sp)
   1b8f2:	43310513          	addi	a0,sp,1075
   1b8f6:	6585                	lui	a1,0x1
   1b8f8:	33058593          	addi	a1,a1,816 # 1330 <.Lline_table_start1+0x1105>
   1b8fc:	958a                	add	a1,a1,sp
   1b8fe:	02b00613          	li	a2,43
   1b902:	00003097          	auipc	ra,0x3
   1b906:	c12080e7          	jalr	-1006(ra) # 1e514 <memcpy>
   1b90a:	6505                	lui	a0,0x1
   1b90c:	38c50513          	addi	a0,a0,908 # 138c <.Lline_table_start1+0x1161>
   1b910:	950a                	add	a0,a0,sp
   1b912:	42c10593          	addi	a1,sp,1068
   1b916:	ffff9097          	auipc	ra,0xffff9
   1b91a:	9c4080e7          	jalr	-1596(ra) # 142da <_ZN20complex_dynamic_type3app17h63ce48baba51a4eeE>
   1b91e:	3ec9c503          	lbu	a0,1004(s3)
   1b922:	c119                	beqz	a0,1b928 <_start+0x1b08>
   1b924:	2e70206f          	j	1e40a <_start+0x45ea>
   1b928:	3ee9c503          	lbu	a0,1006(s3)
   1b92c:	3ed9c583          	lbu	a1,1005(s3)
   1b930:	3ef9c603          	lbu	a2,1007(s3)
   1b934:	3f09a403          	lw	s0,1008(s3)
   1b938:	0522                	slli	a0,a0,0x8
   1b93a:	8d4d                	or	a0,a0,a1
   1b93c:	44a11f23          	sh	a0,1118(sp)
   1b940:	46c10023          	sb	a2,1120(sp)
   1b944:	6505                	lui	a0,0x1
   1b946:	39450513          	addi	a0,a0,916 # 1394 <.Lline_table_start1+0x1169>
   1b94a:	00a105b3          	add	a1,sp,a0
   1b94e:	6505                	lui	a0,0x1
   1b950:	33050513          	addi	a0,a0,816 # 1330 <.Lline_table_start1+0x1105>
   1b954:	950a                	add	a0,a0,sp
   1b956:	02b00613          	li	a2,43
   1b95a:	00003097          	auipc	ra,0x3
   1b95e:	bba080e7          	jalr	-1094(ra) # 1e514 <memcpy>
   1b962:	01845513          	srli	a0,s0,0x18
   1b966:	01045593          	srli	a1,s0,0x10
   1b96a:	00845613          	srli	a2,s0,0x8
   1b96e:	468100a3          	sb	s0,1121(sp)
   1b972:	46c10123          	sb	a2,1122(sp)
   1b976:	46b101a3          	sb	a1,1123(sp)
   1b97a:	46a10223          	sb	a0,1124(sp)
   1b97e:	46510513          	addi	a0,sp,1125
   1b982:	6585                	lui	a1,0x1
   1b984:	33058593          	addi	a1,a1,816 # 1330 <.Lline_table_start1+0x1105>
   1b988:	958a                	add	a1,a1,sp
   1b98a:	02b00613          	li	a2,43
   1b98e:	00003097          	auipc	ra,0x3
   1b992:	b86080e7          	jalr	-1146(ra) # 1e514 <memcpy>
   1b996:	6505                	lui	a0,0x1
   1b998:	38c50513          	addi	a0,a0,908 # 138c <.Lline_table_start1+0x1161>
   1b99c:	950a                	add	a0,a0,sp
   1b99e:	45e10593          	addi	a1,sp,1118
   1b9a2:	ffffe097          	auipc	ra,0xffffe
   1b9a6:	b66080e7          	jalr	-1178(ra) # 19508 <_ZN20complex_dynamic_type3app17he7fcb3a741390ffcE>
   1b9aa:	3ec9c503          	lbu	a0,1004(s3)
   1b9ae:	c119                	beqz	a0,1b9b4 <_start+0x1b94>
   1b9b0:	25b0206f          	j	1e40a <_start+0x45ea>
   1b9b4:	3ed9c503          	lbu	a0,1005(s3)
   1b9b8:	3ee9c583          	lbu	a1,1006(s3)
   1b9bc:	3ef9c603          	lbu	a2,1007(s3)
   1b9c0:	3f09a683          	lw	a3,1008(s3)
   1b9c4:	3f49a703          	lw	a4,1012(s3)
   1b9c8:	3f89a783          	lw	a5,1016(s3)
   1b9cc:	3fc9c483          	lbu	s1,1020(s3)
   1b9d0:	05a2                	slli	a1,a1,0x8
   1b9d2:	38e9a823          	sw	a4,912(s3)
   1b9d6:	38f9aa23          	sw	a5,916(s3)
   1b9da:	38998c23          	sb	s1,920(s3)
   1b9de:	0186d713          	srli	a4,a3,0x18
   1b9e2:	8d4d                	or	a0,a0,a1
   1b9e4:	0106d593          	srli	a1,a3,0x10
   1b9e8:	48b10aa3          	sb	a1,1173(sp)
   1b9ec:	48e10b23          	sb	a4,1174(sp)
   1b9f0:	0086d593          	srli	a1,a3,0x8
   1b9f4:	48a11823          	sh	a0,1168(sp)
   1b9f8:	48c10923          	sb	a2,1170(sp)
   1b9fc:	48d109a3          	sb	a3,1171(sp)
   1ba00:	48b10a23          	sb	a1,1172(sp)
   1ba04:	49710513          	addi	a0,sp,1175
   1ba08:	6585                	lui	a1,0x1
   1ba0a:	33058593          	addi	a1,a1,816 # 1330 <.Lline_table_start1+0x1105>
   1ba0e:	958a                	add	a1,a1,sp
   1ba10:	4625                	li	a2,9
   1ba12:	00003097          	auipc	ra,0x3
   1ba16:	b02080e7          	jalr	-1278(ra) # 1e514 <memcpy>
   1ba1a:	6505                	lui	a0,0x1
   1ba1c:	38c50513          	addi	a0,a0,908 # 138c <.Lline_table_start1+0x1161>
   1ba20:	950a                	add	a0,a0,sp
   1ba22:	49010593          	addi	a1,sp,1168
   1ba26:	ffff6097          	auipc	ra,0xffff6
   1ba2a:	892080e7          	jalr	-1902(ra) # 112b8 <_ZN20complex_dynamic_type3app17h052cd4475237f618E>
   1ba2e:	3ec9c503          	lbu	a0,1004(s3)
   1ba32:	c119                	beqz	a0,1ba38 <_start+0x1c18>
   1ba34:	1d70206f          	j	1e40a <_start+0x45ea>
   1ba38:	3ee9c503          	lbu	a0,1006(s3)
   1ba3c:	3ed9c583          	lbu	a1,1005(s3)
   1ba40:	3ef9c603          	lbu	a2,1007(s3)
   1ba44:	3f09a403          	lw	s0,1008(s3)
   1ba48:	0522                	slli	a0,a0,0x8
   1ba4a:	8d4d                	or	a0,a0,a1
   1ba4c:	4aa11023          	sh	a0,1184(sp)
   1ba50:	4ac10123          	sb	a2,1186(sp)
   1ba54:	6505                	lui	a0,0x1
   1ba56:	39450513          	addi	a0,a0,916 # 1394 <.Lline_table_start1+0x1169>
   1ba5a:	00a105b3          	add	a1,sp,a0
   1ba5e:	6505                	lui	a0,0x1
   1ba60:	33050513          	addi	a0,a0,816 # 1330 <.Lline_table_start1+0x1105>
   1ba64:	950a                	add	a0,a0,sp
   1ba66:	02f00613          	li	a2,47
   1ba6a:	00003097          	auipc	ra,0x3
   1ba6e:	aaa080e7          	jalr	-1366(ra) # 1e514 <memcpy>
   1ba72:	01845513          	srli	a0,s0,0x18
   1ba76:	01045593          	srli	a1,s0,0x10
   1ba7a:	00845613          	srli	a2,s0,0x8
   1ba7e:	4a8101a3          	sb	s0,1187(sp)
   1ba82:	4ac10223          	sb	a2,1188(sp)
   1ba86:	4ab102a3          	sb	a1,1189(sp)
   1ba8a:	4aa10323          	sb	a0,1190(sp)
   1ba8e:	4a710513          	addi	a0,sp,1191
   1ba92:	6585                	lui	a1,0x1
   1ba94:	33058593          	addi	a1,a1,816 # 1330 <.Lline_table_start1+0x1105>
   1ba98:	958a                	add	a1,a1,sp
   1ba9a:	02f00613          	li	a2,47
   1ba9e:	00003097          	auipc	ra,0x3
   1baa2:	a76080e7          	jalr	-1418(ra) # 1e514 <memcpy>
   1baa6:	6505                	lui	a0,0x1
   1baa8:	38c50513          	addi	a0,a0,908 # 138c <.Lline_table_start1+0x1161>
   1baac:	950a                	add	a0,a0,sp
   1baae:	4a010593          	addi	a1,sp,1184
   1bab2:	ffff6097          	auipc	ra,0xffff6
   1bab6:	988080e7          	jalr	-1656(ra) # 1143a <_ZN20complex_dynamic_type3app17h0926c4a82e08306cE>
   1baba:	3ec9c503          	lbu	a0,1004(s3)
   1babe:	c119                	beqz	a0,1bac4 <_start+0x1ca4>
   1bac0:	14b0206f          	j	1e40a <_start+0x45ea>
   1bac4:	3ed9c503          	lbu	a0,1005(s3)
   1bac8:	3ee9c583          	lbu	a1,1006(s3)
   1bacc:	3ef9c803          	lbu	a6,1007(s3)
   1bad0:	3f09a683          	lw	a3,1008(s3)
   1bad4:	3f49a703          	lw	a4,1012(s3)
   1bad8:	3f89a783          	lw	a5,1016(s3)
   1badc:	05a2                	slli	a1,a1,0x8
   1bade:	0186d893          	srli	a7,a3,0x18
   1bae2:	0106d293          	srli	t0,a3,0x10
   1bae6:	0187d613          	srli	a2,a5,0x18
   1baea:	0107d493          	srli	s1,a5,0x10
   1baee:	0087d413          	srli	s0,a5,0x8
   1baf2:	8d4d                	or	a0,a0,a1
   1baf4:	01875593          	srli	a1,a4,0x18
   1baf8:	4e9101a3          	sb	s1,1251(sp)
   1bafc:	4ec10223          	sb	a2,1252(sp)
   1bb00:	01075613          	srli	a2,a4,0x10
   1bb04:	4cc10fa3          	sb	a2,1247(sp)
   1bb08:	4eb10023          	sb	a1,1248(sp)
   1bb0c:	4ef100a3          	sb	a5,1249(sp)
   1bb10:	4e810123          	sb	s0,1250(sp)
   1bb14:	0086d593          	srli	a1,a3,0x8
   1bb18:	4ca11b23          	sh	a0,1238(sp)
   1bb1c:	4d010c23          	sb	a6,1240(sp)
   1bb20:	4cd10ca3          	sb	a3,1241(sp)
   1bb24:	4cb10d23          	sb	a1,1242(sp)
   1bb28:	00875513          	srli	a0,a4,0x8
   1bb2c:	4c510da3          	sb	t0,1243(sp)
   1bb30:	4d110e23          	sb	a7,1244(sp)
   1bb34:	4ce10ea3          	sb	a4,1245(sp)
   1bb38:	4ca10f23          	sb	a0,1246(sp)
   1bb3c:	6505                	lui	a0,0x1
   1bb3e:	38c50513          	addi	a0,a0,908 # 138c <.Lline_table_start1+0x1161>
   1bb42:	950a                	add	a0,a0,sp
   1bb44:	4d610593          	addi	a1,sp,1238
   1bb48:	ffff8097          	auipc	ra,0xffff8
   1bb4c:	880080e7          	jalr	-1920(ra) # 133c8 <_ZN20complex_dynamic_type3app17h46061aefef3fa7f6E>
   1bb50:	3ec9c503          	lbu	a0,1004(s3)
   1bb54:	c119                	beqz	a0,1bb5a <_start+0x1d3a>
   1bb56:	0b50206f          	j	1e40a <_start+0x45ea>
   1bb5a:	3ed9c503          	lbu	a0,1005(s3)
   1bb5e:	3ee9c583          	lbu	a1,1006(s3)
   1bb62:	3ef9c603          	lbu	a2,1007(s3)
   1bb66:	3f09a683          	lw	a3,1008(s3)
   1bb6a:	3f49a703          	lw	a4,1012(s3)
   1bb6e:	3f89a783          	lw	a5,1016(s3)
   1bb72:	3fc9a483          	lw	s1,1020(s3)
   1bb76:	05a2                	slli	a1,a1,0x8
   1bb78:	38e9a823          	sw	a4,912(s3)
   1bb7c:	38f9aa23          	sw	a5,916(s3)
   1bb80:	3899ac23          	sw	s1,920(s3)
   1bb84:	0186d713          	srli	a4,a3,0x18
   1bb88:	8d4d                	or	a0,a0,a1
   1bb8a:	0106d593          	srli	a1,a3,0x10
   1bb8e:	4eb105a3          	sb	a1,1259(sp)
   1bb92:	4ee10623          	sb	a4,1260(sp)
   1bb96:	0086d593          	srli	a1,a3,0x8
   1bb9a:	4ea11323          	sh	a0,1254(sp)
   1bb9e:	4ec10423          	sb	a2,1256(sp)
   1bba2:	4ed104a3          	sb	a3,1257(sp)
   1bba6:	4eb10523          	sb	a1,1258(sp)
   1bbaa:	4ed10513          	addi	a0,sp,1261
   1bbae:	6585                	lui	a1,0x1
   1bbb0:	33058593          	addi	a1,a1,816 # 1330 <.Lline_table_start1+0x1105>
   1bbb4:	958a                	add	a1,a1,sp
   1bbb6:	4631                	li	a2,12
   1bbb8:	00003097          	auipc	ra,0x3
   1bbbc:	95c080e7          	jalr	-1700(ra) # 1e514 <memcpy>
   1bbc0:	6505                	lui	a0,0x1
   1bbc2:	38c50513          	addi	a0,a0,908 # 138c <.Lline_table_start1+0x1161>
   1bbc6:	950a                	add	a0,a0,sp
   1bbc8:	4e610593          	addi	a1,sp,1254
   1bbcc:	ffffc097          	auipc	ra,0xffffc
   1bbd0:	42a080e7          	jalr	1066(ra) # 17ff6 <_ZN20complex_dynamic_type3app17hca20296d65ff26a1E>
   1bbd4:	3ec9c503          	lbu	a0,1004(s3)
   1bbd8:	c119                	beqz	a0,1bbde <_start+0x1dbe>
   1bbda:	0310206f          	j	1e40a <_start+0x45ea>
   1bbde:	3ee9c503          	lbu	a0,1006(s3)
   1bbe2:	3ed9c583          	lbu	a1,1005(s3)
   1bbe6:	3ef9c603          	lbu	a2,1007(s3)
   1bbea:	3f09a403          	lw	s0,1008(s3)
   1bbee:	0522                	slli	a0,a0,0x8
   1bbf0:	8d4d                	or	a0,a0,a1
   1bbf2:	4ea11d23          	sh	a0,1274(sp)
   1bbf6:	4ec10e23          	sb	a2,1276(sp)
   1bbfa:	6505                	lui	a0,0x1
   1bbfc:	39450513          	addi	a0,a0,916 # 1394 <.Lline_table_start1+0x1169>
   1bc00:	00a105b3          	add	a1,sp,a0
   1bc04:	6505                	lui	a0,0x1
   1bc06:	33050513          	addi	a0,a0,816 # 1330 <.Lline_table_start1+0x1105>
   1bc0a:	950a                	add	a0,a0,sp
   1bc0c:	04e00613          	li	a2,78
   1bc10:	00003097          	auipc	ra,0x3
   1bc14:	904080e7          	jalr	-1788(ra) # 1e514 <memcpy>
   1bc18:	01845513          	srli	a0,s0,0x18
   1bc1c:	01045593          	srli	a1,s0,0x10
   1bc20:	00845613          	srli	a2,s0,0x8
   1bc24:	4e810ea3          	sb	s0,1277(sp)
   1bc28:	4ec10f23          	sb	a2,1278(sp)
   1bc2c:	4eb10fa3          	sb	a1,1279(sp)
   1bc30:	50a10023          	sb	a0,1280(sp)
   1bc34:	50110513          	addi	a0,sp,1281
   1bc38:	6585                	lui	a1,0x1
   1bc3a:	33058593          	addi	a1,a1,816 # 1330 <.Lline_table_start1+0x1105>
   1bc3e:	958a                	add	a1,a1,sp
   1bc40:	04e00613          	li	a2,78
   1bc44:	00003097          	auipc	ra,0x3
   1bc48:	8d0080e7          	jalr	-1840(ra) # 1e514 <memcpy>
   1bc4c:	6505                	lui	a0,0x1
   1bc4e:	38c50513          	addi	a0,a0,908 # 138c <.Lline_table_start1+0x1161>
   1bc52:	950a                	add	a0,a0,sp
   1bc54:	4fa10593          	addi	a1,sp,1274
   1bc58:	ffff7097          	auipc	ra,0xffff7
   1bc5c:	9d8080e7          	jalr	-1576(ra) # 12630 <_ZN20complex_dynamic_type3app17h2e18c81955e06884E>
   1bc60:	3ec9c503          	lbu	a0,1004(s3)
   1bc64:	c119                	beqz	a0,1bc6a <_start+0x1e4a>
   1bc66:	7a40206f          	j	1e40a <_start+0x45ea>
   1bc6a:	3ee9c503          	lbu	a0,1006(s3)
   1bc6e:	3ed9c583          	lbu	a1,1005(s3)
   1bc72:	3ef9c603          	lbu	a2,1007(s3)
   1bc76:	3f09a403          	lw	s0,1008(s3)
   1bc7a:	0522                	slli	a0,a0,0x8
   1bc7c:	8d4d                	or	a0,a0,a1
   1bc7e:	54a11823          	sh	a0,1360(sp)
   1bc82:	54c10923          	sb	a2,1362(sp)
   1bc86:	6505                	lui	a0,0x1
   1bc88:	39450513          	addi	a0,a0,916 # 1394 <.Lline_table_start1+0x1169>
   1bc8c:	00a105b3          	add	a1,sp,a0
   1bc90:	6505                	lui	a0,0x1
   1bc92:	33050513          	addi	a0,a0,816 # 1330 <.Lline_table_start1+0x1105>
   1bc96:	950a                	add	a0,a0,sp
   1bc98:	02b00613          	li	a2,43
   1bc9c:	00003097          	auipc	ra,0x3
   1bca0:	878080e7          	jalr	-1928(ra) # 1e514 <memcpy>
   1bca4:	01845513          	srli	a0,s0,0x18
   1bca8:	01045593          	srli	a1,s0,0x10
   1bcac:	00845613          	srli	a2,s0,0x8
   1bcb0:	548109a3          	sb	s0,1363(sp)
   1bcb4:	54c10a23          	sb	a2,1364(sp)
   1bcb8:	54b10aa3          	sb	a1,1365(sp)
   1bcbc:	54a10b23          	sb	a0,1366(sp)
   1bcc0:	55710513          	addi	a0,sp,1367
   1bcc4:	6585                	lui	a1,0x1
   1bcc6:	33058593          	addi	a1,a1,816 # 1330 <.Lline_table_start1+0x1105>
   1bcca:	958a                	add	a1,a1,sp
   1bccc:	02b00613          	li	a2,43
   1bcd0:	00003097          	auipc	ra,0x3
   1bcd4:	844080e7          	jalr	-1980(ra) # 1e514 <memcpy>
   1bcd8:	6505                	lui	a0,0x1
   1bcda:	38c50513          	addi	a0,a0,908 # 138c <.Lline_table_start1+0x1161>
   1bcde:	950a                	add	a0,a0,sp
   1bce0:	55010593          	addi	a1,sp,1360
   1bce4:	ffffd097          	auipc	ra,0xffffd
   1bce8:	39e080e7          	jalr	926(ra) # 19082 <_ZN20complex_dynamic_type3app17hdd5c8514b51dbbc6E>
   1bcec:	3ec9c503          	lbu	a0,1004(s3)
   1bcf0:	c119                	beqz	a0,1bcf6 <_start+0x1ed6>
   1bcf2:	7180206f          	j	1e40a <_start+0x45ea>
   1bcf6:	3ee9c503          	lbu	a0,1006(s3)
   1bcfa:	3ed9c583          	lbu	a1,1005(s3)
   1bcfe:	3ef9c603          	lbu	a2,1007(s3)
   1bd02:	3f09a403          	lw	s0,1008(s3)
   1bd06:	0522                	slli	a0,a0,0x8
   1bd08:	8d4d                	or	a0,a0,a1
   1bd0a:	58a11123          	sh	a0,1410(sp)
   1bd0e:	58c10223          	sb	a2,1412(sp)
   1bd12:	6505                	lui	a0,0x1
   1bd14:	39450513          	addi	a0,a0,916 # 1394 <.Lline_table_start1+0x1169>
   1bd18:	00a105b3          	add	a1,sp,a0
   1bd1c:	6505                	lui	a0,0x1
   1bd1e:	33050513          	addi	a0,a0,816 # 1330 <.Lline_table_start1+0x1105>
   1bd22:	950a                	add	a0,a0,sp
   1bd24:	03a00613          	li	a2,58
   1bd28:	00002097          	auipc	ra,0x2
   1bd2c:	7ec080e7          	jalr	2028(ra) # 1e514 <memcpy>
   1bd30:	01845513          	srli	a0,s0,0x18
   1bd34:	01045593          	srli	a1,s0,0x10
   1bd38:	00845613          	srli	a2,s0,0x8
   1bd3c:	588102a3          	sb	s0,1413(sp)
   1bd40:	58c10323          	sb	a2,1414(sp)
   1bd44:	58b103a3          	sb	a1,1415(sp)
   1bd48:	58a10423          	sb	a0,1416(sp)
   1bd4c:	58910513          	addi	a0,sp,1417
   1bd50:	6585                	lui	a1,0x1
   1bd52:	33058593          	addi	a1,a1,816 # 1330 <.Lline_table_start1+0x1105>
   1bd56:	958a                	add	a1,a1,sp
   1bd58:	03a00613          	li	a2,58
   1bd5c:	00002097          	auipc	ra,0x2
   1bd60:	7b8080e7          	jalr	1976(ra) # 1e514 <memcpy>
   1bd64:	6505                	lui	a0,0x1
   1bd66:	38c50513          	addi	a0,a0,908 # 138c <.Lline_table_start1+0x1161>
   1bd6a:	950a                	add	a0,a0,sp
   1bd6c:	58210593          	addi	a1,sp,1410
   1bd70:	ffffa097          	auipc	ra,0xffffa
   1bd74:	bfe080e7          	jalr	-1026(ra) # 1596e <_ZN20complex_dynamic_type3app17h80493a4b13fcafbaE>
   1bd78:	3ec9c503          	lbu	a0,1004(s3)
   1bd7c:	c119                	beqz	a0,1bd82 <_start+0x1f62>
   1bd7e:	68c0206f          	j	1e40a <_start+0x45ea>
   1bd82:	3ed9c503          	lbu	a0,1005(s3)
   1bd86:	3ee9c583          	lbu	a1,1006(s3)
   1bd8a:	3ef9c603          	lbu	a2,1007(s3)
   1bd8e:	3f09a683          	lw	a3,1008(s3)
   1bd92:	3f49a703          	lw	a4,1012(s3)
   1bd96:	3f89a783          	lw	a5,1016(s3)
   1bd9a:	3fc9a483          	lw	s1,1020(s3)
   1bd9e:	4009a403          	lw	s0,1024(s3)
   1bda2:	38e9a823          	sw	a4,912(s3)
   1bda6:	38f9aa23          	sw	a5,916(s3)
   1bdaa:	3899ac23          	sw	s1,920(s3)
   1bdae:	3889ae23          	sw	s0,924(s3)
   1bdb2:	4049a703          	lw	a4,1028(s3)
   1bdb6:	4089a783          	lw	a5,1032(s3)
   1bdba:	40c99483          	lh	s1,1036(s3)
   1bdbe:	40e9c403          	lbu	s0,1038(s3)
   1bdc2:	05a2                	slli	a1,a1,0x8
   1bdc4:	3ae9a023          	sw	a4,928(s3)
   1bdc8:	3af9a223          	sw	a5,932(s3)
   1bdcc:	3a999423          	sh	s1,936(s3)
   1bdd0:	3a898523          	sb	s0,938(s3)
   1bdd4:	0186d713          	srli	a4,a3,0x18
   1bdd8:	8d4d                	or	a0,a0,a1
   1bdda:	0106d593          	srli	a1,a3,0x10
   1bdde:	5cb104a3          	sb	a1,1481(sp)
   1bde2:	5ce10523          	sb	a4,1482(sp)
   1bde6:	0086d593          	srli	a1,a3,0x8
   1bdea:	5ca11223          	sh	a0,1476(sp)
   1bdee:	5cc10323          	sb	a2,1478(sp)
   1bdf2:	5cd103a3          	sb	a3,1479(sp)
   1bdf6:	5cb10423          	sb	a1,1480(sp)
   1bdfa:	5cb10513          	addi	a0,sp,1483
   1bdfe:	6585                	lui	a1,0x1
   1be00:	33058593          	addi	a1,a1,816 # 1330 <.Lline_table_start1+0x1105>
   1be04:	958a                	add	a1,a1,sp
   1be06:	466d                	li	a2,27
   1be08:	00002097          	auipc	ra,0x2
   1be0c:	70c080e7          	jalr	1804(ra) # 1e514 <memcpy>
   1be10:	6505                	lui	a0,0x1
   1be12:	38c50513          	addi	a0,a0,908 # 138c <.Lline_table_start1+0x1161>
   1be16:	950a                	add	a0,a0,sp
   1be18:	5c410593          	addi	a1,sp,1476
   1be1c:	ffff9097          	auipc	ra,0xffff9
   1be20:	54e080e7          	jalr	1358(ra) # 1536a <_ZN20complex_dynamic_type3app17h7a093db2e7f61292E>
   1be24:	3ec9c503          	lbu	a0,1004(s3)
   1be28:	c119                	beqz	a0,1be2e <_start+0x200e>
   1be2a:	5e00206f          	j	1e40a <_start+0x45ea>
   1be2e:	3ee9c503          	lbu	a0,1006(s3)
   1be32:	3ed9c583          	lbu	a1,1005(s3)
   1be36:	3ef9c603          	lbu	a2,1007(s3)
   1be3a:	3f09a403          	lw	s0,1008(s3)
   1be3e:	0522                	slli	a0,a0,0x8
   1be40:	8d4d                	or	a0,a0,a1
   1be42:	5ea11323          	sh	a0,1510(sp)
   1be46:	5ec10423          	sb	a2,1512(sp)
   1be4a:	6505                	lui	a0,0x1
   1be4c:	39450513          	addi	a0,a0,916 # 1394 <.Lline_table_start1+0x1169>
   1be50:	00a105b3          	add	a1,sp,a0
   1be54:	6505                	lui	a0,0x1
   1be56:	33050513          	addi	a0,a0,816 # 1330 <.Lline_table_start1+0x1105>
   1be5a:	950a                	add	a0,a0,sp
   1be5c:	04a00613          	li	a2,74
   1be60:	00002097          	auipc	ra,0x2
   1be64:	6b4080e7          	jalr	1716(ra) # 1e514 <memcpy>
   1be68:	01845513          	srli	a0,s0,0x18
   1be6c:	01045593          	srli	a1,s0,0x10
   1be70:	00845613          	srli	a2,s0,0x8
   1be74:	5e8104a3          	sb	s0,1513(sp)
   1be78:	5ec10523          	sb	a2,1514(sp)
   1be7c:	5eb105a3          	sb	a1,1515(sp)
   1be80:	5ea10623          	sb	a0,1516(sp)
   1be84:	5ed10513          	addi	a0,sp,1517
   1be88:	6585                	lui	a1,0x1
   1be8a:	33058593          	addi	a1,a1,816 # 1330 <.Lline_table_start1+0x1105>
   1be8e:	958a                	add	a1,a1,sp
   1be90:	04a00613          	li	a2,74
   1be94:	00002097          	auipc	ra,0x2
   1be98:	680080e7          	jalr	1664(ra) # 1e514 <memcpy>
   1be9c:	6505                	lui	a0,0x1
   1be9e:	38c50513          	addi	a0,a0,908 # 138c <.Lline_table_start1+0x1161>
   1bea2:	950a                	add	a0,a0,sp
   1bea4:	5e610593          	addi	a1,sp,1510
   1bea8:	ffffe097          	auipc	ra,0xffffe
   1beac:	c6e080e7          	jalr	-914(ra) # 19b16 <_ZN20complex_dynamic_type3app17hfa4826dc998d4462E>
   1beb0:	3ec9c503          	lbu	a0,1004(s3)
   1beb4:	c119                	beqz	a0,1beba <_start+0x209a>
   1beb6:	5540206f          	j	1e40a <_start+0x45ea>
   1beba:	3ee9c503          	lbu	a0,1006(s3)
   1bebe:	3ed9c583          	lbu	a1,1005(s3)
   1bec2:	3ef9c603          	lbu	a2,1007(s3)
   1bec6:	3f09a403          	lw	s0,1008(s3)
   1beca:	0522                	slli	a0,a0,0x8
   1becc:	8d4d                	or	a0,a0,a1
   1bece:	62a11c23          	sh	a0,1592(sp)
   1bed2:	62c10d23          	sb	a2,1594(sp)
   1bed6:	6505                	lui	a0,0x1
   1bed8:	39450513          	addi	a0,a0,916 # 1394 <.Lline_table_start1+0x1169>
   1bedc:	00a105b3          	add	a1,sp,a0
   1bee0:	6505                	lui	a0,0x1
   1bee2:	33050513          	addi	a0,a0,816 # 1330 <.Lline_table_start1+0x1105>
   1bee6:	950a                	add	a0,a0,sp
   1bee8:	04800613          	li	a2,72
   1beec:	00002097          	auipc	ra,0x2
   1bef0:	628080e7          	jalr	1576(ra) # 1e514 <memcpy>
   1bef4:	01845513          	srli	a0,s0,0x18
   1bef8:	01045593          	srli	a1,s0,0x10
   1befc:	00845613          	srli	a2,s0,0x8
   1bf00:	62810da3          	sb	s0,1595(sp)
   1bf04:	62c10e23          	sb	a2,1596(sp)
   1bf08:	62b10ea3          	sb	a1,1597(sp)
   1bf0c:	62a10f23          	sb	a0,1598(sp)
   1bf10:	63f10513          	addi	a0,sp,1599
   1bf14:	6585                	lui	a1,0x1
   1bf16:	33058593          	addi	a1,a1,816 # 1330 <.Lline_table_start1+0x1105>
   1bf1a:	958a                	add	a1,a1,sp
   1bf1c:	04800613          	li	a2,72
   1bf20:	00002097          	auipc	ra,0x2
   1bf24:	5f4080e7          	jalr	1524(ra) # 1e514 <memcpy>
   1bf28:	6505                	lui	a0,0x1
   1bf2a:	38c50513          	addi	a0,a0,908 # 138c <.Lline_table_start1+0x1161>
   1bf2e:	950a                	add	a0,a0,sp
   1bf30:	63810593          	addi	a1,sp,1592
   1bf34:	ffff8097          	auipc	ra,0xffff8
   1bf38:	f18080e7          	jalr	-232(ra) # 13e4c <_ZN20complex_dynamic_type3app17h581e8fc3be0e32bdE>
   1bf3c:	3ec9c503          	lbu	a0,1004(s3)
   1bf40:	c119                	beqz	a0,1bf46 <_start+0x2126>
   1bf42:	4c80206f          	j	1e40a <_start+0x45ea>
   1bf46:	3ee9c503          	lbu	a0,1006(s3)
   1bf4a:	3ed9c583          	lbu	a1,1005(s3)
   1bf4e:	3ef9c603          	lbu	a2,1007(s3)
   1bf52:	3f09a403          	lw	s0,1008(s3)
   1bf56:	0522                	slli	a0,a0,0x8
   1bf58:	8d4d                	or	a0,a0,a1
   1bf5a:	68a11423          	sh	a0,1672(sp)
   1bf5e:	68c10523          	sb	a2,1674(sp)
   1bf62:	6505                	lui	a0,0x1
   1bf64:	39450513          	addi	a0,a0,916 # 1394 <.Lline_table_start1+0x1169>
   1bf68:	00a105b3          	add	a1,sp,a0
   1bf6c:	6505                	lui	a0,0x1
   1bf6e:	33050513          	addi	a0,a0,816 # 1330 <.Lline_table_start1+0x1105>
   1bf72:	950a                	add	a0,a0,sp
   1bf74:	03400613          	li	a2,52
   1bf78:	00002097          	auipc	ra,0x2
   1bf7c:	59c080e7          	jalr	1436(ra) # 1e514 <memcpy>
   1bf80:	01845513          	srli	a0,s0,0x18
   1bf84:	01045593          	srli	a1,s0,0x10
   1bf88:	00845613          	srli	a2,s0,0x8
   1bf8c:	688105a3          	sb	s0,1675(sp)
   1bf90:	68c10623          	sb	a2,1676(sp)
   1bf94:	68b106a3          	sb	a1,1677(sp)
   1bf98:	68a10723          	sb	a0,1678(sp)
   1bf9c:	68f10513          	addi	a0,sp,1679
   1bfa0:	6585                	lui	a1,0x1
   1bfa2:	33058593          	addi	a1,a1,816 # 1330 <.Lline_table_start1+0x1105>
   1bfa6:	958a                	add	a1,a1,sp
   1bfa8:	03400613          	li	a2,52
   1bfac:	00002097          	auipc	ra,0x2
   1bfb0:	568080e7          	jalr	1384(ra) # 1e514 <memcpy>
   1bfb4:	6505                	lui	a0,0x1
   1bfb6:	38c50513          	addi	a0,a0,908 # 138c <.Lline_table_start1+0x1161>
   1bfba:	950a                	add	a0,a0,sp
   1bfbc:	68810593          	addi	a1,sp,1672
   1bfc0:	ffffe097          	auipc	ra,0xffffe
   1bfc4:	84a080e7          	jalr	-1974(ra) # 1980a <_ZN20complex_dynamic_type3app17hf89f02cc7ca275a2E>
   1bfc8:	3ec9c503          	lbu	a0,1004(s3)
   1bfcc:	c119                	beqz	a0,1bfd2 <_start+0x21b2>
   1bfce:	43c0206f          	j	1e40a <_start+0x45ea>
   1bfd2:	3ed9c503          	lbu	a0,1005(s3)
   1bfd6:	3ee9c583          	lbu	a1,1006(s3)
   1bfda:	3ef9c603          	lbu	a2,1007(s3)
   1bfde:	3f09a683          	lw	a3,1008(s3)
   1bfe2:	3f49a703          	lw	a4,1012(s3)
   1bfe6:	3f89a783          	lw	a5,1016(s3)
   1bfea:	3fc9a483          	lw	s1,1020(s3)
   1bfee:	4009a403          	lw	s0,1024(s3)
   1bff2:	38e9a823          	sw	a4,912(s3)
   1bff6:	38f9aa23          	sw	a5,916(s3)
   1bffa:	3899ac23          	sw	s1,920(s3)
   1bffe:	3889ae23          	sw	s0,924(s3)
   1c002:	4049a703          	lw	a4,1028(s3)
   1c006:	4089a783          	lw	a5,1032(s3)
   1c00a:	40c9a483          	lw	s1,1036(s3)
   1c00e:	4109a403          	lw	s0,1040(s3)
   1c012:	05a2                	slli	a1,a1,0x8
   1c014:	3ae9a023          	sw	a4,928(s3)
   1c018:	3af9a223          	sw	a5,932(s3)
   1c01c:	3a99a423          	sw	s1,936(s3)
   1c020:	3a89a623          	sw	s0,940(s3)
   1c024:	0186d713          	srli	a4,a3,0x18
   1c028:	8d4d                	or	a0,a0,a1
   1c02a:	0106d593          	srli	a1,a3,0x10
   1c02e:	6cb104a3          	sb	a1,1737(sp)
   1c032:	6ce10523          	sb	a4,1738(sp)
   1c036:	0086d593          	srli	a1,a3,0x8
   1c03a:	6ca11223          	sh	a0,1732(sp)
   1c03e:	6cc10323          	sb	a2,1734(sp)
   1c042:	6cd103a3          	sb	a3,1735(sp)
   1c046:	6cb10423          	sb	a1,1736(sp)
   1c04a:	6cb10513          	addi	a0,sp,1739
   1c04e:	6585                	lui	a1,0x1
   1c050:	33058593          	addi	a1,a1,816 # 1330 <.Lline_table_start1+0x1105>
   1c054:	958a                	add	a1,a1,sp
   1c056:	02000613          	li	a2,32
   1c05a:	00002097          	auipc	ra,0x2
   1c05e:	4ba080e7          	jalr	1210(ra) # 1e514 <memcpy>
   1c062:	6505                	lui	a0,0x1
   1c064:	38c50513          	addi	a0,a0,908 # 138c <.Lline_table_start1+0x1161>
   1c068:	950a                	add	a0,a0,sp
   1c06a:	6c410593          	addi	a1,sp,1732
   1c06e:	ffffa097          	auipc	ra,0xffffa
   1c072:	1d0080e7          	jalr	464(ra) # 1623e <_ZN20complex_dynamic_type3app17ha0ba74cd1a614251E>
   1c076:	3ec9c503          	lbu	a0,1004(s3)
   1c07a:	c119                	beqz	a0,1c080 <_start+0x2260>
   1c07c:	38e0206f          	j	1e40a <_start+0x45ea>
   1c080:	3ed9c503          	lbu	a0,1005(s3)
   1c084:	3ee9c583          	lbu	a1,1006(s3)
   1c088:	3ef9c603          	lbu	a2,1007(s3)
   1c08c:	3f09a683          	lw	a3,1008(s3)
   1c090:	3f49a703          	lw	a4,1012(s3)
   1c094:	3f89a783          	lw	a5,1016(s3)
   1c098:	3fc9a483          	lw	s1,1020(s3)
   1c09c:	4009c403          	lbu	s0,1024(s3)
   1c0a0:	05a2                	slli	a1,a1,0x8
   1c0a2:	38e9a823          	sw	a4,912(s3)
   1c0a6:	38f9aa23          	sw	a5,916(s3)
   1c0aa:	3899ac23          	sw	s1,920(s3)
   1c0ae:	38898e23          	sb	s0,924(s3)
   1c0b2:	0186d713          	srli	a4,a3,0x18
   1c0b6:	8d4d                	or	a0,a0,a1
   1c0b8:	0106d593          	srli	a1,a3,0x10
   1c0bc:	6eb108a3          	sb	a1,1777(sp)
   1c0c0:	6ee10923          	sb	a4,1778(sp)
   1c0c4:	0086d593          	srli	a1,a3,0x8
   1c0c8:	6ea11623          	sh	a0,1772(sp)
   1c0cc:	6ec10723          	sb	a2,1774(sp)
   1c0d0:	6ed107a3          	sb	a3,1775(sp)
   1c0d4:	6eb10823          	sb	a1,1776(sp)
   1c0d8:	6f310513          	addi	a0,sp,1779
   1c0dc:	6585                	lui	a1,0x1
   1c0de:	33058593          	addi	a1,a1,816 # 1330 <.Lline_table_start1+0x1105>
   1c0e2:	958a                	add	a1,a1,sp
   1c0e4:	4635                	li	a2,13
   1c0e6:	00002097          	auipc	ra,0x2
   1c0ea:	42e080e7          	jalr	1070(ra) # 1e514 <memcpy>
   1c0ee:	6505                	lui	a0,0x1
   1c0f0:	38c50513          	addi	a0,a0,908 # 138c <.Lline_table_start1+0x1161>
   1c0f4:	950a                	add	a0,a0,sp
   1c0f6:	6ec10593          	addi	a1,sp,1772
   1c0fa:	ffffa097          	auipc	ra,0xffffa
   1c0fe:	5c2080e7          	jalr	1474(ra) # 166bc <_ZN20complex_dynamic_type3app17ha22ff8487eabf2c1E>
   1c102:	3ec9c503          	lbu	a0,1004(s3)
   1c106:	c119                	beqz	a0,1c10c <_start+0x22ec>
   1c108:	3020206f          	j	1e40a <_start+0x45ea>
   1c10c:	3ee9c503          	lbu	a0,1006(s3)
   1c110:	3ed9c583          	lbu	a1,1005(s3)
   1c114:	3ef9c603          	lbu	a2,1007(s3)
   1c118:	3f09a403          	lw	s0,1008(s3)
   1c11c:	0522                	slli	a0,a0,0x8
   1c11e:	8d4d                	or	a0,a0,a1
   1c120:	70a11023          	sh	a0,1792(sp)
   1c124:	70c10123          	sb	a2,1794(sp)
   1c128:	6505                	lui	a0,0x1
   1c12a:	39450513          	addi	a0,a0,916 # 1394 <.Lline_table_start1+0x1169>
   1c12e:	00a105b3          	add	a1,sp,a0
   1c132:	6505                	lui	a0,0x1
   1c134:	33050513          	addi	a0,a0,816 # 1330 <.Lline_table_start1+0x1105>
   1c138:	950a                	add	a0,a0,sp
   1c13a:	02400613          	li	a2,36
   1c13e:	00002097          	auipc	ra,0x2
   1c142:	3d6080e7          	jalr	982(ra) # 1e514 <memcpy>
   1c146:	01845513          	srli	a0,s0,0x18
   1c14a:	01045593          	srli	a1,s0,0x10
   1c14e:	00845613          	srli	a2,s0,0x8
   1c152:	708101a3          	sb	s0,1795(sp)
   1c156:	70c10223          	sb	a2,1796(sp)
   1c15a:	70b102a3          	sb	a1,1797(sp)
   1c15e:	70a10323          	sb	a0,1798(sp)
   1c162:	70710513          	addi	a0,sp,1799
   1c166:	6585                	lui	a1,0x1
   1c168:	33058593          	addi	a1,a1,816 # 1330 <.Lline_table_start1+0x1105>
   1c16c:	958a                	add	a1,a1,sp
   1c16e:	02400613          	li	a2,36
   1c172:	00002097          	auipc	ra,0x2
   1c176:	3a2080e7          	jalr	930(ra) # 1e514 <memcpy>
   1c17a:	6505                	lui	a0,0x1
   1c17c:	38c50513          	addi	a0,a0,908 # 138c <.Lline_table_start1+0x1161>
   1c180:	950a                	add	a0,a0,sp
   1c182:	70010593          	addi	a1,sp,1792
   1c186:	ffffa097          	auipc	ra,0xffffa
   1c18a:	f4a080e7          	jalr	-182(ra) # 160d0 <_ZN20complex_dynamic_type3app17h973a697955f65159E>
   1c18e:	3ec9c503          	lbu	a0,1004(s3)
   1c192:	c119                	beqz	a0,1c198 <_start+0x2378>
   1c194:	2760206f          	j	1e40a <_start+0x45ea>
   1c198:	3ed9c503          	lbu	a0,1005(s3)
   1c19c:	3ee9c583          	lbu	a1,1006(s3)
   1c1a0:	3ef9c603          	lbu	a2,1007(s3)
   1c1a4:	3f09a683          	lw	a3,1008(s3)
   1c1a8:	3f49a703          	lw	a4,1012(s3)
   1c1ac:	3f89a783          	lw	a5,1016(s3)
   1c1b0:	3fc9a483          	lw	s1,1020(s3)
   1c1b4:	4009a403          	lw	s0,1024(s3)
   1c1b8:	38e9a823          	sw	a4,912(s3)
   1c1bc:	38f9aa23          	sw	a5,916(s3)
   1c1c0:	3899ac23          	sw	s1,920(s3)
   1c1c4:	3889ae23          	sw	s0,924(s3)
   1c1c8:	4049a703          	lw	a4,1028(s3)
   1c1cc:	40899783          	lh	a5,1032(s3)
   1c1d0:	40a9c483          	lbu	s1,1034(s3)
   1c1d4:	05a2                	slli	a1,a1,0x8
   1c1d6:	3ae9a023          	sw	a4,928(s3)
   1c1da:	3af99223          	sh	a5,932(s3)
   1c1de:	3a998323          	sb	s1,934(s3)
   1c1e2:	0186d713          	srli	a4,a3,0x18
   1c1e6:	8d4d                	or	a0,a0,a1
   1c1e8:	0106d593          	srli	a1,a3,0x10
   1c1ec:	72b108a3          	sb	a1,1841(sp)
   1c1f0:	72e10923          	sb	a4,1842(sp)
   1c1f4:	0086d593          	srli	a1,a3,0x8
   1c1f8:	72a11623          	sh	a0,1836(sp)
   1c1fc:	72c10723          	sb	a2,1838(sp)
   1c200:	72d107a3          	sb	a3,1839(sp)
   1c204:	72b10823          	sb	a1,1840(sp)
   1c208:	73310513          	addi	a0,sp,1843
   1c20c:	6585                	lui	a1,0x1
   1c20e:	33058593          	addi	a1,a1,816 # 1330 <.Lline_table_start1+0x1105>
   1c212:	958a                	add	a1,a1,sp
   1c214:	465d                	li	a2,23
   1c216:	00002097          	auipc	ra,0x2
   1c21a:	2fe080e7          	jalr	766(ra) # 1e514 <memcpy>
   1c21e:	6505                	lui	a0,0x1
   1c220:	38c50513          	addi	a0,a0,908 # 138c <.Lline_table_start1+0x1161>
   1c224:	950a                	add	a0,a0,sp
   1c226:	72c10593          	addi	a1,sp,1836
   1c22a:	ffff6097          	auipc	ra,0xffff6
   1c22e:	c88080e7          	jalr	-888(ra) # 11eb2 <_ZN20complex_dynamic_type3app17h1a9b43bde82d1cd7E>
   1c232:	3ec9c503          	lbu	a0,1004(s3)
   1c236:	c119                	beqz	a0,1c23c <_start+0x241c>
   1c238:	1d20206f          	j	1e40a <_start+0x45ea>
   1c23c:	3ee9c503          	lbu	a0,1006(s3)
   1c240:	3ed9c583          	lbu	a1,1005(s3)
   1c244:	3ef9c603          	lbu	a2,1007(s3)
   1c248:	3f09a403          	lw	s0,1008(s3)
   1c24c:	0522                	slli	a0,a0,0x8
   1c24e:	8d4d                	or	a0,a0,a1
   1c250:	74a11523          	sh	a0,1866(sp)
   1c254:	74c10623          	sb	a2,1868(sp)
   1c258:	6505                	lui	a0,0x1
   1c25a:	39450513          	addi	a0,a0,916 # 1394 <.Lline_table_start1+0x1169>
   1c25e:	00a105b3          	add	a1,sp,a0
   1c262:	6505                	lui	a0,0x1
   1c264:	33050513          	addi	a0,a0,816 # 1330 <.Lline_table_start1+0x1105>
   1c268:	950a                	add	a0,a0,sp
   1c26a:	04a00613          	li	a2,74
   1c26e:	00002097          	auipc	ra,0x2
   1c272:	2a6080e7          	jalr	678(ra) # 1e514 <memcpy>
   1c276:	01845513          	srli	a0,s0,0x18
   1c27a:	01045593          	srli	a1,s0,0x10
   1c27e:	00845613          	srli	a2,s0,0x8
   1c282:	748106a3          	sb	s0,1869(sp)
   1c286:	74c10723          	sb	a2,1870(sp)
   1c28a:	74b107a3          	sb	a1,1871(sp)
   1c28e:	74a10823          	sb	a0,1872(sp)
   1c292:	75110513          	addi	a0,sp,1873
   1c296:	6585                	lui	a1,0x1
   1c298:	33058593          	addi	a1,a1,816 # 1330 <.Lline_table_start1+0x1105>
   1c29c:	958a                	add	a1,a1,sp
   1c29e:	04a00613          	li	a2,74
   1c2a2:	00002097          	auipc	ra,0x2
   1c2a6:	272080e7          	jalr	626(ra) # 1e514 <memcpy>
   1c2aa:	6505                	lui	a0,0x1
   1c2ac:	38c50513          	addi	a0,a0,908 # 138c <.Lline_table_start1+0x1161>
   1c2b0:	950a                	add	a0,a0,sp
   1c2b2:	74a10593          	addi	a1,sp,1866
   1c2b6:	ffff8097          	auipc	ra,0xffff8
   1c2ba:	4aa080e7          	jalr	1194(ra) # 14760 <_ZN20complex_dynamic_type3app17h6a1f6147428e806fE>
   1c2be:	3ec9c503          	lbu	a0,1004(s3)
   1c2c2:	c119                	beqz	a0,1c2c8 <_start+0x24a8>
   1c2c4:	1460206f          	j	1e40a <_start+0x45ea>
   1c2c8:	79e10413          	addi	s0,sp,1950
   1c2cc:	3ed9c303          	lbu	t1,1005(s3)
   1c2d0:	3ee9c583          	lbu	a1,1006(s3)
   1c2d4:	3ef9c803          	lbu	a6,1007(s3)
   1c2d8:	3f09a683          	lw	a3,1008(s3)
   1c2dc:	3f49a703          	lw	a4,1012(s3)
   1c2e0:	3f89a783          	lw	a5,1016(s3)
   1c2e4:	05a2                	slli	a1,a1,0x8
   1c2e6:	0186d893          	srli	a7,a3,0x18
   1c2ea:	0106d293          	srli	t0,a3,0x10
   1c2ee:	0187d493          	srli	s1,a5,0x18
   1c2f2:	0107d613          	srli	a2,a5,0x10
   1c2f6:	0087d513          	srli	a0,a5,0x8
   1c2fa:	0065e333          	or	t1,a1,t1
   1c2fe:	01875593          	srli	a1,a4,0x18
   1c302:	00c405a3          	sb	a2,11(s0)
   1c306:	00940623          	sb	s1,12(s0)
   1c30a:	01075613          	srli	a2,a4,0x10
   1c30e:	00c403a3          	sb	a2,7(s0)
   1c312:	00b40423          	sb	a1,8(s0)
   1c316:	00f404a3          	sb	a5,9(s0)
   1c31a:	00a40523          	sb	a0,10(s0)
   1c31e:	0086d513          	srli	a0,a3,0x8
   1c322:	fe641f23          	sh	t1,-2(s0)
   1c326:	01040023          	sb	a6,0(s0)
   1c32a:	00d400a3          	sb	a3,1(s0)
   1c32e:	00a40123          	sb	a0,2(s0)
   1c332:	00875513          	srli	a0,a4,0x8
   1c336:	005401a3          	sb	t0,3(s0)
   1c33a:	01140223          	sb	a7,4(s0)
   1c33e:	00e402a3          	sb	a4,5(s0)
   1c342:	00a40323          	sb	a0,6(s0)
   1c346:	6505                	lui	a0,0x1
   1c348:	38c50513          	addi	a0,a0,908 # 138c <.Lline_table_start1+0x1161>
   1c34c:	950a                	add	a0,a0,sp
   1c34e:	79c10593          	addi	a1,sp,1948
   1c352:	ffffb097          	auipc	ra,0xffffb
   1c356:	6b6080e7          	jalr	1718(ra) # 17a08 <_ZN20complex_dynamic_type3app17hbf0e202c19d8d7b1E>
   1c35a:	3ec9c503          	lbu	a0,1004(s3)
   1c35e:	c119                	beqz	a0,1c364 <_start+0x2544>
   1c360:	0aa0206f          	j	1e40a <_start+0x45ea>
   1c364:	3ee9c503          	lbu	a0,1006(s3)
   1c368:	3ed9c583          	lbu	a1,1005(s3)
   1c36c:	3ef9c603          	lbu	a2,1007(s3)
   1c370:	3f09a483          	lw	s1,1008(s3)
   1c374:	0522                	slli	a0,a0,0x8
   1c376:	8d4d                	or	a0,a0,a1
   1c378:	00a41723          	sh	a0,14(s0)
   1c37c:	00c40823          	sb	a2,16(s0)
   1c380:	6505                	lui	a0,0x1
   1c382:	39450513          	addi	a0,a0,916 # 1394 <.Lline_table_start1+0x1169>
   1c386:	00a105b3          	add	a1,sp,a0
   1c38a:	6505                	lui	a0,0x1
   1c38c:	33050513          	addi	a0,a0,816 # 1330 <.Lline_table_start1+0x1105>
   1c390:	950a                	add	a0,a0,sp
   1c392:	03f00613          	li	a2,63
   1c396:	00002097          	auipc	ra,0x2
   1c39a:	17e080e7          	jalr	382(ra) # 1e514 <memcpy>
   1c39e:	0184d513          	srli	a0,s1,0x18
   1c3a2:	0104d593          	srli	a1,s1,0x10
   1c3a6:	0084d613          	srli	a2,s1,0x8
   1c3aa:	009408a3          	sb	s1,17(s0)
   1c3ae:	00c40923          	sb	a2,18(s0)
   1c3b2:	00b409a3          	sb	a1,19(s0)
   1c3b6:	00a40a23          	sb	a0,20(s0)
   1c3ba:	7b310513          	addi	a0,sp,1971
   1c3be:	6585                	lui	a1,0x1
   1c3c0:	33058593          	addi	a1,a1,816 # 1330 <.Lline_table_start1+0x1105>
   1c3c4:	958a                	add	a1,a1,sp
   1c3c6:	03f00613          	li	a2,63
   1c3ca:	00002097          	auipc	ra,0x2
   1c3ce:	14a080e7          	jalr	330(ra) # 1e514 <memcpy>
   1c3d2:	6505                	lui	a0,0x1
   1c3d4:	38c50513          	addi	a0,a0,908 # 138c <.Lline_table_start1+0x1161>
   1c3d8:	950a                	add	a0,a0,sp
   1c3da:	7ac10593          	addi	a1,sp,1964
   1c3de:	ffff8097          	auipc	ra,0xffff8
   1c3e2:	d76080e7          	jalr	-650(ra) # 14154 <_ZN20complex_dynamic_type3app17h631b8e38c99d86feE>
   1c3e6:	3ec9c503          	lbu	a0,1004(s3)
   1c3ea:	c119                	beqz	a0,1c3f0 <_start+0x25d0>
   1c3ec:	01e0206f          	j	1e40a <_start+0x45ea>
   1c3f0:	3ee9c503          	lbu	a0,1006(s3)
   1c3f4:	3ed9c583          	lbu	a1,1005(s3)
   1c3f8:	3ef9c603          	lbu	a2,1007(s3)
   1c3fc:	3f09a483          	lw	s1,1008(s3)
   1c400:	0522                	slli	a0,a0,0x8
   1c402:	8d4d                	or	a0,a0,a1
   1c404:	04a41a23          	sh	a0,84(s0)
   1c408:	04c40b23          	sb	a2,86(s0)
   1c40c:	6505                	lui	a0,0x1
   1c40e:	39450513          	addi	a0,a0,916 # 1394 <.Lline_table_start1+0x1169>
   1c412:	00a105b3          	add	a1,sp,a0
   1c416:	6505                	lui	a0,0x1
   1c418:	33050513          	addi	a0,a0,816 # 1330 <.Lline_table_start1+0x1105>
   1c41c:	950a                	add	a0,a0,sp
   1c41e:	04f00613          	li	a2,79
   1c422:	00002097          	auipc	ra,0x2
   1c426:	0f2080e7          	jalr	242(ra) # 1e514 <memcpy>
   1c42a:	0184d513          	srli	a0,s1,0x18
   1c42e:	0104d593          	srli	a1,s1,0x10
   1c432:	0084d613          	srli	a2,s1,0x8
   1c436:	04940ba3          	sb	s1,87(s0)
   1c43a:	04c40c23          	sb	a2,88(s0)
   1c43e:	04b40ca3          	sb	a1,89(s0)
   1c442:	04a40d23          	sb	a0,90(s0)
   1c446:	7f910513          	addi	a0,sp,2041
   1c44a:	6585                	lui	a1,0x1
   1c44c:	33058593          	addi	a1,a1,816 # 1330 <.Lline_table_start1+0x1105>
   1c450:	958a                	add	a1,a1,sp
   1c452:	04f00613          	li	a2,79
   1c456:	00002097          	auipc	ra,0x2
   1c45a:	0be080e7          	jalr	190(ra) # 1e514 <memcpy>
   1c45e:	6505                	lui	a0,0x1
   1c460:	38c50513          	addi	a0,a0,908 # 138c <.Lline_table_start1+0x1161>
   1c464:	950a                	add	a0,a0,sp
   1c466:	7f210593          	addi	a1,sp,2034
   1c46a:	ffffb097          	auipc	ra,0xffffb
   1c46e:	b32080e7          	jalr	-1230(ra) # 16f9c <_ZN20complex_dynamic_type3app17hae9f62c76944900bE>
   1c472:	3ec9c503          	lbu	a0,1004(s3)
   1c476:	c119                	beqz	a0,1c47c <_start+0x265c>
   1c478:	7930106f          	j	1e40a <_start+0x45ea>
   1c47c:	3ee9c503          	lbu	a0,1006(s3)
   1c480:	3ed9c583          	lbu	a1,1005(s3)
   1c484:	3ef9c603          	lbu	a2,1007(s3)
   1c488:	3f09a483          	lw	s1,1008(s3)
   1c48c:	0522                	slli	a0,a0,0x8
   1c48e:	8d4d                	or	a0,a0,a1
   1c490:	0aa41523          	sh	a0,170(s0)
   1c494:	0ac40623          	sb	a2,172(s0)
   1c498:	6505                	lui	a0,0x1
   1c49a:	39450513          	addi	a0,a0,916 # 1394 <.Lline_table_start1+0x1169>
   1c49e:	00a105b3          	add	a1,sp,a0
   1c4a2:	6505                	lui	a0,0x1
   1c4a4:	33050513          	addi	a0,a0,816 # 1330 <.Lline_table_start1+0x1105>
   1c4a8:	950a                	add	a0,a0,sp
   1c4aa:	04200613          	li	a2,66
   1c4ae:	00002097          	auipc	ra,0x2
   1c4b2:	066080e7          	jalr	102(ra) # 1e514 <memcpy>
   1c4b6:	0184d513          	srli	a0,s1,0x18
   1c4ba:	0104d593          	srli	a1,s1,0x10
   1c4be:	0084d613          	srli	a2,s1,0x8
   1c4c2:	0a9406a3          	sb	s1,173(s0)
   1c4c6:	0ac40723          	sb	a2,174(s0)
   1c4ca:	0ab407a3          	sb	a1,175(s0)
   1c4ce:	0aa40823          	sb	a0,176(s0)
   1c4d2:	7ff10513          	addi	a0,sp,2047
   1c4d6:	05050513          	addi	a0,a0,80
   1c4da:	6585                	lui	a1,0x1
   1c4dc:	33058593          	addi	a1,a1,816 # 1330 <.Lline_table_start1+0x1105>
   1c4e0:	958a                	add	a1,a1,sp
   1c4e2:	04200613          	li	a2,66
   1c4e6:	00002097          	auipc	ra,0x2
   1c4ea:	02e080e7          	jalr	46(ra) # 1e514 <memcpy>
   1c4ee:	6505                	lui	a0,0x1
   1c4f0:	38c50513          	addi	a0,a0,908 # 138c <.Lline_table_start1+0x1161>
   1c4f4:	950a                	add	a0,a0,sp
   1c4f6:	7ff10593          	addi	a1,sp,2047
   1c4fa:	04958593          	addi	a1,a1,73
   1c4fe:	ffff8097          	auipc	ra,0xffff8
   1c502:	0dc080e7          	jalr	220(ra) # 145da <_ZN20complex_dynamic_type3app17h6501c55718de8fbfE>
   1c506:	3ec9c503          	lbu	a0,1004(s3)
   1c50a:	c119                	beqz	a0,1c510 <_start+0x26f0>
   1c50c:	6ff0106f          	j	1e40a <_start+0x45ea>
   1c510:	3ed9c503          	lbu	a0,1005(s3)
   1c514:	3ee9c583          	lbu	a1,1006(s3)
   1c518:	3ef9c803          	lbu	a6,1007(s3)
   1c51c:	3f09a683          	lw	a3,1008(s3)
   1c520:	3f49a703          	lw	a4,1012(s3)
   1c524:	3f89a783          	lw	a5,1016(s3)
   1c528:	3fc9a483          	lw	s1,1020(s3)
   1c52c:	4009a603          	lw	a2,1024(s3)
   1c530:	38e9a823          	sw	a4,912(s3)
   1c534:	38f9aa23          	sw	a5,916(s3)
   1c538:	3899ac23          	sw	s1,920(s3)
   1c53c:	38c9ae23          	sw	a2,924(s3)
   1c540:	4049a603          	lw	a2,1028(s3)
   1c544:	4089a703          	lw	a4,1032(s3)
   1c548:	40c9a783          	lw	a5,1036(s3)
   1c54c:	05a2                	slli	a1,a1,0x8
   1c54e:	3ac9a023          	sw	a2,928(s3)
   1c552:	3ae9a223          	sw	a4,932(s3)
   1c556:	3af9a423          	sw	a5,936(s3)
   1c55a:	0186d613          	srli	a2,a3,0x18
   1c55e:	8d4d                	or	a0,a0,a1
   1c560:	0106d593          	srli	a1,a3,0x10
   1c564:	0eb40ca3          	sb	a1,249(s0)
   1c568:	0ec40d23          	sb	a2,250(s0)
   1c56c:	0086d593          	srli	a1,a3,0x8
   1c570:	0ea41a23          	sh	a0,244(s0)
   1c574:	0f040b23          	sb	a6,246(s0)
   1c578:	0ed40ba3          	sb	a3,247(s0)
   1c57c:	0eb40c23          	sb	a1,248(s0)
   1c580:	7ff10513          	addi	a0,sp,2047
   1c584:	09a50513          	addi	a0,a0,154
   1c588:	6585                	lui	a1,0x1
   1c58a:	33058593          	addi	a1,a1,816 # 1330 <.Lline_table_start1+0x1105>
   1c58e:	958a                	add	a1,a1,sp
   1c590:	4671                	li	a2,28
   1c592:	00002097          	auipc	ra,0x2
   1c596:	f82080e7          	jalr	-126(ra) # 1e514 <memcpy>
   1c59a:	6505                	lui	a0,0x1
   1c59c:	38c50513          	addi	a0,a0,908 # 138c <.Lline_table_start1+0x1161>
   1c5a0:	950a                	add	a0,a0,sp
   1c5a2:	7ff10593          	addi	a1,sp,2047
   1c5a6:	09358593          	addi	a1,a1,147
   1c5aa:	ffff9097          	auipc	ra,0xffff9
   1c5ae:	c3a080e7          	jalr	-966(ra) # 151e4 <_ZN20complex_dynamic_type3app17h7751f38c1fe6c522E>
   1c5b2:	3ec9c503          	lbu	a0,1004(s3)
   1c5b6:	c119                	beqz	a0,1c5bc <_start+0x279c>
   1c5b8:	6530106f          	j	1e40a <_start+0x45ea>
   1c5bc:	3ee9c503          	lbu	a0,1006(s3)
   1c5c0:	3ed9c583          	lbu	a1,1005(s3)
   1c5c4:	3ef9c603          	lbu	a2,1007(s3)
   1c5c8:	3f09a483          	lw	s1,1008(s3)
   1c5cc:	0522                	slli	a0,a0,0x8
   1c5ce:	8d4d                	or	a0,a0,a1
   1c5d0:	10a41c23          	sh	a0,280(s0)
   1c5d4:	10c40d23          	sb	a2,282(s0)
   1c5d8:	6505                	lui	a0,0x1
   1c5da:	39450513          	addi	a0,a0,916 # 1394 <.Lline_table_start1+0x1169>
   1c5de:	00a105b3          	add	a1,sp,a0
   1c5e2:	6505                	lui	a0,0x1
   1c5e4:	33050513          	addi	a0,a0,816 # 1330 <.Lline_table_start1+0x1105>
   1c5e8:	950a                	add	a0,a0,sp
   1c5ea:	02400613          	li	a2,36
   1c5ee:	00002097          	auipc	ra,0x2
   1c5f2:	f26080e7          	jalr	-218(ra) # 1e514 <memcpy>
   1c5f6:	0184d513          	srli	a0,s1,0x18
   1c5fa:	0104d593          	srli	a1,s1,0x10
   1c5fe:	0084d613          	srli	a2,s1,0x8
   1c602:	10940da3          	sb	s1,283(s0)
   1c606:	10c40e23          	sb	a2,284(s0)
   1c60a:	10b40ea3          	sb	a1,285(s0)
   1c60e:	10a40f23          	sb	a0,286(s0)
   1c612:	7ff10513          	addi	a0,sp,2047
   1c616:	0be50513          	addi	a0,a0,190
   1c61a:	6585                	lui	a1,0x1
   1c61c:	33058593          	addi	a1,a1,816 # 1330 <.Lline_table_start1+0x1105>
   1c620:	958a                	add	a1,a1,sp
   1c622:	02400613          	li	a2,36
   1c626:	00002097          	auipc	ra,0x2
   1c62a:	eee080e7          	jalr	-274(ra) # 1e514 <memcpy>
   1c62e:	6505                	lui	a0,0x1
   1c630:	38c50513          	addi	a0,a0,908 # 138c <.Lline_table_start1+0x1161>
   1c634:	950a                	add	a0,a0,sp
   1c636:	7ff10593          	addi	a1,sp,2047
   1c63a:	0b758593          	addi	a1,a1,183
   1c63e:	ffffc097          	auipc	ra,0xffffc
   1c642:	742080e7          	jalr	1858(ra) # 18d80 <_ZN20complex_dynamic_type3app17hdb7b2fd1a3a80052E>
   1c646:	3ec9c503          	lbu	a0,1004(s3)
   1c64a:	c119                	beqz	a0,1c650 <_start+0x2830>
   1c64c:	5bf0106f          	j	1e40a <_start+0x45ea>
   1c650:	3ed9c503          	lbu	a0,1005(s3)
   1c654:	3ee9c583          	lbu	a1,1006(s3)
   1c658:	3f49a603          	lw	a2,1012(s3)
   1c65c:	3f899683          	lh	a3,1016(s3)
   1c660:	3ef9c703          	lbu	a4,1007(s3)
   1c664:	3f09a783          	lw	a5,1008(s3)
   1c668:	05a2                	slli	a1,a1,0x8
   1c66a:	38c9a823          	sw	a2,912(s3)
   1c66e:	38d99a23          	sh	a3,916(s3)
   1c672:	0187d693          	srli	a3,a5,0x18
   1c676:	0107d493          	srli	s1,a5,0x10
   1c67a:	8d4d                	or	a0,a0,a1
   1c67c:	0087d593          	srli	a1,a5,0x8
   1c680:	14a41223          	sh	a0,324(s0)
   1c684:	14e40323          	sb	a4,326(s0)
   1c688:	14f403a3          	sb	a5,327(s0)
   1c68c:	14b40423          	sb	a1,328(s0)
   1c690:	3919c503          	lbu	a0,913(s3)
   1c694:	3929c583          	lbu	a1,914(s3)
   1c698:	3939c703          	lbu	a4,915(s3)
   1c69c:	3949c783          	lbu	a5,916(s3)
   1c6a0:	149404a3          	sb	s1,329(s0)
   1c6a4:	14d40523          	sb	a3,330(s0)
   1c6a8:	14c405a3          	sb	a2,331(s0)
   1c6ac:	14a40623          	sb	a0,332(s0)
   1c6b0:	3959c503          	lbu	a0,917(s3)
   1c6b4:	14b406a3          	sb	a1,333(s0)
   1c6b8:	14e40723          	sb	a4,334(s0)
   1c6bc:	14f407a3          	sb	a5,335(s0)
   1c6c0:	14a40823          	sb	a0,336(s0)
   1c6c4:	6505                	lui	a0,0x1
   1c6c6:	38c50513          	addi	a0,a0,908 # 138c <.Lline_table_start1+0x1161>
   1c6ca:	950a                	add	a0,a0,sp
   1c6cc:	7ff10593          	addi	a1,sp,2047
   1c6d0:	0e358593          	addi	a1,a1,227
   1c6d4:	ffffb097          	auipc	ra,0xffffb
   1c6d8:	61a080e7          	jalr	1562(ra) # 17cee <_ZN20complex_dynamic_type3app17hc4a02f984c93cc45E>
   1c6dc:	3ec9c503          	lbu	a0,1004(s3)
   1c6e0:	c119                	beqz	a0,1c6e6 <_start+0x28c6>
   1c6e2:	5290106f          	j	1e40a <_start+0x45ea>
   1c6e6:	3ed9c503          	lbu	a0,1005(s3)
   1c6ea:	3ee9c583          	lbu	a1,1006(s3)
   1c6ee:	3ef9c803          	lbu	a6,1007(s3)
   1c6f2:	3f09a683          	lw	a3,1008(s3)
   1c6f6:	3f49a703          	lw	a4,1012(s3)
   1c6fa:	3f89a783          	lw	a5,1016(s3)
   1c6fe:	3fc9a483          	lw	s1,1020(s3)
   1c702:	4009a603          	lw	a2,1024(s3)
   1c706:	38e9a823          	sw	a4,912(s3)
   1c70a:	38f9aa23          	sw	a5,916(s3)
   1c70e:	3899ac23          	sw	s1,920(s3)
   1c712:	38c9ae23          	sw	a2,924(s3)
   1c716:	4049a603          	lw	a2,1028(s3)
   1c71a:	4089a703          	lw	a4,1032(s3)
   1c71e:	40c99783          	lh	a5,1036(s3)
   1c722:	05a2                	slli	a1,a1,0x8
   1c724:	3ac9a023          	sw	a2,928(s3)
   1c728:	3ae9a223          	sw	a4,932(s3)
   1c72c:	3af99423          	sh	a5,936(s3)
   1c730:	0186d613          	srli	a2,a3,0x18
   1c734:	8d4d                	or	a0,a0,a1
   1c736:	0106d593          	srli	a1,a3,0x10
   1c73a:	14b40ba3          	sb	a1,343(s0)
   1c73e:	14c40c23          	sb	a2,344(s0)
   1c742:	0086d593          	srli	a1,a3,0x8
   1c746:	14a41923          	sh	a0,338(s0)
   1c74a:	15040a23          	sb	a6,340(s0)
   1c74e:	14d40aa3          	sb	a3,341(s0)
   1c752:	14b40b23          	sb	a1,342(s0)
   1c756:	7ff10513          	addi	a0,sp,2047
   1c75a:	0f850513          	addi	a0,a0,248
   1c75e:	6585                	lui	a1,0x1
   1c760:	33058593          	addi	a1,a1,816 # 1330 <.Lline_table_start1+0x1105>
   1c764:	958a                	add	a1,a1,sp
   1c766:	4669                	li	a2,26
   1c768:	00002097          	auipc	ra,0x2
   1c76c:	dac080e7          	jalr	-596(ra) # 1e514 <memcpy>
   1c770:	6505                	lui	a0,0x1
   1c772:	38c50513          	addi	a0,a0,908 # 138c <.Lline_table_start1+0x1161>
   1c776:	950a                	add	a0,a0,sp
   1c778:	7ff10593          	addi	a1,sp,2047
   1c77c:	0f158593          	addi	a1,a1,241
   1c780:	ffffb097          	auipc	ra,0xffffb
   1c784:	6f0080e7          	jalr	1776(ra) # 17e70 <_ZN20complex_dynamic_type3app17hc9fd19c8bb7c452fE>
   1c788:	3ec9c503          	lbu	a0,1004(s3)
   1c78c:	c119                	beqz	a0,1c792 <_start+0x2972>
   1c78e:	47d0106f          	j	1e40a <_start+0x45ea>
   1c792:	3ee9c503          	lbu	a0,1006(s3)
   1c796:	3ed9c583          	lbu	a1,1005(s3)
   1c79a:	3ef9c603          	lbu	a2,1007(s3)
   1c79e:	3f09a483          	lw	s1,1008(s3)
   1c7a2:	0522                	slli	a0,a0,0x8
   1c7a4:	8d4d                	or	a0,a0,a1
   1c7a6:	16a41a23          	sh	a0,372(s0)
   1c7aa:	16c40b23          	sb	a2,374(s0)
   1c7ae:	6505                	lui	a0,0x1
   1c7b0:	39450513          	addi	a0,a0,916 # 1394 <.Lline_table_start1+0x1169>
   1c7b4:	00a105b3          	add	a1,sp,a0
   1c7b8:	6505                	lui	a0,0x1
   1c7ba:	33050513          	addi	a0,a0,816 # 1330 <.Lline_table_start1+0x1105>
   1c7be:	950a                	add	a0,a0,sp
   1c7c0:	04c00613          	li	a2,76
   1c7c4:	00002097          	auipc	ra,0x2
   1c7c8:	d50080e7          	jalr	-688(ra) # 1e514 <memcpy>
   1c7cc:	0184d513          	srli	a0,s1,0x18
   1c7d0:	0104d593          	srli	a1,s1,0x10
   1c7d4:	0084d613          	srli	a2,s1,0x8
   1c7d8:	16940ba3          	sb	s1,375(s0)
   1c7dc:	16c40c23          	sb	a2,376(s0)
   1c7e0:	16b40ca3          	sb	a1,377(s0)
   1c7e4:	16a40d23          	sb	a0,378(s0)
   1c7e8:	7ff10513          	addi	a0,sp,2047
   1c7ec:	11a50513          	addi	a0,a0,282
   1c7f0:	6585                	lui	a1,0x1
   1c7f2:	33058593          	addi	a1,a1,816 # 1330 <.Lline_table_start1+0x1105>
   1c7f6:	958a                	add	a1,a1,sp
   1c7f8:	04c00613          	li	a2,76
   1c7fc:	00002097          	auipc	ra,0x2
   1c800:	d18080e7          	jalr	-744(ra) # 1e514 <memcpy>
   1c804:	6505                	lui	a0,0x1
   1c806:	38c50513          	addi	a0,a0,908 # 138c <.Lline_table_start1+0x1161>
   1c80a:	950a                	add	a0,a0,sp
   1c80c:	7ff10593          	addi	a1,sp,2047
   1c810:	11358593          	addi	a1,a1,275
   1c814:	ffff6097          	auipc	ra,0xffff6
   1c818:	81e080e7          	jalr	-2018(ra) # 12032 <_ZN20complex_dynamic_type3app17h1e5c922d98ad53ebE>
   1c81c:	3ec9c503          	lbu	a0,1004(s3)
   1c820:	c119                	beqz	a0,1c826 <_start+0x2a06>
   1c822:	3e90106f          	j	1e40a <_start+0x45ea>
   1c826:	3ee9c503          	lbu	a0,1006(s3)
   1c82a:	3ed9c583          	lbu	a1,1005(s3)
   1c82e:	3ef9c603          	lbu	a2,1007(s3)
   1c832:	3f09a483          	lw	s1,1008(s3)
   1c836:	0522                	slli	a0,a0,0x8
   1c838:	8d4d                	or	a0,a0,a1
   1c83a:	1ca41423          	sh	a0,456(s0)
   1c83e:	1cc40523          	sb	a2,458(s0)
   1c842:	6505                	lui	a0,0x1
   1c844:	39450513          	addi	a0,a0,916 # 1394 <.Lline_table_start1+0x1169>
   1c848:	00a105b3          	add	a1,sp,a0
   1c84c:	6505                	lui	a0,0x1
   1c84e:	33050513          	addi	a0,a0,816 # 1330 <.Lline_table_start1+0x1105>
   1c852:	950a                	add	a0,a0,sp
   1c854:	04600613          	li	a2,70
   1c858:	00002097          	auipc	ra,0x2
   1c85c:	cbc080e7          	jalr	-836(ra) # 1e514 <memcpy>
   1c860:	0184d513          	srli	a0,s1,0x18
   1c864:	0104d593          	srli	a1,s1,0x10
   1c868:	0084d613          	srli	a2,s1,0x8
   1c86c:	1c9405a3          	sb	s1,459(s0)
   1c870:	1cc40623          	sb	a2,460(s0)
   1c874:	1cb406a3          	sb	a1,461(s0)
   1c878:	1ca40723          	sb	a0,462(s0)
   1c87c:	7ff10513          	addi	a0,sp,2047
   1c880:	16e50513          	addi	a0,a0,366
   1c884:	6585                	lui	a1,0x1
   1c886:	33058593          	addi	a1,a1,816 # 1330 <.Lline_table_start1+0x1105>
   1c88a:	958a                	add	a1,a1,sp
   1c88c:	04600613          	li	a2,70
   1c890:	00002097          	auipc	ra,0x2
   1c894:	c84080e7          	jalr	-892(ra) # 1e514 <memcpy>
   1c898:	6505                	lui	a0,0x1
   1c89a:	38c50513          	addi	a0,a0,908 # 138c <.Lline_table_start1+0x1161>
   1c89e:	950a                	add	a0,a0,sp
   1c8a0:	7ff10593          	addi	a1,sp,2047
   1c8a4:	16758593          	addi	a1,a1,359
   1c8a8:	ffffa097          	auipc	ra,0xffffa
   1c8ac:	b12080e7          	jalr	-1262(ra) # 163ba <_ZN20complex_dynamic_type3app17ha0dae70fb104ad26E>
   1c8b0:	3ec9c503          	lbu	a0,1004(s3)
   1c8b4:	c119                	beqz	a0,1c8ba <_start+0x2a9a>
   1c8b6:	3550106f          	j	1e40a <_start+0x45ea>
   1c8ba:	3ee9c503          	lbu	a0,1006(s3)
   1c8be:	3ed9c583          	lbu	a1,1005(s3)
   1c8c2:	3ef9c603          	lbu	a2,1007(s3)
   1c8c6:	3f09a483          	lw	s1,1008(s3)
   1c8ca:	0522                	slli	a0,a0,0x8
   1c8cc:	8d4d                	or	a0,a0,a1
   1c8ce:	20a41b23          	sh	a0,534(s0)
   1c8d2:	20c40c23          	sb	a2,536(s0)
   1c8d6:	6505                	lui	a0,0x1
   1c8d8:	39450513          	addi	a0,a0,916 # 1394 <.Lline_table_start1+0x1169>
   1c8dc:	00a105b3          	add	a1,sp,a0
   1c8e0:	6505                	lui	a0,0x1
   1c8e2:	33050513          	addi	a0,a0,816 # 1330 <.Lline_table_start1+0x1105>
   1c8e6:	950a                	add	a0,a0,sp
   1c8e8:	03500613          	li	a2,53
   1c8ec:	00002097          	auipc	ra,0x2
   1c8f0:	c28080e7          	jalr	-984(ra) # 1e514 <memcpy>
   1c8f4:	0184d513          	srli	a0,s1,0x18
   1c8f8:	0104d593          	srli	a1,s1,0x10
   1c8fc:	0084d613          	srli	a2,s1,0x8
   1c900:	20940ca3          	sb	s1,537(s0)
   1c904:	20c40d23          	sb	a2,538(s0)
   1c908:	20b40da3          	sb	a1,539(s0)
   1c90c:	20a40e23          	sb	a0,540(s0)
   1c910:	7ff10513          	addi	a0,sp,2047
   1c914:	1bc50513          	addi	a0,a0,444
   1c918:	6585                	lui	a1,0x1
   1c91a:	33058593          	addi	a1,a1,816 # 1330 <.Lline_table_start1+0x1105>
   1c91e:	958a                	add	a1,a1,sp
   1c920:	03500613          	li	a2,53
   1c924:	00002097          	auipc	ra,0x2
   1c928:	bf0080e7          	jalr	-1040(ra) # 1e514 <memcpy>
   1c92c:	6505                	lui	a0,0x1
   1c92e:	38c50513          	addi	a0,a0,908 # 138c <.Lline_table_start1+0x1161>
   1c932:	950a                	add	a0,a0,sp
   1c934:	7ff10593          	addi	a1,sp,2047
   1c938:	1b558593          	addi	a1,a1,437
   1c93c:	ffff5097          	auipc	ra,0xffff5
   1c940:	0f6080e7          	jalr	246(ra) # 11a32 <_ZN20complex_dynamic_type3app17h111df9715f1363b1E>
   1c944:	3ec9c503          	lbu	a0,1004(s3)
   1c948:	c119                	beqz	a0,1c94e <_start+0x2b2e>
   1c94a:	2c10106f          	j	1e40a <_start+0x45ea>
   1c94e:	3ee9c503          	lbu	a0,1006(s3)
   1c952:	3ed9c583          	lbu	a1,1005(s3)
   1c956:	3ef9c603          	lbu	a2,1007(s3)
   1c95a:	3f09a483          	lw	s1,1008(s3)
   1c95e:	0522                	slli	a0,a0,0x8
   1c960:	8d4d                	or	a0,a0,a1
   1c962:	24a41923          	sh	a0,594(s0)
   1c966:	24c40a23          	sb	a2,596(s0)
   1c96a:	6505                	lui	a0,0x1
   1c96c:	39450513          	addi	a0,a0,916 # 1394 <.Lline_table_start1+0x1169>
   1c970:	00a105b3          	add	a1,sp,a0
   1c974:	6505                	lui	a0,0x1
   1c976:	33050513          	addi	a0,a0,816 # 1330 <.Lline_table_start1+0x1105>
   1c97a:	950a                	add	a0,a0,sp
   1c97c:	03100613          	li	a2,49
   1c980:	00002097          	auipc	ra,0x2
   1c984:	b94080e7          	jalr	-1132(ra) # 1e514 <memcpy>
   1c988:	0184d513          	srli	a0,s1,0x18
   1c98c:	0104d593          	srli	a1,s1,0x10
   1c990:	0084d613          	srli	a2,s1,0x8
   1c994:	24940aa3          	sb	s1,597(s0)
   1c998:	24c40b23          	sb	a2,598(s0)
   1c99c:	24b40ba3          	sb	a1,599(s0)
   1c9a0:	24a40c23          	sb	a0,600(s0)
   1c9a4:	7ff10513          	addi	a0,sp,2047
   1c9a8:	1f850513          	addi	a0,a0,504
   1c9ac:	6585                	lui	a1,0x1
   1c9ae:	33058593          	addi	a1,a1,816 # 1330 <.Lline_table_start1+0x1105>
   1c9b2:	958a                	add	a1,a1,sp
   1c9b4:	03100613          	li	a2,49
   1c9b8:	00002097          	auipc	ra,0x2
   1c9bc:	b5c080e7          	jalr	-1188(ra) # 1e514 <memcpy>
   1c9c0:	6505                	lui	a0,0x1
   1c9c2:	38c50513          	addi	a0,a0,908 # 138c <.Lline_table_start1+0x1161>
   1c9c6:	950a                	add	a0,a0,sp
   1c9c8:	7ff10593          	addi	a1,sp,2047
   1c9cc:	1f158593          	addi	a1,a1,497
   1c9d0:	ffff9097          	auipc	ra,0xffff9
   1c9d4:	c94080e7          	jalr	-876(ra) # 15664 <_ZN20complex_dynamic_type3app17h7aaf6972d2771ffbE>
   1c9d8:	3ec9c503          	lbu	a0,1004(s3)
   1c9dc:	c119                	beqz	a0,1c9e2 <_start+0x2bc2>
   1c9de:	22d0106f          	j	1e40a <_start+0x45ea>
   1c9e2:	3ed9c503          	lbu	a0,1005(s3)
   1c9e6:	3ee9c583          	lbu	a1,1006(s3)
   1c9ea:	3ef9c803          	lbu	a6,1007(s3)
   1c9ee:	3f09a683          	lw	a3,1008(s3)
   1c9f2:	3f49a703          	lw	a4,1012(s3)
   1c9f6:	3f89a783          	lw	a5,1016(s3)
   1c9fa:	3fc9a483          	lw	s1,1020(s3)
   1c9fe:	4009a603          	lw	a2,1024(s3)
   1ca02:	38e9a823          	sw	a4,912(s3)
   1ca06:	38f9aa23          	sw	a5,916(s3)
   1ca0a:	3899ac23          	sw	s1,920(s3)
   1ca0e:	38c9ae23          	sw	a2,924(s3)
   1ca12:	4049a603          	lw	a2,1028(s3)
   1ca16:	4089a703          	lw	a4,1032(s3)
   1ca1a:	40c9a783          	lw	a5,1036(s3)
   1ca1e:	4109a483          	lw	s1,1040(s3)
   1ca22:	05a2                	slli	a1,a1,0x8
   1ca24:	3ac9a023          	sw	a2,928(s3)
   1ca28:	3ae9a223          	sw	a4,932(s3)
   1ca2c:	3af9a423          	sw	a5,936(s3)
   1ca30:	3a99a623          	sw	s1,940(s3)
   1ca34:	0186d613          	srli	a2,a3,0x18
   1ca38:	8d4d                	or	a0,a0,a1
   1ca3a:	0106d593          	srli	a1,a3,0x10
   1ca3e:	28b407a3          	sb	a1,655(s0)
   1ca42:	28c40823          	sb	a2,656(s0)
   1ca46:	0086d593          	srli	a1,a3,0x8
   1ca4a:	28a41523          	sh	a0,650(s0)
   1ca4e:	29040623          	sb	a6,652(s0)
   1ca52:	28d406a3          	sb	a3,653(s0)
   1ca56:	28b40723          	sb	a1,654(s0)
   1ca5a:	7ff10513          	addi	a0,sp,2047
   1ca5e:	23050513          	addi	a0,a0,560
   1ca62:	6585                	lui	a1,0x1
   1ca64:	33058593          	addi	a1,a1,816 # 1330 <.Lline_table_start1+0x1105>
   1ca68:	958a                	add	a1,a1,sp
   1ca6a:	02000613          	li	a2,32
   1ca6e:	00002097          	auipc	ra,0x2
   1ca72:	aa6080e7          	jalr	-1370(ra) # 1e514 <memcpy>
   1ca76:	6505                	lui	a0,0x1
   1ca78:	38c50513          	addi	a0,a0,908 # 138c <.Lline_table_start1+0x1161>
   1ca7c:	950a                	add	a0,a0,sp
   1ca7e:	7ff10593          	addi	a1,sp,2047
   1ca82:	22958593          	addi	a1,a1,553
   1ca86:	ffff5097          	auipc	ra,0xffff5
   1ca8a:	e26080e7          	jalr	-474(ra) # 118ac <_ZN20complex_dynamic_type3app17h1079c09aa0aa8c84E>
   1ca8e:	3ec9c503          	lbu	a0,1004(s3)
   1ca92:	c119                	beqz	a0,1ca98 <_start+0x2c78>
   1ca94:	1770106f          	j	1e40a <_start+0x45ea>
   1ca98:	3ee9c503          	lbu	a0,1006(s3)
   1ca9c:	3ed9c583          	lbu	a1,1005(s3)
   1caa0:	3ef9c603          	lbu	a2,1007(s3)
   1caa4:	3f09a483          	lw	s1,1008(s3)
   1caa8:	0522                	slli	a0,a0,0x8
   1caaa:	8d4d                	or	a0,a0,a1
   1caac:	2aa41923          	sh	a0,690(s0)
   1cab0:	2ac40a23          	sb	a2,692(s0)
   1cab4:	6505                	lui	a0,0x1
   1cab6:	39450513          	addi	a0,a0,916 # 1394 <.Lline_table_start1+0x1169>
   1caba:	00a105b3          	add	a1,sp,a0
   1cabe:	6505                	lui	a0,0x1
   1cac0:	33050513          	addi	a0,a0,816 # 1330 <.Lline_table_start1+0x1105>
   1cac4:	950a                	add	a0,a0,sp
   1cac6:	04a00613          	li	a2,74
   1caca:	00002097          	auipc	ra,0x2
   1cace:	a4a080e7          	jalr	-1462(ra) # 1e514 <memcpy>
   1cad2:	0184d513          	srli	a0,s1,0x18
   1cad6:	0104d593          	srli	a1,s1,0x10
   1cada:	0084d613          	srli	a2,s1,0x8
   1cade:	2a940aa3          	sb	s1,693(s0)
   1cae2:	2ac40b23          	sb	a2,694(s0)
   1cae6:	2ab40ba3          	sb	a1,695(s0)
   1caea:	2aa40c23          	sb	a0,696(s0)
   1caee:	7ff10513          	addi	a0,sp,2047
   1caf2:	25850513          	addi	a0,a0,600
   1caf6:	6585                	lui	a1,0x1
   1caf8:	33058593          	addi	a1,a1,816 # 1330 <.Lline_table_start1+0x1105>
   1cafc:	958a                	add	a1,a1,sp
   1cafe:	04a00613          	li	a2,74
   1cb02:	00002097          	auipc	ra,0x2
   1cb06:	a12080e7          	jalr	-1518(ra) # 1e514 <memcpy>
   1cb0a:	6505                	lui	a0,0x1
   1cb0c:	38c50513          	addi	a0,a0,908 # 138c <.Lline_table_start1+0x1161>
   1cb10:	950a                	add	a0,a0,sp
   1cb12:	7ff10593          	addi	a1,sp,2047
   1cb16:	25158593          	addi	a1,a1,593
   1cb1a:	ffff6097          	auipc	ra,0xffff6
   1cb1e:	e10080e7          	jalr	-496(ra) # 1292a <_ZN20complex_dynamic_type3app17h33fdf4206c26978bE>
   1cb22:	3ec9c503          	lbu	a0,1004(s3)
   1cb26:	c119                	beqz	a0,1cb2c <_start+0x2d0c>
   1cb28:	0e30106f          	j	1e40a <_start+0x45ea>
   1cb2c:	3ee9c503          	lbu	a0,1006(s3)
   1cb30:	3ed9c583          	lbu	a1,1005(s3)
   1cb34:	3ef9c603          	lbu	a2,1007(s3)
   1cb38:	3f09a483          	lw	s1,1008(s3)
   1cb3c:	0522                	slli	a0,a0,0x8
   1cb3e:	8d4d                	or	a0,a0,a1
   1cb40:	30a41223          	sh	a0,772(s0)
   1cb44:	30c40323          	sb	a2,774(s0)
   1cb48:	6505                	lui	a0,0x1
   1cb4a:	39450513          	addi	a0,a0,916 # 1394 <.Lline_table_start1+0x1169>
   1cb4e:	00a105b3          	add	a1,sp,a0
   1cb52:	6505                	lui	a0,0x1
   1cb54:	33050513          	addi	a0,a0,816 # 1330 <.Lline_table_start1+0x1105>
   1cb58:	950a                	add	a0,a0,sp
   1cb5a:	04800613          	li	a2,72
   1cb5e:	00002097          	auipc	ra,0x2
   1cb62:	9b6080e7          	jalr	-1610(ra) # 1e514 <memcpy>
   1cb66:	0184d513          	srli	a0,s1,0x18
   1cb6a:	0104d593          	srli	a1,s1,0x10
   1cb6e:	0084d613          	srli	a2,s1,0x8
   1cb72:	309403a3          	sb	s1,775(s0)
   1cb76:	30c40423          	sb	a2,776(s0)
   1cb7a:	30b404a3          	sb	a1,777(s0)
   1cb7e:	30a40523          	sb	a0,778(s0)
   1cb82:	7ff10513          	addi	a0,sp,2047
   1cb86:	2aa50513          	addi	a0,a0,682
   1cb8a:	6585                	lui	a1,0x1
   1cb8c:	33058593          	addi	a1,a1,816 # 1330 <.Lline_table_start1+0x1105>
   1cb90:	958a                	add	a1,a1,sp
   1cb92:	04800613          	li	a2,72
   1cb96:	00002097          	auipc	ra,0x2
   1cb9a:	97e080e7          	jalr	-1666(ra) # 1e514 <memcpy>
   1cb9e:	6505                	lui	a0,0x1
   1cba0:	38c50513          	addi	a0,a0,908 # 138c <.Lline_table_start1+0x1161>
   1cba4:	950a                	add	a0,a0,sp
   1cba6:	7ff10593          	addi	a1,sp,2047
   1cbaa:	2a358593          	addi	a1,a1,675
   1cbae:	ffffa097          	auipc	ra,0xffffa
   1cbb2:	278080e7          	jalr	632(ra) # 16e26 <_ZN20complex_dynamic_type3app17had988e6d148fe6feE>
   1cbb6:	3ec9c503          	lbu	a0,1004(s3)
   1cbba:	c119                	beqz	a0,1cbc0 <_start+0x2da0>
   1cbbc:	04f0106f          	j	1e40a <_start+0x45ea>
   1cbc0:	3ee9c503          	lbu	a0,1006(s3)
   1cbc4:	3ed9c583          	lbu	a1,1005(s3)
   1cbc8:	3ef9c603          	lbu	a2,1007(s3)
   1cbcc:	3f09a483          	lw	s1,1008(s3)
   1cbd0:	0522                	slli	a0,a0,0x8
   1cbd2:	8d4d                	or	a0,a0,a1
   1cbd4:	34a41a23          	sh	a0,852(s0)
   1cbd8:	34c40b23          	sb	a2,854(s0)
   1cbdc:	6505                	lui	a0,0x1
   1cbde:	39450513          	addi	a0,a0,916 # 1394 <.Lline_table_start1+0x1169>
   1cbe2:	00a105b3          	add	a1,sp,a0
   1cbe6:	6505                	lui	a0,0x1
   1cbe8:	33050513          	addi	a0,a0,816 # 1330 <.Lline_table_start1+0x1105>
   1cbec:	950a                	add	a0,a0,sp
   1cbee:	05a00613          	li	a2,90
   1cbf2:	00002097          	auipc	ra,0x2
   1cbf6:	922080e7          	jalr	-1758(ra) # 1e514 <memcpy>
   1cbfa:	0184d513          	srli	a0,s1,0x18
   1cbfe:	0104d593          	srli	a1,s1,0x10
   1cc02:	0084d613          	srli	a2,s1,0x8
   1cc06:	34940ba3          	sb	s1,855(s0)
   1cc0a:	34c40c23          	sb	a2,856(s0)
   1cc0e:	34b40ca3          	sb	a1,857(s0)
   1cc12:	34a40d23          	sb	a0,858(s0)
   1cc16:	7ff10513          	addi	a0,sp,2047
   1cc1a:	2fa50513          	addi	a0,a0,762
   1cc1e:	6585                	lui	a1,0x1
   1cc20:	33058593          	addi	a1,a1,816 # 1330 <.Lline_table_start1+0x1105>
   1cc24:	958a                	add	a1,a1,sp
   1cc26:	05a00613          	li	a2,90
   1cc2a:	00002097          	auipc	ra,0x2
   1cc2e:	8ea080e7          	jalr	-1814(ra) # 1e514 <memcpy>
   1cc32:	6505                	lui	a0,0x1
   1cc34:	38c50513          	addi	a0,a0,908 # 138c <.Lline_table_start1+0x1161>
   1cc38:	950a                	add	a0,a0,sp
   1cc3a:	7ff10593          	addi	a1,sp,2047
   1cc3e:	2f358593          	addi	a1,a1,755
   1cc42:	ffffa097          	auipc	ra,0xffffa
   1cc46:	078080e7          	jalr	120(ra) # 16cba <_ZN20complex_dynamic_type3app17hab05b484d57519e1E>
   1cc4a:	3ec9c503          	lbu	a0,1004(s3)
   1cc4e:	c119                	beqz	a0,1cc54 <_start+0x2e34>
   1cc50:	7ba0106f          	j	1e40a <_start+0x45ea>
   1cc54:	3ed9c503          	lbu	a0,1005(s3)
   1cc58:	3ee9c583          	lbu	a1,1006(s3)
   1cc5c:	3ef9c803          	lbu	a6,1007(s3)
   1cc60:	3f09a683          	lw	a3,1008(s3)
   1cc64:	3f49a703          	lw	a4,1012(s3)
   1cc68:	3f89a783          	lw	a5,1016(s3)
   1cc6c:	3fc9a483          	lw	s1,1020(s3)
   1cc70:	4009a603          	lw	a2,1024(s3)
   1cc74:	38e9a823          	sw	a4,912(s3)
   1cc78:	38f9aa23          	sw	a5,916(s3)
   1cc7c:	3899ac23          	sw	s1,920(s3)
   1cc80:	38c9ae23          	sw	a2,924(s3)
   1cc84:	4049a603          	lw	a2,1028(s3)
   1cc88:	40899703          	lh	a4,1032(s3)
   1cc8c:	40a9c783          	lbu	a5,1034(s3)
   1cc90:	05a2                	slli	a1,a1,0x8
   1cc92:	3ac9a023          	sw	a2,928(s3)
   1cc96:	3ae99223          	sh	a4,932(s3)
   1cc9a:	3af98323          	sb	a5,934(s3)
   1cc9e:	0186d613          	srli	a2,a3,0x18
   1cca2:	8d4d                	or	a0,a0,a1
   1cca4:	0106d593          	srli	a1,a3,0x10
   1cca8:	3ab40da3          	sb	a1,955(s0)
   1ccac:	3ac40e23          	sb	a2,956(s0)
   1ccb0:	0086d593          	srli	a1,a3,0x8
   1ccb4:	3aa41b23          	sh	a0,950(s0)
   1ccb8:	3b040c23          	sb	a6,952(s0)
   1ccbc:	3ad40ca3          	sb	a3,953(s0)
   1ccc0:	3ab40d23          	sb	a1,954(s0)
   1ccc4:	7ff10513          	addi	a0,sp,2047
   1ccc8:	35c50513          	addi	a0,a0,860
   1cccc:	6585                	lui	a1,0x1
   1ccce:	33058593          	addi	a1,a1,816 # 1330 <.Lline_table_start1+0x1105>
   1ccd2:	958a                	add	a1,a1,sp
   1ccd4:	465d                	li	a2,23
   1ccd6:	00002097          	auipc	ra,0x2
   1ccda:	83e080e7          	jalr	-1986(ra) # 1e514 <memcpy>
   1ccde:	6505                	lui	a0,0x1
   1cce0:	38c50513          	addi	a0,a0,908 # 138c <.Lline_table_start1+0x1161>
   1cce4:	950a                	add	a0,a0,sp
   1cce6:	7ff10593          	addi	a1,sp,2047
   1ccea:	35558593          	addi	a1,a1,853
   1ccee:	ffffb097          	auipc	ra,0xffffb
   1ccf2:	a28080e7          	jalr	-1496(ra) # 17716 <_ZN20complex_dynamic_type3app17hbe01e31ea27314f8E>
   1ccf6:	3ec9c503          	lbu	a0,1004(s3)
   1ccfa:	c119                	beqz	a0,1cd00 <_start+0x2ee0>
   1ccfc:	70e0106f          	j	1e40a <_start+0x45ea>
   1cd00:	3ed9c503          	lbu	a0,1005(s3)
   1cd04:	3ee9c583          	lbu	a1,1006(s3)
   1cd08:	3ef9c803          	lbu	a6,1007(s3)
   1cd0c:	3f09a683          	lw	a3,1008(s3)
   1cd10:	3f49a703          	lw	a4,1012(s3)
   1cd14:	3f89a783          	lw	a5,1016(s3)
   1cd18:	3fc9a483          	lw	s1,1020(s3)
   1cd1c:	4009a603          	lw	a2,1024(s3)
   1cd20:	38e9a823          	sw	a4,912(s3)
   1cd24:	38f9aa23          	sw	a5,916(s3)
   1cd28:	3899ac23          	sw	s1,920(s3)
   1cd2c:	38c9ae23          	sw	a2,924(s3)
   1cd30:	4049a603          	lw	a2,1028(s3)
   1cd34:	4089a703          	lw	a4,1032(s3)
   1cd38:	40c99783          	lh	a5,1036(s3)
   1cd3c:	05a2                	slli	a1,a1,0x8
   1cd3e:	3ac9a023          	sw	a2,928(s3)
   1cd42:	3ae9a223          	sw	a4,932(s3)
   1cd46:	3af99423          	sh	a5,936(s3)
   1cd4a:	0186d613          	srli	a2,a3,0x18
   1cd4e:	8d4d                	or	a0,a0,a1
   1cd50:	0106d593          	srli	a1,a3,0x10
   1cd54:	3cb40ca3          	sb	a1,985(s0)
   1cd58:	3cc40d23          	sb	a2,986(s0)
   1cd5c:	0086d593          	srli	a1,a3,0x8
   1cd60:	3ca41a23          	sh	a0,980(s0)
   1cd64:	3d040b23          	sb	a6,982(s0)
   1cd68:	3cd40ba3          	sb	a3,983(s0)
   1cd6c:	3cb40c23          	sb	a1,984(s0)
   1cd70:	7ff10513          	addi	a0,sp,2047
   1cd74:	37a50513          	addi	a0,a0,890
   1cd78:	6585                	lui	a1,0x1
   1cd7a:	33058593          	addi	a1,a1,816 # 1330 <.Lline_table_start1+0x1105>
   1cd7e:	958a                	add	a1,a1,sp
   1cd80:	4669                	li	a2,26
   1cd82:	00001097          	auipc	ra,0x1
   1cd86:	792080e7          	jalr	1938(ra) # 1e514 <memcpy>
   1cd8a:	6505                	lui	a0,0x1
   1cd8c:	38c50513          	addi	a0,a0,908 # 138c <.Lline_table_start1+0x1161>
   1cd90:	950a                	add	a0,a0,sp
   1cd92:	7ff10593          	addi	a1,sp,2047
   1cd96:	37358593          	addi	a1,a1,883
   1cd9a:	ffffb097          	auipc	ra,0xffffb
   1cd9e:	54c080e7          	jalr	1356(ra) # 182e6 <_ZN20complex_dynamic_type3app17hcd4c911a661d50b9E>
   1cda2:	3ec9c503          	lbu	a0,1004(s3)
   1cda6:	c119                	beqz	a0,1cdac <_start+0x2f8c>
   1cda8:	6620106f          	j	1e40a <_start+0x45ea>
   1cdac:	3ee9c503          	lbu	a0,1006(s3)
   1cdb0:	3ed9c583          	lbu	a1,1005(s3)
   1cdb4:	3ef9c603          	lbu	a2,1007(s3)
   1cdb8:	3f09a483          	lw	s1,1008(s3)
   1cdbc:	0522                	slli	a0,a0,0x8
   1cdbe:	8d4d                	or	a0,a0,a1
   1cdc0:	3ea41b23          	sh	a0,1014(s0)
   1cdc4:	3ec40c23          	sb	a2,1016(s0)
   1cdc8:	6505                	lui	a0,0x1
   1cdca:	39450513          	addi	a0,a0,916 # 1394 <.Lline_table_start1+0x1169>
   1cdce:	00a105b3          	add	a1,sp,a0
   1cdd2:	6505                	lui	a0,0x1
   1cdd4:	33050513          	addi	a0,a0,816 # 1330 <.Lline_table_start1+0x1105>
   1cdd8:	950a                	add	a0,a0,sp
   1cdda:	02300613          	li	a2,35
   1cdde:	00001097          	auipc	ra,0x1
   1cde2:	736080e7          	jalr	1846(ra) # 1e514 <memcpy>
   1cde6:	0184d513          	srli	a0,s1,0x18
   1cdea:	0104d593          	srli	a1,s1,0x10
   1cdee:	0084d613          	srli	a2,s1,0x8
   1cdf2:	3e940ca3          	sb	s1,1017(s0)
   1cdf6:	3ec40d23          	sb	a2,1018(s0)
   1cdfa:	3eb40da3          	sb	a1,1019(s0)
   1cdfe:	3ea40e23          	sb	a0,1020(s0)
   1ce02:	7ff10513          	addi	a0,sp,2047
   1ce06:	39c50513          	addi	a0,a0,924
   1ce0a:	6585                	lui	a1,0x1
   1ce0c:	33058593          	addi	a1,a1,816 # 1330 <.Lline_table_start1+0x1105>
   1ce10:	958a                	add	a1,a1,sp
   1ce12:	02300613          	li	a2,35
   1ce16:	00001097          	auipc	ra,0x1
   1ce1a:	6fe080e7          	jalr	1790(ra) # 1e514 <memcpy>
   1ce1e:	6505                	lui	a0,0x1
   1ce20:	38c50513          	addi	a0,a0,908 # 138c <.Lline_table_start1+0x1161>
   1ce24:	950a                	add	a0,a0,sp
   1ce26:	7ff10593          	addi	a1,sp,2047
   1ce2a:	39558593          	addi	a1,a1,917
   1ce2e:	ffffd097          	auipc	ra,0xffffd
   1ce32:	858080e7          	jalr	-1960(ra) # 19686 <_ZN20complex_dynamic_type3app17hecb839c6a7495336E>
   1ce36:	3ec9c503          	lbu	a0,1004(s3)
   1ce3a:	c119                	beqz	a0,1ce40 <_start+0x3020>
   1ce3c:	5ce0106f          	j	1e40a <_start+0x45ea>
   1ce40:	3ee9c503          	lbu	a0,1006(s3)
   1ce44:	3ed9c583          	lbu	a1,1005(s3)
   1ce48:	3ef9c603          	lbu	a2,1007(s3)
   1ce4c:	3f09a483          	lw	s1,1008(s3)
   1ce50:	0522                	slli	a0,a0,0x8
   1ce52:	8d4d                	or	a0,a0,a1
   1ce54:	42a41023          	sh	a0,1056(s0)
   1ce58:	42c40123          	sb	a2,1058(s0)
   1ce5c:	6505                	lui	a0,0x1
   1ce5e:	39450513          	addi	a0,a0,916 # 1394 <.Lline_table_start1+0x1169>
   1ce62:	00a105b3          	add	a1,sp,a0
   1ce66:	6505                	lui	a0,0x1
   1ce68:	33050513          	addi	a0,a0,816 # 1330 <.Lline_table_start1+0x1105>
   1ce6c:	950a                	add	a0,a0,sp
   1ce6e:	05200613          	li	a2,82
   1ce72:	00001097          	auipc	ra,0x1
   1ce76:	6a2080e7          	jalr	1698(ra) # 1e514 <memcpy>
   1ce7a:	0184d513          	srli	a0,s1,0x18
   1ce7e:	0104d593          	srli	a1,s1,0x10
   1ce82:	0084d613          	srli	a2,s1,0x8
   1ce86:	429401a3          	sb	s1,1059(s0)
   1ce8a:	42c40223          	sb	a2,1060(s0)
   1ce8e:	42b402a3          	sb	a1,1061(s0)
   1ce92:	42a40323          	sb	a0,1062(s0)
   1ce96:	7ff10513          	addi	a0,sp,2047
   1ce9a:	3c650513          	addi	a0,a0,966
   1ce9e:	6585                	lui	a1,0x1
   1cea0:	33058593          	addi	a1,a1,816 # 1330 <.Lline_table_start1+0x1105>
   1cea4:	958a                	add	a1,a1,sp
   1cea6:	05200613          	li	a2,82
   1ceaa:	00001097          	auipc	ra,0x1
   1ceae:	66a080e7          	jalr	1642(ra) # 1e514 <memcpy>
   1ceb2:	6505                	lui	a0,0x1
   1ceb4:	38c50513          	addi	a0,a0,908 # 138c <.Lline_table_start1+0x1161>
   1ceb8:	950a                	add	a0,a0,sp
   1ceba:	7ff10593          	addi	a1,sp,2047
   1cebe:	3bf58593          	addi	a1,a1,959
   1cec2:	ffff5097          	auipc	ra,0xffff5
   1cec6:	e6c080e7          	jalr	-404(ra) # 11d2e <_ZN20complex_dynamic_type3app17h183446b5f1dfd418E>
   1ceca:	3ec9c503          	lbu	a0,1004(s3)
   1cece:	c119                	beqz	a0,1ced4 <_start+0x30b4>
   1ced0:	53a0106f          	j	1e40a <_start+0x45ea>
   1ced4:	3ee9c503          	lbu	a0,1006(s3)
   1ced8:	3ed9c583          	lbu	a1,1005(s3)
   1cedc:	3ef9c603          	lbu	a2,1007(s3)
   1cee0:	3f09a483          	lw	s1,1008(s3)
   1cee4:	0522                	slli	a0,a0,0x8
   1cee6:	8d4d                	or	a0,a0,a1
   1cee8:	46a41d23          	sh	a0,1146(s0)
   1ceec:	46c40e23          	sb	a2,1148(s0)
   1cef0:	6505                	lui	a0,0x1
   1cef2:	39450513          	addi	a0,a0,916 # 1394 <.Lline_table_start1+0x1169>
   1cef6:	00a105b3          	add	a1,sp,a0
   1cefa:	6505                	lui	a0,0x1
   1cefc:	33050513          	addi	a0,a0,816 # 1330 <.Lline_table_start1+0x1105>
   1cf00:	950a                	add	a0,a0,sp
   1cf02:	04300613          	li	a2,67
   1cf06:	00001097          	auipc	ra,0x1
   1cf0a:	60e080e7          	jalr	1550(ra) # 1e514 <memcpy>
   1cf0e:	0184d513          	srli	a0,s1,0x18
   1cf12:	0104d593          	srli	a1,s1,0x10
   1cf16:	0084d613          	srli	a2,s1,0x8
   1cf1a:	46940ea3          	sb	s1,1149(s0)
   1cf1e:	46c40f23          	sb	a2,1150(s0)
   1cf22:	46b40fa3          	sb	a1,1151(s0)
   1cf26:	48a40023          	sb	a0,1152(s0)
   1cf2a:	7ff10513          	addi	a0,sp,2047
   1cf2e:	42050513          	addi	a0,a0,1056
   1cf32:	6585                	lui	a1,0x1
   1cf34:	33058593          	addi	a1,a1,816 # 1330 <.Lline_table_start1+0x1105>
   1cf38:	958a                	add	a1,a1,sp
   1cf3a:	04300613          	li	a2,67
   1cf3e:	00001097          	auipc	ra,0x1
   1cf42:	5d6080e7          	jalr	1494(ra) # 1e514 <memcpy>
   1cf46:	6505                	lui	a0,0x1
   1cf48:	38c50513          	addi	a0,a0,908 # 138c <.Lline_table_start1+0x1161>
   1cf4c:	950a                	add	a0,a0,sp
   1cf4e:	7ff10593          	addi	a1,sp,2047
   1cf52:	41958593          	addi	a1,a1,1049
   1cf56:	ffffd097          	auipc	ra,0xffffd
   1cf5a:	d46080e7          	jalr	-698(ra) # 19c9c <_ZN20complex_dynamic_type3app17hfe0f6912851dbea1E>
   1cf5e:	3ec9c503          	lbu	a0,1004(s3)
   1cf62:	c119                	beqz	a0,1cf68 <_start+0x3148>
   1cf64:	4a60106f          	j	1e40a <_start+0x45ea>
   1cf68:	3ee9c503          	lbu	a0,1006(s3)
   1cf6c:	3ed9c583          	lbu	a1,1005(s3)
   1cf70:	3ef9c603          	lbu	a2,1007(s3)
   1cf74:	3f09a483          	lw	s1,1008(s3)
   1cf78:	0522                	slli	a0,a0,0x8
   1cf7a:	8d4d                	or	a0,a0,a1
   1cf7c:	4ca41223          	sh	a0,1220(s0)
   1cf80:	4cc40323          	sb	a2,1222(s0)
   1cf84:	6505                	lui	a0,0x1
   1cf86:	39450513          	addi	a0,a0,916 # 1394 <.Lline_table_start1+0x1169>
   1cf8a:	00a105b3          	add	a1,sp,a0
   1cf8e:	6505                	lui	a0,0x1
   1cf90:	33050513          	addi	a0,a0,816 # 1330 <.Lline_table_start1+0x1105>
   1cf94:	950a                	add	a0,a0,sp
   1cf96:	02600613          	li	a2,38
   1cf9a:	00001097          	auipc	ra,0x1
   1cf9e:	57a080e7          	jalr	1402(ra) # 1e514 <memcpy>
   1cfa2:	0184d513          	srli	a0,s1,0x18
   1cfa6:	0104d593          	srli	a1,s1,0x10
   1cfaa:	0084d613          	srli	a2,s1,0x8
   1cfae:	4c9403a3          	sb	s1,1223(s0)
   1cfb2:	4cc40423          	sb	a2,1224(s0)
   1cfb6:	4cb404a3          	sb	a1,1225(s0)
   1cfba:	4ca40523          	sb	a0,1226(s0)
   1cfbe:	7ff10513          	addi	a0,sp,2047
   1cfc2:	46a50513          	addi	a0,a0,1130
   1cfc6:	6585                	lui	a1,0x1
   1cfc8:	33058593          	addi	a1,a1,816 # 1330 <.Lline_table_start1+0x1105>
   1cfcc:	958a                	add	a1,a1,sp
   1cfce:	02600613          	li	a2,38
   1cfd2:	00001097          	auipc	ra,0x1
   1cfd6:	542080e7          	jalr	1346(ra) # 1e514 <memcpy>
   1cfda:	6505                	lui	a0,0x1
   1cfdc:	38c50513          	addi	a0,a0,908 # 138c <.Lline_table_start1+0x1161>
   1cfe0:	950a                	add	a0,a0,sp
   1cfe2:	7ff10593          	addi	a1,sp,2047
   1cfe6:	46358593          	addi	a1,a1,1123
   1cfea:	ffff6097          	auipc	ra,0xffff6
   1cfee:	258080e7          	jalr	600(ra) # 13242 <_ZN20complex_dynamic_type3app17h44fdd28cd55d8cecE>
   1cff2:	3ec9c503          	lbu	a0,1004(s3)
   1cff6:	c119                	beqz	a0,1cffc <_start+0x31dc>
   1cff8:	4120106f          	j	1e40a <_start+0x45ea>
   1cffc:	3ee9c503          	lbu	a0,1006(s3)
   1d000:	3ed9c583          	lbu	a1,1005(s3)
   1d004:	3ef9c603          	lbu	a2,1007(s3)
   1d008:	3f09a483          	lw	s1,1008(s3)
   1d00c:	0522                	slli	a0,a0,0x8
   1d00e:	8d4d                	or	a0,a0,a1
   1d010:	4ea41923          	sh	a0,1266(s0)
   1d014:	4ec40a23          	sb	a2,1268(s0)
   1d018:	6505                	lui	a0,0x1
   1d01a:	39450513          	addi	a0,a0,916 # 1394 <.Lline_table_start1+0x1169>
   1d01e:	00a105b3          	add	a1,sp,a0
   1d022:	6505                	lui	a0,0x1
   1d024:	33050513          	addi	a0,a0,816 # 1330 <.Lline_table_start1+0x1105>
   1d028:	950a                	add	a0,a0,sp
   1d02a:	04c00613          	li	a2,76
   1d02e:	00001097          	auipc	ra,0x1
   1d032:	4e6080e7          	jalr	1254(ra) # 1e514 <memcpy>
   1d036:	0184d513          	srli	a0,s1,0x18
   1d03a:	0104d593          	srli	a1,s1,0x10
   1d03e:	0084d613          	srli	a2,s1,0x8
   1d042:	4e940aa3          	sb	s1,1269(s0)
   1d046:	4ec40b23          	sb	a2,1270(s0)
   1d04a:	4eb40ba3          	sb	a1,1271(s0)
   1d04e:	4ea40c23          	sb	a0,1272(s0)
   1d052:	7ff10513          	addi	a0,sp,2047
   1d056:	49850513          	addi	a0,a0,1176
   1d05a:	6585                	lui	a1,0x1
   1d05c:	33058593          	addi	a1,a1,816 # 1330 <.Lline_table_start1+0x1105>
   1d060:	958a                	add	a1,a1,sp
   1d062:	04c00613          	li	a2,76
   1d066:	00001097          	auipc	ra,0x1
   1d06a:	4ae080e7          	jalr	1198(ra) # 1e514 <memcpy>
   1d06e:	6505                	lui	a0,0x1
   1d070:	38c50513          	addi	a0,a0,908 # 138c <.Lline_table_start1+0x1161>
   1d074:	950a                	add	a0,a0,sp
   1d076:	7ff10593          	addi	a1,sp,2047
   1d07a:	49158593          	addi	a1,a1,1169
   1d07e:	ffff9097          	auipc	ra,0xffff9
   1d082:	7be080e7          	jalr	1982(ra) # 1683c <_ZN20complex_dynamic_type3app17ha345b70cbb93470bE>
   1d086:	3ec9c503          	lbu	a0,1004(s3)
   1d08a:	c119                	beqz	a0,1d090 <_start+0x3270>
   1d08c:	37e0106f          	j	1e40a <_start+0x45ea>
   1d090:	3ee9c503          	lbu	a0,1006(s3)
   1d094:	3ed9c583          	lbu	a1,1005(s3)
   1d098:	3ef9c603          	lbu	a2,1007(s3)
   1d09c:	3f09a483          	lw	s1,1008(s3)
   1d0a0:	0522                	slli	a0,a0,0x8
   1d0a2:	8d4d                	or	a0,a0,a1
   1d0a4:	54a41323          	sh	a0,1350(s0)
   1d0a8:	54c40423          	sb	a2,1352(s0)
   1d0ac:	6505                	lui	a0,0x1
   1d0ae:	39450513          	addi	a0,a0,916 # 1394 <.Lline_table_start1+0x1169>
   1d0b2:	00a105b3          	add	a1,sp,a0
   1d0b6:	6505                	lui	a0,0x1
   1d0b8:	33050513          	addi	a0,a0,816 # 1330 <.Lline_table_start1+0x1105>
   1d0bc:	950a                	add	a0,a0,sp
   1d0be:	03300613          	li	a2,51
   1d0c2:	00001097          	auipc	ra,0x1
   1d0c6:	452080e7          	jalr	1106(ra) # 1e514 <memcpy>
   1d0ca:	0184d513          	srli	a0,s1,0x18
   1d0ce:	0104d593          	srli	a1,s1,0x10
   1d0d2:	0084d613          	srli	a2,s1,0x8
   1d0d6:	549404a3          	sb	s1,1353(s0)
   1d0da:	54c40523          	sb	a2,1354(s0)
   1d0de:	54b405a3          	sb	a1,1355(s0)
   1d0e2:	54a40623          	sb	a0,1356(s0)
   1d0e6:	7ff10513          	addi	a0,sp,2047
   1d0ea:	4ec50513          	addi	a0,a0,1260
   1d0ee:	6585                	lui	a1,0x1
   1d0f0:	33058593          	addi	a1,a1,816 # 1330 <.Lline_table_start1+0x1105>
   1d0f4:	958a                	add	a1,a1,sp
   1d0f6:	03300613          	li	a2,51
   1d0fa:	00001097          	auipc	ra,0x1
   1d0fe:	41a080e7          	jalr	1050(ra) # 1e514 <memcpy>
   1d102:	6505                	lui	a0,0x1
   1d104:	38c50513          	addi	a0,a0,908 # 138c <.Lline_table_start1+0x1161>
   1d108:	950a                	add	a0,a0,sp
   1d10a:	7ff10593          	addi	a1,sp,2047
   1d10e:	4e558593          	addi	a1,a1,1253
   1d112:	ffff4097          	auipc	ra,0xffff4
   1d116:	022080e7          	jalr	34(ra) # 11134 <_ZN20complex_dynamic_type3app17h000fac6651aa16b6E>
   1d11a:	3ec9c503          	lbu	a0,1004(s3)
   1d11e:	c119                	beqz	a0,1d124 <_start+0x3304>
   1d120:	2ea0106f          	j	1e40a <_start+0x45ea>
   1d124:	3ee9c503          	lbu	a0,1006(s3)
   1d128:	3ed9c583          	lbu	a1,1005(s3)
   1d12c:	3ef9c603          	lbu	a2,1007(s3)
   1d130:	3f09a483          	lw	s1,1008(s3)
   1d134:	0522                	slli	a0,a0,0x8
   1d136:	8d4d                	or	a0,a0,a1
   1d138:	58a41023          	sh	a0,1408(s0)
   1d13c:	58c40123          	sb	a2,1410(s0)
   1d140:	6505                	lui	a0,0x1
   1d142:	39450513          	addi	a0,a0,916 # 1394 <.Lline_table_start1+0x1169>
   1d146:	00a105b3          	add	a1,sp,a0
   1d14a:	6505                	lui	a0,0x1
   1d14c:	33050513          	addi	a0,a0,816 # 1330 <.Lline_table_start1+0x1105>
   1d150:	950a                	add	a0,a0,sp
   1d152:	05600613          	li	a2,86
   1d156:	00001097          	auipc	ra,0x1
   1d15a:	3be080e7          	jalr	958(ra) # 1e514 <memcpy>
   1d15e:	0184d513          	srli	a0,s1,0x18
   1d162:	0104d593          	srli	a1,s1,0x10
   1d166:	0084d613          	srli	a2,s1,0x8
   1d16a:	589401a3          	sb	s1,1411(s0)
   1d16e:	58c40223          	sb	a2,1412(s0)
   1d172:	58b402a3          	sb	a1,1413(s0)
   1d176:	58a40323          	sb	a0,1414(s0)
   1d17a:	7ff10513          	addi	a0,sp,2047
   1d17e:	52650513          	addi	a0,a0,1318
   1d182:	6585                	lui	a1,0x1
   1d184:	33058593          	addi	a1,a1,816 # 1330 <.Lline_table_start1+0x1105>
   1d188:	958a                	add	a1,a1,sp
   1d18a:	05600613          	li	a2,86
   1d18e:	00001097          	auipc	ra,0x1
   1d192:	386080e7          	jalr	902(ra) # 1e514 <memcpy>
   1d196:	6505                	lui	a0,0x1
   1d198:	38c50513          	addi	a0,a0,908 # 138c <.Lline_table_start1+0x1161>
   1d19c:	950a                	add	a0,a0,sp
   1d19e:	7ff10593          	addi	a1,sp,2047
   1d1a2:	51f58593          	addi	a1,a1,1311
   1d1a6:	ffffb097          	auipc	ra,0xffffb
   1d1aa:	750080e7          	jalr	1872(ra) # 188f6 <_ZN20complex_dynamic_type3app17hd2a0eea8f0919b92E>
   1d1ae:	3ec9c503          	lbu	a0,1004(s3)
   1d1b2:	c119                	beqz	a0,1d1b8 <_start+0x3398>
   1d1b4:	2560106f          	j	1e40a <_start+0x45ea>
   1d1b8:	3ee9c503          	lbu	a0,1006(s3)
   1d1bc:	3ed9c583          	lbu	a1,1005(s3)
   1d1c0:	3ef9c603          	lbu	a2,1007(s3)
   1d1c4:	3f09a483          	lw	s1,1008(s3)
   1d1c8:	0522                	slli	a0,a0,0x8
   1d1ca:	8d4d                	or	a0,a0,a1
   1d1cc:	5ca41f23          	sh	a0,1502(s0)
   1d1d0:	5ec40023          	sb	a2,1504(s0)
   1d1d4:	6505                	lui	a0,0x1
   1d1d6:	39450513          	addi	a0,a0,916 # 1394 <.Lline_table_start1+0x1169>
   1d1da:	00a105b3          	add	a1,sp,a0
   1d1de:	6505                	lui	a0,0x1
   1d1e0:	33050513          	addi	a0,a0,816 # 1330 <.Lline_table_start1+0x1105>
   1d1e4:	950a                	add	a0,a0,sp
   1d1e6:	03900613          	li	a2,57
   1d1ea:	00001097          	auipc	ra,0x1
   1d1ee:	32a080e7          	jalr	810(ra) # 1e514 <memcpy>
   1d1f2:	0184d513          	srli	a0,s1,0x18
   1d1f6:	0104d593          	srli	a1,s1,0x10
   1d1fa:	0084d613          	srli	a2,s1,0x8
   1d1fe:	5e9400a3          	sb	s1,1505(s0)
   1d202:	5ec40123          	sb	a2,1506(s0)
   1d206:	5eb401a3          	sb	a1,1507(s0)
   1d20a:	5ea40223          	sb	a0,1508(s0)
   1d20e:	7ff10513          	addi	a0,sp,2047
   1d212:	58450513          	addi	a0,a0,1412
   1d216:	6585                	lui	a1,0x1
   1d218:	33058593          	addi	a1,a1,816 # 1330 <.Lline_table_start1+0x1105>
   1d21c:	958a                	add	a1,a1,sp
   1d21e:	03900613          	li	a2,57
   1d222:	00001097          	auipc	ra,0x1
   1d226:	2f2080e7          	jalr	754(ra) # 1e514 <memcpy>
   1d22a:	6505                	lui	a0,0x1
   1d22c:	38c50513          	addi	a0,a0,908 # 138c <.Lline_table_start1+0x1161>
   1d230:	950a                	add	a0,a0,sp
   1d232:	7ff10593          	addi	a1,sp,2047
   1d236:	57d58593          	addi	a1,a1,1405
   1d23a:	ffffb097          	auipc	ra,0xffffb
   1d23e:	536080e7          	jalr	1334(ra) # 18770 <_ZN20complex_dynamic_type3app17hd18f5c64f97ec030E>
   1d242:	3ec9c503          	lbu	a0,1004(s3)
   1d246:	c119                	beqz	a0,1d24c <_start+0x342c>
   1d248:	1c20106f          	j	1e40a <_start+0x45ea>
   1d24c:	3ee9c503          	lbu	a0,1006(s3)
   1d250:	3ed9c583          	lbu	a1,1005(s3)
   1d254:	3ef9c603          	lbu	a2,1007(s3)
   1d258:	3f09a483          	lw	s1,1008(s3)
   1d25c:	0522                	slli	a0,a0,0x8
   1d25e:	8d4d                	or	a0,a0,a1
   1d260:	60a41f23          	sh	a0,1566(s0)
   1d264:	62c40023          	sb	a2,1568(s0)
   1d268:	6505                	lui	a0,0x1
   1d26a:	39450513          	addi	a0,a0,916 # 1394 <.Lline_table_start1+0x1169>
   1d26e:	00a105b3          	add	a1,sp,a0
   1d272:	6505                	lui	a0,0x1
   1d274:	33050513          	addi	a0,a0,816 # 1330 <.Lline_table_start1+0x1105>
   1d278:	950a                	add	a0,a0,sp
   1d27a:	02a00613          	li	a2,42
   1d27e:	00001097          	auipc	ra,0x1
   1d282:	296080e7          	jalr	662(ra) # 1e514 <memcpy>
   1d286:	0184d513          	srli	a0,s1,0x18
   1d28a:	0104d593          	srli	a1,s1,0x10
   1d28e:	0084d613          	srli	a2,s1,0x8
   1d292:	629400a3          	sb	s1,1569(s0)
   1d296:	62c40123          	sb	a2,1570(s0)
   1d29a:	62b401a3          	sb	a1,1571(s0)
   1d29e:	62a40223          	sb	a0,1572(s0)
   1d2a2:	7ff10513          	addi	a0,sp,2047
   1d2a6:	5c450513          	addi	a0,a0,1476
   1d2aa:	6585                	lui	a1,0x1
   1d2ac:	33058593          	addi	a1,a1,816 # 1330 <.Lline_table_start1+0x1105>
   1d2b0:	958a                	add	a1,a1,sp
   1d2b2:	02a00613          	li	a2,42
   1d2b6:	00001097          	auipc	ra,0x1
   1d2ba:	25e080e7          	jalr	606(ra) # 1e514 <memcpy>
   1d2be:	6505                	lui	a0,0x1
   1d2c0:	38c50513          	addi	a0,a0,908 # 138c <.Lline_table_start1+0x1161>
   1d2c4:	950a                	add	a0,a0,sp
   1d2c6:	7ff10593          	addi	a1,sp,2047
   1d2ca:	5bd58593          	addi	a1,a1,1469
   1d2ce:	ffff8097          	auipc	ra,0xffff8
   1d2d2:	210080e7          	jalr	528(ra) # 154de <_ZN20complex_dynamic_type3app17h7a7524171868f636E>
   1d2d6:	3ec9c503          	lbu	a0,1004(s3)
   1d2da:	c119                	beqz	a0,1d2e0 <_start+0x34c0>
   1d2dc:	12e0106f          	j	1e40a <_start+0x45ea>
   1d2e0:	3ee9c503          	lbu	a0,1006(s3)
   1d2e4:	3ed9c583          	lbu	a1,1005(s3)
   1d2e8:	3ef9c603          	lbu	a2,1007(s3)
   1d2ec:	3f09a483          	lw	s1,1008(s3)
   1d2f0:	0522                	slli	a0,a0,0x8
   1d2f2:	8d4d                	or	a0,a0,a1
   1d2f4:	64a41823          	sh	a0,1616(s0)
   1d2f8:	64c40923          	sb	a2,1618(s0)
   1d2fc:	6505                	lui	a0,0x1
   1d2fe:	39450513          	addi	a0,a0,916 # 1394 <.Lline_table_start1+0x1169>
   1d302:	00a105b3          	add	a1,sp,a0
   1d306:	6505                	lui	a0,0x1
   1d308:	33050513          	addi	a0,a0,816 # 1330 <.Lline_table_start1+0x1105>
   1d30c:	950a                	add	a0,a0,sp
   1d30e:	04100613          	li	a2,65
   1d312:	00001097          	auipc	ra,0x1
   1d316:	202080e7          	jalr	514(ra) # 1e514 <memcpy>
   1d31a:	0184d513          	srli	a0,s1,0x18
   1d31e:	0104d593          	srli	a1,s1,0x10
   1d322:	0084d613          	srli	a2,s1,0x8
   1d326:	649409a3          	sb	s1,1619(s0)
   1d32a:	64c40a23          	sb	a2,1620(s0)
   1d32e:	64b40aa3          	sb	a1,1621(s0)
   1d332:	64a40b23          	sb	a0,1622(s0)
   1d336:	7ff10513          	addi	a0,sp,2047
   1d33a:	5f650513          	addi	a0,a0,1526
   1d33e:	6585                	lui	a1,0x1
   1d340:	33058593          	addi	a1,a1,816 # 1330 <.Lline_table_start1+0x1105>
   1d344:	958a                	add	a1,a1,sp
   1d346:	04100613          	li	a2,65
   1d34a:	00001097          	auipc	ra,0x1
   1d34e:	1ca080e7          	jalr	458(ra) # 1e514 <memcpy>
   1d352:	6505                	lui	a0,0x1
   1d354:	38c50513          	addi	a0,a0,908 # 138c <.Lline_table_start1+0x1161>
   1d358:	950a                	add	a0,a0,sp
   1d35a:	7ff10593          	addi	a1,sp,2047
   1d35e:	5ef58593          	addi	a1,a1,1519
   1d362:	ffffc097          	auipc	ra,0xffffc
   1d366:	62e080e7          	jalr	1582(ra) # 19990 <_ZN20complex_dynamic_type3app17hfa022a10db34b2aaE>
   1d36a:	3ec9c503          	lbu	a0,1004(s3)
   1d36e:	c119                	beqz	a0,1d374 <_start+0x3554>
   1d370:	09a0106f          	j	1e40a <_start+0x45ea>
   1d374:	3ee9c503          	lbu	a0,1006(s3)
   1d378:	3ed9c583          	lbu	a1,1005(s3)
   1d37c:	3ef9c603          	lbu	a2,1007(s3)
   1d380:	3f09a483          	lw	s1,1008(s3)
   1d384:	0522                	slli	a0,a0,0x8
   1d386:	8d4d                	or	a0,a0,a1
   1d388:	68a41c23          	sh	a0,1688(s0)
   1d38c:	68c40d23          	sb	a2,1690(s0)
   1d390:	6505                	lui	a0,0x1
   1d392:	39450513          	addi	a0,a0,916 # 1394 <.Lline_table_start1+0x1169>
   1d396:	00a105b3          	add	a1,sp,a0
   1d39a:	6505                	lui	a0,0x1
   1d39c:	33050513          	addi	a0,a0,816 # 1330 <.Lline_table_start1+0x1105>
   1d3a0:	950a                	add	a0,a0,sp
   1d3a2:	02200613          	li	a2,34
   1d3a6:	00001097          	auipc	ra,0x1
   1d3aa:	16e080e7          	jalr	366(ra) # 1e514 <memcpy>
   1d3ae:	0184d513          	srli	a0,s1,0x18
   1d3b2:	0104d593          	srli	a1,s1,0x10
   1d3b6:	0084d613          	srli	a2,s1,0x8
   1d3ba:	68940da3          	sb	s1,1691(s0)
   1d3be:	68c40e23          	sb	a2,1692(s0)
   1d3c2:	68b40ea3          	sb	a1,1693(s0)
   1d3c6:	68a40f23          	sb	a0,1694(s0)
   1d3ca:	7ff10513          	addi	a0,sp,2047
   1d3ce:	63e50513          	addi	a0,a0,1598
   1d3d2:	6585                	lui	a1,0x1
   1d3d4:	33058593          	addi	a1,a1,816 # 1330 <.Lline_table_start1+0x1105>
   1d3d8:	958a                	add	a1,a1,sp
   1d3da:	02200613          	li	a2,34
   1d3de:	00001097          	auipc	ra,0x1
   1d3e2:	136080e7          	jalr	310(ra) # 1e514 <memcpy>
   1d3e6:	6505                	lui	a0,0x1
   1d3e8:	38c50513          	addi	a0,a0,908 # 138c <.Lline_table_start1+0x1161>
   1d3ec:	950a                	add	a0,a0,sp
   1d3ee:	7ff10593          	addi	a1,sp,2047
   1d3f2:	63758593          	addi	a1,a1,1591
   1d3f6:	ffff9097          	auipc	ra,0xffff9
   1d3fa:	14a080e7          	jalr	330(ra) # 16540 <_ZN20complex_dynamic_type3app17ha17aa5d517b56555E>
   1d3fe:	3ec9c503          	lbu	a0,1004(s3)
   1d402:	c119                	beqz	a0,1d408 <_start+0x35e8>
   1d404:	0060106f          	j	1e40a <_start+0x45ea>
   1d408:	3ed9c803          	lbu	a6,1005(s3)
   1d40c:	3ee9c583          	lbu	a1,1006(s3)
   1d410:	3f49a603          	lw	a2,1012(s3)
   1d414:	3f89a683          	lw	a3,1016(s3)
   1d418:	3fc9a703          	lw	a4,1020(s3)
   1d41c:	4009a783          	lw	a5,1024(s3)
   1d420:	40499483          	lh	s1,1028(s3)
   1d424:	4069c503          	lbu	a0,1030(s3)
   1d428:	38c9a823          	sw	a2,912(s3)
   1d42c:	38d9aa23          	sw	a3,916(s3)
   1d430:	38e9ac23          	sw	a4,920(s3)
   1d434:	38f9ae23          	sw	a5,924(s3)
   1d438:	3ef9c603          	lbu	a2,1007(s3)
   1d43c:	3f09a683          	lw	a3,1008(s3)
   1d440:	05a2                	slli	a1,a1,0x8
   1d442:	3a999023          	sh	s1,928(s3)
   1d446:	3aa98123          	sb	a0,930(s3)
   1d44a:	0186d513          	srli	a0,a3,0x18
   1d44e:	0105e5b3          	or	a1,a1,a6
   1d452:	0106d713          	srli	a4,a3,0x10
   1d456:	6ce403a3          	sb	a4,1735(s0)
   1d45a:	6ca40423          	sb	a0,1736(s0)
   1d45e:	0086d513          	srli	a0,a3,0x8
   1d462:	6cb41123          	sh	a1,1730(s0)
   1d466:	6cc40223          	sb	a2,1732(s0)
   1d46a:	6cd402a3          	sb	a3,1733(s0)
   1d46e:	6ca40323          	sb	a0,1734(s0)
   1d472:	7ff10513          	addi	a0,sp,2047
   1d476:	66850513          	addi	a0,a0,1640
   1d47a:	6585                	lui	a1,0x1
   1d47c:	33058593          	addi	a1,a1,816 # 1330 <.Lline_table_start1+0x1105>
   1d480:	958a                	add	a1,a1,sp
   1d482:	464d                	li	a2,19
   1d484:	00001097          	auipc	ra,0x1
   1d488:	090080e7          	jalr	144(ra) # 1e514 <memcpy>
   1d48c:	6505                	lui	a0,0x1
   1d48e:	38c50513          	addi	a0,a0,908 # 138c <.Lline_table_start1+0x1161>
   1d492:	950a                	add	a0,a0,sp
   1d494:	7ff10593          	addi	a1,sp,2047
   1d498:	66158593          	addi	a1,a1,1633
   1d49c:	ffff7097          	auipc	ra,0xffff7
   1d4a0:	fc4080e7          	jalr	-60(ra) # 14460 <_ZN20complex_dynamic_type3app17h646ab5d188221613E>
   1d4a4:	3ec9c503          	lbu	a0,1004(s3)
   1d4a8:	760511e3          	bnez	a0,1e40a <_start+0x45ea>
   1d4ac:	3ed9c883          	lbu	a7,1005(s3)
   1d4b0:	3ee9c583          	lbu	a1,1006(s3)
   1d4b4:	3ef9c803          	lbu	a6,1007(s3)
   1d4b8:	3f09a683          	lw	a3,1008(s3)
   1d4bc:	3f49a703          	lw	a4,1012(s3)
   1d4c0:	3f89a783          	lw	a5,1016(s3)
   1d4c4:	3fc9a483          	lw	s1,1020(s3)
   1d4c8:	4009a603          	lw	a2,1024(s3)
   1d4cc:	4049a503          	lw	a0,1028(s3)
   1d4d0:	38e9a823          	sw	a4,912(s3)
   1d4d4:	38f9aa23          	sw	a5,916(s3)
   1d4d8:	3899ac23          	sw	s1,920(s3)
   1d4dc:	38c9ae23          	sw	a2,924(s3)
   1d4e0:	05a2                	slli	a1,a1,0x8
   1d4e2:	3aa9a023          	sw	a0,928(s3)
   1d4e6:	0186d513          	srli	a0,a3,0x18
   1d4ea:	0115e5b3          	or	a1,a1,a7
   1d4ee:	0106d613          	srli	a2,a3,0x10
   1d4f2:	6ec400a3          	sb	a2,1761(s0)
   1d4f6:	6ea40123          	sb	a0,1762(s0)
   1d4fa:	0086d513          	srli	a0,a3,0x8
   1d4fe:	6cb41e23          	sh	a1,1756(s0)
   1d502:	6d040f23          	sb	a6,1758(s0)
   1d506:	6cd40fa3          	sb	a3,1759(s0)
   1d50a:	6ea40023          	sb	a0,1760(s0)
   1d50e:	7ff10513          	addi	a0,sp,2047
   1d512:	68250513          	addi	a0,a0,1666
   1d516:	6585                	lui	a1,0x1
   1d518:	33058593          	addi	a1,a1,816 # 1330 <.Lline_table_start1+0x1105>
   1d51c:	958a                	add	a1,a1,sp
   1d51e:	4651                	li	a2,20
   1d520:	00001097          	auipc	ra,0x1
   1d524:	ff4080e7          	jalr	-12(ra) # 1e514 <memcpy>
   1d528:	6505                	lui	a0,0x1
   1d52a:	38c50513          	addi	a0,a0,908 # 138c <.Lline_table_start1+0x1161>
   1d52e:	950a                	add	a0,a0,sp
   1d530:	7ff10593          	addi	a1,sp,2047
   1d534:	67b58593          	addi	a1,a1,1659
   1d538:	ffff7097          	auipc	ra,0xffff7
   1d53c:	528080e7          	jalr	1320(ra) # 14a60 <_ZN20complex_dynamic_type3app17h6e73aca2418ce238E>
   1d540:	3ec9c503          	lbu	a0,1004(s3)
   1d544:	6c0513e3          	bnez	a0,1e40a <_start+0x45ea>
   1d548:	3ee9c503          	lbu	a0,1006(s3)
   1d54c:	3ed9c583          	lbu	a1,1005(s3)
   1d550:	3ef9c603          	lbu	a2,1007(s3)
   1d554:	3f09a483          	lw	s1,1008(s3)
   1d558:	0522                	slli	a0,a0,0x8
   1d55a:	8d4d                	or	a0,a0,a1
   1d55c:	6ea41c23          	sh	a0,1784(s0)
   1d560:	6ec40d23          	sb	a2,1786(s0)
   1d564:	6505                	lui	a0,0x1
   1d566:	39450513          	addi	a0,a0,916 # 1394 <.Lline_table_start1+0x1169>
   1d56a:	00a105b3          	add	a1,sp,a0
   1d56e:	6505                	lui	a0,0x1
   1d570:	33050513          	addi	a0,a0,816 # 1330 <.Lline_table_start1+0x1105>
   1d574:	950a                	add	a0,a0,sp
   1d576:	03a00613          	li	a2,58
   1d57a:	00001097          	auipc	ra,0x1
   1d57e:	f9a080e7          	jalr	-102(ra) # 1e514 <memcpy>
   1d582:	0184d513          	srli	a0,s1,0x18
   1d586:	0104d593          	srli	a1,s1,0x10
   1d58a:	0084d613          	srli	a2,s1,0x8
   1d58e:	6e940da3          	sb	s1,1787(s0)
   1d592:	6ec40e23          	sb	a2,1788(s0)
   1d596:	6eb40ea3          	sb	a1,1789(s0)
   1d59a:	6ea40f23          	sb	a0,1790(s0)
   1d59e:	7ff10513          	addi	a0,sp,2047
   1d5a2:	69e50513          	addi	a0,a0,1694
   1d5a6:	6585                	lui	a1,0x1
   1d5a8:	33058593          	addi	a1,a1,816 # 1330 <.Lline_table_start1+0x1105>
   1d5ac:	958a                	add	a1,a1,sp
   1d5ae:	03a00613          	li	a2,58
   1d5b2:	00001097          	auipc	ra,0x1
   1d5b6:	f62080e7          	jalr	-158(ra) # 1e514 <memcpy>
   1d5ba:	6505                	lui	a0,0x1
   1d5bc:	38c50513          	addi	a0,a0,908 # 138c <.Lline_table_start1+0x1161>
   1d5c0:	950a                	add	a0,a0,sp
   1d5c2:	7ff10593          	addi	a1,sp,2047
   1d5c6:	69758593          	addi	a1,a1,1687
   1d5ca:	ffffb097          	auipc	ra,0xffffb
   1d5ce:	638080e7          	jalr	1592(ra) # 18c02 <_ZN20complex_dynamic_type3app17hd830c65e2b28a9a9E>
   1d5d2:	3ec9c503          	lbu	a0,1004(s3)
   1d5d6:	62051ae3          	bnez	a0,1e40a <_start+0x45ea>
   1d5da:	3ed9c883          	lbu	a7,1005(s3)
   1d5de:	3ee9c583          	lbu	a1,1006(s3)
   1d5e2:	3ef9c803          	lbu	a6,1007(s3)
   1d5e6:	3f09a683          	lw	a3,1008(s3)
   1d5ea:	3f49a703          	lw	a4,1012(s3)
   1d5ee:	3f89a783          	lw	a5,1016(s3)
   1d5f2:	3fc9a483          	lw	s1,1020(s3)
   1d5f6:	4009a603          	lw	a2,1024(s3)
   1d5fa:	4049c503          	lbu	a0,1028(s3)
   1d5fe:	38e9a823          	sw	a4,912(s3)
   1d602:	38f9aa23          	sw	a5,916(s3)
   1d606:	3899ac23          	sw	s1,920(s3)
   1d60a:	38c9ae23          	sw	a2,924(s3)
   1d60e:	05a2                	slli	a1,a1,0x8
   1d610:	3aa98023          	sb	a0,928(s3)
   1d614:	0186d513          	srli	a0,a3,0x18
   1d618:	0115e5b3          	or	a1,a1,a7
   1d61c:	0106d613          	srli	a2,a3,0x10
   1d620:	72c40fa3          	sb	a2,1855(s0)
   1d624:	74a40023          	sb	a0,1856(s0)
   1d628:	0086d513          	srli	a0,a3,0x8
   1d62c:	72b41d23          	sh	a1,1850(s0)
   1d630:	73040e23          	sb	a6,1852(s0)
   1d634:	72d40ea3          	sb	a3,1853(s0)
   1d638:	72a40f23          	sb	a0,1854(s0)
   1d63c:	7ff10513          	addi	a0,sp,2047
   1d640:	6e050513          	addi	a0,a0,1760
   1d644:	6585                	lui	a1,0x1
   1d646:	33058593          	addi	a1,a1,816 # 1330 <.Lline_table_start1+0x1105>
   1d64a:	958a                	add	a1,a1,sp
   1d64c:	4645                	li	a2,17
   1d64e:	00001097          	auipc	ra,0x1
   1d652:	ec6080e7          	jalr	-314(ra) # 1e514 <memcpy>
   1d656:	6505                	lui	a0,0x1
   1d658:	38c50513          	addi	a0,a0,908 # 138c <.Lline_table_start1+0x1161>
   1d65c:	950a                	add	a0,a0,sp
   1d65e:	7ff10593          	addi	a1,sp,2047
   1d662:	6d958593          	addi	a1,a1,1753
   1d666:	ffffa097          	auipc	ra,0xffffa
   1d66a:	aba080e7          	jalr	-1350(ra) # 17120 <_ZN20complex_dynamic_type3app17hb58345328837f57eE>
   1d66e:	3ec9c503          	lbu	a0,1004(s3)
   1d672:	58051ce3          	bnez	a0,1e40a <_start+0x45ea>
   1d676:	3ed9c503          	lbu	a0,1005(s3)
   1d67a:	3ee9c583          	lbu	a1,1006(s3)
   1d67e:	3ef9c803          	lbu	a6,1007(s3)
   1d682:	3f09a683          	lw	a3,1008(s3)
   1d686:	3f49a703          	lw	a4,1012(s3)
   1d68a:	3f89a783          	lw	a5,1016(s3)
   1d68e:	3fc9a483          	lw	s1,1020(s3)
   1d692:	4009a603          	lw	a2,1024(s3)
   1d696:	38e9a823          	sw	a4,912(s3)
   1d69a:	38f9aa23          	sw	a5,916(s3)
   1d69e:	3899ac23          	sw	s1,920(s3)
   1d6a2:	38c9ae23          	sw	a2,924(s3)
   1d6a6:	4049a603          	lw	a2,1028(s3)
   1d6aa:	40899703          	lh	a4,1032(s3)
   1d6ae:	40a9c783          	lbu	a5,1034(s3)
   1d6b2:	05a2                	slli	a1,a1,0x8
   1d6b4:	3ac9a023          	sw	a2,928(s3)
   1d6b8:	3ae99223          	sh	a4,932(s3)
   1d6bc:	3af98323          	sb	a5,934(s3)
   1d6c0:	0186d613          	srli	a2,a3,0x18
   1d6c4:	8d4d                	or	a0,a0,a1
   1d6c6:	0106d593          	srli	a1,a3,0x10
   1d6ca:	74b40ba3          	sb	a1,1879(s0)
   1d6ce:	74c40c23          	sb	a2,1880(s0)
   1d6d2:	0086d593          	srli	a1,a3,0x8
   1d6d6:	74a41923          	sh	a0,1874(s0)
   1d6da:	75040a23          	sb	a6,1876(s0)
   1d6de:	74d40aa3          	sb	a3,1877(s0)
   1d6e2:	74b40b23          	sb	a1,1878(s0)
   1d6e6:	7ff10513          	addi	a0,sp,2047
   1d6ea:	6f850513          	addi	a0,a0,1784
   1d6ee:	6585                	lui	a1,0x1
   1d6f0:	33058593          	addi	a1,a1,816 # 1330 <.Lline_table_start1+0x1105>
   1d6f4:	958a                	add	a1,a1,sp
   1d6f6:	465d                	li	a2,23
   1d6f8:	00001097          	auipc	ra,0x1
   1d6fc:	e1c080e7          	jalr	-484(ra) # 1e514 <memcpy>
   1d700:	6505                	lui	a0,0x1
   1d702:	38c50513          	addi	a0,a0,908 # 138c <.Lline_table_start1+0x1161>
   1d706:	950a                	add	a0,a0,sp
   1d708:	7ff10593          	addi	a1,sp,2047
   1d70c:	6f158593          	addi	a1,a1,1777
   1d710:	ffffb097          	auipc	ra,0xffffb
   1d714:	d5a080e7          	jalr	-678(ra) # 1846a <_ZN20complex_dynamic_type3app17hcec521b48812a62eE>
   1d718:	3ec9c503          	lbu	a0,1004(s3)
   1d71c:	4e0517e3          	bnez	a0,1e40a <_start+0x45ea>
   1d720:	3ee9c503          	lbu	a0,1006(s3)
   1d724:	3ed9c583          	lbu	a1,1005(s3)
   1d728:	3ef9c603          	lbu	a2,1007(s3)
   1d72c:	3f09a483          	lw	s1,1008(s3)
   1d730:	0522                	slli	a0,a0,0x8
   1d732:	8d4d                	or	a0,a0,a1
   1d734:	76a41823          	sh	a0,1904(s0)
   1d738:	76c40923          	sb	a2,1906(s0)
   1d73c:	6505                	lui	a0,0x1
   1d73e:	39450513          	addi	a0,a0,916 # 1394 <.Lline_table_start1+0x1169>
   1d742:	00a105b3          	add	a1,sp,a0
   1d746:	6505                	lui	a0,0x1
   1d748:	33050513          	addi	a0,a0,816 # 1330 <.Lline_table_start1+0x1105>
   1d74c:	950a                	add	a0,a0,sp
   1d74e:	03500613          	li	a2,53
   1d752:	00001097          	auipc	ra,0x1
   1d756:	dc2080e7          	jalr	-574(ra) # 1e514 <memcpy>
   1d75a:	0184d513          	srli	a0,s1,0x18
   1d75e:	0104d593          	srli	a1,s1,0x10
   1d762:	0084d613          	srli	a2,s1,0x8
   1d766:	769409a3          	sb	s1,1907(s0)
   1d76a:	76c40a23          	sb	a2,1908(s0)
   1d76e:	76b40aa3          	sb	a1,1909(s0)
   1d772:	76a40b23          	sb	a0,1910(s0)
   1d776:	7ff10513          	addi	a0,sp,2047
   1d77a:	71650513          	addi	a0,a0,1814
   1d77e:	6585                	lui	a1,0x1
   1d780:	33058593          	addi	a1,a1,816 # 1330 <.Lline_table_start1+0x1105>
   1d784:	958a                	add	a1,a1,sp
   1d786:	03500613          	li	a2,53
   1d78a:	00001097          	auipc	ra,0x1
   1d78e:	d8a080e7          	jalr	-630(ra) # 1e514 <memcpy>
   1d792:	6505                	lui	a0,0x1
   1d794:	38c50513          	addi	a0,a0,908 # 138c <.Lline_table_start1+0x1161>
   1d798:	950a                	add	a0,a0,sp
   1d79a:	7ff10593          	addi	a1,sp,2047
   1d79e:	70f58593          	addi	a1,a1,1807
   1d7a2:	ffff7097          	auipc	ra,0xffff7
   1d7a6:	430080e7          	jalr	1072(ra) # 14bd2 <_ZN20complex_dynamic_type3app17h7272dd8e91891c06E>
   1d7aa:	3ec9c503          	lbu	a0,1004(s3)
   1d7ae:	44051ee3          	bnez	a0,1e40a <_start+0x45ea>
   1d7b2:	3ee9c503          	lbu	a0,1006(s3)
   1d7b6:	3ed9c583          	lbu	a1,1005(s3)
   1d7ba:	3ef9c603          	lbu	a2,1007(s3)
   1d7be:	3f09a483          	lw	s1,1008(s3)
   1d7c2:	0522                	slli	a0,a0,0x8
   1d7c4:	8d4d                	or	a0,a0,a1
   1d7c6:	7aa41623          	sh	a0,1964(s0)
   1d7ca:	7ac40723          	sb	a2,1966(s0)
   1d7ce:	6505                	lui	a0,0x1
   1d7d0:	39450513          	addi	a0,a0,916 # 1394 <.Lline_table_start1+0x1169>
   1d7d4:	00a105b3          	add	a1,sp,a0
   1d7d8:	6505                	lui	a0,0x1
   1d7da:	33050513          	addi	a0,a0,816 # 1330 <.Lline_table_start1+0x1105>
   1d7de:	950a                	add	a0,a0,sp
   1d7e0:	02500613          	li	a2,37
   1d7e4:	00001097          	auipc	ra,0x1
   1d7e8:	d30080e7          	jalr	-720(ra) # 1e514 <memcpy>
   1d7ec:	0184d513          	srli	a0,s1,0x18
   1d7f0:	0104d593          	srli	a1,s1,0x10
   1d7f4:	0084d613          	srli	a2,s1,0x8
   1d7f8:	7a9407a3          	sb	s1,1967(s0)
   1d7fc:	7ac40823          	sb	a2,1968(s0)
   1d800:	7ab408a3          	sb	a1,1969(s0)
   1d804:	7aa40923          	sb	a0,1970(s0)
   1d808:	7ff10513          	addi	a0,sp,2047
   1d80c:	75250513          	addi	a0,a0,1874
   1d810:	6585                	lui	a1,0x1
   1d812:	33058593          	addi	a1,a1,816 # 1330 <.Lline_table_start1+0x1105>
   1d816:	958a                	add	a1,a1,sp
   1d818:	02500613          	li	a2,37
   1d81c:	00001097          	auipc	ra,0x1
   1d820:	cf8080e7          	jalr	-776(ra) # 1e514 <memcpy>
   1d824:	6505                	lui	a0,0x1
   1d826:	38c50513          	addi	a0,a0,908 # 138c <.Lline_table_start1+0x1161>
   1d82a:	950a                	add	a0,a0,sp
   1d82c:	7ff10593          	addi	a1,sp,2047
   1d830:	74b58593          	addi	a1,a1,1867
   1d834:	ffffb097          	auipc	ra,0xffffb
   1d838:	db8080e7          	jalr	-584(ra) # 185ec <_ZN20complex_dynamic_type3app17hd0ef04aa4ad96a2dE>
   1d83c:	3ec9c503          	lbu	a0,1004(s3)
   1d840:	3c0515e3          	bnez	a0,1e40a <_start+0x45ea>
   1d844:	3ed9c503          	lbu	a0,1005(s3)
   1d848:	3ee9c583          	lbu	a1,1006(s3)
   1d84c:	3ef9c803          	lbu	a6,1007(s3)
   1d850:	3f09a683          	lw	a3,1008(s3)
   1d854:	3f49a703          	lw	a4,1012(s3)
   1d858:	3f89a783          	lw	a5,1016(s3)
   1d85c:	3fc9a483          	lw	s1,1020(s3)
   1d860:	4009a603          	lw	a2,1024(s3)
   1d864:	38e9a823          	sw	a4,912(s3)
   1d868:	38f9aa23          	sw	a5,916(s3)
   1d86c:	3899ac23          	sw	s1,920(s3)
   1d870:	38c9ae23          	sw	a2,924(s3)
   1d874:	4049a603          	lw	a2,1028(s3)
   1d878:	4089a703          	lw	a4,1032(s3)
   1d87c:	40c9a783          	lw	a5,1036(s3)
   1d880:	4109a483          	lw	s1,1040(s3)
   1d884:	05a2                	slli	a1,a1,0x8
   1d886:	3ac9a023          	sw	a2,928(s3)
   1d88a:	3ae9a223          	sw	a4,932(s3)
   1d88e:	3af9a423          	sw	a5,936(s3)
   1d892:	3a99a623          	sw	s1,940(s3)
   1d896:	0186d613          	srli	a2,a3,0x18
   1d89a:	8d4d                	or	a0,a0,a1
   1d89c:	0106d593          	srli	a1,a3,0x10
   1d8a0:	7cb40ea3          	sb	a1,2013(s0)
   1d8a4:	7cc40f23          	sb	a2,2014(s0)
   1d8a8:	0086d593          	srli	a1,a3,0x8
   1d8ac:	7ca41c23          	sh	a0,2008(s0)
   1d8b0:	7d040d23          	sb	a6,2010(s0)
   1d8b4:	7cd40da3          	sb	a3,2011(s0)
   1d8b8:	7cb40e23          	sb	a1,2012(s0)
   1d8bc:	7ff10513          	addi	a0,sp,2047
   1d8c0:	77e50513          	addi	a0,a0,1918
   1d8c4:	6585                	lui	a1,0x1
   1d8c6:	33058593          	addi	a1,a1,816 # 1330 <.Lline_table_start1+0x1105>
   1d8ca:	958a                	add	a1,a1,sp
   1d8cc:	02000613          	li	a2,32
   1d8d0:	00001097          	auipc	ra,0x1
   1d8d4:	c44080e7          	jalr	-956(ra) # 1e514 <memcpy>
   1d8d8:	6505                	lui	a0,0x1
   1d8da:	38c50513          	addi	a0,a0,908 # 138c <.Lline_table_start1+0x1161>
   1d8de:	950a                	add	a0,a0,sp
   1d8e0:	7ff10593          	addi	a1,sp,2047
   1d8e4:	77758593          	addi	a1,a1,1911
   1d8e8:	ffff5097          	auipc	ra,0xffff5
   1d8ec:	4cc080e7          	jalr	1228(ra) # 12db4 <_ZN20complex_dynamic_type3app17h392d1f033231add8E>
   1d8f0:	3ec9c503          	lbu	a0,1004(s3)
   1d8f4:	30051be3          	bnez	a0,1e40a <_start+0x45ea>
   1d8f8:	3ee9c503          	lbu	a0,1006(s3)
   1d8fc:	3ed9c583          	lbu	a1,1005(s3)
   1d900:	3ef9c603          	lbu	a2,1007(s3)
   1d904:	3f09a403          	lw	s0,1008(s3)
   1d908:	0522                	slli	a0,a0,0x8
   1d90a:	8d4d                	or	a0,a0,a1
   1d90c:	fea99f23          	sh	a0,-2(s3)
   1d910:	00c98023          	sb	a2,0(s3)
   1d914:	6505                	lui	a0,0x1
   1d916:	39450513          	addi	a0,a0,916 # 1394 <.Lline_table_start1+0x1169>
   1d91a:	00a105b3          	add	a1,sp,a0
   1d91e:	6505                	lui	a0,0x1
   1d920:	33050513          	addi	a0,a0,816 # 1330 <.Lline_table_start1+0x1105>
   1d924:	950a                	add	a0,a0,sp
   1d926:	04800613          	li	a2,72
   1d92a:	00001097          	auipc	ra,0x1
   1d92e:	bea080e7          	jalr	-1046(ra) # 1e514 <memcpy>
   1d932:	01845513          	srli	a0,s0,0x18
   1d936:	01045593          	srli	a1,s0,0x10
   1d93a:	00845613          	srli	a2,s0,0x8
   1d93e:	008980a3          	sb	s0,1(s3)
   1d942:	00c98123          	sb	a2,2(s3)
   1d946:	00b981a3          	sb	a1,3(s3)
   1d94a:	00a98223          	sb	a0,4(s3)
   1d94e:	7ff10513          	addi	a0,sp,2047
   1d952:	7a650513          	addi	a0,a0,1958
   1d956:	6585                	lui	a1,0x1
   1d958:	33058593          	addi	a1,a1,816 # 1330 <.Lline_table_start1+0x1105>
   1d95c:	958a                	add	a1,a1,sp
   1d95e:	04800613          	li	a2,72
   1d962:	00001097          	auipc	ra,0x1
   1d966:	bb2080e7          	jalr	-1102(ra) # 1e514 <memcpy>
   1d96a:	6505                	lui	a0,0x1
   1d96c:	38c50513          	addi	a0,a0,908 # 138c <.Lline_table_start1+0x1161>
   1d970:	950a                	add	a0,a0,sp
   1d972:	7ff10593          	addi	a1,sp,2047
   1d976:	79f58593          	addi	a1,a1,1951
   1d97a:	ffff6097          	auipc	ra,0xffff6
   1d97e:	bc8080e7          	jalr	-1080(ra) # 13542 <_ZN20complex_dynamic_type3app17h49590f3eec247124E>
   1d982:	3ec9c503          	lbu	a0,1004(s3)
   1d986:	280512e3          	bnez	a0,1e40a <_start+0x45ea>
   1d98a:	3ee9c503          	lbu	a0,1006(s3)
   1d98e:	3ed9c583          	lbu	a1,1005(s3)
   1d992:	3ef9c603          	lbu	a2,1007(s3)
   1d996:	3f09a403          	lw	s0,1008(s3)
   1d99a:	0522                	slli	a0,a0,0x8
   1d99c:	8d4d                	or	a0,a0,a1
   1d99e:	04a99723          	sh	a0,78(s3)
   1d9a2:	04c98823          	sb	a2,80(s3)
   1d9a6:	6505                	lui	a0,0x1
   1d9a8:	39450513          	addi	a0,a0,916 # 1394 <.Lline_table_start1+0x1169>
   1d9ac:	00a105b3          	add	a1,sp,a0
   1d9b0:	6505                	lui	a0,0x1
   1d9b2:	33050513          	addi	a0,a0,816 # 1330 <.Lline_table_start1+0x1105>
   1d9b6:	950a                	add	a0,a0,sp
   1d9b8:	02e00613          	li	a2,46
   1d9bc:	00001097          	auipc	ra,0x1
   1d9c0:	b58080e7          	jalr	-1192(ra) # 1e514 <memcpy>
   1d9c4:	01845513          	srli	a0,s0,0x18
   1d9c8:	01045593          	srli	a1,s0,0x10
   1d9cc:	00845613          	srli	a2,s0,0x8
   1d9d0:	048988a3          	sb	s0,81(s3)
   1d9d4:	04c98923          	sb	a2,82(s3)
   1d9d8:	04b989a3          	sb	a1,83(s3)
   1d9dc:	04a98a23          	sb	a0,84(s3)
   1d9e0:	7ff10513          	addi	a0,sp,2047
   1d9e4:	7f650513          	addi	a0,a0,2038
   1d9e8:	6585                	lui	a1,0x1
   1d9ea:	33058593          	addi	a1,a1,816 # 1330 <.Lline_table_start1+0x1105>
   1d9ee:	958a                	add	a1,a1,sp
   1d9f0:	02e00613          	li	a2,46
   1d9f4:	00001097          	auipc	ra,0x1
   1d9f8:	b20080e7          	jalr	-1248(ra) # 1e514 <memcpy>
   1d9fc:	6505                	lui	a0,0x1
   1d9fe:	38c50513          	addi	a0,a0,908 # 138c <.Lline_table_start1+0x1161>
   1da02:	950a                	add	a0,a0,sp
   1da04:	7ff10593          	addi	a1,sp,2047
   1da08:	7ef58593          	addi	a1,a1,2031
   1da0c:	ffffb097          	auipc	ra,0xffffb
   1da10:	070080e7          	jalr	112(ra) # 18a7c <_ZN20complex_dynamic_type3app17hd646001e35d532fbE>
   1da14:	3ec9c503          	lbu	a0,1004(s3)
   1da18:	1e0519e3          	bnez	a0,1e40a <_start+0x45ea>
   1da1c:	3ee9c503          	lbu	a0,1006(s3)
   1da20:	3ed9c583          	lbu	a1,1005(s3)
   1da24:	3ef9c603          	lbu	a2,1007(s3)
   1da28:	3f09a403          	lw	s0,1008(s3)
   1da2c:	0522                	slli	a0,a0,0x8
   1da2e:	8d4d                	or	a0,a0,a1
   1da30:	08a99223          	sh	a0,132(s3)
   1da34:	08c98323          	sb	a2,134(s3)
   1da38:	6505                	lui	a0,0x1
   1da3a:	39450513          	addi	a0,a0,916 # 1394 <.Lline_table_start1+0x1169>
   1da3e:	00a105b3          	add	a1,sp,a0
   1da42:	6505                	lui	a0,0x1
   1da44:	33050513          	addi	a0,a0,816 # 1330 <.Lline_table_start1+0x1105>
   1da48:	950a                	add	a0,a0,sp
   1da4a:	03800613          	li	a2,56
   1da4e:	00001097          	auipc	ra,0x1
   1da52:	ac6080e7          	jalr	-1338(ra) # 1e514 <memcpy>
   1da56:	01845513          	srli	a0,s0,0x18
   1da5a:	01045593          	srli	a1,s0,0x10
   1da5e:	00845613          	srli	a2,s0,0x8
   1da62:	088983a3          	sb	s0,135(s3)
   1da66:	08c98423          	sb	a2,136(s3)
   1da6a:	08b984a3          	sb	a1,137(s3)
   1da6e:	08a98523          	sb	a0,138(s3)
   1da72:	6505                	lui	a0,0x1
   1da74:	02b50513          	addi	a0,a0,43 # 102b <.Lline_table_start1+0xe00>
   1da78:	950a                	add	a0,a0,sp
   1da7a:	6585                	lui	a1,0x1
   1da7c:	33058593          	addi	a1,a1,816 # 1330 <.Lline_table_start1+0x1105>
   1da80:	958a                	add	a1,a1,sp
   1da82:	03800613          	li	a2,56
   1da86:	00001097          	auipc	ra,0x1
   1da8a:	a8e080e7          	jalr	-1394(ra) # 1e514 <memcpy>
   1da8e:	6505                	lui	a0,0x1
   1da90:	38c50513          	addi	a0,a0,908 # 138c <.Lline_table_start1+0x1161>
   1da94:	950a                	add	a0,a0,sp
   1da96:	6585                	lui	a1,0x1
   1da98:	02458593          	addi	a1,a1,36 # 1024 <.Lline_table_start1+0xdf9>
   1da9c:	958a                	add	a1,a1,sp
   1da9e:	ffffa097          	auipc	ra,0xffffa
   1daa2:	6ca080e7          	jalr	1738(ra) # 18168 <_ZN20complex_dynamic_type3app17hcbcd25fba34c9e82E>
   1daa6:	3ec9c503          	lbu	a0,1004(s3)
   1daaa:	160510e3          	bnez	a0,1e40a <_start+0x45ea>
   1daae:	3ed9c503          	lbu	a0,1005(s3)
   1dab2:	3ee9c583          	lbu	a1,1006(s3)
   1dab6:	3ef9c603          	lbu	a2,1007(s3)
   1daba:	3f09a683          	lw	a3,1008(s3)
   1dabe:	3f49a703          	lw	a4,1012(s3)
   1dac2:	3f89a783          	lw	a5,1016(s3)
   1dac6:	3fc99483          	lh	s1,1020(s3)
   1daca:	05a2                	slli	a1,a1,0x8
   1dacc:	38e9a823          	sw	a4,912(s3)
   1dad0:	38f9aa23          	sw	a5,916(s3)
   1dad4:	38999c23          	sh	s1,920(s3)
   1dad8:	0186d713          	srli	a4,a3,0x18
   1dadc:	8d4d                	or	a0,a0,a1
   1dade:	0106d593          	srli	a1,a3,0x10
   1dae2:	0cb984a3          	sb	a1,201(s3)
   1dae6:	0ce98523          	sb	a4,202(s3)
   1daea:	0086d593          	srli	a1,a3,0x8
   1daee:	0ca99223          	sh	a0,196(s3)
   1daf2:	0cc98323          	sb	a2,198(s3)
   1daf6:	0cd983a3          	sb	a3,199(s3)
   1dafa:	0cb98423          	sb	a1,200(s3)
   1dafe:	6505                	lui	a0,0x1
   1db00:	06b50513          	addi	a0,a0,107 # 106b <.Lline_table_start1+0xe40>
   1db04:	950a                	add	a0,a0,sp
   1db06:	6585                	lui	a1,0x1
   1db08:	33058593          	addi	a1,a1,816 # 1330 <.Lline_table_start1+0x1105>
   1db0c:	958a                	add	a1,a1,sp
   1db0e:	4629                	li	a2,10
   1db10:	00001097          	auipc	ra,0x1
   1db14:	a04080e7          	jalr	-1532(ra) # 1e514 <memcpy>
   1db18:	6505                	lui	a0,0x1
   1db1a:	38c50513          	addi	a0,a0,908 # 138c <.Lline_table_start1+0x1161>
   1db1e:	950a                	add	a0,a0,sp
   1db20:	6585                	lui	a1,0x1
   1db22:	06458593          	addi	a1,a1,100 # 1064 <.Lline_table_start1+0xe39>
   1db26:	958a                	add	a1,a1,sp
   1db28:	ffff5097          	auipc	ra,0xffff5
   1db2c:	598080e7          	jalr	1432(ra) # 130c0 <_ZN20complex_dynamic_type3app17h4191345094bbb553E>
   1db30:	3ec9c503          	lbu	a0,1004(s3)
   1db34:	0c051be3          	bnez	a0,1e40a <_start+0x45ea>
   1db38:	3ee9c503          	lbu	a0,1006(s3)
   1db3c:	3ed9c583          	lbu	a1,1005(s3)
   1db40:	3ef9c603          	lbu	a2,1007(s3)
   1db44:	3f09a403          	lw	s0,1008(s3)
   1db48:	0522                	slli	a0,a0,0x8
   1db4a:	8d4d                	or	a0,a0,a1
   1db4c:	0ca99b23          	sh	a0,214(s3)
   1db50:	0cc98c23          	sb	a2,216(s3)
   1db54:	6505                	lui	a0,0x1
   1db56:	39450513          	addi	a0,a0,916 # 1394 <.Lline_table_start1+0x1169>
   1db5a:	00a105b3          	add	a1,sp,a0
   1db5e:	6505                	lui	a0,0x1
   1db60:	33050513          	addi	a0,a0,816 # 1330 <.Lline_table_start1+0x1105>
   1db64:	950a                	add	a0,a0,sp
   1db66:	03800613          	li	a2,56
   1db6a:	00001097          	auipc	ra,0x1
   1db6e:	9aa080e7          	jalr	-1622(ra) # 1e514 <memcpy>
   1db72:	01845513          	srli	a0,s0,0x18
   1db76:	01045593          	srli	a1,s0,0x10
   1db7a:	00845613          	srli	a2,s0,0x8
   1db7e:	0c898ca3          	sb	s0,217(s3)
   1db82:	0cc98d23          	sb	a2,218(s3)
   1db86:	0cb98da3          	sb	a1,219(s3)
   1db8a:	0ca98e23          	sb	a0,220(s3)
   1db8e:	6505                	lui	a0,0x1
   1db90:	07d50513          	addi	a0,a0,125 # 107d <.Lline_table_start1+0xe52>
   1db94:	950a                	add	a0,a0,sp
   1db96:	6585                	lui	a1,0x1
   1db98:	33058593          	addi	a1,a1,816 # 1330 <.Lline_table_start1+0x1105>
   1db9c:	958a                	add	a1,a1,sp
   1db9e:	03800613          	li	a2,56
   1dba2:	00001097          	auipc	ra,0x1
   1dba6:	972080e7          	jalr	-1678(ra) # 1e514 <memcpy>
   1dbaa:	6505                	lui	a0,0x1
   1dbac:	38c50513          	addi	a0,a0,908 # 138c <.Lline_table_start1+0x1161>
   1dbb0:	950a                	add	a0,a0,sp
   1dbb2:	6585                	lui	a1,0x1
   1dbb4:	07658593          	addi	a1,a1,118 # 1076 <.Lline_table_start1+0xe4b>
   1dbb8:	958a                	add	a1,a1,sp
   1dbba:	ffff5097          	auipc	ra,0xffff5
   1dbbe:	8fa080e7          	jalr	-1798(ra) # 124b4 <_ZN20complex_dynamic_type3app17h2a87ec4cd7e6f9cdE>
   1dbc2:	3ec9c503          	lbu	a0,1004(s3)
   1dbc6:	040512e3          	bnez	a0,1e40a <_start+0x45ea>
   1dbca:	3ed9c503          	lbu	a0,1005(s3)
   1dbce:	3ee9c583          	lbu	a1,1006(s3)
   1dbd2:	3f49a603          	lw	a2,1012(s3)
   1dbd6:	3f89a683          	lw	a3,1016(s3)
   1dbda:	3fc9a703          	lw	a4,1020(s3)
   1dbde:	4009a783          	lw	a5,1024(s3)
   1dbe2:	4049a483          	lw	s1,1028(s3)
   1dbe6:	4089c403          	lbu	s0,1032(s3)
   1dbea:	38c9a823          	sw	a2,912(s3)
   1dbee:	38d9aa23          	sw	a3,916(s3)
   1dbf2:	38e9ac23          	sw	a4,920(s3)
   1dbf6:	38f9ae23          	sw	a5,924(s3)
   1dbfa:	3ef9c603          	lbu	a2,1007(s3)
   1dbfe:	3f09a683          	lw	a3,1008(s3)
   1dc02:	05a2                	slli	a1,a1,0x8
   1dc04:	3a99a023          	sw	s1,928(s3)
   1dc08:	3a898223          	sb	s0,932(s3)
   1dc0c:	0186d713          	srli	a4,a3,0x18
   1dc10:	8d4d                	or	a0,a0,a1
   1dc12:	0106d593          	srli	a1,a3,0x10
   1dc16:	10b98da3          	sb	a1,283(s3)
   1dc1a:	10e98e23          	sb	a4,284(s3)
   1dc1e:	0086d593          	srli	a1,a3,0x8
   1dc22:	10a99b23          	sh	a0,278(s3)
   1dc26:	10c98c23          	sb	a2,280(s3)
   1dc2a:	10d98ca3          	sb	a3,281(s3)
   1dc2e:	10b98d23          	sb	a1,282(s3)
   1dc32:	6505                	lui	a0,0x1
   1dc34:	0bd50513          	addi	a0,a0,189 # 10bd <.Lline_table_start1+0xe92>
   1dc38:	950a                	add	a0,a0,sp
   1dc3a:	6585                	lui	a1,0x1
   1dc3c:	33058593          	addi	a1,a1,816 # 1330 <.Lline_table_start1+0x1105>
   1dc40:	958a                	add	a1,a1,sp
   1dc42:	4655                	li	a2,21
   1dc44:	00001097          	auipc	ra,0x1
   1dc48:	8d0080e7          	jalr	-1840(ra) # 1e514 <memcpy>
   1dc4c:	6505                	lui	a0,0x1
   1dc4e:	38c50513          	addi	a0,a0,908 # 138c <.Lline_table_start1+0x1161>
   1dc52:	950a                	add	a0,a0,sp
   1dc54:	6585                	lui	a1,0x1
   1dc56:	0b658593          	addi	a1,a1,182 # 10b6 <.Lline_table_start1+0xe8b>
   1dc5a:	958a                	add	a1,a1,sp
   1dc5c:	ffff7097          	auipc	ra,0xffff7
   1dc60:	c82080e7          	jalr	-894(ra) # 148de <_ZN20complex_dynamic_type3app17h6c218069da8e90dcE>
   1dc64:	3ec9c503          	lbu	a0,1004(s3)
   1dc68:	7a051163          	bnez	a0,1e40a <_start+0x45ea>
   1dc6c:	3ee9c503          	lbu	a0,1006(s3)
   1dc70:	3ed9c583          	lbu	a1,1005(s3)
   1dc74:	3ef9c603          	lbu	a2,1007(s3)
   1dc78:	3f09a403          	lw	s0,1008(s3)
   1dc7c:	0522                	slli	a0,a0,0x8
   1dc7e:	8d4d                	or	a0,a0,a1
   1dc80:	12a99923          	sh	a0,306(s3)
   1dc84:	12c98a23          	sb	a2,308(s3)
   1dc88:	6505                	lui	a0,0x1
   1dc8a:	39450513          	addi	a0,a0,916 # 1394 <.Lline_table_start1+0x1169>
   1dc8e:	00a105b3          	add	a1,sp,a0
   1dc92:	6505                	lui	a0,0x1
   1dc94:	33050513          	addi	a0,a0,816 # 1330 <.Lline_table_start1+0x1105>
   1dc98:	950a                	add	a0,a0,sp
   1dc9a:	05600613          	li	a2,86
   1dc9e:	00001097          	auipc	ra,0x1
   1dca2:	876080e7          	jalr	-1930(ra) # 1e514 <memcpy>
   1dca6:	01845513          	srli	a0,s0,0x18
   1dcaa:	01045593          	srli	a1,s0,0x10
   1dcae:	00845613          	srli	a2,s0,0x8
   1dcb2:	12898aa3          	sb	s0,309(s3)
   1dcb6:	12c98b23          	sb	a2,310(s3)
   1dcba:	12b98ba3          	sb	a1,311(s3)
   1dcbe:	12a98c23          	sb	a0,312(s3)
   1dcc2:	6505                	lui	a0,0x1
   1dcc4:	0d950513          	addi	a0,a0,217 # 10d9 <.Lline_table_start1+0xeae>
   1dcc8:	950a                	add	a0,a0,sp
   1dcca:	6585                	lui	a1,0x1
   1dccc:	33058593          	addi	a1,a1,816 # 1330 <.Lline_table_start1+0x1105>
   1dcd0:	958a                	add	a1,a1,sp
   1dcd2:	05600613          	li	a2,86
   1dcd6:	00001097          	auipc	ra,0x1
   1dcda:	83e080e7          	jalr	-1986(ra) # 1e514 <memcpy>
   1dcde:	6505                	lui	a0,0x1
   1dce0:	38c50513          	addi	a0,a0,908 # 138c <.Lline_table_start1+0x1161>
   1dce4:	950a                	add	a0,a0,sp
   1dce6:	6585                	lui	a1,0x1
   1dce8:	0d258593          	addi	a1,a1,210 # 10d2 <.Lline_table_start1+0xea7>
   1dcec:	958a                	add	a1,a1,sp
   1dcee:	ffffb097          	auipc	ra,0xffffb
   1dcf2:	518080e7          	jalr	1304(ra) # 19206 <_ZN20complex_dynamic_type3app17he788737d48ed4f82E>
   1dcf6:	3ec9c503          	lbu	a0,1004(s3)
   1dcfa:	70051863          	bnez	a0,1e40a <_start+0x45ea>
   1dcfe:	3ed9c503          	lbu	a0,1005(s3)
   1dd02:	3ee9c583          	lbu	a1,1006(s3)
   1dd06:	3ef9c603          	lbu	a2,1007(s3)
   1dd0a:	3f09a683          	lw	a3,1008(s3)
   1dd0e:	3f49a703          	lw	a4,1012(s3)
   1dd12:	3f89a783          	lw	a5,1016(s3)
   1dd16:	3fc99483          	lh	s1,1020(s3)
   1dd1a:	3fe9c403          	lbu	s0,1022(s3)
   1dd1e:	05a2                	slli	a1,a1,0x8
   1dd20:	38e9a823          	sw	a4,912(s3)
   1dd24:	38f9aa23          	sw	a5,916(s3)
   1dd28:	38999c23          	sh	s1,920(s3)
   1dd2c:	38898d23          	sb	s0,922(s3)
   1dd30:	0186d713          	srli	a4,a3,0x18
   1dd34:	8d4d                	or	a0,a0,a1
   1dd36:	0106d593          	srli	a1,a3,0x10
   1dd3a:	18b98aa3          	sb	a1,405(s3)
   1dd3e:	18e98b23          	sb	a4,406(s3)
   1dd42:	0086d593          	srli	a1,a3,0x8
   1dd46:	18a99823          	sh	a0,400(s3)
   1dd4a:	18c98923          	sb	a2,402(s3)
   1dd4e:	18d989a3          	sb	a3,403(s3)
   1dd52:	18b98a23          	sb	a1,404(s3)
   1dd56:	6505                	lui	a0,0x1
   1dd58:	13750513          	addi	a0,a0,311 # 1137 <.Lline_table_start1+0xf0c>
   1dd5c:	950a                	add	a0,a0,sp
   1dd5e:	6585                	lui	a1,0x1
   1dd60:	33058593          	addi	a1,a1,816 # 1330 <.Lline_table_start1+0x1105>
   1dd64:	958a                	add	a1,a1,sp
   1dd66:	462d                	li	a2,11
   1dd68:	00000097          	auipc	ra,0x0
   1dd6c:	7ac080e7          	jalr	1964(ra) # 1e514 <memcpy>
   1dd70:	6505                	lui	a0,0x1
   1dd72:	38c50513          	addi	a0,a0,908 # 138c <.Lline_table_start1+0x1161>
   1dd76:	950a                	add	a0,a0,sp
   1dd78:	6585                	lui	a1,0x1
   1dd7a:	13058593          	addi	a1,a1,304 # 1130 <.Lline_table_start1+0xf05>
   1dd7e:	958a                	add	a1,a1,sp
   1dd80:	ffff5097          	auipc	ra,0xffff5
   1dd84:	eb2080e7          	jalr	-334(ra) # 12c32 <_ZN20complex_dynamic_type3app17h376365b52fd036a2E>
   1dd88:	3ec9c503          	lbu	a0,1004(s3)
   1dd8c:	66051f63          	bnez	a0,1e40a <_start+0x45ea>
   1dd90:	3ee9c503          	lbu	a0,1006(s3)
   1dd94:	3ed9c583          	lbu	a1,1005(s3)
   1dd98:	3ef9c603          	lbu	a2,1007(s3)
   1dd9c:	3f09a403          	lw	s0,1008(s3)
   1dda0:	0522                	slli	a0,a0,0x8
   1dda2:	8d4d                	or	a0,a0,a1
   1dda4:	1aa99123          	sh	a0,418(s3)
   1dda8:	1ac98223          	sb	a2,420(s3)
   1ddac:	6505                	lui	a0,0x1
   1ddae:	39450513          	addi	a0,a0,916 # 1394 <.Lline_table_start1+0x1169>
   1ddb2:	00a105b3          	add	a1,sp,a0
   1ddb6:	6505                	lui	a0,0x1
   1ddb8:	33050513          	addi	a0,a0,816 # 1330 <.Lline_table_start1+0x1105>
   1ddbc:	950a                	add	a0,a0,sp
   1ddbe:	03d00613          	li	a2,61
   1ddc2:	00000097          	auipc	ra,0x0
   1ddc6:	752080e7          	jalr	1874(ra) # 1e514 <memcpy>
   1ddca:	01845513          	srli	a0,s0,0x18
   1ddce:	01045593          	srli	a1,s0,0x10
   1ddd2:	00845613          	srli	a2,s0,0x8
   1ddd6:	1a8982a3          	sb	s0,421(s3)
   1ddda:	1ac98323          	sb	a2,422(s3)
   1ddde:	1ab983a3          	sb	a1,423(s3)
   1dde2:	1aa98423          	sb	a0,424(s3)
   1dde6:	6505                	lui	a0,0x1
   1dde8:	14950513          	addi	a0,a0,329 # 1149 <.Lline_table_start1+0xf1e>
   1ddec:	950a                	add	a0,a0,sp
   1ddee:	6585                	lui	a1,0x1
   1ddf0:	33058593          	addi	a1,a1,816 # 1330 <.Lline_table_start1+0x1105>
   1ddf4:	958a                	add	a1,a1,sp
   1ddf6:	03d00613          	li	a2,61
   1ddfa:	00000097          	auipc	ra,0x0
   1ddfe:	71a080e7          	jalr	1818(ra) # 1e514 <memcpy>
   1de02:	6505                	lui	a0,0x1
   1de04:	38c50513          	addi	a0,a0,908 # 138c <.Lline_table_start1+0x1161>
   1de08:	950a                	add	a0,a0,sp
   1de0a:	6585                	lui	a1,0x1
   1de0c:	14258593          	addi	a1,a1,322 # 1142 <.Lline_table_start1+0xf17>
   1de10:	958a                	add	a1,a1,sp
   1de12:	ffff6097          	auipc	ra,0xffff6
   1de16:	d40080e7          	jalr	-704(ra) # 13b52 <_ZN20complex_dynamic_type3app17h55c0a09cd52a665fE>
   1de1a:	3ec9c503          	lbu	a0,1004(s3)
   1de1e:	5e051663          	bnez	a0,1e40a <_start+0x45ea>
   1de22:	3ed9c503          	lbu	a0,1005(s3)
   1de26:	3ee9c583          	lbu	a1,1006(s3)
   1de2a:	3ef9c603          	lbu	a2,1007(s3)
   1de2e:	3f09a683          	lw	a3,1008(s3)
   1de32:	3f49a703          	lw	a4,1012(s3)
   1de36:	3f89a783          	lw	a5,1016(s3)
   1de3a:	3fc9a483          	lw	s1,1020(s3)
   1de3e:	4009a403          	lw	s0,1024(s3)
   1de42:	38e9a823          	sw	a4,912(s3)
   1de46:	38f9aa23          	sw	a5,916(s3)
   1de4a:	3899ac23          	sw	s1,920(s3)
   1de4e:	3889ae23          	sw	s0,924(s3)
   1de52:	4049a703          	lw	a4,1028(s3)
   1de56:	4089a783          	lw	a5,1032(s3)
   1de5a:	40c9a483          	lw	s1,1036(s3)
   1de5e:	05a2                	slli	a1,a1,0x8
   1de60:	3ae9a023          	sw	a4,928(s3)
   1de64:	3af9a223          	sw	a5,932(s3)
   1de68:	3a99a423          	sw	s1,936(s3)
   1de6c:	0186d713          	srli	a4,a3,0x18
   1de70:	8d4d                	or	a0,a0,a1
   1de72:	0106d593          	srli	a1,a3,0x10
   1de76:	1eb985a3          	sb	a1,491(s3)
   1de7a:	1ee98623          	sb	a4,492(s3)
   1de7e:	0086d593          	srli	a1,a3,0x8
   1de82:	1ea99323          	sh	a0,486(s3)
   1de86:	1ec98423          	sb	a2,488(s3)
   1de8a:	1ed984a3          	sb	a3,489(s3)
   1de8e:	1eb98523          	sb	a1,490(s3)
   1de92:	6505                	lui	a0,0x1
   1de94:	18d50513          	addi	a0,a0,397 # 118d <.Lline_table_start1+0xf62>
   1de98:	950a                	add	a0,a0,sp
   1de9a:	6585                	lui	a1,0x1
   1de9c:	33058593          	addi	a1,a1,816 # 1330 <.Lline_table_start1+0x1105>
   1dea0:	958a                	add	a1,a1,sp
   1dea2:	4671                	li	a2,28
   1dea4:	00000097          	auipc	ra,0x0
   1dea8:	670080e7          	jalr	1648(ra) # 1e514 <memcpy>
   1deac:	6505                	lui	a0,0x1
   1deae:	38c50513          	addi	a0,a0,908 # 138c <.Lline_table_start1+0x1161>
   1deb2:	950a                	add	a0,a0,sp
   1deb4:	6585                	lui	a1,0x1
   1deb6:	18658593          	addi	a1,a1,390 # 1186 <.Lline_table_start1+0xf5b>
   1deba:	958a                	add	a1,a1,sp
   1debc:	ffff7097          	auipc	ra,0xffff7
   1dec0:	1a4080e7          	jalr	420(ra) # 15060 <_ZN20complex_dynamic_type3app17h7673a1b0f93e25e4E>
   1dec4:	3ec9c503          	lbu	a0,1004(s3)
   1dec8:	54051163          	bnez	a0,1e40a <_start+0x45ea>
   1decc:	3ed9c503          	lbu	a0,1005(s3)
   1ded0:	3ee9c583          	lbu	a1,1006(s3)
   1ded4:	3ef9c603          	lbu	a2,1007(s3)
   1ded8:	3f09a683          	lw	a3,1008(s3)
   1dedc:	3f49a703          	lw	a4,1012(s3)
   1dee0:	3f89a783          	lw	a5,1016(s3)
   1dee4:	3fc9a483          	lw	s1,1020(s3)
   1dee8:	4009a403          	lw	s0,1024(s3)
   1deec:	38e9a823          	sw	a4,912(s3)
   1def0:	38f9aa23          	sw	a5,916(s3)
   1def4:	3899ac23          	sw	s1,920(s3)
   1def8:	3889ae23          	sw	s0,924(s3)
   1defc:	4049a703          	lw	a4,1028(s3)
   1df00:	4089a783          	lw	a5,1032(s3)
   1df04:	40c9a483          	lw	s1,1036(s3)
   1df08:	4109c403          	lbu	s0,1040(s3)
   1df0c:	05a2                	slli	a1,a1,0x8
   1df0e:	3ae9a023          	sw	a4,928(s3)
   1df12:	3af9a223          	sw	a5,932(s3)
   1df16:	3a99a423          	sw	s1,936(s3)
   1df1a:	3a898623          	sb	s0,940(s3)
   1df1e:	0186d713          	srli	a4,a3,0x18
   1df22:	8d4d                	or	a0,a0,a1
   1df24:	0106d593          	srli	a1,a3,0x10
   1df28:	20b987a3          	sb	a1,527(s3)
   1df2c:	20e98823          	sb	a4,528(s3)
   1df30:	0086d593          	srli	a1,a3,0x8
   1df34:	20a99523          	sh	a0,522(s3)
   1df38:	20c98623          	sb	a2,524(s3)
   1df3c:	20d986a3          	sb	a3,525(s3)
   1df40:	20b98723          	sb	a1,526(s3)
   1df44:	6505                	lui	a0,0x1
   1df46:	1b150513          	addi	a0,a0,433 # 11b1 <.Lline_table_start1+0xf86>
   1df4a:	950a                	add	a0,a0,sp
   1df4c:	6585                	lui	a1,0x1
   1df4e:	33058593          	addi	a1,a1,816 # 1330 <.Lline_table_start1+0x1105>
   1df52:	958a                	add	a1,a1,sp
   1df54:	4675                	li	a2,29
   1df56:	00000097          	auipc	ra,0x0
   1df5a:	5be080e7          	jalr	1470(ra) # 1e514 <memcpy>
   1df5e:	6505                	lui	a0,0x1
   1df60:	38c50513          	addi	a0,a0,908 # 138c <.Lline_table_start1+0x1161>
   1df64:	950a                	add	a0,a0,sp
   1df66:	6585                	lui	a1,0x1
   1df68:	1aa58593          	addi	a1,a1,426 # 11aa <.Lline_table_start1+0xf7f>
   1df6c:	958a                	add	a1,a1,sp
   1df6e:	ffff7097          	auipc	ra,0xffff7
   1df72:	f6e080e7          	jalr	-146(ra) # 14edc <_ZN20complex_dynamic_type3app17h749b7cd109792883E>
   1df76:	3ec9c503          	lbu	a0,1004(s3)
   1df7a:	48051863          	bnez	a0,1e40a <_start+0x45ea>
   1df7e:	3ee9c503          	lbu	a0,1006(s3)
   1df82:	3ed9c583          	lbu	a1,1005(s3)
   1df86:	3ef9c603          	lbu	a2,1007(s3)
   1df8a:	3f09a403          	lw	s0,1008(s3)
   1df8e:	0522                	slli	a0,a0,0x8
   1df90:	8d4d                	or	a0,a0,a1
   1df92:	22a99723          	sh	a0,558(s3)
   1df96:	22c98823          	sb	a2,560(s3)
   1df9a:	6505                	lui	a0,0x1
   1df9c:	39450513          	addi	a0,a0,916 # 1394 <.Lline_table_start1+0x1169>
   1dfa0:	00a105b3          	add	a1,sp,a0
   1dfa4:	6505                	lui	a0,0x1
   1dfa6:	33050513          	addi	a0,a0,816 # 1330 <.Lline_table_start1+0x1105>
   1dfaa:	950a                	add	a0,a0,sp
   1dfac:	02800613          	li	a2,40
   1dfb0:	00000097          	auipc	ra,0x0
   1dfb4:	564080e7          	jalr	1380(ra) # 1e514 <memcpy>
   1dfb8:	01845513          	srli	a0,s0,0x18
   1dfbc:	01045593          	srli	a1,s0,0x10
   1dfc0:	00845613          	srli	a2,s0,0x8
   1dfc4:	228988a3          	sb	s0,561(s3)
   1dfc8:	22c98923          	sb	a2,562(s3)
   1dfcc:	22b989a3          	sb	a1,563(s3)
   1dfd0:	22a98a23          	sb	a0,564(s3)
   1dfd4:	6505                	lui	a0,0x1
   1dfd6:	1d550513          	addi	a0,a0,469 # 11d5 <.Lline_table_start1+0xfaa>
   1dfda:	950a                	add	a0,a0,sp
   1dfdc:	6585                	lui	a1,0x1
   1dfde:	33058593          	addi	a1,a1,816 # 1330 <.Lline_table_start1+0x1105>
   1dfe2:	958a                	add	a1,a1,sp
   1dfe4:	02800613          	li	a2,40
   1dfe8:	00000097          	auipc	ra,0x0
   1dfec:	52c080e7          	jalr	1324(ra) # 1e514 <memcpy>
   1dff0:	6505                	lui	a0,0x1
   1dff2:	38c50513          	addi	a0,a0,908 # 138c <.Lline_table_start1+0x1161>
   1dff6:	950a                	add	a0,a0,sp
   1dff8:	6585                	lui	a1,0x1
   1dffa:	1ce58593          	addi	a1,a1,462 # 11ce <.Lline_table_start1+0xfa3>
   1dffe:	958a                	add	a1,a1,sp
   1e000:	ffff4097          	auipc	ra,0xffff4
   1e004:	1b8080e7          	jalr	440(ra) # 121b8 <_ZN20complex_dynamic_type3app17h26d6f3a309294fa0E>
   1e008:	3ec9c503          	lbu	a0,1004(s3)
   1e00c:	3e051f63          	bnez	a0,1e40a <_start+0x45ea>
   1e010:	3ee9c503          	lbu	a0,1006(s3)
   1e014:	3ed9c583          	lbu	a1,1005(s3)
   1e018:	3ef9c603          	lbu	a2,1007(s3)
   1e01c:	3f09a403          	lw	s0,1008(s3)
   1e020:	0522                	slli	a0,a0,0x8
   1e022:	8d4d                	or	a0,a0,a1
   1e024:	24a99f23          	sh	a0,606(s3)
   1e028:	26c98023          	sb	a2,608(s3)
   1e02c:	6505                	lui	a0,0x1
   1e02e:	39450513          	addi	a0,a0,916 # 1394 <.Lline_table_start1+0x1169>
   1e032:	00a105b3          	add	a1,sp,a0
   1e036:	6505                	lui	a0,0x1
   1e038:	33050513          	addi	a0,a0,816 # 1330 <.Lline_table_start1+0x1105>
   1e03c:	950a                	add	a0,a0,sp
   1e03e:	05700613          	li	a2,87
   1e042:	00000097          	auipc	ra,0x0
   1e046:	4d2080e7          	jalr	1234(ra) # 1e514 <memcpy>
   1e04a:	01845513          	srli	a0,s0,0x18
   1e04e:	01045593          	srli	a1,s0,0x10
   1e052:	00845613          	srli	a2,s0,0x8
   1e056:	268980a3          	sb	s0,609(s3)
   1e05a:	26c98123          	sb	a2,610(s3)
   1e05e:	26b981a3          	sb	a1,611(s3)
   1e062:	26a98223          	sb	a0,612(s3)
   1e066:	6505                	lui	a0,0x1
   1e068:	20550513          	addi	a0,a0,517 # 1205 <.Lline_table_start1+0xfda>
   1e06c:	950a                	add	a0,a0,sp
   1e06e:	6585                	lui	a1,0x1
   1e070:	33058593          	addi	a1,a1,816 # 1330 <.Lline_table_start1+0x1105>
   1e074:	958a                	add	a1,a1,sp
   1e076:	05700613          	li	a2,87
   1e07a:	00000097          	auipc	ra,0x0
   1e07e:	49a080e7          	jalr	1178(ra) # 1e514 <memcpy>
   1e082:	6505                	lui	a0,0x1
   1e084:	38c50513          	addi	a0,a0,908 # 138c <.Lline_table_start1+0x1161>
   1e088:	950a                	add	a0,a0,sp
   1e08a:	6585                	lui	a1,0x1
   1e08c:	1fe58593          	addi	a1,a1,510 # 11fe <.Lline_table_start1+0xfd3>
   1e090:	958a                	add	a1,a1,sp
   1e092:	ffff7097          	auipc	ra,0xffff7
   1e096:	cc6080e7          	jalr	-826(ra) # 14d58 <_ZN20complex_dynamic_type3app17h73a288a07c554540E>
   1e09a:	3ec9c503          	lbu	a0,1004(s3)
   1e09e:	36051663          	bnez	a0,1e40a <_start+0x45ea>
   1e0a2:	3ee9c503          	lbu	a0,1006(s3)
   1e0a6:	3ed9c583          	lbu	a1,1005(s3)
   1e0aa:	3ef9c603          	lbu	a2,1007(s3)
   1e0ae:	3f09a403          	lw	s0,1008(s3)
   1e0b2:	0522                	slli	a0,a0,0x8
   1e0b4:	8d4d                	or	a0,a0,a1
   1e0b6:	2aa99e23          	sh	a0,700(s3)
   1e0ba:	2ac98f23          	sb	a2,702(s3)
   1e0be:	6505                	lui	a0,0x1
   1e0c0:	39450513          	addi	a0,a0,916 # 1394 <.Lline_table_start1+0x1169>
   1e0c4:	00a105b3          	add	a1,sp,a0
   1e0c8:	6505                	lui	a0,0x1
   1e0ca:	33050513          	addi	a0,a0,816 # 1330 <.Lline_table_start1+0x1105>
   1e0ce:	950a                	add	a0,a0,sp
   1e0d0:	04e00613          	li	a2,78
   1e0d4:	00000097          	auipc	ra,0x0
   1e0d8:	440080e7          	jalr	1088(ra) # 1e514 <memcpy>
   1e0dc:	01845513          	srli	a0,s0,0x18
   1e0e0:	01045593          	srli	a1,s0,0x10
   1e0e4:	00845613          	srli	a2,s0,0x8
   1e0e8:	2a898fa3          	sb	s0,703(s3)
   1e0ec:	2cc98023          	sb	a2,704(s3)
   1e0f0:	2cb980a3          	sb	a1,705(s3)
   1e0f4:	2ca98123          	sb	a0,706(s3)
   1e0f8:	6505                	lui	a0,0x1
   1e0fa:	26350513          	addi	a0,a0,611 # 1263 <.Lline_table_start1+0x1038>
   1e0fe:	950a                	add	a0,a0,sp
   1e100:	6585                	lui	a1,0x1
   1e102:	33058593          	addi	a1,a1,816 # 1330 <.Lline_table_start1+0x1105>
   1e106:	958a                	add	a1,a1,sp
   1e108:	04e00613          	li	a2,78
   1e10c:	00000097          	auipc	ra,0x0
   1e110:	408080e7          	jalr	1032(ra) # 1e514 <memcpy>
   1e114:	6505                	lui	a0,0x1
   1e116:	38c50513          	addi	a0,a0,908 # 138c <.Lline_table_start1+0x1161>
   1e11a:	950a                	add	a0,a0,sp
   1e11c:	6585                	lui	a1,0x1
   1e11e:	25c58593          	addi	a1,a1,604 # 125c <.Lline_table_start1+0x1031>
   1e122:	958a                	add	a1,a1,sp
   1e124:	ffff8097          	auipc	ra,0xffff8
   1e128:	9ce080e7          	jalr	-1586(ra) # 15af2 <_ZN20complex_dynamic_type3app17h86923270f351acf3E>
   1e12c:	3ec9c503          	lbu	a0,1004(s3)
   1e130:	2c051d63          	bnez	a0,1e40a <_start+0x45ea>
   1e134:	3ed9c503          	lbu	a0,1005(s3)
   1e138:	3ee9c583          	lbu	a1,1006(s3)
   1e13c:	3ef9c603          	lbu	a2,1007(s3)
   1e140:	3f09a683          	lw	a3,1008(s3)
   1e144:	3f49a703          	lw	a4,1012(s3)
   1e148:	3f89a783          	lw	a5,1016(s3)
   1e14c:	3fc99483          	lh	s1,1020(s3)
   1e150:	05a2                	slli	a1,a1,0x8
   1e152:	38e9a823          	sw	a4,912(s3)
   1e156:	38f9aa23          	sw	a5,916(s3)
   1e15a:	38999c23          	sh	s1,920(s3)
   1e15e:	0186d713          	srli	a4,a3,0x18
   1e162:	8d4d                	or	a0,a0,a1
   1e164:	0106d593          	srli	a1,a3,0x10
   1e168:	30b98ba3          	sb	a1,791(s3)
   1e16c:	30e98c23          	sb	a4,792(s3)
   1e170:	0086d593          	srli	a1,a3,0x8
   1e174:	30a99923          	sh	a0,786(s3)
   1e178:	30c98a23          	sb	a2,788(s3)
   1e17c:	30d98aa3          	sb	a3,789(s3)
   1e180:	30b98b23          	sb	a1,790(s3)
   1e184:	6505                	lui	a0,0x1
   1e186:	2b950513          	addi	a0,a0,697 # 12b9 <.Lline_table_start1+0x108e>
   1e18a:	950a                	add	a0,a0,sp
   1e18c:	6585                	lui	a1,0x1
   1e18e:	33058593          	addi	a1,a1,816 # 1330 <.Lline_table_start1+0x1105>
   1e192:	958a                	add	a1,a1,sp
   1e194:	4629                	li	a2,10
   1e196:	00000097          	auipc	ra,0x0
   1e19a:	37e080e7          	jalr	894(ra) # 1e514 <memcpy>
   1e19e:	6505                	lui	a0,0x1
   1e1a0:	38c50513          	addi	a0,a0,908 # 138c <.Lline_table_start1+0x1161>
   1e1a4:	950a                	add	a0,a0,sp
   1e1a6:	6585                	lui	a1,0x1
   1e1a8:	2b258593          	addi	a1,a1,690 # 12b2 <.Lline_table_start1+0x1087>
   1e1ac:	958a                	add	a1,a1,sp
   1e1ae:	ffff6097          	auipc	ra,0xffff6
   1e1b2:	e24080e7          	jalr	-476(ra) # 13fd2 <_ZN20complex_dynamic_type3app17h599f2dad14098ebcE>
   1e1b6:	3ec9c503          	lbu	a0,1004(s3)
   1e1ba:	24051863          	bnez	a0,1e40a <_start+0x45ea>
   1e1be:	3ee9c503          	lbu	a0,1006(s3)
   1e1c2:	3ed9c583          	lbu	a1,1005(s3)
   1e1c6:	3ef9c603          	lbu	a2,1007(s3)
   1e1ca:	3f09a403          	lw	s0,1008(s3)
   1e1ce:	0522                	slli	a0,a0,0x8
   1e1d0:	8d4d                	or	a0,a0,a1
   1e1d2:	32a99223          	sh	a0,804(s3)
   1e1d6:	32c98323          	sb	a2,806(s3)
   1e1da:	6505                	lui	a0,0x1
   1e1dc:	39450513          	addi	a0,a0,916 # 1394 <.Lline_table_start1+0x1169>
   1e1e0:	00a105b3          	add	a1,sp,a0
   1e1e4:	6505                	lui	a0,0x1
   1e1e6:	33050513          	addi	a0,a0,816 # 1330 <.Lline_table_start1+0x1105>
   1e1ea:	950a                	add	a0,a0,sp
   1e1ec:	04900613          	li	a2,73
   1e1f0:	00000097          	auipc	ra,0x0
   1e1f4:	324080e7          	jalr	804(ra) # 1e514 <memcpy>
   1e1f8:	01845513          	srli	a0,s0,0x18
   1e1fc:	01045593          	srli	a1,s0,0x10
   1e200:	00845613          	srli	a2,s0,0x8
   1e204:	328983a3          	sb	s0,807(s3)
   1e208:	32c98423          	sb	a2,808(s3)
   1e20c:	32b984a3          	sb	a1,809(s3)
   1e210:	32a98523          	sb	a0,810(s3)
   1e214:	6505                	lui	a0,0x1
   1e216:	2cb50513          	addi	a0,a0,715 # 12cb <.Lline_table_start1+0x10a0>
   1e21a:	950a                	add	a0,a0,sp
   1e21c:	6585                	lui	a1,0x1
   1e21e:	33058593          	addi	a1,a1,816 # 1330 <.Lline_table_start1+0x1105>
   1e222:	958a                	add	a1,a1,sp
   1e224:	04900613          	li	a2,73
   1e228:	00000097          	auipc	ra,0x0
   1e22c:	2ec080e7          	jalr	748(ra) # 1e514 <memcpy>
   1e230:	6505                	lui	a0,0x1
   1e232:	38c50513          	addi	a0,a0,908 # 138c <.Lline_table_start1+0x1161>
   1e236:	950a                	add	a0,a0,sp
   1e238:	6585                	lui	a1,0x1
   1e23a:	2c458593          	addi	a1,a1,708 # 12c4 <.Lline_table_start1+0x1099>
   1e23e:	958a                	add	a1,a1,sp
   1e240:	ffff8097          	auipc	ra,0xffff8
   1e244:	bb2080e7          	jalr	-1102(ra) # 15df2 <_ZN20complex_dynamic_type3app17h8df10570fdc5566cE>
   1e248:	3ec9c503          	lbu	a0,1004(s3)
   1e24c:	1a051f63          	bnez	a0,1e40a <_start+0x45ea>
   1e250:	3ed9c503          	lbu	a0,1005(s3)
   1e254:	3ee9c583          	lbu	a1,1006(s3)
   1e258:	3ef9c803          	lbu	a6,1007(s3)
   1e25c:	3f09a683          	lw	a3,1008(s3)
   1e260:	3f49a703          	lw	a4,1012(s3)
   1e264:	3f89a783          	lw	a5,1016(s3)
   1e268:	3fc9a483          	lw	s1,1020(s3)
   1e26c:	4009a403          	lw	s0,1024(s3)
   1e270:	4049a603          	lw	a2,1028(s3)
   1e274:	05a2                	slli	a1,a1,0x8
   1e276:	3899ac23          	sw	s1,920(s3)
   1e27a:	3889ae23          	sw	s0,924(s3)
   1e27e:	3ac9a023          	sw	a2,928(s3)
   1e282:	0186d613          	srli	a2,a3,0x18
   1e286:	8d4d                	or	a0,a0,a1
   1e288:	0106d593          	srli	a1,a3,0x10
   1e28c:	36b98ca3          	sb	a1,889(s3)
   1e290:	36c98d23          	sb	a2,890(s3)
   1e294:	38e9a823          	sw	a4,912(s3)
   1e298:	38f9aa23          	sw	a5,916(s3)
   1e29c:	0086d593          	srli	a1,a3,0x8
   1e2a0:	36a99a23          	sh	a0,884(s3)
   1e2a4:	37098b23          	sb	a6,886(s3)
   1e2a8:	36d98ba3          	sb	a3,887(s3)
   1e2ac:	36b98c23          	sb	a1,888(s3)
   1e2b0:	6505                	lui	a0,0x1
   1e2b2:	31b50513          	addi	a0,a0,795 # 131b <.Lline_table_start1+0x10f0>
   1e2b6:	950a                	add	a0,a0,sp
   1e2b8:	6585                	lui	a1,0x1
   1e2ba:	33058593          	addi	a1,a1,816 # 1330 <.Lline_table_start1+0x1105>
   1e2be:	958a                	add	a1,a1,sp
   1e2c0:	4651                	li	a2,20
   1e2c2:	00000097          	auipc	ra,0x0
   1e2c6:	252080e7          	jalr	594(ra) # 1e514 <memcpy>
   1e2ca:	6505                	lui	a0,0x1
   1e2cc:	38c50513          	addi	a0,a0,908 # 138c <.Lline_table_start1+0x1161>
   1e2d0:	950a                	add	a0,a0,sp
   1e2d2:	6585                	lui	a1,0x1
   1e2d4:	31458593          	addi	a1,a1,788 # 1314 <.Lline_table_start1+0x10e9>
   1e2d8:	958a                	add	a1,a1,sp
   1e2da:	ffff4097          	auipc	ra,0xffff4
   1e2de:	7d6080e7          	jalr	2006(ra) # 12ab0 <_ZN20complex_dynamic_type3app17h372f6cc28e26e993E>
   1e2e2:	3ec9c503          	lbu	a0,1004(s3)
   1e2e6:	12051263          	bnez	a0,1e40a <_start+0x45ea>
   1e2ea:	3ee9c503          	lbu	a0,1006(s3)
   1e2ee:	3ed9c583          	lbu	a1,1005(s3)
   1e2f2:	3ef9c603          	lbu	a2,1007(s3)
   1e2f6:	3f09a403          	lw	s0,1008(s3)
   1e2fa:	0522                	slli	a0,a0,0x8
   1e2fc:	8d4d                	or	a0,a0,a1
   1e2fe:	44a99923          	sh	a0,1106(s3)
   1e302:	44c98a23          	sb	a2,1108(s3)
   1e306:	6505                	lui	a0,0x1
   1e308:	39450513          	addi	a0,a0,916 # 1394 <.Lline_table_start1+0x1169>
   1e30c:	00a105b3          	add	a1,sp,a0
   1e310:	6505                	lui	a0,0x1
   1e312:	33050513          	addi	a0,a0,816 # 1330 <.Lline_table_start1+0x1105>
   1e316:	950a                	add	a0,a0,sp
   1e318:	05c00613          	li	a2,92
   1e31c:	00000097          	auipc	ra,0x0
   1e320:	1f8080e7          	jalr	504(ra) # 1e514 <memcpy>
   1e324:	01845513          	srli	a0,s0,0x18
   1e328:	01045593          	srli	a1,s0,0x10
   1e32c:	00845613          	srli	a2,s0,0x8
   1e330:	44898aa3          	sb	s0,1109(s3)
   1e334:	44c98b23          	sb	a2,1110(s3)
   1e338:	44b98ba3          	sb	a1,1111(s3)
   1e33c:	44a98c23          	sb	a0,1112(s3)
   1e340:	6505                	lui	a0,0x1
   1e342:	3f950513          	addi	a0,a0,1017 # 13f9 <.Lline_table_start1+0x11ce>
   1e346:	950a                	add	a0,a0,sp
   1e348:	6585                	lui	a1,0x1
   1e34a:	33058593          	addi	a1,a1,816 # 1330 <.Lline_table_start1+0x1105>
   1e34e:	958a                	add	a1,a1,sp
   1e350:	05c00613          	li	a2,92
   1e354:	00000097          	auipc	ra,0x0
   1e358:	1c0080e7          	jalr	448(ra) # 1e514 <memcpy>
   1e35c:	6505                	lui	a0,0x1
   1e35e:	38c50513          	addi	a0,a0,908 # 138c <.Lline_table_start1+0x1161>
   1e362:	950a                	add	a0,a0,sp
   1e364:	6585                	lui	a1,0x1
   1e366:	3f258593          	addi	a1,a1,1010 # 13f2 <.Lline_table_start1+0x11c7>
   1e36a:	958a                	add	a1,a1,sp
   1e36c:	ffffa097          	auipc	ra,0xffffa
   1e370:	81e080e7          	jalr	-2018(ra) # 17b8a <_ZN20complex_dynamic_type3app17hc0f7a4903748c8a2E>
   1e374:	3ec9c503          	lbu	a0,1004(s3)
   1e378:	e949                	bnez	a0,1e40a <_start+0x45ea>
   1e37a:	3ee9c503          	lbu	a0,1006(s3)
   1e37e:	3ed9c583          	lbu	a1,1005(s3)
   1e382:	3ef9c603          	lbu	a2,1007(s3)
   1e386:	3f09a403          	lw	s0,1008(s3)
   1e38a:	0522                	slli	a0,a0,0x8
   1e38c:	8d4d                	or	a0,a0,a1
   1e38e:	4aa99b23          	sh	a0,1206(s3)
   1e392:	4ac98c23          	sb	a2,1208(s3)
   1e396:	6505                	lui	a0,0x1
   1e398:	39450513          	addi	a0,a0,916 # 1394 <.Lline_table_start1+0x1169>
   1e39c:	00a105b3          	add	a1,sp,a0
   1e3a0:	6505                	lui	a0,0x1
   1e3a2:	33050513          	addi	a0,a0,816 # 1330 <.Lline_table_start1+0x1105>
   1e3a6:	950a                	add	a0,a0,sp
   1e3a8:	02500613          	li	a2,37
   1e3ac:	00000097          	auipc	ra,0x0
   1e3b0:	168080e7          	jalr	360(ra) # 1e514 <memcpy>
   1e3b4:	01845513          	srli	a0,s0,0x18
   1e3b8:	01045593          	srli	a1,s0,0x10
   1e3bc:	00845613          	srli	a2,s0,0x8
   1e3c0:	4a898ca3          	sb	s0,1209(s3)
   1e3c4:	4ac98d23          	sb	a2,1210(s3)
   1e3c8:	4ab98da3          	sb	a1,1211(s3)
   1e3cc:	4aa98e23          	sb	a0,1212(s3)
   1e3d0:	6505                	lui	a0,0x1
   1e3d2:	45d50513          	addi	a0,a0,1117 # 145d <.Lline_table_start1+0x1232>
   1e3d6:	950a                	add	a0,a0,sp
   1e3d8:	6585                	lui	a1,0x1
   1e3da:	33058593          	addi	a1,a1,816 # 1330 <.Lline_table_start1+0x1105>
   1e3de:	958a                	add	a1,a1,sp
   1e3e0:	02500613          	li	a2,37
   1e3e4:	00000097          	auipc	ra,0x0
   1e3e8:	130080e7          	jalr	304(ra) # 1e514 <memcpy>
   1e3ec:	6505                	lui	a0,0x1
   1e3ee:	38c50513          	addi	a0,a0,908 # 138c <.Lline_table_start1+0x1161>
   1e3f2:	950a                	add	a0,a0,sp
   1e3f4:	6585                	lui	a1,0x1
   1e3f6:	45658593          	addi	a1,a1,1110 # 1456 <.Lline_table_start1+0x122b>
   1e3fa:	958a                	add	a1,a1,sp
   1e3fc:	ffff5097          	auipc	ra,0xffff5
   1e400:	b3e080e7          	jalr	-1218(ra) # 12f3a <_ZN20complex_dynamic_type3app17h3c03804a4701e8fbE>
   1e404:	3ec9c503          	lbu	a0,1004(s3)
   1e408:	c509                	beqz	a0,1e412 <_start+0x45f2>
   1e40a:	3f09a583          	lw	a1,1008(s3)
   1e40e:	b21fb06f          	j	19f2e <_start+0x10e>
   1e412:	3ee9c503          	lbu	a0,1006(s3)
   1e416:	3ed9c583          	lbu	a1,1005(s3)
   1e41a:	3ef9c603          	lbu	a2,1007(s3)
   1e41e:	3f09a403          	lw	s0,1008(s3)
   1e422:	0522                	slli	a0,a0,0x8
   1e424:	8d4d                	or	a0,a0,a1
   1e426:	4ea99123          	sh	a0,1250(s3)
   1e42a:	4ec98223          	sb	a2,1252(s3)
   1e42e:	6505                	lui	a0,0x1
   1e430:	39450513          	addi	a0,a0,916 # 1394 <.Lline_table_start1+0x1169>
   1e434:	00a105b3          	add	a1,sp,a0
   1e438:	6505                	lui	a0,0x1
   1e43a:	33050513          	addi	a0,a0,816 # 1330 <.Lline_table_start1+0x1105>
   1e43e:	950a                	add	a0,a0,sp
   1e440:	02300613          	li	a2,35
   1e444:	00000097          	auipc	ra,0x0
   1e448:	0d0080e7          	jalr	208(ra) # 1e514 <memcpy>
   1e44c:	01845513          	srli	a0,s0,0x18
   1e450:	01045593          	srli	a1,s0,0x10
   1e454:	00845613          	srli	a2,s0,0x8
   1e458:	4e8982a3          	sb	s0,1253(s3)
   1e45c:	4ec98323          	sb	a2,1254(s3)
   1e460:	4eb983a3          	sb	a1,1255(s3)
   1e464:	4ea98423          	sb	a0,1256(s3)
   1e468:	6505                	lui	a0,0x1
   1e46a:	48950513          	addi	a0,a0,1161 # 1489 <.Lline_table_start1+0x125e>
   1e46e:	950a                	add	a0,a0,sp
   1e470:	6585                	lui	a1,0x1
   1e472:	33058593          	addi	a1,a1,816 # 1330 <.Lline_table_start1+0x1105>
   1e476:	958a                	add	a1,a1,sp
   1e478:	02300613          	li	a2,35
   1e47c:	00000097          	auipc	ra,0x0
   1e480:	098080e7          	jalr	152(ra) # 1e514 <memcpy>
   1e484:	6505                	lui	a0,0x1
   1e486:	38c50513          	addi	a0,a0,908 # 138c <.Lline_table_start1+0x1161>
   1e48a:	950a                	add	a0,a0,sp
   1e48c:	6585                	lui	a1,0x1
   1e48e:	48258593          	addi	a1,a1,1154 # 1482 <.Lline_table_start1+0x1257>
   1e492:	958a                	add	a1,a1,sp
   1e494:	ffff8097          	auipc	ra,0xffff8
   1e498:	52e080e7          	jalr	1326(ra) # 169c2 <_ZN20complex_dynamic_type3app17ha4e4e182195f6b66E>
   1e49c:	3ec9c503          	lbu	a0,1004(s3)
   1e4a0:	3f09a583          	lw	a1,1008(s3)
   1e4a4:	a8dfb06f          	j	19f30 <_start+0x110>

0001e4a8 <memset>:
   1e4a8:	46c1                	li	a3,16
   1e4aa:	04d66f63          	bltu	a2,a3,1e508 <memset+0x60>
   1e4ae:	40a006b3          	neg	a3,a0
   1e4b2:	0036f813          	andi	a6,a3,3
   1e4b6:	01050733          	add	a4,a0,a6
   1e4ba:	00e57963          	bgeu	a0,a4,1e4cc <memset+0x24>
   1e4be:	87c2                	mv	a5,a6
   1e4c0:	86aa                	mv	a3,a0
   1e4c2:	00b68023          	sb	a1,0(a3)
   1e4c6:	17fd                	addi	a5,a5,-1
   1e4c8:	0685                	addi	a3,a3,1
   1e4ca:	ffe5                	bnez	a5,1e4c2 <memset+0x1a>
   1e4cc:	41060633          	sub	a2,a2,a6
   1e4d0:	ffc67693          	andi	a3,a2,-4
   1e4d4:	96ba                	add	a3,a3,a4
   1e4d6:	00d77e63          	bgeu	a4,a3,1e4f2 <memset+0x4a>
   1e4da:	0ff5f813          	zext.b	a6,a1
   1e4de:	010107b7          	lui	a5,0x1010
   1e4e2:	10178793          	addi	a5,a5,257 # 1010101 <_ZN17compiler_builtins3mem6memcpy17h90d0c987d2ef5a79E+0xff1be5>
   1e4e6:	02f807b3          	mul	a5,a6,a5
   1e4ea:	c31c                	sw	a5,0(a4)
   1e4ec:	0711                	addi	a4,a4,4
   1e4ee:	fed76ee3          	bltu	a4,a3,1e4ea <memset+0x42>
   1e4f2:	8a0d                	andi	a2,a2,3
   1e4f4:	00c68733          	add	a4,a3,a2
   1e4f8:	00e6f763          	bgeu	a3,a4,1e506 <memset+0x5e>
   1e4fc:	00b68023          	sb	a1,0(a3)
   1e500:	167d                	addi	a2,a2,-1
   1e502:	0685                	addi	a3,a3,1
   1e504:	fe65                	bnez	a2,1e4fc <memset+0x54>
   1e506:	8082                	ret
   1e508:	86aa                	mv	a3,a0
   1e50a:	00c50733          	add	a4,a0,a2
   1e50e:	fee567e3          	bltu	a0,a4,1e4fc <memset+0x54>
   1e512:	bfd5                	j	1e506 <memset+0x5e>

0001e514 <memcpy>:
   1e514:	00000317          	auipc	t1,0x0
   1e518:	00830067          	jr	8(t1) # 1e51c <_ZN17compiler_builtins3mem6memcpy17h90d0c987d2ef5a79E>

0001e51c <_ZN17compiler_builtins3mem6memcpy17h90d0c987d2ef5a79E>:
   1e51c:	1141                	addi	sp,sp,-16
   1e51e:	c622                	sw	s0,12(sp)
   1e520:	46c1                	li	a3,16
   1e522:	06d66363          	bltu	a2,a3,1e588 <_ZN17compiler_builtins3mem6memcpy17h90d0c987d2ef5a79E+0x6c>
   1e526:	40a006b3          	neg	a3,a0
   1e52a:	0036f813          	andi	a6,a3,3
   1e52e:	01050fb3          	add	t6,a0,a6
   1e532:	01f57d63          	bgeu	a0,t6,1e54c <_ZN17compiler_builtins3mem6memcpy17h90d0c987d2ef5a79E+0x30>
   1e536:	8742                	mv	a4,a6
   1e538:	86aa                	mv	a3,a0
   1e53a:	87ae                	mv	a5,a1
   1e53c:	0007c883          	lbu	a7,0(a5)
   1e540:	177d                	addi	a4,a4,-1
   1e542:	01168023          	sb	a7,0(a3)
   1e546:	0685                	addi	a3,a3,1
   1e548:	0785                	addi	a5,a5,1
   1e54a:	fb6d                	bnez	a4,1e53c <_ZN17compiler_builtins3mem6memcpy17h90d0c987d2ef5a79E+0x20>
   1e54c:	01058433          	add	s0,a1,a6
   1e550:	410608b3          	sub	a7,a2,a6
   1e554:	ffc8f713          	andi	a4,a7,-4
   1e558:	00347613          	andi	a2,s0,3
   1e55c:	00ef86b3          	add	a3,t6,a4
   1e560:	e621                	bnez	a2,1e5a8 <_ZN17compiler_builtins3mem6memcpy17h90d0c987d2ef5a79E+0x8c>
   1e562:	00dffa63          	bgeu	t6,a3,1e576 <_ZN17compiler_builtins3mem6memcpy17h90d0c987d2ef5a79E+0x5a>
   1e566:	8622                	mv	a2,s0
   1e568:	421c                	lw	a5,0(a2)
   1e56a:	00ffa023          	sw	a5,0(t6)
   1e56e:	0f91                	addi	t6,t6,4
   1e570:	0611                	addi	a2,a2,4
   1e572:	fedfebe3          	bltu	t6,a3,1e568 <_ZN17compiler_builtins3mem6memcpy17h90d0c987d2ef5a79E+0x4c>
   1e576:	00e405b3          	add	a1,s0,a4
   1e57a:	0038f613          	andi	a2,a7,3
   1e57e:	00c68733          	add	a4,a3,a2
   1e582:	00e6e863          	bltu	a3,a4,1e592 <_ZN17compiler_builtins3mem6memcpy17h90d0c987d2ef5a79E+0x76>
   1e586:	a831                	j	1e5a2 <_ZN17compiler_builtins3mem6memcpy17h90d0c987d2ef5a79E+0x86>
   1e588:	86aa                	mv	a3,a0
   1e58a:	00c50733          	add	a4,a0,a2
   1e58e:	00e57a63          	bgeu	a0,a4,1e5a2 <_ZN17compiler_builtins3mem6memcpy17h90d0c987d2ef5a79E+0x86>
   1e592:	0005c703          	lbu	a4,0(a1)
   1e596:	167d                	addi	a2,a2,-1
   1e598:	00e68023          	sb	a4,0(a3)
   1e59c:	0685                	addi	a3,a3,1
   1e59e:	0585                	addi	a1,a1,1
   1e5a0:	fa6d                	bnez	a2,1e592 <_ZN17compiler_builtins3mem6memcpy17h90d0c987d2ef5a79E+0x76>
   1e5a2:	4432                	lw	s0,12(sp)
   1e5a4:	0141                	addi	sp,sp,16
   1e5a6:	8082                	ret
   1e5a8:	4801                	li	a6,0
   1e5aa:	4791                	li	a5,4
   1e5ac:	c402                	sw	zero,8(sp)
   1e5ae:	40c783b3          	sub	t2,a5,a2
   1e5b2:	00810293          	addi	t0,sp,8
   1e5b6:	0013f313          	andi	t1,t2,1
   1e5ba:	00c2e2b3          	or	t0,t0,a2
   1e5be:	04031763          	bnez	t1,1e60c <_ZN17compiler_builtins3mem6memcpy17h90d0c987d2ef5a79E+0xf0>
   1e5c2:	0023f793          	andi	a5,t2,2
   1e5c6:	ebb9                	bnez	a5,1e61c <_ZN17compiler_builtins3mem6memcpy17h90d0c987d2ef5a79E+0x100>
   1e5c8:	4ea2                	lw	t4,8(sp)
   1e5ca:	00361813          	slli	a6,a2,0x3
   1e5ce:	004f8793          	addi	a5,t6,4
   1e5d2:	40c40f33          	sub	t5,s0,a2
   1e5d6:	06d7f363          	bgeu	a5,a3,1e63c <_ZN17compiler_builtins3mem6memcpy17h90d0c987d2ef5a79E+0x120>
   1e5da:	410007b3          	neg	a5,a6
   1e5de:	0187fe13          	andi	t3,a5,24
   1e5e2:	004f2283          	lw	t0,4(t5)
   1e5e6:	004f0393          	addi	t2,t5,4
   1e5ea:	010ed5b3          	srl	a1,t4,a6
   1e5ee:	004f8313          	addi	t1,t6,4
   1e5f2:	01c297b3          	sll	a5,t0,t3
   1e5f6:	8ddd                	or	a1,a1,a5
   1e5f8:	008f8793          	addi	a5,t6,8
   1e5fc:	00bfa023          	sw	a1,0(t6)
   1e600:	8f9a                	mv	t6,t1
   1e602:	8f1e                	mv	t5,t2
   1e604:	8e96                	mv	t4,t0
   1e606:	fcd7eee3          	bltu	a5,a3,1e5e2 <_ZN17compiler_builtins3mem6memcpy17h90d0c987d2ef5a79E+0xc6>
   1e60a:	a825                	j	1e642 <_ZN17compiler_builtins3mem6memcpy17h90d0c987d2ef5a79E+0x126>
   1e60c:	00044783          	lbu	a5,0(s0)
   1e610:	00f28023          	sb	a5,0(t0)
   1e614:	4805                	li	a6,1
   1e616:	0023f793          	andi	a5,t2,2
   1e61a:	d7dd                	beqz	a5,1e5c8 <_ZN17compiler_builtins3mem6memcpy17h90d0c987d2ef5a79E+0xac>
   1e61c:	010407b3          	add	a5,s0,a6
   1e620:	00079783          	lh	a5,0(a5)
   1e624:	9816                	add	a6,a6,t0
   1e626:	00f81023          	sh	a5,0(a6)
   1e62a:	4ea2                	lw	t4,8(sp)
   1e62c:	00361813          	slli	a6,a2,0x3
   1e630:	004f8793          	addi	a5,t6,4
   1e634:	40c40f33          	sub	t5,s0,a2
   1e638:	fad7e1e3          	bltu	a5,a3,1e5da <_ZN17compiler_builtins3mem6memcpy17h90d0c987d2ef5a79E+0xbe>
   1e63c:	82f6                	mv	t0,t4
   1e63e:	83fa                	mv	t2,t5
   1e640:	837e                	mv	t1,t6
   1e642:	00010223          	sb	zero,4(sp)
   1e646:	4785                	li	a5,1
   1e648:	00010123          	sb	zero,2(sp)
   1e64c:	00f61763          	bne	a2,a5,1e65a <_ZN17compiler_builtins3mem6memcpy17h90d0c987d2ef5a79E+0x13e>
   1e650:	4781                	li	a5,0
   1e652:	4e01                	li	t3,0
   1e654:	4e81                	li	t4,0
   1e656:	0050                	addi	a2,sp,4
   1e658:	a819                	j	1e66e <_ZN17compiler_builtins3mem6memcpy17h90d0c987d2ef5a79E+0x152>
   1e65a:	0043c783          	lbu	a5,4(t2)
   1e65e:	0053ce03          	lbu	t3,5(t2)
   1e662:	4e89                	li	t4,2
   1e664:	00f10223          	sb	a5,4(sp)
   1e668:	0e22                	slli	t3,t3,0x8
   1e66a:	00210613          	addi	a2,sp,2
   1e66e:	00147593          	andi	a1,s0,1
   1e672:	e199                	bnez	a1,1e678 <_ZN17compiler_builtins3mem6memcpy17h90d0c987d2ef5a79E+0x15c>
   1e674:	4601                	li	a2,0
   1e676:	a821                	j	1e68e <_ZN17compiler_builtins3mem6memcpy17h90d0c987d2ef5a79E+0x172>
   1e678:	0391                	addi	t2,t2,4
   1e67a:	93f6                	add	t2,t2,t4
   1e67c:	0003c583          	lbu	a1,0(t2)
   1e680:	00b60023          	sb	a1,0(a2)
   1e684:	00214603          	lbu	a2,2(sp)
   1e688:	00414783          	lbu	a5,4(sp)
   1e68c:	0642                	slli	a2,a2,0x10
   1e68e:	8e5d                	or	a2,a2,a5
   1e690:	0102d5b3          	srl	a1,t0,a6
   1e694:	410007b3          	neg	a5,a6
   1e698:	00ce6633          	or	a2,t3,a2
   1e69c:	8be1                	andi	a5,a5,24
   1e69e:	00f61633          	sll	a2,a2,a5
   1e6a2:	8dd1                	or	a1,a1,a2
   1e6a4:	00b32023          	sw	a1,0(t1)
   1e6a8:	00e405b3          	add	a1,s0,a4
   1e6ac:	0038f613          	andi	a2,a7,3
   1e6b0:	00c68733          	add	a4,a3,a2
   1e6b4:	ece6efe3          	bltu	a3,a4,1e592 <_ZN17compiler_builtins3mem6memcpy17h90d0c987d2ef5a79E+0x76>
   1e6b8:	b5ed                	j	1e5a2 <_ZN17compiler_builtins3mem6memcpy17h90d0c987d2ef5a79E+0x86>
