
target/riscv32imc-unknown-none-elf/opt-2/examples/complex_dynamic_type:     file format elf32-littleriscv

Sections:
Idx Name          Size      VMA       LMA       File off  Algn
  0 .eh_frame     00000060  000100d4  000100d4  000000d4  2**2
                  CONTENTS, ALLOC, LOAD, READONLY, DATA
  1 .text         0000d586  00011134  00011134  00000134  2**1
                  CONTENTS, ALLOC, LOAD, READONLY, CODE
  2 .comment      0000008b  00000000  00000000  0000d6ba  2**0
                  CONTENTS, READONLY
  3 .riscv.attributes 0000002f  00000000  00000000  0000d745  2**0
                  CONTENTS, READONLY

Disassembly of section .text:

00011134 <_ZN20complex_dynamic_type3app17h0118e5284f3d8caaE>:
   11134:	7131                	addi	sp,sp,-192
   11136:	df06                	sw	ra,188(sp)
   11138:	dd22                	sw	s0,184(sp)
   1113a:	db26                	sw	s1,180(sp)
   1113c:	d94a                	sw	s2,176(sp)
   1113e:	d74e                	sw	s3,172(sp)
   11140:	d552                	sw	s4,168(sp)
   11142:	d356                	sw	s5,164(sp)
   11144:	8aaa                	mv	s5,a0
   11146:	4409                	li	s0,2
   11148:	00810123          	sb	s0,2(sp)
   1114c:	00310493          	addi	s1,sp,3
   11150:	05100613          	li	a2,81
   11154:	8526                	mv	a0,s1
   11156:	0000d097          	auipc	ra,0xd
   1115a:	3be080e7          	jalr	958(ra) # 1e514 <memcpy>
   1115e:	05510a13          	addi	s4,sp,85
   11162:	04f00613          	li	a2,79
   11166:	8552                	mv	a0,s4
   11168:	4581                	li	a1,0
   1116a:	0000d097          	auipc	ra,0xd
   1116e:	33e080e7          	jalr	830(ra) # 1e4a8 <memset>
   11172:	8626                	mv	a2,s1
   11174:	04810a23          	sb	s0,84(sp)
   11178:	6509                	lui	a0,0x2
   1117a:	4491                	li	s1,4
   1117c:	4591                	li	a1,4
   1117e:	0ee50793          	addi	a5,a0,238 # 20ee <.Lline_table_start1+0x1ec3>
   11182:	05100693          	li	a3,81
   11186:	4711                	li	a4,4
   11188:	853e                	mv	a0,a5
   1118a:	00000073          	ecall
   1118e:	00851863          	bne	a0,s0,1119e <_ZN20complex_dynamic_type3app17h0118e5284f3d8caaE+0x6a>
   11192:	4505                	li	a0,1
   11194:	00aa8023          	sb	a0,0(s5)
   11198:	00baa223          	sw	a1,4(s5)
   1119c:	a0bd                	j	1120a <_ZN20complex_dynamic_type3app17h0118e5284f3d8caaE+0xd6>
   1119e:	853e                	mv	a0,a5
   111a0:	8652                	mv	a2,s4
   111a2:	00910123          	sb	s1,2(sp)
   111a6:	478d                	li	a5,3
   111a8:	45a5                	li	a1,9
   111aa:	04f00693          	li	a3,79
   111ae:	470d                	li	a4,3
   111b0:	00000073          	ecall
   111b4:	00851d63          	bne	a0,s0,111ce <_ZN20complex_dynamic_type3app17h0118e5284f3d8caaE+0x9a>
   111b8:	05414703          	lbu	a4,84(sp)
   111bc:	4505                	li	a0,1
   111be:	4609                	li	a2,2
   111c0:	00aa8023          	sb	a0,0(s5)
   111c4:	00baa223          	sw	a1,4(s5)
   111c8:	02c71963          	bne	a4,a2,111fa <_ZN20complex_dynamic_type3app17h0118e5284f3d8caaE+0xc6>
   111cc:	a83d                	j	1120a <_ZN20complex_dynamic_type3app17h0118e5284f3d8caaE+0xd6>
   111ce:	4681                	li	a3,0
   111d0:	04f10a23          	sb	a5,84(sp)
   111d4:	6509                	lui	a0,0x2
   111d6:	4591                	li	a1,4
   111d8:	4625                	li	a2,9
   111da:	4709                	li	a4,2
   111dc:	0ee50513          	addi	a0,a0,238 # 20ee <.Lline_table_start1+0x1ec3>
   111e0:	08000793          	li	a5,128
   111e4:	00000073          	ecall
   111e8:	4609                	li	a2,2
   111ea:	04f57663          	bgeu	a0,a5,11236 <_ZN20complex_dynamic_type3app17h0118e5284f3d8caaE+0x102>
   111ee:	4505                	li	a0,1
   111f0:	00aa8023          	sb	a0,0(s5)
   111f4:	00baa223          	sw	a1,4(s5)
   111f8:	470d                	li	a4,3
   111fa:	6509                	lui	a0,0x2
   111fc:	0ee50513          	addi	a0,a0,238 # 20ee <.Lline_table_start1+0x1ec3>
   11200:	45a5                	li	a1,9
   11202:	4601                	li	a2,0
   11204:	4681                	li	a3,0
   11206:	00000073          	ecall
   1120a:	00214703          	lbu	a4,2(sp)
   1120e:	4509                	li	a0,2
   11210:	00a70a63          	beq	a4,a0,11224 <_ZN20complex_dynamic_type3app17h0118e5284f3d8caaE+0xf0>
   11214:	6509                	lui	a0,0x2
   11216:	0ee50513          	addi	a0,a0,238 # 20ee <.Lline_table_start1+0x1ec3>
   1121a:	4591                	li	a1,4
   1121c:	4601                	li	a2,0
   1121e:	4681                	li	a3,0
   11220:	00000073          	ecall
   11224:	50fa                	lw	ra,188(sp)
   11226:	546a                	lw	s0,184(sp)
   11228:	54da                	lw	s1,180(sp)
   1122a:	594a                	lw	s2,176(sp)
   1122c:	59ba                	lw	s3,172(sp)
   1122e:	5a2a                	lw	s4,168(sp)
   11230:	5a9a                	lw	s5,164(sp)
   11232:	6129                	addi	sp,sp,192
   11234:	8082                	ret
   11236:	00214703          	lbu	a4,2(sp)
   1123a:	00c71463          	bne	a4,a2,11242 <_ZN20complex_dynamic_type3app17h0118e5284f3d8caaE+0x10e>
   1123e:	470d                	li	a4,3
   11240:	a825                	j	11278 <_ZN20complex_dynamic_type3app17h0118e5284f3d8caaE+0x144>
   11242:	6509                	lui	a0,0x2
   11244:	0ee50513          	addi	a0,a0,238 # 20ee <.Lline_table_start1+0x1ec3>
   11248:	4591                	li	a1,4
   1124a:	4601                	li	a2,0
   1124c:	4681                	li	a3,0
   1124e:	00000073          	ecall
   11252:	05414703          	lbu	a4,84(sp)
   11256:	4509                	li	a0,2
   11258:	00a10123          	sb	a0,2(sp)
   1125c:	00a71e63          	bne	a4,a0,11278 <_ZN20complex_dynamic_type3app17h0118e5284f3d8caaE+0x144>
   11260:	001a8513          	addi	a0,s5,1
   11264:	04f00613          	li	a2,79
   11268:	85d2                	mv	a1,s4
   1126a:	0000d097          	auipc	ra,0xd
   1126e:	2aa080e7          	jalr	682(ra) # 1e514 <memcpy>
   11272:	000a8023          	sb	zero,0(s5)
   11276:	b77d                	j	11224 <_ZN20complex_dynamic_type3app17h0118e5284f3d8caaE+0xf0>
   11278:	6509                	lui	a0,0x2
   1127a:	0ee50913          	addi	s2,a0,238 # 20ee <.Lline_table_start1+0x1ec3>
   1127e:	45a5                	li	a1,9
   11280:	854a                	mv	a0,s2
   11282:	4601                	li	a2,0
   11284:	4681                	li	a3,0
   11286:	00000073          	ecall
   1128a:	00214983          	lbu	s3,2(sp)
   1128e:	001a8513          	addi	a0,s5,1
   11292:	04f00613          	li	a2,79
   11296:	85d2                	mv	a1,s4
   11298:	0000d097          	auipc	ra,0xd
   1129c:	27c080e7          	jalr	636(ra) # 1e514 <memcpy>
   112a0:	4509                	li	a0,2
   112a2:	000a8023          	sb	zero,0(s5)
   112a6:	f6a98fe3          	beq	s3,a0,11224 <_ZN20complex_dynamic_type3app17h0118e5284f3d8caaE+0xf0>
   112aa:	4591                	li	a1,4
   112ac:	854a                	mv	a0,s2
   112ae:	4601                	li	a2,0
   112b0:	4681                	li	a3,0
   112b2:	874e                	mv	a4,s3
   112b4:	00000073          	ecall
   112b8:	b7b5                	j	11224 <_ZN20complex_dynamic_type3app17h0118e5284f3d8caaE+0xf0>

000112ba <_ZN20complex_dynamic_type3app17h0352a65525d38bc5E>:
   112ba:	7175                	addi	sp,sp,-144
   112bc:	c706                	sw	ra,140(sp)
   112be:	c522                	sw	s0,136(sp)
   112c0:	c326                	sw	s1,132(sp)
   112c2:	c14a                	sw	s2,128(sp)
   112c4:	dece                	sw	s3,124(sp)
   112c6:	dcd2                	sw	s4,120(sp)
   112c8:	dad6                	sw	s5,116(sp)
   112ca:	8aaa                	mv	s5,a0
   112cc:	4409                	li	s0,2
   112ce:	00810223          	sb	s0,4(sp)
   112d2:	00510493          	addi	s1,sp,5
   112d6:	03c00613          	li	a2,60
   112da:	8526                	mv	a0,s1
   112dc:	0000d097          	auipc	ra,0xd
   112e0:	238080e7          	jalr	568(ra) # 1e514 <memcpy>
   112e4:	04210a13          	addi	s4,sp,66
   112e8:	03200613          	li	a2,50
   112ec:	8552                	mv	a0,s4
   112ee:	4581                	li	a1,0
   112f0:	0000d097          	auipc	ra,0xd
   112f4:	1b8080e7          	jalr	440(ra) # 1e4a8 <memset>
   112f8:	8626                	mv	a2,s1
   112fa:	048100a3          	sb	s0,65(sp)
   112fe:	6509                	lui	a0,0x2
   11300:	4491                	li	s1,4
   11302:	4599                	li	a1,6
   11304:	b1e50793          	addi	a5,a0,-1250 # 1b1e <.Lline_table_start1+0x18f3>
   11308:	03c00693          	li	a3,60
   1130c:	4711                	li	a4,4
   1130e:	853e                	mv	a0,a5
   11310:	00000073          	ecall
   11314:	00851863          	bne	a0,s0,11324 <_ZN20complex_dynamic_type3app17h0352a65525d38bc5E+0x6a>
   11318:	4505                	li	a0,1
   1131a:	00aa8023          	sb	a0,0(s5)
   1131e:	00baa223          	sw	a1,4(s5)
   11322:	a0bd                	j	11390 <_ZN20complex_dynamic_type3app17h0352a65525d38bc5E+0xd6>
   11324:	853e                	mv	a0,a5
   11326:	8652                	mv	a2,s4
   11328:	00910223          	sb	s1,4(sp)
   1132c:	478d                	li	a5,3
   1132e:	45a1                	li	a1,8
   11330:	03200693          	li	a3,50
   11334:	470d                	li	a4,3
   11336:	00000073          	ecall
   1133a:	00851d63          	bne	a0,s0,11354 <_ZN20complex_dynamic_type3app17h0352a65525d38bc5E+0x9a>
   1133e:	04114703          	lbu	a4,65(sp)
   11342:	4505                	li	a0,1
   11344:	4609                	li	a2,2
   11346:	00aa8023          	sb	a0,0(s5)
   1134a:	00baa223          	sw	a1,4(s5)
   1134e:	02c71963          	bne	a4,a2,11380 <_ZN20complex_dynamic_type3app17h0352a65525d38bc5E+0xc6>
   11352:	a83d                	j	11390 <_ZN20complex_dynamic_type3app17h0352a65525d38bc5E+0xd6>
   11354:	4681                	li	a3,0
   11356:	04f100a3          	sb	a5,65(sp)
   1135a:	6509                	lui	a0,0x2
   1135c:	4599                	li	a1,6
   1135e:	4621                	li	a2,8
   11360:	4709                	li	a4,2
   11362:	b1e50513          	addi	a0,a0,-1250 # 1b1e <.Lline_table_start1+0x18f3>
   11366:	08000793          	li	a5,128
   1136a:	00000073          	ecall
   1136e:	4609                	li	a2,2
   11370:	04f57663          	bgeu	a0,a5,113bc <_ZN20complex_dynamic_type3app17h0352a65525d38bc5E+0x102>
   11374:	4505                	li	a0,1
   11376:	00aa8023          	sb	a0,0(s5)
   1137a:	00baa223          	sw	a1,4(s5)
   1137e:	470d                	li	a4,3
   11380:	6509                	lui	a0,0x2
   11382:	b1e50513          	addi	a0,a0,-1250 # 1b1e <.Lline_table_start1+0x18f3>
   11386:	45a1                	li	a1,8
   11388:	4601                	li	a2,0
   1138a:	4681                	li	a3,0
   1138c:	00000073          	ecall
   11390:	00414703          	lbu	a4,4(sp)
   11394:	4509                	li	a0,2
   11396:	00a70a63          	beq	a4,a0,113aa <_ZN20complex_dynamic_type3app17h0352a65525d38bc5E+0xf0>
   1139a:	6509                	lui	a0,0x2
   1139c:	b1e50513          	addi	a0,a0,-1250 # 1b1e <.Lline_table_start1+0x18f3>
   113a0:	4599                	li	a1,6
   113a2:	4601                	li	a2,0
   113a4:	4681                	li	a3,0
   113a6:	00000073          	ecall
   113aa:	40ba                	lw	ra,140(sp)
   113ac:	442a                	lw	s0,136(sp)
   113ae:	449a                	lw	s1,132(sp)
   113b0:	490a                	lw	s2,128(sp)
   113b2:	59f6                	lw	s3,124(sp)
   113b4:	5a66                	lw	s4,120(sp)
   113b6:	5ad6                	lw	s5,116(sp)
   113b8:	6149                	addi	sp,sp,144
   113ba:	8082                	ret
   113bc:	00414703          	lbu	a4,4(sp)
   113c0:	00c71463          	bne	a4,a2,113c8 <_ZN20complex_dynamic_type3app17h0352a65525d38bc5E+0x10e>
   113c4:	470d                	li	a4,3
   113c6:	a825                	j	113fe <_ZN20complex_dynamic_type3app17h0352a65525d38bc5E+0x144>
   113c8:	6509                	lui	a0,0x2
   113ca:	b1e50513          	addi	a0,a0,-1250 # 1b1e <.Lline_table_start1+0x18f3>
   113ce:	4599                	li	a1,6
   113d0:	4601                	li	a2,0
   113d2:	4681                	li	a3,0
   113d4:	00000073          	ecall
   113d8:	04114703          	lbu	a4,65(sp)
   113dc:	4509                	li	a0,2
   113de:	00a10223          	sb	a0,4(sp)
   113e2:	00a71e63          	bne	a4,a0,113fe <_ZN20complex_dynamic_type3app17h0352a65525d38bc5E+0x144>
   113e6:	001a8513          	addi	a0,s5,1
   113ea:	03200613          	li	a2,50
   113ee:	85d2                	mv	a1,s4
   113f0:	0000d097          	auipc	ra,0xd
   113f4:	124080e7          	jalr	292(ra) # 1e514 <memcpy>
   113f8:	000a8023          	sb	zero,0(s5)
   113fc:	b77d                	j	113aa <_ZN20complex_dynamic_type3app17h0352a65525d38bc5E+0xf0>
   113fe:	6509                	lui	a0,0x2
   11400:	b1e50913          	addi	s2,a0,-1250 # 1b1e <.Lline_table_start1+0x18f3>
   11404:	45a1                	li	a1,8
   11406:	854a                	mv	a0,s2
   11408:	4601                	li	a2,0
   1140a:	4681                	li	a3,0
   1140c:	00000073          	ecall
   11410:	00414983          	lbu	s3,4(sp)
   11414:	001a8513          	addi	a0,s5,1
   11418:	03200613          	li	a2,50
   1141c:	85d2                	mv	a1,s4
   1141e:	0000d097          	auipc	ra,0xd
   11422:	0f6080e7          	jalr	246(ra) # 1e514 <memcpy>
   11426:	4509                	li	a0,2
   11428:	000a8023          	sb	zero,0(s5)
   1142c:	f6a98fe3          	beq	s3,a0,113aa <_ZN20complex_dynamic_type3app17h0352a65525d38bc5E+0xf0>
   11430:	4599                	li	a1,6
   11432:	854a                	mv	a0,s2
   11434:	4601                	li	a2,0
   11436:	4681                	li	a3,0
   11438:	874e                	mv	a4,s3
   1143a:	00000073          	ecall
   1143e:	b7b5                	j	113aa <_ZN20complex_dynamic_type3app17h0352a65525d38bc5E+0xf0>

00011440 <_ZN20complex_dynamic_type3app17h038f475d1a9862d1E>:
   11440:	7171                	addi	sp,sp,-176
   11442:	d706                	sw	ra,172(sp)
   11444:	d522                	sw	s0,168(sp)
   11446:	d326                	sw	s1,164(sp)
   11448:	d14a                	sw	s2,160(sp)
   1144a:	cf4e                	sw	s3,156(sp)
   1144c:	cd52                	sw	s4,152(sp)
   1144e:	cb56                	sw	s5,148(sp)
   11450:	8aaa                	mv	s5,a0
   11452:	4409                	li	s0,2
   11454:	008102a3          	sb	s0,5(sp)
   11458:	00610493          	addi	s1,sp,6
   1145c:	02a00613          	li	a2,42
   11460:	8526                	mv	a0,s1
   11462:	0000d097          	auipc	ra,0xd
   11466:	0b2080e7          	jalr	178(ra) # 1e514 <memcpy>
   1146a:	03110a13          	addi	s4,sp,49
   1146e:	06300613          	li	a2,99
   11472:	8552                	mv	a0,s4
   11474:	4581                	li	a1,0
   11476:	0000d097          	auipc	ra,0xd
   1147a:	032080e7          	jalr	50(ra) # 1e4a8 <memset>
   1147e:	8626                	mv	a2,s1
   11480:	02810823          	sb	s0,48(sp)
   11484:	6509                	lui	a0,0x2
   11486:	4491                	li	s1,4
   11488:	4591                	li	a1,4
   1148a:	c7c50793          	addi	a5,a0,-900 # 1c7c <.Lline_table_start1+0x1a51>
   1148e:	02a00693          	li	a3,42
   11492:	4711                	li	a4,4
   11494:	853e                	mv	a0,a5
   11496:	00000073          	ecall
   1149a:	00851863          	bne	a0,s0,114aa <_ZN20complex_dynamic_type3app17h038f475d1a9862d1E+0x6a>
   1149e:	4505                	li	a0,1
   114a0:	00aa8023          	sb	a0,0(s5)
   114a4:	00baa223          	sw	a1,4(s5)
   114a8:	a0bd                	j	11516 <_ZN20complex_dynamic_type3app17h038f475d1a9862d1E+0xd6>
   114aa:	853e                	mv	a0,a5
   114ac:	4581                	li	a1,0
   114ae:	8652                	mv	a2,s4
   114b0:	009102a3          	sb	s1,5(sp)
   114b4:	478d                	li	a5,3
   114b6:	06300693          	li	a3,99
   114ba:	470d                	li	a4,3
   114bc:	00000073          	ecall
   114c0:	00851d63          	bne	a0,s0,114da <_ZN20complex_dynamic_type3app17h038f475d1a9862d1E+0x9a>
   114c4:	03014703          	lbu	a4,48(sp)
   114c8:	4505                	li	a0,1
   114ca:	4609                	li	a2,2
   114cc:	00aa8023          	sb	a0,0(s5)
   114d0:	00baa223          	sw	a1,4(s5)
   114d4:	02c71963          	bne	a4,a2,11506 <_ZN20complex_dynamic_type3app17h038f475d1a9862d1E+0xc6>
   114d8:	a83d                	j	11516 <_ZN20complex_dynamic_type3app17h038f475d1a9862d1E+0xd6>
   114da:	4601                	li	a2,0
   114dc:	4681                	li	a3,0
   114de:	02f10823          	sb	a5,48(sp)
   114e2:	6509                	lui	a0,0x2
   114e4:	4591                	li	a1,4
   114e6:	4709                	li	a4,2
   114e8:	c7c50513          	addi	a0,a0,-900 # 1c7c <.Lline_table_start1+0x1a51>
   114ec:	08000793          	li	a5,128
   114f0:	00000073          	ecall
   114f4:	4609                	li	a2,2
   114f6:	04f57663          	bgeu	a0,a5,11542 <_ZN20complex_dynamic_type3app17h038f475d1a9862d1E+0x102>
   114fa:	4505                	li	a0,1
   114fc:	00aa8023          	sb	a0,0(s5)
   11500:	00baa223          	sw	a1,4(s5)
   11504:	470d                	li	a4,3
   11506:	6509                	lui	a0,0x2
   11508:	c7c50513          	addi	a0,a0,-900 # 1c7c <.Lline_table_start1+0x1a51>
   1150c:	4581                	li	a1,0
   1150e:	4601                	li	a2,0
   11510:	4681                	li	a3,0
   11512:	00000073          	ecall
   11516:	00514703          	lbu	a4,5(sp)
   1151a:	4509                	li	a0,2
   1151c:	00a70a63          	beq	a4,a0,11530 <_ZN20complex_dynamic_type3app17h038f475d1a9862d1E+0xf0>
   11520:	6509                	lui	a0,0x2
   11522:	c7c50513          	addi	a0,a0,-900 # 1c7c <.Lline_table_start1+0x1a51>
   11526:	4591                	li	a1,4
   11528:	4601                	li	a2,0
   1152a:	4681                	li	a3,0
   1152c:	00000073          	ecall
   11530:	50ba                	lw	ra,172(sp)
   11532:	542a                	lw	s0,168(sp)
   11534:	549a                	lw	s1,164(sp)
   11536:	590a                	lw	s2,160(sp)
   11538:	49fa                	lw	s3,156(sp)
   1153a:	4a6a                	lw	s4,152(sp)
   1153c:	4ada                	lw	s5,148(sp)
   1153e:	614d                	addi	sp,sp,176
   11540:	8082                	ret
   11542:	00514703          	lbu	a4,5(sp)
   11546:	00c71463          	bne	a4,a2,1154e <_ZN20complex_dynamic_type3app17h038f475d1a9862d1E+0x10e>
   1154a:	470d                	li	a4,3
   1154c:	a825                	j	11584 <_ZN20complex_dynamic_type3app17h038f475d1a9862d1E+0x144>
   1154e:	6509                	lui	a0,0x2
   11550:	c7c50513          	addi	a0,a0,-900 # 1c7c <.Lline_table_start1+0x1a51>
   11554:	4591                	li	a1,4
   11556:	4601                	li	a2,0
   11558:	4681                	li	a3,0
   1155a:	00000073          	ecall
   1155e:	03014703          	lbu	a4,48(sp)
   11562:	4509                	li	a0,2
   11564:	00a102a3          	sb	a0,5(sp)
   11568:	00a71e63          	bne	a4,a0,11584 <_ZN20complex_dynamic_type3app17h038f475d1a9862d1E+0x144>
   1156c:	001a8513          	addi	a0,s5,1
   11570:	06300613          	li	a2,99
   11574:	85d2                	mv	a1,s4
   11576:	0000d097          	auipc	ra,0xd
   1157a:	f9e080e7          	jalr	-98(ra) # 1e514 <memcpy>
   1157e:	000a8023          	sb	zero,0(s5)
   11582:	b77d                	j	11530 <_ZN20complex_dynamic_type3app17h038f475d1a9862d1E+0xf0>
   11584:	6509                	lui	a0,0x2
   11586:	c7c50913          	addi	s2,a0,-900 # 1c7c <.Lline_table_start1+0x1a51>
   1158a:	854a                	mv	a0,s2
   1158c:	4581                	li	a1,0
   1158e:	4601                	li	a2,0
   11590:	4681                	li	a3,0
   11592:	00000073          	ecall
   11596:	00514983          	lbu	s3,5(sp)
   1159a:	001a8513          	addi	a0,s5,1
   1159e:	06300613          	li	a2,99
   115a2:	85d2                	mv	a1,s4
   115a4:	0000d097          	auipc	ra,0xd
   115a8:	f70080e7          	jalr	-144(ra) # 1e514 <memcpy>
   115ac:	4509                	li	a0,2
   115ae:	000a8023          	sb	zero,0(s5)
   115b2:	f6a98fe3          	beq	s3,a0,11530 <_ZN20complex_dynamic_type3app17h038f475d1a9862d1E+0xf0>
   115b6:	4591                	li	a1,4
   115b8:	854a                	mv	a0,s2
   115ba:	4601                	li	a2,0
   115bc:	4681                	li	a3,0
   115be:	874e                	mv	a4,s3
   115c0:	00000073          	ecall
   115c4:	b7b5                	j	11530 <_ZN20complex_dynamic_type3app17h038f475d1a9862d1E+0xf0>

000115c6 <_ZN20complex_dynamic_type3app17h040554d2fb744f89E>:
   115c6:	7135                	addi	sp,sp,-160
   115c8:	cf06                	sw	ra,156(sp)
   115ca:	cd22                	sw	s0,152(sp)
   115cc:	cb26                	sw	s1,148(sp)
   115ce:	c94a                	sw	s2,144(sp)
   115d0:	c74e                	sw	s3,140(sp)
   115d2:	c552                	sw	s4,136(sp)
   115d4:	c356                	sw	s5,132(sp)
   115d6:	8aaa                	mv	s5,a0
   115d8:	4409                	li	s0,2
   115da:	008104a3          	sb	s0,9(sp)
   115de:	00a10493          	addi	s1,sp,10
   115e2:	03100613          	li	a2,49
   115e6:	8526                	mv	a0,s1
   115e8:	0000d097          	auipc	ra,0xd
   115ec:	f2c080e7          	jalr	-212(ra) # 1e514 <memcpy>
   115f0:	03c10a13          	addi	s4,sp,60
   115f4:	04800613          	li	a2,72
   115f8:	8552                	mv	a0,s4
   115fa:	4581                	li	a1,0
   115fc:	0000d097          	auipc	ra,0xd
   11600:	eac080e7          	jalr	-340(ra) # 1e4a8 <memset>
   11604:	8626                	mv	a2,s1
   11606:	02810da3          	sb	s0,59(sp)
   1160a:	6509                	lui	a0,0x2
   1160c:	4491                	li	s1,4
   1160e:	4591                	li	a1,4
   11610:	80e50793          	addi	a5,a0,-2034 # 180e <.Lline_table_start1+0x15e3>
   11614:	03100693          	li	a3,49
   11618:	4711                	li	a4,4
   1161a:	853e                	mv	a0,a5
   1161c:	00000073          	ecall
   11620:	00851863          	bne	a0,s0,11630 <_ZN20complex_dynamic_type3app17h040554d2fb744f89E+0x6a>
   11624:	4505                	li	a0,1
   11626:	00aa8023          	sb	a0,0(s5)
   1162a:	00baa223          	sw	a1,4(s5)
   1162e:	a0bd                	j	1169c <_ZN20complex_dynamic_type3app17h040554d2fb744f89E+0xd6>
   11630:	853e                	mv	a0,a5
   11632:	8652                	mv	a2,s4
   11634:	009104a3          	sb	s1,9(sp)
   11638:	478d                	li	a5,3
   1163a:	458d                	li	a1,3
   1163c:	04800693          	li	a3,72
   11640:	470d                	li	a4,3
   11642:	00000073          	ecall
   11646:	00851d63          	bne	a0,s0,11660 <_ZN20complex_dynamic_type3app17h040554d2fb744f89E+0x9a>
   1164a:	03b14703          	lbu	a4,59(sp)
   1164e:	4505                	li	a0,1
   11650:	4609                	li	a2,2
   11652:	00aa8023          	sb	a0,0(s5)
   11656:	00baa223          	sw	a1,4(s5)
   1165a:	02c71963          	bne	a4,a2,1168c <_ZN20complex_dynamic_type3app17h040554d2fb744f89E+0xc6>
   1165e:	a83d                	j	1169c <_ZN20complex_dynamic_type3app17h040554d2fb744f89E+0xd6>
   11660:	4681                	li	a3,0
   11662:	02f10da3          	sb	a5,59(sp)
   11666:	6509                	lui	a0,0x2
   11668:	4591                	li	a1,4
   1166a:	460d                	li	a2,3
   1166c:	4709                	li	a4,2
   1166e:	80e50513          	addi	a0,a0,-2034 # 180e <.Lline_table_start1+0x15e3>
   11672:	08000793          	li	a5,128
   11676:	00000073          	ecall
   1167a:	4609                	li	a2,2
   1167c:	04f57663          	bgeu	a0,a5,116c8 <_ZN20complex_dynamic_type3app17h040554d2fb744f89E+0x102>
   11680:	4505                	li	a0,1
   11682:	00aa8023          	sb	a0,0(s5)
   11686:	00baa223          	sw	a1,4(s5)
   1168a:	470d                	li	a4,3
   1168c:	6509                	lui	a0,0x2
   1168e:	80e50513          	addi	a0,a0,-2034 # 180e <.Lline_table_start1+0x15e3>
   11692:	458d                	li	a1,3
   11694:	4601                	li	a2,0
   11696:	4681                	li	a3,0
   11698:	00000073          	ecall
   1169c:	00914703          	lbu	a4,9(sp)
   116a0:	4509                	li	a0,2
   116a2:	00a70a63          	beq	a4,a0,116b6 <_ZN20complex_dynamic_type3app17h040554d2fb744f89E+0xf0>
   116a6:	6509                	lui	a0,0x2
   116a8:	80e50513          	addi	a0,a0,-2034 # 180e <.Lline_table_start1+0x15e3>
   116ac:	4591                	li	a1,4
   116ae:	4601                	li	a2,0
   116b0:	4681                	li	a3,0
   116b2:	00000073          	ecall
   116b6:	40fa                	lw	ra,156(sp)
   116b8:	446a                	lw	s0,152(sp)
   116ba:	44da                	lw	s1,148(sp)
   116bc:	494a                	lw	s2,144(sp)
   116be:	49ba                	lw	s3,140(sp)
   116c0:	4a2a                	lw	s4,136(sp)
   116c2:	4a9a                	lw	s5,132(sp)
   116c4:	610d                	addi	sp,sp,160
   116c6:	8082                	ret
   116c8:	00914703          	lbu	a4,9(sp)
   116cc:	00c71463          	bne	a4,a2,116d4 <_ZN20complex_dynamic_type3app17h040554d2fb744f89E+0x10e>
   116d0:	470d                	li	a4,3
   116d2:	a825                	j	1170a <_ZN20complex_dynamic_type3app17h040554d2fb744f89E+0x144>
   116d4:	6509                	lui	a0,0x2
   116d6:	80e50513          	addi	a0,a0,-2034 # 180e <.Lline_table_start1+0x15e3>
   116da:	4591                	li	a1,4
   116dc:	4601                	li	a2,0
   116de:	4681                	li	a3,0
   116e0:	00000073          	ecall
   116e4:	03b14703          	lbu	a4,59(sp)
   116e8:	4509                	li	a0,2
   116ea:	00a104a3          	sb	a0,9(sp)
   116ee:	00a71e63          	bne	a4,a0,1170a <_ZN20complex_dynamic_type3app17h040554d2fb744f89E+0x144>
   116f2:	001a8513          	addi	a0,s5,1
   116f6:	04800613          	li	a2,72
   116fa:	85d2                	mv	a1,s4
   116fc:	0000d097          	auipc	ra,0xd
   11700:	e18080e7          	jalr	-488(ra) # 1e514 <memcpy>
   11704:	000a8023          	sb	zero,0(s5)
   11708:	b77d                	j	116b6 <_ZN20complex_dynamic_type3app17h040554d2fb744f89E+0xf0>
   1170a:	6509                	lui	a0,0x2
   1170c:	80e50913          	addi	s2,a0,-2034 # 180e <.Lline_table_start1+0x15e3>
   11710:	458d                	li	a1,3
   11712:	854a                	mv	a0,s2
   11714:	4601                	li	a2,0
   11716:	4681                	li	a3,0
   11718:	00000073          	ecall
   1171c:	00914983          	lbu	s3,9(sp)
   11720:	001a8513          	addi	a0,s5,1
   11724:	04800613          	li	a2,72
   11728:	85d2                	mv	a1,s4
   1172a:	0000d097          	auipc	ra,0xd
   1172e:	dea080e7          	jalr	-534(ra) # 1e514 <memcpy>
   11732:	4509                	li	a0,2
   11734:	000a8023          	sb	zero,0(s5)
   11738:	f6a98fe3          	beq	s3,a0,116b6 <_ZN20complex_dynamic_type3app17h040554d2fb744f89E+0xf0>
   1173c:	4591                	li	a1,4
   1173e:	854a                	mv	a0,s2
   11740:	4601                	li	a2,0
   11742:	4681                	li	a3,0
   11744:	874e                	mv	a4,s3
   11746:	00000073          	ecall
   1174a:	b7b5                	j	116b6 <_ZN20complex_dynamic_type3app17h040554d2fb744f89E+0xf0>

0001174c <_ZN20complex_dynamic_type3app17h068d2d1d4804a789E>:
   1174c:	7175                	addi	sp,sp,-144
   1174e:	c706                	sw	ra,140(sp)
   11750:	c522                	sw	s0,136(sp)
   11752:	c326                	sw	s1,132(sp)
   11754:	c14a                	sw	s2,128(sp)
   11756:	dece                	sw	s3,124(sp)
   11758:	dcd2                	sw	s4,120(sp)
   1175a:	dad6                	sw	s5,116(sp)
   1175c:	8aaa                	mv	s5,a0
   1175e:	4409                	li	s0,2
   11760:	00810623          	sb	s0,12(sp)
   11764:	00d10493          	addi	s1,sp,13
   11768:	02e00613          	li	a2,46
   1176c:	8526                	mv	a0,s1
   1176e:	0000d097          	auipc	ra,0xd
   11772:	da6080e7          	jalr	-602(ra) # 1e514 <memcpy>
   11776:	03c10a13          	addi	s4,sp,60
   1177a:	03800613          	li	a2,56
   1177e:	8552                	mv	a0,s4
   11780:	4581                	li	a1,0
   11782:	0000d097          	auipc	ra,0xd
   11786:	d26080e7          	jalr	-730(ra) # 1e4a8 <memset>
   1178a:	8626                	mv	a2,s1
   1178c:	02810da3          	sb	s0,59(sp)
   11790:	6505                	lui	a0,0x1
   11792:	4491                	li	s1,4
   11794:	45a5                	li	a1,9
   11796:	a9d50793          	addi	a5,a0,-1379 # a9d <.Lline_table_start1+0x872>
   1179a:	02e00693          	li	a3,46
   1179e:	4711                	li	a4,4
   117a0:	853e                	mv	a0,a5
   117a2:	00000073          	ecall
   117a6:	00851863          	bne	a0,s0,117b6 <_ZN20complex_dynamic_type3app17h068d2d1d4804a789E+0x6a>
   117aa:	4505                	li	a0,1
   117ac:	00aa8023          	sb	a0,0(s5)
   117b0:	00baa223          	sw	a1,4(s5)
   117b4:	a0bd                	j	11822 <_ZN20complex_dynamic_type3app17h068d2d1d4804a789E+0xd6>
   117b6:	853e                	mv	a0,a5
   117b8:	8652                	mv	a2,s4
   117ba:	00910623          	sb	s1,12(sp)
   117be:	478d                	li	a5,3
   117c0:	45a5                	li	a1,9
   117c2:	03800693          	li	a3,56
   117c6:	470d                	li	a4,3
   117c8:	00000073          	ecall
   117cc:	00851d63          	bne	a0,s0,117e6 <_ZN20complex_dynamic_type3app17h068d2d1d4804a789E+0x9a>
   117d0:	03b14703          	lbu	a4,59(sp)
   117d4:	4505                	li	a0,1
   117d6:	4609                	li	a2,2
   117d8:	00aa8023          	sb	a0,0(s5)
   117dc:	00baa223          	sw	a1,4(s5)
   117e0:	02c71963          	bne	a4,a2,11812 <_ZN20complex_dynamic_type3app17h068d2d1d4804a789E+0xc6>
   117e4:	a83d                	j	11822 <_ZN20complex_dynamic_type3app17h068d2d1d4804a789E+0xd6>
   117e6:	4681                	li	a3,0
   117e8:	02f10da3          	sb	a5,59(sp)
   117ec:	6505                	lui	a0,0x1
   117ee:	45a5                	li	a1,9
   117f0:	4625                	li	a2,9
   117f2:	4709                	li	a4,2
   117f4:	a9d50513          	addi	a0,a0,-1379 # a9d <.Lline_table_start1+0x872>
   117f8:	08000793          	li	a5,128
   117fc:	00000073          	ecall
   11800:	4609                	li	a2,2
   11802:	04f57663          	bgeu	a0,a5,1184e <_ZN20complex_dynamic_type3app17h068d2d1d4804a789E+0x102>
   11806:	4505                	li	a0,1
   11808:	00aa8023          	sb	a0,0(s5)
   1180c:	00baa223          	sw	a1,4(s5)
   11810:	470d                	li	a4,3
   11812:	6505                	lui	a0,0x1
   11814:	a9d50513          	addi	a0,a0,-1379 # a9d <.Lline_table_start1+0x872>
   11818:	45a5                	li	a1,9
   1181a:	4601                	li	a2,0
   1181c:	4681                	li	a3,0
   1181e:	00000073          	ecall
   11822:	00c14703          	lbu	a4,12(sp)
   11826:	4509                	li	a0,2
   11828:	00a70a63          	beq	a4,a0,1183c <_ZN20complex_dynamic_type3app17h068d2d1d4804a789E+0xf0>
   1182c:	6505                	lui	a0,0x1
   1182e:	a9d50513          	addi	a0,a0,-1379 # a9d <.Lline_table_start1+0x872>
   11832:	45a5                	li	a1,9
   11834:	4601                	li	a2,0
   11836:	4681                	li	a3,0
   11838:	00000073          	ecall
   1183c:	40ba                	lw	ra,140(sp)
   1183e:	442a                	lw	s0,136(sp)
   11840:	449a                	lw	s1,132(sp)
   11842:	490a                	lw	s2,128(sp)
   11844:	59f6                	lw	s3,124(sp)
   11846:	5a66                	lw	s4,120(sp)
   11848:	5ad6                	lw	s5,116(sp)
   1184a:	6149                	addi	sp,sp,144
   1184c:	8082                	ret
   1184e:	00c14703          	lbu	a4,12(sp)
   11852:	00c71463          	bne	a4,a2,1185a <_ZN20complex_dynamic_type3app17h068d2d1d4804a789E+0x10e>
   11856:	470d                	li	a4,3
   11858:	a825                	j	11890 <_ZN20complex_dynamic_type3app17h068d2d1d4804a789E+0x144>
   1185a:	6505                	lui	a0,0x1
   1185c:	a9d50513          	addi	a0,a0,-1379 # a9d <.Lline_table_start1+0x872>
   11860:	45a5                	li	a1,9
   11862:	4601                	li	a2,0
   11864:	4681                	li	a3,0
   11866:	00000073          	ecall
   1186a:	03b14703          	lbu	a4,59(sp)
   1186e:	4509                	li	a0,2
   11870:	00a10623          	sb	a0,12(sp)
   11874:	00a71e63          	bne	a4,a0,11890 <_ZN20complex_dynamic_type3app17h068d2d1d4804a789E+0x144>
   11878:	001a8513          	addi	a0,s5,1
   1187c:	03800613          	li	a2,56
   11880:	85d2                	mv	a1,s4
   11882:	0000d097          	auipc	ra,0xd
   11886:	c92080e7          	jalr	-878(ra) # 1e514 <memcpy>
   1188a:	000a8023          	sb	zero,0(s5)
   1188e:	b77d                	j	1183c <_ZN20complex_dynamic_type3app17h068d2d1d4804a789E+0xf0>
   11890:	6505                	lui	a0,0x1
   11892:	a9d50913          	addi	s2,a0,-1379 # a9d <.Lline_table_start1+0x872>
   11896:	45a5                	li	a1,9
   11898:	854a                	mv	a0,s2
   1189a:	4601                	li	a2,0
   1189c:	4681                	li	a3,0
   1189e:	00000073          	ecall
   118a2:	00c14983          	lbu	s3,12(sp)
   118a6:	001a8513          	addi	a0,s5,1
   118aa:	03800613          	li	a2,56
   118ae:	85d2                	mv	a1,s4
   118b0:	0000d097          	auipc	ra,0xd
   118b4:	c64080e7          	jalr	-924(ra) # 1e514 <memcpy>
   118b8:	4509                	li	a0,2
   118ba:	000a8023          	sb	zero,0(s5)
   118be:	f6a98fe3          	beq	s3,a0,1183c <_ZN20complex_dynamic_type3app17h068d2d1d4804a789E+0xf0>
   118c2:	45a5                	li	a1,9
   118c4:	854a                	mv	a0,s2
   118c6:	4601                	li	a2,0
   118c8:	4681                	li	a3,0
   118ca:	874e                	mv	a4,s3
   118cc:	00000073          	ecall
   118d0:	b7b5                	j	1183c <_ZN20complex_dynamic_type3app17h068d2d1d4804a789E+0xf0>

000118d2 <_ZN20complex_dynamic_type3app17h0af0156ff98d9d33E>:
   118d2:	7159                	addi	sp,sp,-112
   118d4:	d686                	sw	ra,108(sp)
   118d6:	d4a2                	sw	s0,104(sp)
   118d8:	d2a6                	sw	s1,100(sp)
   118da:	d0ca                	sw	s2,96(sp)
   118dc:	cece                	sw	s3,92(sp)
   118de:	ccd2                	sw	s4,88(sp)
   118e0:	cad6                	sw	s5,84(sp)
   118e2:	8aaa                	mv	s5,a0
   118e4:	4409                	li	s0,2
   118e6:	008107a3          	sb	s0,15(sp)
   118ea:	0804                	addi	s1,sp,16
   118ec:	02900613          	li	a2,41
   118f0:	8526                	mv	a0,s1
   118f2:	0000d097          	auipc	ra,0xd
   118f6:	c22080e7          	jalr	-990(ra) # 1e514 <memcpy>
   118fa:	03a10a13          	addi	s4,sp,58
   118fe:	4669                	li	a2,26
   11900:	8552                	mv	a0,s4
   11902:	4581                	li	a1,0
   11904:	0000d097          	auipc	ra,0xd
   11908:	ba4080e7          	jalr	-1116(ra) # 1e4a8 <memset>
   1190c:	8626                	mv	a2,s1
   1190e:	02810ca3          	sb	s0,57(sp)
   11912:	6509                	lui	a0,0x2
   11914:	4491                	li	s1,4
   11916:	4595                	li	a1,5
   11918:	04850793          	addi	a5,a0,72 # 2048 <.Lline_table_start1+0x1e1d>
   1191c:	02900693          	li	a3,41
   11920:	4711                	li	a4,4
   11922:	853e                	mv	a0,a5
   11924:	00000073          	ecall
   11928:	00851863          	bne	a0,s0,11938 <_ZN20complex_dynamic_type3app17h0af0156ff98d9d33E+0x66>
   1192c:	4505                	li	a0,1
   1192e:	00aa8023          	sb	a0,0(s5)
   11932:	00baa223          	sw	a1,4(s5)
   11936:	a0b5                	j	119a2 <_ZN20complex_dynamic_type3app17h0af0156ff98d9d33E+0xd0>
   11938:	853e                	mv	a0,a5
   1193a:	8652                	mv	a2,s4
   1193c:	009107a3          	sb	s1,15(sp)
   11940:	478d                	li	a5,3
   11942:	458d                	li	a1,3
   11944:	46e9                	li	a3,26
   11946:	470d                	li	a4,3
   11948:	00000073          	ecall
   1194c:	00851d63          	bne	a0,s0,11966 <_ZN20complex_dynamic_type3app17h0af0156ff98d9d33E+0x94>
   11950:	03914703          	lbu	a4,57(sp)
   11954:	4505                	li	a0,1
   11956:	4609                	li	a2,2
   11958:	00aa8023          	sb	a0,0(s5)
   1195c:	00baa223          	sw	a1,4(s5)
   11960:	02c71963          	bne	a4,a2,11992 <_ZN20complex_dynamic_type3app17h0af0156ff98d9d33E+0xc0>
   11964:	a83d                	j	119a2 <_ZN20complex_dynamic_type3app17h0af0156ff98d9d33E+0xd0>
   11966:	4681                	li	a3,0
   11968:	02f10ca3          	sb	a5,57(sp)
   1196c:	6509                	lui	a0,0x2
   1196e:	4595                	li	a1,5
   11970:	460d                	li	a2,3
   11972:	4709                	li	a4,2
   11974:	04850513          	addi	a0,a0,72 # 2048 <.Lline_table_start1+0x1e1d>
   11978:	08000793          	li	a5,128
   1197c:	00000073          	ecall
   11980:	4609                	li	a2,2
   11982:	04f57663          	bgeu	a0,a5,119ce <_ZN20complex_dynamic_type3app17h0af0156ff98d9d33E+0xfc>
   11986:	4505                	li	a0,1
   11988:	00aa8023          	sb	a0,0(s5)
   1198c:	00baa223          	sw	a1,4(s5)
   11990:	470d                	li	a4,3
   11992:	6509                	lui	a0,0x2
   11994:	04850513          	addi	a0,a0,72 # 2048 <.Lline_table_start1+0x1e1d>
   11998:	458d                	li	a1,3
   1199a:	4601                	li	a2,0
   1199c:	4681                	li	a3,0
   1199e:	00000073          	ecall
   119a2:	00f14703          	lbu	a4,15(sp)
   119a6:	4509                	li	a0,2
   119a8:	00a70a63          	beq	a4,a0,119bc <_ZN20complex_dynamic_type3app17h0af0156ff98d9d33E+0xea>
   119ac:	6509                	lui	a0,0x2
   119ae:	04850513          	addi	a0,a0,72 # 2048 <.Lline_table_start1+0x1e1d>
   119b2:	4595                	li	a1,5
   119b4:	4601                	li	a2,0
   119b6:	4681                	li	a3,0
   119b8:	00000073          	ecall
   119bc:	50b6                	lw	ra,108(sp)
   119be:	5426                	lw	s0,104(sp)
   119c0:	5496                	lw	s1,100(sp)
   119c2:	5906                	lw	s2,96(sp)
   119c4:	49f6                	lw	s3,92(sp)
   119c6:	4a66                	lw	s4,88(sp)
   119c8:	4ad6                	lw	s5,84(sp)
   119ca:	6165                	addi	sp,sp,112
   119cc:	8082                	ret
   119ce:	00f14703          	lbu	a4,15(sp)
   119d2:	00c71463          	bne	a4,a2,119da <_ZN20complex_dynamic_type3app17h0af0156ff98d9d33E+0x108>
   119d6:	470d                	li	a4,3
   119d8:	a81d                	j	11a0e <_ZN20complex_dynamic_type3app17h0af0156ff98d9d33E+0x13c>
   119da:	6509                	lui	a0,0x2
   119dc:	04850513          	addi	a0,a0,72 # 2048 <.Lline_table_start1+0x1e1d>
   119e0:	4595                	li	a1,5
   119e2:	4601                	li	a2,0
   119e4:	4681                	li	a3,0
   119e6:	00000073          	ecall
   119ea:	03914703          	lbu	a4,57(sp)
   119ee:	4509                	li	a0,2
   119f0:	00a107a3          	sb	a0,15(sp)
   119f4:	00a71d63          	bne	a4,a0,11a0e <_ZN20complex_dynamic_type3app17h0af0156ff98d9d33E+0x13c>
   119f8:	001a8513          	addi	a0,s5,1
   119fc:	4669                	li	a2,26
   119fe:	85d2                	mv	a1,s4
   11a00:	0000d097          	auipc	ra,0xd
   11a04:	b14080e7          	jalr	-1260(ra) # 1e514 <memcpy>
   11a08:	000a8023          	sb	zero,0(s5)
   11a0c:	bf45                	j	119bc <_ZN20complex_dynamic_type3app17h0af0156ff98d9d33E+0xea>
   11a0e:	6509                	lui	a0,0x2
   11a10:	04850913          	addi	s2,a0,72 # 2048 <.Lline_table_start1+0x1e1d>
   11a14:	458d                	li	a1,3
   11a16:	854a                	mv	a0,s2
   11a18:	4601                	li	a2,0
   11a1a:	4681                	li	a3,0
   11a1c:	00000073          	ecall
   11a20:	00f14983          	lbu	s3,15(sp)
   11a24:	001a8513          	addi	a0,s5,1
   11a28:	4669                	li	a2,26
   11a2a:	85d2                	mv	a1,s4
   11a2c:	0000d097          	auipc	ra,0xd
   11a30:	ae8080e7          	jalr	-1304(ra) # 1e514 <memcpy>
   11a34:	4509                	li	a0,2
   11a36:	000a8023          	sb	zero,0(s5)
   11a3a:	f8a981e3          	beq	s3,a0,119bc <_ZN20complex_dynamic_type3app17h0af0156ff98d9d33E+0xea>
   11a3e:	4595                	li	a1,5
   11a40:	854a                	mv	a0,s2
   11a42:	4601                	li	a2,0
   11a44:	4681                	li	a3,0
   11a46:	874e                	mv	a4,s3
   11a48:	00000073          	ecall
   11a4c:	bf85                	j	119bc <_ZN20complex_dynamic_type3app17h0af0156ff98d9d33E+0xea>

00011a4e <_ZN20complex_dynamic_type3app17h11742037a0c8529eE>:
   11a4e:	711d                	addi	sp,sp,-96
   11a50:	ce86                	sw	ra,92(sp)
   11a52:	cca2                	sw	s0,88(sp)
   11a54:	caa6                	sw	s1,84(sp)
   11a56:	c8ca                	sw	s2,80(sp)
   11a58:	c6ce                	sw	s3,76(sp)
   11a5a:	c4d2                	sw	s4,72(sp)
   11a5c:	c2d6                	sw	s5,68(sp)
   11a5e:	8aaa                	mv	s5,a0
   11a60:	4409                	li	s0,2
   11a62:	008102a3          	sb	s0,5(sp)
   11a66:	00610493          	addi	s1,sp,6
   11a6a:	02500613          	li	a2,37
   11a6e:	8526                	mv	a0,s1
   11a70:	0000d097          	auipc	ra,0xd
   11a74:	aa4080e7          	jalr	-1372(ra) # 1e514 <memcpy>
   11a78:	02c10a13          	addi	s4,sp,44
   11a7c:	4661                	li	a2,24
   11a7e:	8552                	mv	a0,s4
   11a80:	4581                	li	a1,0
   11a82:	0000d097          	auipc	ra,0xd
   11a86:	a26080e7          	jalr	-1498(ra) # 1e4a8 <memset>
   11a8a:	8626                	mv	a2,s1
   11a8c:	028105a3          	sb	s0,43(sp)
   11a90:	6505                	lui	a0,0x1
   11a92:	4491                	li	s1,4
   11a94:	45a5                	li	a1,9
   11a96:	a7050793          	addi	a5,a0,-1424 # a70 <.Lline_table_start1+0x845>
   11a9a:	02500693          	li	a3,37
   11a9e:	4711                	li	a4,4
   11aa0:	853e                	mv	a0,a5
   11aa2:	00000073          	ecall
   11aa6:	00851863          	bne	a0,s0,11ab6 <_ZN20complex_dynamic_type3app17h11742037a0c8529eE+0x68>
   11aaa:	4505                	li	a0,1
   11aac:	00aa8023          	sb	a0,0(s5)
   11ab0:	00baa223          	sw	a1,4(s5)
   11ab4:	a0b5                	j	11b20 <_ZN20complex_dynamic_type3app17h11742037a0c8529eE+0xd2>
   11ab6:	853e                	mv	a0,a5
   11ab8:	8652                	mv	a2,s4
   11aba:	009102a3          	sb	s1,5(sp)
   11abe:	478d                	li	a5,3
   11ac0:	45a1                	li	a1,8
   11ac2:	46e1                	li	a3,24
   11ac4:	470d                	li	a4,3
   11ac6:	00000073          	ecall
   11aca:	00851d63          	bne	a0,s0,11ae4 <_ZN20complex_dynamic_type3app17h11742037a0c8529eE+0x96>
   11ace:	02b14703          	lbu	a4,43(sp)
   11ad2:	4505                	li	a0,1
   11ad4:	4609                	li	a2,2
   11ad6:	00aa8023          	sb	a0,0(s5)
   11ada:	00baa223          	sw	a1,4(s5)
   11ade:	02c71963          	bne	a4,a2,11b10 <_ZN20complex_dynamic_type3app17h11742037a0c8529eE+0xc2>
   11ae2:	a83d                	j	11b20 <_ZN20complex_dynamic_type3app17h11742037a0c8529eE+0xd2>
   11ae4:	4681                	li	a3,0
   11ae6:	02f105a3          	sb	a5,43(sp)
   11aea:	6505                	lui	a0,0x1
   11aec:	45a5                	li	a1,9
   11aee:	4621                	li	a2,8
   11af0:	4709                	li	a4,2
   11af2:	a7050513          	addi	a0,a0,-1424 # a70 <.Lline_table_start1+0x845>
   11af6:	08000793          	li	a5,128
   11afa:	00000073          	ecall
   11afe:	4609                	li	a2,2
   11b00:	04f57663          	bgeu	a0,a5,11b4c <_ZN20complex_dynamic_type3app17h11742037a0c8529eE+0xfe>
   11b04:	4505                	li	a0,1
   11b06:	00aa8023          	sb	a0,0(s5)
   11b0a:	00baa223          	sw	a1,4(s5)
   11b0e:	470d                	li	a4,3
   11b10:	6505                	lui	a0,0x1
   11b12:	a7050513          	addi	a0,a0,-1424 # a70 <.Lline_table_start1+0x845>
   11b16:	45a1                	li	a1,8
   11b18:	4601                	li	a2,0
   11b1a:	4681                	li	a3,0
   11b1c:	00000073          	ecall
   11b20:	00514703          	lbu	a4,5(sp)
   11b24:	4509                	li	a0,2
   11b26:	00a70a63          	beq	a4,a0,11b3a <_ZN20complex_dynamic_type3app17h11742037a0c8529eE+0xec>
   11b2a:	6505                	lui	a0,0x1
   11b2c:	a7050513          	addi	a0,a0,-1424 # a70 <.Lline_table_start1+0x845>
   11b30:	45a5                	li	a1,9
   11b32:	4601                	li	a2,0
   11b34:	4681                	li	a3,0
   11b36:	00000073          	ecall
   11b3a:	40f6                	lw	ra,92(sp)
   11b3c:	4466                	lw	s0,88(sp)
   11b3e:	44d6                	lw	s1,84(sp)
   11b40:	4946                	lw	s2,80(sp)
   11b42:	49b6                	lw	s3,76(sp)
   11b44:	4a26                	lw	s4,72(sp)
   11b46:	4a96                	lw	s5,68(sp)
   11b48:	6125                	addi	sp,sp,96
   11b4a:	8082                	ret
   11b4c:	00514703          	lbu	a4,5(sp)
   11b50:	00c71463          	bne	a4,a2,11b58 <_ZN20complex_dynamic_type3app17h11742037a0c8529eE+0x10a>
   11b54:	470d                	li	a4,3
   11b56:	a81d                	j	11b8c <_ZN20complex_dynamic_type3app17h11742037a0c8529eE+0x13e>
   11b58:	6505                	lui	a0,0x1
   11b5a:	a7050513          	addi	a0,a0,-1424 # a70 <.Lline_table_start1+0x845>
   11b5e:	45a5                	li	a1,9
   11b60:	4601                	li	a2,0
   11b62:	4681                	li	a3,0
   11b64:	00000073          	ecall
   11b68:	02b14703          	lbu	a4,43(sp)
   11b6c:	4509                	li	a0,2
   11b6e:	00a102a3          	sb	a0,5(sp)
   11b72:	00a71d63          	bne	a4,a0,11b8c <_ZN20complex_dynamic_type3app17h11742037a0c8529eE+0x13e>
   11b76:	001a8513          	addi	a0,s5,1
   11b7a:	4661                	li	a2,24
   11b7c:	85d2                	mv	a1,s4
   11b7e:	0000d097          	auipc	ra,0xd
   11b82:	996080e7          	jalr	-1642(ra) # 1e514 <memcpy>
   11b86:	000a8023          	sb	zero,0(s5)
   11b8a:	bf45                	j	11b3a <_ZN20complex_dynamic_type3app17h11742037a0c8529eE+0xec>
   11b8c:	6505                	lui	a0,0x1
   11b8e:	a7050913          	addi	s2,a0,-1424 # a70 <.Lline_table_start1+0x845>
   11b92:	45a1                	li	a1,8
   11b94:	854a                	mv	a0,s2
   11b96:	4601                	li	a2,0
   11b98:	4681                	li	a3,0
   11b9a:	00000073          	ecall
   11b9e:	00514983          	lbu	s3,5(sp)
   11ba2:	001a8513          	addi	a0,s5,1
   11ba6:	4661                	li	a2,24
   11ba8:	85d2                	mv	a1,s4
   11baa:	0000d097          	auipc	ra,0xd
   11bae:	96a080e7          	jalr	-1686(ra) # 1e514 <memcpy>
   11bb2:	4509                	li	a0,2
   11bb4:	000a8023          	sb	zero,0(s5)
   11bb8:	f8a981e3          	beq	s3,a0,11b3a <_ZN20complex_dynamic_type3app17h11742037a0c8529eE+0xec>
   11bbc:	45a5                	li	a1,9
   11bbe:	854a                	mv	a0,s2
   11bc0:	4601                	li	a2,0
   11bc2:	4681                	li	a3,0
   11bc4:	874e                	mv	a4,s3
   11bc6:	00000073          	ecall
   11bca:	bf85                	j	11b3a <_ZN20complex_dynamic_type3app17h11742037a0c8529eE+0xec>

00011bcc <_ZN20complex_dynamic_type3app17h134678ccff1a7b76E>:
   11bcc:	7119                	addi	sp,sp,-128
   11bce:	de86                	sw	ra,124(sp)
   11bd0:	dca2                	sw	s0,120(sp)
   11bd2:	daa6                	sw	s1,116(sp)
   11bd4:	d8ca                	sw	s2,112(sp)
   11bd6:	d6ce                	sw	s3,108(sp)
   11bd8:	d4d2                	sw	s4,104(sp)
   11bda:	8a2a                	mv	s4,a0
   11bdc:	4409                	li	s0,2
   11bde:	00810523          	sb	s0,10(sp)
   11be2:	00b10493          	addi	s1,sp,11
   11be6:	466d                	li	a2,27
   11be8:	8526                	mv	a0,s1
   11bea:	0000d097          	auipc	ra,0xd
   11bee:	92a080e7          	jalr	-1750(ra) # 1e514 <memcpy>
   11bf2:	02710993          	addi	s3,sp,39
   11bf6:	04100613          	li	a2,65
   11bfa:	854e                	mv	a0,s3
   11bfc:	4581                	li	a1,0
   11bfe:	0000d097          	auipc	ra,0xd
   11c02:	8aa080e7          	jalr	-1878(ra) # 1e4a8 <memset>
   11c06:	8626                	mv	a2,s1
   11c08:	02810323          	sb	s0,38(sp)
   11c0c:	4791                	li	a5,4
   11c0e:	14000513          	li	a0,320
   11c12:	45a1                	li	a1,8
   11c14:	46ed                	li	a3,27
   11c16:	4711                	li	a4,4
   11c18:	00000073          	ecall
   11c1c:	00851863          	bne	a0,s0,11c2c <_ZN20complex_dynamic_type3app17h134678ccff1a7b76E+0x60>
   11c20:	4505                	li	a0,1
   11c22:	00aa0023          	sb	a0,0(s4)
   11c26:	00ba2223          	sw	a1,4(s4)
   11c2a:	a0b5                	j	11c96 <_ZN20complex_dynamic_type3app17h134678ccff1a7b76E+0xca>
   11c2c:	864e                	mv	a2,s3
   11c2e:	00f10523          	sb	a5,10(sp)
   11c32:	478d                	li	a5,3
   11c34:	14000513          	li	a0,320
   11c38:	45a5                	li	a1,9
   11c3a:	04100693          	li	a3,65
   11c3e:	470d                	li	a4,3
   11c40:	00000073          	ecall
   11c44:	00851d63          	bne	a0,s0,11c5e <_ZN20complex_dynamic_type3app17h134678ccff1a7b76E+0x92>
   11c48:	02614703          	lbu	a4,38(sp)
   11c4c:	4505                	li	a0,1
   11c4e:	4609                	li	a2,2
   11c50:	00aa0023          	sb	a0,0(s4)
   11c54:	00ba2223          	sw	a1,4(s4)
   11c58:	02c71863          	bne	a4,a2,11c88 <_ZN20complex_dynamic_type3app17h134678ccff1a7b76E+0xbc>
   11c5c:	a82d                	j	11c96 <_ZN20complex_dynamic_type3app17h134678ccff1a7b76E+0xca>
   11c5e:	4681                	li	a3,0
   11c60:	02f10323          	sb	a5,38(sp)
   11c64:	14000513          	li	a0,320
   11c68:	45a1                	li	a1,8
   11c6a:	4625                	li	a2,9
   11c6c:	4709                	li	a4,2
   11c6e:	08000793          	li	a5,128
   11c72:	00000073          	ecall
   11c76:	4609                	li	a2,2
   11c78:	04f57363          	bgeu	a0,a5,11cbe <_ZN20complex_dynamic_type3app17h134678ccff1a7b76E+0xf2>
   11c7c:	4505                	li	a0,1
   11c7e:	00aa0023          	sb	a0,0(s4)
   11c82:	00ba2223          	sw	a1,4(s4)
   11c86:	470d                	li	a4,3
   11c88:	14000513          	li	a0,320
   11c8c:	45a5                	li	a1,9
   11c8e:	4601                	li	a2,0
   11c90:	4681                	li	a3,0
   11c92:	00000073          	ecall
   11c96:	00a14703          	lbu	a4,10(sp)
   11c9a:	4509                	li	a0,2
   11c9c:	00a70963          	beq	a4,a0,11cae <_ZN20complex_dynamic_type3app17h134678ccff1a7b76E+0xe2>
   11ca0:	14000513          	li	a0,320
   11ca4:	45a1                	li	a1,8
   11ca6:	4601                	li	a2,0
   11ca8:	4681                	li	a3,0
   11caa:	00000073          	ecall
   11cae:	50f6                	lw	ra,124(sp)
   11cb0:	5466                	lw	s0,120(sp)
   11cb2:	54d6                	lw	s1,116(sp)
   11cb4:	5946                	lw	s2,112(sp)
   11cb6:	59b6                	lw	s3,108(sp)
   11cb8:	5a26                	lw	s4,104(sp)
   11cba:	6109                	addi	sp,sp,128
   11cbc:	8082                	ret
   11cbe:	00a14703          	lbu	a4,10(sp)
   11cc2:	00c71463          	bne	a4,a2,11cca <_ZN20complex_dynamic_type3app17h134678ccff1a7b76E+0xfe>
   11cc6:	470d                	li	a4,3
   11cc8:	a81d                	j	11cfe <_ZN20complex_dynamic_type3app17h134678ccff1a7b76E+0x132>
   11cca:	14000513          	li	a0,320
   11cce:	45a1                	li	a1,8
   11cd0:	4601                	li	a2,0
   11cd2:	4681                	li	a3,0
   11cd4:	00000073          	ecall
   11cd8:	02614703          	lbu	a4,38(sp)
   11cdc:	4509                	li	a0,2
   11cde:	00a10523          	sb	a0,10(sp)
   11ce2:	00a71e63          	bne	a4,a0,11cfe <_ZN20complex_dynamic_type3app17h134678ccff1a7b76E+0x132>
   11ce6:	001a0513          	addi	a0,s4,1
   11cea:	04100613          	li	a2,65
   11cee:	85ce                	mv	a1,s3
   11cf0:	0000d097          	auipc	ra,0xd
   11cf4:	824080e7          	jalr	-2012(ra) # 1e514 <memcpy>
   11cf8:	000a0023          	sb	zero,0(s4)
   11cfc:	bf4d                	j	11cae <_ZN20complex_dynamic_type3app17h134678ccff1a7b76E+0xe2>
   11cfe:	14000513          	li	a0,320
   11d02:	45a5                	li	a1,9
   11d04:	4601                	li	a2,0
   11d06:	4681                	li	a3,0
   11d08:	00000073          	ecall
   11d0c:	00a14903          	lbu	s2,10(sp)
   11d10:	001a0513          	addi	a0,s4,1
   11d14:	04100613          	li	a2,65
   11d18:	85ce                	mv	a1,s3
   11d1a:	0000c097          	auipc	ra,0xc
   11d1e:	7fa080e7          	jalr	2042(ra) # 1e514 <memcpy>
   11d22:	4509                	li	a0,2
   11d24:	000a0023          	sb	zero,0(s4)
   11d28:	f8a903e3          	beq	s2,a0,11cae <_ZN20complex_dynamic_type3app17h134678ccff1a7b76E+0xe2>
   11d2c:	14000513          	li	a0,320
   11d30:	45a1                	li	a1,8
   11d32:	4601                	li	a2,0
   11d34:	4681                	li	a3,0
   11d36:	874a                	mv	a4,s2
   11d38:	00000073          	ecall
   11d3c:	bf8d                	j	11cae <_ZN20complex_dynamic_type3app17h134678ccff1a7b76E+0xe2>

00011d3e <_ZN20complex_dynamic_type3app17h17efd54cf7a1b5fcE>:
   11d3e:	7159                	addi	sp,sp,-112
   11d40:	d686                	sw	ra,108(sp)
   11d42:	d4a2                	sw	s0,104(sp)
   11d44:	d2a6                	sw	s1,100(sp)
   11d46:	d0ca                	sw	s2,96(sp)
   11d48:	cece                	sw	s3,92(sp)
   11d4a:	ccd2                	sw	s4,88(sp)
   11d4c:	cad6                	sw	s5,84(sp)
   11d4e:	8aaa                	mv	s5,a0
   11d50:	4409                	li	s0,2
   11d52:	00810123          	sb	s0,2(sp)
   11d56:	00310493          	addi	s1,sp,3
   11d5a:	4645                	li	a2,17
   11d5c:	8526                	mv	a0,s1
   11d5e:	0000c097          	auipc	ra,0xc
   11d62:	7b6080e7          	jalr	1974(ra) # 1e514 <memcpy>
   11d66:	01510a13          	addi	s4,sp,21
   11d6a:	03f00613          	li	a2,63
   11d6e:	8552                	mv	a0,s4
   11d70:	4581                	li	a1,0
   11d72:	0000c097          	auipc	ra,0xc
   11d76:	736080e7          	jalr	1846(ra) # 1e4a8 <memset>
   11d7a:	8626                	mv	a2,s1
   11d7c:	00810a23          	sb	s0,20(sp)
   11d80:	6505                	lui	a0,0x1
   11d82:	4491                	li	s1,4
   11d84:	459d                	li	a1,7
   11d86:	cb050793          	addi	a5,a0,-848 # cb0 <.Lline_table_start1+0xa85>
   11d8a:	46c5                	li	a3,17
   11d8c:	4711                	li	a4,4
   11d8e:	853e                	mv	a0,a5
   11d90:	00000073          	ecall
   11d94:	00851863          	bne	a0,s0,11da4 <_ZN20complex_dynamic_type3app17h17efd54cf7a1b5fcE+0x66>
   11d98:	4505                	li	a0,1
   11d9a:	00aa8023          	sb	a0,0(s5)
   11d9e:	00baa223          	sw	a1,4(s5)
   11da2:	a0bd                	j	11e10 <_ZN20complex_dynamic_type3app17h17efd54cf7a1b5fcE+0xd2>
   11da4:	853e                	mv	a0,a5
   11da6:	8652                	mv	a2,s4
   11da8:	00910123          	sb	s1,2(sp)
   11dac:	478d                	li	a5,3
   11dae:	4591                	li	a1,4
   11db0:	03f00693          	li	a3,63
   11db4:	470d                	li	a4,3
   11db6:	00000073          	ecall
   11dba:	00851d63          	bne	a0,s0,11dd4 <_ZN20complex_dynamic_type3app17h17efd54cf7a1b5fcE+0x96>
   11dbe:	01414703          	lbu	a4,20(sp)
   11dc2:	4505                	li	a0,1
   11dc4:	4609                	li	a2,2
   11dc6:	00aa8023          	sb	a0,0(s5)
   11dca:	00baa223          	sw	a1,4(s5)
   11dce:	02c71963          	bne	a4,a2,11e00 <_ZN20complex_dynamic_type3app17h17efd54cf7a1b5fcE+0xc2>
   11dd2:	a83d                	j	11e10 <_ZN20complex_dynamic_type3app17h17efd54cf7a1b5fcE+0xd2>
   11dd4:	4681                	li	a3,0
   11dd6:	00f10a23          	sb	a5,20(sp)
   11dda:	6505                	lui	a0,0x1
   11ddc:	459d                	li	a1,7
   11dde:	4611                	li	a2,4
   11de0:	4709                	li	a4,2
   11de2:	cb050513          	addi	a0,a0,-848 # cb0 <.Lline_table_start1+0xa85>
   11de6:	08000793          	li	a5,128
   11dea:	00000073          	ecall
   11dee:	4609                	li	a2,2
   11df0:	04f57663          	bgeu	a0,a5,11e3c <_ZN20complex_dynamic_type3app17h17efd54cf7a1b5fcE+0xfe>
   11df4:	4505                	li	a0,1
   11df6:	00aa8023          	sb	a0,0(s5)
   11dfa:	00baa223          	sw	a1,4(s5)
   11dfe:	470d                	li	a4,3
   11e00:	6505                	lui	a0,0x1
   11e02:	cb050513          	addi	a0,a0,-848 # cb0 <.Lline_table_start1+0xa85>
   11e06:	4591                	li	a1,4
   11e08:	4601                	li	a2,0
   11e0a:	4681                	li	a3,0
   11e0c:	00000073          	ecall
   11e10:	00214703          	lbu	a4,2(sp)
   11e14:	4509                	li	a0,2
   11e16:	00a70a63          	beq	a4,a0,11e2a <_ZN20complex_dynamic_type3app17h17efd54cf7a1b5fcE+0xec>
   11e1a:	6505                	lui	a0,0x1
   11e1c:	cb050513          	addi	a0,a0,-848 # cb0 <.Lline_table_start1+0xa85>
   11e20:	459d                	li	a1,7
   11e22:	4601                	li	a2,0
   11e24:	4681                	li	a3,0
   11e26:	00000073          	ecall
   11e2a:	50b6                	lw	ra,108(sp)
   11e2c:	5426                	lw	s0,104(sp)
   11e2e:	5496                	lw	s1,100(sp)
   11e30:	5906                	lw	s2,96(sp)
   11e32:	49f6                	lw	s3,92(sp)
   11e34:	4a66                	lw	s4,88(sp)
   11e36:	4ad6                	lw	s5,84(sp)
   11e38:	6165                	addi	sp,sp,112
   11e3a:	8082                	ret
   11e3c:	00214703          	lbu	a4,2(sp)
   11e40:	00c71463          	bne	a4,a2,11e48 <_ZN20complex_dynamic_type3app17h17efd54cf7a1b5fcE+0x10a>
   11e44:	470d                	li	a4,3
   11e46:	a825                	j	11e7e <_ZN20complex_dynamic_type3app17h17efd54cf7a1b5fcE+0x140>
   11e48:	6505                	lui	a0,0x1
   11e4a:	cb050513          	addi	a0,a0,-848 # cb0 <.Lline_table_start1+0xa85>
   11e4e:	459d                	li	a1,7
   11e50:	4601                	li	a2,0
   11e52:	4681                	li	a3,0
   11e54:	00000073          	ecall
   11e58:	01414703          	lbu	a4,20(sp)
   11e5c:	4509                	li	a0,2
   11e5e:	00a10123          	sb	a0,2(sp)
   11e62:	00a71e63          	bne	a4,a0,11e7e <_ZN20complex_dynamic_type3app17h17efd54cf7a1b5fcE+0x140>
   11e66:	001a8513          	addi	a0,s5,1
   11e6a:	03f00613          	li	a2,63
   11e6e:	85d2                	mv	a1,s4
   11e70:	0000c097          	auipc	ra,0xc
   11e74:	6a4080e7          	jalr	1700(ra) # 1e514 <memcpy>
   11e78:	000a8023          	sb	zero,0(s5)
   11e7c:	b77d                	j	11e2a <_ZN20complex_dynamic_type3app17h17efd54cf7a1b5fcE+0xec>
   11e7e:	6505                	lui	a0,0x1
   11e80:	cb050913          	addi	s2,a0,-848 # cb0 <.Lline_table_start1+0xa85>
   11e84:	4591                	li	a1,4
   11e86:	854a                	mv	a0,s2
   11e88:	4601                	li	a2,0
   11e8a:	4681                	li	a3,0
   11e8c:	00000073          	ecall
   11e90:	00214983          	lbu	s3,2(sp)
   11e94:	001a8513          	addi	a0,s5,1
   11e98:	03f00613          	li	a2,63
   11e9c:	85d2                	mv	a1,s4
   11e9e:	0000c097          	auipc	ra,0xc
   11ea2:	676080e7          	jalr	1654(ra) # 1e514 <memcpy>
   11ea6:	4509                	li	a0,2
   11ea8:	000a8023          	sb	zero,0(s5)
   11eac:	f6a98fe3          	beq	s3,a0,11e2a <_ZN20complex_dynamic_type3app17h17efd54cf7a1b5fcE+0xec>
   11eb0:	459d                	li	a1,7
   11eb2:	854a                	mv	a0,s2
   11eb4:	4601                	li	a2,0
   11eb6:	4681                	li	a3,0
   11eb8:	874e                	mv	a4,s3
   11eba:	00000073          	ecall
   11ebe:	b7b5                	j	11e2a <_ZN20complex_dynamic_type3app17h17efd54cf7a1b5fcE+0xec>

00011ec0 <_ZN20complex_dynamic_type3app17h1a20cf9dcb37c6deE>:
   11ec0:	7171                	addi	sp,sp,-176
   11ec2:	d706                	sw	ra,172(sp)
   11ec4:	d522                	sw	s0,168(sp)
   11ec6:	d326                	sw	s1,164(sp)
   11ec8:	d14a                	sw	s2,160(sp)
   11eca:	cf4e                	sw	s3,156(sp)
   11ecc:	cd52                	sw	s4,152(sp)
   11ece:	cb56                	sw	s5,148(sp)
   11ed0:	8aaa                	mv	s5,a0
   11ed2:	4409                	li	s0,2
   11ed4:	00810723          	sb	s0,14(sp)
   11ed8:	00f10493          	addi	s1,sp,15
   11edc:	04f00613          	li	a2,79
   11ee0:	8526                	mv	a0,s1
   11ee2:	0000c097          	auipc	ra,0xc
   11ee6:	632080e7          	jalr	1586(ra) # 1e514 <memcpy>
   11eea:	05f10a13          	addi	s4,sp,95
   11eee:	03500613          	li	a2,53
   11ef2:	8552                	mv	a0,s4
   11ef4:	4581                	li	a1,0
   11ef6:	0000c097          	auipc	ra,0xc
   11efa:	5b2080e7          	jalr	1458(ra) # 1e4a8 <memset>
   11efe:	8626                	mv	a2,s1
   11f00:	04810f23          	sb	s0,94(sp)
   11f04:	6505                	lui	a0,0x1
   11f06:	4491                	li	s1,4
   11f08:	459d                	li	a1,7
   11f0a:	6d750793          	addi	a5,a0,1751 # 16d7 <.Lline_table_start1+0x14ac>
   11f0e:	04f00693          	li	a3,79
   11f12:	4711                	li	a4,4
   11f14:	853e                	mv	a0,a5
   11f16:	00000073          	ecall
   11f1a:	00851863          	bne	a0,s0,11f2a <_ZN20complex_dynamic_type3app17h1a20cf9dcb37c6deE+0x6a>
   11f1e:	4505                	li	a0,1
   11f20:	00aa8023          	sb	a0,0(s5)
   11f24:	00baa223          	sw	a1,4(s5)
   11f28:	a0bd                	j	11f96 <_ZN20complex_dynamic_type3app17h1a20cf9dcb37c6deE+0xd6>
   11f2a:	853e                	mv	a0,a5
   11f2c:	8652                	mv	a2,s4
   11f2e:	00910723          	sb	s1,14(sp)
   11f32:	4785                	li	a5,1
   11f34:	448d                	li	s1,3
   11f36:	4585                	li	a1,1
   11f38:	03500693          	li	a3,53
   11f3c:	470d                	li	a4,3
   11f3e:	00000073          	ecall
   11f42:	00851c63          	bne	a0,s0,11f5a <_ZN20complex_dynamic_type3app17h1a20cf9dcb37c6deE+0x9a>
   11f46:	05e14703          	lbu	a4,94(sp)
   11f4a:	4509                	li	a0,2
   11f4c:	00fa8023          	sb	a5,0(s5)
   11f50:	00baa223          	sw	a1,4(s5)
   11f54:	02a71963          	bne	a4,a0,11f86 <_ZN20complex_dynamic_type3app17h1a20cf9dcb37c6deE+0xc6>
   11f58:	a83d                	j	11f96 <_ZN20complex_dynamic_type3app17h1a20cf9dcb37c6deE+0xd6>
   11f5a:	4681                	li	a3,0
   11f5c:	04910f23          	sb	s1,94(sp)
   11f60:	6505                	lui	a0,0x1
   11f62:	4785                	li	a5,1
   11f64:	459d                	li	a1,7
   11f66:	4605                	li	a2,1
   11f68:	4709                	li	a4,2
   11f6a:	6d750513          	addi	a0,a0,1751 # 16d7 <.Lline_table_start1+0x14ac>
   11f6e:	08000493          	li	s1,128
   11f72:	00000073          	ecall
   11f76:	4609                	li	a2,2
   11f78:	04957563          	bgeu	a0,s1,11fc2 <_ZN20complex_dynamic_type3app17h1a20cf9dcb37c6deE+0x102>
   11f7c:	00fa8023          	sb	a5,0(s5)
   11f80:	00baa223          	sw	a1,4(s5)
   11f84:	470d                	li	a4,3
   11f86:	6505                	lui	a0,0x1
   11f88:	6d750513          	addi	a0,a0,1751 # 16d7 <.Lline_table_start1+0x14ac>
   11f8c:	4585                	li	a1,1
   11f8e:	4601                	li	a2,0
   11f90:	4681                	li	a3,0
   11f92:	00000073          	ecall
   11f96:	00e14703          	lbu	a4,14(sp)
   11f9a:	4509                	li	a0,2
   11f9c:	00a70a63          	beq	a4,a0,11fb0 <_ZN20complex_dynamic_type3app17h1a20cf9dcb37c6deE+0xf0>
   11fa0:	6505                	lui	a0,0x1
   11fa2:	6d750513          	addi	a0,a0,1751 # 16d7 <.Lline_table_start1+0x14ac>
   11fa6:	459d                	li	a1,7
   11fa8:	4601                	li	a2,0
   11faa:	4681                	li	a3,0
   11fac:	00000073          	ecall
   11fb0:	50ba                	lw	ra,172(sp)
   11fb2:	542a                	lw	s0,168(sp)
   11fb4:	549a                	lw	s1,164(sp)
   11fb6:	590a                	lw	s2,160(sp)
   11fb8:	49fa                	lw	s3,156(sp)
   11fba:	4a6a                	lw	s4,152(sp)
   11fbc:	4ada                	lw	s5,148(sp)
   11fbe:	614d                	addi	sp,sp,176
   11fc0:	8082                	ret
   11fc2:	00e14703          	lbu	a4,14(sp)
   11fc6:	00c71463          	bne	a4,a2,11fce <_ZN20complex_dynamic_type3app17h1a20cf9dcb37c6deE+0x10e>
   11fca:	470d                	li	a4,3
   11fcc:	a825                	j	12004 <_ZN20complex_dynamic_type3app17h1a20cf9dcb37c6deE+0x144>
   11fce:	6505                	lui	a0,0x1
   11fd0:	6d750513          	addi	a0,a0,1751 # 16d7 <.Lline_table_start1+0x14ac>
   11fd4:	459d                	li	a1,7
   11fd6:	4601                	li	a2,0
   11fd8:	4681                	li	a3,0
   11fda:	00000073          	ecall
   11fde:	05e14703          	lbu	a4,94(sp)
   11fe2:	4509                	li	a0,2
   11fe4:	00a10723          	sb	a0,14(sp)
   11fe8:	00a71e63          	bne	a4,a0,12004 <_ZN20complex_dynamic_type3app17h1a20cf9dcb37c6deE+0x144>
   11fec:	001a8513          	addi	a0,s5,1
   11ff0:	03500613          	li	a2,53
   11ff4:	85d2                	mv	a1,s4
   11ff6:	0000c097          	auipc	ra,0xc
   11ffa:	51e080e7          	jalr	1310(ra) # 1e514 <memcpy>
   11ffe:	000a8023          	sb	zero,0(s5)
   12002:	b77d                	j	11fb0 <_ZN20complex_dynamic_type3app17h1a20cf9dcb37c6deE+0xf0>
   12004:	6505                	lui	a0,0x1
   12006:	6d750913          	addi	s2,a0,1751 # 16d7 <.Lline_table_start1+0x14ac>
   1200a:	4585                	li	a1,1
   1200c:	854a                	mv	a0,s2
   1200e:	4601                	li	a2,0
   12010:	4681                	li	a3,0
   12012:	00000073          	ecall
   12016:	00e14983          	lbu	s3,14(sp)
   1201a:	001a8513          	addi	a0,s5,1
   1201e:	03500613          	li	a2,53
   12022:	85d2                	mv	a1,s4
   12024:	0000c097          	auipc	ra,0xc
   12028:	4f0080e7          	jalr	1264(ra) # 1e514 <memcpy>
   1202c:	4509                	li	a0,2
   1202e:	000a8023          	sb	zero,0(s5)
   12032:	f6a98fe3          	beq	s3,a0,11fb0 <_ZN20complex_dynamic_type3app17h1a20cf9dcb37c6deE+0xf0>
   12036:	459d                	li	a1,7
   12038:	854a                	mv	a0,s2
   1203a:	4601                	li	a2,0
   1203c:	4681                	li	a3,0
   1203e:	874e                	mv	a4,s3
   12040:	00000073          	ecall
   12044:	b7b5                	j	11fb0 <_ZN20complex_dynamic_type3app17h1a20cf9dcb37c6deE+0xf0>

00012046 <_ZN20complex_dynamic_type3app17h2122739b2e03fa95E>:
   12046:	7135                	addi	sp,sp,-160
   12048:	cf06                	sw	ra,156(sp)
   1204a:	cd22                	sw	s0,152(sp)
   1204c:	cb26                	sw	s1,148(sp)
   1204e:	c94a                	sw	s2,144(sp)
   12050:	c74e                	sw	s3,140(sp)
   12052:	c552                	sw	s4,136(sp)
   12054:	c356                	sw	s5,132(sp)
   12056:	8aaa                	mv	s5,a0
   12058:	4409                	li	s0,2
   1205a:	008107a3          	sb	s0,15(sp)
   1205e:	0804                	addi	s1,sp,16
   12060:	03200613          	li	a2,50
   12064:	8526                	mv	a0,s1
   12066:	0000c097          	auipc	ra,0xc
   1206a:	4ae080e7          	jalr	1198(ra) # 1e514 <memcpy>
   1206e:	04310a13          	addi	s4,sp,67
   12072:	04100613          	li	a2,65
   12076:	8552                	mv	a0,s4
   12078:	4581                	li	a1,0
   1207a:	0000c097          	auipc	ra,0xc
   1207e:	42e080e7          	jalr	1070(ra) # 1e4a8 <memset>
   12082:	8626                	mv	a2,s1
   12084:	04810123          	sb	s0,66(sp)
   12088:	6505                	lui	a0,0x1
   1208a:	4491                	li	s1,4
   1208c:	459d                	li	a1,7
   1208e:	91d50793          	addi	a5,a0,-1763 # 91d <.Lline_table_start1+0x6f2>
   12092:	03200693          	li	a3,50
   12096:	4711                	li	a4,4
   12098:	853e                	mv	a0,a5
   1209a:	00000073          	ecall
   1209e:	00851863          	bne	a0,s0,120ae <_ZN20complex_dynamic_type3app17h2122739b2e03fa95E+0x68>
   120a2:	4505                	li	a0,1
   120a4:	00aa8023          	sb	a0,0(s5)
   120a8:	00baa223          	sw	a1,4(s5)
   120ac:	a0bd                	j	1211a <_ZN20complex_dynamic_type3app17h2122739b2e03fa95E+0xd4>
   120ae:	853e                	mv	a0,a5
   120b0:	8652                	mv	a2,s4
   120b2:	009107a3          	sb	s1,15(sp)
   120b6:	478d                	li	a5,3
   120b8:	4595                	li	a1,5
   120ba:	04100693          	li	a3,65
   120be:	470d                	li	a4,3
   120c0:	00000073          	ecall
   120c4:	00851d63          	bne	a0,s0,120de <_ZN20complex_dynamic_type3app17h2122739b2e03fa95E+0x98>
   120c8:	04214703          	lbu	a4,66(sp)
   120cc:	4505                	li	a0,1
   120ce:	4609                	li	a2,2
   120d0:	00aa8023          	sb	a0,0(s5)
   120d4:	00baa223          	sw	a1,4(s5)
   120d8:	02c71963          	bne	a4,a2,1210a <_ZN20complex_dynamic_type3app17h2122739b2e03fa95E+0xc4>
   120dc:	a83d                	j	1211a <_ZN20complex_dynamic_type3app17h2122739b2e03fa95E+0xd4>
   120de:	4681                	li	a3,0
   120e0:	04f10123          	sb	a5,66(sp)
   120e4:	6505                	lui	a0,0x1
   120e6:	459d                	li	a1,7
   120e8:	4615                	li	a2,5
   120ea:	4709                	li	a4,2
   120ec:	91d50513          	addi	a0,a0,-1763 # 91d <.Lline_table_start1+0x6f2>
   120f0:	08000793          	li	a5,128
   120f4:	00000073          	ecall
   120f8:	4609                	li	a2,2
   120fa:	04f57663          	bgeu	a0,a5,12146 <_ZN20complex_dynamic_type3app17h2122739b2e03fa95E+0x100>
   120fe:	4505                	li	a0,1
   12100:	00aa8023          	sb	a0,0(s5)
   12104:	00baa223          	sw	a1,4(s5)
   12108:	470d                	li	a4,3
   1210a:	6505                	lui	a0,0x1
   1210c:	91d50513          	addi	a0,a0,-1763 # 91d <.Lline_table_start1+0x6f2>
   12110:	4595                	li	a1,5
   12112:	4601                	li	a2,0
   12114:	4681                	li	a3,0
   12116:	00000073          	ecall
   1211a:	00f14703          	lbu	a4,15(sp)
   1211e:	4509                	li	a0,2
   12120:	00a70a63          	beq	a4,a0,12134 <_ZN20complex_dynamic_type3app17h2122739b2e03fa95E+0xee>
   12124:	6505                	lui	a0,0x1
   12126:	91d50513          	addi	a0,a0,-1763 # 91d <.Lline_table_start1+0x6f2>
   1212a:	459d                	li	a1,7
   1212c:	4601                	li	a2,0
   1212e:	4681                	li	a3,0
   12130:	00000073          	ecall
   12134:	40fa                	lw	ra,156(sp)
   12136:	446a                	lw	s0,152(sp)
   12138:	44da                	lw	s1,148(sp)
   1213a:	494a                	lw	s2,144(sp)
   1213c:	49ba                	lw	s3,140(sp)
   1213e:	4a2a                	lw	s4,136(sp)
   12140:	4a9a                	lw	s5,132(sp)
   12142:	610d                	addi	sp,sp,160
   12144:	8082                	ret
   12146:	00f14703          	lbu	a4,15(sp)
   1214a:	00c71463          	bne	a4,a2,12152 <_ZN20complex_dynamic_type3app17h2122739b2e03fa95E+0x10c>
   1214e:	470d                	li	a4,3
   12150:	a825                	j	12188 <_ZN20complex_dynamic_type3app17h2122739b2e03fa95E+0x142>
   12152:	6505                	lui	a0,0x1
   12154:	91d50513          	addi	a0,a0,-1763 # 91d <.Lline_table_start1+0x6f2>
   12158:	459d                	li	a1,7
   1215a:	4601                	li	a2,0
   1215c:	4681                	li	a3,0
   1215e:	00000073          	ecall
   12162:	04214703          	lbu	a4,66(sp)
   12166:	4509                	li	a0,2
   12168:	00a107a3          	sb	a0,15(sp)
   1216c:	00a71e63          	bne	a4,a0,12188 <_ZN20complex_dynamic_type3app17h2122739b2e03fa95E+0x142>
   12170:	001a8513          	addi	a0,s5,1
   12174:	04100613          	li	a2,65
   12178:	85d2                	mv	a1,s4
   1217a:	0000c097          	auipc	ra,0xc
   1217e:	39a080e7          	jalr	922(ra) # 1e514 <memcpy>
   12182:	000a8023          	sb	zero,0(s5)
   12186:	b77d                	j	12134 <_ZN20complex_dynamic_type3app17h2122739b2e03fa95E+0xee>
   12188:	6505                	lui	a0,0x1
   1218a:	91d50913          	addi	s2,a0,-1763 # 91d <.Lline_table_start1+0x6f2>
   1218e:	4595                	li	a1,5
   12190:	854a                	mv	a0,s2
   12192:	4601                	li	a2,0
   12194:	4681                	li	a3,0
   12196:	00000073          	ecall
   1219a:	00f14983          	lbu	s3,15(sp)
   1219e:	001a8513          	addi	a0,s5,1
   121a2:	04100613          	li	a2,65
   121a6:	85d2                	mv	a1,s4
   121a8:	0000c097          	auipc	ra,0xc
   121ac:	36c080e7          	jalr	876(ra) # 1e514 <memcpy>
   121b0:	4509                	li	a0,2
   121b2:	000a8023          	sb	zero,0(s5)
   121b6:	f6a98fe3          	beq	s3,a0,12134 <_ZN20complex_dynamic_type3app17h2122739b2e03fa95E+0xee>
   121ba:	459d                	li	a1,7
   121bc:	854a                	mv	a0,s2
   121be:	4601                	li	a2,0
   121c0:	4681                	li	a3,0
   121c2:	874e                	mv	a4,s3
   121c4:	00000073          	ecall
   121c8:	b7b5                	j	12134 <_ZN20complex_dynamic_type3app17h2122739b2e03fa95E+0xee>

000121ca <_ZN20complex_dynamic_type3app17h2585f9d9b4e9f153E>:
   121ca:	7119                	addi	sp,sp,-128
   121cc:	de86                	sw	ra,124(sp)
   121ce:	dca2                	sw	s0,120(sp)
   121d0:	daa6                	sw	s1,116(sp)
   121d2:	d8ca                	sw	s2,112(sp)
   121d4:	d6ce                	sw	s3,108(sp)
   121d6:	d4d2                	sw	s4,104(sp)
   121d8:	d2d6                	sw	s5,100(sp)
   121da:	8aaa                	mv	s5,a0
   121dc:	4409                	li	s0,2
   121de:	008106a3          	sb	s0,13(sp)
   121e2:	00e10493          	addi	s1,sp,14
   121e6:	463d                	li	a2,15
   121e8:	8526                	mv	a0,s1
   121ea:	0000c097          	auipc	ra,0xc
   121ee:	32a080e7          	jalr	810(ra) # 1e514 <memcpy>
   121f2:	01e10a13          	addi	s4,sp,30
   121f6:	04600613          	li	a2,70
   121fa:	8552                	mv	a0,s4
   121fc:	4581                	li	a1,0
   121fe:	0000c097          	auipc	ra,0xc
   12202:	2aa080e7          	jalr	682(ra) # 1e4a8 <memset>
   12206:	8626                	mv	a2,s1
   12208:	00810ea3          	sb	s0,29(sp)
   1220c:	6509                	lui	a0,0x2
   1220e:	4491                	li	s1,4
   12210:	45a5                	li	a1,9
   12212:	d7e50793          	addi	a5,a0,-642 # 1d7e <.Lline_table_start1+0x1b53>
   12216:	46bd                	li	a3,15
   12218:	4711                	li	a4,4
   1221a:	853e                	mv	a0,a5
   1221c:	00000073          	ecall
   12220:	00851863          	bne	a0,s0,12230 <_ZN20complex_dynamic_type3app17h2585f9d9b4e9f153E+0x66>
   12224:	4505                	li	a0,1
   12226:	00aa8023          	sb	a0,0(s5)
   1222a:	00baa223          	sw	a1,4(s5)
   1222e:	a0bd                	j	1229c <_ZN20complex_dynamic_type3app17h2585f9d9b4e9f153E+0xd2>
   12230:	853e                	mv	a0,a5
   12232:	8652                	mv	a2,s4
   12234:	009106a3          	sb	s1,13(sp)
   12238:	478d                	li	a5,3
   1223a:	4589                	li	a1,2
   1223c:	04600693          	li	a3,70
   12240:	470d                	li	a4,3
   12242:	00000073          	ecall
   12246:	00851d63          	bne	a0,s0,12260 <_ZN20complex_dynamic_type3app17h2585f9d9b4e9f153E+0x96>
   1224a:	01d14703          	lbu	a4,29(sp)
   1224e:	4505                	li	a0,1
   12250:	4609                	li	a2,2
   12252:	00aa8023          	sb	a0,0(s5)
   12256:	00baa223          	sw	a1,4(s5)
   1225a:	02c71963          	bne	a4,a2,1228c <_ZN20complex_dynamic_type3app17h2585f9d9b4e9f153E+0xc2>
   1225e:	a83d                	j	1229c <_ZN20complex_dynamic_type3app17h2585f9d9b4e9f153E+0xd2>
   12260:	4681                	li	a3,0
   12262:	00f10ea3          	sb	a5,29(sp)
   12266:	6509                	lui	a0,0x2
   12268:	45a5                	li	a1,9
   1226a:	4609                	li	a2,2
   1226c:	4709                	li	a4,2
   1226e:	d7e50513          	addi	a0,a0,-642 # 1d7e <.Lline_table_start1+0x1b53>
   12272:	08000793          	li	a5,128
   12276:	00000073          	ecall
   1227a:	4609                	li	a2,2
   1227c:	04f57663          	bgeu	a0,a5,122c8 <_ZN20complex_dynamic_type3app17h2585f9d9b4e9f153E+0xfe>
   12280:	4505                	li	a0,1
   12282:	00aa8023          	sb	a0,0(s5)
   12286:	00baa223          	sw	a1,4(s5)
   1228a:	470d                	li	a4,3
   1228c:	6509                	lui	a0,0x2
   1228e:	d7e50513          	addi	a0,a0,-642 # 1d7e <.Lline_table_start1+0x1b53>
   12292:	4589                	li	a1,2
   12294:	4601                	li	a2,0
   12296:	4681                	li	a3,0
   12298:	00000073          	ecall
   1229c:	00d14703          	lbu	a4,13(sp)
   122a0:	4509                	li	a0,2
   122a2:	00a70a63          	beq	a4,a0,122b6 <_ZN20complex_dynamic_type3app17h2585f9d9b4e9f153E+0xec>
   122a6:	6509                	lui	a0,0x2
   122a8:	d7e50513          	addi	a0,a0,-642 # 1d7e <.Lline_table_start1+0x1b53>
   122ac:	45a5                	li	a1,9
   122ae:	4601                	li	a2,0
   122b0:	4681                	li	a3,0
   122b2:	00000073          	ecall
   122b6:	50f6                	lw	ra,124(sp)
   122b8:	5466                	lw	s0,120(sp)
   122ba:	54d6                	lw	s1,116(sp)
   122bc:	5946                	lw	s2,112(sp)
   122be:	59b6                	lw	s3,108(sp)
   122c0:	5a26                	lw	s4,104(sp)
   122c2:	5a96                	lw	s5,100(sp)
   122c4:	6109                	addi	sp,sp,128
   122c6:	8082                	ret
   122c8:	00d14703          	lbu	a4,13(sp)
   122cc:	00c71463          	bne	a4,a2,122d4 <_ZN20complex_dynamic_type3app17h2585f9d9b4e9f153E+0x10a>
   122d0:	470d                	li	a4,3
   122d2:	a825                	j	1230a <_ZN20complex_dynamic_type3app17h2585f9d9b4e9f153E+0x140>
   122d4:	6509                	lui	a0,0x2
   122d6:	d7e50513          	addi	a0,a0,-642 # 1d7e <.Lline_table_start1+0x1b53>
   122da:	45a5                	li	a1,9
   122dc:	4601                	li	a2,0
   122de:	4681                	li	a3,0
   122e0:	00000073          	ecall
   122e4:	01d14703          	lbu	a4,29(sp)
   122e8:	4509                	li	a0,2
   122ea:	00a106a3          	sb	a0,13(sp)
   122ee:	00a71e63          	bne	a4,a0,1230a <_ZN20complex_dynamic_type3app17h2585f9d9b4e9f153E+0x140>
   122f2:	001a8513          	addi	a0,s5,1
   122f6:	04600613          	li	a2,70
   122fa:	85d2                	mv	a1,s4
   122fc:	0000c097          	auipc	ra,0xc
   12300:	218080e7          	jalr	536(ra) # 1e514 <memcpy>
   12304:	000a8023          	sb	zero,0(s5)
   12308:	b77d                	j	122b6 <_ZN20complex_dynamic_type3app17h2585f9d9b4e9f153E+0xec>
   1230a:	4601                	li	a2,0
   1230c:	4681                	li	a3,0
   1230e:	6509                	lui	a0,0x2
   12310:	d7e50913          	addi	s2,a0,-642 # 1d7e <.Lline_table_start1+0x1b53>
   12314:	4589                	li	a1,2
   12316:	854a                	mv	a0,s2
   12318:	00000073          	ecall
   1231c:	00d14983          	lbu	s3,13(sp)
   12320:	4409                	li	s0,2
   12322:	001a8513          	addi	a0,s5,1
   12326:	04600613          	li	a2,70
   1232a:	85d2                	mv	a1,s4
   1232c:	0000c097          	auipc	ra,0xc
   12330:	1e8080e7          	jalr	488(ra) # 1e514 <memcpy>
   12334:	000a8023          	sb	zero,0(s5)
   12338:	f6898fe3          	beq	s3,s0,122b6 <_ZN20complex_dynamic_type3app17h2585f9d9b4e9f153E+0xec>
   1233c:	45a5                	li	a1,9
   1233e:	854a                	mv	a0,s2
   12340:	4601                	li	a2,0
   12342:	4681                	li	a3,0
   12344:	874e                	mv	a4,s3
   12346:	00000073          	ecall
   1234a:	b7b5                	j	122b6 <_ZN20complex_dynamic_type3app17h2585f9d9b4e9f153E+0xec>

0001234c <_ZN20complex_dynamic_type3app17h27d8931c8cf0ffe9E>:
   1234c:	7175                	addi	sp,sp,-144
   1234e:	c706                	sw	ra,140(sp)
   12350:	c522                	sw	s0,136(sp)
   12352:	c326                	sw	s1,132(sp)
   12354:	c14a                	sw	s2,128(sp)
   12356:	dece                	sw	s3,124(sp)
   12358:	dcd2                	sw	s4,120(sp)
   1235a:	dad6                	sw	s5,116(sp)
   1235c:	8aaa                	mv	s5,a0
   1235e:	4409                	li	s0,2
   12360:	00810423          	sb	s0,8(sp)
   12364:	00910493          	addi	s1,sp,9
   12368:	4669                	li	a2,26
   1236a:	8526                	mv	a0,s1
   1236c:	0000c097          	auipc	ra,0xc
   12370:	1a8080e7          	jalr	424(ra) # 1e514 <memcpy>
   12374:	02410a13          	addi	s4,sp,36
   12378:	05000613          	li	a2,80
   1237c:	8552                	mv	a0,s4
   1237e:	4581                	li	a1,0
   12380:	0000c097          	auipc	ra,0xc
   12384:	128080e7          	jalr	296(ra) # 1e4a8 <memset>
   12388:	8626                	mv	a2,s1
   1238a:	028101a3          	sb	s0,35(sp)
   1238e:	6505                	lui	a0,0x1
   12390:	4491                	li	s1,4
   12392:	459d                	li	a1,7
   12394:	aee50793          	addi	a5,a0,-1298 # aee <.Lline_table_start1+0x8c3>
   12398:	46e9                	li	a3,26
   1239a:	4711                	li	a4,4
   1239c:	853e                	mv	a0,a5
   1239e:	00000073          	ecall
   123a2:	00851863          	bne	a0,s0,123b2 <_ZN20complex_dynamic_type3app17h27d8931c8cf0ffe9E+0x66>
   123a6:	4505                	li	a0,1
   123a8:	00aa8023          	sb	a0,0(s5)
   123ac:	00baa223          	sw	a1,4(s5)
   123b0:	a0bd                	j	1241e <_ZN20complex_dynamic_type3app17h27d8931c8cf0ffe9E+0xd2>
   123b2:	853e                	mv	a0,a5
   123b4:	8652                	mv	a2,s4
   123b6:	00910423          	sb	s1,8(sp)
   123ba:	478d                	li	a5,3
   123bc:	4591                	li	a1,4
   123be:	05000693          	li	a3,80
   123c2:	470d                	li	a4,3
   123c4:	00000073          	ecall
   123c8:	00851d63          	bne	a0,s0,123e2 <_ZN20complex_dynamic_type3app17h27d8931c8cf0ffe9E+0x96>
   123cc:	02314703          	lbu	a4,35(sp)
   123d0:	4505                	li	a0,1
   123d2:	4609                	li	a2,2
   123d4:	00aa8023          	sb	a0,0(s5)
   123d8:	00baa223          	sw	a1,4(s5)
   123dc:	02c71963          	bne	a4,a2,1240e <_ZN20complex_dynamic_type3app17h27d8931c8cf0ffe9E+0xc2>
   123e0:	a83d                	j	1241e <_ZN20complex_dynamic_type3app17h27d8931c8cf0ffe9E+0xd2>
   123e2:	4681                	li	a3,0
   123e4:	02f101a3          	sb	a5,35(sp)
   123e8:	6505                	lui	a0,0x1
   123ea:	459d                	li	a1,7
   123ec:	4611                	li	a2,4
   123ee:	4709                	li	a4,2
   123f0:	aee50513          	addi	a0,a0,-1298 # aee <.Lline_table_start1+0x8c3>
   123f4:	08000793          	li	a5,128
   123f8:	00000073          	ecall
   123fc:	4609                	li	a2,2
   123fe:	04f57663          	bgeu	a0,a5,1244a <_ZN20complex_dynamic_type3app17h27d8931c8cf0ffe9E+0xfe>
   12402:	4505                	li	a0,1
   12404:	00aa8023          	sb	a0,0(s5)
   12408:	00baa223          	sw	a1,4(s5)
   1240c:	470d                	li	a4,3
   1240e:	6505                	lui	a0,0x1
   12410:	aee50513          	addi	a0,a0,-1298 # aee <.Lline_table_start1+0x8c3>
   12414:	4591                	li	a1,4
   12416:	4601                	li	a2,0
   12418:	4681                	li	a3,0
   1241a:	00000073          	ecall
   1241e:	00814703          	lbu	a4,8(sp)
   12422:	4509                	li	a0,2
   12424:	00a70a63          	beq	a4,a0,12438 <_ZN20complex_dynamic_type3app17h27d8931c8cf0ffe9E+0xec>
   12428:	6505                	lui	a0,0x1
   1242a:	aee50513          	addi	a0,a0,-1298 # aee <.Lline_table_start1+0x8c3>
   1242e:	459d                	li	a1,7
   12430:	4601                	li	a2,0
   12432:	4681                	li	a3,0
   12434:	00000073          	ecall
   12438:	40ba                	lw	ra,140(sp)
   1243a:	442a                	lw	s0,136(sp)
   1243c:	449a                	lw	s1,132(sp)
   1243e:	490a                	lw	s2,128(sp)
   12440:	59f6                	lw	s3,124(sp)
   12442:	5a66                	lw	s4,120(sp)
   12444:	5ad6                	lw	s5,116(sp)
   12446:	6149                	addi	sp,sp,144
   12448:	8082                	ret
   1244a:	00814703          	lbu	a4,8(sp)
   1244e:	00c71463          	bne	a4,a2,12456 <_ZN20complex_dynamic_type3app17h27d8931c8cf0ffe9E+0x10a>
   12452:	470d                	li	a4,3
   12454:	a825                	j	1248c <_ZN20complex_dynamic_type3app17h27d8931c8cf0ffe9E+0x140>
   12456:	6505                	lui	a0,0x1
   12458:	aee50513          	addi	a0,a0,-1298 # aee <.Lline_table_start1+0x8c3>
   1245c:	459d                	li	a1,7
   1245e:	4601                	li	a2,0
   12460:	4681                	li	a3,0
   12462:	00000073          	ecall
   12466:	02314703          	lbu	a4,35(sp)
   1246a:	4509                	li	a0,2
   1246c:	00a10423          	sb	a0,8(sp)
   12470:	00a71e63          	bne	a4,a0,1248c <_ZN20complex_dynamic_type3app17h27d8931c8cf0ffe9E+0x140>
   12474:	001a8513          	addi	a0,s5,1
   12478:	05000613          	li	a2,80
   1247c:	85d2                	mv	a1,s4
   1247e:	0000c097          	auipc	ra,0xc
   12482:	096080e7          	jalr	150(ra) # 1e514 <memcpy>
   12486:	000a8023          	sb	zero,0(s5)
   1248a:	b77d                	j	12438 <_ZN20complex_dynamic_type3app17h27d8931c8cf0ffe9E+0xec>
   1248c:	6505                	lui	a0,0x1
   1248e:	aee50913          	addi	s2,a0,-1298 # aee <.Lline_table_start1+0x8c3>
   12492:	4591                	li	a1,4
   12494:	854a                	mv	a0,s2
   12496:	4601                	li	a2,0
   12498:	4681                	li	a3,0
   1249a:	00000073          	ecall
   1249e:	00814983          	lbu	s3,8(sp)
   124a2:	001a8513          	addi	a0,s5,1
   124a6:	05000613          	li	a2,80
   124aa:	85d2                	mv	a1,s4
   124ac:	0000c097          	auipc	ra,0xc
   124b0:	068080e7          	jalr	104(ra) # 1e514 <memcpy>
   124b4:	4509                	li	a0,2
   124b6:	000a8023          	sb	zero,0(s5)
   124ba:	f6a98fe3          	beq	s3,a0,12438 <_ZN20complex_dynamic_type3app17h27d8931c8cf0ffe9E+0xec>
   124be:	459d                	li	a1,7
   124c0:	854a                	mv	a0,s2
   124c2:	4601                	li	a2,0
   124c4:	4681                	li	a3,0
   124c6:	874e                	mv	a4,s3
   124c8:	00000073          	ecall
   124cc:	b7b5                	j	12438 <_ZN20complex_dynamic_type3app17h27d8931c8cf0ffe9E+0xec>

000124ce <_ZN20complex_dynamic_type3app17h2b911826479ca4bcE>:
   124ce:	7135                	addi	sp,sp,-160
   124d0:	cf06                	sw	ra,156(sp)
   124d2:	cd22                	sw	s0,152(sp)
   124d4:	cb26                	sw	s1,148(sp)
   124d6:	c94a                	sw	s2,144(sp)
   124d8:	c74e                	sw	s3,140(sp)
   124da:	c552                	sw	s4,136(sp)
   124dc:	8a2a                	mv	s4,a0
   124de:	4409                	li	s0,2
   124e0:	008103a3          	sb	s0,7(sp)
   124e4:	0024                	addi	s1,sp,8
   124e6:	06100613          	li	a2,97
   124ea:	8526                	mv	a0,s1
   124ec:	0000c097          	auipc	ra,0xc
   124f0:	028080e7          	jalr	40(ra) # 1e514 <memcpy>
   124f4:	06a10993          	addi	s3,sp,106
   124f8:	4679                	li	a2,30
   124fa:	854e                	mv	a0,s3
   124fc:	4581                	li	a1,0
   124fe:	0000c097          	auipc	ra,0xc
   12502:	faa080e7          	jalr	-86(ra) # 1e4a8 <memset>
   12506:	8626                	mv	a2,s1
   12508:	068104a3          	sb	s0,105(sp)
   1250c:	4791                	li	a5,4
   1250e:	18800513          	li	a0,392
   12512:	4591                	li	a1,4
   12514:	06100693          	li	a3,97
   12518:	4711                	li	a4,4
   1251a:	00000073          	ecall
   1251e:	00851863          	bne	a0,s0,1252e <_ZN20complex_dynamic_type3app17h2b911826479ca4bcE+0x60>
   12522:	4505                	li	a0,1
   12524:	00aa0023          	sb	a0,0(s4)
   12528:	00ba2223          	sw	a1,4(s4)
   1252c:	a0ad                	j	12596 <_ZN20complex_dynamic_type3app17h2b911826479ca4bcE+0xc8>
   1252e:	864e                	mv	a2,s3
   12530:	00f103a3          	sb	a5,7(sp)
   12534:	478d                	li	a5,3
   12536:	18800513          	li	a0,392
   1253a:	4599                	li	a1,6
   1253c:	46f9                	li	a3,30
   1253e:	470d                	li	a4,3
   12540:	00000073          	ecall
   12544:	00851d63          	bne	a0,s0,1255e <_ZN20complex_dynamic_type3app17h2b911826479ca4bcE+0x90>
   12548:	06914703          	lbu	a4,105(sp)
   1254c:	4505                	li	a0,1
   1254e:	4609                	li	a2,2
   12550:	00aa0023          	sb	a0,0(s4)
   12554:	00ba2223          	sw	a1,4(s4)
   12558:	02c71863          	bne	a4,a2,12588 <_ZN20complex_dynamic_type3app17h2b911826479ca4bcE+0xba>
   1255c:	a82d                	j	12596 <_ZN20complex_dynamic_type3app17h2b911826479ca4bcE+0xc8>
   1255e:	4681                	li	a3,0
   12560:	06f104a3          	sb	a5,105(sp)
   12564:	18800513          	li	a0,392
   12568:	4591                	li	a1,4
   1256a:	4619                	li	a2,6
   1256c:	4709                	li	a4,2
   1256e:	08000793          	li	a5,128
   12572:	00000073          	ecall
   12576:	4609                	li	a2,2
   12578:	04f57363          	bgeu	a0,a5,125be <_ZN20complex_dynamic_type3app17h2b911826479ca4bcE+0xf0>
   1257c:	4505                	li	a0,1
   1257e:	00aa0023          	sb	a0,0(s4)
   12582:	00ba2223          	sw	a1,4(s4)
   12586:	470d                	li	a4,3
   12588:	18800513          	li	a0,392
   1258c:	4599                	li	a1,6
   1258e:	4601                	li	a2,0
   12590:	4681                	li	a3,0
   12592:	00000073          	ecall
   12596:	00714703          	lbu	a4,7(sp)
   1259a:	4509                	li	a0,2
   1259c:	00a70963          	beq	a4,a0,125ae <_ZN20complex_dynamic_type3app17h2b911826479ca4bcE+0xe0>
   125a0:	18800513          	li	a0,392
   125a4:	4591                	li	a1,4
   125a6:	4601                	li	a2,0
   125a8:	4681                	li	a3,0
   125aa:	00000073          	ecall
   125ae:	40fa                	lw	ra,156(sp)
   125b0:	446a                	lw	s0,152(sp)
   125b2:	44da                	lw	s1,148(sp)
   125b4:	494a                	lw	s2,144(sp)
   125b6:	49ba                	lw	s3,140(sp)
   125b8:	4a2a                	lw	s4,136(sp)
   125ba:	610d                	addi	sp,sp,160
   125bc:	8082                	ret
   125be:	00714703          	lbu	a4,7(sp)
   125c2:	00c71463          	bne	a4,a2,125ca <_ZN20complex_dynamic_type3app17h2b911826479ca4bcE+0xfc>
   125c6:	470d                	li	a4,3
   125c8:	a815                	j	125fc <_ZN20complex_dynamic_type3app17h2b911826479ca4bcE+0x12e>
   125ca:	18800513          	li	a0,392
   125ce:	4591                	li	a1,4
   125d0:	4601                	li	a2,0
   125d2:	4681                	li	a3,0
   125d4:	00000073          	ecall
   125d8:	06914703          	lbu	a4,105(sp)
   125dc:	4509                	li	a0,2
   125de:	00a103a3          	sb	a0,7(sp)
   125e2:	00a71d63          	bne	a4,a0,125fc <_ZN20complex_dynamic_type3app17h2b911826479ca4bcE+0x12e>
   125e6:	001a0513          	addi	a0,s4,1
   125ea:	4679                	li	a2,30
   125ec:	85ce                	mv	a1,s3
   125ee:	0000c097          	auipc	ra,0xc
   125f2:	f26080e7          	jalr	-218(ra) # 1e514 <memcpy>
   125f6:	000a0023          	sb	zero,0(s4)
   125fa:	bf55                	j	125ae <_ZN20complex_dynamic_type3app17h2b911826479ca4bcE+0xe0>
   125fc:	18800513          	li	a0,392
   12600:	4599                	li	a1,6
   12602:	4601                	li	a2,0
   12604:	4681                	li	a3,0
   12606:	00000073          	ecall
   1260a:	00714903          	lbu	s2,7(sp)
   1260e:	001a0513          	addi	a0,s4,1
   12612:	4679                	li	a2,30
   12614:	85ce                	mv	a1,s3
   12616:	0000c097          	auipc	ra,0xc
   1261a:	efe080e7          	jalr	-258(ra) # 1e514 <memcpy>
   1261e:	4509                	li	a0,2
   12620:	000a0023          	sb	zero,0(s4)
   12624:	f8a905e3          	beq	s2,a0,125ae <_ZN20complex_dynamic_type3app17h2b911826479ca4bcE+0xe0>
   12628:	18800513          	li	a0,392
   1262c:	4591                	li	a1,4
   1262e:	4601                	li	a2,0
   12630:	4681                	li	a3,0
   12632:	874a                	mv	a4,s2
   12634:	00000073          	ecall
   12638:	bf9d                	j	125ae <_ZN20complex_dynamic_type3app17h2b911826479ca4bcE+0xe0>

0001263a <_ZN20complex_dynamic_type3app17h2ce1c5800b850089E>:
   1263a:	7159                	addi	sp,sp,-112
   1263c:	d686                	sw	ra,108(sp)
   1263e:	d4a2                	sw	s0,104(sp)
   12640:	d2a6                	sw	s1,100(sp)
   12642:	d0ca                	sw	s2,96(sp)
   12644:	cece                	sw	s3,92(sp)
   12646:	ccd2                	sw	s4,88(sp)
   12648:	cad6                	sw	s5,84(sp)
   1264a:	8aaa                	mv	s5,a0
   1264c:	4409                	li	s0,2
   1264e:	008103a3          	sb	s0,7(sp)
   12652:	0024                	addi	s1,sp,8
   12654:	02100613          	li	a2,33
   12658:	8526                	mv	a0,s1
   1265a:	0000c097          	auipc	ra,0xc
   1265e:	eba080e7          	jalr	-326(ra) # 1e514 <memcpy>
   12662:	02a10a13          	addi	s4,sp,42
   12666:	02a00613          	li	a2,42
   1266a:	8552                	mv	a0,s4
   1266c:	4581                	li	a1,0
   1266e:	0000c097          	auipc	ra,0xc
   12672:	e3a080e7          	jalr	-454(ra) # 1e4a8 <memset>
   12676:	8626                	mv	a2,s1
   12678:	028104a3          	sb	s0,41(sp)
   1267c:	6505                	lui	a0,0x1
   1267e:	4805                	li	a6,1
   12680:	4491                	li	s1,4
   12682:	4585                	li	a1,1
   12684:	5f350793          	addi	a5,a0,1523 # 15f3 <.Lline_table_start1+0x13c8>
   12688:	02100693          	li	a3,33
   1268c:	4711                	li	a4,4
   1268e:	853e                	mv	a0,a5
   12690:	00000073          	ecall
   12694:	00851763          	bne	a0,s0,126a2 <_ZN20complex_dynamic_type3app17h2ce1c5800b850089E+0x68>
   12698:	010a8023          	sb	a6,0(s5)
   1269c:	00baa223          	sw	a1,4(s5)
   126a0:	a0bd                	j	1270e <_ZN20complex_dynamic_type3app17h2ce1c5800b850089E+0xd4>
   126a2:	853e                	mv	a0,a5
   126a4:	8652                	mv	a2,s4
   126a6:	009103a3          	sb	s1,7(sp)
   126aa:	478d                	li	a5,3
   126ac:	458d                	li	a1,3
   126ae:	02a00693          	li	a3,42
   126b2:	470d                	li	a4,3
   126b4:	00000073          	ecall
   126b8:	00851d63          	bne	a0,s0,126d2 <_ZN20complex_dynamic_type3app17h2ce1c5800b850089E+0x98>
   126bc:	02914703          	lbu	a4,41(sp)
   126c0:	4505                	li	a0,1
   126c2:	4609                	li	a2,2
   126c4:	00aa8023          	sb	a0,0(s5)
   126c8:	00baa223          	sw	a1,4(s5)
   126cc:	02c71963          	bne	a4,a2,126fe <_ZN20complex_dynamic_type3app17h2ce1c5800b850089E+0xc4>
   126d0:	a83d                	j	1270e <_ZN20complex_dynamic_type3app17h2ce1c5800b850089E+0xd4>
   126d2:	4681                	li	a3,0
   126d4:	02f104a3          	sb	a5,41(sp)
   126d8:	6505                	lui	a0,0x1
   126da:	4785                	li	a5,1
   126dc:	4585                	li	a1,1
   126de:	460d                	li	a2,3
   126e0:	4709                	li	a4,2
   126e2:	5f350513          	addi	a0,a0,1523 # 15f3 <.Lline_table_start1+0x13c8>
   126e6:	08000493          	li	s1,128
   126ea:	00000073          	ecall
   126ee:	4609                	li	a2,2
   126f0:	04957563          	bgeu	a0,s1,1273a <_ZN20complex_dynamic_type3app17h2ce1c5800b850089E+0x100>
   126f4:	00fa8023          	sb	a5,0(s5)
   126f8:	00baa223          	sw	a1,4(s5)
   126fc:	470d                	li	a4,3
   126fe:	6505                	lui	a0,0x1
   12700:	5f350513          	addi	a0,a0,1523 # 15f3 <.Lline_table_start1+0x13c8>
   12704:	458d                	li	a1,3
   12706:	4601                	li	a2,0
   12708:	4681                	li	a3,0
   1270a:	00000073          	ecall
   1270e:	00714703          	lbu	a4,7(sp)
   12712:	4509                	li	a0,2
   12714:	00a70a63          	beq	a4,a0,12728 <_ZN20complex_dynamic_type3app17h2ce1c5800b850089E+0xee>
   12718:	6505                	lui	a0,0x1
   1271a:	5f350513          	addi	a0,a0,1523 # 15f3 <.Lline_table_start1+0x13c8>
   1271e:	4585                	li	a1,1
   12720:	4601                	li	a2,0
   12722:	4681                	li	a3,0
   12724:	00000073          	ecall
   12728:	50b6                	lw	ra,108(sp)
   1272a:	5426                	lw	s0,104(sp)
   1272c:	5496                	lw	s1,100(sp)
   1272e:	5906                	lw	s2,96(sp)
   12730:	49f6                	lw	s3,92(sp)
   12732:	4a66                	lw	s4,88(sp)
   12734:	4ad6                	lw	s5,84(sp)
   12736:	6165                	addi	sp,sp,112
   12738:	8082                	ret
   1273a:	00714703          	lbu	a4,7(sp)
   1273e:	00c71463          	bne	a4,a2,12746 <_ZN20complex_dynamic_type3app17h2ce1c5800b850089E+0x10c>
   12742:	470d                	li	a4,3
   12744:	a825                	j	1277c <_ZN20complex_dynamic_type3app17h2ce1c5800b850089E+0x142>
   12746:	6505                	lui	a0,0x1
   12748:	5f350513          	addi	a0,a0,1523 # 15f3 <.Lline_table_start1+0x13c8>
   1274c:	4585                	li	a1,1
   1274e:	4601                	li	a2,0
   12750:	4681                	li	a3,0
   12752:	00000073          	ecall
   12756:	02914703          	lbu	a4,41(sp)
   1275a:	4509                	li	a0,2
   1275c:	00a103a3          	sb	a0,7(sp)
   12760:	00a71e63          	bne	a4,a0,1277c <_ZN20complex_dynamic_type3app17h2ce1c5800b850089E+0x142>
   12764:	001a8513          	addi	a0,s5,1
   12768:	02a00613          	li	a2,42
   1276c:	85d2                	mv	a1,s4
   1276e:	0000c097          	auipc	ra,0xc
   12772:	da6080e7          	jalr	-602(ra) # 1e514 <memcpy>
   12776:	000a8023          	sb	zero,0(s5)
   1277a:	b77d                	j	12728 <_ZN20complex_dynamic_type3app17h2ce1c5800b850089E+0xee>
   1277c:	6505                	lui	a0,0x1
   1277e:	5f350913          	addi	s2,a0,1523 # 15f3 <.Lline_table_start1+0x13c8>
   12782:	458d                	li	a1,3
   12784:	854a                	mv	a0,s2
   12786:	4601                	li	a2,0
   12788:	4681                	li	a3,0
   1278a:	00000073          	ecall
   1278e:	00714983          	lbu	s3,7(sp)
   12792:	001a8513          	addi	a0,s5,1
   12796:	02a00613          	li	a2,42
   1279a:	85d2                	mv	a1,s4
   1279c:	0000c097          	auipc	ra,0xc
   127a0:	d78080e7          	jalr	-648(ra) # 1e514 <memcpy>
   127a4:	4509                	li	a0,2
   127a6:	000a8023          	sb	zero,0(s5)
   127aa:	f6a98fe3          	beq	s3,a0,12728 <_ZN20complex_dynamic_type3app17h2ce1c5800b850089E+0xee>
   127ae:	4585                	li	a1,1
   127b0:	854a                	mv	a0,s2
   127b2:	4601                	li	a2,0
   127b4:	4681                	li	a3,0
   127b6:	874e                	mv	a4,s3
   127b8:	00000073          	ecall
   127bc:	b7b5                	j	12728 <_ZN20complex_dynamic_type3app17h2ce1c5800b850089E+0xee>

000127be <_ZN20complex_dynamic_type3app17h2f31bf1258cbac18E>:
   127be:	7159                	addi	sp,sp,-112
   127c0:	d686                	sw	ra,108(sp)
   127c2:	d4a2                	sw	s0,104(sp)
   127c4:	d2a6                	sw	s1,100(sp)
   127c6:	d0ca                	sw	s2,96(sp)
   127c8:	cece                	sw	s3,92(sp)
   127ca:	ccd2                	sw	s4,88(sp)
   127cc:	8a2a                	mv	s4,a0
   127ce:	4409                	li	s0,2
   127d0:	00810623          	sb	s0,12(sp)
   127d4:	00d10493          	addi	s1,sp,13
   127d8:	4679                	li	a2,30
   127da:	8526                	mv	a0,s1
   127dc:	0000c097          	auipc	ra,0xc
   127e0:	d38080e7          	jalr	-712(ra) # 1e514 <memcpy>
   127e4:	02c10993          	addi	s3,sp,44
   127e8:	02c00613          	li	a2,44
   127ec:	854e                	mv	a0,s3
   127ee:	4581                	li	a1,0
   127f0:	0000c097          	auipc	ra,0xc
   127f4:	cb8080e7          	jalr	-840(ra) # 1e4a8 <memset>
   127f8:	8626                	mv	a2,s1
   127fa:	028105a3          	sb	s0,43(sp)
   127fe:	4791                	li	a5,4
   12800:	3fb00513          	li	a0,1019
   12804:	459d                	li	a1,7
   12806:	46f9                	li	a3,30
   12808:	4711                	li	a4,4
   1280a:	00000073          	ecall
   1280e:	00851863          	bne	a0,s0,1281e <_ZN20complex_dynamic_type3app17h2f31bf1258cbac18E+0x60>
   12812:	4505                	li	a0,1
   12814:	00aa0023          	sb	a0,0(s4)
   12818:	00ba2223          	sw	a1,4(s4)
   1281c:	a0b5                	j	12888 <_ZN20complex_dynamic_type3app17h2f31bf1258cbac18E+0xca>
   1281e:	4581                	li	a1,0
   12820:	864e                	mv	a2,s3
   12822:	00f10623          	sb	a5,12(sp)
   12826:	478d                	li	a5,3
   12828:	3fb00513          	li	a0,1019
   1282c:	02c00693          	li	a3,44
   12830:	470d                	li	a4,3
   12832:	00000073          	ecall
   12836:	00851d63          	bne	a0,s0,12850 <_ZN20complex_dynamic_type3app17h2f31bf1258cbac18E+0x92>
   1283a:	02b14703          	lbu	a4,43(sp)
   1283e:	4505                	li	a0,1
   12840:	4609                	li	a2,2
   12842:	00aa0023          	sb	a0,0(s4)
   12846:	00ba2223          	sw	a1,4(s4)
   1284a:	02c71863          	bne	a4,a2,1287a <_ZN20complex_dynamic_type3app17h2f31bf1258cbac18E+0xbc>
   1284e:	a82d                	j	12888 <_ZN20complex_dynamic_type3app17h2f31bf1258cbac18E+0xca>
   12850:	4601                	li	a2,0
   12852:	4681                	li	a3,0
   12854:	02f105a3          	sb	a5,43(sp)
   12858:	3fb00513          	li	a0,1019
   1285c:	459d                	li	a1,7
   1285e:	4709                	li	a4,2
   12860:	08000793          	li	a5,128
   12864:	00000073          	ecall
   12868:	4609                	li	a2,2
   1286a:	04f57363          	bgeu	a0,a5,128b0 <_ZN20complex_dynamic_type3app17h2f31bf1258cbac18E+0xf2>
   1286e:	4505                	li	a0,1
   12870:	00aa0023          	sb	a0,0(s4)
   12874:	00ba2223          	sw	a1,4(s4)
   12878:	470d                	li	a4,3
   1287a:	3fb00513          	li	a0,1019
   1287e:	4581                	li	a1,0
   12880:	4601                	li	a2,0
   12882:	4681                	li	a3,0
   12884:	00000073          	ecall
   12888:	00c14703          	lbu	a4,12(sp)
   1288c:	4509                	li	a0,2
   1288e:	00a70963          	beq	a4,a0,128a0 <_ZN20complex_dynamic_type3app17h2f31bf1258cbac18E+0xe2>
   12892:	3fb00513          	li	a0,1019
   12896:	459d                	li	a1,7
   12898:	4601                	li	a2,0
   1289a:	4681                	li	a3,0
   1289c:	00000073          	ecall
   128a0:	50b6                	lw	ra,108(sp)
   128a2:	5426                	lw	s0,104(sp)
   128a4:	5496                	lw	s1,100(sp)
   128a6:	5906                	lw	s2,96(sp)
   128a8:	49f6                	lw	s3,92(sp)
   128aa:	4a66                	lw	s4,88(sp)
   128ac:	6165                	addi	sp,sp,112
   128ae:	8082                	ret
   128b0:	00c14703          	lbu	a4,12(sp)
   128b4:	00c71463          	bne	a4,a2,128bc <_ZN20complex_dynamic_type3app17h2f31bf1258cbac18E+0xfe>
   128b8:	470d                	li	a4,3
   128ba:	a81d                	j	128f0 <_ZN20complex_dynamic_type3app17h2f31bf1258cbac18E+0x132>
   128bc:	3fb00513          	li	a0,1019
   128c0:	459d                	li	a1,7
   128c2:	4601                	li	a2,0
   128c4:	4681                	li	a3,0
   128c6:	00000073          	ecall
   128ca:	02b14703          	lbu	a4,43(sp)
   128ce:	4509                	li	a0,2
   128d0:	00a10623          	sb	a0,12(sp)
   128d4:	00a71e63          	bne	a4,a0,128f0 <_ZN20complex_dynamic_type3app17h2f31bf1258cbac18E+0x132>
   128d8:	001a0513          	addi	a0,s4,1
   128dc:	02c00613          	li	a2,44
   128e0:	85ce                	mv	a1,s3
   128e2:	0000c097          	auipc	ra,0xc
   128e6:	c32080e7          	jalr	-974(ra) # 1e514 <memcpy>
   128ea:	000a0023          	sb	zero,0(s4)
   128ee:	bf4d                	j	128a0 <_ZN20complex_dynamic_type3app17h2f31bf1258cbac18E+0xe2>
   128f0:	3fb00513          	li	a0,1019
   128f4:	4581                	li	a1,0
   128f6:	4601                	li	a2,0
   128f8:	4681                	li	a3,0
   128fa:	00000073          	ecall
   128fe:	00c14903          	lbu	s2,12(sp)
   12902:	001a0513          	addi	a0,s4,1
   12906:	02c00613          	li	a2,44
   1290a:	85ce                	mv	a1,s3
   1290c:	0000c097          	auipc	ra,0xc
   12910:	c08080e7          	jalr	-1016(ra) # 1e514 <memcpy>
   12914:	4509                	li	a0,2
   12916:	000a0023          	sb	zero,0(s4)
   1291a:	f8a903e3          	beq	s2,a0,128a0 <_ZN20complex_dynamic_type3app17h2f31bf1258cbac18E+0xe2>
   1291e:	3fb00513          	li	a0,1019
   12922:	459d                	li	a1,7
   12924:	4601                	li	a2,0
   12926:	4681                	li	a3,0
   12928:	874a                	mv	a4,s2
   1292a:	00000073          	ecall
   1292e:	bf8d                	j	128a0 <_ZN20complex_dynamic_type3app17h2f31bf1258cbac18E+0xe2>

00012930 <_ZN20complex_dynamic_type3app17h2f767fe541e41200E>:
   12930:	7175                	addi	sp,sp,-144
   12932:	c706                	sw	ra,140(sp)
   12934:	c522                	sw	s0,136(sp)
   12936:	c326                	sw	s1,132(sp)
   12938:	c14a                	sw	s2,128(sp)
   1293a:	dece                	sw	s3,124(sp)
   1293c:	dcd2                	sw	s4,120(sp)
   1293e:	dad6                	sw	s5,116(sp)
   12940:	8aaa                	mv	s5,a0
   12942:	4409                	li	s0,2
   12944:	008101a3          	sb	s0,3(sp)
   12948:	0044                	addi	s1,sp,4
   1294a:	05d00613          	li	a2,93
   1294e:	8526                	mv	a0,s1
   12950:	0000c097          	auipc	ra,0xc
   12954:	bc4080e7          	jalr	-1084(ra) # 1e514 <memcpy>
   12958:	06210a13          	addi	s4,sp,98
   1295c:	4649                	li	a2,18
   1295e:	8552                	mv	a0,s4
   12960:	4581                	li	a1,0
   12962:	0000c097          	auipc	ra,0xc
   12966:	b46080e7          	jalr	-1210(ra) # 1e4a8 <memset>
   1296a:	4581                	li	a1,0
   1296c:	8626                	mv	a2,s1
   1296e:	068100a3          	sb	s0,97(sp)
   12972:	6505                	lui	a0,0x1
   12974:	4491                	li	s1,4
   12976:	5f150793          	addi	a5,a0,1521 # 15f1 <.Lline_table_start1+0x13c6>
   1297a:	05d00693          	li	a3,93
   1297e:	4711                	li	a4,4
   12980:	853e                	mv	a0,a5
   12982:	00000073          	ecall
   12986:	00851863          	bne	a0,s0,12996 <_ZN20complex_dynamic_type3app17h2f767fe541e41200E+0x66>
   1298a:	4505                	li	a0,1
   1298c:	00aa8023          	sb	a0,0(s5)
   12990:	00baa223          	sw	a1,4(s5)
   12994:	a0b5                	j	12a00 <_ZN20complex_dynamic_type3app17h2f767fe541e41200E+0xd0>
   12996:	853e                	mv	a0,a5
   12998:	8652                	mv	a2,s4
   1299a:	009101a3          	sb	s1,3(sp)
   1299e:	478d                	li	a5,3
   129a0:	4589                	li	a1,2
   129a2:	46c9                	li	a3,18
   129a4:	470d                	li	a4,3
   129a6:	00000073          	ecall
   129aa:	00851d63          	bne	a0,s0,129c4 <_ZN20complex_dynamic_type3app17h2f767fe541e41200E+0x94>
   129ae:	06114703          	lbu	a4,97(sp)
   129b2:	4505                	li	a0,1
   129b4:	4609                	li	a2,2
   129b6:	00aa8023          	sb	a0,0(s5)
   129ba:	00baa223          	sw	a1,4(s5)
   129be:	02c71963          	bne	a4,a2,129f0 <_ZN20complex_dynamic_type3app17h2f767fe541e41200E+0xc0>
   129c2:	a83d                	j	12a00 <_ZN20complex_dynamic_type3app17h2f767fe541e41200E+0xd0>
   129c4:	4581                	li	a1,0
   129c6:	4681                	li	a3,0
   129c8:	06f100a3          	sb	a5,97(sp)
   129cc:	6505                	lui	a0,0x1
   129ce:	4609                	li	a2,2
   129d0:	4709                	li	a4,2
   129d2:	5f150513          	addi	a0,a0,1521 # 15f1 <.Lline_table_start1+0x13c6>
   129d6:	08000793          	li	a5,128
   129da:	00000073          	ecall
   129de:	4609                	li	a2,2
   129e0:	04f57663          	bgeu	a0,a5,12a2c <_ZN20complex_dynamic_type3app17h2f767fe541e41200E+0xfc>
   129e4:	4505                	li	a0,1
   129e6:	00aa8023          	sb	a0,0(s5)
   129ea:	00baa223          	sw	a1,4(s5)
   129ee:	470d                	li	a4,3
   129f0:	6505                	lui	a0,0x1
   129f2:	5f150513          	addi	a0,a0,1521 # 15f1 <.Lline_table_start1+0x13c6>
   129f6:	4589                	li	a1,2
   129f8:	4601                	li	a2,0
   129fa:	4681                	li	a3,0
   129fc:	00000073          	ecall
   12a00:	00314703          	lbu	a4,3(sp)
   12a04:	4509                	li	a0,2
   12a06:	00a70a63          	beq	a4,a0,12a1a <_ZN20complex_dynamic_type3app17h2f767fe541e41200E+0xea>
   12a0a:	6505                	lui	a0,0x1
   12a0c:	5f150513          	addi	a0,a0,1521 # 15f1 <.Lline_table_start1+0x13c6>
   12a10:	4581                	li	a1,0
   12a12:	4601                	li	a2,0
   12a14:	4681                	li	a3,0
   12a16:	00000073          	ecall
   12a1a:	40ba                	lw	ra,140(sp)
   12a1c:	442a                	lw	s0,136(sp)
   12a1e:	449a                	lw	s1,132(sp)
   12a20:	490a                	lw	s2,128(sp)
   12a22:	59f6                	lw	s3,124(sp)
   12a24:	5a66                	lw	s4,120(sp)
   12a26:	5ad6                	lw	s5,116(sp)
   12a28:	6149                	addi	sp,sp,144
   12a2a:	8082                	ret
   12a2c:	00314703          	lbu	a4,3(sp)
   12a30:	00c71463          	bne	a4,a2,12a38 <_ZN20complex_dynamic_type3app17h2f767fe541e41200E+0x108>
   12a34:	470d                	li	a4,3
   12a36:	a81d                	j	12a6c <_ZN20complex_dynamic_type3app17h2f767fe541e41200E+0x13c>
   12a38:	6505                	lui	a0,0x1
   12a3a:	5f150513          	addi	a0,a0,1521 # 15f1 <.Lline_table_start1+0x13c6>
   12a3e:	4581                	li	a1,0
   12a40:	4601                	li	a2,0
   12a42:	4681                	li	a3,0
   12a44:	00000073          	ecall
   12a48:	06114703          	lbu	a4,97(sp)
   12a4c:	4509                	li	a0,2
   12a4e:	00a101a3          	sb	a0,3(sp)
   12a52:	00a71d63          	bne	a4,a0,12a6c <_ZN20complex_dynamic_type3app17h2f767fe541e41200E+0x13c>
   12a56:	001a8513          	addi	a0,s5,1
   12a5a:	4649                	li	a2,18
   12a5c:	85d2                	mv	a1,s4
   12a5e:	0000c097          	auipc	ra,0xc
   12a62:	ab6080e7          	jalr	-1354(ra) # 1e514 <memcpy>
   12a66:	000a8023          	sb	zero,0(s5)
   12a6a:	bf45                	j	12a1a <_ZN20complex_dynamic_type3app17h2f767fe541e41200E+0xea>
   12a6c:	4601                	li	a2,0
   12a6e:	4681                	li	a3,0
   12a70:	6505                	lui	a0,0x1
   12a72:	5f150913          	addi	s2,a0,1521 # 15f1 <.Lline_table_start1+0x13c6>
   12a76:	4589                	li	a1,2
   12a78:	854a                	mv	a0,s2
   12a7a:	00000073          	ecall
   12a7e:	00314983          	lbu	s3,3(sp)
   12a82:	4409                	li	s0,2
   12a84:	001a8513          	addi	a0,s5,1
   12a88:	4649                	li	a2,18
   12a8a:	85d2                	mv	a1,s4
   12a8c:	0000c097          	auipc	ra,0xc
   12a90:	a88080e7          	jalr	-1400(ra) # 1e514 <memcpy>
   12a94:	000a8023          	sb	zero,0(s5)
   12a98:	f88981e3          	beq	s3,s0,12a1a <_ZN20complex_dynamic_type3app17h2f767fe541e41200E+0xea>
   12a9c:	854a                	mv	a0,s2
   12a9e:	4581                	li	a1,0
   12aa0:	4601                	li	a2,0
   12aa2:	4681                	li	a3,0
   12aa4:	874e                	mv	a4,s3
   12aa6:	00000073          	ecall
   12aaa:	bf85                	j	12a1a <_ZN20complex_dynamic_type3app17h2f767fe541e41200E+0xea>

00012aac <_ZN20complex_dynamic_type3app17h30e4a669a0398deaE>:
   12aac:	7119                	addi	sp,sp,-128
   12aae:	de86                	sw	ra,124(sp)
   12ab0:	dca2                	sw	s0,120(sp)
   12ab2:	daa6                	sw	s1,116(sp)
   12ab4:	d8ca                	sw	s2,112(sp)
   12ab6:	d6ce                	sw	s3,108(sp)
   12ab8:	d4d2                	sw	s4,104(sp)
   12aba:	d2d6                	sw	s5,100(sp)
   12abc:	8aaa                	mv	s5,a0
   12abe:	4409                	li	s0,2
   12ac0:	008101a3          	sb	s0,3(sp)
   12ac4:	0044                	addi	s1,sp,4
   12ac6:	03800613          	li	a2,56
   12aca:	8526                	mv	a0,s1
   12acc:	0000c097          	auipc	ra,0xc
   12ad0:	a48080e7          	jalr	-1464(ra) # 1e514 <memcpy>
   12ad4:	03d10a13          	addi	s4,sp,61
   12ad8:	02700613          	li	a2,39
   12adc:	8552                	mv	a0,s4
   12ade:	4581                	li	a1,0
   12ae0:	0000c097          	auipc	ra,0xc
   12ae4:	9c8080e7          	jalr	-1592(ra) # 1e4a8 <memset>
   12ae8:	8626                	mv	a2,s1
   12aea:	02810e23          	sb	s0,60(sp)
   12aee:	6505                	lui	a0,0x1
   12af0:	4491                	li	s1,4
   12af2:	4589                	li	a1,2
   12af4:	e2b50793          	addi	a5,a0,-469 # e2b <.Lline_table_start1+0xc00>
   12af8:	03800693          	li	a3,56
   12afc:	4711                	li	a4,4
   12afe:	853e                	mv	a0,a5
   12b00:	00000073          	ecall
   12b04:	00851863          	bne	a0,s0,12b14 <_ZN20complex_dynamic_type3app17h30e4a669a0398deaE+0x68>
   12b08:	4505                	li	a0,1
   12b0a:	00aa8023          	sb	a0,0(s5)
   12b0e:	00baa223          	sw	a1,4(s5)
   12b12:	a0bd                	j	12b80 <_ZN20complex_dynamic_type3app17h30e4a669a0398deaE+0xd4>
   12b14:	853e                	mv	a0,a5
   12b16:	8652                	mv	a2,s4
   12b18:	009101a3          	sb	s1,3(sp)
   12b1c:	478d                	li	a5,3
   12b1e:	45a1                	li	a1,8
   12b20:	02700693          	li	a3,39
   12b24:	470d                	li	a4,3
   12b26:	00000073          	ecall
   12b2a:	00851d63          	bne	a0,s0,12b44 <_ZN20complex_dynamic_type3app17h30e4a669a0398deaE+0x98>
   12b2e:	03c14703          	lbu	a4,60(sp)
   12b32:	4505                	li	a0,1
   12b34:	4609                	li	a2,2
   12b36:	00aa8023          	sb	a0,0(s5)
   12b3a:	00baa223          	sw	a1,4(s5)
   12b3e:	02c71963          	bne	a4,a2,12b70 <_ZN20complex_dynamic_type3app17h30e4a669a0398deaE+0xc4>
   12b42:	a83d                	j	12b80 <_ZN20complex_dynamic_type3app17h30e4a669a0398deaE+0xd4>
   12b44:	4681                	li	a3,0
   12b46:	02f10e23          	sb	a5,60(sp)
   12b4a:	6505                	lui	a0,0x1
   12b4c:	4589                	li	a1,2
   12b4e:	4621                	li	a2,8
   12b50:	4709                	li	a4,2
   12b52:	e2b50513          	addi	a0,a0,-469 # e2b <.Lline_table_start1+0xc00>
   12b56:	08000793          	li	a5,128
   12b5a:	00000073          	ecall
   12b5e:	4609                	li	a2,2
   12b60:	04f57663          	bgeu	a0,a5,12bac <_ZN20complex_dynamic_type3app17h30e4a669a0398deaE+0x100>
   12b64:	4505                	li	a0,1
   12b66:	00aa8023          	sb	a0,0(s5)
   12b6a:	00baa223          	sw	a1,4(s5)
   12b6e:	470d                	li	a4,3
   12b70:	6505                	lui	a0,0x1
   12b72:	e2b50513          	addi	a0,a0,-469 # e2b <.Lline_table_start1+0xc00>
   12b76:	45a1                	li	a1,8
   12b78:	4601                	li	a2,0
   12b7a:	4681                	li	a3,0
   12b7c:	00000073          	ecall
   12b80:	00314703          	lbu	a4,3(sp)
   12b84:	4509                	li	a0,2
   12b86:	00a70a63          	beq	a4,a0,12b9a <_ZN20complex_dynamic_type3app17h30e4a669a0398deaE+0xee>
   12b8a:	6505                	lui	a0,0x1
   12b8c:	e2b50513          	addi	a0,a0,-469 # e2b <.Lline_table_start1+0xc00>
   12b90:	4589                	li	a1,2
   12b92:	4601                	li	a2,0
   12b94:	4681                	li	a3,0
   12b96:	00000073          	ecall
   12b9a:	50f6                	lw	ra,124(sp)
   12b9c:	5466                	lw	s0,120(sp)
   12b9e:	54d6                	lw	s1,116(sp)
   12ba0:	5946                	lw	s2,112(sp)
   12ba2:	59b6                	lw	s3,108(sp)
   12ba4:	5a26                	lw	s4,104(sp)
   12ba6:	5a96                	lw	s5,100(sp)
   12ba8:	6109                	addi	sp,sp,128
   12baa:	8082                	ret
   12bac:	00314703          	lbu	a4,3(sp)
   12bb0:	00c71463          	bne	a4,a2,12bb8 <_ZN20complex_dynamic_type3app17h30e4a669a0398deaE+0x10c>
   12bb4:	470d                	li	a4,3
   12bb6:	a825                	j	12bee <_ZN20complex_dynamic_type3app17h30e4a669a0398deaE+0x142>
   12bb8:	6505                	lui	a0,0x1
   12bba:	e2b50513          	addi	a0,a0,-469 # e2b <.Lline_table_start1+0xc00>
   12bbe:	4589                	li	a1,2
   12bc0:	4601                	li	a2,0
   12bc2:	4681                	li	a3,0
   12bc4:	00000073          	ecall
   12bc8:	03c14703          	lbu	a4,60(sp)
   12bcc:	4509                	li	a0,2
   12bce:	00a101a3          	sb	a0,3(sp)
   12bd2:	00a71e63          	bne	a4,a0,12bee <_ZN20complex_dynamic_type3app17h30e4a669a0398deaE+0x142>
   12bd6:	001a8513          	addi	a0,s5,1
   12bda:	02700613          	li	a2,39
   12bde:	85d2                	mv	a1,s4
   12be0:	0000c097          	auipc	ra,0xc
   12be4:	934080e7          	jalr	-1740(ra) # 1e514 <memcpy>
   12be8:	000a8023          	sb	zero,0(s5)
   12bec:	b77d                	j	12b9a <_ZN20complex_dynamic_type3app17h30e4a669a0398deaE+0xee>
   12bee:	6505                	lui	a0,0x1
   12bf0:	e2b50913          	addi	s2,a0,-469 # e2b <.Lline_table_start1+0xc00>
   12bf4:	45a1                	li	a1,8
   12bf6:	854a                	mv	a0,s2
   12bf8:	4601                	li	a2,0
   12bfa:	4681                	li	a3,0
   12bfc:	00000073          	ecall
   12c00:	00314983          	lbu	s3,3(sp)
   12c04:	001a8513          	addi	a0,s5,1
   12c08:	02700613          	li	a2,39
   12c0c:	85d2                	mv	a1,s4
   12c0e:	0000c097          	auipc	ra,0xc
   12c12:	906080e7          	jalr	-1786(ra) # 1e514 <memcpy>
   12c16:	4509                	li	a0,2
   12c18:	000a8023          	sb	zero,0(s5)
   12c1c:	f6a98fe3          	beq	s3,a0,12b9a <_ZN20complex_dynamic_type3app17h30e4a669a0398deaE+0xee>
   12c20:	4589                	li	a1,2
   12c22:	854a                	mv	a0,s2
   12c24:	4601                	li	a2,0
   12c26:	4681                	li	a3,0
   12c28:	874e                	mv	a4,s3
   12c2a:	00000073          	ecall
   12c2e:	b7b5                	j	12b9a <_ZN20complex_dynamic_type3app17h30e4a669a0398deaE+0xee>

00012c30 <_ZN20complex_dynamic_type3app17h326614e2665df7a2E>:
   12c30:	7119                	addi	sp,sp,-128
   12c32:	de86                	sw	ra,124(sp)
   12c34:	dca2                	sw	s0,120(sp)
   12c36:	daa6                	sw	s1,116(sp)
   12c38:	d8ca                	sw	s2,112(sp)
   12c3a:	d6ce                	sw	s3,108(sp)
   12c3c:	d4d2                	sw	s4,104(sp)
   12c3e:	d2d6                	sw	s5,100(sp)
   12c40:	8aaa                	mv	s5,a0
   12c42:	4409                	li	s0,2
   12c44:	008100a3          	sb	s0,1(sp)
   12c48:	00210493          	addi	s1,sp,2
   12c4c:	4645                	li	a2,17
   12c4e:	8526                	mv	a0,s1
   12c50:	0000c097          	auipc	ra,0xc
   12c54:	8c4080e7          	jalr	-1852(ra) # 1e514 <memcpy>
   12c58:	01410a13          	addi	s4,sp,20
   12c5c:	05000613          	li	a2,80
   12c60:	8552                	mv	a0,s4
   12c62:	4581                	li	a1,0
   12c64:	0000c097          	auipc	ra,0xc
   12c68:	844080e7          	jalr	-1980(ra) # 1e4a8 <memset>
   12c6c:	8626                	mv	a2,s1
   12c6e:	008109a3          	sb	s0,19(sp)
   12c72:	6509                	lui	a0,0x2
   12c74:	4491                	li	s1,4
   12c76:	4599                	li	a1,6
   12c78:	aa950793          	addi	a5,a0,-1367 # 1aa9 <.Lline_table_start1+0x187e>
   12c7c:	46c5                	li	a3,17
   12c7e:	4711                	li	a4,4
   12c80:	853e                	mv	a0,a5
   12c82:	00000073          	ecall
   12c86:	00851863          	bne	a0,s0,12c96 <_ZN20complex_dynamic_type3app17h326614e2665df7a2E+0x66>
   12c8a:	4505                	li	a0,1
   12c8c:	00aa8023          	sb	a0,0(s5)
   12c90:	00baa223          	sw	a1,4(s5)
   12c94:	a0bd                	j	12d02 <_ZN20complex_dynamic_type3app17h326614e2665df7a2E+0xd2>
   12c96:	853e                	mv	a0,a5
   12c98:	8652                	mv	a2,s4
   12c9a:	009100a3          	sb	s1,1(sp)
   12c9e:	478d                	li	a5,3
   12ca0:	4595                	li	a1,5
   12ca2:	05000693          	li	a3,80
   12ca6:	470d                	li	a4,3
   12ca8:	00000073          	ecall
   12cac:	00851d63          	bne	a0,s0,12cc6 <_ZN20complex_dynamic_type3app17h326614e2665df7a2E+0x96>
   12cb0:	01314703          	lbu	a4,19(sp)
   12cb4:	4505                	li	a0,1
   12cb6:	4609                	li	a2,2
   12cb8:	00aa8023          	sb	a0,0(s5)
   12cbc:	00baa223          	sw	a1,4(s5)
   12cc0:	02c71963          	bne	a4,a2,12cf2 <_ZN20complex_dynamic_type3app17h326614e2665df7a2E+0xc2>
   12cc4:	a83d                	j	12d02 <_ZN20complex_dynamic_type3app17h326614e2665df7a2E+0xd2>
   12cc6:	4681                	li	a3,0
   12cc8:	00f109a3          	sb	a5,19(sp)
   12ccc:	6509                	lui	a0,0x2
   12cce:	4599                	li	a1,6
   12cd0:	4615                	li	a2,5
   12cd2:	4709                	li	a4,2
   12cd4:	aa950513          	addi	a0,a0,-1367 # 1aa9 <.Lline_table_start1+0x187e>
   12cd8:	08000793          	li	a5,128
   12cdc:	00000073          	ecall
   12ce0:	4609                	li	a2,2
   12ce2:	04f57663          	bgeu	a0,a5,12d2e <_ZN20complex_dynamic_type3app17h326614e2665df7a2E+0xfe>
   12ce6:	4505                	li	a0,1
   12ce8:	00aa8023          	sb	a0,0(s5)
   12cec:	00baa223          	sw	a1,4(s5)
   12cf0:	470d                	li	a4,3
   12cf2:	6509                	lui	a0,0x2
   12cf4:	aa950513          	addi	a0,a0,-1367 # 1aa9 <.Lline_table_start1+0x187e>
   12cf8:	4595                	li	a1,5
   12cfa:	4601                	li	a2,0
   12cfc:	4681                	li	a3,0
   12cfe:	00000073          	ecall
   12d02:	00114703          	lbu	a4,1(sp)
   12d06:	4509                	li	a0,2
   12d08:	00a70a63          	beq	a4,a0,12d1c <_ZN20complex_dynamic_type3app17h326614e2665df7a2E+0xec>
   12d0c:	6509                	lui	a0,0x2
   12d0e:	aa950513          	addi	a0,a0,-1367 # 1aa9 <.Lline_table_start1+0x187e>
   12d12:	4599                	li	a1,6
   12d14:	4601                	li	a2,0
   12d16:	4681                	li	a3,0
   12d18:	00000073          	ecall
   12d1c:	50f6                	lw	ra,124(sp)
   12d1e:	5466                	lw	s0,120(sp)
   12d20:	54d6                	lw	s1,116(sp)
   12d22:	5946                	lw	s2,112(sp)
   12d24:	59b6                	lw	s3,108(sp)
   12d26:	5a26                	lw	s4,104(sp)
   12d28:	5a96                	lw	s5,100(sp)
   12d2a:	6109                	addi	sp,sp,128
   12d2c:	8082                	ret
   12d2e:	00114703          	lbu	a4,1(sp)
   12d32:	00c71463          	bne	a4,a2,12d3a <_ZN20complex_dynamic_type3app17h326614e2665df7a2E+0x10a>
   12d36:	470d                	li	a4,3
   12d38:	a825                	j	12d70 <_ZN20complex_dynamic_type3app17h326614e2665df7a2E+0x140>
   12d3a:	6509                	lui	a0,0x2
   12d3c:	aa950513          	addi	a0,a0,-1367 # 1aa9 <.Lline_table_start1+0x187e>
   12d40:	4599                	li	a1,6
   12d42:	4601                	li	a2,0
   12d44:	4681                	li	a3,0
   12d46:	00000073          	ecall
   12d4a:	01314703          	lbu	a4,19(sp)
   12d4e:	4509                	li	a0,2
   12d50:	00a100a3          	sb	a0,1(sp)
   12d54:	00a71e63          	bne	a4,a0,12d70 <_ZN20complex_dynamic_type3app17h326614e2665df7a2E+0x140>
   12d58:	001a8513          	addi	a0,s5,1
   12d5c:	05000613          	li	a2,80
   12d60:	85d2                	mv	a1,s4
   12d62:	0000b097          	auipc	ra,0xb
   12d66:	7b2080e7          	jalr	1970(ra) # 1e514 <memcpy>
   12d6a:	000a8023          	sb	zero,0(s5)
   12d6e:	b77d                	j	12d1c <_ZN20complex_dynamic_type3app17h326614e2665df7a2E+0xec>
   12d70:	6509                	lui	a0,0x2
   12d72:	aa950913          	addi	s2,a0,-1367 # 1aa9 <.Lline_table_start1+0x187e>
   12d76:	4595                	li	a1,5
   12d78:	854a                	mv	a0,s2
   12d7a:	4601                	li	a2,0
   12d7c:	4681                	li	a3,0
   12d7e:	00000073          	ecall
   12d82:	00114983          	lbu	s3,1(sp)
   12d86:	001a8513          	addi	a0,s5,1
   12d8a:	05000613          	li	a2,80
   12d8e:	85d2                	mv	a1,s4
   12d90:	0000b097          	auipc	ra,0xb
   12d94:	784080e7          	jalr	1924(ra) # 1e514 <memcpy>
   12d98:	4509                	li	a0,2
   12d9a:	000a8023          	sb	zero,0(s5)
   12d9e:	f6a98fe3          	beq	s3,a0,12d1c <_ZN20complex_dynamic_type3app17h326614e2665df7a2E+0xec>
   12da2:	4599                	li	a1,6
   12da4:	854a                	mv	a0,s2
   12da6:	4601                	li	a2,0
   12da8:	4681                	li	a3,0
   12daa:	874e                	mv	a4,s3
   12dac:	00000073          	ecall
   12db0:	b7b5                	j	12d1c <_ZN20complex_dynamic_type3app17h326614e2665df7a2E+0xec>

00012db2 <_ZN20complex_dynamic_type3app17h32bdfeae20b7793dE>:
   12db2:	7135                	addi	sp,sp,-160
   12db4:	cf06                	sw	ra,156(sp)
   12db6:	cd22                	sw	s0,152(sp)
   12db8:	cb26                	sw	s1,148(sp)
   12dba:	c94a                	sw	s2,144(sp)
   12dbc:	c74e                	sw	s3,140(sp)
   12dbe:	c552                	sw	s4,136(sp)
   12dc0:	c356                	sw	s5,132(sp)
   12dc2:	8aaa                	mv	s5,a0
   12dc4:	4409                	li	s0,2
   12dc6:	00810723          	sb	s0,14(sp)
   12dca:	00f10493          	addi	s1,sp,15
   12dce:	03500613          	li	a2,53
   12dd2:	8526                	mv	a0,s1
   12dd4:	0000b097          	auipc	ra,0xb
   12dd8:	740080e7          	jalr	1856(ra) # 1e514 <memcpy>
   12ddc:	04510a13          	addi	s4,sp,69
   12de0:	03f00613          	li	a2,63
   12de4:	8552                	mv	a0,s4
   12de6:	4581                	li	a1,0
   12de8:	0000b097          	auipc	ra,0xb
   12dec:	6c0080e7          	jalr	1728(ra) # 1e4a8 <memset>
   12df0:	4581                	li	a1,0
   12df2:	8626                	mv	a2,s1
   12df4:	04810223          	sb	s0,68(sp)
   12df8:	6505                	lui	a0,0x1
   12dfa:	4491                	li	s1,4
   12dfc:	e5750793          	addi	a5,a0,-425 # e57 <.Lline_table_start1+0xc2c>
   12e00:	03500693          	li	a3,53
   12e04:	4711                	li	a4,4
   12e06:	853e                	mv	a0,a5
   12e08:	00000073          	ecall
   12e0c:	00851863          	bne	a0,s0,12e1c <_ZN20complex_dynamic_type3app17h32bdfeae20b7793dE+0x6a>
   12e10:	4505                	li	a0,1
   12e12:	00aa8023          	sb	a0,0(s5)
   12e16:	00baa223          	sw	a1,4(s5)
   12e1a:	a0bd                	j	12e88 <_ZN20complex_dynamic_type3app17h32bdfeae20b7793dE+0xd6>
   12e1c:	853e                	mv	a0,a5
   12e1e:	8652                	mv	a2,s4
   12e20:	00910723          	sb	s1,14(sp)
   12e24:	478d                	li	a5,3
   12e26:	458d                	li	a1,3
   12e28:	03f00693          	li	a3,63
   12e2c:	470d                	li	a4,3
   12e2e:	00000073          	ecall
   12e32:	00851d63          	bne	a0,s0,12e4c <_ZN20complex_dynamic_type3app17h32bdfeae20b7793dE+0x9a>
   12e36:	04414703          	lbu	a4,68(sp)
   12e3a:	4505                	li	a0,1
   12e3c:	4609                	li	a2,2
   12e3e:	00aa8023          	sb	a0,0(s5)
   12e42:	00baa223          	sw	a1,4(s5)
   12e46:	02c71963          	bne	a4,a2,12e78 <_ZN20complex_dynamic_type3app17h32bdfeae20b7793dE+0xc6>
   12e4a:	a83d                	j	12e88 <_ZN20complex_dynamic_type3app17h32bdfeae20b7793dE+0xd6>
   12e4c:	4581                	li	a1,0
   12e4e:	4681                	li	a3,0
   12e50:	04f10223          	sb	a5,68(sp)
   12e54:	6505                	lui	a0,0x1
   12e56:	460d                	li	a2,3
   12e58:	4709                	li	a4,2
   12e5a:	e5750513          	addi	a0,a0,-425 # e57 <.Lline_table_start1+0xc2c>
   12e5e:	08000793          	li	a5,128
   12e62:	00000073          	ecall
   12e66:	4609                	li	a2,2
   12e68:	04f57663          	bgeu	a0,a5,12eb4 <_ZN20complex_dynamic_type3app17h32bdfeae20b7793dE+0x102>
   12e6c:	4505                	li	a0,1
   12e6e:	00aa8023          	sb	a0,0(s5)
   12e72:	00baa223          	sw	a1,4(s5)
   12e76:	470d                	li	a4,3
   12e78:	6505                	lui	a0,0x1
   12e7a:	e5750513          	addi	a0,a0,-425 # e57 <.Lline_table_start1+0xc2c>
   12e7e:	458d                	li	a1,3
   12e80:	4601                	li	a2,0
   12e82:	4681                	li	a3,0
   12e84:	00000073          	ecall
   12e88:	00e14703          	lbu	a4,14(sp)
   12e8c:	4509                	li	a0,2
   12e8e:	00a70a63          	beq	a4,a0,12ea2 <_ZN20complex_dynamic_type3app17h32bdfeae20b7793dE+0xf0>
   12e92:	6505                	lui	a0,0x1
   12e94:	e5750513          	addi	a0,a0,-425 # e57 <.Lline_table_start1+0xc2c>
   12e98:	4581                	li	a1,0
   12e9a:	4601                	li	a2,0
   12e9c:	4681                	li	a3,0
   12e9e:	00000073          	ecall
   12ea2:	40fa                	lw	ra,156(sp)
   12ea4:	446a                	lw	s0,152(sp)
   12ea6:	44da                	lw	s1,148(sp)
   12ea8:	494a                	lw	s2,144(sp)
   12eaa:	49ba                	lw	s3,140(sp)
   12eac:	4a2a                	lw	s4,136(sp)
   12eae:	4a9a                	lw	s5,132(sp)
   12eb0:	610d                	addi	sp,sp,160
   12eb2:	8082                	ret
   12eb4:	00e14703          	lbu	a4,14(sp)
   12eb8:	00c71463          	bne	a4,a2,12ec0 <_ZN20complex_dynamic_type3app17h32bdfeae20b7793dE+0x10e>
   12ebc:	470d                	li	a4,3
   12ebe:	a825                	j	12ef6 <_ZN20complex_dynamic_type3app17h32bdfeae20b7793dE+0x144>
   12ec0:	6505                	lui	a0,0x1
   12ec2:	e5750513          	addi	a0,a0,-425 # e57 <.Lline_table_start1+0xc2c>
   12ec6:	4581                	li	a1,0
   12ec8:	4601                	li	a2,0
   12eca:	4681                	li	a3,0
   12ecc:	00000073          	ecall
   12ed0:	04414703          	lbu	a4,68(sp)
   12ed4:	4509                	li	a0,2
   12ed6:	00a10723          	sb	a0,14(sp)
   12eda:	00a71e63          	bne	a4,a0,12ef6 <_ZN20complex_dynamic_type3app17h32bdfeae20b7793dE+0x144>
   12ede:	001a8513          	addi	a0,s5,1
   12ee2:	03f00613          	li	a2,63
   12ee6:	85d2                	mv	a1,s4
   12ee8:	0000b097          	auipc	ra,0xb
   12eec:	62c080e7          	jalr	1580(ra) # 1e514 <memcpy>
   12ef0:	000a8023          	sb	zero,0(s5)
   12ef4:	b77d                	j	12ea2 <_ZN20complex_dynamic_type3app17h32bdfeae20b7793dE+0xf0>
   12ef6:	6505                	lui	a0,0x1
   12ef8:	e5750913          	addi	s2,a0,-425 # e57 <.Lline_table_start1+0xc2c>
   12efc:	458d                	li	a1,3
   12efe:	854a                	mv	a0,s2
   12f00:	4601                	li	a2,0
   12f02:	4681                	li	a3,0
   12f04:	00000073          	ecall
   12f08:	00e14983          	lbu	s3,14(sp)
   12f0c:	001a8513          	addi	a0,s5,1
   12f10:	03f00613          	li	a2,63
   12f14:	85d2                	mv	a1,s4
   12f16:	0000b097          	auipc	ra,0xb
   12f1a:	5fe080e7          	jalr	1534(ra) # 1e514 <memcpy>
   12f1e:	4509                	li	a0,2
   12f20:	000a8023          	sb	zero,0(s5)
   12f24:	f6a98fe3          	beq	s3,a0,12ea2 <_ZN20complex_dynamic_type3app17h32bdfeae20b7793dE+0xf0>
   12f28:	854a                	mv	a0,s2
   12f2a:	4581                	li	a1,0
   12f2c:	4601                	li	a2,0
   12f2e:	4681                	li	a3,0
   12f30:	874e                	mv	a4,s3
   12f32:	00000073          	ecall
   12f36:	b7b5                	j	12ea2 <_ZN20complex_dynamic_type3app17h32bdfeae20b7793dE+0xf0>

00012f38 <_ZN20complex_dynamic_type3app17h3383497a00c2f09eE>:
   12f38:	7131                	addi	sp,sp,-192
   12f3a:	df06                	sw	ra,188(sp)
   12f3c:	dd22                	sw	s0,184(sp)
   12f3e:	db26                	sw	s1,180(sp)
   12f40:	d94a                	sw	s2,176(sp)
   12f42:	d74e                	sw	s3,172(sp)
   12f44:	d552                	sw	s4,168(sp)
   12f46:	d356                	sw	s5,164(sp)
   12f48:	8aaa                	mv	s5,a0
   12f4a:	4409                	li	s0,2
   12f4c:	008102a3          	sb	s0,5(sp)
   12f50:	00610493          	addi	s1,sp,6
   12f54:	05d00613          	li	a2,93
   12f58:	8526                	mv	a0,s1
   12f5a:	0000b097          	auipc	ra,0xb
   12f5e:	5ba080e7          	jalr	1466(ra) # 1e514 <memcpy>
   12f62:	06410a13          	addi	s4,sp,100
   12f66:	04000613          	li	a2,64
   12f6a:	8552                	mv	a0,s4
   12f6c:	4581                	li	a1,0
   12f6e:	0000b097          	auipc	ra,0xb
   12f72:	53a080e7          	jalr	1338(ra) # 1e4a8 <memset>
   12f76:	8626                	mv	a2,s1
   12f78:	068101a3          	sb	s0,99(sp)
   12f7c:	6505                	lui	a0,0x1
   12f7e:	4491                	li	s1,4
   12f80:	45a1                	li	a1,8
   12f82:	02850793          	addi	a5,a0,40 # 1028 <.Lline_table_start1+0xdfd>
   12f86:	05d00693          	li	a3,93
   12f8a:	4711                	li	a4,4
   12f8c:	853e                	mv	a0,a5
   12f8e:	00000073          	ecall
   12f92:	00851863          	bne	a0,s0,12fa2 <_ZN20complex_dynamic_type3app17h3383497a00c2f09eE+0x6a>
   12f96:	4505                	li	a0,1
   12f98:	00aa8023          	sb	a0,0(s5)
   12f9c:	00baa223          	sw	a1,4(s5)
   12fa0:	a0bd                	j	1300e <_ZN20complex_dynamic_type3app17h3383497a00c2f09eE+0xd6>
   12fa2:	853e                	mv	a0,a5
   12fa4:	8652                	mv	a2,s4
   12fa6:	009102a3          	sb	s1,5(sp)
   12faa:	478d                	li	a5,3
   12fac:	4591                	li	a1,4
   12fae:	04000693          	li	a3,64
   12fb2:	470d                	li	a4,3
   12fb4:	00000073          	ecall
   12fb8:	00851d63          	bne	a0,s0,12fd2 <_ZN20complex_dynamic_type3app17h3383497a00c2f09eE+0x9a>
   12fbc:	06314703          	lbu	a4,99(sp)
   12fc0:	4505                	li	a0,1
   12fc2:	4609                	li	a2,2
   12fc4:	00aa8023          	sb	a0,0(s5)
   12fc8:	00baa223          	sw	a1,4(s5)
   12fcc:	02c71963          	bne	a4,a2,12ffe <_ZN20complex_dynamic_type3app17h3383497a00c2f09eE+0xc6>
   12fd0:	a83d                	j	1300e <_ZN20complex_dynamic_type3app17h3383497a00c2f09eE+0xd6>
   12fd2:	4681                	li	a3,0
   12fd4:	06f101a3          	sb	a5,99(sp)
   12fd8:	6505                	lui	a0,0x1
   12fda:	45a1                	li	a1,8
   12fdc:	4611                	li	a2,4
   12fde:	4709                	li	a4,2
   12fe0:	02850513          	addi	a0,a0,40 # 1028 <.Lline_table_start1+0xdfd>
   12fe4:	08000793          	li	a5,128
   12fe8:	00000073          	ecall
   12fec:	4609                	li	a2,2
   12fee:	04f57663          	bgeu	a0,a5,1303a <_ZN20complex_dynamic_type3app17h3383497a00c2f09eE+0x102>
   12ff2:	4505                	li	a0,1
   12ff4:	00aa8023          	sb	a0,0(s5)
   12ff8:	00baa223          	sw	a1,4(s5)
   12ffc:	470d                	li	a4,3
   12ffe:	6505                	lui	a0,0x1
   13000:	02850513          	addi	a0,a0,40 # 1028 <.Lline_table_start1+0xdfd>
   13004:	4591                	li	a1,4
   13006:	4601                	li	a2,0
   13008:	4681                	li	a3,0
   1300a:	00000073          	ecall
   1300e:	00514703          	lbu	a4,5(sp)
   13012:	4509                	li	a0,2
   13014:	00a70a63          	beq	a4,a0,13028 <_ZN20complex_dynamic_type3app17h3383497a00c2f09eE+0xf0>
   13018:	6505                	lui	a0,0x1
   1301a:	02850513          	addi	a0,a0,40 # 1028 <.Lline_table_start1+0xdfd>
   1301e:	45a1                	li	a1,8
   13020:	4601                	li	a2,0
   13022:	4681                	li	a3,0
   13024:	00000073          	ecall
   13028:	50fa                	lw	ra,188(sp)
   1302a:	546a                	lw	s0,184(sp)
   1302c:	54da                	lw	s1,180(sp)
   1302e:	594a                	lw	s2,176(sp)
   13030:	59ba                	lw	s3,172(sp)
   13032:	5a2a                	lw	s4,168(sp)
   13034:	5a9a                	lw	s5,164(sp)
   13036:	6129                	addi	sp,sp,192
   13038:	8082                	ret
   1303a:	00514703          	lbu	a4,5(sp)
   1303e:	00c71463          	bne	a4,a2,13046 <_ZN20complex_dynamic_type3app17h3383497a00c2f09eE+0x10e>
   13042:	470d                	li	a4,3
   13044:	a825                	j	1307c <_ZN20complex_dynamic_type3app17h3383497a00c2f09eE+0x144>
   13046:	6505                	lui	a0,0x1
   13048:	02850513          	addi	a0,a0,40 # 1028 <.Lline_table_start1+0xdfd>
   1304c:	45a1                	li	a1,8
   1304e:	4601                	li	a2,0
   13050:	4681                	li	a3,0
   13052:	00000073          	ecall
   13056:	06314703          	lbu	a4,99(sp)
   1305a:	4509                	li	a0,2
   1305c:	00a102a3          	sb	a0,5(sp)
   13060:	00a71e63          	bne	a4,a0,1307c <_ZN20complex_dynamic_type3app17h3383497a00c2f09eE+0x144>
   13064:	001a8513          	addi	a0,s5,1
   13068:	04000613          	li	a2,64
   1306c:	85d2                	mv	a1,s4
   1306e:	0000b097          	auipc	ra,0xb
   13072:	4a6080e7          	jalr	1190(ra) # 1e514 <memcpy>
   13076:	000a8023          	sb	zero,0(s5)
   1307a:	b77d                	j	13028 <_ZN20complex_dynamic_type3app17h3383497a00c2f09eE+0xf0>
   1307c:	6505                	lui	a0,0x1
   1307e:	02850913          	addi	s2,a0,40 # 1028 <.Lline_table_start1+0xdfd>
   13082:	4591                	li	a1,4
   13084:	854a                	mv	a0,s2
   13086:	4601                	li	a2,0
   13088:	4681                	li	a3,0
   1308a:	00000073          	ecall
   1308e:	00514983          	lbu	s3,5(sp)
   13092:	001a8513          	addi	a0,s5,1
   13096:	04000613          	li	a2,64
   1309a:	85d2                	mv	a1,s4
   1309c:	0000b097          	auipc	ra,0xb
   130a0:	478080e7          	jalr	1144(ra) # 1e514 <memcpy>
   130a4:	4509                	li	a0,2
   130a6:	000a8023          	sb	zero,0(s5)
   130aa:	f6a98fe3          	beq	s3,a0,13028 <_ZN20complex_dynamic_type3app17h3383497a00c2f09eE+0xf0>
   130ae:	45a1                	li	a1,8
   130b0:	854a                	mv	a0,s2
   130b2:	4601                	li	a2,0
   130b4:	4681                	li	a3,0
   130b6:	874e                	mv	a4,s3
   130b8:	00000073          	ecall
   130bc:	b7b5                	j	13028 <_ZN20complex_dynamic_type3app17h3383497a00c2f09eE+0xf0>

000130be <_ZN20complex_dynamic_type3app17h3941f561cd146f03E>:
   130be:	7175                	addi	sp,sp,-144
   130c0:	c706                	sw	ra,140(sp)
   130c2:	c522                	sw	s0,136(sp)
   130c4:	c326                	sw	s1,132(sp)
   130c6:	c14a                	sw	s2,128(sp)
   130c8:	dece                	sw	s3,124(sp)
   130ca:	dcd2                	sw	s4,120(sp)
   130cc:	dad6                	sw	s5,116(sp)
   130ce:	8aaa                	mv	s5,a0
   130d0:	4409                	li	s0,2
   130d2:	00810323          	sb	s0,6(sp)
   130d6:	00710493          	addi	s1,sp,7
   130da:	04900613          	li	a2,73
   130de:	8526                	mv	a0,s1
   130e0:	0000b097          	auipc	ra,0xb
   130e4:	434080e7          	jalr	1076(ra) # 1e514 <memcpy>
   130e8:	05110a13          	addi	s4,sp,81
   130ec:	02300613          	li	a2,35
   130f0:	8552                	mv	a0,s4
   130f2:	4581                	li	a1,0
   130f4:	0000b097          	auipc	ra,0xb
   130f8:	3b4080e7          	jalr	948(ra) # 1e4a8 <memset>
   130fc:	8626                	mv	a2,s1
   130fe:	04810823          	sb	s0,80(sp)
   13102:	6505                	lui	a0,0x1
   13104:	4491                	li	s1,4
   13106:	459d                	li	a1,7
   13108:	55150793          	addi	a5,a0,1361 # 1551 <.Lline_table_start1+0x1326>
   1310c:	04900693          	li	a3,73
   13110:	4711                	li	a4,4
   13112:	853e                	mv	a0,a5
   13114:	00000073          	ecall
   13118:	00851863          	bne	a0,s0,13128 <_ZN20complex_dynamic_type3app17h3941f561cd146f03E+0x6a>
   1311c:	4505                	li	a0,1
   1311e:	00aa8023          	sb	a0,0(s5)
   13122:	00baa223          	sw	a1,4(s5)
   13126:	a0bd                	j	13194 <_ZN20complex_dynamic_type3app17h3941f561cd146f03E+0xd6>
   13128:	853e                	mv	a0,a5
   1312a:	8652                	mv	a2,s4
   1312c:	00910323          	sb	s1,6(sp)
   13130:	4785                	li	a5,1
   13132:	448d                	li	s1,3
   13134:	4585                	li	a1,1
   13136:	02300693          	li	a3,35
   1313a:	470d                	li	a4,3
   1313c:	00000073          	ecall
   13140:	00851c63          	bne	a0,s0,13158 <_ZN20complex_dynamic_type3app17h3941f561cd146f03E+0x9a>
   13144:	05014703          	lbu	a4,80(sp)
   13148:	4509                	li	a0,2
   1314a:	00fa8023          	sb	a5,0(s5)
   1314e:	00baa223          	sw	a1,4(s5)
   13152:	02a71963          	bne	a4,a0,13184 <_ZN20complex_dynamic_type3app17h3941f561cd146f03E+0xc6>
   13156:	a83d                	j	13194 <_ZN20complex_dynamic_type3app17h3941f561cd146f03E+0xd6>
   13158:	4681                	li	a3,0
   1315a:	04910823          	sb	s1,80(sp)
   1315e:	6505                	lui	a0,0x1
   13160:	4785                	li	a5,1
   13162:	459d                	li	a1,7
   13164:	4605                	li	a2,1
   13166:	4709                	li	a4,2
   13168:	55150513          	addi	a0,a0,1361 # 1551 <.Lline_table_start1+0x1326>
   1316c:	08000493          	li	s1,128
   13170:	00000073          	ecall
   13174:	4609                	li	a2,2
   13176:	04957563          	bgeu	a0,s1,131c0 <_ZN20complex_dynamic_type3app17h3941f561cd146f03E+0x102>
   1317a:	00fa8023          	sb	a5,0(s5)
   1317e:	00baa223          	sw	a1,4(s5)
   13182:	470d                	li	a4,3
   13184:	6505                	lui	a0,0x1
   13186:	55150513          	addi	a0,a0,1361 # 1551 <.Lline_table_start1+0x1326>
   1318a:	4585                	li	a1,1
   1318c:	4601                	li	a2,0
   1318e:	4681                	li	a3,0
   13190:	00000073          	ecall
   13194:	00614703          	lbu	a4,6(sp)
   13198:	4509                	li	a0,2
   1319a:	00a70a63          	beq	a4,a0,131ae <_ZN20complex_dynamic_type3app17h3941f561cd146f03E+0xf0>
   1319e:	6505                	lui	a0,0x1
   131a0:	55150513          	addi	a0,a0,1361 # 1551 <.Lline_table_start1+0x1326>
   131a4:	459d                	li	a1,7
   131a6:	4601                	li	a2,0
   131a8:	4681                	li	a3,0
   131aa:	00000073          	ecall
   131ae:	40ba                	lw	ra,140(sp)
   131b0:	442a                	lw	s0,136(sp)
   131b2:	449a                	lw	s1,132(sp)
   131b4:	490a                	lw	s2,128(sp)
   131b6:	59f6                	lw	s3,124(sp)
   131b8:	5a66                	lw	s4,120(sp)
   131ba:	5ad6                	lw	s5,116(sp)
   131bc:	6149                	addi	sp,sp,144
   131be:	8082                	ret
   131c0:	00614703          	lbu	a4,6(sp)
   131c4:	00c71463          	bne	a4,a2,131cc <_ZN20complex_dynamic_type3app17h3941f561cd146f03E+0x10e>
   131c8:	470d                	li	a4,3
   131ca:	a825                	j	13202 <_ZN20complex_dynamic_type3app17h3941f561cd146f03E+0x144>
   131cc:	6505                	lui	a0,0x1
   131ce:	55150513          	addi	a0,a0,1361 # 1551 <.Lline_table_start1+0x1326>
   131d2:	459d                	li	a1,7
   131d4:	4601                	li	a2,0
   131d6:	4681                	li	a3,0
   131d8:	00000073          	ecall
   131dc:	05014703          	lbu	a4,80(sp)
   131e0:	4509                	li	a0,2
   131e2:	00a10323          	sb	a0,6(sp)
   131e6:	00a71e63          	bne	a4,a0,13202 <_ZN20complex_dynamic_type3app17h3941f561cd146f03E+0x144>
   131ea:	001a8513          	addi	a0,s5,1
   131ee:	02300613          	li	a2,35
   131f2:	85d2                	mv	a1,s4
   131f4:	0000b097          	auipc	ra,0xb
   131f8:	320080e7          	jalr	800(ra) # 1e514 <memcpy>
   131fc:	000a8023          	sb	zero,0(s5)
   13200:	b77d                	j	131ae <_ZN20complex_dynamic_type3app17h3941f561cd146f03E+0xf0>
   13202:	6505                	lui	a0,0x1
   13204:	55150913          	addi	s2,a0,1361 # 1551 <.Lline_table_start1+0x1326>
   13208:	4585                	li	a1,1
   1320a:	854a                	mv	a0,s2
   1320c:	4601                	li	a2,0
   1320e:	4681                	li	a3,0
   13210:	00000073          	ecall
   13214:	00614983          	lbu	s3,6(sp)
   13218:	001a8513          	addi	a0,s5,1
   1321c:	02300613          	li	a2,35
   13220:	85d2                	mv	a1,s4
   13222:	0000b097          	auipc	ra,0xb
   13226:	2f2080e7          	jalr	754(ra) # 1e514 <memcpy>
   1322a:	4509                	li	a0,2
   1322c:	000a8023          	sb	zero,0(s5)
   13230:	f6a98fe3          	beq	s3,a0,131ae <_ZN20complex_dynamic_type3app17h3941f561cd146f03E+0xf0>
   13234:	459d                	li	a1,7
   13236:	854a                	mv	a0,s2
   13238:	4601                	li	a2,0
   1323a:	4681                	li	a3,0
   1323c:	874e                	mv	a4,s3
   1323e:	00000073          	ecall
   13242:	b7b5                	j	131ae <_ZN20complex_dynamic_type3app17h3941f561cd146f03E+0xf0>

00013244 <_ZN20complex_dynamic_type3app17h3b37cc9c17a601cbE>:
   13244:	7131                	addi	sp,sp,-192
   13246:	df06                	sw	ra,188(sp)
   13248:	dd22                	sw	s0,184(sp)
   1324a:	db26                	sw	s1,180(sp)
   1324c:	d94a                	sw	s2,176(sp)
   1324e:	d74e                	sw	s3,172(sp)
   13250:	d552                	sw	s4,168(sp)
   13252:	d356                	sw	s5,164(sp)
   13254:	8aaa                	mv	s5,a0
   13256:	4409                	li	s0,2
   13258:	00810123          	sb	s0,2(sp)
   1325c:	00310493          	addi	s1,sp,3
   13260:	05100613          	li	a2,81
   13264:	8526                	mv	a0,s1
   13266:	0000b097          	auipc	ra,0xb
   1326a:	2ae080e7          	jalr	686(ra) # 1e514 <memcpy>
   1326e:	05510a13          	addi	s4,sp,85
   13272:	04f00613          	li	a2,79
   13276:	8552                	mv	a0,s4
   13278:	4581                	li	a1,0
   1327a:	0000b097          	auipc	ra,0xb
   1327e:	22e080e7          	jalr	558(ra) # 1e4a8 <memset>
   13282:	8626                	mv	a2,s1
   13284:	04810a23          	sb	s0,84(sp)
   13288:	6505                	lui	a0,0x1
   1328a:	4491                	li	s1,4
   1328c:	4589                	li	a1,2
   1328e:	e1650793          	addi	a5,a0,-490 # e16 <.Lline_table_start1+0xbeb>
   13292:	05100693          	li	a3,81
   13296:	4711                	li	a4,4
   13298:	853e                	mv	a0,a5
   1329a:	00000073          	ecall
   1329e:	00851863          	bne	a0,s0,132ae <_ZN20complex_dynamic_type3app17h3b37cc9c17a601cbE+0x6a>
   132a2:	4505                	li	a0,1
   132a4:	00aa8023          	sb	a0,0(s5)
   132a8:	00baa223          	sw	a1,4(s5)
   132ac:	a0bd                	j	1331a <_ZN20complex_dynamic_type3app17h3b37cc9c17a601cbE+0xd6>
   132ae:	853e                	mv	a0,a5
   132b0:	8652                	mv	a2,s4
   132b2:	00910123          	sb	s1,2(sp)
   132b6:	478d                	li	a5,3
   132b8:	4591                	li	a1,4
   132ba:	04f00693          	li	a3,79
   132be:	470d                	li	a4,3
   132c0:	00000073          	ecall
   132c4:	00851d63          	bne	a0,s0,132de <_ZN20complex_dynamic_type3app17h3b37cc9c17a601cbE+0x9a>
   132c8:	05414703          	lbu	a4,84(sp)
   132cc:	4505                	li	a0,1
   132ce:	4609                	li	a2,2
   132d0:	00aa8023          	sb	a0,0(s5)
   132d4:	00baa223          	sw	a1,4(s5)
   132d8:	02c71963          	bne	a4,a2,1330a <_ZN20complex_dynamic_type3app17h3b37cc9c17a601cbE+0xc6>
   132dc:	a83d                	j	1331a <_ZN20complex_dynamic_type3app17h3b37cc9c17a601cbE+0xd6>
   132de:	4681                	li	a3,0
   132e0:	04f10a23          	sb	a5,84(sp)
   132e4:	6505                	lui	a0,0x1
   132e6:	4589                	li	a1,2
   132e8:	4611                	li	a2,4
   132ea:	4709                	li	a4,2
   132ec:	e1650513          	addi	a0,a0,-490 # e16 <.Lline_table_start1+0xbeb>
   132f0:	08000793          	li	a5,128
   132f4:	00000073          	ecall
   132f8:	4609                	li	a2,2
   132fa:	04f57663          	bgeu	a0,a5,13346 <_ZN20complex_dynamic_type3app17h3b37cc9c17a601cbE+0x102>
   132fe:	4505                	li	a0,1
   13300:	00aa8023          	sb	a0,0(s5)
   13304:	00baa223          	sw	a1,4(s5)
   13308:	470d                	li	a4,3
   1330a:	6505                	lui	a0,0x1
   1330c:	e1650513          	addi	a0,a0,-490 # e16 <.Lline_table_start1+0xbeb>
   13310:	4591                	li	a1,4
   13312:	4601                	li	a2,0
   13314:	4681                	li	a3,0
   13316:	00000073          	ecall
   1331a:	00214703          	lbu	a4,2(sp)
   1331e:	4509                	li	a0,2
   13320:	00a70a63          	beq	a4,a0,13334 <_ZN20complex_dynamic_type3app17h3b37cc9c17a601cbE+0xf0>
   13324:	6505                	lui	a0,0x1
   13326:	e1650513          	addi	a0,a0,-490 # e16 <.Lline_table_start1+0xbeb>
   1332a:	4589                	li	a1,2
   1332c:	4601                	li	a2,0
   1332e:	4681                	li	a3,0
   13330:	00000073          	ecall
   13334:	50fa                	lw	ra,188(sp)
   13336:	546a                	lw	s0,184(sp)
   13338:	54da                	lw	s1,180(sp)
   1333a:	594a                	lw	s2,176(sp)
   1333c:	59ba                	lw	s3,172(sp)
   1333e:	5a2a                	lw	s4,168(sp)
   13340:	5a9a                	lw	s5,164(sp)
   13342:	6129                	addi	sp,sp,192
   13344:	8082                	ret
   13346:	00214703          	lbu	a4,2(sp)
   1334a:	00c71463          	bne	a4,a2,13352 <_ZN20complex_dynamic_type3app17h3b37cc9c17a601cbE+0x10e>
   1334e:	470d                	li	a4,3
   13350:	a825                	j	13388 <_ZN20complex_dynamic_type3app17h3b37cc9c17a601cbE+0x144>
   13352:	6505                	lui	a0,0x1
   13354:	e1650513          	addi	a0,a0,-490 # e16 <.Lline_table_start1+0xbeb>
   13358:	4589                	li	a1,2
   1335a:	4601                	li	a2,0
   1335c:	4681                	li	a3,0
   1335e:	00000073          	ecall
   13362:	05414703          	lbu	a4,84(sp)
   13366:	4509                	li	a0,2
   13368:	00a10123          	sb	a0,2(sp)
   1336c:	00a71e63          	bne	a4,a0,13388 <_ZN20complex_dynamic_type3app17h3b37cc9c17a601cbE+0x144>
   13370:	001a8513          	addi	a0,s5,1
   13374:	04f00613          	li	a2,79
   13378:	85d2                	mv	a1,s4
   1337a:	0000b097          	auipc	ra,0xb
   1337e:	19a080e7          	jalr	410(ra) # 1e514 <memcpy>
   13382:	000a8023          	sb	zero,0(s5)
   13386:	b77d                	j	13334 <_ZN20complex_dynamic_type3app17h3b37cc9c17a601cbE+0xf0>
   13388:	6505                	lui	a0,0x1
   1338a:	e1650913          	addi	s2,a0,-490 # e16 <.Lline_table_start1+0xbeb>
   1338e:	4591                	li	a1,4
   13390:	854a                	mv	a0,s2
   13392:	4601                	li	a2,0
   13394:	4681                	li	a3,0
   13396:	00000073          	ecall
   1339a:	00214983          	lbu	s3,2(sp)
   1339e:	001a8513          	addi	a0,s5,1
   133a2:	04f00613          	li	a2,79
   133a6:	85d2                	mv	a1,s4
   133a8:	0000b097          	auipc	ra,0xb
   133ac:	16c080e7          	jalr	364(ra) # 1e514 <memcpy>
   133b0:	4509                	li	a0,2
   133b2:	000a8023          	sb	zero,0(s5)
   133b6:	f6a98fe3          	beq	s3,a0,13334 <_ZN20complex_dynamic_type3app17h3b37cc9c17a601cbE+0xf0>
   133ba:	4589                	li	a1,2
   133bc:	854a                	mv	a0,s2
   133be:	4601                	li	a2,0
   133c0:	4681                	li	a3,0
   133c2:	874e                	mv	a4,s3
   133c4:	00000073          	ecall
   133c8:	b7b5                	j	13334 <_ZN20complex_dynamic_type3app17h3b37cc9c17a601cbE+0xf0>

000133ca <_ZN20complex_dynamic_type3app17h3c3e69f701d9bf3aE>:
   133ca:	7155                	addi	sp,sp,-208
   133cc:	c786                	sw	ra,204(sp)
   133ce:	c5a2                	sw	s0,200(sp)
   133d0:	c3a6                	sw	s1,196(sp)
   133d2:	c1ca                	sw	s2,192(sp)
   133d4:	df4e                	sw	s3,188(sp)
   133d6:	dd52                	sw	s4,184(sp)
   133d8:	8a2a                	mv	s4,a0
   133da:	4409                	li	s0,2
   133dc:	00810323          	sb	s0,6(sp)
   133e0:	00710493          	addi	s1,sp,7
   133e4:	04f00613          	li	a2,79
   133e8:	8526                	mv	a0,s1
   133ea:	0000b097          	auipc	ra,0xb
   133ee:	12a080e7          	jalr	298(ra) # 1e514 <memcpy>
   133f2:	05710993          	addi	s3,sp,87
   133f6:	06100613          	li	a2,97
   133fa:	854e                	mv	a0,s3
   133fc:	4581                	li	a1,0
   133fe:	0000b097          	auipc	ra,0xb
   13402:	0aa080e7          	jalr	170(ra) # 1e4a8 <memset>
   13406:	8626                	mv	a2,s1
   13408:	04810b23          	sb	s0,86(sp)
   1340c:	4791                	li	a5,4
   1340e:	1b600513          	li	a0,438
   13412:	4589                	li	a1,2
   13414:	04f00693          	li	a3,79
   13418:	4711                	li	a4,4
   1341a:	00000073          	ecall
   1341e:	00851863          	bne	a0,s0,1342e <_ZN20complex_dynamic_type3app17h3c3e69f701d9bf3aE+0x64>
   13422:	4505                	li	a0,1
   13424:	00aa0023          	sb	a0,0(s4)
   13428:	00ba2223          	sw	a1,4(s4)
   1342c:	a0b5                	j	13498 <_ZN20complex_dynamic_type3app17h3c3e69f701d9bf3aE+0xce>
   1342e:	864e                	mv	a2,s3
   13430:	00f10323          	sb	a5,6(sp)
   13434:	478d                	li	a5,3
   13436:	1b600513          	li	a0,438
   1343a:	45a1                	li	a1,8
   1343c:	06100693          	li	a3,97
   13440:	470d                	li	a4,3
   13442:	00000073          	ecall
   13446:	00851d63          	bne	a0,s0,13460 <_ZN20complex_dynamic_type3app17h3c3e69f701d9bf3aE+0x96>
   1344a:	05614703          	lbu	a4,86(sp)
   1344e:	4505                	li	a0,1
   13450:	4609                	li	a2,2
   13452:	00aa0023          	sb	a0,0(s4)
   13456:	00ba2223          	sw	a1,4(s4)
   1345a:	02c71863          	bne	a4,a2,1348a <_ZN20complex_dynamic_type3app17h3c3e69f701d9bf3aE+0xc0>
   1345e:	a82d                	j	13498 <_ZN20complex_dynamic_type3app17h3c3e69f701d9bf3aE+0xce>
   13460:	4681                	li	a3,0
   13462:	04f10b23          	sb	a5,86(sp)
   13466:	1b600513          	li	a0,438
   1346a:	4589                	li	a1,2
   1346c:	4621                	li	a2,8
   1346e:	4709                	li	a4,2
   13470:	08000793          	li	a5,128
   13474:	00000073          	ecall
   13478:	4609                	li	a2,2
   1347a:	04f57363          	bgeu	a0,a5,134c0 <_ZN20complex_dynamic_type3app17h3c3e69f701d9bf3aE+0xf6>
   1347e:	4505                	li	a0,1
   13480:	00aa0023          	sb	a0,0(s4)
   13484:	00ba2223          	sw	a1,4(s4)
   13488:	470d                	li	a4,3
   1348a:	1b600513          	li	a0,438
   1348e:	45a1                	li	a1,8
   13490:	4601                	li	a2,0
   13492:	4681                	li	a3,0
   13494:	00000073          	ecall
   13498:	00614703          	lbu	a4,6(sp)
   1349c:	4509                	li	a0,2
   1349e:	00a70963          	beq	a4,a0,134b0 <_ZN20complex_dynamic_type3app17h3c3e69f701d9bf3aE+0xe6>
   134a2:	1b600513          	li	a0,438
   134a6:	4589                	li	a1,2
   134a8:	4601                	li	a2,0
   134aa:	4681                	li	a3,0
   134ac:	00000073          	ecall
   134b0:	40be                	lw	ra,204(sp)
   134b2:	442e                	lw	s0,200(sp)
   134b4:	449e                	lw	s1,196(sp)
   134b6:	490e                	lw	s2,192(sp)
   134b8:	59fa                	lw	s3,188(sp)
   134ba:	5a6a                	lw	s4,184(sp)
   134bc:	6169                	addi	sp,sp,208
   134be:	8082                	ret
   134c0:	00614703          	lbu	a4,6(sp)
   134c4:	00c71463          	bne	a4,a2,134cc <_ZN20complex_dynamic_type3app17h3c3e69f701d9bf3aE+0x102>
   134c8:	470d                	li	a4,3
   134ca:	a81d                	j	13500 <_ZN20complex_dynamic_type3app17h3c3e69f701d9bf3aE+0x136>
   134cc:	1b600513          	li	a0,438
   134d0:	4589                	li	a1,2
   134d2:	4601                	li	a2,0
   134d4:	4681                	li	a3,0
   134d6:	00000073          	ecall
   134da:	05614703          	lbu	a4,86(sp)
   134de:	4509                	li	a0,2
   134e0:	00a10323          	sb	a0,6(sp)
   134e4:	00a71e63          	bne	a4,a0,13500 <_ZN20complex_dynamic_type3app17h3c3e69f701d9bf3aE+0x136>
   134e8:	001a0513          	addi	a0,s4,1
   134ec:	06100613          	li	a2,97
   134f0:	85ce                	mv	a1,s3
   134f2:	0000b097          	auipc	ra,0xb
   134f6:	022080e7          	jalr	34(ra) # 1e514 <memcpy>
   134fa:	000a0023          	sb	zero,0(s4)
   134fe:	bf4d                	j	134b0 <_ZN20complex_dynamic_type3app17h3c3e69f701d9bf3aE+0xe6>
   13500:	1b600513          	li	a0,438
   13504:	45a1                	li	a1,8
   13506:	4601                	li	a2,0
   13508:	4681                	li	a3,0
   1350a:	00000073          	ecall
   1350e:	00614903          	lbu	s2,6(sp)
   13512:	001a0513          	addi	a0,s4,1
   13516:	06100613          	li	a2,97
   1351a:	85ce                	mv	a1,s3
   1351c:	0000b097          	auipc	ra,0xb
   13520:	ff8080e7          	jalr	-8(ra) # 1e514 <memcpy>
   13524:	4509                	li	a0,2
   13526:	000a0023          	sb	zero,0(s4)
   1352a:	f8a903e3          	beq	s2,a0,134b0 <_ZN20complex_dynamic_type3app17h3c3e69f701d9bf3aE+0xe6>
   1352e:	1b600513          	li	a0,438
   13532:	4589                	li	a1,2
   13534:	4601                	li	a2,0
   13536:	4681                	li	a3,0
   13538:	874a                	mv	a4,s2
   1353a:	00000073          	ecall
   1353e:	bf8d                	j	134b0 <_ZN20complex_dynamic_type3app17h3c3e69f701d9bf3aE+0xe6>

00013540 <_ZN20complex_dynamic_type3app17h3fef7c658bfbe4f5E>:
   13540:	711d                	addi	sp,sp,-96
   13542:	ce86                	sw	ra,92(sp)
   13544:	cca2                	sw	s0,88(sp)
   13546:	caa6                	sw	s1,84(sp)
   13548:	c8ca                	sw	s2,80(sp)
   1354a:	c6ce                	sw	s3,76(sp)
   1354c:	c4d2                	sw	s4,72(sp)
   1354e:	c2d6                	sw	s5,68(sp)
   13550:	8aaa                	mv	s5,a0
   13552:	4409                	li	s0,2
   13554:	008103a3          	sb	s0,7(sp)
   13558:	0024                	addi	s1,sp,8
   1355a:	02700613          	li	a2,39
   1355e:	8526                	mv	a0,s1
   13560:	0000b097          	auipc	ra,0xb
   13564:	fb4080e7          	jalr	-76(ra) # 1e514 <memcpy>
   13568:	03010a13          	addi	s4,sp,48
   1356c:	4651                	li	a2,20
   1356e:	8552                	mv	a0,s4
   13570:	4581                	li	a1,0
   13572:	0000b097          	auipc	ra,0xb
   13576:	f36080e7          	jalr	-202(ra) # 1e4a8 <memset>
   1357a:	8626                	mv	a2,s1
   1357c:	028107a3          	sb	s0,47(sp)
   13580:	6509                	lui	a0,0x2
   13582:	4491                	li	s1,4
   13584:	4599                	li	a1,6
   13586:	2c950793          	addi	a5,a0,713 # 22c9 <.Lline_table_start1+0x209e>
   1358a:	02700693          	li	a3,39
   1358e:	4711                	li	a4,4
   13590:	853e                	mv	a0,a5
   13592:	00000073          	ecall
   13596:	00851863          	bne	a0,s0,135a6 <_ZN20complex_dynamic_type3app17h3fef7c658bfbe4f5E+0x66>
   1359a:	4505                	li	a0,1
   1359c:	00aa8023          	sb	a0,0(s5)
   135a0:	00baa223          	sw	a1,4(s5)
   135a4:	a0b5                	j	13610 <_ZN20complex_dynamic_type3app17h3fef7c658bfbe4f5E+0xd0>
   135a6:	853e                	mv	a0,a5
   135a8:	8652                	mv	a2,s4
   135aa:	009103a3          	sb	s1,7(sp)
   135ae:	478d                	li	a5,3
   135b0:	4595                	li	a1,5
   135b2:	46d1                	li	a3,20
   135b4:	470d                	li	a4,3
   135b6:	00000073          	ecall
   135ba:	00851d63          	bne	a0,s0,135d4 <_ZN20complex_dynamic_type3app17h3fef7c658bfbe4f5E+0x94>
   135be:	02f14703          	lbu	a4,47(sp)
   135c2:	4505                	li	a0,1
   135c4:	4609                	li	a2,2
   135c6:	00aa8023          	sb	a0,0(s5)
   135ca:	00baa223          	sw	a1,4(s5)
   135ce:	02c71963          	bne	a4,a2,13600 <_ZN20complex_dynamic_type3app17h3fef7c658bfbe4f5E+0xc0>
   135d2:	a83d                	j	13610 <_ZN20complex_dynamic_type3app17h3fef7c658bfbe4f5E+0xd0>
   135d4:	4681                	li	a3,0
   135d6:	02f107a3          	sb	a5,47(sp)
   135da:	6509                	lui	a0,0x2
   135dc:	4599                	li	a1,6
   135de:	4615                	li	a2,5
   135e0:	4709                	li	a4,2
   135e2:	2c950513          	addi	a0,a0,713 # 22c9 <.Lline_table_start1+0x209e>
   135e6:	08000793          	li	a5,128
   135ea:	00000073          	ecall
   135ee:	4609                	li	a2,2
   135f0:	04f57663          	bgeu	a0,a5,1363c <_ZN20complex_dynamic_type3app17h3fef7c658bfbe4f5E+0xfc>
   135f4:	4505                	li	a0,1
   135f6:	00aa8023          	sb	a0,0(s5)
   135fa:	00baa223          	sw	a1,4(s5)
   135fe:	470d                	li	a4,3
   13600:	6509                	lui	a0,0x2
   13602:	2c950513          	addi	a0,a0,713 # 22c9 <.Lline_table_start1+0x209e>
   13606:	4595                	li	a1,5
   13608:	4601                	li	a2,0
   1360a:	4681                	li	a3,0
   1360c:	00000073          	ecall
   13610:	00714703          	lbu	a4,7(sp)
   13614:	4509                	li	a0,2
   13616:	00a70a63          	beq	a4,a0,1362a <_ZN20complex_dynamic_type3app17h3fef7c658bfbe4f5E+0xea>
   1361a:	6509                	lui	a0,0x2
   1361c:	2c950513          	addi	a0,a0,713 # 22c9 <.Lline_table_start1+0x209e>
   13620:	4599                	li	a1,6
   13622:	4601                	li	a2,0
   13624:	4681                	li	a3,0
   13626:	00000073          	ecall
   1362a:	40f6                	lw	ra,92(sp)
   1362c:	4466                	lw	s0,88(sp)
   1362e:	44d6                	lw	s1,84(sp)
   13630:	4946                	lw	s2,80(sp)
   13632:	49b6                	lw	s3,76(sp)
   13634:	4a26                	lw	s4,72(sp)
   13636:	4a96                	lw	s5,68(sp)
   13638:	6125                	addi	sp,sp,96
   1363a:	8082                	ret
   1363c:	00714703          	lbu	a4,7(sp)
   13640:	00c71463          	bne	a4,a2,13648 <_ZN20complex_dynamic_type3app17h3fef7c658bfbe4f5E+0x108>
   13644:	470d                	li	a4,3
   13646:	a81d                	j	1367c <_ZN20complex_dynamic_type3app17h3fef7c658bfbe4f5E+0x13c>
   13648:	6509                	lui	a0,0x2
   1364a:	2c950513          	addi	a0,a0,713 # 22c9 <.Lline_table_start1+0x209e>
   1364e:	4599                	li	a1,6
   13650:	4601                	li	a2,0
   13652:	4681                	li	a3,0
   13654:	00000073          	ecall
   13658:	02f14703          	lbu	a4,47(sp)
   1365c:	4509                	li	a0,2
   1365e:	00a103a3          	sb	a0,7(sp)
   13662:	00a71d63          	bne	a4,a0,1367c <_ZN20complex_dynamic_type3app17h3fef7c658bfbe4f5E+0x13c>
   13666:	001a8513          	addi	a0,s5,1
   1366a:	4651                	li	a2,20
   1366c:	85d2                	mv	a1,s4
   1366e:	0000b097          	auipc	ra,0xb
   13672:	ea6080e7          	jalr	-346(ra) # 1e514 <memcpy>
   13676:	000a8023          	sb	zero,0(s5)
   1367a:	bf45                	j	1362a <_ZN20complex_dynamic_type3app17h3fef7c658bfbe4f5E+0xea>
   1367c:	6509                	lui	a0,0x2
   1367e:	2c950913          	addi	s2,a0,713 # 22c9 <.Lline_table_start1+0x209e>
   13682:	4595                	li	a1,5
   13684:	854a                	mv	a0,s2
   13686:	4601                	li	a2,0
   13688:	4681                	li	a3,0
   1368a:	00000073          	ecall
   1368e:	00714983          	lbu	s3,7(sp)
   13692:	001a8513          	addi	a0,s5,1
   13696:	4651                	li	a2,20
   13698:	85d2                	mv	a1,s4
   1369a:	0000b097          	auipc	ra,0xb
   1369e:	e7a080e7          	jalr	-390(ra) # 1e514 <memcpy>
   136a2:	4509                	li	a0,2
   136a4:	000a8023          	sb	zero,0(s5)
   136a8:	f8a981e3          	beq	s3,a0,1362a <_ZN20complex_dynamic_type3app17h3fef7c658bfbe4f5E+0xea>
   136ac:	4599                	li	a1,6
   136ae:	854a                	mv	a0,s2
   136b0:	4601                	li	a2,0
   136b2:	4681                	li	a3,0
   136b4:	874e                	mv	a4,s3
   136b6:	00000073          	ecall
   136ba:	bf85                	j	1362a <_ZN20complex_dynamic_type3app17h3fef7c658bfbe4f5E+0xea>

000136bc <_ZN20complex_dynamic_type3app17h44c65f387a6de8feE>:
   136bc:	7119                	addi	sp,sp,-128
   136be:	de86                	sw	ra,124(sp)
   136c0:	dca2                	sw	s0,120(sp)
   136c2:	daa6                	sw	s1,116(sp)
   136c4:	d8ca                	sw	s2,112(sp)
   136c6:	d6ce                	sw	s3,108(sp)
   136c8:	d4d2                	sw	s4,104(sp)
   136ca:	d2d6                	sw	s5,100(sp)
   136cc:	8aaa                	mv	s5,a0
   136ce:	4409                	li	s0,2
   136d0:	008104a3          	sb	s0,9(sp)
   136d4:	00a10493          	addi	s1,sp,10
   136d8:	04100613          	li	a2,65
   136dc:	8526                	mv	a0,s1
   136de:	0000b097          	auipc	ra,0xb
   136e2:	e36080e7          	jalr	-458(ra) # 1e514 <memcpy>
   136e6:	04c10a13          	addi	s4,sp,76
   136ea:	4661                	li	a2,24
   136ec:	8552                	mv	a0,s4
   136ee:	4581                	li	a1,0
   136f0:	0000b097          	auipc	ra,0xb
   136f4:	db8080e7          	jalr	-584(ra) # 1e4a8 <memset>
   136f8:	8626                	mv	a2,s1
   136fa:	048105a3          	sb	s0,75(sp)
   136fe:	6509                	lui	a0,0x2
   13700:	4805                	li	a6,1
   13702:	4491                	li	s1,4
   13704:	4585                	li	a1,1
   13706:	15650793          	addi	a5,a0,342 # 2156 <.Lline_table_start1+0x1f2b>
   1370a:	04100693          	li	a3,65
   1370e:	4711                	li	a4,4
   13710:	853e                	mv	a0,a5
   13712:	00000073          	ecall
   13716:	00851763          	bne	a0,s0,13724 <_ZN20complex_dynamic_type3app17h44c65f387a6de8feE+0x68>
   1371a:	010a8023          	sb	a6,0(s5)
   1371e:	00baa223          	sw	a1,4(s5)
   13722:	a0b5                	j	1378e <_ZN20complex_dynamic_type3app17h44c65f387a6de8feE+0xd2>
   13724:	853e                	mv	a0,a5
   13726:	8652                	mv	a2,s4
   13728:	009104a3          	sb	s1,9(sp)
   1372c:	478d                	li	a5,3
   1372e:	45a5                	li	a1,9
   13730:	46e1                	li	a3,24
   13732:	470d                	li	a4,3
   13734:	00000073          	ecall
   13738:	00851d63          	bne	a0,s0,13752 <_ZN20complex_dynamic_type3app17h44c65f387a6de8feE+0x96>
   1373c:	04b14703          	lbu	a4,75(sp)
   13740:	4505                	li	a0,1
   13742:	4609                	li	a2,2
   13744:	00aa8023          	sb	a0,0(s5)
   13748:	00baa223          	sw	a1,4(s5)
   1374c:	02c71963          	bne	a4,a2,1377e <_ZN20complex_dynamic_type3app17h44c65f387a6de8feE+0xc2>
   13750:	a83d                	j	1378e <_ZN20complex_dynamic_type3app17h44c65f387a6de8feE+0xd2>
   13752:	4681                	li	a3,0
   13754:	04f105a3          	sb	a5,75(sp)
   13758:	6509                	lui	a0,0x2
   1375a:	4785                	li	a5,1
   1375c:	4585                	li	a1,1
   1375e:	4625                	li	a2,9
   13760:	4709                	li	a4,2
   13762:	15650513          	addi	a0,a0,342 # 2156 <.Lline_table_start1+0x1f2b>
   13766:	08000493          	li	s1,128
   1376a:	00000073          	ecall
   1376e:	4609                	li	a2,2
   13770:	04957563          	bgeu	a0,s1,137ba <_ZN20complex_dynamic_type3app17h44c65f387a6de8feE+0xfe>
   13774:	00fa8023          	sb	a5,0(s5)
   13778:	00baa223          	sw	a1,4(s5)
   1377c:	470d                	li	a4,3
   1377e:	6509                	lui	a0,0x2
   13780:	15650513          	addi	a0,a0,342 # 2156 <.Lline_table_start1+0x1f2b>
   13784:	45a5                	li	a1,9
   13786:	4601                	li	a2,0
   13788:	4681                	li	a3,0
   1378a:	00000073          	ecall
   1378e:	00914703          	lbu	a4,9(sp)
   13792:	4509                	li	a0,2
   13794:	00a70a63          	beq	a4,a0,137a8 <_ZN20complex_dynamic_type3app17h44c65f387a6de8feE+0xec>
   13798:	6509                	lui	a0,0x2
   1379a:	15650513          	addi	a0,a0,342 # 2156 <.Lline_table_start1+0x1f2b>
   1379e:	4585                	li	a1,1
   137a0:	4601                	li	a2,0
   137a2:	4681                	li	a3,0
   137a4:	00000073          	ecall
   137a8:	50f6                	lw	ra,124(sp)
   137aa:	5466                	lw	s0,120(sp)
   137ac:	54d6                	lw	s1,116(sp)
   137ae:	5946                	lw	s2,112(sp)
   137b0:	59b6                	lw	s3,108(sp)
   137b2:	5a26                	lw	s4,104(sp)
   137b4:	5a96                	lw	s5,100(sp)
   137b6:	6109                	addi	sp,sp,128
   137b8:	8082                	ret
   137ba:	00914703          	lbu	a4,9(sp)
   137be:	00c71463          	bne	a4,a2,137c6 <_ZN20complex_dynamic_type3app17h44c65f387a6de8feE+0x10a>
   137c2:	470d                	li	a4,3
   137c4:	a81d                	j	137fa <_ZN20complex_dynamic_type3app17h44c65f387a6de8feE+0x13e>
   137c6:	6509                	lui	a0,0x2
   137c8:	15650513          	addi	a0,a0,342 # 2156 <.Lline_table_start1+0x1f2b>
   137cc:	4585                	li	a1,1
   137ce:	4601                	li	a2,0
   137d0:	4681                	li	a3,0
   137d2:	00000073          	ecall
   137d6:	04b14703          	lbu	a4,75(sp)
   137da:	4509                	li	a0,2
   137dc:	00a104a3          	sb	a0,9(sp)
   137e0:	00a71d63          	bne	a4,a0,137fa <_ZN20complex_dynamic_type3app17h44c65f387a6de8feE+0x13e>
   137e4:	001a8513          	addi	a0,s5,1
   137e8:	4661                	li	a2,24
   137ea:	85d2                	mv	a1,s4
   137ec:	0000b097          	auipc	ra,0xb
   137f0:	d28080e7          	jalr	-728(ra) # 1e514 <memcpy>
   137f4:	000a8023          	sb	zero,0(s5)
   137f8:	bf45                	j	137a8 <_ZN20complex_dynamic_type3app17h44c65f387a6de8feE+0xec>
   137fa:	6509                	lui	a0,0x2
   137fc:	15650913          	addi	s2,a0,342 # 2156 <.Lline_table_start1+0x1f2b>
   13800:	45a5                	li	a1,9
   13802:	854a                	mv	a0,s2
   13804:	4601                	li	a2,0
   13806:	4681                	li	a3,0
   13808:	00000073          	ecall
   1380c:	00914983          	lbu	s3,9(sp)
   13810:	001a8513          	addi	a0,s5,1
   13814:	4661                	li	a2,24
   13816:	85d2                	mv	a1,s4
   13818:	0000b097          	auipc	ra,0xb
   1381c:	cfc080e7          	jalr	-772(ra) # 1e514 <memcpy>
   13820:	4509                	li	a0,2
   13822:	000a8023          	sb	zero,0(s5)
   13826:	f8a981e3          	beq	s3,a0,137a8 <_ZN20complex_dynamic_type3app17h44c65f387a6de8feE+0xec>
   1382a:	4585                	li	a1,1
   1382c:	854a                	mv	a0,s2
   1382e:	4601                	li	a2,0
   13830:	4681                	li	a3,0
   13832:	874e                	mv	a4,s3
   13834:	00000073          	ecall
   13838:	bf85                	j	137a8 <_ZN20complex_dynamic_type3app17h44c65f387a6de8feE+0xec>

0001383a <_ZN20complex_dynamic_type3app17h4567255702332f3cE>:
   1383a:	7159                	addi	sp,sp,-112
   1383c:	d686                	sw	ra,108(sp)
   1383e:	d4a2                	sw	s0,104(sp)
   13840:	d2a6                	sw	s1,100(sp)
   13842:	d0ca                	sw	s2,96(sp)
   13844:	cece                	sw	s3,92(sp)
   13846:	ccd2                	sw	s4,88(sp)
   13848:	cad6                	sw	s5,84(sp)
   1384a:	8aaa                	mv	s5,a0
   1384c:	4409                	li	s0,2
   1384e:	00810223          	sb	s0,4(sp)
   13852:	00510493          	addi	s1,sp,5
   13856:	02300613          	li	a2,35
   1385a:	8526                	mv	a0,s1
   1385c:	0000b097          	auipc	ra,0xb
   13860:	cb8080e7          	jalr	-840(ra) # 1e514 <memcpy>
   13864:	02910a13          	addi	s4,sp,41
   13868:	02b00613          	li	a2,43
   1386c:	8552                	mv	a0,s4
   1386e:	4581                	li	a1,0
   13870:	0000b097          	auipc	ra,0xb
   13874:	c38080e7          	jalr	-968(ra) # 1e4a8 <memset>
   13878:	8626                	mv	a2,s1
   1387a:	02810423          	sb	s0,40(sp)
   1387e:	6505                	lui	a0,0x1
   13880:	4491                	li	s1,4
   13882:	4589                	li	a1,2
   13884:	d5d50793          	addi	a5,a0,-675 # d5d <.Lline_table_start1+0xb32>
   13888:	02300693          	li	a3,35
   1388c:	4711                	li	a4,4
   1388e:	853e                	mv	a0,a5
   13890:	00000073          	ecall
   13894:	00851863          	bne	a0,s0,138a4 <_ZN20complex_dynamic_type3app17h4567255702332f3cE+0x6a>
   13898:	4505                	li	a0,1
   1389a:	00aa8023          	sb	a0,0(s5)
   1389e:	00baa223          	sw	a1,4(s5)
   138a2:	a0bd                	j	13910 <_ZN20complex_dynamic_type3app17h4567255702332f3cE+0xd6>
   138a4:	853e                	mv	a0,a5
   138a6:	4581                	li	a1,0
   138a8:	8652                	mv	a2,s4
   138aa:	00910223          	sb	s1,4(sp)
   138ae:	478d                	li	a5,3
   138b0:	02b00693          	li	a3,43
   138b4:	470d                	li	a4,3
   138b6:	00000073          	ecall
   138ba:	00851d63          	bne	a0,s0,138d4 <_ZN20complex_dynamic_type3app17h4567255702332f3cE+0x9a>
   138be:	02814703          	lbu	a4,40(sp)
   138c2:	4505                	li	a0,1
   138c4:	4609                	li	a2,2
   138c6:	00aa8023          	sb	a0,0(s5)
   138ca:	00baa223          	sw	a1,4(s5)
   138ce:	02c71963          	bne	a4,a2,13900 <_ZN20complex_dynamic_type3app17h4567255702332f3cE+0xc6>
   138d2:	a83d                	j	13910 <_ZN20complex_dynamic_type3app17h4567255702332f3cE+0xd6>
   138d4:	4601                	li	a2,0
   138d6:	4681                	li	a3,0
   138d8:	02f10423          	sb	a5,40(sp)
   138dc:	6505                	lui	a0,0x1
   138de:	4589                	li	a1,2
   138e0:	4709                	li	a4,2
   138e2:	d5d50513          	addi	a0,a0,-675 # d5d <.Lline_table_start1+0xb32>
   138e6:	08000793          	li	a5,128
   138ea:	00000073          	ecall
   138ee:	4609                	li	a2,2
   138f0:	04f57663          	bgeu	a0,a5,1393c <_ZN20complex_dynamic_type3app17h4567255702332f3cE+0x102>
   138f4:	4505                	li	a0,1
   138f6:	00aa8023          	sb	a0,0(s5)
   138fa:	00baa223          	sw	a1,4(s5)
   138fe:	470d                	li	a4,3
   13900:	6505                	lui	a0,0x1
   13902:	d5d50513          	addi	a0,a0,-675 # d5d <.Lline_table_start1+0xb32>
   13906:	4581                	li	a1,0
   13908:	4601                	li	a2,0
   1390a:	4681                	li	a3,0
   1390c:	00000073          	ecall
   13910:	00414703          	lbu	a4,4(sp)
   13914:	4509                	li	a0,2
   13916:	00a70a63          	beq	a4,a0,1392a <_ZN20complex_dynamic_type3app17h4567255702332f3cE+0xf0>
   1391a:	6505                	lui	a0,0x1
   1391c:	d5d50513          	addi	a0,a0,-675 # d5d <.Lline_table_start1+0xb32>
   13920:	4589                	li	a1,2
   13922:	4601                	li	a2,0
   13924:	4681                	li	a3,0
   13926:	00000073          	ecall
   1392a:	50b6                	lw	ra,108(sp)
   1392c:	5426                	lw	s0,104(sp)
   1392e:	5496                	lw	s1,100(sp)
   13930:	5906                	lw	s2,96(sp)
   13932:	49f6                	lw	s3,92(sp)
   13934:	4a66                	lw	s4,88(sp)
   13936:	4ad6                	lw	s5,84(sp)
   13938:	6165                	addi	sp,sp,112
   1393a:	8082                	ret
   1393c:	00414703          	lbu	a4,4(sp)
   13940:	00c71463          	bne	a4,a2,13948 <_ZN20complex_dynamic_type3app17h4567255702332f3cE+0x10e>
   13944:	470d                	li	a4,3
   13946:	a825                	j	1397e <_ZN20complex_dynamic_type3app17h4567255702332f3cE+0x144>
   13948:	6505                	lui	a0,0x1
   1394a:	d5d50513          	addi	a0,a0,-675 # d5d <.Lline_table_start1+0xb32>
   1394e:	4589                	li	a1,2
   13950:	4601                	li	a2,0
   13952:	4681                	li	a3,0
   13954:	00000073          	ecall
   13958:	02814703          	lbu	a4,40(sp)
   1395c:	4509                	li	a0,2
   1395e:	00a10223          	sb	a0,4(sp)
   13962:	00a71e63          	bne	a4,a0,1397e <_ZN20complex_dynamic_type3app17h4567255702332f3cE+0x144>
   13966:	001a8513          	addi	a0,s5,1
   1396a:	02b00613          	li	a2,43
   1396e:	85d2                	mv	a1,s4
   13970:	0000b097          	auipc	ra,0xb
   13974:	ba4080e7          	jalr	-1116(ra) # 1e514 <memcpy>
   13978:	000a8023          	sb	zero,0(s5)
   1397c:	b77d                	j	1392a <_ZN20complex_dynamic_type3app17h4567255702332f3cE+0xf0>
   1397e:	6505                	lui	a0,0x1
   13980:	d5d50913          	addi	s2,a0,-675 # d5d <.Lline_table_start1+0xb32>
   13984:	854a                	mv	a0,s2
   13986:	4581                	li	a1,0
   13988:	4601                	li	a2,0
   1398a:	4681                	li	a3,0
   1398c:	00000073          	ecall
   13990:	00414983          	lbu	s3,4(sp)
   13994:	001a8513          	addi	a0,s5,1
   13998:	02b00613          	li	a2,43
   1399c:	85d2                	mv	a1,s4
   1399e:	0000b097          	auipc	ra,0xb
   139a2:	b76080e7          	jalr	-1162(ra) # 1e514 <memcpy>
   139a6:	4509                	li	a0,2
   139a8:	000a8023          	sb	zero,0(s5)
   139ac:	f6a98fe3          	beq	s3,a0,1392a <_ZN20complex_dynamic_type3app17h4567255702332f3cE+0xf0>
   139b0:	4589                	li	a1,2
   139b2:	854a                	mv	a0,s2
   139b4:	4601                	li	a2,0
   139b6:	4681                	li	a3,0
   139b8:	874e                	mv	a4,s3
   139ba:	00000073          	ecall
   139be:	b7b5                	j	1392a <_ZN20complex_dynamic_type3app17h4567255702332f3cE+0xf0>

000139c0 <_ZN20complex_dynamic_type3app17h4b0c1d263463686fE>:
   139c0:	7175                	addi	sp,sp,-144
   139c2:	c706                	sw	ra,140(sp)
   139c4:	c522                	sw	s0,136(sp)
   139c6:	c326                	sw	s1,132(sp)
   139c8:	c14a                	sw	s2,128(sp)
   139ca:	dece                	sw	s3,124(sp)
   139cc:	dcd2                	sw	s4,120(sp)
   139ce:	dad6                	sw	s5,116(sp)
   139d0:	8aaa                	mv	s5,a0
   139d2:	4409                	li	s0,2
   139d4:	00810623          	sb	s0,12(sp)
   139d8:	00d10493          	addi	s1,sp,13
   139dc:	05500613          	li	a2,85
   139e0:	8526                	mv	a0,s1
   139e2:	0000b097          	auipc	ra,0xb
   139e6:	b32080e7          	jalr	-1230(ra) # 1e514 <memcpy>
   139ea:	06310a13          	addi	s4,sp,99
   139ee:	4645                	li	a2,17
   139f0:	8552                	mv	a0,s4
   139f2:	4581                	li	a1,0
   139f4:	0000b097          	auipc	ra,0xb
   139f8:	ab4080e7          	jalr	-1356(ra) # 1e4a8 <memset>
   139fc:	8626                	mv	a2,s1
   139fe:	06810123          	sb	s0,98(sp)
   13a02:	6505                	lui	a0,0x1
   13a04:	4491                	li	s1,4
   13a06:	4589                	li	a1,2
   13a08:	c8950793          	addi	a5,a0,-887 # c89 <.Lline_table_start1+0xa5e>
   13a0c:	05500693          	li	a3,85
   13a10:	4711                	li	a4,4
   13a12:	853e                	mv	a0,a5
   13a14:	00000073          	ecall
   13a18:	00851863          	bne	a0,s0,13a28 <_ZN20complex_dynamic_type3app17h4b0c1d263463686fE+0x68>
   13a1c:	4505                	li	a0,1
   13a1e:	00aa8023          	sb	a0,0(s5)
   13a22:	00baa223          	sw	a1,4(s5)
   13a26:	a0b5                	j	13a92 <_ZN20complex_dynamic_type3app17h4b0c1d263463686fE+0xd2>
   13a28:	853e                	mv	a0,a5
   13a2a:	8652                	mv	a2,s4
   13a2c:	00910623          	sb	s1,12(sp)
   13a30:	478d                	li	a5,3
   13a32:	4589                	li	a1,2
   13a34:	46c5                	li	a3,17
   13a36:	470d                	li	a4,3
   13a38:	00000073          	ecall
   13a3c:	00851d63          	bne	a0,s0,13a56 <_ZN20complex_dynamic_type3app17h4b0c1d263463686fE+0x96>
   13a40:	06214703          	lbu	a4,98(sp)
   13a44:	4505                	li	a0,1
   13a46:	4609                	li	a2,2
   13a48:	00aa8023          	sb	a0,0(s5)
   13a4c:	00baa223          	sw	a1,4(s5)
   13a50:	02c71963          	bne	a4,a2,13a82 <_ZN20complex_dynamic_type3app17h4b0c1d263463686fE+0xc2>
   13a54:	a83d                	j	13a92 <_ZN20complex_dynamic_type3app17h4b0c1d263463686fE+0xd2>
   13a56:	4681                	li	a3,0
   13a58:	06f10123          	sb	a5,98(sp)
   13a5c:	6505                	lui	a0,0x1
   13a5e:	4589                	li	a1,2
   13a60:	4609                	li	a2,2
   13a62:	4709                	li	a4,2
   13a64:	c8950513          	addi	a0,a0,-887 # c89 <.Lline_table_start1+0xa5e>
   13a68:	08000793          	li	a5,128
   13a6c:	00000073          	ecall
   13a70:	4609                	li	a2,2
   13a72:	04f57663          	bgeu	a0,a5,13abe <_ZN20complex_dynamic_type3app17h4b0c1d263463686fE+0xfe>
   13a76:	4505                	li	a0,1
   13a78:	00aa8023          	sb	a0,0(s5)
   13a7c:	00baa223          	sw	a1,4(s5)
   13a80:	470d                	li	a4,3
   13a82:	6505                	lui	a0,0x1
   13a84:	c8950513          	addi	a0,a0,-887 # c89 <.Lline_table_start1+0xa5e>
   13a88:	4589                	li	a1,2
   13a8a:	4601                	li	a2,0
   13a8c:	4681                	li	a3,0
   13a8e:	00000073          	ecall
   13a92:	00c14703          	lbu	a4,12(sp)
   13a96:	4509                	li	a0,2
   13a98:	00a70a63          	beq	a4,a0,13aac <_ZN20complex_dynamic_type3app17h4b0c1d263463686fE+0xec>
   13a9c:	6505                	lui	a0,0x1
   13a9e:	c8950513          	addi	a0,a0,-887 # c89 <.Lline_table_start1+0xa5e>
   13aa2:	4589                	li	a1,2
   13aa4:	4601                	li	a2,0
   13aa6:	4681                	li	a3,0
   13aa8:	00000073          	ecall
   13aac:	40ba                	lw	ra,140(sp)
   13aae:	442a                	lw	s0,136(sp)
   13ab0:	449a                	lw	s1,132(sp)
   13ab2:	490a                	lw	s2,128(sp)
   13ab4:	59f6                	lw	s3,124(sp)
   13ab6:	5a66                	lw	s4,120(sp)
   13ab8:	5ad6                	lw	s5,116(sp)
   13aba:	6149                	addi	sp,sp,144
   13abc:	8082                	ret
   13abe:	00c14703          	lbu	a4,12(sp)
   13ac2:	00c71463          	bne	a4,a2,13aca <_ZN20complex_dynamic_type3app17h4b0c1d263463686fE+0x10a>
   13ac6:	470d                	li	a4,3
   13ac8:	a81d                	j	13afe <_ZN20complex_dynamic_type3app17h4b0c1d263463686fE+0x13e>
   13aca:	6505                	lui	a0,0x1
   13acc:	c8950513          	addi	a0,a0,-887 # c89 <.Lline_table_start1+0xa5e>
   13ad0:	4589                	li	a1,2
   13ad2:	4601                	li	a2,0
   13ad4:	4681                	li	a3,0
   13ad6:	00000073          	ecall
   13ada:	06214703          	lbu	a4,98(sp)
   13ade:	4509                	li	a0,2
   13ae0:	00a10623          	sb	a0,12(sp)
   13ae4:	00a71d63          	bne	a4,a0,13afe <_ZN20complex_dynamic_type3app17h4b0c1d263463686fE+0x13e>
   13ae8:	001a8513          	addi	a0,s5,1
   13aec:	4645                	li	a2,17
   13aee:	85d2                	mv	a1,s4
   13af0:	0000b097          	auipc	ra,0xb
   13af4:	a24080e7          	jalr	-1500(ra) # 1e514 <memcpy>
   13af8:	000a8023          	sb	zero,0(s5)
   13afc:	bf45                	j	13aac <_ZN20complex_dynamic_type3app17h4b0c1d263463686fE+0xec>
   13afe:	4601                	li	a2,0
   13b00:	4681                	li	a3,0
   13b02:	6505                	lui	a0,0x1
   13b04:	c8950913          	addi	s2,a0,-887 # c89 <.Lline_table_start1+0xa5e>
   13b08:	4589                	li	a1,2
   13b0a:	854a                	mv	a0,s2
   13b0c:	00000073          	ecall
   13b10:	00c14983          	lbu	s3,12(sp)
   13b14:	4409                	li	s0,2
   13b16:	001a8513          	addi	a0,s5,1
   13b1a:	4645                	li	a2,17
   13b1c:	85d2                	mv	a1,s4
   13b1e:	0000b097          	auipc	ra,0xb
   13b22:	9f6080e7          	jalr	-1546(ra) # 1e514 <memcpy>
   13b26:	000a8023          	sb	zero,0(s5)
   13b2a:	f88981e3          	beq	s3,s0,13aac <_ZN20complex_dynamic_type3app17h4b0c1d263463686fE+0xec>
   13b2e:	4589                	li	a1,2
   13b30:	854a                	mv	a0,s2
   13b32:	4601                	li	a2,0
   13b34:	4681                	li	a3,0
   13b36:	874e                	mv	a4,s3
   13b38:	00000073          	ecall
   13b3c:	bf85                	j	13aac <_ZN20complex_dynamic_type3app17h4b0c1d263463686fE+0xec>

00013b3e <_ZN20complex_dynamic_type3app17h4c72312a3037f6c3E>:
   13b3e:	7175                	addi	sp,sp,-144
   13b40:	c706                	sw	ra,140(sp)
   13b42:	c522                	sw	s0,136(sp)
   13b44:	c326                	sw	s1,132(sp)
   13b46:	c14a                	sw	s2,128(sp)
   13b48:	dece                	sw	s3,124(sp)
   13b4a:	dcd2                	sw	s4,120(sp)
   13b4c:	dad6                	sw	s5,116(sp)
   13b4e:	8aaa                	mv	s5,a0
   13b50:	4409                	li	s0,2
   13b52:	00810423          	sb	s0,8(sp)
   13b56:	00910493          	addi	s1,sp,9
   13b5a:	03600613          	li	a2,54
   13b5e:	8526                	mv	a0,s1
   13b60:	0000b097          	auipc	ra,0xb
   13b64:	9b4080e7          	jalr	-1612(ra) # 1e514 <memcpy>
   13b68:	04010a13          	addi	s4,sp,64
   13b6c:	03400613          	li	a2,52
   13b70:	8552                	mv	a0,s4
   13b72:	4581                	li	a1,0
   13b74:	0000b097          	auipc	ra,0xb
   13b78:	934080e7          	jalr	-1740(ra) # 1e4a8 <memset>
   13b7c:	8626                	mv	a2,s1
   13b7e:	02810fa3          	sb	s0,63(sp)
   13b82:	6509                	lui	a0,0x2
   13b84:	4491                	li	s1,4
   13b86:	4591                	li	a1,4
   13b88:	3c650793          	addi	a5,a0,966 # 23c6 <.Lline_table_start1+0x219b>
   13b8c:	03600693          	li	a3,54
   13b90:	4711                	li	a4,4
   13b92:	853e                	mv	a0,a5
   13b94:	00000073          	ecall
   13b98:	00851863          	bne	a0,s0,13ba8 <_ZN20complex_dynamic_type3app17h4c72312a3037f6c3E+0x6a>
   13b9c:	4505                	li	a0,1
   13b9e:	00aa8023          	sb	a0,0(s5)
   13ba2:	00baa223          	sw	a1,4(s5)
   13ba6:	a0bd                	j	13c14 <_ZN20complex_dynamic_type3app17h4c72312a3037f6c3E+0xd6>
   13ba8:	853e                	mv	a0,a5
   13baa:	8652                	mv	a2,s4
   13bac:	00910423          	sb	s1,8(sp)
   13bb0:	478d                	li	a5,3
   13bb2:	4589                	li	a1,2
   13bb4:	03400693          	li	a3,52
   13bb8:	470d                	li	a4,3
   13bba:	00000073          	ecall
   13bbe:	00851d63          	bne	a0,s0,13bd8 <_ZN20complex_dynamic_type3app17h4c72312a3037f6c3E+0x9a>
   13bc2:	03f14703          	lbu	a4,63(sp)
   13bc6:	4505                	li	a0,1
   13bc8:	4609                	li	a2,2
   13bca:	00aa8023          	sb	a0,0(s5)
   13bce:	00baa223          	sw	a1,4(s5)
   13bd2:	02c71963          	bne	a4,a2,13c04 <_ZN20complex_dynamic_type3app17h4c72312a3037f6c3E+0xc6>
   13bd6:	a83d                	j	13c14 <_ZN20complex_dynamic_type3app17h4c72312a3037f6c3E+0xd6>
   13bd8:	4681                	li	a3,0
   13bda:	02f10fa3          	sb	a5,63(sp)
   13bde:	6509                	lui	a0,0x2
   13be0:	4591                	li	a1,4
   13be2:	4609                	li	a2,2
   13be4:	4709                	li	a4,2
   13be6:	3c650513          	addi	a0,a0,966 # 23c6 <.Lline_table_start1+0x219b>
   13bea:	08000793          	li	a5,128
   13bee:	00000073          	ecall
   13bf2:	4609                	li	a2,2
   13bf4:	04f57663          	bgeu	a0,a5,13c40 <_ZN20complex_dynamic_type3app17h4c72312a3037f6c3E+0x102>
   13bf8:	4505                	li	a0,1
   13bfa:	00aa8023          	sb	a0,0(s5)
   13bfe:	00baa223          	sw	a1,4(s5)
   13c02:	470d                	li	a4,3
   13c04:	6509                	lui	a0,0x2
   13c06:	3c650513          	addi	a0,a0,966 # 23c6 <.Lline_table_start1+0x219b>
   13c0a:	4589                	li	a1,2
   13c0c:	4601                	li	a2,0
   13c0e:	4681                	li	a3,0
   13c10:	00000073          	ecall
   13c14:	00814703          	lbu	a4,8(sp)
   13c18:	4509                	li	a0,2
   13c1a:	00a70a63          	beq	a4,a0,13c2e <_ZN20complex_dynamic_type3app17h4c72312a3037f6c3E+0xf0>
   13c1e:	6509                	lui	a0,0x2
   13c20:	3c650513          	addi	a0,a0,966 # 23c6 <.Lline_table_start1+0x219b>
   13c24:	4591                	li	a1,4
   13c26:	4601                	li	a2,0
   13c28:	4681                	li	a3,0
   13c2a:	00000073          	ecall
   13c2e:	40ba                	lw	ra,140(sp)
   13c30:	442a                	lw	s0,136(sp)
   13c32:	449a                	lw	s1,132(sp)
   13c34:	490a                	lw	s2,128(sp)
   13c36:	59f6                	lw	s3,124(sp)
   13c38:	5a66                	lw	s4,120(sp)
   13c3a:	5ad6                	lw	s5,116(sp)
   13c3c:	6149                	addi	sp,sp,144
   13c3e:	8082                	ret
   13c40:	00814703          	lbu	a4,8(sp)
   13c44:	00c71463          	bne	a4,a2,13c4c <_ZN20complex_dynamic_type3app17h4c72312a3037f6c3E+0x10e>
   13c48:	470d                	li	a4,3
   13c4a:	a825                	j	13c82 <_ZN20complex_dynamic_type3app17h4c72312a3037f6c3E+0x144>
   13c4c:	6509                	lui	a0,0x2
   13c4e:	3c650513          	addi	a0,a0,966 # 23c6 <.Lline_table_start1+0x219b>
   13c52:	4591                	li	a1,4
   13c54:	4601                	li	a2,0
   13c56:	4681                	li	a3,0
   13c58:	00000073          	ecall
   13c5c:	03f14703          	lbu	a4,63(sp)
   13c60:	4509                	li	a0,2
   13c62:	00a10423          	sb	a0,8(sp)
   13c66:	00a71e63          	bne	a4,a0,13c82 <_ZN20complex_dynamic_type3app17h4c72312a3037f6c3E+0x144>
   13c6a:	001a8513          	addi	a0,s5,1
   13c6e:	03400613          	li	a2,52
   13c72:	85d2                	mv	a1,s4
   13c74:	0000b097          	auipc	ra,0xb
   13c78:	8a0080e7          	jalr	-1888(ra) # 1e514 <memcpy>
   13c7c:	000a8023          	sb	zero,0(s5)
   13c80:	b77d                	j	13c2e <_ZN20complex_dynamic_type3app17h4c72312a3037f6c3E+0xf0>
   13c82:	4601                	li	a2,0
   13c84:	4681                	li	a3,0
   13c86:	6509                	lui	a0,0x2
   13c88:	3c650913          	addi	s2,a0,966 # 23c6 <.Lline_table_start1+0x219b>
   13c8c:	4589                	li	a1,2
   13c8e:	854a                	mv	a0,s2
   13c90:	00000073          	ecall
   13c94:	00814983          	lbu	s3,8(sp)
   13c98:	4409                	li	s0,2
   13c9a:	001a8513          	addi	a0,s5,1
   13c9e:	03400613          	li	a2,52
   13ca2:	85d2                	mv	a1,s4
   13ca4:	0000b097          	auipc	ra,0xb
   13ca8:	870080e7          	jalr	-1936(ra) # 1e514 <memcpy>
   13cac:	000a8023          	sb	zero,0(s5)
   13cb0:	f6898fe3          	beq	s3,s0,13c2e <_ZN20complex_dynamic_type3app17h4c72312a3037f6c3E+0xf0>
   13cb4:	4591                	li	a1,4
   13cb6:	854a                	mv	a0,s2
   13cb8:	4601                	li	a2,0
   13cba:	4681                	li	a3,0
   13cbc:	874e                	mv	a4,s3
   13cbe:	00000073          	ecall
   13cc2:	b7b5                	j	13c2e <_ZN20complex_dynamic_type3app17h4c72312a3037f6c3E+0xf0>

00013cc4 <_ZN20complex_dynamic_type3app17h4cf9c50398d94692E>:
   13cc4:	7135                	addi	sp,sp,-160
   13cc6:	cf06                	sw	ra,156(sp)
   13cc8:	cd22                	sw	s0,152(sp)
   13cca:	cb26                	sw	s1,148(sp)
   13ccc:	c94a                	sw	s2,144(sp)
   13cce:	c74e                	sw	s3,140(sp)
   13cd0:	c552                	sw	s4,136(sp)
   13cd2:	c356                	sw	s5,132(sp)
   13cd4:	8aaa                	mv	s5,a0
   13cd6:	4409                	li	s0,2
   13cd8:	00810223          	sb	s0,4(sp)
   13cdc:	00510493          	addi	s1,sp,5
   13ce0:	466d                	li	a2,27
   13ce2:	8526                	mv	a0,s1
   13ce4:	0000b097          	auipc	ra,0xb
   13ce8:	830080e7          	jalr	-2000(ra) # 1e514 <memcpy>
   13cec:	02110a13          	addi	s4,sp,33
   13cf0:	06300613          	li	a2,99
   13cf4:	8552                	mv	a0,s4
   13cf6:	4581                	li	a1,0
   13cf8:	0000a097          	auipc	ra,0xa
   13cfc:	7b0080e7          	jalr	1968(ra) # 1e4a8 <memset>
   13d00:	8626                	mv	a2,s1
   13d02:	02810023          	sb	s0,32(sp)
   13d06:	6509                	lui	a0,0x2
   13d08:	4491                	li	s1,4
   13d0a:	458d                	li	a1,3
   13d0c:	54850793          	addi	a5,a0,1352 # 2548 <.Lline_table_start1+0x231d>
   13d10:	46ed                	li	a3,27
   13d12:	4711                	li	a4,4
   13d14:	853e                	mv	a0,a5
   13d16:	00000073          	ecall
   13d1a:	00851863          	bne	a0,s0,13d2a <_ZN20complex_dynamic_type3app17h4cf9c50398d94692E+0x66>
   13d1e:	4505                	li	a0,1
   13d20:	00aa8023          	sb	a0,0(s5)
   13d24:	00baa223          	sw	a1,4(s5)
   13d28:	a0bd                	j	13d96 <_ZN20complex_dynamic_type3app17h4cf9c50398d94692E+0xd2>
   13d2a:	853e                	mv	a0,a5
   13d2c:	8652                	mv	a2,s4
   13d2e:	00910223          	sb	s1,4(sp)
   13d32:	478d                	li	a5,3
   13d34:	458d                	li	a1,3
   13d36:	06300693          	li	a3,99
   13d3a:	470d                	li	a4,3
   13d3c:	00000073          	ecall
   13d40:	00851d63          	bne	a0,s0,13d5a <_ZN20complex_dynamic_type3app17h4cf9c50398d94692E+0x96>
   13d44:	02014703          	lbu	a4,32(sp)
   13d48:	4505                	li	a0,1
   13d4a:	4609                	li	a2,2
   13d4c:	00aa8023          	sb	a0,0(s5)
   13d50:	00baa223          	sw	a1,4(s5)
   13d54:	02c71963          	bne	a4,a2,13d86 <_ZN20complex_dynamic_type3app17h4cf9c50398d94692E+0xc2>
   13d58:	a83d                	j	13d96 <_ZN20complex_dynamic_type3app17h4cf9c50398d94692E+0xd2>
   13d5a:	4681                	li	a3,0
   13d5c:	02f10023          	sb	a5,32(sp)
   13d60:	6509                	lui	a0,0x2
   13d62:	458d                	li	a1,3
   13d64:	460d                	li	a2,3
   13d66:	4709                	li	a4,2
   13d68:	54850513          	addi	a0,a0,1352 # 2548 <.Lline_table_start1+0x231d>
   13d6c:	08000793          	li	a5,128
   13d70:	00000073          	ecall
   13d74:	4609                	li	a2,2
   13d76:	04f57663          	bgeu	a0,a5,13dc2 <_ZN20complex_dynamic_type3app17h4cf9c50398d94692E+0xfe>
   13d7a:	4505                	li	a0,1
   13d7c:	00aa8023          	sb	a0,0(s5)
   13d80:	00baa223          	sw	a1,4(s5)
   13d84:	470d                	li	a4,3
   13d86:	6509                	lui	a0,0x2
   13d88:	54850513          	addi	a0,a0,1352 # 2548 <.Lline_table_start1+0x231d>
   13d8c:	458d                	li	a1,3
   13d8e:	4601                	li	a2,0
   13d90:	4681                	li	a3,0
   13d92:	00000073          	ecall
   13d96:	00414703          	lbu	a4,4(sp)
   13d9a:	4509                	li	a0,2
   13d9c:	00a70a63          	beq	a4,a0,13db0 <_ZN20complex_dynamic_type3app17h4cf9c50398d94692E+0xec>
   13da0:	6509                	lui	a0,0x2
   13da2:	54850513          	addi	a0,a0,1352 # 2548 <.Lline_table_start1+0x231d>
   13da6:	458d                	li	a1,3
   13da8:	4601                	li	a2,0
   13daa:	4681                	li	a3,0
   13dac:	00000073          	ecall
   13db0:	40fa                	lw	ra,156(sp)
   13db2:	446a                	lw	s0,152(sp)
   13db4:	44da                	lw	s1,148(sp)
   13db6:	494a                	lw	s2,144(sp)
   13db8:	49ba                	lw	s3,140(sp)
   13dba:	4a2a                	lw	s4,136(sp)
   13dbc:	4a9a                	lw	s5,132(sp)
   13dbe:	610d                	addi	sp,sp,160
   13dc0:	8082                	ret
   13dc2:	00414703          	lbu	a4,4(sp)
   13dc6:	00c71463          	bne	a4,a2,13dce <_ZN20complex_dynamic_type3app17h4cf9c50398d94692E+0x10a>
   13dca:	470d                	li	a4,3
   13dcc:	a825                	j	13e04 <_ZN20complex_dynamic_type3app17h4cf9c50398d94692E+0x140>
   13dce:	6509                	lui	a0,0x2
   13dd0:	54850513          	addi	a0,a0,1352 # 2548 <.Lline_table_start1+0x231d>
   13dd4:	458d                	li	a1,3
   13dd6:	4601                	li	a2,0
   13dd8:	4681                	li	a3,0
   13dda:	00000073          	ecall
   13dde:	02014703          	lbu	a4,32(sp)
   13de2:	4509                	li	a0,2
   13de4:	00a10223          	sb	a0,4(sp)
   13de8:	00a71e63          	bne	a4,a0,13e04 <_ZN20complex_dynamic_type3app17h4cf9c50398d94692E+0x140>
   13dec:	001a8513          	addi	a0,s5,1
   13df0:	06300613          	li	a2,99
   13df4:	85d2                	mv	a1,s4
   13df6:	0000a097          	auipc	ra,0xa
   13dfa:	71e080e7          	jalr	1822(ra) # 1e514 <memcpy>
   13dfe:	000a8023          	sb	zero,0(s5)
   13e02:	b77d                	j	13db0 <_ZN20complex_dynamic_type3app17h4cf9c50398d94692E+0xec>
   13e04:	6509                	lui	a0,0x2
   13e06:	54850913          	addi	s2,a0,1352 # 2548 <.Lline_table_start1+0x231d>
   13e0a:	458d                	li	a1,3
   13e0c:	854a                	mv	a0,s2
   13e0e:	4601                	li	a2,0
   13e10:	4681                	li	a3,0
   13e12:	00000073          	ecall
   13e16:	00414983          	lbu	s3,4(sp)
   13e1a:	001a8513          	addi	a0,s5,1
   13e1e:	06300613          	li	a2,99
   13e22:	85d2                	mv	a1,s4
   13e24:	0000a097          	auipc	ra,0xa
   13e28:	6f0080e7          	jalr	1776(ra) # 1e514 <memcpy>
   13e2c:	4509                	li	a0,2
   13e2e:	000a8023          	sb	zero,0(s5)
   13e32:	f6a98fe3          	beq	s3,a0,13db0 <_ZN20complex_dynamic_type3app17h4cf9c50398d94692E+0xec>
   13e36:	458d                	li	a1,3
   13e38:	854a                	mv	a0,s2
   13e3a:	4601                	li	a2,0
   13e3c:	4681                	li	a3,0
   13e3e:	874e                	mv	a4,s3
   13e40:	00000073          	ecall
   13e44:	b7b5                	j	13db0 <_ZN20complex_dynamic_type3app17h4cf9c50398d94692E+0xec>

00013e46 <_ZN20complex_dynamic_type3app17h50be64b1a29c3a01E>:
   13e46:	7171                	addi	sp,sp,-176
   13e48:	d706                	sw	ra,172(sp)
   13e4a:	d522                	sw	s0,168(sp)
   13e4c:	d326                	sw	s1,164(sp)
   13e4e:	d14a                	sw	s2,160(sp)
   13e50:	cf4e                	sw	s3,156(sp)
   13e52:	cd52                	sw	s4,152(sp)
   13e54:	cb56                	sw	s5,148(sp)
   13e56:	8aaa                	mv	s5,a0
   13e58:	4409                	li	s0,2
   13e5a:	00810423          	sb	s0,8(sp)
   13e5e:	00910493          	addi	s1,sp,9
   13e62:	04f00613          	li	a2,79
   13e66:	8526                	mv	a0,s1
   13e68:	0000a097          	auipc	ra,0xa
   13e6c:	6ac080e7          	jalr	1708(ra) # 1e514 <memcpy>
   13e70:	05910a13          	addi	s4,sp,89
   13e74:	03b00613          	li	a2,59
   13e78:	8552                	mv	a0,s4
   13e7a:	4581                	li	a1,0
   13e7c:	0000a097          	auipc	ra,0xa
   13e80:	62c080e7          	jalr	1580(ra) # 1e4a8 <memset>
   13e84:	8626                	mv	a2,s1
   13e86:	04810c23          	sb	s0,88(sp)
   13e8a:	6505                	lui	a0,0x1
   13e8c:	4491                	li	s1,4
   13e8e:	45a1                	li	a1,8
   13e90:	a0650793          	addi	a5,a0,-1530 # a06 <.Lline_table_start1+0x7db>
   13e94:	04f00693          	li	a3,79
   13e98:	4711                	li	a4,4
   13e9a:	853e                	mv	a0,a5
   13e9c:	00000073          	ecall
   13ea0:	00851863          	bne	a0,s0,13eb0 <_ZN20complex_dynamic_type3app17h50be64b1a29c3a01E+0x6a>
   13ea4:	4505                	li	a0,1
   13ea6:	00aa8023          	sb	a0,0(s5)
   13eaa:	00baa223          	sw	a1,4(s5)
   13eae:	a0bd                	j	13f1c <_ZN20complex_dynamic_type3app17h50be64b1a29c3a01E+0xd6>
   13eb0:	853e                	mv	a0,a5
   13eb2:	8652                	mv	a2,s4
   13eb4:	00910423          	sb	s1,8(sp)
   13eb8:	478d                	li	a5,3
   13eba:	4595                	li	a1,5
   13ebc:	03b00693          	li	a3,59
   13ec0:	470d                	li	a4,3
   13ec2:	00000073          	ecall
   13ec6:	00851d63          	bne	a0,s0,13ee0 <_ZN20complex_dynamic_type3app17h50be64b1a29c3a01E+0x9a>
   13eca:	05814703          	lbu	a4,88(sp)
   13ece:	4505                	li	a0,1
   13ed0:	4609                	li	a2,2
   13ed2:	00aa8023          	sb	a0,0(s5)
   13ed6:	00baa223          	sw	a1,4(s5)
   13eda:	02c71963          	bne	a4,a2,13f0c <_ZN20complex_dynamic_type3app17h50be64b1a29c3a01E+0xc6>
   13ede:	a83d                	j	13f1c <_ZN20complex_dynamic_type3app17h50be64b1a29c3a01E+0xd6>
   13ee0:	4681                	li	a3,0
   13ee2:	04f10c23          	sb	a5,88(sp)
   13ee6:	6505                	lui	a0,0x1
   13ee8:	45a1                	li	a1,8
   13eea:	4615                	li	a2,5
   13eec:	4709                	li	a4,2
   13eee:	a0650513          	addi	a0,a0,-1530 # a06 <.Lline_table_start1+0x7db>
   13ef2:	08000793          	li	a5,128
   13ef6:	00000073          	ecall
   13efa:	4609                	li	a2,2
   13efc:	04f57663          	bgeu	a0,a5,13f48 <_ZN20complex_dynamic_type3app17h50be64b1a29c3a01E+0x102>
   13f00:	4505                	li	a0,1
   13f02:	00aa8023          	sb	a0,0(s5)
   13f06:	00baa223          	sw	a1,4(s5)
   13f0a:	470d                	li	a4,3
   13f0c:	6505                	lui	a0,0x1
   13f0e:	a0650513          	addi	a0,a0,-1530 # a06 <.Lline_table_start1+0x7db>
   13f12:	4595                	li	a1,5
   13f14:	4601                	li	a2,0
   13f16:	4681                	li	a3,0
   13f18:	00000073          	ecall
   13f1c:	00814703          	lbu	a4,8(sp)
   13f20:	4509                	li	a0,2
   13f22:	00a70a63          	beq	a4,a0,13f36 <_ZN20complex_dynamic_type3app17h50be64b1a29c3a01E+0xf0>
   13f26:	6505                	lui	a0,0x1
   13f28:	a0650513          	addi	a0,a0,-1530 # a06 <.Lline_table_start1+0x7db>
   13f2c:	45a1                	li	a1,8
   13f2e:	4601                	li	a2,0
   13f30:	4681                	li	a3,0
   13f32:	00000073          	ecall
   13f36:	50ba                	lw	ra,172(sp)
   13f38:	542a                	lw	s0,168(sp)
   13f3a:	549a                	lw	s1,164(sp)
   13f3c:	590a                	lw	s2,160(sp)
   13f3e:	49fa                	lw	s3,156(sp)
   13f40:	4a6a                	lw	s4,152(sp)
   13f42:	4ada                	lw	s5,148(sp)
   13f44:	614d                	addi	sp,sp,176
   13f46:	8082                	ret
   13f48:	00814703          	lbu	a4,8(sp)
   13f4c:	00c71463          	bne	a4,a2,13f54 <_ZN20complex_dynamic_type3app17h50be64b1a29c3a01E+0x10e>
   13f50:	470d                	li	a4,3
   13f52:	a825                	j	13f8a <_ZN20complex_dynamic_type3app17h50be64b1a29c3a01E+0x144>
   13f54:	6505                	lui	a0,0x1
   13f56:	a0650513          	addi	a0,a0,-1530 # a06 <.Lline_table_start1+0x7db>
   13f5a:	45a1                	li	a1,8
   13f5c:	4601                	li	a2,0
   13f5e:	4681                	li	a3,0
   13f60:	00000073          	ecall
   13f64:	05814703          	lbu	a4,88(sp)
   13f68:	4509                	li	a0,2
   13f6a:	00a10423          	sb	a0,8(sp)
   13f6e:	00a71e63          	bne	a4,a0,13f8a <_ZN20complex_dynamic_type3app17h50be64b1a29c3a01E+0x144>
   13f72:	001a8513          	addi	a0,s5,1
   13f76:	03b00613          	li	a2,59
   13f7a:	85d2                	mv	a1,s4
   13f7c:	0000a097          	auipc	ra,0xa
   13f80:	598080e7          	jalr	1432(ra) # 1e514 <memcpy>
   13f84:	000a8023          	sb	zero,0(s5)
   13f88:	b77d                	j	13f36 <_ZN20complex_dynamic_type3app17h50be64b1a29c3a01E+0xf0>
   13f8a:	6505                	lui	a0,0x1
   13f8c:	a0650913          	addi	s2,a0,-1530 # a06 <.Lline_table_start1+0x7db>
   13f90:	4595                	li	a1,5
   13f92:	854a                	mv	a0,s2
   13f94:	4601                	li	a2,0
   13f96:	4681                	li	a3,0
   13f98:	00000073          	ecall
   13f9c:	00814983          	lbu	s3,8(sp)
   13fa0:	001a8513          	addi	a0,s5,1
   13fa4:	03b00613          	li	a2,59
   13fa8:	85d2                	mv	a1,s4
   13faa:	0000a097          	auipc	ra,0xa
   13fae:	56a080e7          	jalr	1386(ra) # 1e514 <memcpy>
   13fb2:	4509                	li	a0,2
   13fb4:	000a8023          	sb	zero,0(s5)
   13fb8:	f6a98fe3          	beq	s3,a0,13f36 <_ZN20complex_dynamic_type3app17h50be64b1a29c3a01E+0xf0>
   13fbc:	45a1                	li	a1,8
   13fbe:	854a                	mv	a0,s2
   13fc0:	4601                	li	a2,0
   13fc2:	4681                	li	a3,0
   13fc4:	874e                	mv	a4,s3
   13fc6:	00000073          	ecall
   13fca:	b7b5                	j	13f36 <_ZN20complex_dynamic_type3app17h50be64b1a29c3a01E+0xf0>

00013fcc <_ZN20complex_dynamic_type3app17h56fd1f7a6e7f44b5E>:
   13fcc:	7171                	addi	sp,sp,-176
   13fce:	d706                	sw	ra,172(sp)
   13fd0:	d522                	sw	s0,168(sp)
   13fd2:	d326                	sw	s1,164(sp)
   13fd4:	d14a                	sw	s2,160(sp)
   13fd6:	cf4e                	sw	s3,156(sp)
   13fd8:	cd52                	sw	s4,152(sp)
   13fda:	cb56                	sw	s5,148(sp)
   13fdc:	8aaa                	mv	s5,a0
   13fde:	4409                	li	s0,2
   13fe0:	00810423          	sb	s0,8(sp)
   13fe4:	00910493          	addi	s1,sp,9
   13fe8:	06300613          	li	a2,99
   13fec:	8526                	mv	a0,s1
   13fee:	0000a097          	auipc	ra,0xa
   13ff2:	526080e7          	jalr	1318(ra) # 1e514 <memcpy>
   13ff6:	06d10a13          	addi	s4,sp,109
   13ffa:	02700613          	li	a2,39
   13ffe:	8552                	mv	a0,s4
   14000:	4581                	li	a1,0
   14002:	0000a097          	auipc	ra,0xa
   14006:	4a6080e7          	jalr	1190(ra) # 1e4a8 <memset>
   1400a:	8626                	mv	a2,s1
   1400c:	06810623          	sb	s0,108(sp)
   14010:	6509                	lui	a0,0x2
   14012:	4491                	li	s1,4
   14014:	459d                	li	a1,7
   14016:	e5450793          	addi	a5,a0,-428 # 1e54 <.Lline_table_start1+0x1c29>
   1401a:	06300693          	li	a3,99
   1401e:	4711                	li	a4,4
   14020:	853e                	mv	a0,a5
   14022:	00000073          	ecall
   14026:	00851863          	bne	a0,s0,14036 <_ZN20complex_dynamic_type3app17h56fd1f7a6e7f44b5E+0x6a>
   1402a:	4505                	li	a0,1
   1402c:	00aa8023          	sb	a0,0(s5)
   14030:	00baa223          	sw	a1,4(s5)
   14034:	a0bd                	j	140a2 <_ZN20complex_dynamic_type3app17h56fd1f7a6e7f44b5E+0xd6>
   14036:	853e                	mv	a0,a5
   14038:	4581                	li	a1,0
   1403a:	8652                	mv	a2,s4
   1403c:	00910423          	sb	s1,8(sp)
   14040:	478d                	li	a5,3
   14042:	02700693          	li	a3,39
   14046:	470d                	li	a4,3
   14048:	00000073          	ecall
   1404c:	00851d63          	bne	a0,s0,14066 <_ZN20complex_dynamic_type3app17h56fd1f7a6e7f44b5E+0x9a>
   14050:	06c14703          	lbu	a4,108(sp)
   14054:	4505                	li	a0,1
   14056:	4609                	li	a2,2
   14058:	00aa8023          	sb	a0,0(s5)
   1405c:	00baa223          	sw	a1,4(s5)
   14060:	02c71963          	bne	a4,a2,14092 <_ZN20complex_dynamic_type3app17h56fd1f7a6e7f44b5E+0xc6>
   14064:	a83d                	j	140a2 <_ZN20complex_dynamic_type3app17h56fd1f7a6e7f44b5E+0xd6>
   14066:	4601                	li	a2,0
   14068:	4681                	li	a3,0
   1406a:	06f10623          	sb	a5,108(sp)
   1406e:	6509                	lui	a0,0x2
   14070:	459d                	li	a1,7
   14072:	4709                	li	a4,2
   14074:	e5450513          	addi	a0,a0,-428 # 1e54 <.Lline_table_start1+0x1c29>
   14078:	08000793          	li	a5,128
   1407c:	00000073          	ecall
   14080:	4609                	li	a2,2
   14082:	04f57663          	bgeu	a0,a5,140ce <_ZN20complex_dynamic_type3app17h56fd1f7a6e7f44b5E+0x102>
   14086:	4505                	li	a0,1
   14088:	00aa8023          	sb	a0,0(s5)
   1408c:	00baa223          	sw	a1,4(s5)
   14090:	470d                	li	a4,3
   14092:	6509                	lui	a0,0x2
   14094:	e5450513          	addi	a0,a0,-428 # 1e54 <.Lline_table_start1+0x1c29>
   14098:	4581                	li	a1,0
   1409a:	4601                	li	a2,0
   1409c:	4681                	li	a3,0
   1409e:	00000073          	ecall
   140a2:	00814703          	lbu	a4,8(sp)
   140a6:	4509                	li	a0,2
   140a8:	00a70a63          	beq	a4,a0,140bc <_ZN20complex_dynamic_type3app17h56fd1f7a6e7f44b5E+0xf0>
   140ac:	6509                	lui	a0,0x2
   140ae:	e5450513          	addi	a0,a0,-428 # 1e54 <.Lline_table_start1+0x1c29>
   140b2:	459d                	li	a1,7
   140b4:	4601                	li	a2,0
   140b6:	4681                	li	a3,0
   140b8:	00000073          	ecall
   140bc:	50ba                	lw	ra,172(sp)
   140be:	542a                	lw	s0,168(sp)
   140c0:	549a                	lw	s1,164(sp)
   140c2:	590a                	lw	s2,160(sp)
   140c4:	49fa                	lw	s3,156(sp)
   140c6:	4a6a                	lw	s4,152(sp)
   140c8:	4ada                	lw	s5,148(sp)
   140ca:	614d                	addi	sp,sp,176
   140cc:	8082                	ret
   140ce:	00814703          	lbu	a4,8(sp)
   140d2:	00c71463          	bne	a4,a2,140da <_ZN20complex_dynamic_type3app17h56fd1f7a6e7f44b5E+0x10e>
   140d6:	470d                	li	a4,3
   140d8:	a825                	j	14110 <_ZN20complex_dynamic_type3app17h56fd1f7a6e7f44b5E+0x144>
   140da:	6509                	lui	a0,0x2
   140dc:	e5450513          	addi	a0,a0,-428 # 1e54 <.Lline_table_start1+0x1c29>
   140e0:	459d                	li	a1,7
   140e2:	4601                	li	a2,0
   140e4:	4681                	li	a3,0
   140e6:	00000073          	ecall
   140ea:	06c14703          	lbu	a4,108(sp)
   140ee:	4509                	li	a0,2
   140f0:	00a10423          	sb	a0,8(sp)
   140f4:	00a71e63          	bne	a4,a0,14110 <_ZN20complex_dynamic_type3app17h56fd1f7a6e7f44b5E+0x144>
   140f8:	001a8513          	addi	a0,s5,1
   140fc:	02700613          	li	a2,39
   14100:	85d2                	mv	a1,s4
   14102:	0000a097          	auipc	ra,0xa
   14106:	412080e7          	jalr	1042(ra) # 1e514 <memcpy>
   1410a:	000a8023          	sb	zero,0(s5)
   1410e:	b77d                	j	140bc <_ZN20complex_dynamic_type3app17h56fd1f7a6e7f44b5E+0xf0>
   14110:	6509                	lui	a0,0x2
   14112:	e5450913          	addi	s2,a0,-428 # 1e54 <.Lline_table_start1+0x1c29>
   14116:	854a                	mv	a0,s2
   14118:	4581                	li	a1,0
   1411a:	4601                	li	a2,0
   1411c:	4681                	li	a3,0
   1411e:	00000073          	ecall
   14122:	00814983          	lbu	s3,8(sp)
   14126:	001a8513          	addi	a0,s5,1
   1412a:	02700613          	li	a2,39
   1412e:	85d2                	mv	a1,s4
   14130:	0000a097          	auipc	ra,0xa
   14134:	3e4080e7          	jalr	996(ra) # 1e514 <memcpy>
   14138:	4509                	li	a0,2
   1413a:	000a8023          	sb	zero,0(s5)
   1413e:	f6a98fe3          	beq	s3,a0,140bc <_ZN20complex_dynamic_type3app17h56fd1f7a6e7f44b5E+0xf0>
   14142:	459d                	li	a1,7
   14144:	854a                	mv	a0,s2
   14146:	4601                	li	a2,0
   14148:	4681                	li	a3,0
   1414a:	874e                	mv	a4,s3
   1414c:	00000073          	ecall
   14150:	b7b5                	j	140bc <_ZN20complex_dynamic_type3app17h56fd1f7a6e7f44b5E+0xf0>

00014152 <_ZN20complex_dynamic_type3app17h5a1d01c8250d57a0E>:
   14152:	7175                	addi	sp,sp,-144
   14154:	c706                	sw	ra,140(sp)
   14156:	c522                	sw	s0,136(sp)
   14158:	c326                	sw	s1,132(sp)
   1415a:	c14a                	sw	s2,128(sp)
   1415c:	dece                	sw	s3,124(sp)
   1415e:	dcd2                	sw	s4,120(sp)
   14160:	8a2a                	mv	s4,a0
   14162:	4409                	li	s0,2
   14164:	008105a3          	sb	s0,11(sp)
   14168:	0064                	addi	s1,sp,12
   1416a:	05000613          	li	a2,80
   1416e:	8526                	mv	a0,s1
   14170:	0000a097          	auipc	ra,0xa
   14174:	3a4080e7          	jalr	932(ra) # 1e514 <memcpy>
   14178:	05d10993          	addi	s3,sp,93
   1417c:	466d                	li	a2,27
   1417e:	854e                	mv	a0,s3
   14180:	4581                	li	a1,0
   14182:	0000a097          	auipc	ra,0xa
   14186:	326080e7          	jalr	806(ra) # 1e4a8 <memset>
   1418a:	8626                	mv	a2,s1
   1418c:	04810e23          	sb	s0,92(sp)
   14190:	4785                	li	a5,1
   14192:	4491                	li	s1,4
   14194:	3d900513          	li	a0,985
   14198:	4585                	li	a1,1
   1419a:	05000693          	li	a3,80
   1419e:	4711                	li	a4,4
   141a0:	00000073          	ecall
   141a4:	00851763          	bne	a0,s0,141b2 <_ZN20complex_dynamic_type3app17h5a1d01c8250d57a0E+0x60>
   141a8:	00fa0023          	sb	a5,0(s4)
   141ac:	00ba2223          	sw	a1,4(s4)
   141b0:	a0ad                	j	1421a <_ZN20complex_dynamic_type3app17h5a1d01c8250d57a0E+0xc8>
   141b2:	864e                	mv	a2,s3
   141b4:	009105a3          	sb	s1,11(sp)
   141b8:	478d                	li	a5,3
   141ba:	3d900513          	li	a0,985
   141be:	4589                	li	a1,2
   141c0:	46ed                	li	a3,27
   141c2:	470d                	li	a4,3
   141c4:	00000073          	ecall
   141c8:	00851d63          	bne	a0,s0,141e2 <_ZN20complex_dynamic_type3app17h5a1d01c8250d57a0E+0x90>
   141cc:	05c14703          	lbu	a4,92(sp)
   141d0:	4505                	li	a0,1
   141d2:	4609                	li	a2,2
   141d4:	00aa0023          	sb	a0,0(s4)
   141d8:	00ba2223          	sw	a1,4(s4)
   141dc:	02c71863          	bne	a4,a2,1420c <_ZN20complex_dynamic_type3app17h5a1d01c8250d57a0E+0xba>
   141e0:	a82d                	j	1421a <_ZN20complex_dynamic_type3app17h5a1d01c8250d57a0E+0xc8>
   141e2:	4681                	li	a3,0
   141e4:	04f10e23          	sb	a5,92(sp)
   141e8:	4785                	li	a5,1
   141ea:	3d900513          	li	a0,985
   141ee:	4585                	li	a1,1
   141f0:	4609                	li	a2,2
   141f2:	4709                	li	a4,2
   141f4:	08000493          	li	s1,128
   141f8:	00000073          	ecall
   141fc:	4609                	li	a2,2
   141fe:	04957263          	bgeu	a0,s1,14242 <_ZN20complex_dynamic_type3app17h5a1d01c8250d57a0E+0xf0>
   14202:	00fa0023          	sb	a5,0(s4)
   14206:	00ba2223          	sw	a1,4(s4)
   1420a:	470d                	li	a4,3
   1420c:	3d900513          	li	a0,985
   14210:	4589                	li	a1,2
   14212:	4601                	li	a2,0
   14214:	4681                	li	a3,0
   14216:	00000073          	ecall
   1421a:	00b14703          	lbu	a4,11(sp)
   1421e:	4509                	li	a0,2
   14220:	00a70963          	beq	a4,a0,14232 <_ZN20complex_dynamic_type3app17h5a1d01c8250d57a0E+0xe0>
   14224:	3d900513          	li	a0,985
   14228:	4585                	li	a1,1
   1422a:	4601                	li	a2,0
   1422c:	4681                	li	a3,0
   1422e:	00000073          	ecall
   14232:	40ba                	lw	ra,140(sp)
   14234:	442a                	lw	s0,136(sp)
   14236:	449a                	lw	s1,132(sp)
   14238:	490a                	lw	s2,128(sp)
   1423a:	59f6                	lw	s3,124(sp)
   1423c:	5a66                	lw	s4,120(sp)
   1423e:	6149                	addi	sp,sp,144
   14240:	8082                	ret
   14242:	00b14703          	lbu	a4,11(sp)
   14246:	00c71463          	bne	a4,a2,1424e <_ZN20complex_dynamic_type3app17h5a1d01c8250d57a0E+0xfc>
   1424a:	470d                	li	a4,3
   1424c:	a815                	j	14280 <_ZN20complex_dynamic_type3app17h5a1d01c8250d57a0E+0x12e>
   1424e:	3d900513          	li	a0,985
   14252:	4585                	li	a1,1
   14254:	4601                	li	a2,0
   14256:	4681                	li	a3,0
   14258:	00000073          	ecall
   1425c:	05c14703          	lbu	a4,92(sp)
   14260:	4509                	li	a0,2
   14262:	00a105a3          	sb	a0,11(sp)
   14266:	00a71d63          	bne	a4,a0,14280 <_ZN20complex_dynamic_type3app17h5a1d01c8250d57a0E+0x12e>
   1426a:	001a0513          	addi	a0,s4,1
   1426e:	466d                	li	a2,27
   14270:	85ce                	mv	a1,s3
   14272:	0000a097          	auipc	ra,0xa
   14276:	2a2080e7          	jalr	674(ra) # 1e514 <memcpy>
   1427a:	000a0023          	sb	zero,0(s4)
   1427e:	bf55                	j	14232 <_ZN20complex_dynamic_type3app17h5a1d01c8250d57a0E+0xe0>
   14280:	4601                	li	a2,0
   14282:	4681                	li	a3,0
   14284:	3d900513          	li	a0,985
   14288:	4589                	li	a1,2
   1428a:	00000073          	ecall
   1428e:	00b14903          	lbu	s2,11(sp)
   14292:	4409                	li	s0,2
   14294:	001a0513          	addi	a0,s4,1
   14298:	466d                	li	a2,27
   1429a:	85ce                	mv	a1,s3
   1429c:	0000a097          	auipc	ra,0xa
   142a0:	278080e7          	jalr	632(ra) # 1e514 <memcpy>
   142a4:	000a0023          	sb	zero,0(s4)
   142a8:	f88905e3          	beq	s2,s0,14232 <_ZN20complex_dynamic_type3app17h5a1d01c8250d57a0E+0xe0>
   142ac:	3d900513          	li	a0,985
   142b0:	4585                	li	a1,1
   142b2:	4601                	li	a2,0
   142b4:	4681                	li	a3,0
   142b6:	874a                	mv	a4,s2
   142b8:	00000073          	ecall
   142bc:	bf9d                	j	14232 <_ZN20complex_dynamic_type3app17h5a1d01c8250d57a0E+0xe0>

000142be <_ZN20complex_dynamic_type3app17h64760dec0da36e91E>:
   142be:	7175                	addi	sp,sp,-144
   142c0:	c706                	sw	ra,140(sp)
   142c2:	c522                	sw	s0,136(sp)
   142c4:	c326                	sw	s1,132(sp)
   142c6:	c14a                	sw	s2,128(sp)
   142c8:	dece                	sw	s3,124(sp)
   142ca:	dcd2                	sw	s4,120(sp)
   142cc:	dad6                	sw	s5,116(sp)
   142ce:	8aaa                	mv	s5,a0
   142d0:	4409                	li	s0,2
   142d2:	008101a3          	sb	s0,3(sp)
   142d6:	0044                	addi	s1,sp,4
   142d8:	4679                	li	a2,30
   142da:	8526                	mv	a0,s1
   142dc:	0000a097          	auipc	ra,0xa
   142e0:	238080e7          	jalr	568(ra) # 1e514 <memcpy>
   142e4:	02310a13          	addi	s4,sp,35
   142e8:	05100613          	li	a2,81
   142ec:	8552                	mv	a0,s4
   142ee:	4581                	li	a1,0
   142f0:	0000a097          	auipc	ra,0xa
   142f4:	1b8080e7          	jalr	440(ra) # 1e4a8 <memset>
   142f8:	8626                	mv	a2,s1
   142fa:	02810123          	sb	s0,34(sp)
   142fe:	6509                	lui	a0,0x2
   14300:	4491                	li	s1,4
   14302:	4589                	li	a1,2
   14304:	96b50793          	addi	a5,a0,-1685 # 196b <.Lline_table_start1+0x1740>
   14308:	46f9                	li	a3,30
   1430a:	4711                	li	a4,4
   1430c:	853e                	mv	a0,a5
   1430e:	00000073          	ecall
   14312:	00851863          	bne	a0,s0,14322 <_ZN20complex_dynamic_type3app17h64760dec0da36e91E+0x64>
   14316:	4505                	li	a0,1
   14318:	00aa8023          	sb	a0,0(s5)
   1431c:	00baa223          	sw	a1,4(s5)
   14320:	a0bd                	j	1438e <_ZN20complex_dynamic_type3app17h64760dec0da36e91E+0xd0>
   14322:	853e                	mv	a0,a5
   14324:	4581                	li	a1,0
   14326:	8652                	mv	a2,s4
   14328:	009101a3          	sb	s1,3(sp)
   1432c:	478d                	li	a5,3
   1432e:	05100693          	li	a3,81
   14332:	470d                	li	a4,3
   14334:	00000073          	ecall
   14338:	00851d63          	bne	a0,s0,14352 <_ZN20complex_dynamic_type3app17h64760dec0da36e91E+0x94>
   1433c:	02214703          	lbu	a4,34(sp)
   14340:	4505                	li	a0,1
   14342:	4609                	li	a2,2
   14344:	00aa8023          	sb	a0,0(s5)
   14348:	00baa223          	sw	a1,4(s5)
   1434c:	02c71963          	bne	a4,a2,1437e <_ZN20complex_dynamic_type3app17h64760dec0da36e91E+0xc0>
   14350:	a83d                	j	1438e <_ZN20complex_dynamic_type3app17h64760dec0da36e91E+0xd0>
   14352:	4601                	li	a2,0
   14354:	4681                	li	a3,0
   14356:	02f10123          	sb	a5,34(sp)
   1435a:	6509                	lui	a0,0x2
   1435c:	4589                	li	a1,2
   1435e:	4709                	li	a4,2
   14360:	96b50513          	addi	a0,a0,-1685 # 196b <.Lline_table_start1+0x1740>
   14364:	08000793          	li	a5,128
   14368:	00000073          	ecall
   1436c:	4609                	li	a2,2
   1436e:	04f57663          	bgeu	a0,a5,143ba <_ZN20complex_dynamic_type3app17h64760dec0da36e91E+0xfc>
   14372:	4505                	li	a0,1
   14374:	00aa8023          	sb	a0,0(s5)
   14378:	00baa223          	sw	a1,4(s5)
   1437c:	470d                	li	a4,3
   1437e:	6509                	lui	a0,0x2
   14380:	96b50513          	addi	a0,a0,-1685 # 196b <.Lline_table_start1+0x1740>
   14384:	4581                	li	a1,0
   14386:	4601                	li	a2,0
   14388:	4681                	li	a3,0
   1438a:	00000073          	ecall
   1438e:	00314703          	lbu	a4,3(sp)
   14392:	4509                	li	a0,2
   14394:	00a70a63          	beq	a4,a0,143a8 <_ZN20complex_dynamic_type3app17h64760dec0da36e91E+0xea>
   14398:	6509                	lui	a0,0x2
   1439a:	96b50513          	addi	a0,a0,-1685 # 196b <.Lline_table_start1+0x1740>
   1439e:	4589                	li	a1,2
   143a0:	4601                	li	a2,0
   143a2:	4681                	li	a3,0
   143a4:	00000073          	ecall
   143a8:	40ba                	lw	ra,140(sp)
   143aa:	442a                	lw	s0,136(sp)
   143ac:	449a                	lw	s1,132(sp)
   143ae:	490a                	lw	s2,128(sp)
   143b0:	59f6                	lw	s3,124(sp)
   143b2:	5a66                	lw	s4,120(sp)
   143b4:	5ad6                	lw	s5,116(sp)
   143b6:	6149                	addi	sp,sp,144
   143b8:	8082                	ret
   143ba:	00314703          	lbu	a4,3(sp)
   143be:	00c71463          	bne	a4,a2,143c6 <_ZN20complex_dynamic_type3app17h64760dec0da36e91E+0x108>
   143c2:	470d                	li	a4,3
   143c4:	a825                	j	143fc <_ZN20complex_dynamic_type3app17h64760dec0da36e91E+0x13e>
   143c6:	6509                	lui	a0,0x2
   143c8:	96b50513          	addi	a0,a0,-1685 # 196b <.Lline_table_start1+0x1740>
   143cc:	4589                	li	a1,2
   143ce:	4601                	li	a2,0
   143d0:	4681                	li	a3,0
   143d2:	00000073          	ecall
   143d6:	02214703          	lbu	a4,34(sp)
   143da:	4509                	li	a0,2
   143dc:	00a101a3          	sb	a0,3(sp)
   143e0:	00a71e63          	bne	a4,a0,143fc <_ZN20complex_dynamic_type3app17h64760dec0da36e91E+0x13e>
   143e4:	001a8513          	addi	a0,s5,1
   143e8:	05100613          	li	a2,81
   143ec:	85d2                	mv	a1,s4
   143ee:	0000a097          	auipc	ra,0xa
   143f2:	126080e7          	jalr	294(ra) # 1e514 <memcpy>
   143f6:	000a8023          	sb	zero,0(s5)
   143fa:	b77d                	j	143a8 <_ZN20complex_dynamic_type3app17h64760dec0da36e91E+0xea>
   143fc:	6509                	lui	a0,0x2
   143fe:	96b50913          	addi	s2,a0,-1685 # 196b <.Lline_table_start1+0x1740>
   14402:	854a                	mv	a0,s2
   14404:	4581                	li	a1,0
   14406:	4601                	li	a2,0
   14408:	4681                	li	a3,0
   1440a:	00000073          	ecall
   1440e:	00314983          	lbu	s3,3(sp)
   14412:	001a8513          	addi	a0,s5,1
   14416:	05100613          	li	a2,81
   1441a:	85d2                	mv	a1,s4
   1441c:	0000a097          	auipc	ra,0xa
   14420:	0f8080e7          	jalr	248(ra) # 1e514 <memcpy>
   14424:	4509                	li	a0,2
   14426:	000a8023          	sb	zero,0(s5)
   1442a:	f6a98fe3          	beq	s3,a0,143a8 <_ZN20complex_dynamic_type3app17h64760dec0da36e91E+0xea>
   1442e:	4589                	li	a1,2
   14430:	854a                	mv	a0,s2
   14432:	4601                	li	a2,0
   14434:	4681                	li	a3,0
   14436:	874e                	mv	a4,s3
   14438:	00000073          	ecall
   1443c:	b7b5                	j	143a8 <_ZN20complex_dynamic_type3app17h64760dec0da36e91E+0xea>

0001443e <_ZN20complex_dynamic_type3app17h66637f46fa41bd15E>:
   1443e:	7131                	addi	sp,sp,-192
   14440:	df06                	sw	ra,188(sp)
   14442:	dd22                	sw	s0,184(sp)
   14444:	db26                	sw	s1,180(sp)
   14446:	d94a                	sw	s2,176(sp)
   14448:	d74e                	sw	s3,172(sp)
   1444a:	d552                	sw	s4,168(sp)
   1444c:	d356                	sw	s5,164(sp)
   1444e:	8aaa                	mv	s5,a0
   14450:	4409                	li	s0,2
   14452:	008105a3          	sb	s0,11(sp)
   14456:	0064                	addi	s1,sp,12
   14458:	03a00613          	li	a2,58
   1445c:	8526                	mv	a0,s1
   1445e:	0000a097          	auipc	ra,0xa
   14462:	0b6080e7          	jalr	182(ra) # 1e514 <memcpy>
   14466:	04710a13          	addi	s4,sp,71
   1446a:	05d00613          	li	a2,93
   1446e:	8552                	mv	a0,s4
   14470:	4581                	li	a1,0
   14472:	0000a097          	auipc	ra,0xa
   14476:	036080e7          	jalr	54(ra) # 1e4a8 <memset>
   1447a:	4581                	li	a1,0
   1447c:	8626                	mv	a2,s1
   1447e:	04810323          	sb	s0,70(sp)
   14482:	6505                	lui	a0,0x1
   14484:	4491                	li	s1,4
   14486:	4a450793          	addi	a5,a0,1188 # 14a4 <.Lline_table_start1+0x1279>
   1448a:	03a00693          	li	a3,58
   1448e:	4711                	li	a4,4
   14490:	853e                	mv	a0,a5
   14492:	00000073          	ecall
   14496:	00851863          	bne	a0,s0,144a6 <_ZN20complex_dynamic_type3app17h66637f46fa41bd15E+0x68>
   1449a:	4505                	li	a0,1
   1449c:	00aa8023          	sb	a0,0(s5)
   144a0:	00baa223          	sw	a1,4(s5)
   144a4:	a0bd                	j	14512 <_ZN20complex_dynamic_type3app17h66637f46fa41bd15E+0xd4>
   144a6:	853e                	mv	a0,a5
   144a8:	8652                	mv	a2,s4
   144aa:	009105a3          	sb	s1,11(sp)
   144ae:	478d                	li	a5,3
   144b0:	4595                	li	a1,5
   144b2:	05d00693          	li	a3,93
   144b6:	470d                	li	a4,3
   144b8:	00000073          	ecall
   144bc:	00851d63          	bne	a0,s0,144d6 <_ZN20complex_dynamic_type3app17h66637f46fa41bd15E+0x98>
   144c0:	04614703          	lbu	a4,70(sp)
   144c4:	4505                	li	a0,1
   144c6:	4609                	li	a2,2
   144c8:	00aa8023          	sb	a0,0(s5)
   144cc:	00baa223          	sw	a1,4(s5)
   144d0:	02c71963          	bne	a4,a2,14502 <_ZN20complex_dynamic_type3app17h66637f46fa41bd15E+0xc4>
   144d4:	a83d                	j	14512 <_ZN20complex_dynamic_type3app17h66637f46fa41bd15E+0xd4>
   144d6:	4581                	li	a1,0
   144d8:	4681                	li	a3,0
   144da:	04f10323          	sb	a5,70(sp)
   144de:	6505                	lui	a0,0x1
   144e0:	4615                	li	a2,5
   144e2:	4709                	li	a4,2
   144e4:	4a450513          	addi	a0,a0,1188 # 14a4 <.Lline_table_start1+0x1279>
   144e8:	08000793          	li	a5,128
   144ec:	00000073          	ecall
   144f0:	4609                	li	a2,2
   144f2:	04f57663          	bgeu	a0,a5,1453e <_ZN20complex_dynamic_type3app17h66637f46fa41bd15E+0x100>
   144f6:	4505                	li	a0,1
   144f8:	00aa8023          	sb	a0,0(s5)
   144fc:	00baa223          	sw	a1,4(s5)
   14500:	470d                	li	a4,3
   14502:	6505                	lui	a0,0x1
   14504:	4a450513          	addi	a0,a0,1188 # 14a4 <.Lline_table_start1+0x1279>
   14508:	4595                	li	a1,5
   1450a:	4601                	li	a2,0
   1450c:	4681                	li	a3,0
   1450e:	00000073          	ecall
   14512:	00b14703          	lbu	a4,11(sp)
   14516:	4509                	li	a0,2
   14518:	00a70a63          	beq	a4,a0,1452c <_ZN20complex_dynamic_type3app17h66637f46fa41bd15E+0xee>
   1451c:	6505                	lui	a0,0x1
   1451e:	4a450513          	addi	a0,a0,1188 # 14a4 <.Lline_table_start1+0x1279>
   14522:	4581                	li	a1,0
   14524:	4601                	li	a2,0
   14526:	4681                	li	a3,0
   14528:	00000073          	ecall
   1452c:	50fa                	lw	ra,188(sp)
   1452e:	546a                	lw	s0,184(sp)
   14530:	54da                	lw	s1,180(sp)
   14532:	594a                	lw	s2,176(sp)
   14534:	59ba                	lw	s3,172(sp)
   14536:	5a2a                	lw	s4,168(sp)
   14538:	5a9a                	lw	s5,164(sp)
   1453a:	6129                	addi	sp,sp,192
   1453c:	8082                	ret
   1453e:	00b14703          	lbu	a4,11(sp)
   14542:	00c71463          	bne	a4,a2,1454a <_ZN20complex_dynamic_type3app17h66637f46fa41bd15E+0x10c>
   14546:	470d                	li	a4,3
   14548:	a825                	j	14580 <_ZN20complex_dynamic_type3app17h66637f46fa41bd15E+0x142>
   1454a:	6505                	lui	a0,0x1
   1454c:	4a450513          	addi	a0,a0,1188 # 14a4 <.Lline_table_start1+0x1279>
   14550:	4581                	li	a1,0
   14552:	4601                	li	a2,0
   14554:	4681                	li	a3,0
   14556:	00000073          	ecall
   1455a:	04614703          	lbu	a4,70(sp)
   1455e:	4509                	li	a0,2
   14560:	00a105a3          	sb	a0,11(sp)
   14564:	00a71e63          	bne	a4,a0,14580 <_ZN20complex_dynamic_type3app17h66637f46fa41bd15E+0x142>
   14568:	001a8513          	addi	a0,s5,1
   1456c:	05d00613          	li	a2,93
   14570:	85d2                	mv	a1,s4
   14572:	0000a097          	auipc	ra,0xa
   14576:	fa2080e7          	jalr	-94(ra) # 1e514 <memcpy>
   1457a:	000a8023          	sb	zero,0(s5)
   1457e:	b77d                	j	1452c <_ZN20complex_dynamic_type3app17h66637f46fa41bd15E+0xee>
   14580:	6505                	lui	a0,0x1
   14582:	4a450913          	addi	s2,a0,1188 # 14a4 <.Lline_table_start1+0x1279>
   14586:	4595                	li	a1,5
   14588:	854a                	mv	a0,s2
   1458a:	4601                	li	a2,0
   1458c:	4681                	li	a3,0
   1458e:	00000073          	ecall
   14592:	00b14983          	lbu	s3,11(sp)
   14596:	001a8513          	addi	a0,s5,1
   1459a:	05d00613          	li	a2,93
   1459e:	85d2                	mv	a1,s4
   145a0:	0000a097          	auipc	ra,0xa
   145a4:	f74080e7          	jalr	-140(ra) # 1e514 <memcpy>
   145a8:	4509                	li	a0,2
   145aa:	000a8023          	sb	zero,0(s5)
   145ae:	f6a98fe3          	beq	s3,a0,1452c <_ZN20complex_dynamic_type3app17h66637f46fa41bd15E+0xee>
   145b2:	854a                	mv	a0,s2
   145b4:	4581                	li	a1,0
   145b6:	4601                	li	a2,0
   145b8:	4681                	li	a3,0
   145ba:	874e                	mv	a4,s3
   145bc:	00000073          	ecall
   145c0:	b7b5                	j	1452c <_ZN20complex_dynamic_type3app17h66637f46fa41bd15E+0xee>

000145c2 <_ZN20complex_dynamic_type3app17h66bf68d52ee54194E>:
   145c2:	715d                	addi	sp,sp,-80
   145c4:	c686                	sw	ra,76(sp)
   145c6:	c4a2                	sw	s0,72(sp)
   145c8:	c2a6                	sw	s1,68(sp)
   145ca:	c0ca                	sw	s2,64(sp)
   145cc:	de4e                	sw	s3,60(sp)
   145ce:	dc52                	sw	s4,56(sp)
   145d0:	8a2a                	mv	s4,a0
   145d2:	4409                	li	s0,2
   145d4:	00810123          	sb	s0,2(sp)
   145d8:	00310493          	addi	s1,sp,3
   145dc:	463d                	li	a2,15
   145de:	8526                	mv	a0,s1
   145e0:	0000a097          	auipc	ra,0xa
   145e4:	f34080e7          	jalr	-204(ra) # 1e514 <memcpy>
   145e8:	01310993          	addi	s3,sp,19
   145ec:	02500613          	li	a2,37
   145f0:	854e                	mv	a0,s3
   145f2:	4581                	li	a1,0
   145f4:	0000a097          	auipc	ra,0xa
   145f8:	eb4080e7          	jalr	-332(ra) # 1e4a8 <memset>
   145fc:	8626                	mv	a2,s1
   145fe:	00810923          	sb	s0,18(sp)
   14602:	4791                	li	a5,4
   14604:	0a200513          	li	a0,162
   14608:	45a1                	li	a1,8
   1460a:	46bd                	li	a3,15
   1460c:	4711                	li	a4,4
   1460e:	00000073          	ecall
   14612:	00851863          	bne	a0,s0,14622 <_ZN20complex_dynamic_type3app17h66bf68d52ee54194E+0x60>
   14616:	4505                	li	a0,1
   14618:	00aa0023          	sb	a0,0(s4)
   1461c:	00ba2223          	sw	a1,4(s4)
   14620:	a0b5                	j	1468c <_ZN20complex_dynamic_type3app17h66bf68d52ee54194E+0xca>
   14622:	4581                	li	a1,0
   14624:	864e                	mv	a2,s3
   14626:	00f10123          	sb	a5,2(sp)
   1462a:	478d                	li	a5,3
   1462c:	0a200513          	li	a0,162
   14630:	02500693          	li	a3,37
   14634:	470d                	li	a4,3
   14636:	00000073          	ecall
   1463a:	00851d63          	bne	a0,s0,14654 <_ZN20complex_dynamic_type3app17h66bf68d52ee54194E+0x92>
   1463e:	01214703          	lbu	a4,18(sp)
   14642:	4505                	li	a0,1
   14644:	4609                	li	a2,2
   14646:	00aa0023          	sb	a0,0(s4)
   1464a:	00ba2223          	sw	a1,4(s4)
   1464e:	02c71863          	bne	a4,a2,1467e <_ZN20complex_dynamic_type3app17h66bf68d52ee54194E+0xbc>
   14652:	a82d                	j	1468c <_ZN20complex_dynamic_type3app17h66bf68d52ee54194E+0xca>
   14654:	4601                	li	a2,0
   14656:	4681                	li	a3,0
   14658:	00f10923          	sb	a5,18(sp)
   1465c:	0a200513          	li	a0,162
   14660:	45a1                	li	a1,8
   14662:	4709                	li	a4,2
   14664:	08000793          	li	a5,128
   14668:	00000073          	ecall
   1466c:	4609                	li	a2,2
   1466e:	04f57363          	bgeu	a0,a5,146b4 <_ZN20complex_dynamic_type3app17h66bf68d52ee54194E+0xf2>
   14672:	4505                	li	a0,1
   14674:	00aa0023          	sb	a0,0(s4)
   14678:	00ba2223          	sw	a1,4(s4)
   1467c:	470d                	li	a4,3
   1467e:	0a200513          	li	a0,162
   14682:	4581                	li	a1,0
   14684:	4601                	li	a2,0
   14686:	4681                	li	a3,0
   14688:	00000073          	ecall
   1468c:	00214703          	lbu	a4,2(sp)
   14690:	4509                	li	a0,2
   14692:	00a70963          	beq	a4,a0,146a4 <_ZN20complex_dynamic_type3app17h66bf68d52ee54194E+0xe2>
   14696:	0a200513          	li	a0,162
   1469a:	45a1                	li	a1,8
   1469c:	4601                	li	a2,0
   1469e:	4681                	li	a3,0
   146a0:	00000073          	ecall
   146a4:	40b6                	lw	ra,76(sp)
   146a6:	4426                	lw	s0,72(sp)
   146a8:	4496                	lw	s1,68(sp)
   146aa:	4906                	lw	s2,64(sp)
   146ac:	59f2                	lw	s3,60(sp)
   146ae:	5a62                	lw	s4,56(sp)
   146b0:	6161                	addi	sp,sp,80
   146b2:	8082                	ret
   146b4:	00214703          	lbu	a4,2(sp)
   146b8:	00c71463          	bne	a4,a2,146c0 <_ZN20complex_dynamic_type3app17h66bf68d52ee54194E+0xfe>
   146bc:	470d                	li	a4,3
   146be:	a81d                	j	146f4 <_ZN20complex_dynamic_type3app17h66bf68d52ee54194E+0x132>
   146c0:	0a200513          	li	a0,162
   146c4:	45a1                	li	a1,8
   146c6:	4601                	li	a2,0
   146c8:	4681                	li	a3,0
   146ca:	00000073          	ecall
   146ce:	01214703          	lbu	a4,18(sp)
   146d2:	4509                	li	a0,2
   146d4:	00a10123          	sb	a0,2(sp)
   146d8:	00a71e63          	bne	a4,a0,146f4 <_ZN20complex_dynamic_type3app17h66bf68d52ee54194E+0x132>
   146dc:	001a0513          	addi	a0,s4,1
   146e0:	02500613          	li	a2,37
   146e4:	85ce                	mv	a1,s3
   146e6:	0000a097          	auipc	ra,0xa
   146ea:	e2e080e7          	jalr	-466(ra) # 1e514 <memcpy>
   146ee:	000a0023          	sb	zero,0(s4)
   146f2:	bf4d                	j	146a4 <_ZN20complex_dynamic_type3app17h66bf68d52ee54194E+0xe2>
   146f4:	0a200513          	li	a0,162
   146f8:	4581                	li	a1,0
   146fa:	4601                	li	a2,0
   146fc:	4681                	li	a3,0
   146fe:	00000073          	ecall
   14702:	00214903          	lbu	s2,2(sp)
   14706:	001a0513          	addi	a0,s4,1
   1470a:	02500613          	li	a2,37
   1470e:	85ce                	mv	a1,s3
   14710:	0000a097          	auipc	ra,0xa
   14714:	e04080e7          	jalr	-508(ra) # 1e514 <memcpy>
   14718:	4509                	li	a0,2
   1471a:	000a0023          	sb	zero,0(s4)
   1471e:	f8a903e3          	beq	s2,a0,146a4 <_ZN20complex_dynamic_type3app17h66bf68d52ee54194E+0xe2>
   14722:	0a200513          	li	a0,162
   14726:	45a1                	li	a1,8
   14728:	4601                	li	a2,0
   1472a:	4681                	li	a3,0
   1472c:	874a                	mv	a4,s2
   1472e:	00000073          	ecall
   14732:	bf8d                	j	146a4 <_ZN20complex_dynamic_type3app17h66bf68d52ee54194E+0xe2>

00014734 <_ZN20complex_dynamic_type3app17h6c6137a84074cc0aE>:
   14734:	7159                	addi	sp,sp,-112
   14736:	d686                	sw	ra,108(sp)
   14738:	d4a2                	sw	s0,104(sp)
   1473a:	d2a6                	sw	s1,100(sp)
   1473c:	d0ca                	sw	s2,96(sp)
   1473e:	cece                	sw	s3,92(sp)
   14740:	ccd2                	sw	s4,88(sp)
   14742:	cad6                	sw	s5,84(sp)
   14744:	8aaa                	mv	s5,a0
   14746:	4409                	li	s0,2
   14748:	00810123          	sb	s0,2(sp)
   1474c:	00310493          	addi	s1,sp,3
   14750:	03f00613          	li	a2,63
   14754:	8526                	mv	a0,s1
   14756:	0000a097          	auipc	ra,0xa
   1475a:	dbe080e7          	jalr	-578(ra) # 1e514 <memcpy>
   1475e:	04310a13          	addi	s4,sp,67
   14762:	4645                	li	a2,17
   14764:	8552                	mv	a0,s4
   14766:	4581                	li	a1,0
   14768:	0000a097          	auipc	ra,0xa
   1476c:	d40080e7          	jalr	-704(ra) # 1e4a8 <memset>
   14770:	8626                	mv	a2,s1
   14772:	04810123          	sb	s0,66(sp)
   14776:	6505                	lui	a0,0x1
   14778:	4491                	li	s1,4
   1477a:	4591                	li	a1,4
   1477c:	4d750793          	addi	a5,a0,1239 # 14d7 <.Lline_table_start1+0x12ac>
   14780:	03f00693          	li	a3,63
   14784:	4711                	li	a4,4
   14786:	853e                	mv	a0,a5
   14788:	00000073          	ecall
   1478c:	00851863          	bne	a0,s0,1479c <_ZN20complex_dynamic_type3app17h6c6137a84074cc0aE+0x68>
   14790:	4505                	li	a0,1
   14792:	00aa8023          	sb	a0,0(s5)
   14796:	00baa223          	sw	a1,4(s5)
   1479a:	a0b5                	j	14806 <_ZN20complex_dynamic_type3app17h6c6137a84074cc0aE+0xd2>
   1479c:	853e                	mv	a0,a5
   1479e:	8652                	mv	a2,s4
   147a0:	00910123          	sb	s1,2(sp)
   147a4:	478d                	li	a5,3
   147a6:	458d                	li	a1,3
   147a8:	46c5                	li	a3,17
   147aa:	470d                	li	a4,3
   147ac:	00000073          	ecall
   147b0:	00851d63          	bne	a0,s0,147ca <_ZN20complex_dynamic_type3app17h6c6137a84074cc0aE+0x96>
   147b4:	04214703          	lbu	a4,66(sp)
   147b8:	4505                	li	a0,1
   147ba:	4609                	li	a2,2
   147bc:	00aa8023          	sb	a0,0(s5)
   147c0:	00baa223          	sw	a1,4(s5)
   147c4:	02c71963          	bne	a4,a2,147f6 <_ZN20complex_dynamic_type3app17h6c6137a84074cc0aE+0xc2>
   147c8:	a83d                	j	14806 <_ZN20complex_dynamic_type3app17h6c6137a84074cc0aE+0xd2>
   147ca:	4681                	li	a3,0
   147cc:	04f10123          	sb	a5,66(sp)
   147d0:	6505                	lui	a0,0x1
   147d2:	4591                	li	a1,4
   147d4:	460d                	li	a2,3
   147d6:	4709                	li	a4,2
   147d8:	4d750513          	addi	a0,a0,1239 # 14d7 <.Lline_table_start1+0x12ac>
   147dc:	08000793          	li	a5,128
   147e0:	00000073          	ecall
   147e4:	4609                	li	a2,2
   147e6:	04f57663          	bgeu	a0,a5,14832 <_ZN20complex_dynamic_type3app17h6c6137a84074cc0aE+0xfe>
   147ea:	4505                	li	a0,1
   147ec:	00aa8023          	sb	a0,0(s5)
   147f0:	00baa223          	sw	a1,4(s5)
   147f4:	470d                	li	a4,3
   147f6:	6505                	lui	a0,0x1
   147f8:	4d750513          	addi	a0,a0,1239 # 14d7 <.Lline_table_start1+0x12ac>
   147fc:	458d                	li	a1,3
   147fe:	4601                	li	a2,0
   14800:	4681                	li	a3,0
   14802:	00000073          	ecall
   14806:	00214703          	lbu	a4,2(sp)
   1480a:	4509                	li	a0,2
   1480c:	00a70a63          	beq	a4,a0,14820 <_ZN20complex_dynamic_type3app17h6c6137a84074cc0aE+0xec>
   14810:	6505                	lui	a0,0x1
   14812:	4d750513          	addi	a0,a0,1239 # 14d7 <.Lline_table_start1+0x12ac>
   14816:	4591                	li	a1,4
   14818:	4601                	li	a2,0
   1481a:	4681                	li	a3,0
   1481c:	00000073          	ecall
   14820:	50b6                	lw	ra,108(sp)
   14822:	5426                	lw	s0,104(sp)
   14824:	5496                	lw	s1,100(sp)
   14826:	5906                	lw	s2,96(sp)
   14828:	49f6                	lw	s3,92(sp)
   1482a:	4a66                	lw	s4,88(sp)
   1482c:	4ad6                	lw	s5,84(sp)
   1482e:	6165                	addi	sp,sp,112
   14830:	8082                	ret
   14832:	00214703          	lbu	a4,2(sp)
   14836:	00c71463          	bne	a4,a2,1483e <_ZN20complex_dynamic_type3app17h6c6137a84074cc0aE+0x10a>
   1483a:	470d                	li	a4,3
   1483c:	a81d                	j	14872 <_ZN20complex_dynamic_type3app17h6c6137a84074cc0aE+0x13e>
   1483e:	6505                	lui	a0,0x1
   14840:	4d750513          	addi	a0,a0,1239 # 14d7 <.Lline_table_start1+0x12ac>
   14844:	4591                	li	a1,4
   14846:	4601                	li	a2,0
   14848:	4681                	li	a3,0
   1484a:	00000073          	ecall
   1484e:	04214703          	lbu	a4,66(sp)
   14852:	4509                	li	a0,2
   14854:	00a10123          	sb	a0,2(sp)
   14858:	00a71d63          	bne	a4,a0,14872 <_ZN20complex_dynamic_type3app17h6c6137a84074cc0aE+0x13e>
   1485c:	001a8513          	addi	a0,s5,1
   14860:	4645                	li	a2,17
   14862:	85d2                	mv	a1,s4
   14864:	0000a097          	auipc	ra,0xa
   14868:	cb0080e7          	jalr	-848(ra) # 1e514 <memcpy>
   1486c:	000a8023          	sb	zero,0(s5)
   14870:	bf45                	j	14820 <_ZN20complex_dynamic_type3app17h6c6137a84074cc0aE+0xec>
   14872:	6505                	lui	a0,0x1
   14874:	4d750913          	addi	s2,a0,1239 # 14d7 <.Lline_table_start1+0x12ac>
   14878:	458d                	li	a1,3
   1487a:	854a                	mv	a0,s2
   1487c:	4601                	li	a2,0
   1487e:	4681                	li	a3,0
   14880:	00000073          	ecall
   14884:	00214983          	lbu	s3,2(sp)
   14888:	001a8513          	addi	a0,s5,1
   1488c:	4645                	li	a2,17
   1488e:	85d2                	mv	a1,s4
   14890:	0000a097          	auipc	ra,0xa
   14894:	c84080e7          	jalr	-892(ra) # 1e514 <memcpy>
   14898:	4509                	li	a0,2
   1489a:	000a8023          	sb	zero,0(s5)
   1489e:	f8a981e3          	beq	s3,a0,14820 <_ZN20complex_dynamic_type3app17h6c6137a84074cc0aE+0xec>
   148a2:	4591                	li	a1,4
   148a4:	854a                	mv	a0,s2
   148a6:	4601                	li	a2,0
   148a8:	4681                	li	a3,0
   148aa:	874e                	mv	a4,s3
   148ac:	00000073          	ecall
   148b0:	bf85                	j	14820 <_ZN20complex_dynamic_type3app17h6c6137a84074cc0aE+0xec>

000148b2 <_ZN20complex_dynamic_type3app17h72579b702194d565E>:
   148b2:	7131                	addi	sp,sp,-192
   148b4:	df06                	sw	ra,188(sp)
   148b6:	dd22                	sw	s0,184(sp)
   148b8:	db26                	sw	s1,180(sp)
   148ba:	d94a                	sw	s2,176(sp)
   148bc:	d74e                	sw	s3,172(sp)
   148be:	d552                	sw	s4,168(sp)
   148c0:	d356                	sw	s5,164(sp)
   148c2:	8aaa                	mv	s5,a0
   148c4:	4409                	li	s0,2
   148c6:	00810323          	sb	s0,6(sp)
   148ca:	00710493          	addi	s1,sp,7
   148ce:	04600613          	li	a2,70
   148d2:	8526                	mv	a0,s1
   148d4:	0000a097          	auipc	ra,0xa
   148d8:	c40080e7          	jalr	-960(ra) # 1e514 <memcpy>
   148dc:	04e10a13          	addi	s4,sp,78
   148e0:	05600613          	li	a2,86
   148e4:	8552                	mv	a0,s4
   148e6:	4581                	li	a1,0
   148e8:	0000a097          	auipc	ra,0xa
   148ec:	bc0080e7          	jalr	-1088(ra) # 1e4a8 <memset>
   148f0:	8626                	mv	a2,s1
   148f2:	048106a3          	sb	s0,77(sp)
   148f6:	6509                	lui	a0,0x2
   148f8:	4491                	li	s1,4
   148fa:	459d                	li	a1,7
   148fc:	e5050793          	addi	a5,a0,-432 # 1e50 <.Lline_table_start1+0x1c25>
   14900:	04600693          	li	a3,70
   14904:	4711                	li	a4,4
   14906:	853e                	mv	a0,a5
   14908:	00000073          	ecall
   1490c:	00851863          	bne	a0,s0,1491c <_ZN20complex_dynamic_type3app17h72579b702194d565E+0x6a>
   14910:	4505                	li	a0,1
   14912:	00aa8023          	sb	a0,0(s5)
   14916:	00baa223          	sw	a1,4(s5)
   1491a:	a0bd                	j	14988 <_ZN20complex_dynamic_type3app17h72579b702194d565E+0xd6>
   1491c:	853e                	mv	a0,a5
   1491e:	8652                	mv	a2,s4
   14920:	00910323          	sb	s1,6(sp)
   14924:	478d                	li	a5,3
   14926:	458d                	li	a1,3
   14928:	05600693          	li	a3,86
   1492c:	470d                	li	a4,3
   1492e:	00000073          	ecall
   14932:	00851d63          	bne	a0,s0,1494c <_ZN20complex_dynamic_type3app17h72579b702194d565E+0x9a>
   14936:	04d14703          	lbu	a4,77(sp)
   1493a:	4505                	li	a0,1
   1493c:	4609                	li	a2,2
   1493e:	00aa8023          	sb	a0,0(s5)
   14942:	00baa223          	sw	a1,4(s5)
   14946:	02c71963          	bne	a4,a2,14978 <_ZN20complex_dynamic_type3app17h72579b702194d565E+0xc6>
   1494a:	a83d                	j	14988 <_ZN20complex_dynamic_type3app17h72579b702194d565E+0xd6>
   1494c:	4681                	li	a3,0
   1494e:	04f106a3          	sb	a5,77(sp)
   14952:	6509                	lui	a0,0x2
   14954:	459d                	li	a1,7
   14956:	460d                	li	a2,3
   14958:	4709                	li	a4,2
   1495a:	e5050513          	addi	a0,a0,-432 # 1e50 <.Lline_table_start1+0x1c25>
   1495e:	08000793          	li	a5,128
   14962:	00000073          	ecall
   14966:	4609                	li	a2,2
   14968:	04f57663          	bgeu	a0,a5,149b4 <_ZN20complex_dynamic_type3app17h72579b702194d565E+0x102>
   1496c:	4505                	li	a0,1
   1496e:	00aa8023          	sb	a0,0(s5)
   14972:	00baa223          	sw	a1,4(s5)
   14976:	470d                	li	a4,3
   14978:	6509                	lui	a0,0x2
   1497a:	e5050513          	addi	a0,a0,-432 # 1e50 <.Lline_table_start1+0x1c25>
   1497e:	458d                	li	a1,3
   14980:	4601                	li	a2,0
   14982:	4681                	li	a3,0
   14984:	00000073          	ecall
   14988:	00614703          	lbu	a4,6(sp)
   1498c:	4509                	li	a0,2
   1498e:	00a70a63          	beq	a4,a0,149a2 <_ZN20complex_dynamic_type3app17h72579b702194d565E+0xf0>
   14992:	6509                	lui	a0,0x2
   14994:	e5050513          	addi	a0,a0,-432 # 1e50 <.Lline_table_start1+0x1c25>
   14998:	459d                	li	a1,7
   1499a:	4601                	li	a2,0
   1499c:	4681                	li	a3,0
   1499e:	00000073          	ecall
   149a2:	50fa                	lw	ra,188(sp)
   149a4:	546a                	lw	s0,184(sp)
   149a6:	54da                	lw	s1,180(sp)
   149a8:	594a                	lw	s2,176(sp)
   149aa:	59ba                	lw	s3,172(sp)
   149ac:	5a2a                	lw	s4,168(sp)
   149ae:	5a9a                	lw	s5,164(sp)
   149b0:	6129                	addi	sp,sp,192
   149b2:	8082                	ret
   149b4:	00614703          	lbu	a4,6(sp)
   149b8:	00c71463          	bne	a4,a2,149c0 <_ZN20complex_dynamic_type3app17h72579b702194d565E+0x10e>
   149bc:	470d                	li	a4,3
   149be:	a825                	j	149f6 <_ZN20complex_dynamic_type3app17h72579b702194d565E+0x144>
   149c0:	6509                	lui	a0,0x2
   149c2:	e5050513          	addi	a0,a0,-432 # 1e50 <.Lline_table_start1+0x1c25>
   149c6:	459d                	li	a1,7
   149c8:	4601                	li	a2,0
   149ca:	4681                	li	a3,0
   149cc:	00000073          	ecall
   149d0:	04d14703          	lbu	a4,77(sp)
   149d4:	4509                	li	a0,2
   149d6:	00a10323          	sb	a0,6(sp)
   149da:	00a71e63          	bne	a4,a0,149f6 <_ZN20complex_dynamic_type3app17h72579b702194d565E+0x144>
   149de:	001a8513          	addi	a0,s5,1
   149e2:	05600613          	li	a2,86
   149e6:	85d2                	mv	a1,s4
   149e8:	0000a097          	auipc	ra,0xa
   149ec:	b2c080e7          	jalr	-1236(ra) # 1e514 <memcpy>
   149f0:	000a8023          	sb	zero,0(s5)
   149f4:	b77d                	j	149a2 <_ZN20complex_dynamic_type3app17h72579b702194d565E+0xf0>
   149f6:	6509                	lui	a0,0x2
   149f8:	e5050913          	addi	s2,a0,-432 # 1e50 <.Lline_table_start1+0x1c25>
   149fc:	458d                	li	a1,3
   149fe:	854a                	mv	a0,s2
   14a00:	4601                	li	a2,0
   14a02:	4681                	li	a3,0
   14a04:	00000073          	ecall
   14a08:	00614983          	lbu	s3,6(sp)
   14a0c:	001a8513          	addi	a0,s5,1
   14a10:	05600613          	li	a2,86
   14a14:	85d2                	mv	a1,s4
   14a16:	0000a097          	auipc	ra,0xa
   14a1a:	afe080e7          	jalr	-1282(ra) # 1e514 <memcpy>
   14a1e:	4509                	li	a0,2
   14a20:	000a8023          	sb	zero,0(s5)
   14a24:	f6a98fe3          	beq	s3,a0,149a2 <_ZN20complex_dynamic_type3app17h72579b702194d565E+0xf0>
   14a28:	459d                	li	a1,7
   14a2a:	854a                	mv	a0,s2
   14a2c:	4601                	li	a2,0
   14a2e:	4681                	li	a3,0
   14a30:	874e                	mv	a4,s3
   14a32:	00000073          	ecall
   14a36:	b7b5                	j	149a2 <_ZN20complex_dynamic_type3app17h72579b702194d565E+0xf0>

00014a38 <_ZN20complex_dynamic_type3app17h73ba81ca0cdfe7dfE>:
   14a38:	7119                	addi	sp,sp,-128
   14a3a:	de86                	sw	ra,124(sp)
   14a3c:	dca2                	sw	s0,120(sp)
   14a3e:	daa6                	sw	s1,116(sp)
   14a40:	d8ca                	sw	s2,112(sp)
   14a42:	d6ce                	sw	s3,108(sp)
   14a44:	d4d2                	sw	s4,104(sp)
   14a46:	d2d6                	sw	s5,100(sp)
   14a48:	8aaa                	mv	s5,a0
   14a4a:	4409                	li	s0,2
   14a4c:	00810023          	sb	s0,0(sp)
   14a50:	00110493          	addi	s1,sp,1
   14a54:	03b00613          	li	a2,59
   14a58:	8526                	mv	a0,s1
   14a5a:	0000a097          	auipc	ra,0xa
   14a5e:	aba080e7          	jalr	-1350(ra) # 1e514 <memcpy>
   14a62:	03d10a13          	addi	s4,sp,61
   14a66:	02700613          	li	a2,39
   14a6a:	8552                	mv	a0,s4
   14a6c:	4581                	li	a1,0
   14a6e:	0000a097          	auipc	ra,0xa
   14a72:	a3a080e7          	jalr	-1478(ra) # 1e4a8 <memset>
   14a76:	8626                	mv	a2,s1
   14a78:	02810e23          	sb	s0,60(sp)
   14a7c:	6505                	lui	a0,0x1
   14a7e:	4491                	li	s1,4
   14a80:	4595                	li	a1,5
   14a82:	bd350793          	addi	a5,a0,-1069 # bd3 <.Lline_table_start1+0x9a8>
   14a86:	03b00693          	li	a3,59
   14a8a:	4711                	li	a4,4
   14a8c:	853e                	mv	a0,a5
   14a8e:	00000073          	ecall
   14a92:	00851863          	bne	a0,s0,14aa2 <_ZN20complex_dynamic_type3app17h73ba81ca0cdfe7dfE+0x6a>
   14a96:	4505                	li	a0,1
   14a98:	00aa8023          	sb	a0,0(s5)
   14a9c:	00baa223          	sw	a1,4(s5)
   14aa0:	a0bd                	j	14b0e <_ZN20complex_dynamic_type3app17h73ba81ca0cdfe7dfE+0xd6>
   14aa2:	853e                	mv	a0,a5
   14aa4:	8652                	mv	a2,s4
   14aa6:	00910023          	sb	s1,0(sp)
   14aaa:	478d                	li	a5,3
   14aac:	458d                	li	a1,3
   14aae:	02700693          	li	a3,39
   14ab2:	470d                	li	a4,3
   14ab4:	00000073          	ecall
   14ab8:	00851d63          	bne	a0,s0,14ad2 <_ZN20complex_dynamic_type3app17h73ba81ca0cdfe7dfE+0x9a>
   14abc:	03c14703          	lbu	a4,60(sp)
   14ac0:	4505                	li	a0,1
   14ac2:	4609                	li	a2,2
   14ac4:	00aa8023          	sb	a0,0(s5)
   14ac8:	00baa223          	sw	a1,4(s5)
   14acc:	02c71963          	bne	a4,a2,14afe <_ZN20complex_dynamic_type3app17h73ba81ca0cdfe7dfE+0xc6>
   14ad0:	a83d                	j	14b0e <_ZN20complex_dynamic_type3app17h73ba81ca0cdfe7dfE+0xd6>
   14ad2:	4681                	li	a3,0
   14ad4:	02f10e23          	sb	a5,60(sp)
   14ad8:	6505                	lui	a0,0x1
   14ada:	4595                	li	a1,5
   14adc:	460d                	li	a2,3
   14ade:	4709                	li	a4,2
   14ae0:	bd350513          	addi	a0,a0,-1069 # bd3 <.Lline_table_start1+0x9a8>
   14ae4:	08000793          	li	a5,128
   14ae8:	00000073          	ecall
   14aec:	4609                	li	a2,2
   14aee:	04f57663          	bgeu	a0,a5,14b3a <_ZN20complex_dynamic_type3app17h73ba81ca0cdfe7dfE+0x102>
   14af2:	4505                	li	a0,1
   14af4:	00aa8023          	sb	a0,0(s5)
   14af8:	00baa223          	sw	a1,4(s5)
   14afc:	470d                	li	a4,3
   14afe:	6505                	lui	a0,0x1
   14b00:	bd350513          	addi	a0,a0,-1069 # bd3 <.Lline_table_start1+0x9a8>
   14b04:	458d                	li	a1,3
   14b06:	4601                	li	a2,0
   14b08:	4681                	li	a3,0
   14b0a:	00000073          	ecall
   14b0e:	00014703          	lbu	a4,0(sp)
   14b12:	4509                	li	a0,2
   14b14:	00a70a63          	beq	a4,a0,14b28 <_ZN20complex_dynamic_type3app17h73ba81ca0cdfe7dfE+0xf0>
   14b18:	6505                	lui	a0,0x1
   14b1a:	bd350513          	addi	a0,a0,-1069 # bd3 <.Lline_table_start1+0x9a8>
   14b1e:	4595                	li	a1,5
   14b20:	4601                	li	a2,0
   14b22:	4681                	li	a3,0
   14b24:	00000073          	ecall
   14b28:	50f6                	lw	ra,124(sp)
   14b2a:	5466                	lw	s0,120(sp)
   14b2c:	54d6                	lw	s1,116(sp)
   14b2e:	5946                	lw	s2,112(sp)
   14b30:	59b6                	lw	s3,108(sp)
   14b32:	5a26                	lw	s4,104(sp)
   14b34:	5a96                	lw	s5,100(sp)
   14b36:	6109                	addi	sp,sp,128
   14b38:	8082                	ret
   14b3a:	00014703          	lbu	a4,0(sp)
   14b3e:	00c71463          	bne	a4,a2,14b46 <_ZN20complex_dynamic_type3app17h73ba81ca0cdfe7dfE+0x10e>
   14b42:	470d                	li	a4,3
   14b44:	a825                	j	14b7c <_ZN20complex_dynamic_type3app17h73ba81ca0cdfe7dfE+0x144>
   14b46:	6505                	lui	a0,0x1
   14b48:	bd350513          	addi	a0,a0,-1069 # bd3 <.Lline_table_start1+0x9a8>
   14b4c:	4595                	li	a1,5
   14b4e:	4601                	li	a2,0
   14b50:	4681                	li	a3,0
   14b52:	00000073          	ecall
   14b56:	03c14703          	lbu	a4,60(sp)
   14b5a:	4509                	li	a0,2
   14b5c:	00a10023          	sb	a0,0(sp)
   14b60:	00a71e63          	bne	a4,a0,14b7c <_ZN20complex_dynamic_type3app17h73ba81ca0cdfe7dfE+0x144>
   14b64:	001a8513          	addi	a0,s5,1
   14b68:	02700613          	li	a2,39
   14b6c:	85d2                	mv	a1,s4
   14b6e:	0000a097          	auipc	ra,0xa
   14b72:	9a6080e7          	jalr	-1626(ra) # 1e514 <memcpy>
   14b76:	000a8023          	sb	zero,0(s5)
   14b7a:	b77d                	j	14b28 <_ZN20complex_dynamic_type3app17h73ba81ca0cdfe7dfE+0xf0>
   14b7c:	6505                	lui	a0,0x1
   14b7e:	bd350913          	addi	s2,a0,-1069 # bd3 <.Lline_table_start1+0x9a8>
   14b82:	458d                	li	a1,3
   14b84:	854a                	mv	a0,s2
   14b86:	4601                	li	a2,0
   14b88:	4681                	li	a3,0
   14b8a:	00000073          	ecall
   14b8e:	00014983          	lbu	s3,0(sp)
   14b92:	001a8513          	addi	a0,s5,1
   14b96:	02700613          	li	a2,39
   14b9a:	85d2                	mv	a1,s4
   14b9c:	0000a097          	auipc	ra,0xa
   14ba0:	978080e7          	jalr	-1672(ra) # 1e514 <memcpy>
   14ba4:	4509                	li	a0,2
   14ba6:	000a8023          	sb	zero,0(s5)
   14baa:	f6a98fe3          	beq	s3,a0,14b28 <_ZN20complex_dynamic_type3app17h73ba81ca0cdfe7dfE+0xf0>
   14bae:	4595                	li	a1,5
   14bb0:	854a                	mv	a0,s2
   14bb2:	4601                	li	a2,0
   14bb4:	4681                	li	a3,0
   14bb6:	874e                	mv	a4,s3
   14bb8:	00000073          	ecall
   14bbc:	b7b5                	j	14b28 <_ZN20complex_dynamic_type3app17h73ba81ca0cdfe7dfE+0xf0>

00014bbe <_ZN20complex_dynamic_type3app17h746a86a44182cee2E>:
   14bbe:	7135                	addi	sp,sp,-160
   14bc0:	cf06                	sw	ra,156(sp)
   14bc2:	cd22                	sw	s0,152(sp)
   14bc4:	cb26                	sw	s1,148(sp)
   14bc6:	c94a                	sw	s2,144(sp)
   14bc8:	c74e                	sw	s3,140(sp)
   14bca:	c552                	sw	s4,136(sp)
   14bcc:	c356                	sw	s5,132(sp)
   14bce:	8aaa                	mv	s5,a0
   14bd0:	4409                	li	s0,2
   14bd2:	008105a3          	sb	s0,11(sp)
   14bd6:	0064                	addi	s1,sp,12
   14bd8:	04a00613          	li	a2,74
   14bdc:	8526                	mv	a0,s1
   14bde:	0000a097          	auipc	ra,0xa
   14be2:	936080e7          	jalr	-1738(ra) # 1e514 <memcpy>
   14be6:	05710a13          	addi	s4,sp,87
   14bea:	02d00613          	li	a2,45
   14bee:	8552                	mv	a0,s4
   14bf0:	4581                	li	a1,0
   14bf2:	0000a097          	auipc	ra,0xa
   14bf6:	8b6080e7          	jalr	-1866(ra) # 1e4a8 <memset>
   14bfa:	8626                	mv	a2,s1
   14bfc:	04810b23          	sb	s0,86(sp)
   14c00:	6505                	lui	a0,0x1
   14c02:	4491                	li	s1,4
   14c04:	4589                	li	a1,2
   14c06:	e3d50793          	addi	a5,a0,-451 # e3d <.Lline_table_start1+0xc12>
   14c0a:	04a00693          	li	a3,74
   14c0e:	4711                	li	a4,4
   14c10:	853e                	mv	a0,a5
   14c12:	00000073          	ecall
   14c16:	00851863          	bne	a0,s0,14c26 <_ZN20complex_dynamic_type3app17h746a86a44182cee2E+0x68>
   14c1a:	4505                	li	a0,1
   14c1c:	00aa8023          	sb	a0,0(s5)
   14c20:	00baa223          	sw	a1,4(s5)
   14c24:	a0bd                	j	14c92 <_ZN20complex_dynamic_type3app17h746a86a44182cee2E+0xd4>
   14c26:	853e                	mv	a0,a5
   14c28:	8652                	mv	a2,s4
   14c2a:	009105a3          	sb	s1,11(sp)
   14c2e:	478d                	li	a5,3
   14c30:	458d                	li	a1,3
   14c32:	02d00693          	li	a3,45
   14c36:	470d                	li	a4,3
   14c38:	00000073          	ecall
   14c3c:	00851d63          	bne	a0,s0,14c56 <_ZN20complex_dynamic_type3app17h746a86a44182cee2E+0x98>
   14c40:	05614703          	lbu	a4,86(sp)
   14c44:	4505                	li	a0,1
   14c46:	4609                	li	a2,2
   14c48:	00aa8023          	sb	a0,0(s5)
   14c4c:	00baa223          	sw	a1,4(s5)
   14c50:	02c71963          	bne	a4,a2,14c82 <_ZN20complex_dynamic_type3app17h746a86a44182cee2E+0xc4>
   14c54:	a83d                	j	14c92 <_ZN20complex_dynamic_type3app17h746a86a44182cee2E+0xd4>
   14c56:	4681                	li	a3,0
   14c58:	04f10b23          	sb	a5,86(sp)
   14c5c:	6505                	lui	a0,0x1
   14c5e:	4589                	li	a1,2
   14c60:	460d                	li	a2,3
   14c62:	4709                	li	a4,2
   14c64:	e3d50513          	addi	a0,a0,-451 # e3d <.Lline_table_start1+0xc12>
   14c68:	08000793          	li	a5,128
   14c6c:	00000073          	ecall
   14c70:	4609                	li	a2,2
   14c72:	04f57663          	bgeu	a0,a5,14cbe <_ZN20complex_dynamic_type3app17h746a86a44182cee2E+0x100>
   14c76:	4505                	li	a0,1
   14c78:	00aa8023          	sb	a0,0(s5)
   14c7c:	00baa223          	sw	a1,4(s5)
   14c80:	470d                	li	a4,3
   14c82:	6505                	lui	a0,0x1
   14c84:	e3d50513          	addi	a0,a0,-451 # e3d <.Lline_table_start1+0xc12>
   14c88:	458d                	li	a1,3
   14c8a:	4601                	li	a2,0
   14c8c:	4681                	li	a3,0
   14c8e:	00000073          	ecall
   14c92:	00b14703          	lbu	a4,11(sp)
   14c96:	4509                	li	a0,2
   14c98:	00a70a63          	beq	a4,a0,14cac <_ZN20complex_dynamic_type3app17h746a86a44182cee2E+0xee>
   14c9c:	6505                	lui	a0,0x1
   14c9e:	e3d50513          	addi	a0,a0,-451 # e3d <.Lline_table_start1+0xc12>
   14ca2:	4589                	li	a1,2
   14ca4:	4601                	li	a2,0
   14ca6:	4681                	li	a3,0
   14ca8:	00000073          	ecall
   14cac:	40fa                	lw	ra,156(sp)
   14cae:	446a                	lw	s0,152(sp)
   14cb0:	44da                	lw	s1,148(sp)
   14cb2:	494a                	lw	s2,144(sp)
   14cb4:	49ba                	lw	s3,140(sp)
   14cb6:	4a2a                	lw	s4,136(sp)
   14cb8:	4a9a                	lw	s5,132(sp)
   14cba:	610d                	addi	sp,sp,160
   14cbc:	8082                	ret
   14cbe:	00b14703          	lbu	a4,11(sp)
   14cc2:	00c71463          	bne	a4,a2,14cca <_ZN20complex_dynamic_type3app17h746a86a44182cee2E+0x10c>
   14cc6:	470d                	li	a4,3
   14cc8:	a825                	j	14d00 <_ZN20complex_dynamic_type3app17h746a86a44182cee2E+0x142>
   14cca:	6505                	lui	a0,0x1
   14ccc:	e3d50513          	addi	a0,a0,-451 # e3d <.Lline_table_start1+0xc12>
   14cd0:	4589                	li	a1,2
   14cd2:	4601                	li	a2,0
   14cd4:	4681                	li	a3,0
   14cd6:	00000073          	ecall
   14cda:	05614703          	lbu	a4,86(sp)
   14cde:	4509                	li	a0,2
   14ce0:	00a105a3          	sb	a0,11(sp)
   14ce4:	00a71e63          	bne	a4,a0,14d00 <_ZN20complex_dynamic_type3app17h746a86a44182cee2E+0x142>
   14ce8:	001a8513          	addi	a0,s5,1
   14cec:	02d00613          	li	a2,45
   14cf0:	85d2                	mv	a1,s4
   14cf2:	0000a097          	auipc	ra,0xa
   14cf6:	822080e7          	jalr	-2014(ra) # 1e514 <memcpy>
   14cfa:	000a8023          	sb	zero,0(s5)
   14cfe:	b77d                	j	14cac <_ZN20complex_dynamic_type3app17h746a86a44182cee2E+0xee>
   14d00:	6505                	lui	a0,0x1
   14d02:	e3d50913          	addi	s2,a0,-451 # e3d <.Lline_table_start1+0xc12>
   14d06:	458d                	li	a1,3
   14d08:	854a                	mv	a0,s2
   14d0a:	4601                	li	a2,0
   14d0c:	4681                	li	a3,0
   14d0e:	00000073          	ecall
   14d12:	00b14983          	lbu	s3,11(sp)
   14d16:	001a8513          	addi	a0,s5,1
   14d1a:	02d00613          	li	a2,45
   14d1e:	85d2                	mv	a1,s4
   14d20:	00009097          	auipc	ra,0x9
   14d24:	7f4080e7          	jalr	2036(ra) # 1e514 <memcpy>
   14d28:	4509                	li	a0,2
   14d2a:	000a8023          	sb	zero,0(s5)
   14d2e:	f6a98fe3          	beq	s3,a0,14cac <_ZN20complex_dynamic_type3app17h746a86a44182cee2E+0xee>
   14d32:	4589                	li	a1,2
   14d34:	854a                	mv	a0,s2
   14d36:	4601                	li	a2,0
   14d38:	4681                	li	a3,0
   14d3a:	874e                	mv	a4,s3
   14d3c:	00000073          	ecall
   14d40:	b7b5                	j	14cac <_ZN20complex_dynamic_type3app17h746a86a44182cee2E+0xee>

00014d42 <_ZN20complex_dynamic_type3app17h74fcc2ff5036654bE>:
   14d42:	7171                	addi	sp,sp,-176
   14d44:	d706                	sw	ra,172(sp)
   14d46:	d522                	sw	s0,168(sp)
   14d48:	d326                	sw	s1,164(sp)
   14d4a:	d14a                	sw	s2,160(sp)
   14d4c:	cf4e                	sw	s3,156(sp)
   14d4e:	cd52                	sw	s4,152(sp)
   14d50:	cb56                	sw	s5,148(sp)
   14d52:	8aaa                	mv	s5,a0
   14d54:	4409                	li	s0,2
   14d56:	008104a3          	sb	s0,9(sp)
   14d5a:	00a10493          	addi	s1,sp,10
   14d5e:	04d00613          	li	a2,77
   14d62:	8526                	mv	a0,s1
   14d64:	00009097          	auipc	ra,0x9
   14d68:	7b0080e7          	jalr	1968(ra) # 1e514 <memcpy>
   14d6c:	05810a13          	addi	s4,sp,88
   14d70:	03c00613          	li	a2,60
   14d74:	8552                	mv	a0,s4
   14d76:	4581                	li	a1,0
   14d78:	00009097          	auipc	ra,0x9
   14d7c:	730080e7          	jalr	1840(ra) # 1e4a8 <memset>
   14d80:	8626                	mv	a2,s1
   14d82:	04810ba3          	sb	s0,87(sp)
   14d86:	6509                	lui	a0,0x2
   14d88:	4491                	li	s1,4
   14d8a:	4591                	li	a1,4
   14d8c:	1ab50793          	addi	a5,a0,427 # 21ab <.Lline_table_start1+0x1f80>
   14d90:	04d00693          	li	a3,77
   14d94:	4711                	li	a4,4
   14d96:	853e                	mv	a0,a5
   14d98:	00000073          	ecall
   14d9c:	00851863          	bne	a0,s0,14dac <_ZN20complex_dynamic_type3app17h74fcc2ff5036654bE+0x6a>
   14da0:	4505                	li	a0,1
   14da2:	00aa8023          	sb	a0,0(s5)
   14da6:	00baa223          	sw	a1,4(s5)
   14daa:	a0bd                	j	14e18 <_ZN20complex_dynamic_type3app17h74fcc2ff5036654bE+0xd6>
   14dac:	853e                	mv	a0,a5
   14dae:	8652                	mv	a2,s4
   14db0:	009104a3          	sb	s1,9(sp)
   14db4:	478d                	li	a5,3
   14db6:	45a5                	li	a1,9
   14db8:	03c00693          	li	a3,60
   14dbc:	470d                	li	a4,3
   14dbe:	00000073          	ecall
   14dc2:	00851d63          	bne	a0,s0,14ddc <_ZN20complex_dynamic_type3app17h74fcc2ff5036654bE+0x9a>
   14dc6:	05714703          	lbu	a4,87(sp)
   14dca:	4505                	li	a0,1
   14dcc:	4609                	li	a2,2
   14dce:	00aa8023          	sb	a0,0(s5)
   14dd2:	00baa223          	sw	a1,4(s5)
   14dd6:	02c71963          	bne	a4,a2,14e08 <_ZN20complex_dynamic_type3app17h74fcc2ff5036654bE+0xc6>
   14dda:	a83d                	j	14e18 <_ZN20complex_dynamic_type3app17h74fcc2ff5036654bE+0xd6>
   14ddc:	4681                	li	a3,0
   14dde:	04f10ba3          	sb	a5,87(sp)
   14de2:	6509                	lui	a0,0x2
   14de4:	4591                	li	a1,4
   14de6:	4625                	li	a2,9
   14de8:	4709                	li	a4,2
   14dea:	1ab50513          	addi	a0,a0,427 # 21ab <.Lline_table_start1+0x1f80>
   14dee:	08000793          	li	a5,128
   14df2:	00000073          	ecall
   14df6:	4609                	li	a2,2
   14df8:	04f57663          	bgeu	a0,a5,14e44 <_ZN20complex_dynamic_type3app17h74fcc2ff5036654bE+0x102>
   14dfc:	4505                	li	a0,1
   14dfe:	00aa8023          	sb	a0,0(s5)
   14e02:	00baa223          	sw	a1,4(s5)
   14e06:	470d                	li	a4,3
   14e08:	6509                	lui	a0,0x2
   14e0a:	1ab50513          	addi	a0,a0,427 # 21ab <.Lline_table_start1+0x1f80>
   14e0e:	45a5                	li	a1,9
   14e10:	4601                	li	a2,0
   14e12:	4681                	li	a3,0
   14e14:	00000073          	ecall
   14e18:	00914703          	lbu	a4,9(sp)
   14e1c:	4509                	li	a0,2
   14e1e:	00a70a63          	beq	a4,a0,14e32 <_ZN20complex_dynamic_type3app17h74fcc2ff5036654bE+0xf0>
   14e22:	6509                	lui	a0,0x2
   14e24:	1ab50513          	addi	a0,a0,427 # 21ab <.Lline_table_start1+0x1f80>
   14e28:	4591                	li	a1,4
   14e2a:	4601                	li	a2,0
   14e2c:	4681                	li	a3,0
   14e2e:	00000073          	ecall
   14e32:	50ba                	lw	ra,172(sp)
   14e34:	542a                	lw	s0,168(sp)
   14e36:	549a                	lw	s1,164(sp)
   14e38:	590a                	lw	s2,160(sp)
   14e3a:	49fa                	lw	s3,156(sp)
   14e3c:	4a6a                	lw	s4,152(sp)
   14e3e:	4ada                	lw	s5,148(sp)
   14e40:	614d                	addi	sp,sp,176
   14e42:	8082                	ret
   14e44:	00914703          	lbu	a4,9(sp)
   14e48:	00c71463          	bne	a4,a2,14e50 <_ZN20complex_dynamic_type3app17h74fcc2ff5036654bE+0x10e>
   14e4c:	470d                	li	a4,3
   14e4e:	a825                	j	14e86 <_ZN20complex_dynamic_type3app17h74fcc2ff5036654bE+0x144>
   14e50:	6509                	lui	a0,0x2
   14e52:	1ab50513          	addi	a0,a0,427 # 21ab <.Lline_table_start1+0x1f80>
   14e56:	4591                	li	a1,4
   14e58:	4601                	li	a2,0
   14e5a:	4681                	li	a3,0
   14e5c:	00000073          	ecall
   14e60:	05714703          	lbu	a4,87(sp)
   14e64:	4509                	li	a0,2
   14e66:	00a104a3          	sb	a0,9(sp)
   14e6a:	00a71e63          	bne	a4,a0,14e86 <_ZN20complex_dynamic_type3app17h74fcc2ff5036654bE+0x144>
   14e6e:	001a8513          	addi	a0,s5,1
   14e72:	03c00613          	li	a2,60
   14e76:	85d2                	mv	a1,s4
   14e78:	00009097          	auipc	ra,0x9
   14e7c:	69c080e7          	jalr	1692(ra) # 1e514 <memcpy>
   14e80:	000a8023          	sb	zero,0(s5)
   14e84:	b77d                	j	14e32 <_ZN20complex_dynamic_type3app17h74fcc2ff5036654bE+0xf0>
   14e86:	6509                	lui	a0,0x2
   14e88:	1ab50913          	addi	s2,a0,427 # 21ab <.Lline_table_start1+0x1f80>
   14e8c:	45a5                	li	a1,9
   14e8e:	854a                	mv	a0,s2
   14e90:	4601                	li	a2,0
   14e92:	4681                	li	a3,0
   14e94:	00000073          	ecall
   14e98:	00914983          	lbu	s3,9(sp)
   14e9c:	001a8513          	addi	a0,s5,1
   14ea0:	03c00613          	li	a2,60
   14ea4:	85d2                	mv	a1,s4
   14ea6:	00009097          	auipc	ra,0x9
   14eaa:	66e080e7          	jalr	1646(ra) # 1e514 <memcpy>
   14eae:	4509                	li	a0,2
   14eb0:	000a8023          	sb	zero,0(s5)
   14eb4:	f6a98fe3          	beq	s3,a0,14e32 <_ZN20complex_dynamic_type3app17h74fcc2ff5036654bE+0xf0>
   14eb8:	4591                	li	a1,4
   14eba:	854a                	mv	a0,s2
   14ebc:	4601                	li	a2,0
   14ebe:	4681                	li	a3,0
   14ec0:	874e                	mv	a4,s3
   14ec2:	00000073          	ecall
   14ec6:	b7b5                	j	14e32 <_ZN20complex_dynamic_type3app17h74fcc2ff5036654bE+0xf0>

00014ec8 <_ZN20complex_dynamic_type3app17h76c7a52f098ef126E>:
   14ec8:	711d                	addi	sp,sp,-96
   14eca:	ce86                	sw	ra,92(sp)
   14ecc:	cca2                	sw	s0,88(sp)
   14ece:	caa6                	sw	s1,84(sp)
   14ed0:	c8ca                	sw	s2,80(sp)
   14ed2:	c6ce                	sw	s3,76(sp)
   14ed4:	c4d2                	sw	s4,72(sp)
   14ed6:	c2d6                	sw	s5,68(sp)
   14ed8:	8aaa                	mv	s5,a0
   14eda:	4409                	li	s0,2
   14edc:	008106a3          	sb	s0,13(sp)
   14ee0:	00e10493          	addi	s1,sp,14
   14ee4:	4669                	li	a2,26
   14ee6:	8526                	mv	a0,s1
   14ee8:	00009097          	auipc	ra,0x9
   14eec:	62c080e7          	jalr	1580(ra) # 1e514 <memcpy>
   14ef0:	02910a13          	addi	s4,sp,41
   14ef4:	466d                	li	a2,27
   14ef6:	8552                	mv	a0,s4
   14ef8:	4581                	li	a1,0
   14efa:	00009097          	auipc	ra,0x9
   14efe:	5ae080e7          	jalr	1454(ra) # 1e4a8 <memset>
   14f02:	8626                	mv	a2,s1
   14f04:	02810423          	sb	s0,40(sp)
   14f08:	6509                	lui	a0,0x2
   14f0a:	4491                	li	s1,4
   14f0c:	4595                	li	a1,5
   14f0e:	cce50793          	addi	a5,a0,-818 # 1cce <.Lline_table_start1+0x1aa3>
   14f12:	46e9                	li	a3,26
   14f14:	4711                	li	a4,4
   14f16:	853e                	mv	a0,a5
   14f18:	00000073          	ecall
   14f1c:	00851863          	bne	a0,s0,14f2c <_ZN20complex_dynamic_type3app17h76c7a52f098ef126E+0x64>
   14f20:	4505                	li	a0,1
   14f22:	00aa8023          	sb	a0,0(s5)
   14f26:	00baa223          	sw	a1,4(s5)
   14f2a:	a0b5                	j	14f96 <_ZN20complex_dynamic_type3app17h76c7a52f098ef126E+0xce>
   14f2c:	853e                	mv	a0,a5
   14f2e:	8652                	mv	a2,s4
   14f30:	009106a3          	sb	s1,13(sp)
   14f34:	478d                	li	a5,3
   14f36:	4589                	li	a1,2
   14f38:	46ed                	li	a3,27
   14f3a:	470d                	li	a4,3
   14f3c:	00000073          	ecall
   14f40:	00851d63          	bne	a0,s0,14f5a <_ZN20complex_dynamic_type3app17h76c7a52f098ef126E+0x92>
   14f44:	02814703          	lbu	a4,40(sp)
   14f48:	4505                	li	a0,1
   14f4a:	4609                	li	a2,2
   14f4c:	00aa8023          	sb	a0,0(s5)
   14f50:	00baa223          	sw	a1,4(s5)
   14f54:	02c71963          	bne	a4,a2,14f86 <_ZN20complex_dynamic_type3app17h76c7a52f098ef126E+0xbe>
   14f58:	a83d                	j	14f96 <_ZN20complex_dynamic_type3app17h76c7a52f098ef126E+0xce>
   14f5a:	4681                	li	a3,0
   14f5c:	02f10423          	sb	a5,40(sp)
   14f60:	6509                	lui	a0,0x2
   14f62:	4595                	li	a1,5
   14f64:	4609                	li	a2,2
   14f66:	4709                	li	a4,2
   14f68:	cce50513          	addi	a0,a0,-818 # 1cce <.Lline_table_start1+0x1aa3>
   14f6c:	08000793          	li	a5,128
   14f70:	00000073          	ecall
   14f74:	4609                	li	a2,2
   14f76:	04f57663          	bgeu	a0,a5,14fc2 <_ZN20complex_dynamic_type3app17h76c7a52f098ef126E+0xfa>
   14f7a:	4505                	li	a0,1
   14f7c:	00aa8023          	sb	a0,0(s5)
   14f80:	00baa223          	sw	a1,4(s5)
   14f84:	470d                	li	a4,3
   14f86:	6509                	lui	a0,0x2
   14f88:	cce50513          	addi	a0,a0,-818 # 1cce <.Lline_table_start1+0x1aa3>
   14f8c:	4589                	li	a1,2
   14f8e:	4601                	li	a2,0
   14f90:	4681                	li	a3,0
   14f92:	00000073          	ecall
   14f96:	00d14703          	lbu	a4,13(sp)
   14f9a:	4509                	li	a0,2
   14f9c:	00a70a63          	beq	a4,a0,14fb0 <_ZN20complex_dynamic_type3app17h76c7a52f098ef126E+0xe8>
   14fa0:	6509                	lui	a0,0x2
   14fa2:	cce50513          	addi	a0,a0,-818 # 1cce <.Lline_table_start1+0x1aa3>
   14fa6:	4595                	li	a1,5
   14fa8:	4601                	li	a2,0
   14faa:	4681                	li	a3,0
   14fac:	00000073          	ecall
   14fb0:	40f6                	lw	ra,92(sp)
   14fb2:	4466                	lw	s0,88(sp)
   14fb4:	44d6                	lw	s1,84(sp)
   14fb6:	4946                	lw	s2,80(sp)
   14fb8:	49b6                	lw	s3,76(sp)
   14fba:	4a26                	lw	s4,72(sp)
   14fbc:	4a96                	lw	s5,68(sp)
   14fbe:	6125                	addi	sp,sp,96
   14fc0:	8082                	ret
   14fc2:	00d14703          	lbu	a4,13(sp)
   14fc6:	00c71463          	bne	a4,a2,14fce <_ZN20complex_dynamic_type3app17h76c7a52f098ef126E+0x106>
   14fca:	470d                	li	a4,3
   14fcc:	a81d                	j	15002 <_ZN20complex_dynamic_type3app17h76c7a52f098ef126E+0x13a>
   14fce:	6509                	lui	a0,0x2
   14fd0:	cce50513          	addi	a0,a0,-818 # 1cce <.Lline_table_start1+0x1aa3>
   14fd4:	4595                	li	a1,5
   14fd6:	4601                	li	a2,0
   14fd8:	4681                	li	a3,0
   14fda:	00000073          	ecall
   14fde:	02814703          	lbu	a4,40(sp)
   14fe2:	4509                	li	a0,2
   14fe4:	00a106a3          	sb	a0,13(sp)
   14fe8:	00a71d63          	bne	a4,a0,15002 <_ZN20complex_dynamic_type3app17h76c7a52f098ef126E+0x13a>
   14fec:	001a8513          	addi	a0,s5,1
   14ff0:	466d                	li	a2,27
   14ff2:	85d2                	mv	a1,s4
   14ff4:	00009097          	auipc	ra,0x9
   14ff8:	520080e7          	jalr	1312(ra) # 1e514 <memcpy>
   14ffc:	000a8023          	sb	zero,0(s5)
   15000:	bf45                	j	14fb0 <_ZN20complex_dynamic_type3app17h76c7a52f098ef126E+0xe8>
   15002:	4601                	li	a2,0
   15004:	4681                	li	a3,0
   15006:	6509                	lui	a0,0x2
   15008:	cce50913          	addi	s2,a0,-818 # 1cce <.Lline_table_start1+0x1aa3>
   1500c:	4589                	li	a1,2
   1500e:	854a                	mv	a0,s2
   15010:	00000073          	ecall
   15014:	00d14983          	lbu	s3,13(sp)
   15018:	4409                	li	s0,2
   1501a:	001a8513          	addi	a0,s5,1
   1501e:	466d                	li	a2,27
   15020:	85d2                	mv	a1,s4
   15022:	00009097          	auipc	ra,0x9
   15026:	4f2080e7          	jalr	1266(ra) # 1e514 <memcpy>
   1502a:	000a8023          	sb	zero,0(s5)
   1502e:	f88981e3          	beq	s3,s0,14fb0 <_ZN20complex_dynamic_type3app17h76c7a52f098ef126E+0xe8>
   15032:	4595                	li	a1,5
   15034:	854a                	mv	a0,s2
   15036:	4601                	li	a2,0
   15038:	4681                	li	a3,0
   1503a:	874e                	mv	a4,s3
   1503c:	00000073          	ecall
   15040:	bf85                	j	14fb0 <_ZN20complex_dynamic_type3app17h76c7a52f098ef126E+0xe8>

00015042 <_ZN20complex_dynamic_type3app17h796ec3374a9ffa13E>:
   15042:	7119                	addi	sp,sp,-128
   15044:	de86                	sw	ra,124(sp)
   15046:	dca2                	sw	s0,120(sp)
   15048:	daa6                	sw	s1,116(sp)
   1504a:	d8ca                	sw	s2,112(sp)
   1504c:	d6ce                	sw	s3,108(sp)
   1504e:	d4d2                	sw	s4,104(sp)
   15050:	d2d6                	sw	s5,100(sp)
   15052:	8aaa                	mv	s5,a0
   15054:	4409                	li	s0,2
   15056:	00810623          	sb	s0,12(sp)
   1505a:	00d10493          	addi	s1,sp,13
   1505e:	4649                	li	a2,18
   15060:	8526                	mv	a0,s1
   15062:	00009097          	auipc	ra,0x9
   15066:	4b2080e7          	jalr	1202(ra) # 1e514 <memcpy>
   1506a:	02010a13          	addi	s4,sp,32
   1506e:	04400613          	li	a2,68
   15072:	8552                	mv	a0,s4
   15074:	4581                	li	a1,0
   15076:	00009097          	auipc	ra,0x9
   1507a:	432080e7          	jalr	1074(ra) # 1e4a8 <memset>
   1507e:	8626                	mv	a2,s1
   15080:	00810fa3          	sb	s0,31(sp)
   15084:	6509                	lui	a0,0x2
   15086:	4491                	li	s1,4
   15088:	4589                	li	a1,2
   1508a:	43250793          	addi	a5,a0,1074 # 2432 <.Lline_table_start1+0x2207>
   1508e:	46c9                	li	a3,18
   15090:	4711                	li	a4,4
   15092:	853e                	mv	a0,a5
   15094:	00000073          	ecall
   15098:	00851863          	bne	a0,s0,150a8 <_ZN20complex_dynamic_type3app17h796ec3374a9ffa13E+0x66>
   1509c:	4505                	li	a0,1
   1509e:	00aa8023          	sb	a0,0(s5)
   150a2:	00baa223          	sw	a1,4(s5)
   150a6:	a0bd                	j	15114 <_ZN20complex_dynamic_type3app17h796ec3374a9ffa13E+0xd2>
   150a8:	853e                	mv	a0,a5
   150aa:	8652                	mv	a2,s4
   150ac:	00910623          	sb	s1,12(sp)
   150b0:	478d                	li	a5,3
   150b2:	45a5                	li	a1,9
   150b4:	04400693          	li	a3,68
   150b8:	470d                	li	a4,3
   150ba:	00000073          	ecall
   150be:	00851d63          	bne	a0,s0,150d8 <_ZN20complex_dynamic_type3app17h796ec3374a9ffa13E+0x96>
   150c2:	01f14703          	lbu	a4,31(sp)
   150c6:	4505                	li	a0,1
   150c8:	4609                	li	a2,2
   150ca:	00aa8023          	sb	a0,0(s5)
   150ce:	00baa223          	sw	a1,4(s5)
   150d2:	02c71963          	bne	a4,a2,15104 <_ZN20complex_dynamic_type3app17h796ec3374a9ffa13E+0xc2>
   150d6:	a83d                	j	15114 <_ZN20complex_dynamic_type3app17h796ec3374a9ffa13E+0xd2>
   150d8:	4681                	li	a3,0
   150da:	00f10fa3          	sb	a5,31(sp)
   150de:	6509                	lui	a0,0x2
   150e0:	4589                	li	a1,2
   150e2:	4625                	li	a2,9
   150e4:	4709                	li	a4,2
   150e6:	43250513          	addi	a0,a0,1074 # 2432 <.Lline_table_start1+0x2207>
   150ea:	08000793          	li	a5,128
   150ee:	00000073          	ecall
   150f2:	4609                	li	a2,2
   150f4:	04f57663          	bgeu	a0,a5,15140 <_ZN20complex_dynamic_type3app17h796ec3374a9ffa13E+0xfe>
   150f8:	4505                	li	a0,1
   150fa:	00aa8023          	sb	a0,0(s5)
   150fe:	00baa223          	sw	a1,4(s5)
   15102:	470d                	li	a4,3
   15104:	6509                	lui	a0,0x2
   15106:	43250513          	addi	a0,a0,1074 # 2432 <.Lline_table_start1+0x2207>
   1510a:	45a5                	li	a1,9
   1510c:	4601                	li	a2,0
   1510e:	4681                	li	a3,0
   15110:	00000073          	ecall
   15114:	00c14703          	lbu	a4,12(sp)
   15118:	4509                	li	a0,2
   1511a:	00a70a63          	beq	a4,a0,1512e <_ZN20complex_dynamic_type3app17h796ec3374a9ffa13E+0xec>
   1511e:	6509                	lui	a0,0x2
   15120:	43250513          	addi	a0,a0,1074 # 2432 <.Lline_table_start1+0x2207>
   15124:	4589                	li	a1,2
   15126:	4601                	li	a2,0
   15128:	4681                	li	a3,0
   1512a:	00000073          	ecall
   1512e:	50f6                	lw	ra,124(sp)
   15130:	5466                	lw	s0,120(sp)
   15132:	54d6                	lw	s1,116(sp)
   15134:	5946                	lw	s2,112(sp)
   15136:	59b6                	lw	s3,108(sp)
   15138:	5a26                	lw	s4,104(sp)
   1513a:	5a96                	lw	s5,100(sp)
   1513c:	6109                	addi	sp,sp,128
   1513e:	8082                	ret
   15140:	00c14703          	lbu	a4,12(sp)
   15144:	00c71463          	bne	a4,a2,1514c <_ZN20complex_dynamic_type3app17h796ec3374a9ffa13E+0x10a>
   15148:	470d                	li	a4,3
   1514a:	a825                	j	15182 <_ZN20complex_dynamic_type3app17h796ec3374a9ffa13E+0x140>
   1514c:	6509                	lui	a0,0x2
   1514e:	43250513          	addi	a0,a0,1074 # 2432 <.Lline_table_start1+0x2207>
   15152:	4589                	li	a1,2
   15154:	4601                	li	a2,0
   15156:	4681                	li	a3,0
   15158:	00000073          	ecall
   1515c:	01f14703          	lbu	a4,31(sp)
   15160:	4509                	li	a0,2
   15162:	00a10623          	sb	a0,12(sp)
   15166:	00a71e63          	bne	a4,a0,15182 <_ZN20complex_dynamic_type3app17h796ec3374a9ffa13E+0x140>
   1516a:	001a8513          	addi	a0,s5,1
   1516e:	04400613          	li	a2,68
   15172:	85d2                	mv	a1,s4
   15174:	00009097          	auipc	ra,0x9
   15178:	3a0080e7          	jalr	928(ra) # 1e514 <memcpy>
   1517c:	000a8023          	sb	zero,0(s5)
   15180:	b77d                	j	1512e <_ZN20complex_dynamic_type3app17h796ec3374a9ffa13E+0xec>
   15182:	6509                	lui	a0,0x2
   15184:	43250913          	addi	s2,a0,1074 # 2432 <.Lline_table_start1+0x2207>
   15188:	45a5                	li	a1,9
   1518a:	854a                	mv	a0,s2
   1518c:	4601                	li	a2,0
   1518e:	4681                	li	a3,0
   15190:	00000073          	ecall
   15194:	00c14983          	lbu	s3,12(sp)
   15198:	001a8513          	addi	a0,s5,1
   1519c:	04400613          	li	a2,68
   151a0:	85d2                	mv	a1,s4
   151a2:	00009097          	auipc	ra,0x9
   151a6:	372080e7          	jalr	882(ra) # 1e514 <memcpy>
   151aa:	4509                	li	a0,2
   151ac:	000a8023          	sb	zero,0(s5)
   151b0:	f6a98fe3          	beq	s3,a0,1512e <_ZN20complex_dynamic_type3app17h796ec3374a9ffa13E+0xec>
   151b4:	4589                	li	a1,2
   151b6:	854a                	mv	a0,s2
   151b8:	4601                	li	a2,0
   151ba:	4681                	li	a3,0
   151bc:	874e                	mv	a4,s3
   151be:	00000073          	ecall
   151c2:	b7b5                	j	1512e <_ZN20complex_dynamic_type3app17h796ec3374a9ffa13E+0xec>

000151c4 <_ZN20complex_dynamic_type3app17h7aeace5da031673fE>:
   151c4:	7155                	addi	sp,sp,-208
   151c6:	c786                	sw	ra,204(sp)
   151c8:	c5a2                	sw	s0,200(sp)
   151ca:	c3a6                	sw	s1,196(sp)
   151cc:	c1ca                	sw	s2,192(sp)
   151ce:	df4e                	sw	s3,188(sp)
   151d0:	dd52                	sw	s4,184(sp)
   151d2:	db56                	sw	s5,180(sp)
   151d4:	8aaa                	mv	s5,a0
   151d6:	4409                	li	s0,2
   151d8:	008107a3          	sb	s0,15(sp)
   151dc:	0804                	addi	s1,sp,16
   151de:	05900613          	li	a2,89
   151e2:	8526                	mv	a0,s1
   151e4:	00009097          	auipc	ra,0x9
   151e8:	330080e7          	jalr	816(ra) # 1e514 <memcpy>
   151ec:	06a10a13          	addi	s4,sp,106
   151f0:	04a00613          	li	a2,74
   151f4:	8552                	mv	a0,s4
   151f6:	4581                	li	a1,0
   151f8:	00009097          	auipc	ra,0x9
   151fc:	2b0080e7          	jalr	688(ra) # 1e4a8 <memset>
   15200:	4581                	li	a1,0
   15202:	8626                	mv	a2,s1
   15204:	068104a3          	sb	s0,105(sp)
   15208:	6505                	lui	a0,0x1
   1520a:	4491                	li	s1,4
   1520c:	48450793          	addi	a5,a0,1156 # 1484 <.Lline_table_start1+0x1259>
   15210:	05900693          	li	a3,89
   15214:	4711                	li	a4,4
   15216:	853e                	mv	a0,a5
   15218:	00000073          	ecall
   1521c:	00851863          	bne	a0,s0,1522c <_ZN20complex_dynamic_type3app17h7aeace5da031673fE+0x68>
   15220:	4505                	li	a0,1
   15222:	00aa8023          	sb	a0,0(s5)
   15226:	00baa223          	sw	a1,4(s5)
   1522a:	a0bd                	j	15298 <_ZN20complex_dynamic_type3app17h7aeace5da031673fE+0xd4>
   1522c:	853e                	mv	a0,a5
   1522e:	8652                	mv	a2,s4
   15230:	009107a3          	sb	s1,15(sp)
   15234:	478d                	li	a5,3
   15236:	4591                	li	a1,4
   15238:	04a00693          	li	a3,74
   1523c:	470d                	li	a4,3
   1523e:	00000073          	ecall
   15242:	00851d63          	bne	a0,s0,1525c <_ZN20complex_dynamic_type3app17h7aeace5da031673fE+0x98>
   15246:	06914703          	lbu	a4,105(sp)
   1524a:	4505                	li	a0,1
   1524c:	4609                	li	a2,2
   1524e:	00aa8023          	sb	a0,0(s5)
   15252:	00baa223          	sw	a1,4(s5)
   15256:	02c71963          	bne	a4,a2,15288 <_ZN20complex_dynamic_type3app17h7aeace5da031673fE+0xc4>
   1525a:	a83d                	j	15298 <_ZN20complex_dynamic_type3app17h7aeace5da031673fE+0xd4>
   1525c:	4581                	li	a1,0
   1525e:	4681                	li	a3,0
   15260:	06f104a3          	sb	a5,105(sp)
   15264:	6505                	lui	a0,0x1
   15266:	4611                	li	a2,4
   15268:	4709                	li	a4,2
   1526a:	48450513          	addi	a0,a0,1156 # 1484 <.Lline_table_start1+0x1259>
   1526e:	08000793          	li	a5,128
   15272:	00000073          	ecall
   15276:	4609                	li	a2,2
   15278:	04f57663          	bgeu	a0,a5,152c4 <_ZN20complex_dynamic_type3app17h7aeace5da031673fE+0x100>
   1527c:	4505                	li	a0,1
   1527e:	00aa8023          	sb	a0,0(s5)
   15282:	00baa223          	sw	a1,4(s5)
   15286:	470d                	li	a4,3
   15288:	6505                	lui	a0,0x1
   1528a:	48450513          	addi	a0,a0,1156 # 1484 <.Lline_table_start1+0x1259>
   1528e:	4591                	li	a1,4
   15290:	4601                	li	a2,0
   15292:	4681                	li	a3,0
   15294:	00000073          	ecall
   15298:	00f14703          	lbu	a4,15(sp)
   1529c:	4509                	li	a0,2
   1529e:	00a70a63          	beq	a4,a0,152b2 <_ZN20complex_dynamic_type3app17h7aeace5da031673fE+0xee>
   152a2:	6505                	lui	a0,0x1
   152a4:	48450513          	addi	a0,a0,1156 # 1484 <.Lline_table_start1+0x1259>
   152a8:	4581                	li	a1,0
   152aa:	4601                	li	a2,0
   152ac:	4681                	li	a3,0
   152ae:	00000073          	ecall
   152b2:	40be                	lw	ra,204(sp)
   152b4:	442e                	lw	s0,200(sp)
   152b6:	449e                	lw	s1,196(sp)
   152b8:	490e                	lw	s2,192(sp)
   152ba:	59fa                	lw	s3,188(sp)
   152bc:	5a6a                	lw	s4,184(sp)
   152be:	5ada                	lw	s5,180(sp)
   152c0:	6169                	addi	sp,sp,208
   152c2:	8082                	ret
   152c4:	00f14703          	lbu	a4,15(sp)
   152c8:	00c71463          	bne	a4,a2,152d0 <_ZN20complex_dynamic_type3app17h7aeace5da031673fE+0x10c>
   152cc:	470d                	li	a4,3
   152ce:	a825                	j	15306 <_ZN20complex_dynamic_type3app17h7aeace5da031673fE+0x142>
   152d0:	6505                	lui	a0,0x1
   152d2:	48450513          	addi	a0,a0,1156 # 1484 <.Lline_table_start1+0x1259>
   152d6:	4581                	li	a1,0
   152d8:	4601                	li	a2,0
   152da:	4681                	li	a3,0
   152dc:	00000073          	ecall
   152e0:	06914703          	lbu	a4,105(sp)
   152e4:	4509                	li	a0,2
   152e6:	00a107a3          	sb	a0,15(sp)
   152ea:	00a71e63          	bne	a4,a0,15306 <_ZN20complex_dynamic_type3app17h7aeace5da031673fE+0x142>
   152ee:	001a8513          	addi	a0,s5,1
   152f2:	04a00613          	li	a2,74
   152f6:	85d2                	mv	a1,s4
   152f8:	00009097          	auipc	ra,0x9
   152fc:	21c080e7          	jalr	540(ra) # 1e514 <memcpy>
   15300:	000a8023          	sb	zero,0(s5)
   15304:	b77d                	j	152b2 <_ZN20complex_dynamic_type3app17h7aeace5da031673fE+0xee>
   15306:	6505                	lui	a0,0x1
   15308:	48450913          	addi	s2,a0,1156 # 1484 <.Lline_table_start1+0x1259>
   1530c:	4591                	li	a1,4
   1530e:	854a                	mv	a0,s2
   15310:	4601                	li	a2,0
   15312:	4681                	li	a3,0
   15314:	00000073          	ecall
   15318:	00f14983          	lbu	s3,15(sp)
   1531c:	001a8513          	addi	a0,s5,1
   15320:	04a00613          	li	a2,74
   15324:	85d2                	mv	a1,s4
   15326:	00009097          	auipc	ra,0x9
   1532a:	1ee080e7          	jalr	494(ra) # 1e514 <memcpy>
   1532e:	4509                	li	a0,2
   15330:	000a8023          	sb	zero,0(s5)
   15334:	f6a98fe3          	beq	s3,a0,152b2 <_ZN20complex_dynamic_type3app17h7aeace5da031673fE+0xee>
   15338:	854a                	mv	a0,s2
   1533a:	4581                	li	a1,0
   1533c:	4601                	li	a2,0
   1533e:	4681                	li	a3,0
   15340:	874e                	mv	a4,s3
   15342:	00000073          	ecall
   15346:	b7b5                	j	152b2 <_ZN20complex_dynamic_type3app17h7aeace5da031673fE+0xee>

00015348 <_ZN20complex_dynamic_type3app17h7c0b0c30f5e843e4E>:
   15348:	711d                	addi	sp,sp,-96
   1534a:	ce86                	sw	ra,92(sp)
   1534c:	cca2                	sw	s0,88(sp)
   1534e:	caa6                	sw	s1,84(sp)
   15350:	c8ca                	sw	s2,80(sp)
   15352:	c6ce                	sw	s3,76(sp)
   15354:	c4d2                	sw	s4,72(sp)
   15356:	c2d6                	sw	s5,68(sp)
   15358:	8aaa                	mv	s5,a0
   1535a:	4409                	li	s0,2
   1535c:	008101a3          	sb	s0,3(sp)
   15360:	0044                	addi	s1,sp,4
   15362:	4651                	li	a2,20
   15364:	8526                	mv	a0,s1
   15366:	00009097          	auipc	ra,0x9
   1536a:	1ae080e7          	jalr	430(ra) # 1e514 <memcpy>
   1536e:	01910a13          	addi	s4,sp,25
   15372:	02b00613          	li	a2,43
   15376:	8552                	mv	a0,s4
   15378:	4581                	li	a1,0
   1537a:	00009097          	auipc	ra,0x9
   1537e:	12e080e7          	jalr	302(ra) # 1e4a8 <memset>
   15382:	8626                	mv	a2,s1
   15384:	00810c23          	sb	s0,24(sp)
   15388:	6509                	lui	a0,0x2
   1538a:	4491                	li	s1,4
   1538c:	45a1                	li	a1,8
   1538e:	39f50793          	addi	a5,a0,927 # 239f <.Lline_table_start1+0x2174>
   15392:	46d1                	li	a3,20
   15394:	4711                	li	a4,4
   15396:	853e                	mv	a0,a5
   15398:	00000073          	ecall
   1539c:	00851863          	bne	a0,s0,153ac <_ZN20complex_dynamic_type3app17h7c0b0c30f5e843e4E+0x64>
   153a0:	4505                	li	a0,1
   153a2:	00aa8023          	sb	a0,0(s5)
   153a6:	00baa223          	sw	a1,4(s5)
   153aa:	a0bd                	j	15418 <_ZN20complex_dynamic_type3app17h7c0b0c30f5e843e4E+0xd0>
   153ac:	853e                	mv	a0,a5
   153ae:	8652                	mv	a2,s4
   153b0:	009101a3          	sb	s1,3(sp)
   153b4:	478d                	li	a5,3
   153b6:	4591                	li	a1,4
   153b8:	02b00693          	li	a3,43
   153bc:	470d                	li	a4,3
   153be:	00000073          	ecall
   153c2:	00851d63          	bne	a0,s0,153dc <_ZN20complex_dynamic_type3app17h7c0b0c30f5e843e4E+0x94>
   153c6:	01814703          	lbu	a4,24(sp)
   153ca:	4505                	li	a0,1
   153cc:	4609                	li	a2,2
   153ce:	00aa8023          	sb	a0,0(s5)
   153d2:	00baa223          	sw	a1,4(s5)
   153d6:	02c71963          	bne	a4,a2,15408 <_ZN20complex_dynamic_type3app17h7c0b0c30f5e843e4E+0xc0>
   153da:	a83d                	j	15418 <_ZN20complex_dynamic_type3app17h7c0b0c30f5e843e4E+0xd0>
   153dc:	4681                	li	a3,0
   153de:	00f10c23          	sb	a5,24(sp)
   153e2:	6509                	lui	a0,0x2
   153e4:	45a1                	li	a1,8
   153e6:	4611                	li	a2,4
   153e8:	4709                	li	a4,2
   153ea:	39f50513          	addi	a0,a0,927 # 239f <.Lline_table_start1+0x2174>
   153ee:	08000793          	li	a5,128
   153f2:	00000073          	ecall
   153f6:	4609                	li	a2,2
   153f8:	04f57663          	bgeu	a0,a5,15444 <_ZN20complex_dynamic_type3app17h7c0b0c30f5e843e4E+0xfc>
   153fc:	4505                	li	a0,1
   153fe:	00aa8023          	sb	a0,0(s5)
   15402:	00baa223          	sw	a1,4(s5)
   15406:	470d                	li	a4,3
   15408:	6509                	lui	a0,0x2
   1540a:	39f50513          	addi	a0,a0,927 # 239f <.Lline_table_start1+0x2174>
   1540e:	4591                	li	a1,4
   15410:	4601                	li	a2,0
   15412:	4681                	li	a3,0
   15414:	00000073          	ecall
   15418:	00314703          	lbu	a4,3(sp)
   1541c:	4509                	li	a0,2
   1541e:	00a70a63          	beq	a4,a0,15432 <_ZN20complex_dynamic_type3app17h7c0b0c30f5e843e4E+0xea>
   15422:	6509                	lui	a0,0x2
   15424:	39f50513          	addi	a0,a0,927 # 239f <.Lline_table_start1+0x2174>
   15428:	45a1                	li	a1,8
   1542a:	4601                	li	a2,0
   1542c:	4681                	li	a3,0
   1542e:	00000073          	ecall
   15432:	40f6                	lw	ra,92(sp)
   15434:	4466                	lw	s0,88(sp)
   15436:	44d6                	lw	s1,84(sp)
   15438:	4946                	lw	s2,80(sp)
   1543a:	49b6                	lw	s3,76(sp)
   1543c:	4a26                	lw	s4,72(sp)
   1543e:	4a96                	lw	s5,68(sp)
   15440:	6125                	addi	sp,sp,96
   15442:	8082                	ret
   15444:	00314703          	lbu	a4,3(sp)
   15448:	00c71463          	bne	a4,a2,15450 <_ZN20complex_dynamic_type3app17h7c0b0c30f5e843e4E+0x108>
   1544c:	470d                	li	a4,3
   1544e:	a825                	j	15486 <_ZN20complex_dynamic_type3app17h7c0b0c30f5e843e4E+0x13e>
   15450:	6509                	lui	a0,0x2
   15452:	39f50513          	addi	a0,a0,927 # 239f <.Lline_table_start1+0x2174>
   15456:	45a1                	li	a1,8
   15458:	4601                	li	a2,0
   1545a:	4681                	li	a3,0
   1545c:	00000073          	ecall
   15460:	01814703          	lbu	a4,24(sp)
   15464:	4509                	li	a0,2
   15466:	00a101a3          	sb	a0,3(sp)
   1546a:	00a71e63          	bne	a4,a0,15486 <_ZN20complex_dynamic_type3app17h7c0b0c30f5e843e4E+0x13e>
   1546e:	001a8513          	addi	a0,s5,1
   15472:	02b00613          	li	a2,43
   15476:	85d2                	mv	a1,s4
   15478:	00009097          	auipc	ra,0x9
   1547c:	09c080e7          	jalr	156(ra) # 1e514 <memcpy>
   15480:	000a8023          	sb	zero,0(s5)
   15484:	b77d                	j	15432 <_ZN20complex_dynamic_type3app17h7c0b0c30f5e843e4E+0xea>
   15486:	6509                	lui	a0,0x2
   15488:	39f50913          	addi	s2,a0,927 # 239f <.Lline_table_start1+0x2174>
   1548c:	4591                	li	a1,4
   1548e:	854a                	mv	a0,s2
   15490:	4601                	li	a2,0
   15492:	4681                	li	a3,0
   15494:	00000073          	ecall
   15498:	00314983          	lbu	s3,3(sp)
   1549c:	001a8513          	addi	a0,s5,1
   154a0:	02b00613          	li	a2,43
   154a4:	85d2                	mv	a1,s4
   154a6:	00009097          	auipc	ra,0x9
   154aa:	06e080e7          	jalr	110(ra) # 1e514 <memcpy>
   154ae:	4509                	li	a0,2
   154b0:	000a8023          	sb	zero,0(s5)
   154b4:	f6a98fe3          	beq	s3,a0,15432 <_ZN20complex_dynamic_type3app17h7c0b0c30f5e843e4E+0xea>
   154b8:	45a1                	li	a1,8
   154ba:	854a                	mv	a0,s2
   154bc:	4601                	li	a2,0
   154be:	4681                	li	a3,0
   154c0:	874e                	mv	a4,s3
   154c2:	00000073          	ecall
   154c6:	b7b5                	j	15432 <_ZN20complex_dynamic_type3app17h7c0b0c30f5e843e4E+0xea>

000154c8 <_ZN20complex_dynamic_type3app17h7c4122dad4c48d4aE>:
   154c8:	7135                	addi	sp,sp,-160
   154ca:	cf06                	sw	ra,156(sp)
   154cc:	cd22                	sw	s0,152(sp)
   154ce:	cb26                	sw	s1,148(sp)
   154d0:	c94a                	sw	s2,144(sp)
   154d2:	c74e                	sw	s3,140(sp)
   154d4:	c552                	sw	s4,136(sp)
   154d6:	c356                	sw	s5,132(sp)
   154d8:	8aaa                	mv	s5,a0
   154da:	4409                	li	s0,2
   154dc:	00810723          	sb	s0,14(sp)
   154e0:	00f10493          	addi	s1,sp,15
   154e4:	02100613          	li	a2,33
   154e8:	8526                	mv	a0,s1
   154ea:	00009097          	auipc	ra,0x9
   154ee:	02a080e7          	jalr	42(ra) # 1e514 <memcpy>
   154f2:	03110a13          	addi	s4,sp,49
   154f6:	05300613          	li	a2,83
   154fa:	8552                	mv	a0,s4
   154fc:	4581                	li	a1,0
   154fe:	00009097          	auipc	ra,0x9
   15502:	faa080e7          	jalr	-86(ra) # 1e4a8 <memset>
   15506:	8626                	mv	a2,s1
   15508:	02810823          	sb	s0,48(sp)
   1550c:	6509                	lui	a0,0x2
   1550e:	4491                	li	s1,4
   15510:	4589                	li	a1,2
   15512:	53e50793          	addi	a5,a0,1342 # 253e <.Lline_table_start1+0x2313>
   15516:	02100693          	li	a3,33
   1551a:	4711                	li	a4,4
   1551c:	853e                	mv	a0,a5
   1551e:	00000073          	ecall
   15522:	00851863          	bne	a0,s0,15532 <_ZN20complex_dynamic_type3app17h7c4122dad4c48d4aE+0x6a>
   15526:	4505                	li	a0,1
   15528:	00aa8023          	sb	a0,0(s5)
   1552c:	00baa223          	sw	a1,4(s5)
   15530:	a0bd                	j	1559e <_ZN20complex_dynamic_type3app17h7c4122dad4c48d4aE+0xd6>
   15532:	853e                	mv	a0,a5
   15534:	8652                	mv	a2,s4
   15536:	00910723          	sb	s1,14(sp)
   1553a:	478d                	li	a5,3
   1553c:	45a1                	li	a1,8
   1553e:	05300693          	li	a3,83
   15542:	470d                	li	a4,3
   15544:	00000073          	ecall
   15548:	00851d63          	bne	a0,s0,15562 <_ZN20complex_dynamic_type3app17h7c4122dad4c48d4aE+0x9a>
   1554c:	03014703          	lbu	a4,48(sp)
   15550:	4505                	li	a0,1
   15552:	4609                	li	a2,2
   15554:	00aa8023          	sb	a0,0(s5)
   15558:	00baa223          	sw	a1,4(s5)
   1555c:	02c71963          	bne	a4,a2,1558e <_ZN20complex_dynamic_type3app17h7c4122dad4c48d4aE+0xc6>
   15560:	a83d                	j	1559e <_ZN20complex_dynamic_type3app17h7c4122dad4c48d4aE+0xd6>
   15562:	4681                	li	a3,0
   15564:	02f10823          	sb	a5,48(sp)
   15568:	6509                	lui	a0,0x2
   1556a:	4589                	li	a1,2
   1556c:	4621                	li	a2,8
   1556e:	4709                	li	a4,2
   15570:	53e50513          	addi	a0,a0,1342 # 253e <.Lline_table_start1+0x2313>
   15574:	08000793          	li	a5,128
   15578:	00000073          	ecall
   1557c:	4609                	li	a2,2
   1557e:	04f57663          	bgeu	a0,a5,155ca <_ZN20complex_dynamic_type3app17h7c4122dad4c48d4aE+0x102>
   15582:	4505                	li	a0,1
   15584:	00aa8023          	sb	a0,0(s5)
   15588:	00baa223          	sw	a1,4(s5)
   1558c:	470d                	li	a4,3
   1558e:	6509                	lui	a0,0x2
   15590:	53e50513          	addi	a0,a0,1342 # 253e <.Lline_table_start1+0x2313>
   15594:	45a1                	li	a1,8
   15596:	4601                	li	a2,0
   15598:	4681                	li	a3,0
   1559a:	00000073          	ecall
   1559e:	00e14703          	lbu	a4,14(sp)
   155a2:	4509                	li	a0,2
   155a4:	00a70a63          	beq	a4,a0,155b8 <_ZN20complex_dynamic_type3app17h7c4122dad4c48d4aE+0xf0>
   155a8:	6509                	lui	a0,0x2
   155aa:	53e50513          	addi	a0,a0,1342 # 253e <.Lline_table_start1+0x2313>
   155ae:	4589                	li	a1,2
   155b0:	4601                	li	a2,0
   155b2:	4681                	li	a3,0
   155b4:	00000073          	ecall
   155b8:	40fa                	lw	ra,156(sp)
   155ba:	446a                	lw	s0,152(sp)
   155bc:	44da                	lw	s1,148(sp)
   155be:	494a                	lw	s2,144(sp)
   155c0:	49ba                	lw	s3,140(sp)
   155c2:	4a2a                	lw	s4,136(sp)
   155c4:	4a9a                	lw	s5,132(sp)
   155c6:	610d                	addi	sp,sp,160
   155c8:	8082                	ret
   155ca:	00e14703          	lbu	a4,14(sp)
   155ce:	00c71463          	bne	a4,a2,155d6 <_ZN20complex_dynamic_type3app17h7c4122dad4c48d4aE+0x10e>
   155d2:	470d                	li	a4,3
   155d4:	a825                	j	1560c <_ZN20complex_dynamic_type3app17h7c4122dad4c48d4aE+0x144>
   155d6:	6509                	lui	a0,0x2
   155d8:	53e50513          	addi	a0,a0,1342 # 253e <.Lline_table_start1+0x2313>
   155dc:	4589                	li	a1,2
   155de:	4601                	li	a2,0
   155e0:	4681                	li	a3,0
   155e2:	00000073          	ecall
   155e6:	03014703          	lbu	a4,48(sp)
   155ea:	4509                	li	a0,2
   155ec:	00a10723          	sb	a0,14(sp)
   155f0:	00a71e63          	bne	a4,a0,1560c <_ZN20complex_dynamic_type3app17h7c4122dad4c48d4aE+0x144>
   155f4:	001a8513          	addi	a0,s5,1
   155f8:	05300613          	li	a2,83
   155fc:	85d2                	mv	a1,s4
   155fe:	00009097          	auipc	ra,0x9
   15602:	f16080e7          	jalr	-234(ra) # 1e514 <memcpy>
   15606:	000a8023          	sb	zero,0(s5)
   1560a:	b77d                	j	155b8 <_ZN20complex_dynamic_type3app17h7c4122dad4c48d4aE+0xf0>
   1560c:	6509                	lui	a0,0x2
   1560e:	53e50913          	addi	s2,a0,1342 # 253e <.Lline_table_start1+0x2313>
   15612:	45a1                	li	a1,8
   15614:	854a                	mv	a0,s2
   15616:	4601                	li	a2,0
   15618:	4681                	li	a3,0
   1561a:	00000073          	ecall
   1561e:	00e14983          	lbu	s3,14(sp)
   15622:	001a8513          	addi	a0,s5,1
   15626:	05300613          	li	a2,83
   1562a:	85d2                	mv	a1,s4
   1562c:	00009097          	auipc	ra,0x9
   15630:	ee8080e7          	jalr	-280(ra) # 1e514 <memcpy>
   15634:	4509                	li	a0,2
   15636:	000a8023          	sb	zero,0(s5)
   1563a:	f6a98fe3          	beq	s3,a0,155b8 <_ZN20complex_dynamic_type3app17h7c4122dad4c48d4aE+0xf0>
   1563e:	4589                	li	a1,2
   15640:	854a                	mv	a0,s2
   15642:	4601                	li	a2,0
   15644:	4681                	li	a3,0
   15646:	874e                	mv	a4,s3
   15648:	00000073          	ecall
   1564c:	b7b5                	j	155b8 <_ZN20complex_dynamic_type3app17h7c4122dad4c48d4aE+0xf0>

0001564e <_ZN20complex_dynamic_type3app17h7cc1a939bb236b55E>:
   1564e:	711d                	addi	sp,sp,-96
   15650:	ce86                	sw	ra,92(sp)
   15652:	cca2                	sw	s0,88(sp)
   15654:	caa6                	sw	s1,84(sp)
   15656:	c8ca                	sw	s2,80(sp)
   15658:	c6ce                	sw	s3,76(sp)
   1565a:	c4d2                	sw	s4,72(sp)
   1565c:	c2d6                	sw	s5,68(sp)
   1565e:	8aaa                	mv	s5,a0
   15660:	4409                	li	s0,2
   15662:	00810023          	sb	s0,0(sp)
   15666:	00110493          	addi	s1,sp,1
   1566a:	03200613          	li	a2,50
   1566e:	8526                	mv	a0,s1
   15670:	00009097          	auipc	ra,0x9
   15674:	ea4080e7          	jalr	-348(ra) # 1e514 <memcpy>
   15678:	03410a13          	addi	s4,sp,52
   1567c:	4641                	li	a2,16
   1567e:	8552                	mv	a0,s4
   15680:	4581                	li	a1,0
   15682:	00009097          	auipc	ra,0x9
   15686:	e26080e7          	jalr	-474(ra) # 1e4a8 <memset>
   1568a:	8626                	mv	a2,s1
   1568c:	028109a3          	sb	s0,51(sp)
   15690:	6509                	lui	a0,0x2
   15692:	4491                	li	s1,4
   15694:	4591                	li	a1,4
   15696:	9d650793          	addi	a5,a0,-1578 # 19d6 <.Lline_table_start1+0x17ab>
   1569a:	03200693          	li	a3,50
   1569e:	4711                	li	a4,4
   156a0:	853e                	mv	a0,a5
   156a2:	00000073          	ecall
   156a6:	00851863          	bne	a0,s0,156b6 <_ZN20complex_dynamic_type3app17h7cc1a939bb236b55E+0x68>
   156aa:	4505                	li	a0,1
   156ac:	00aa8023          	sb	a0,0(s5)
   156b0:	00baa223          	sw	a1,4(s5)
   156b4:	a0b5                	j	15720 <_ZN20complex_dynamic_type3app17h7cc1a939bb236b55E+0xd2>
   156b6:	853e                	mv	a0,a5
   156b8:	8652                	mv	a2,s4
   156ba:	00910023          	sb	s1,0(sp)
   156be:	478d                	li	a5,3
   156c0:	45a5                	li	a1,9
   156c2:	46c1                	li	a3,16
   156c4:	470d                	li	a4,3
   156c6:	00000073          	ecall
   156ca:	00851d63          	bne	a0,s0,156e4 <_ZN20complex_dynamic_type3app17h7cc1a939bb236b55E+0x96>
   156ce:	03314703          	lbu	a4,51(sp)
   156d2:	4505                	li	a0,1
   156d4:	4609                	li	a2,2
   156d6:	00aa8023          	sb	a0,0(s5)
   156da:	00baa223          	sw	a1,4(s5)
   156de:	02c71963          	bne	a4,a2,15710 <_ZN20complex_dynamic_type3app17h7cc1a939bb236b55E+0xc2>
   156e2:	a83d                	j	15720 <_ZN20complex_dynamic_type3app17h7cc1a939bb236b55E+0xd2>
   156e4:	4681                	li	a3,0
   156e6:	02f109a3          	sb	a5,51(sp)
   156ea:	6509                	lui	a0,0x2
   156ec:	4591                	li	a1,4
   156ee:	4625                	li	a2,9
   156f0:	4709                	li	a4,2
   156f2:	9d650513          	addi	a0,a0,-1578 # 19d6 <.Lline_table_start1+0x17ab>
   156f6:	08000793          	li	a5,128
   156fa:	00000073          	ecall
   156fe:	4609                	li	a2,2
   15700:	04f57663          	bgeu	a0,a5,1574c <_ZN20complex_dynamic_type3app17h7cc1a939bb236b55E+0xfe>
   15704:	4505                	li	a0,1
   15706:	00aa8023          	sb	a0,0(s5)
   1570a:	00baa223          	sw	a1,4(s5)
   1570e:	470d                	li	a4,3
   15710:	6509                	lui	a0,0x2
   15712:	9d650513          	addi	a0,a0,-1578 # 19d6 <.Lline_table_start1+0x17ab>
   15716:	45a5                	li	a1,9
   15718:	4601                	li	a2,0
   1571a:	4681                	li	a3,0
   1571c:	00000073          	ecall
   15720:	00014703          	lbu	a4,0(sp)
   15724:	4509                	li	a0,2
   15726:	00a70a63          	beq	a4,a0,1573a <_ZN20complex_dynamic_type3app17h7cc1a939bb236b55E+0xec>
   1572a:	6509                	lui	a0,0x2
   1572c:	9d650513          	addi	a0,a0,-1578 # 19d6 <.Lline_table_start1+0x17ab>
   15730:	4591                	li	a1,4
   15732:	4601                	li	a2,0
   15734:	4681                	li	a3,0
   15736:	00000073          	ecall
   1573a:	40f6                	lw	ra,92(sp)
   1573c:	4466                	lw	s0,88(sp)
   1573e:	44d6                	lw	s1,84(sp)
   15740:	4946                	lw	s2,80(sp)
   15742:	49b6                	lw	s3,76(sp)
   15744:	4a26                	lw	s4,72(sp)
   15746:	4a96                	lw	s5,68(sp)
   15748:	6125                	addi	sp,sp,96
   1574a:	8082                	ret
   1574c:	00014703          	lbu	a4,0(sp)
   15750:	00c71463          	bne	a4,a2,15758 <_ZN20complex_dynamic_type3app17h7cc1a939bb236b55E+0x10a>
   15754:	470d                	li	a4,3
   15756:	a81d                	j	1578c <_ZN20complex_dynamic_type3app17h7cc1a939bb236b55E+0x13e>
   15758:	6509                	lui	a0,0x2
   1575a:	9d650513          	addi	a0,a0,-1578 # 19d6 <.Lline_table_start1+0x17ab>
   1575e:	4591                	li	a1,4
   15760:	4601                	li	a2,0
   15762:	4681                	li	a3,0
   15764:	00000073          	ecall
   15768:	03314703          	lbu	a4,51(sp)
   1576c:	4509                	li	a0,2
   1576e:	00a10023          	sb	a0,0(sp)
   15772:	00a71d63          	bne	a4,a0,1578c <_ZN20complex_dynamic_type3app17h7cc1a939bb236b55E+0x13e>
   15776:	001a8513          	addi	a0,s5,1
   1577a:	4641                	li	a2,16
   1577c:	85d2                	mv	a1,s4
   1577e:	00009097          	auipc	ra,0x9
   15782:	d96080e7          	jalr	-618(ra) # 1e514 <memcpy>
   15786:	000a8023          	sb	zero,0(s5)
   1578a:	bf45                	j	1573a <_ZN20complex_dynamic_type3app17h7cc1a939bb236b55E+0xec>
   1578c:	6509                	lui	a0,0x2
   1578e:	9d650913          	addi	s2,a0,-1578 # 19d6 <.Lline_table_start1+0x17ab>
   15792:	45a5                	li	a1,9
   15794:	854a                	mv	a0,s2
   15796:	4601                	li	a2,0
   15798:	4681                	li	a3,0
   1579a:	00000073          	ecall
   1579e:	00014983          	lbu	s3,0(sp)
   157a2:	001a8513          	addi	a0,s5,1
   157a6:	4641                	li	a2,16
   157a8:	85d2                	mv	a1,s4
   157aa:	00009097          	auipc	ra,0x9
   157ae:	d6a080e7          	jalr	-662(ra) # 1e514 <memcpy>
   157b2:	4509                	li	a0,2
   157b4:	000a8023          	sb	zero,0(s5)
   157b8:	f8a981e3          	beq	s3,a0,1573a <_ZN20complex_dynamic_type3app17h7cc1a939bb236b55E+0xec>
   157bc:	4591                	li	a1,4
   157be:	854a                	mv	a0,s2
   157c0:	4601                	li	a2,0
   157c2:	4681                	li	a3,0
   157c4:	874e                	mv	a4,s3
   157c6:	00000073          	ecall
   157ca:	bf85                	j	1573a <_ZN20complex_dynamic_type3app17h7cc1a939bb236b55E+0xec>

000157cc <_ZN20complex_dynamic_type3app17h7d84bf76a2820e8fE>:
   157cc:	7119                	addi	sp,sp,-128
   157ce:	de86                	sw	ra,124(sp)
   157d0:	dca2                	sw	s0,120(sp)
   157d2:	daa6                	sw	s1,116(sp)
   157d4:	d8ca                	sw	s2,112(sp)
   157d6:	d6ce                	sw	s3,108(sp)
   157d8:	d4d2                	sw	s4,104(sp)
   157da:	d2d6                	sw	s5,100(sp)
   157dc:	8aaa                	mv	s5,a0
   157de:	4409                	li	s0,2
   157e0:	008107a3          	sb	s0,15(sp)
   157e4:	0804                	addi	s1,sp,16
   157e6:	02c00613          	li	a2,44
   157ea:	8526                	mv	a0,s1
   157ec:	00009097          	auipc	ra,0x9
   157f0:	d28080e7          	jalr	-728(ra) # 1e514 <memcpy>
   157f4:	03d10a13          	addi	s4,sp,61
   157f8:	02700613          	li	a2,39
   157fc:	8552                	mv	a0,s4
   157fe:	4581                	li	a1,0
   15800:	00009097          	auipc	ra,0x9
   15804:	ca8080e7          	jalr	-856(ra) # 1e4a8 <memset>
   15808:	8626                	mv	a2,s1
   1580a:	02810e23          	sb	s0,60(sp)
   1580e:	6505                	lui	a0,0x1
   15810:	4491                	li	s1,4
   15812:	4591                	li	a1,4
   15814:	1b550793          	addi	a5,a0,437 # 11b5 <.Lline_table_start1+0xf8a>
   15818:	02c00693          	li	a3,44
   1581c:	4711                	li	a4,4
   1581e:	853e                	mv	a0,a5
   15820:	00000073          	ecall
   15824:	00851863          	bne	a0,s0,15834 <_ZN20complex_dynamic_type3app17h7d84bf76a2820e8fE+0x68>
   15828:	4505                	li	a0,1
   1582a:	00aa8023          	sb	a0,0(s5)
   1582e:	00baa223          	sw	a1,4(s5)
   15832:	a0bd                	j	158a0 <_ZN20complex_dynamic_type3app17h7d84bf76a2820e8fE+0xd4>
   15834:	853e                	mv	a0,a5
   15836:	8652                	mv	a2,s4
   15838:	009107a3          	sb	s1,15(sp)
   1583c:	478d                	li	a5,3
   1583e:	458d                	li	a1,3
   15840:	02700693          	li	a3,39
   15844:	470d                	li	a4,3
   15846:	00000073          	ecall
   1584a:	00851d63          	bne	a0,s0,15864 <_ZN20complex_dynamic_type3app17h7d84bf76a2820e8fE+0x98>
   1584e:	03c14703          	lbu	a4,60(sp)
   15852:	4505                	li	a0,1
   15854:	4609                	li	a2,2
   15856:	00aa8023          	sb	a0,0(s5)
   1585a:	00baa223          	sw	a1,4(s5)
   1585e:	02c71963          	bne	a4,a2,15890 <_ZN20complex_dynamic_type3app17h7d84bf76a2820e8fE+0xc4>
   15862:	a83d                	j	158a0 <_ZN20complex_dynamic_type3app17h7d84bf76a2820e8fE+0xd4>
   15864:	4681                	li	a3,0
   15866:	02f10e23          	sb	a5,60(sp)
   1586a:	6505                	lui	a0,0x1
   1586c:	4591                	li	a1,4
   1586e:	460d                	li	a2,3
   15870:	4709                	li	a4,2
   15872:	1b550513          	addi	a0,a0,437 # 11b5 <.Lline_table_start1+0xf8a>
   15876:	08000793          	li	a5,128
   1587a:	00000073          	ecall
   1587e:	4609                	li	a2,2
   15880:	04f57663          	bgeu	a0,a5,158cc <_ZN20complex_dynamic_type3app17h7d84bf76a2820e8fE+0x100>
   15884:	4505                	li	a0,1
   15886:	00aa8023          	sb	a0,0(s5)
   1588a:	00baa223          	sw	a1,4(s5)
   1588e:	470d                	li	a4,3
   15890:	6505                	lui	a0,0x1
   15892:	1b550513          	addi	a0,a0,437 # 11b5 <.Lline_table_start1+0xf8a>
   15896:	458d                	li	a1,3
   15898:	4601                	li	a2,0
   1589a:	4681                	li	a3,0
   1589c:	00000073          	ecall
   158a0:	00f14703          	lbu	a4,15(sp)
   158a4:	4509                	li	a0,2
   158a6:	00a70a63          	beq	a4,a0,158ba <_ZN20complex_dynamic_type3app17h7d84bf76a2820e8fE+0xee>
   158aa:	6505                	lui	a0,0x1
   158ac:	1b550513          	addi	a0,a0,437 # 11b5 <.Lline_table_start1+0xf8a>
   158b0:	4591                	li	a1,4
   158b2:	4601                	li	a2,0
   158b4:	4681                	li	a3,0
   158b6:	00000073          	ecall
   158ba:	50f6                	lw	ra,124(sp)
   158bc:	5466                	lw	s0,120(sp)
   158be:	54d6                	lw	s1,116(sp)
   158c0:	5946                	lw	s2,112(sp)
   158c2:	59b6                	lw	s3,108(sp)
   158c4:	5a26                	lw	s4,104(sp)
   158c6:	5a96                	lw	s5,100(sp)
   158c8:	6109                	addi	sp,sp,128
   158ca:	8082                	ret
   158cc:	00f14703          	lbu	a4,15(sp)
   158d0:	00c71463          	bne	a4,a2,158d8 <_ZN20complex_dynamic_type3app17h7d84bf76a2820e8fE+0x10c>
   158d4:	470d                	li	a4,3
   158d6:	a825                	j	1590e <_ZN20complex_dynamic_type3app17h7d84bf76a2820e8fE+0x142>
   158d8:	6505                	lui	a0,0x1
   158da:	1b550513          	addi	a0,a0,437 # 11b5 <.Lline_table_start1+0xf8a>
   158de:	4591                	li	a1,4
   158e0:	4601                	li	a2,0
   158e2:	4681                	li	a3,0
   158e4:	00000073          	ecall
   158e8:	03c14703          	lbu	a4,60(sp)
   158ec:	4509                	li	a0,2
   158ee:	00a107a3          	sb	a0,15(sp)
   158f2:	00a71e63          	bne	a4,a0,1590e <_ZN20complex_dynamic_type3app17h7d84bf76a2820e8fE+0x142>
   158f6:	001a8513          	addi	a0,s5,1
   158fa:	02700613          	li	a2,39
   158fe:	85d2                	mv	a1,s4
   15900:	00009097          	auipc	ra,0x9
   15904:	c14080e7          	jalr	-1004(ra) # 1e514 <memcpy>
   15908:	000a8023          	sb	zero,0(s5)
   1590c:	b77d                	j	158ba <_ZN20complex_dynamic_type3app17h7d84bf76a2820e8fE+0xee>
   1590e:	6505                	lui	a0,0x1
   15910:	1b550913          	addi	s2,a0,437 # 11b5 <.Lline_table_start1+0xf8a>
   15914:	458d                	li	a1,3
   15916:	854a                	mv	a0,s2
   15918:	4601                	li	a2,0
   1591a:	4681                	li	a3,0
   1591c:	00000073          	ecall
   15920:	00f14983          	lbu	s3,15(sp)
   15924:	001a8513          	addi	a0,s5,1
   15928:	02700613          	li	a2,39
   1592c:	85d2                	mv	a1,s4
   1592e:	00009097          	auipc	ra,0x9
   15932:	be6080e7          	jalr	-1050(ra) # 1e514 <memcpy>
   15936:	4509                	li	a0,2
   15938:	000a8023          	sb	zero,0(s5)
   1593c:	f6a98fe3          	beq	s3,a0,158ba <_ZN20complex_dynamic_type3app17h7d84bf76a2820e8fE+0xee>
   15940:	4591                	li	a1,4
   15942:	854a                	mv	a0,s2
   15944:	4601                	li	a2,0
   15946:	4681                	li	a3,0
   15948:	874e                	mv	a4,s3
   1594a:	00000073          	ecall
   1594e:	b7b5                	j	158ba <_ZN20complex_dynamic_type3app17h7d84bf76a2820e8fE+0xee>

00015950 <_ZN20complex_dynamic_type3app17h881da36e0040e62eE>:
   15950:	7119                	addi	sp,sp,-128
   15952:	de86                	sw	ra,124(sp)
   15954:	dca2                	sw	s0,120(sp)
   15956:	daa6                	sw	s1,116(sp)
   15958:	d8ca                	sw	s2,112(sp)
   1595a:	d6ce                	sw	s3,108(sp)
   1595c:	d4d2                	sw	s4,104(sp)
   1595e:	8a2a                	mv	s4,a0
   15960:	4409                	li	s0,2
   15962:	00810223          	sb	s0,4(sp)
   15966:	00510493          	addi	s1,sp,5
   1596a:	03400613          	li	a2,52
   1596e:	8526                	mv	a0,s1
   15970:	00009097          	auipc	ra,0x9
   15974:	ba4080e7          	jalr	-1116(ra) # 1e514 <memcpy>
   15978:	03a10993          	addi	s3,sp,58
   1597c:	02e00613          	li	a2,46
   15980:	854e                	mv	a0,s3
   15982:	4581                	li	a1,0
   15984:	00009097          	auipc	ra,0x9
   15988:	b24080e7          	jalr	-1244(ra) # 1e4a8 <memset>
   1598c:	8626                	mv	a2,s1
   1598e:	02810ca3          	sb	s0,57(sp)
   15992:	4791                	li	a5,4
   15994:	20900513          	li	a0,521
   15998:	4589                	li	a1,2
   1599a:	03400693          	li	a3,52
   1599e:	4711                	li	a4,4
   159a0:	00000073          	ecall
   159a4:	00851863          	bne	a0,s0,159b4 <_ZN20complex_dynamic_type3app17h881da36e0040e62eE+0x64>
   159a8:	4505                	li	a0,1
   159aa:	00aa0023          	sb	a0,0(s4)
   159ae:	00ba2223          	sw	a1,4(s4)
   159b2:	a0b5                	j	15a1e <_ZN20complex_dynamic_type3app17h881da36e0040e62eE+0xce>
   159b4:	864e                	mv	a2,s3
   159b6:	00f10223          	sb	a5,4(sp)
   159ba:	478d                	li	a5,3
   159bc:	20900513          	li	a0,521
   159c0:	45a1                	li	a1,8
   159c2:	02e00693          	li	a3,46
   159c6:	470d                	li	a4,3
   159c8:	00000073          	ecall
   159cc:	00851d63          	bne	a0,s0,159e6 <_ZN20complex_dynamic_type3app17h881da36e0040e62eE+0x96>
   159d0:	03914703          	lbu	a4,57(sp)
   159d4:	4505                	li	a0,1
   159d6:	4609                	li	a2,2
   159d8:	00aa0023          	sb	a0,0(s4)
   159dc:	00ba2223          	sw	a1,4(s4)
   159e0:	02c71863          	bne	a4,a2,15a10 <_ZN20complex_dynamic_type3app17h881da36e0040e62eE+0xc0>
   159e4:	a82d                	j	15a1e <_ZN20complex_dynamic_type3app17h881da36e0040e62eE+0xce>
   159e6:	4681                	li	a3,0
   159e8:	02f10ca3          	sb	a5,57(sp)
   159ec:	20900513          	li	a0,521
   159f0:	4589                	li	a1,2
   159f2:	4621                	li	a2,8
   159f4:	4709                	li	a4,2
   159f6:	08000793          	li	a5,128
   159fa:	00000073          	ecall
   159fe:	4609                	li	a2,2
   15a00:	04f57363          	bgeu	a0,a5,15a46 <_ZN20complex_dynamic_type3app17h881da36e0040e62eE+0xf6>
   15a04:	4505                	li	a0,1
   15a06:	00aa0023          	sb	a0,0(s4)
   15a0a:	00ba2223          	sw	a1,4(s4)
   15a0e:	470d                	li	a4,3
   15a10:	20900513          	li	a0,521
   15a14:	45a1                	li	a1,8
   15a16:	4601                	li	a2,0
   15a18:	4681                	li	a3,0
   15a1a:	00000073          	ecall
   15a1e:	00414703          	lbu	a4,4(sp)
   15a22:	4509                	li	a0,2
   15a24:	00a70963          	beq	a4,a0,15a36 <_ZN20complex_dynamic_type3app17h881da36e0040e62eE+0xe6>
   15a28:	20900513          	li	a0,521
   15a2c:	4589                	li	a1,2
   15a2e:	4601                	li	a2,0
   15a30:	4681                	li	a3,0
   15a32:	00000073          	ecall
   15a36:	50f6                	lw	ra,124(sp)
   15a38:	5466                	lw	s0,120(sp)
   15a3a:	54d6                	lw	s1,116(sp)
   15a3c:	5946                	lw	s2,112(sp)
   15a3e:	59b6                	lw	s3,108(sp)
   15a40:	5a26                	lw	s4,104(sp)
   15a42:	6109                	addi	sp,sp,128
   15a44:	8082                	ret
   15a46:	00414703          	lbu	a4,4(sp)
   15a4a:	00c71463          	bne	a4,a2,15a52 <_ZN20complex_dynamic_type3app17h881da36e0040e62eE+0x102>
   15a4e:	470d                	li	a4,3
   15a50:	a81d                	j	15a86 <_ZN20complex_dynamic_type3app17h881da36e0040e62eE+0x136>
   15a52:	20900513          	li	a0,521
   15a56:	4589                	li	a1,2
   15a58:	4601                	li	a2,0
   15a5a:	4681                	li	a3,0
   15a5c:	00000073          	ecall
   15a60:	03914703          	lbu	a4,57(sp)
   15a64:	4509                	li	a0,2
   15a66:	00a10223          	sb	a0,4(sp)
   15a6a:	00a71e63          	bne	a4,a0,15a86 <_ZN20complex_dynamic_type3app17h881da36e0040e62eE+0x136>
   15a6e:	001a0513          	addi	a0,s4,1
   15a72:	02e00613          	li	a2,46
   15a76:	85ce                	mv	a1,s3
   15a78:	00009097          	auipc	ra,0x9
   15a7c:	a9c080e7          	jalr	-1380(ra) # 1e514 <memcpy>
   15a80:	000a0023          	sb	zero,0(s4)
   15a84:	bf4d                	j	15a36 <_ZN20complex_dynamic_type3app17h881da36e0040e62eE+0xe6>
   15a86:	20900513          	li	a0,521
   15a8a:	45a1                	li	a1,8
   15a8c:	4601                	li	a2,0
   15a8e:	4681                	li	a3,0
   15a90:	00000073          	ecall
   15a94:	00414903          	lbu	s2,4(sp)
   15a98:	001a0513          	addi	a0,s4,1
   15a9c:	02e00613          	li	a2,46
   15aa0:	85ce                	mv	a1,s3
   15aa2:	00009097          	auipc	ra,0x9
   15aa6:	a72080e7          	jalr	-1422(ra) # 1e514 <memcpy>
   15aaa:	4509                	li	a0,2
   15aac:	000a0023          	sb	zero,0(s4)
   15ab0:	f8a903e3          	beq	s2,a0,15a36 <_ZN20complex_dynamic_type3app17h881da36e0040e62eE+0xe6>
   15ab4:	20900513          	li	a0,521
   15ab8:	4589                	li	a1,2
   15aba:	4601                	li	a2,0
   15abc:	4681                	li	a3,0
   15abe:	874a                	mv	a4,s2
   15ac0:	00000073          	ecall
   15ac4:	bf8d                	j	15a36 <_ZN20complex_dynamic_type3app17h881da36e0040e62eE+0xe6>

00015ac6 <_ZN20complex_dynamic_type3app17h8b6c838c87ca26c6E>:
   15ac6:	7171                	addi	sp,sp,-176
   15ac8:	d706                	sw	ra,172(sp)
   15aca:	d522                	sw	s0,168(sp)
   15acc:	d326                	sw	s1,164(sp)
   15ace:	d14a                	sw	s2,160(sp)
   15ad0:	cf4e                	sw	s3,156(sp)
   15ad2:	cd52                	sw	s4,152(sp)
   15ad4:	cb56                	sw	s5,148(sp)
   15ad6:	8aaa                	mv	s5,a0
   15ad8:	4409                	li	s0,2
   15ada:	008107a3          	sb	s0,15(sp)
   15ade:	0804                	addi	s1,sp,16
   15ae0:	02a00613          	li	a2,42
   15ae4:	8526                	mv	a0,s1
   15ae6:	00009097          	auipc	ra,0x9
   15aea:	a2e080e7          	jalr	-1490(ra) # 1e514 <memcpy>
   15aee:	03b10a13          	addi	s4,sp,59
   15af2:	05900613          	li	a2,89
   15af6:	8552                	mv	a0,s4
   15af8:	4581                	li	a1,0
   15afa:	00009097          	auipc	ra,0x9
   15afe:	9ae080e7          	jalr	-1618(ra) # 1e4a8 <memset>
   15b02:	8626                	mv	a2,s1
   15b04:	02810d23          	sb	s0,58(sp)
   15b08:	6505                	lui	a0,0x1
   15b0a:	4805                	li	a6,1
   15b0c:	4491                	li	s1,4
   15b0e:	4585                	li	a1,1
   15b10:	ed250793          	addi	a5,a0,-302 # ed2 <.Lline_table_start1+0xca7>
   15b14:	02a00693          	li	a3,42
   15b18:	4711                	li	a4,4
   15b1a:	853e                	mv	a0,a5
   15b1c:	00000073          	ecall
   15b20:	00851763          	bne	a0,s0,15b2e <_ZN20complex_dynamic_type3app17h8b6c838c87ca26c6E+0x68>
   15b24:	010a8023          	sb	a6,0(s5)
   15b28:	00baa223          	sw	a1,4(s5)
   15b2c:	a0bd                	j	15b9a <_ZN20complex_dynamic_type3app17h8b6c838c87ca26c6E+0xd4>
   15b2e:	853e                	mv	a0,a5
   15b30:	8652                	mv	a2,s4
   15b32:	009107a3          	sb	s1,15(sp)
   15b36:	478d                	li	a5,3
   15b38:	458d                	li	a1,3
   15b3a:	05900693          	li	a3,89
   15b3e:	470d                	li	a4,3
   15b40:	00000073          	ecall
   15b44:	00851d63          	bne	a0,s0,15b5e <_ZN20complex_dynamic_type3app17h8b6c838c87ca26c6E+0x98>
   15b48:	03a14703          	lbu	a4,58(sp)
   15b4c:	4505                	li	a0,1
   15b4e:	4609                	li	a2,2
   15b50:	00aa8023          	sb	a0,0(s5)
   15b54:	00baa223          	sw	a1,4(s5)
   15b58:	02c71963          	bne	a4,a2,15b8a <_ZN20complex_dynamic_type3app17h8b6c838c87ca26c6E+0xc4>
   15b5c:	a83d                	j	15b9a <_ZN20complex_dynamic_type3app17h8b6c838c87ca26c6E+0xd4>
   15b5e:	4681                	li	a3,0
   15b60:	02f10d23          	sb	a5,58(sp)
   15b64:	6505                	lui	a0,0x1
   15b66:	4785                	li	a5,1
   15b68:	4585                	li	a1,1
   15b6a:	460d                	li	a2,3
   15b6c:	4709                	li	a4,2
   15b6e:	ed250513          	addi	a0,a0,-302 # ed2 <.Lline_table_start1+0xca7>
   15b72:	08000493          	li	s1,128
   15b76:	00000073          	ecall
   15b7a:	4609                	li	a2,2
   15b7c:	04957563          	bgeu	a0,s1,15bc6 <_ZN20complex_dynamic_type3app17h8b6c838c87ca26c6E+0x100>
   15b80:	00fa8023          	sb	a5,0(s5)
   15b84:	00baa223          	sw	a1,4(s5)
   15b88:	470d                	li	a4,3
   15b8a:	6505                	lui	a0,0x1
   15b8c:	ed250513          	addi	a0,a0,-302 # ed2 <.Lline_table_start1+0xca7>
   15b90:	458d                	li	a1,3
   15b92:	4601                	li	a2,0
   15b94:	4681                	li	a3,0
   15b96:	00000073          	ecall
   15b9a:	00f14703          	lbu	a4,15(sp)
   15b9e:	4509                	li	a0,2
   15ba0:	00a70a63          	beq	a4,a0,15bb4 <_ZN20complex_dynamic_type3app17h8b6c838c87ca26c6E+0xee>
   15ba4:	6505                	lui	a0,0x1
   15ba6:	ed250513          	addi	a0,a0,-302 # ed2 <.Lline_table_start1+0xca7>
   15baa:	4585                	li	a1,1
   15bac:	4601                	li	a2,0
   15bae:	4681                	li	a3,0
   15bb0:	00000073          	ecall
   15bb4:	50ba                	lw	ra,172(sp)
   15bb6:	542a                	lw	s0,168(sp)
   15bb8:	549a                	lw	s1,164(sp)
   15bba:	590a                	lw	s2,160(sp)
   15bbc:	49fa                	lw	s3,156(sp)
   15bbe:	4a6a                	lw	s4,152(sp)
   15bc0:	4ada                	lw	s5,148(sp)
   15bc2:	614d                	addi	sp,sp,176
   15bc4:	8082                	ret
   15bc6:	00f14703          	lbu	a4,15(sp)
   15bca:	00c71463          	bne	a4,a2,15bd2 <_ZN20complex_dynamic_type3app17h8b6c838c87ca26c6E+0x10c>
   15bce:	470d                	li	a4,3
   15bd0:	a825                	j	15c08 <_ZN20complex_dynamic_type3app17h8b6c838c87ca26c6E+0x142>
   15bd2:	6505                	lui	a0,0x1
   15bd4:	ed250513          	addi	a0,a0,-302 # ed2 <.Lline_table_start1+0xca7>
   15bd8:	4585                	li	a1,1
   15bda:	4601                	li	a2,0
   15bdc:	4681                	li	a3,0
   15bde:	00000073          	ecall
   15be2:	03a14703          	lbu	a4,58(sp)
   15be6:	4509                	li	a0,2
   15be8:	00a107a3          	sb	a0,15(sp)
   15bec:	00a71e63          	bne	a4,a0,15c08 <_ZN20complex_dynamic_type3app17h8b6c838c87ca26c6E+0x142>
   15bf0:	001a8513          	addi	a0,s5,1
   15bf4:	05900613          	li	a2,89
   15bf8:	85d2                	mv	a1,s4
   15bfa:	00009097          	auipc	ra,0x9
   15bfe:	91a080e7          	jalr	-1766(ra) # 1e514 <memcpy>
   15c02:	000a8023          	sb	zero,0(s5)
   15c06:	b77d                	j	15bb4 <_ZN20complex_dynamic_type3app17h8b6c838c87ca26c6E+0xee>
   15c08:	6505                	lui	a0,0x1
   15c0a:	ed250913          	addi	s2,a0,-302 # ed2 <.Lline_table_start1+0xca7>
   15c0e:	458d                	li	a1,3
   15c10:	854a                	mv	a0,s2
   15c12:	4601                	li	a2,0
   15c14:	4681                	li	a3,0
   15c16:	00000073          	ecall
   15c1a:	00f14983          	lbu	s3,15(sp)
   15c1e:	001a8513          	addi	a0,s5,1
   15c22:	05900613          	li	a2,89
   15c26:	85d2                	mv	a1,s4
   15c28:	00009097          	auipc	ra,0x9
   15c2c:	8ec080e7          	jalr	-1812(ra) # 1e514 <memcpy>
   15c30:	4509                	li	a0,2
   15c32:	000a8023          	sb	zero,0(s5)
   15c36:	f6a98fe3          	beq	s3,a0,15bb4 <_ZN20complex_dynamic_type3app17h8b6c838c87ca26c6E+0xee>
   15c3a:	4585                	li	a1,1
   15c3c:	854a                	mv	a0,s2
   15c3e:	4601                	li	a2,0
   15c40:	4681                	li	a3,0
   15c42:	874e                	mv	a4,s3
   15c44:	00000073          	ecall
   15c48:	b7b5                	j	15bb4 <_ZN20complex_dynamic_type3app17h8b6c838c87ca26c6E+0xee>

00015c4a <_ZN20complex_dynamic_type3app17h8f6c975285ac4021E>:
   15c4a:	7175                	addi	sp,sp,-144
   15c4c:	c706                	sw	ra,140(sp)
   15c4e:	c522                	sw	s0,136(sp)
   15c50:	c326                	sw	s1,132(sp)
   15c52:	c14a                	sw	s2,128(sp)
   15c54:	dece                	sw	s3,124(sp)
   15c56:	dcd2                	sw	s4,120(sp)
   15c58:	dad6                	sw	s5,116(sp)
   15c5a:	8aaa                	mv	s5,a0
   15c5c:	4409                	li	s0,2
   15c5e:	00810723          	sb	s0,14(sp)
   15c62:	00f10493          	addi	s1,sp,15
   15c66:	03200613          	li	a2,50
   15c6a:	8526                	mv	a0,s1
   15c6c:	00009097          	auipc	ra,0x9
   15c70:	8a8080e7          	jalr	-1880(ra) # 1e514 <memcpy>
   15c74:	04210a13          	addi	s4,sp,66
   15c78:	03200613          	li	a2,50
   15c7c:	8552                	mv	a0,s4
   15c7e:	4581                	li	a1,0
   15c80:	00009097          	auipc	ra,0x9
   15c84:	828080e7          	jalr	-2008(ra) # 1e4a8 <memset>
   15c88:	8626                	mv	a2,s1
   15c8a:	048100a3          	sb	s0,65(sp)
   15c8e:	6509                	lui	a0,0x2
   15c90:	4491                	li	s1,4
   15c92:	458d                	li	a1,3
   15c94:	f0750793          	addi	a5,a0,-249 # 1f07 <.Lline_table_start1+0x1cdc>
   15c98:	03200693          	li	a3,50
   15c9c:	4711                	li	a4,4
   15c9e:	853e                	mv	a0,a5
   15ca0:	00000073          	ecall
   15ca4:	00851863          	bne	a0,s0,15cb4 <_ZN20complex_dynamic_type3app17h8f6c975285ac4021E+0x6a>
   15ca8:	4505                	li	a0,1
   15caa:	00aa8023          	sb	a0,0(s5)
   15cae:	00baa223          	sw	a1,4(s5)
   15cb2:	a0bd                	j	15d20 <_ZN20complex_dynamic_type3app17h8f6c975285ac4021E+0xd6>
   15cb4:	853e                	mv	a0,a5
   15cb6:	8652                	mv	a2,s4
   15cb8:	00910723          	sb	s1,14(sp)
   15cbc:	4785                	li	a5,1
   15cbe:	448d                	li	s1,3
   15cc0:	4585                	li	a1,1
   15cc2:	03200693          	li	a3,50
   15cc6:	470d                	li	a4,3
   15cc8:	00000073          	ecall
   15ccc:	00851c63          	bne	a0,s0,15ce4 <_ZN20complex_dynamic_type3app17h8f6c975285ac4021E+0x9a>
   15cd0:	04114703          	lbu	a4,65(sp)
   15cd4:	4509                	li	a0,2
   15cd6:	00fa8023          	sb	a5,0(s5)
   15cda:	00baa223          	sw	a1,4(s5)
   15cde:	02a71963          	bne	a4,a0,15d10 <_ZN20complex_dynamic_type3app17h8f6c975285ac4021E+0xc6>
   15ce2:	a83d                	j	15d20 <_ZN20complex_dynamic_type3app17h8f6c975285ac4021E+0xd6>
   15ce4:	4681                	li	a3,0
   15ce6:	049100a3          	sb	s1,65(sp)
   15cea:	6509                	lui	a0,0x2
   15cec:	4785                	li	a5,1
   15cee:	458d                	li	a1,3
   15cf0:	4605                	li	a2,1
   15cf2:	4709                	li	a4,2
   15cf4:	f0750513          	addi	a0,a0,-249 # 1f07 <.Lline_table_start1+0x1cdc>
   15cf8:	08000493          	li	s1,128
   15cfc:	00000073          	ecall
   15d00:	4609                	li	a2,2
   15d02:	04957563          	bgeu	a0,s1,15d4c <_ZN20complex_dynamic_type3app17h8f6c975285ac4021E+0x102>
   15d06:	00fa8023          	sb	a5,0(s5)
   15d0a:	00baa223          	sw	a1,4(s5)
   15d0e:	470d                	li	a4,3
   15d10:	6509                	lui	a0,0x2
   15d12:	f0750513          	addi	a0,a0,-249 # 1f07 <.Lline_table_start1+0x1cdc>
   15d16:	4585                	li	a1,1
   15d18:	4601                	li	a2,0
   15d1a:	4681                	li	a3,0
   15d1c:	00000073          	ecall
   15d20:	00e14703          	lbu	a4,14(sp)
   15d24:	4509                	li	a0,2
   15d26:	00a70a63          	beq	a4,a0,15d3a <_ZN20complex_dynamic_type3app17h8f6c975285ac4021E+0xf0>
   15d2a:	6509                	lui	a0,0x2
   15d2c:	f0750513          	addi	a0,a0,-249 # 1f07 <.Lline_table_start1+0x1cdc>
   15d30:	458d                	li	a1,3
   15d32:	4601                	li	a2,0
   15d34:	4681                	li	a3,0
   15d36:	00000073          	ecall
   15d3a:	40ba                	lw	ra,140(sp)
   15d3c:	442a                	lw	s0,136(sp)
   15d3e:	449a                	lw	s1,132(sp)
   15d40:	490a                	lw	s2,128(sp)
   15d42:	59f6                	lw	s3,124(sp)
   15d44:	5a66                	lw	s4,120(sp)
   15d46:	5ad6                	lw	s5,116(sp)
   15d48:	6149                	addi	sp,sp,144
   15d4a:	8082                	ret
   15d4c:	00e14703          	lbu	a4,14(sp)
   15d50:	00c71463          	bne	a4,a2,15d58 <_ZN20complex_dynamic_type3app17h8f6c975285ac4021E+0x10e>
   15d54:	470d                	li	a4,3
   15d56:	a825                	j	15d8e <_ZN20complex_dynamic_type3app17h8f6c975285ac4021E+0x144>
   15d58:	6509                	lui	a0,0x2
   15d5a:	f0750513          	addi	a0,a0,-249 # 1f07 <.Lline_table_start1+0x1cdc>
   15d5e:	458d                	li	a1,3
   15d60:	4601                	li	a2,0
   15d62:	4681                	li	a3,0
   15d64:	00000073          	ecall
   15d68:	04114703          	lbu	a4,65(sp)
   15d6c:	4509                	li	a0,2
   15d6e:	00a10723          	sb	a0,14(sp)
   15d72:	00a71e63          	bne	a4,a0,15d8e <_ZN20complex_dynamic_type3app17h8f6c975285ac4021E+0x144>
   15d76:	001a8513          	addi	a0,s5,1
   15d7a:	03200613          	li	a2,50
   15d7e:	85d2                	mv	a1,s4
   15d80:	00008097          	auipc	ra,0x8
   15d84:	794080e7          	jalr	1940(ra) # 1e514 <memcpy>
   15d88:	000a8023          	sb	zero,0(s5)
   15d8c:	b77d                	j	15d3a <_ZN20complex_dynamic_type3app17h8f6c975285ac4021E+0xf0>
   15d8e:	6509                	lui	a0,0x2
   15d90:	f0750913          	addi	s2,a0,-249 # 1f07 <.Lline_table_start1+0x1cdc>
   15d94:	4585                	li	a1,1
   15d96:	854a                	mv	a0,s2
   15d98:	4601                	li	a2,0
   15d9a:	4681                	li	a3,0
   15d9c:	00000073          	ecall
   15da0:	00e14983          	lbu	s3,14(sp)
   15da4:	001a8513          	addi	a0,s5,1
   15da8:	03200613          	li	a2,50
   15dac:	85d2                	mv	a1,s4
   15dae:	00008097          	auipc	ra,0x8
   15db2:	766080e7          	jalr	1894(ra) # 1e514 <memcpy>
   15db6:	4509                	li	a0,2
   15db8:	000a8023          	sb	zero,0(s5)
   15dbc:	f6a98fe3          	beq	s3,a0,15d3a <_ZN20complex_dynamic_type3app17h8f6c975285ac4021E+0xf0>
   15dc0:	458d                	li	a1,3
   15dc2:	854a                	mv	a0,s2
   15dc4:	4601                	li	a2,0
   15dc6:	4681                	li	a3,0
   15dc8:	874e                	mv	a4,s3
   15dca:	00000073          	ecall
   15dce:	b7b5                	j	15d3a <_ZN20complex_dynamic_type3app17h8f6c975285ac4021E+0xf0>

00015dd0 <_ZN20complex_dynamic_type3app17h93a9a0f982ec2a7dE>:
   15dd0:	7119                	addi	sp,sp,-128
   15dd2:	de86                	sw	ra,124(sp)
   15dd4:	dca2                	sw	s0,120(sp)
   15dd6:	daa6                	sw	s1,116(sp)
   15dd8:	d8ca                	sw	s2,112(sp)
   15dda:	d6ce                	sw	s3,108(sp)
   15ddc:	d4d2                	sw	s4,104(sp)
   15dde:	d2d6                	sw	s5,100(sp)
   15de0:	8aaa                	mv	s5,a0
   15de2:	4409                	li	s0,2
   15de4:	00810623          	sb	s0,12(sp)
   15de8:	00d10493          	addi	s1,sp,13
   15dec:	4639                	li	a2,14
   15dee:	8526                	mv	a0,s1
   15df0:	00008097          	auipc	ra,0x8
   15df4:	724080e7          	jalr	1828(ra) # 1e514 <memcpy>
   15df8:	01c10a13          	addi	s4,sp,28
   15dfc:	04800613          	li	a2,72
   15e00:	8552                	mv	a0,s4
   15e02:	4581                	li	a1,0
   15e04:	00008097          	auipc	ra,0x8
   15e08:	6a4080e7          	jalr	1700(ra) # 1e4a8 <memset>
   15e0c:	8626                	mv	a2,s1
   15e0e:	00810da3          	sb	s0,27(sp)
   15e12:	6505                	lui	a0,0x1
   15e14:	4491                	li	s1,4
   15e16:	458d                	li	a1,3
   15e18:	2d150793          	addi	a5,a0,721 # 12d1 <.Lline_table_start1+0x10a6>
   15e1c:	46b9                	li	a3,14
   15e1e:	4711                	li	a4,4
   15e20:	853e                	mv	a0,a5
   15e22:	00000073          	ecall
   15e26:	00851863          	bne	a0,s0,15e36 <_ZN20complex_dynamic_type3app17h93a9a0f982ec2a7dE+0x66>
   15e2a:	4505                	li	a0,1
   15e2c:	00aa8023          	sb	a0,0(s5)
   15e30:	00baa223          	sw	a1,4(s5)
   15e34:	a0bd                	j	15ea2 <_ZN20complex_dynamic_type3app17h93a9a0f982ec2a7dE+0xd2>
   15e36:	853e                	mv	a0,a5
   15e38:	8652                	mv	a2,s4
   15e3a:	00910623          	sb	s1,12(sp)
   15e3e:	478d                	li	a5,3
   15e40:	45a1                	li	a1,8
   15e42:	04800693          	li	a3,72
   15e46:	470d                	li	a4,3
   15e48:	00000073          	ecall
   15e4c:	00851d63          	bne	a0,s0,15e66 <_ZN20complex_dynamic_type3app17h93a9a0f982ec2a7dE+0x96>
   15e50:	01b14703          	lbu	a4,27(sp)
   15e54:	4505                	li	a0,1
   15e56:	4609                	li	a2,2
   15e58:	00aa8023          	sb	a0,0(s5)
   15e5c:	00baa223          	sw	a1,4(s5)
   15e60:	02c71963          	bne	a4,a2,15e92 <_ZN20complex_dynamic_type3app17h93a9a0f982ec2a7dE+0xc2>
   15e64:	a83d                	j	15ea2 <_ZN20complex_dynamic_type3app17h93a9a0f982ec2a7dE+0xd2>
   15e66:	4681                	li	a3,0
   15e68:	00f10da3          	sb	a5,27(sp)
   15e6c:	6505                	lui	a0,0x1
   15e6e:	458d                	li	a1,3
   15e70:	4621                	li	a2,8
   15e72:	4709                	li	a4,2
   15e74:	2d150513          	addi	a0,a0,721 # 12d1 <.Lline_table_start1+0x10a6>
   15e78:	08000793          	li	a5,128
   15e7c:	00000073          	ecall
   15e80:	4609                	li	a2,2
   15e82:	04f57663          	bgeu	a0,a5,15ece <_ZN20complex_dynamic_type3app17h93a9a0f982ec2a7dE+0xfe>
   15e86:	4505                	li	a0,1
   15e88:	00aa8023          	sb	a0,0(s5)
   15e8c:	00baa223          	sw	a1,4(s5)
   15e90:	470d                	li	a4,3
   15e92:	6505                	lui	a0,0x1
   15e94:	2d150513          	addi	a0,a0,721 # 12d1 <.Lline_table_start1+0x10a6>
   15e98:	45a1                	li	a1,8
   15e9a:	4601                	li	a2,0
   15e9c:	4681                	li	a3,0
   15e9e:	00000073          	ecall
   15ea2:	00c14703          	lbu	a4,12(sp)
   15ea6:	4509                	li	a0,2
   15ea8:	00a70a63          	beq	a4,a0,15ebc <_ZN20complex_dynamic_type3app17h93a9a0f982ec2a7dE+0xec>
   15eac:	6505                	lui	a0,0x1
   15eae:	2d150513          	addi	a0,a0,721 # 12d1 <.Lline_table_start1+0x10a6>
   15eb2:	458d                	li	a1,3
   15eb4:	4601                	li	a2,0
   15eb6:	4681                	li	a3,0
   15eb8:	00000073          	ecall
   15ebc:	50f6                	lw	ra,124(sp)
   15ebe:	5466                	lw	s0,120(sp)
   15ec0:	54d6                	lw	s1,116(sp)
   15ec2:	5946                	lw	s2,112(sp)
   15ec4:	59b6                	lw	s3,108(sp)
   15ec6:	5a26                	lw	s4,104(sp)
   15ec8:	5a96                	lw	s5,100(sp)
   15eca:	6109                	addi	sp,sp,128
   15ecc:	8082                	ret
   15ece:	00c14703          	lbu	a4,12(sp)
   15ed2:	00c71463          	bne	a4,a2,15eda <_ZN20complex_dynamic_type3app17h93a9a0f982ec2a7dE+0x10a>
   15ed6:	470d                	li	a4,3
   15ed8:	a825                	j	15f10 <_ZN20complex_dynamic_type3app17h93a9a0f982ec2a7dE+0x140>
   15eda:	6505                	lui	a0,0x1
   15edc:	2d150513          	addi	a0,a0,721 # 12d1 <.Lline_table_start1+0x10a6>
   15ee0:	458d                	li	a1,3
   15ee2:	4601                	li	a2,0
   15ee4:	4681                	li	a3,0
   15ee6:	00000073          	ecall
   15eea:	01b14703          	lbu	a4,27(sp)
   15eee:	4509                	li	a0,2
   15ef0:	00a10623          	sb	a0,12(sp)
   15ef4:	00a71e63          	bne	a4,a0,15f10 <_ZN20complex_dynamic_type3app17h93a9a0f982ec2a7dE+0x140>
   15ef8:	001a8513          	addi	a0,s5,1
   15efc:	04800613          	li	a2,72
   15f00:	85d2                	mv	a1,s4
   15f02:	00008097          	auipc	ra,0x8
   15f06:	612080e7          	jalr	1554(ra) # 1e514 <memcpy>
   15f0a:	000a8023          	sb	zero,0(s5)
   15f0e:	b77d                	j	15ebc <_ZN20complex_dynamic_type3app17h93a9a0f982ec2a7dE+0xec>
   15f10:	6505                	lui	a0,0x1
   15f12:	2d150913          	addi	s2,a0,721 # 12d1 <.Lline_table_start1+0x10a6>
   15f16:	45a1                	li	a1,8
   15f18:	854a                	mv	a0,s2
   15f1a:	4601                	li	a2,0
   15f1c:	4681                	li	a3,0
   15f1e:	00000073          	ecall
   15f22:	00c14983          	lbu	s3,12(sp)
   15f26:	001a8513          	addi	a0,s5,1
   15f2a:	04800613          	li	a2,72
   15f2e:	85d2                	mv	a1,s4
   15f30:	00008097          	auipc	ra,0x8
   15f34:	5e4080e7          	jalr	1508(ra) # 1e514 <memcpy>
   15f38:	4509                	li	a0,2
   15f3a:	000a8023          	sb	zero,0(s5)
   15f3e:	f6a98fe3          	beq	s3,a0,15ebc <_ZN20complex_dynamic_type3app17h93a9a0f982ec2a7dE+0xec>
   15f42:	458d                	li	a1,3
   15f44:	854a                	mv	a0,s2
   15f46:	4601                	li	a2,0
   15f48:	4681                	li	a3,0
   15f4a:	874e                	mv	a4,s3
   15f4c:	00000073          	ecall
   15f50:	b7b5                	j	15ebc <_ZN20complex_dynamic_type3app17h93a9a0f982ec2a7dE+0xec>

00015f52 <_ZN20complex_dynamic_type3app17h959007c27530f6cfE>:
   15f52:	7135                	addi	sp,sp,-160
   15f54:	cf06                	sw	ra,156(sp)
   15f56:	cd22                	sw	s0,152(sp)
   15f58:	cb26                	sw	s1,148(sp)
   15f5a:	c94a                	sw	s2,144(sp)
   15f5c:	c74e                	sw	s3,140(sp)
   15f5e:	c552                	sw	s4,136(sp)
   15f60:	c356                	sw	s5,132(sp)
   15f62:	8aaa                	mv	s5,a0
   15f64:	4409                	li	s0,2
   15f66:	00810123          	sb	s0,2(sp)
   15f6a:	00310493          	addi	s1,sp,3
   15f6e:	02d00613          	li	a2,45
   15f72:	8526                	mv	a0,s1
   15f74:	00008097          	auipc	ra,0x8
   15f78:	5a0080e7          	jalr	1440(ra) # 1e514 <memcpy>
   15f7c:	03110a13          	addi	s4,sp,49
   15f80:	05300613          	li	a2,83
   15f84:	8552                	mv	a0,s4
   15f86:	4581                	li	a1,0
   15f88:	00008097          	auipc	ra,0x8
   15f8c:	520080e7          	jalr	1312(ra) # 1e4a8 <memset>
   15f90:	8626                	mv	a2,s1
   15f92:	02810823          	sb	s0,48(sp)
   15f96:	6505                	lui	a0,0x1
   15f98:	4491                	li	s1,4
   15f9a:	4589                	li	a1,2
   15f9c:	ec350793          	addi	a5,a0,-317 # ec3 <.Lline_table_start1+0xc98>
   15fa0:	02d00693          	li	a3,45
   15fa4:	4711                	li	a4,4
   15fa6:	853e                	mv	a0,a5
   15fa8:	00000073          	ecall
   15fac:	00851863          	bne	a0,s0,15fbc <_ZN20complex_dynamic_type3app17h959007c27530f6cfE+0x6a>
   15fb0:	4505                	li	a0,1
   15fb2:	00aa8023          	sb	a0,0(s5)
   15fb6:	00baa223          	sw	a1,4(s5)
   15fba:	a0bd                	j	16028 <_ZN20complex_dynamic_type3app17h959007c27530f6cfE+0xd6>
   15fbc:	853e                	mv	a0,a5
   15fbe:	8652                	mv	a2,s4
   15fc0:	00910123          	sb	s1,2(sp)
   15fc4:	478d                	li	a5,3
   15fc6:	459d                	li	a1,7
   15fc8:	05300693          	li	a3,83
   15fcc:	470d                	li	a4,3
   15fce:	00000073          	ecall
   15fd2:	00851d63          	bne	a0,s0,15fec <_ZN20complex_dynamic_type3app17h959007c27530f6cfE+0x9a>
   15fd6:	03014703          	lbu	a4,48(sp)
   15fda:	4505                	li	a0,1
   15fdc:	4609                	li	a2,2
   15fde:	00aa8023          	sb	a0,0(s5)
   15fe2:	00baa223          	sw	a1,4(s5)
   15fe6:	02c71963          	bne	a4,a2,16018 <_ZN20complex_dynamic_type3app17h959007c27530f6cfE+0xc6>
   15fea:	a83d                	j	16028 <_ZN20complex_dynamic_type3app17h959007c27530f6cfE+0xd6>
   15fec:	4681                	li	a3,0
   15fee:	02f10823          	sb	a5,48(sp)
   15ff2:	6505                	lui	a0,0x1
   15ff4:	4589                	li	a1,2
   15ff6:	461d                	li	a2,7
   15ff8:	4709                	li	a4,2
   15ffa:	ec350513          	addi	a0,a0,-317 # ec3 <.Lline_table_start1+0xc98>
   15ffe:	08000793          	li	a5,128
   16002:	00000073          	ecall
   16006:	4609                	li	a2,2
   16008:	04f57663          	bgeu	a0,a5,16054 <_ZN20complex_dynamic_type3app17h959007c27530f6cfE+0x102>
   1600c:	4505                	li	a0,1
   1600e:	00aa8023          	sb	a0,0(s5)
   16012:	00baa223          	sw	a1,4(s5)
   16016:	470d                	li	a4,3
   16018:	6505                	lui	a0,0x1
   1601a:	ec350513          	addi	a0,a0,-317 # ec3 <.Lline_table_start1+0xc98>
   1601e:	459d                	li	a1,7
   16020:	4601                	li	a2,0
   16022:	4681                	li	a3,0
   16024:	00000073          	ecall
   16028:	00214703          	lbu	a4,2(sp)
   1602c:	4509                	li	a0,2
   1602e:	00a70a63          	beq	a4,a0,16042 <_ZN20complex_dynamic_type3app17h959007c27530f6cfE+0xf0>
   16032:	6505                	lui	a0,0x1
   16034:	ec350513          	addi	a0,a0,-317 # ec3 <.Lline_table_start1+0xc98>
   16038:	4589                	li	a1,2
   1603a:	4601                	li	a2,0
   1603c:	4681                	li	a3,0
   1603e:	00000073          	ecall
   16042:	40fa                	lw	ra,156(sp)
   16044:	446a                	lw	s0,152(sp)
   16046:	44da                	lw	s1,148(sp)
   16048:	494a                	lw	s2,144(sp)
   1604a:	49ba                	lw	s3,140(sp)
   1604c:	4a2a                	lw	s4,136(sp)
   1604e:	4a9a                	lw	s5,132(sp)
   16050:	610d                	addi	sp,sp,160
   16052:	8082                	ret
   16054:	00214703          	lbu	a4,2(sp)
   16058:	00c71463          	bne	a4,a2,16060 <_ZN20complex_dynamic_type3app17h959007c27530f6cfE+0x10e>
   1605c:	470d                	li	a4,3
   1605e:	a825                	j	16096 <_ZN20complex_dynamic_type3app17h959007c27530f6cfE+0x144>
   16060:	6505                	lui	a0,0x1
   16062:	ec350513          	addi	a0,a0,-317 # ec3 <.Lline_table_start1+0xc98>
   16066:	4589                	li	a1,2
   16068:	4601                	li	a2,0
   1606a:	4681                	li	a3,0
   1606c:	00000073          	ecall
   16070:	03014703          	lbu	a4,48(sp)
   16074:	4509                	li	a0,2
   16076:	00a10123          	sb	a0,2(sp)
   1607a:	00a71e63          	bne	a4,a0,16096 <_ZN20complex_dynamic_type3app17h959007c27530f6cfE+0x144>
   1607e:	001a8513          	addi	a0,s5,1
   16082:	05300613          	li	a2,83
   16086:	85d2                	mv	a1,s4
   16088:	00008097          	auipc	ra,0x8
   1608c:	48c080e7          	jalr	1164(ra) # 1e514 <memcpy>
   16090:	000a8023          	sb	zero,0(s5)
   16094:	b77d                	j	16042 <_ZN20complex_dynamic_type3app17h959007c27530f6cfE+0xf0>
   16096:	6505                	lui	a0,0x1
   16098:	ec350913          	addi	s2,a0,-317 # ec3 <.Lline_table_start1+0xc98>
   1609c:	459d                	li	a1,7
   1609e:	854a                	mv	a0,s2
   160a0:	4601                	li	a2,0
   160a2:	4681                	li	a3,0
   160a4:	00000073          	ecall
   160a8:	00214983          	lbu	s3,2(sp)
   160ac:	001a8513          	addi	a0,s5,1
   160b0:	05300613          	li	a2,83
   160b4:	85d2                	mv	a1,s4
   160b6:	00008097          	auipc	ra,0x8
   160ba:	45e080e7          	jalr	1118(ra) # 1e514 <memcpy>
   160be:	4509                	li	a0,2
   160c0:	000a8023          	sb	zero,0(s5)
   160c4:	f6a98fe3          	beq	s3,a0,16042 <_ZN20complex_dynamic_type3app17h959007c27530f6cfE+0xf0>
   160c8:	4589                	li	a1,2
   160ca:	854a                	mv	a0,s2
   160cc:	4601                	li	a2,0
   160ce:	4681                	li	a3,0
   160d0:	874e                	mv	a4,s3
   160d2:	00000073          	ecall
   160d6:	b7b5                	j	16042 <_ZN20complex_dynamic_type3app17h959007c27530f6cfE+0xf0>

000160d8 <_ZN20complex_dynamic_type3app17h99fdc9e628ea1c93E>:
   160d8:	7119                	addi	sp,sp,-128
   160da:	de86                	sw	ra,124(sp)
   160dc:	dca2                	sw	s0,120(sp)
   160de:	daa6                	sw	s1,116(sp)
   160e0:	d8ca                	sw	s2,112(sp)
   160e2:	d6ce                	sw	s3,108(sp)
   160e4:	d4d2                	sw	s4,104(sp)
   160e6:	d2d6                	sw	s5,100(sp)
   160e8:	8aaa                	mv	s5,a0
   160ea:	4409                	li	s0,2
   160ec:	00810423          	sb	s0,8(sp)
   160f0:	00910493          	addi	s1,sp,9
   160f4:	4679                	li	a2,30
   160f6:	8526                	mv	a0,s1
   160f8:	00008097          	auipc	ra,0x8
   160fc:	41c080e7          	jalr	1052(ra) # 1e514 <memcpy>
   16100:	02810a13          	addi	s4,sp,40
   16104:	03c00613          	li	a2,60
   16108:	8552                	mv	a0,s4
   1610a:	4581                	li	a1,0
   1610c:	00008097          	auipc	ra,0x8
   16110:	39c080e7          	jalr	924(ra) # 1e4a8 <memset>
   16114:	8626                	mv	a2,s1
   16116:	028103a3          	sb	s0,39(sp)
   1611a:	6505                	lui	a0,0x1
   1611c:	4491                	li	s1,4
   1611e:	4589                	li	a1,2
   16120:	b3c50793          	addi	a5,a0,-1220 # b3c <.Lline_table_start1+0x911>
   16124:	46f9                	li	a3,30
   16126:	4711                	li	a4,4
   16128:	853e                	mv	a0,a5
   1612a:	00000073          	ecall
   1612e:	00851863          	bne	a0,s0,1613e <_ZN20complex_dynamic_type3app17h99fdc9e628ea1c93E+0x66>
   16132:	4505                	li	a0,1
   16134:	00aa8023          	sb	a0,0(s5)
   16138:	00baa223          	sw	a1,4(s5)
   1613c:	a0bd                	j	161aa <_ZN20complex_dynamic_type3app17h99fdc9e628ea1c93E+0xd2>
   1613e:	853e                	mv	a0,a5
   16140:	8652                	mv	a2,s4
   16142:	00910423          	sb	s1,8(sp)
   16146:	478d                	li	a5,3
   16148:	458d                	li	a1,3
   1614a:	03c00693          	li	a3,60
   1614e:	470d                	li	a4,3
   16150:	00000073          	ecall
   16154:	00851d63          	bne	a0,s0,1616e <_ZN20complex_dynamic_type3app17h99fdc9e628ea1c93E+0x96>
   16158:	02714703          	lbu	a4,39(sp)
   1615c:	4505                	li	a0,1
   1615e:	4609                	li	a2,2
   16160:	00aa8023          	sb	a0,0(s5)
   16164:	00baa223          	sw	a1,4(s5)
   16168:	02c71963          	bne	a4,a2,1619a <_ZN20complex_dynamic_type3app17h99fdc9e628ea1c93E+0xc2>
   1616c:	a83d                	j	161aa <_ZN20complex_dynamic_type3app17h99fdc9e628ea1c93E+0xd2>
   1616e:	4681                	li	a3,0
   16170:	02f103a3          	sb	a5,39(sp)
   16174:	6505                	lui	a0,0x1
   16176:	4589                	li	a1,2
   16178:	460d                	li	a2,3
   1617a:	4709                	li	a4,2
   1617c:	b3c50513          	addi	a0,a0,-1220 # b3c <.Lline_table_start1+0x911>
   16180:	08000793          	li	a5,128
   16184:	00000073          	ecall
   16188:	4609                	li	a2,2
   1618a:	04f57663          	bgeu	a0,a5,161d6 <_ZN20complex_dynamic_type3app17h99fdc9e628ea1c93E+0xfe>
   1618e:	4505                	li	a0,1
   16190:	00aa8023          	sb	a0,0(s5)
   16194:	00baa223          	sw	a1,4(s5)
   16198:	470d                	li	a4,3
   1619a:	6505                	lui	a0,0x1
   1619c:	b3c50513          	addi	a0,a0,-1220 # b3c <.Lline_table_start1+0x911>
   161a0:	458d                	li	a1,3
   161a2:	4601                	li	a2,0
   161a4:	4681                	li	a3,0
   161a6:	00000073          	ecall
   161aa:	00814703          	lbu	a4,8(sp)
   161ae:	4509                	li	a0,2
   161b0:	00a70a63          	beq	a4,a0,161c4 <_ZN20complex_dynamic_type3app17h99fdc9e628ea1c93E+0xec>
   161b4:	6505                	lui	a0,0x1
   161b6:	b3c50513          	addi	a0,a0,-1220 # b3c <.Lline_table_start1+0x911>
   161ba:	4589                	li	a1,2
   161bc:	4601                	li	a2,0
   161be:	4681                	li	a3,0
   161c0:	00000073          	ecall
   161c4:	50f6                	lw	ra,124(sp)
   161c6:	5466                	lw	s0,120(sp)
   161c8:	54d6                	lw	s1,116(sp)
   161ca:	5946                	lw	s2,112(sp)
   161cc:	59b6                	lw	s3,108(sp)
   161ce:	5a26                	lw	s4,104(sp)
   161d0:	5a96                	lw	s5,100(sp)
   161d2:	6109                	addi	sp,sp,128
   161d4:	8082                	ret
   161d6:	00814703          	lbu	a4,8(sp)
   161da:	00c71463          	bne	a4,a2,161e2 <_ZN20complex_dynamic_type3app17h99fdc9e628ea1c93E+0x10a>
   161de:	470d                	li	a4,3
   161e0:	a825                	j	16218 <_ZN20complex_dynamic_type3app17h99fdc9e628ea1c93E+0x140>
   161e2:	6505                	lui	a0,0x1
   161e4:	b3c50513          	addi	a0,a0,-1220 # b3c <.Lline_table_start1+0x911>
   161e8:	4589                	li	a1,2
   161ea:	4601                	li	a2,0
   161ec:	4681                	li	a3,0
   161ee:	00000073          	ecall
   161f2:	02714703          	lbu	a4,39(sp)
   161f6:	4509                	li	a0,2
   161f8:	00a10423          	sb	a0,8(sp)
   161fc:	00a71e63          	bne	a4,a0,16218 <_ZN20complex_dynamic_type3app17h99fdc9e628ea1c93E+0x140>
   16200:	001a8513          	addi	a0,s5,1
   16204:	03c00613          	li	a2,60
   16208:	85d2                	mv	a1,s4
   1620a:	00008097          	auipc	ra,0x8
   1620e:	30a080e7          	jalr	778(ra) # 1e514 <memcpy>
   16212:	000a8023          	sb	zero,0(s5)
   16216:	b77d                	j	161c4 <_ZN20complex_dynamic_type3app17h99fdc9e628ea1c93E+0xec>
   16218:	6505                	lui	a0,0x1
   1621a:	b3c50913          	addi	s2,a0,-1220 # b3c <.Lline_table_start1+0x911>
   1621e:	458d                	li	a1,3
   16220:	854a                	mv	a0,s2
   16222:	4601                	li	a2,0
   16224:	4681                	li	a3,0
   16226:	00000073          	ecall
   1622a:	00814983          	lbu	s3,8(sp)
   1622e:	001a8513          	addi	a0,s5,1
   16232:	03c00613          	li	a2,60
   16236:	85d2                	mv	a1,s4
   16238:	00008097          	auipc	ra,0x8
   1623c:	2dc080e7          	jalr	732(ra) # 1e514 <memcpy>
   16240:	4509                	li	a0,2
   16242:	000a8023          	sb	zero,0(s5)
   16246:	f6a98fe3          	beq	s3,a0,161c4 <_ZN20complex_dynamic_type3app17h99fdc9e628ea1c93E+0xec>
   1624a:	4589                	li	a1,2
   1624c:	854a                	mv	a0,s2
   1624e:	4601                	li	a2,0
   16250:	4681                	li	a3,0
   16252:	874e                	mv	a4,s3
   16254:	00000073          	ecall
   16258:	b7b5                	j	161c4 <_ZN20complex_dynamic_type3app17h99fdc9e628ea1c93E+0xec>

0001625a <_ZN20complex_dynamic_type3app17h9a7d89c65b2bac25E>:
   1625a:	7171                	addi	sp,sp,-176
   1625c:	d706                	sw	ra,172(sp)
   1625e:	d522                	sw	s0,168(sp)
   16260:	d326                	sw	s1,164(sp)
   16262:	d14a                	sw	s2,160(sp)
   16264:	cf4e                	sw	s3,156(sp)
   16266:	cd52                	sw	s4,152(sp)
   16268:	8a2a                	mv	s4,a0
   1626a:	4409                	li	s0,2
   1626c:	008103a3          	sb	s0,7(sp)
   16270:	0024                	addi	s1,sp,8
   16272:	06300613          	li	a2,99
   16276:	8526                	mv	a0,s1
   16278:	00008097          	auipc	ra,0x8
   1627c:	29c080e7          	jalr	668(ra) # 1e514 <memcpy>
   16280:	06c10993          	addi	s3,sp,108
   16284:	02c00613          	li	a2,44
   16288:	854e                	mv	a0,s3
   1628a:	4581                	li	a1,0
   1628c:	00008097          	auipc	ra,0x8
   16290:	21c080e7          	jalr	540(ra) # 1e4a8 <memset>
   16294:	8626                	mv	a2,s1
   16296:	068105a3          	sb	s0,107(sp)
   1629a:	4791                	li	a5,4
   1629c:	4561                	li	a0,24
   1629e:	4595                	li	a1,5
   162a0:	06300693          	li	a3,99
   162a4:	4711                	li	a4,4
   162a6:	00000073          	ecall
   162aa:	00851863          	bne	a0,s0,162ba <_ZN20complex_dynamic_type3app17h9a7d89c65b2bac25E+0x60>
   162ae:	4505                	li	a0,1
   162b0:	00aa0023          	sb	a0,0(s4)
   162b4:	00ba2223          	sw	a1,4(s4)
   162b8:	a09d                	j	1631e <_ZN20complex_dynamic_type3app17h9a7d89c65b2bac25E+0xc4>
   162ba:	864e                	mv	a2,s3
   162bc:	00f103a3          	sb	a5,7(sp)
   162c0:	478d                	li	a5,3
   162c2:	4561                	li	a0,24
   162c4:	458d                	li	a1,3
   162c6:	02c00693          	li	a3,44
   162ca:	470d                	li	a4,3
   162cc:	00000073          	ecall
   162d0:	00851d63          	bne	a0,s0,162ea <_ZN20complex_dynamic_type3app17h9a7d89c65b2bac25E+0x90>
   162d4:	06b14703          	lbu	a4,107(sp)
   162d8:	4505                	li	a0,1
   162da:	4609                	li	a2,2
   162dc:	00aa0023          	sb	a0,0(s4)
   162e0:	00ba2223          	sw	a1,4(s4)
   162e4:	02c71763          	bne	a4,a2,16312 <_ZN20complex_dynamic_type3app17h9a7d89c65b2bac25E+0xb8>
   162e8:	a81d                	j	1631e <_ZN20complex_dynamic_type3app17h9a7d89c65b2bac25E+0xc4>
   162ea:	4681                	li	a3,0
   162ec:	06f105a3          	sb	a5,107(sp)
   162f0:	4561                	li	a0,24
   162f2:	4595                	li	a1,5
   162f4:	460d                	li	a2,3
   162f6:	4709                	li	a4,2
   162f8:	08000793          	li	a5,128
   162fc:	00000073          	ecall
   16300:	4609                	li	a2,2
   16302:	04f57163          	bgeu	a0,a5,16344 <_ZN20complex_dynamic_type3app17h9a7d89c65b2bac25E+0xea>
   16306:	4505                	li	a0,1
   16308:	00aa0023          	sb	a0,0(s4)
   1630c:	00ba2223          	sw	a1,4(s4)
   16310:	470d                	li	a4,3
   16312:	4561                	li	a0,24
   16314:	458d                	li	a1,3
   16316:	4601                	li	a2,0
   16318:	4681                	li	a3,0
   1631a:	00000073          	ecall
   1631e:	00714703          	lbu	a4,7(sp)
   16322:	4509                	li	a0,2
   16324:	00a70863          	beq	a4,a0,16334 <_ZN20complex_dynamic_type3app17h9a7d89c65b2bac25E+0xda>
   16328:	4561                	li	a0,24
   1632a:	4595                	li	a1,5
   1632c:	4601                	li	a2,0
   1632e:	4681                	li	a3,0
   16330:	00000073          	ecall
   16334:	50ba                	lw	ra,172(sp)
   16336:	542a                	lw	s0,168(sp)
   16338:	549a                	lw	s1,164(sp)
   1633a:	590a                	lw	s2,160(sp)
   1633c:	49fa                	lw	s3,156(sp)
   1633e:	4a6a                	lw	s4,152(sp)
   16340:	614d                	addi	sp,sp,176
   16342:	8082                	ret
   16344:	00714703          	lbu	a4,7(sp)
   16348:	00c71463          	bne	a4,a2,16350 <_ZN20complex_dynamic_type3app17h9a7d89c65b2bac25E+0xf6>
   1634c:	470d                	li	a4,3
   1634e:	a815                	j	16382 <_ZN20complex_dynamic_type3app17h9a7d89c65b2bac25E+0x128>
   16350:	4561                	li	a0,24
   16352:	4595                	li	a1,5
   16354:	4601                	li	a2,0
   16356:	4681                	li	a3,0
   16358:	00000073          	ecall
   1635c:	06b14703          	lbu	a4,107(sp)
   16360:	4509                	li	a0,2
   16362:	00a103a3          	sb	a0,7(sp)
   16366:	00a71e63          	bne	a4,a0,16382 <_ZN20complex_dynamic_type3app17h9a7d89c65b2bac25E+0x128>
   1636a:	001a0513          	addi	a0,s4,1
   1636e:	02c00613          	li	a2,44
   16372:	85ce                	mv	a1,s3
   16374:	00008097          	auipc	ra,0x8
   16378:	1a0080e7          	jalr	416(ra) # 1e514 <memcpy>
   1637c:	000a0023          	sb	zero,0(s4)
   16380:	bf55                	j	16334 <_ZN20complex_dynamic_type3app17h9a7d89c65b2bac25E+0xda>
   16382:	4561                	li	a0,24
   16384:	458d                	li	a1,3
   16386:	4601                	li	a2,0
   16388:	4681                	li	a3,0
   1638a:	00000073          	ecall
   1638e:	00714903          	lbu	s2,7(sp)
   16392:	001a0513          	addi	a0,s4,1
   16396:	02c00613          	li	a2,44
   1639a:	85ce                	mv	a1,s3
   1639c:	00008097          	auipc	ra,0x8
   163a0:	178080e7          	jalr	376(ra) # 1e514 <memcpy>
   163a4:	4509                	li	a0,2
   163a6:	000a0023          	sb	zero,0(s4)
   163aa:	f8a905e3          	beq	s2,a0,16334 <_ZN20complex_dynamic_type3app17h9a7d89c65b2bac25E+0xda>
   163ae:	4561                	li	a0,24
   163b0:	4595                	li	a1,5
   163b2:	4601                	li	a2,0
   163b4:	4681                	li	a3,0
   163b6:	874a                	mv	a4,s2
   163b8:	00000073          	ecall
   163bc:	bfa5                	j	16334 <_ZN20complex_dynamic_type3app17h9a7d89c65b2bac25E+0xda>

000163be <_ZN20complex_dynamic_type3app17h9aa76b3cf95c3dc3E>:
   163be:	7135                	addi	sp,sp,-160
   163c0:	cf06                	sw	ra,156(sp)
   163c2:	cd22                	sw	s0,152(sp)
   163c4:	cb26                	sw	s1,148(sp)
   163c6:	c94a                	sw	s2,144(sp)
   163c8:	c74e                	sw	s3,140(sp)
   163ca:	c552                	sw	s4,136(sp)
   163cc:	c356                	sw	s5,132(sp)
   163ce:	8aaa                	mv	s5,a0
   163d0:	4409                	li	s0,2
   163d2:	00810523          	sb	s0,10(sp)
   163d6:	00b10493          	addi	s1,sp,11
   163da:	02700613          	li	a2,39
   163de:	8526                	mv	a0,s1
   163e0:	00008097          	auipc	ra,0x8
   163e4:	134080e7          	jalr	308(ra) # 1e514 <memcpy>
   163e8:	03310a13          	addi	s4,sp,51
   163ec:	05100613          	li	a2,81
   163f0:	8552                	mv	a0,s4
   163f2:	4581                	li	a1,0
   163f4:	00008097          	auipc	ra,0x8
   163f8:	0b4080e7          	jalr	180(ra) # 1e4a8 <memset>
   163fc:	4581                	li	a1,0
   163fe:	8626                	mv	a2,s1
   16400:	02810923          	sb	s0,50(sp)
   16404:	6505                	lui	a0,0x1
   16406:	4491                	li	s1,4
   16408:	a3650793          	addi	a5,a0,-1482 # a36 <.Lline_table_start1+0x80b>
   1640c:	02700693          	li	a3,39
   16410:	4711                	li	a4,4
   16412:	853e                	mv	a0,a5
   16414:	00000073          	ecall
   16418:	00851863          	bne	a0,s0,16428 <_ZN20complex_dynamic_type3app17h9aa76b3cf95c3dc3E+0x6a>
   1641c:	4505                	li	a0,1
   1641e:	00aa8023          	sb	a0,0(s5)
   16422:	00baa223          	sw	a1,4(s5)
   16426:	a0bd                	j	16494 <_ZN20complex_dynamic_type3app17h9aa76b3cf95c3dc3E+0xd6>
   16428:	853e                	mv	a0,a5
   1642a:	8652                	mv	a2,s4
   1642c:	00910523          	sb	s1,10(sp)
   16430:	478d                	li	a5,3
   16432:	4591                	li	a1,4
   16434:	05100693          	li	a3,81
   16438:	470d                	li	a4,3
   1643a:	00000073          	ecall
   1643e:	00851d63          	bne	a0,s0,16458 <_ZN20complex_dynamic_type3app17h9aa76b3cf95c3dc3E+0x9a>
   16442:	03214703          	lbu	a4,50(sp)
   16446:	4505                	li	a0,1
   16448:	4609                	li	a2,2
   1644a:	00aa8023          	sb	a0,0(s5)
   1644e:	00baa223          	sw	a1,4(s5)
   16452:	02c71963          	bne	a4,a2,16484 <_ZN20complex_dynamic_type3app17h9aa76b3cf95c3dc3E+0xc6>
   16456:	a83d                	j	16494 <_ZN20complex_dynamic_type3app17h9aa76b3cf95c3dc3E+0xd6>
   16458:	4581                	li	a1,0
   1645a:	4681                	li	a3,0
   1645c:	02f10923          	sb	a5,50(sp)
   16460:	6505                	lui	a0,0x1
   16462:	4611                	li	a2,4
   16464:	4709                	li	a4,2
   16466:	a3650513          	addi	a0,a0,-1482 # a36 <.Lline_table_start1+0x80b>
   1646a:	08000793          	li	a5,128
   1646e:	00000073          	ecall
   16472:	4609                	li	a2,2
   16474:	04f57663          	bgeu	a0,a5,164c0 <_ZN20complex_dynamic_type3app17h9aa76b3cf95c3dc3E+0x102>
   16478:	4505                	li	a0,1
   1647a:	00aa8023          	sb	a0,0(s5)
   1647e:	00baa223          	sw	a1,4(s5)
   16482:	470d                	li	a4,3
   16484:	6505                	lui	a0,0x1
   16486:	a3650513          	addi	a0,a0,-1482 # a36 <.Lline_table_start1+0x80b>
   1648a:	4591                	li	a1,4
   1648c:	4601                	li	a2,0
   1648e:	4681                	li	a3,0
   16490:	00000073          	ecall
   16494:	00a14703          	lbu	a4,10(sp)
   16498:	4509                	li	a0,2
   1649a:	00a70a63          	beq	a4,a0,164ae <_ZN20complex_dynamic_type3app17h9aa76b3cf95c3dc3E+0xf0>
   1649e:	6505                	lui	a0,0x1
   164a0:	a3650513          	addi	a0,a0,-1482 # a36 <.Lline_table_start1+0x80b>
   164a4:	4581                	li	a1,0
   164a6:	4601                	li	a2,0
   164a8:	4681                	li	a3,0
   164aa:	00000073          	ecall
   164ae:	40fa                	lw	ra,156(sp)
   164b0:	446a                	lw	s0,152(sp)
   164b2:	44da                	lw	s1,148(sp)
   164b4:	494a                	lw	s2,144(sp)
   164b6:	49ba                	lw	s3,140(sp)
   164b8:	4a2a                	lw	s4,136(sp)
   164ba:	4a9a                	lw	s5,132(sp)
   164bc:	610d                	addi	sp,sp,160
   164be:	8082                	ret
   164c0:	00a14703          	lbu	a4,10(sp)
   164c4:	00c71463          	bne	a4,a2,164cc <_ZN20complex_dynamic_type3app17h9aa76b3cf95c3dc3E+0x10e>
   164c8:	470d                	li	a4,3
   164ca:	a825                	j	16502 <_ZN20complex_dynamic_type3app17h9aa76b3cf95c3dc3E+0x144>
   164cc:	6505                	lui	a0,0x1
   164ce:	a3650513          	addi	a0,a0,-1482 # a36 <.Lline_table_start1+0x80b>
   164d2:	4581                	li	a1,0
   164d4:	4601                	li	a2,0
   164d6:	4681                	li	a3,0
   164d8:	00000073          	ecall
   164dc:	03214703          	lbu	a4,50(sp)
   164e0:	4509                	li	a0,2
   164e2:	00a10523          	sb	a0,10(sp)
   164e6:	00a71e63          	bne	a4,a0,16502 <_ZN20complex_dynamic_type3app17h9aa76b3cf95c3dc3E+0x144>
   164ea:	001a8513          	addi	a0,s5,1
   164ee:	05100613          	li	a2,81
   164f2:	85d2                	mv	a1,s4
   164f4:	00008097          	auipc	ra,0x8
   164f8:	020080e7          	jalr	32(ra) # 1e514 <memcpy>
   164fc:	000a8023          	sb	zero,0(s5)
   16500:	b77d                	j	164ae <_ZN20complex_dynamic_type3app17h9aa76b3cf95c3dc3E+0xf0>
   16502:	6505                	lui	a0,0x1
   16504:	a3650913          	addi	s2,a0,-1482 # a36 <.Lline_table_start1+0x80b>
   16508:	4591                	li	a1,4
   1650a:	854a                	mv	a0,s2
   1650c:	4601                	li	a2,0
   1650e:	4681                	li	a3,0
   16510:	00000073          	ecall
   16514:	00a14983          	lbu	s3,10(sp)
   16518:	001a8513          	addi	a0,s5,1
   1651c:	05100613          	li	a2,81
   16520:	85d2                	mv	a1,s4
   16522:	00008097          	auipc	ra,0x8
   16526:	ff2080e7          	jalr	-14(ra) # 1e514 <memcpy>
   1652a:	4509                	li	a0,2
   1652c:	000a8023          	sb	zero,0(s5)
   16530:	f6a98fe3          	beq	s3,a0,164ae <_ZN20complex_dynamic_type3app17h9aa76b3cf95c3dc3E+0xf0>
   16534:	854a                	mv	a0,s2
   16536:	4581                	li	a1,0
   16538:	4601                	li	a2,0
   1653a:	4681                	li	a3,0
   1653c:	874e                	mv	a4,s3
   1653e:	00000073          	ecall
   16542:	b7b5                	j	164ae <_ZN20complex_dynamic_type3app17h9aa76b3cf95c3dc3E+0xf0>

00016544 <_ZN20complex_dynamic_type3app17h9f2a940f2945ecfcE>:
   16544:	7119                	addi	sp,sp,-128
   16546:	de86                	sw	ra,124(sp)
   16548:	dca2                	sw	s0,120(sp)
   1654a:	daa6                	sw	s1,116(sp)
   1654c:	d8ca                	sw	s2,112(sp)
   1654e:	d6ce                	sw	s3,108(sp)
   16550:	d4d2                	sw	s4,104(sp)
   16552:	d2d6                	sw	s5,100(sp)
   16554:	8aaa                	mv	s5,a0
   16556:	4409                	li	s0,2
   16558:	008107a3          	sb	s0,15(sp)
   1655c:	0804                	addi	s1,sp,16
   1655e:	02400613          	li	a2,36
   16562:	8526                	mv	a0,s1
   16564:	00008097          	auipc	ra,0x8
   16568:	fb0080e7          	jalr	-80(ra) # 1e514 <memcpy>
   1656c:	03510a13          	addi	s4,sp,53
   16570:	02f00613          	li	a2,47
   16574:	8552                	mv	a0,s4
   16576:	4581                	li	a1,0
   16578:	00008097          	auipc	ra,0x8
   1657c:	f30080e7          	jalr	-208(ra) # 1e4a8 <memset>
   16580:	8626                	mv	a2,s1
   16582:	02810a23          	sb	s0,52(sp)
   16586:	6505                	lui	a0,0x1
   16588:	4491                	li	s1,4
   1658a:	4599                	li	a1,6
   1658c:	27350793          	addi	a5,a0,627 # 1273 <.Lline_table_start1+0x1048>
   16590:	02400693          	li	a3,36
   16594:	4711                	li	a4,4
   16596:	853e                	mv	a0,a5
   16598:	00000073          	ecall
   1659c:	00851863          	bne	a0,s0,165ac <_ZN20complex_dynamic_type3app17h9f2a940f2945ecfcE+0x68>
   165a0:	4505                	li	a0,1
   165a2:	00aa8023          	sb	a0,0(s5)
   165a6:	00baa223          	sw	a1,4(s5)
   165aa:	a0bd                	j	16618 <_ZN20complex_dynamic_type3app17h9f2a940f2945ecfcE+0xd4>
   165ac:	853e                	mv	a0,a5
   165ae:	8652                	mv	a2,s4
   165b0:	009107a3          	sb	s1,15(sp)
   165b4:	478d                	li	a5,3
   165b6:	45a5                	li	a1,9
   165b8:	02f00693          	li	a3,47
   165bc:	470d                	li	a4,3
   165be:	00000073          	ecall
   165c2:	00851d63          	bne	a0,s0,165dc <_ZN20complex_dynamic_type3app17h9f2a940f2945ecfcE+0x98>
   165c6:	03414703          	lbu	a4,52(sp)
   165ca:	4505                	li	a0,1
   165cc:	4609                	li	a2,2
   165ce:	00aa8023          	sb	a0,0(s5)
   165d2:	00baa223          	sw	a1,4(s5)
   165d6:	02c71963          	bne	a4,a2,16608 <_ZN20complex_dynamic_type3app17h9f2a940f2945ecfcE+0xc4>
   165da:	a83d                	j	16618 <_ZN20complex_dynamic_type3app17h9f2a940f2945ecfcE+0xd4>
   165dc:	4681                	li	a3,0
   165de:	02f10a23          	sb	a5,52(sp)
   165e2:	6505                	lui	a0,0x1
   165e4:	4599                	li	a1,6
   165e6:	4625                	li	a2,9
   165e8:	4709                	li	a4,2
   165ea:	27350513          	addi	a0,a0,627 # 1273 <.Lline_table_start1+0x1048>
   165ee:	08000793          	li	a5,128
   165f2:	00000073          	ecall
   165f6:	4609                	li	a2,2
   165f8:	04f57663          	bgeu	a0,a5,16644 <_ZN20complex_dynamic_type3app17h9f2a940f2945ecfcE+0x100>
   165fc:	4505                	li	a0,1
   165fe:	00aa8023          	sb	a0,0(s5)
   16602:	00baa223          	sw	a1,4(s5)
   16606:	470d                	li	a4,3
   16608:	6505                	lui	a0,0x1
   1660a:	27350513          	addi	a0,a0,627 # 1273 <.Lline_table_start1+0x1048>
   1660e:	45a5                	li	a1,9
   16610:	4601                	li	a2,0
   16612:	4681                	li	a3,0
   16614:	00000073          	ecall
   16618:	00f14703          	lbu	a4,15(sp)
   1661c:	4509                	li	a0,2
   1661e:	00a70a63          	beq	a4,a0,16632 <_ZN20complex_dynamic_type3app17h9f2a940f2945ecfcE+0xee>
   16622:	6505                	lui	a0,0x1
   16624:	27350513          	addi	a0,a0,627 # 1273 <.Lline_table_start1+0x1048>
   16628:	4599                	li	a1,6
   1662a:	4601                	li	a2,0
   1662c:	4681                	li	a3,0
   1662e:	00000073          	ecall
   16632:	50f6                	lw	ra,124(sp)
   16634:	5466                	lw	s0,120(sp)
   16636:	54d6                	lw	s1,116(sp)
   16638:	5946                	lw	s2,112(sp)
   1663a:	59b6                	lw	s3,108(sp)
   1663c:	5a26                	lw	s4,104(sp)
   1663e:	5a96                	lw	s5,100(sp)
   16640:	6109                	addi	sp,sp,128
   16642:	8082                	ret
   16644:	00f14703          	lbu	a4,15(sp)
   16648:	00c71463          	bne	a4,a2,16650 <_ZN20complex_dynamic_type3app17h9f2a940f2945ecfcE+0x10c>
   1664c:	470d                	li	a4,3
   1664e:	a825                	j	16686 <_ZN20complex_dynamic_type3app17h9f2a940f2945ecfcE+0x142>
   16650:	6505                	lui	a0,0x1
   16652:	27350513          	addi	a0,a0,627 # 1273 <.Lline_table_start1+0x1048>
   16656:	4599                	li	a1,6
   16658:	4601                	li	a2,0
   1665a:	4681                	li	a3,0
   1665c:	00000073          	ecall
   16660:	03414703          	lbu	a4,52(sp)
   16664:	4509                	li	a0,2
   16666:	00a107a3          	sb	a0,15(sp)
   1666a:	00a71e63          	bne	a4,a0,16686 <_ZN20complex_dynamic_type3app17h9f2a940f2945ecfcE+0x142>
   1666e:	001a8513          	addi	a0,s5,1
   16672:	02f00613          	li	a2,47
   16676:	85d2                	mv	a1,s4
   16678:	00008097          	auipc	ra,0x8
   1667c:	e9c080e7          	jalr	-356(ra) # 1e514 <memcpy>
   16680:	000a8023          	sb	zero,0(s5)
   16684:	b77d                	j	16632 <_ZN20complex_dynamic_type3app17h9f2a940f2945ecfcE+0xee>
   16686:	6505                	lui	a0,0x1
   16688:	27350913          	addi	s2,a0,627 # 1273 <.Lline_table_start1+0x1048>
   1668c:	45a5                	li	a1,9
   1668e:	854a                	mv	a0,s2
   16690:	4601                	li	a2,0
   16692:	4681                	li	a3,0
   16694:	00000073          	ecall
   16698:	00f14983          	lbu	s3,15(sp)
   1669c:	001a8513          	addi	a0,s5,1
   166a0:	02f00613          	li	a2,47
   166a4:	85d2                	mv	a1,s4
   166a6:	00008097          	auipc	ra,0x8
   166aa:	e6e080e7          	jalr	-402(ra) # 1e514 <memcpy>
   166ae:	4509                	li	a0,2
   166b0:	000a8023          	sb	zero,0(s5)
   166b4:	f6a98fe3          	beq	s3,a0,16632 <_ZN20complex_dynamic_type3app17h9f2a940f2945ecfcE+0xee>
   166b8:	4599                	li	a1,6
   166ba:	854a                	mv	a0,s2
   166bc:	4601                	li	a2,0
   166be:	4681                	li	a3,0
   166c0:	874e                	mv	a4,s3
   166c2:	00000073          	ecall
   166c6:	b7b5                	j	16632 <_ZN20complex_dynamic_type3app17h9f2a940f2945ecfcE+0xee>

000166c8 <_ZN20complex_dynamic_type3app17h9f83ba307bbbaffbE>:
   166c8:	7159                	addi	sp,sp,-112
   166ca:	d686                	sw	ra,108(sp)
   166cc:	d4a2                	sw	s0,104(sp)
   166ce:	d2a6                	sw	s1,100(sp)
   166d0:	d0ca                	sw	s2,96(sp)
   166d2:	cece                	sw	s3,92(sp)
   166d4:	ccd2                	sw	s4,88(sp)
   166d6:	cad6                	sw	s5,84(sp)
   166d8:	8aaa                	mv	s5,a0
   166da:	4409                	li	s0,2
   166dc:	00810223          	sb	s0,4(sp)
   166e0:	00510493          	addi	s1,sp,5
   166e4:	03400613          	li	a2,52
   166e8:	8526                	mv	a0,s1
   166ea:	00008097          	auipc	ra,0x8
   166ee:	e2a080e7          	jalr	-470(ra) # 1e514 <memcpy>
   166f2:	03a10a13          	addi	s4,sp,58
   166f6:	4669                	li	a2,26
   166f8:	8552                	mv	a0,s4
   166fa:	4581                	li	a1,0
   166fc:	00008097          	auipc	ra,0x8
   16700:	dac080e7          	jalr	-596(ra) # 1e4a8 <memset>
   16704:	4581                	li	a1,0
   16706:	8626                	mv	a2,s1
   16708:	02810ca3          	sb	s0,57(sp)
   1670c:	6505                	lui	a0,0x1
   1670e:	4491                	li	s1,4
   16710:	2cc50793          	addi	a5,a0,716 # 12cc <.Lline_table_start1+0x10a1>
   16714:	03400693          	li	a3,52
   16718:	4711                	li	a4,4
   1671a:	853e                	mv	a0,a5
   1671c:	00000073          	ecall
   16720:	00851863          	bne	a0,s0,16730 <_ZN20complex_dynamic_type3app17h9f83ba307bbbaffbE+0x68>
   16724:	4505                	li	a0,1
   16726:	00aa8023          	sb	a0,0(s5)
   1672a:	00baa223          	sw	a1,4(s5)
   1672e:	a0b5                	j	1679a <_ZN20complex_dynamic_type3app17h9f83ba307bbbaffbE+0xd2>
   16730:	853e                	mv	a0,a5
   16732:	8652                	mv	a2,s4
   16734:	00910223          	sb	s1,4(sp)
   16738:	478d                	li	a5,3
   1673a:	4595                	li	a1,5
   1673c:	46e9                	li	a3,26
   1673e:	470d                	li	a4,3
   16740:	00000073          	ecall
   16744:	00851d63          	bne	a0,s0,1675e <_ZN20complex_dynamic_type3app17h9f83ba307bbbaffbE+0x96>
   16748:	03914703          	lbu	a4,57(sp)
   1674c:	4505                	li	a0,1
   1674e:	4609                	li	a2,2
   16750:	00aa8023          	sb	a0,0(s5)
   16754:	00baa223          	sw	a1,4(s5)
   16758:	02c71963          	bne	a4,a2,1678a <_ZN20complex_dynamic_type3app17h9f83ba307bbbaffbE+0xc2>
   1675c:	a83d                	j	1679a <_ZN20complex_dynamic_type3app17h9f83ba307bbbaffbE+0xd2>
   1675e:	4581                	li	a1,0
   16760:	4681                	li	a3,0
   16762:	02f10ca3          	sb	a5,57(sp)
   16766:	6505                	lui	a0,0x1
   16768:	4615                	li	a2,5
   1676a:	4709                	li	a4,2
   1676c:	2cc50513          	addi	a0,a0,716 # 12cc <.Lline_table_start1+0x10a1>
   16770:	08000793          	li	a5,128
   16774:	00000073          	ecall
   16778:	4609                	li	a2,2
   1677a:	04f57663          	bgeu	a0,a5,167c6 <_ZN20complex_dynamic_type3app17h9f83ba307bbbaffbE+0xfe>
   1677e:	4505                	li	a0,1
   16780:	00aa8023          	sb	a0,0(s5)
   16784:	00baa223          	sw	a1,4(s5)
   16788:	470d                	li	a4,3
   1678a:	6505                	lui	a0,0x1
   1678c:	2cc50513          	addi	a0,a0,716 # 12cc <.Lline_table_start1+0x10a1>
   16790:	4595                	li	a1,5
   16792:	4601                	li	a2,0
   16794:	4681                	li	a3,0
   16796:	00000073          	ecall
   1679a:	00414703          	lbu	a4,4(sp)
   1679e:	4509                	li	a0,2
   167a0:	00a70a63          	beq	a4,a0,167b4 <_ZN20complex_dynamic_type3app17h9f83ba307bbbaffbE+0xec>
   167a4:	6505                	lui	a0,0x1
   167a6:	2cc50513          	addi	a0,a0,716 # 12cc <.Lline_table_start1+0x10a1>
   167aa:	4581                	li	a1,0
   167ac:	4601                	li	a2,0
   167ae:	4681                	li	a3,0
   167b0:	00000073          	ecall
   167b4:	50b6                	lw	ra,108(sp)
   167b6:	5426                	lw	s0,104(sp)
   167b8:	5496                	lw	s1,100(sp)
   167ba:	5906                	lw	s2,96(sp)
   167bc:	49f6                	lw	s3,92(sp)
   167be:	4a66                	lw	s4,88(sp)
   167c0:	4ad6                	lw	s5,84(sp)
   167c2:	6165                	addi	sp,sp,112
   167c4:	8082                	ret
   167c6:	00414703          	lbu	a4,4(sp)
   167ca:	00c71463          	bne	a4,a2,167d2 <_ZN20complex_dynamic_type3app17h9f83ba307bbbaffbE+0x10a>
   167ce:	470d                	li	a4,3
   167d0:	a81d                	j	16806 <_ZN20complex_dynamic_type3app17h9f83ba307bbbaffbE+0x13e>
   167d2:	6505                	lui	a0,0x1
   167d4:	2cc50513          	addi	a0,a0,716 # 12cc <.Lline_table_start1+0x10a1>
   167d8:	4581                	li	a1,0
   167da:	4601                	li	a2,0
   167dc:	4681                	li	a3,0
   167de:	00000073          	ecall
   167e2:	03914703          	lbu	a4,57(sp)
   167e6:	4509                	li	a0,2
   167e8:	00a10223          	sb	a0,4(sp)
   167ec:	00a71d63          	bne	a4,a0,16806 <_ZN20complex_dynamic_type3app17h9f83ba307bbbaffbE+0x13e>
   167f0:	001a8513          	addi	a0,s5,1
   167f4:	4669                	li	a2,26
   167f6:	85d2                	mv	a1,s4
   167f8:	00008097          	auipc	ra,0x8
   167fc:	d1c080e7          	jalr	-740(ra) # 1e514 <memcpy>
   16800:	000a8023          	sb	zero,0(s5)
   16804:	bf45                	j	167b4 <_ZN20complex_dynamic_type3app17h9f83ba307bbbaffbE+0xec>
   16806:	6505                	lui	a0,0x1
   16808:	2cc50913          	addi	s2,a0,716 # 12cc <.Lline_table_start1+0x10a1>
   1680c:	4595                	li	a1,5
   1680e:	854a                	mv	a0,s2
   16810:	4601                	li	a2,0
   16812:	4681                	li	a3,0
   16814:	00000073          	ecall
   16818:	00414983          	lbu	s3,4(sp)
   1681c:	001a8513          	addi	a0,s5,1
   16820:	4669                	li	a2,26
   16822:	85d2                	mv	a1,s4
   16824:	00008097          	auipc	ra,0x8
   16828:	cf0080e7          	jalr	-784(ra) # 1e514 <memcpy>
   1682c:	4509                	li	a0,2
   1682e:	000a8023          	sb	zero,0(s5)
   16832:	f8a981e3          	beq	s3,a0,167b4 <_ZN20complex_dynamic_type3app17h9f83ba307bbbaffbE+0xec>
   16836:	854a                	mv	a0,s2
   16838:	4581                	li	a1,0
   1683a:	4601                	li	a2,0
   1683c:	4681                	li	a3,0
   1683e:	874e                	mv	a4,s3
   16840:	00000073          	ecall
   16844:	bf85                	j	167b4 <_ZN20complex_dynamic_type3app17h9f83ba307bbbaffbE+0xec>

00016846 <_ZN20complex_dynamic_type3app17ha51a51679280d6dbE>:
   16846:	7135                	addi	sp,sp,-160
   16848:	cf06                	sw	ra,156(sp)
   1684a:	cd22                	sw	s0,152(sp)
   1684c:	cb26                	sw	s1,148(sp)
   1684e:	c94a                	sw	s2,144(sp)
   16850:	c74e                	sw	s3,140(sp)
   16852:	c552                	sw	s4,136(sp)
   16854:	c356                	sw	s5,132(sp)
   16856:	8aaa                	mv	s5,a0
   16858:	4409                	li	s0,2
   1685a:	00810723          	sb	s0,14(sp)
   1685e:	00f10493          	addi	s1,sp,15
   16862:	03c00613          	li	a2,60
   16866:	8526                	mv	a0,s1
   16868:	00008097          	auipc	ra,0x8
   1686c:	cac080e7          	jalr	-852(ra) # 1e514 <memcpy>
   16870:	04c10a13          	addi	s4,sp,76
   16874:	03800613          	li	a2,56
   16878:	8552                	mv	a0,s4
   1687a:	4581                	li	a1,0
   1687c:	00008097          	auipc	ra,0x8
   16880:	c2c080e7          	jalr	-980(ra) # 1e4a8 <memset>
   16884:	8626                	mv	a2,s1
   16886:	048105a3          	sb	s0,75(sp)
   1688a:	6509                	lui	a0,0x2
   1688c:	4491                	li	s1,4
   1688e:	458d                	li	a1,3
   16890:	d1950793          	addi	a5,a0,-743 # 1d19 <.Lline_table_start1+0x1aee>
   16894:	03c00693          	li	a3,60
   16898:	4711                	li	a4,4
   1689a:	853e                	mv	a0,a5
   1689c:	00000073          	ecall
   168a0:	00851863          	bne	a0,s0,168b0 <_ZN20complex_dynamic_type3app17ha51a51679280d6dbE+0x6a>
   168a4:	4505                	li	a0,1
   168a6:	00aa8023          	sb	a0,0(s5)
   168aa:	00baa223          	sw	a1,4(s5)
   168ae:	a0bd                	j	1691c <_ZN20complex_dynamic_type3app17ha51a51679280d6dbE+0xd6>
   168b0:	853e                	mv	a0,a5
   168b2:	8652                	mv	a2,s4
   168b4:	00910723          	sb	s1,14(sp)
   168b8:	478d                	li	a5,3
   168ba:	458d                	li	a1,3
   168bc:	03800693          	li	a3,56
   168c0:	470d                	li	a4,3
   168c2:	00000073          	ecall
   168c6:	00851d63          	bne	a0,s0,168e0 <_ZN20complex_dynamic_type3app17ha51a51679280d6dbE+0x9a>
   168ca:	04b14703          	lbu	a4,75(sp)
   168ce:	4505                	li	a0,1
   168d0:	4609                	li	a2,2
   168d2:	00aa8023          	sb	a0,0(s5)
   168d6:	00baa223          	sw	a1,4(s5)
   168da:	02c71963          	bne	a4,a2,1690c <_ZN20complex_dynamic_type3app17ha51a51679280d6dbE+0xc6>
   168de:	a83d                	j	1691c <_ZN20complex_dynamic_type3app17ha51a51679280d6dbE+0xd6>
   168e0:	4681                	li	a3,0
   168e2:	04f105a3          	sb	a5,75(sp)
   168e6:	6509                	lui	a0,0x2
   168e8:	458d                	li	a1,3
   168ea:	460d                	li	a2,3
   168ec:	4709                	li	a4,2
   168ee:	d1950513          	addi	a0,a0,-743 # 1d19 <.Lline_table_start1+0x1aee>
   168f2:	08000793          	li	a5,128
   168f6:	00000073          	ecall
   168fa:	4609                	li	a2,2
   168fc:	04f57663          	bgeu	a0,a5,16948 <_ZN20complex_dynamic_type3app17ha51a51679280d6dbE+0x102>
   16900:	4505                	li	a0,1
   16902:	00aa8023          	sb	a0,0(s5)
   16906:	00baa223          	sw	a1,4(s5)
   1690a:	470d                	li	a4,3
   1690c:	6509                	lui	a0,0x2
   1690e:	d1950513          	addi	a0,a0,-743 # 1d19 <.Lline_table_start1+0x1aee>
   16912:	458d                	li	a1,3
   16914:	4601                	li	a2,0
   16916:	4681                	li	a3,0
   16918:	00000073          	ecall
   1691c:	00e14703          	lbu	a4,14(sp)
   16920:	4509                	li	a0,2
   16922:	00a70a63          	beq	a4,a0,16936 <_ZN20complex_dynamic_type3app17ha51a51679280d6dbE+0xf0>
   16926:	6509                	lui	a0,0x2
   16928:	d1950513          	addi	a0,a0,-743 # 1d19 <.Lline_table_start1+0x1aee>
   1692c:	458d                	li	a1,3
   1692e:	4601                	li	a2,0
   16930:	4681                	li	a3,0
   16932:	00000073          	ecall
   16936:	40fa                	lw	ra,156(sp)
   16938:	446a                	lw	s0,152(sp)
   1693a:	44da                	lw	s1,148(sp)
   1693c:	494a                	lw	s2,144(sp)
   1693e:	49ba                	lw	s3,140(sp)
   16940:	4a2a                	lw	s4,136(sp)
   16942:	4a9a                	lw	s5,132(sp)
   16944:	610d                	addi	sp,sp,160
   16946:	8082                	ret
   16948:	00e14703          	lbu	a4,14(sp)
   1694c:	00c71463          	bne	a4,a2,16954 <_ZN20complex_dynamic_type3app17ha51a51679280d6dbE+0x10e>
   16950:	470d                	li	a4,3
   16952:	a825                	j	1698a <_ZN20complex_dynamic_type3app17ha51a51679280d6dbE+0x144>
   16954:	6509                	lui	a0,0x2
   16956:	d1950513          	addi	a0,a0,-743 # 1d19 <.Lline_table_start1+0x1aee>
   1695a:	458d                	li	a1,3
   1695c:	4601                	li	a2,0
   1695e:	4681                	li	a3,0
   16960:	00000073          	ecall
   16964:	04b14703          	lbu	a4,75(sp)
   16968:	4509                	li	a0,2
   1696a:	00a10723          	sb	a0,14(sp)
   1696e:	00a71e63          	bne	a4,a0,1698a <_ZN20complex_dynamic_type3app17ha51a51679280d6dbE+0x144>
   16972:	001a8513          	addi	a0,s5,1
   16976:	03800613          	li	a2,56
   1697a:	85d2                	mv	a1,s4
   1697c:	00008097          	auipc	ra,0x8
   16980:	b98080e7          	jalr	-1128(ra) # 1e514 <memcpy>
   16984:	000a8023          	sb	zero,0(s5)
   16988:	b77d                	j	16936 <_ZN20complex_dynamic_type3app17ha51a51679280d6dbE+0xf0>
   1698a:	6509                	lui	a0,0x2
   1698c:	d1950913          	addi	s2,a0,-743 # 1d19 <.Lline_table_start1+0x1aee>
   16990:	458d                	li	a1,3
   16992:	854a                	mv	a0,s2
   16994:	4601                	li	a2,0
   16996:	4681                	li	a3,0
   16998:	00000073          	ecall
   1699c:	00e14983          	lbu	s3,14(sp)
   169a0:	001a8513          	addi	a0,s5,1
   169a4:	03800613          	li	a2,56
   169a8:	85d2                	mv	a1,s4
   169aa:	00008097          	auipc	ra,0x8
   169ae:	b6a080e7          	jalr	-1174(ra) # 1e514 <memcpy>
   169b2:	4509                	li	a0,2
   169b4:	000a8023          	sb	zero,0(s5)
   169b8:	f6a98fe3          	beq	s3,a0,16936 <_ZN20complex_dynamic_type3app17ha51a51679280d6dbE+0xf0>
   169bc:	458d                	li	a1,3
   169be:	854a                	mv	a0,s2
   169c0:	4601                	li	a2,0
   169c2:	4681                	li	a3,0
   169c4:	874e                	mv	a4,s3
   169c6:	00000073          	ecall
   169ca:	b7b5                	j	16936 <_ZN20complex_dynamic_type3app17ha51a51679280d6dbE+0xf0>

000169cc <_ZN20complex_dynamic_type3app17ha53c57e0b87aa67dE>:
   169cc:	7159                	addi	sp,sp,-112
   169ce:	d686                	sw	ra,108(sp)
   169d0:	d4a2                	sw	s0,104(sp)
   169d2:	d2a6                	sw	s1,100(sp)
   169d4:	d0ca                	sw	s2,96(sp)
   169d6:	cece                	sw	s3,92(sp)
   169d8:	ccd2                	sw	s4,88(sp)
   169da:	8a2a                	mv	s4,a0
   169dc:	4409                	li	s0,2
   169de:	008102a3          	sb	s0,5(sp)
   169e2:	00610493          	addi	s1,sp,6
   169e6:	02c00613          	li	a2,44
   169ea:	8526                	mv	a0,s1
   169ec:	00008097          	auipc	ra,0x8
   169f0:	b28080e7          	jalr	-1240(ra) # 1e514 <memcpy>
   169f4:	03310993          	addi	s3,sp,51
   169f8:	02500613          	li	a2,37
   169fc:	854e                	mv	a0,s3
   169fe:	4581                	li	a1,0
   16a00:	00008097          	auipc	ra,0x8
   16a04:	aa8080e7          	jalr	-1368(ra) # 1e4a8 <memset>
   16a08:	8626                	mv	a2,s1
   16a0a:	02810923          	sb	s0,50(sp)
   16a0e:	4791                	li	a5,4
   16a10:	77f00513          	li	a0,1919
   16a14:	458d                	li	a1,3
   16a16:	02c00693          	li	a3,44
   16a1a:	4711                	li	a4,4
   16a1c:	00000073          	ecall
   16a20:	00851863          	bne	a0,s0,16a30 <_ZN20complex_dynamic_type3app17ha53c57e0b87aa67dE+0x64>
   16a24:	4505                	li	a0,1
   16a26:	00aa0023          	sb	a0,0(s4)
   16a2a:	00ba2223          	sw	a1,4(s4)
   16a2e:	a0b5                	j	16a9a <_ZN20complex_dynamic_type3app17ha53c57e0b87aa67dE+0xce>
   16a30:	4581                	li	a1,0
   16a32:	864e                	mv	a2,s3
   16a34:	00f102a3          	sb	a5,5(sp)
   16a38:	478d                	li	a5,3
   16a3a:	77f00513          	li	a0,1919
   16a3e:	02500693          	li	a3,37
   16a42:	470d                	li	a4,3
   16a44:	00000073          	ecall
   16a48:	00851d63          	bne	a0,s0,16a62 <_ZN20complex_dynamic_type3app17ha53c57e0b87aa67dE+0x96>
   16a4c:	03214703          	lbu	a4,50(sp)
   16a50:	4505                	li	a0,1
   16a52:	4609                	li	a2,2
   16a54:	00aa0023          	sb	a0,0(s4)
   16a58:	00ba2223          	sw	a1,4(s4)
   16a5c:	02c71863          	bne	a4,a2,16a8c <_ZN20complex_dynamic_type3app17ha53c57e0b87aa67dE+0xc0>
   16a60:	a82d                	j	16a9a <_ZN20complex_dynamic_type3app17ha53c57e0b87aa67dE+0xce>
   16a62:	4601                	li	a2,0
   16a64:	4681                	li	a3,0
   16a66:	02f10923          	sb	a5,50(sp)
   16a6a:	77f00513          	li	a0,1919
   16a6e:	458d                	li	a1,3
   16a70:	4709                	li	a4,2
   16a72:	08000793          	li	a5,128
   16a76:	00000073          	ecall
   16a7a:	4609                	li	a2,2
   16a7c:	04f57363          	bgeu	a0,a5,16ac2 <_ZN20complex_dynamic_type3app17ha53c57e0b87aa67dE+0xf6>
   16a80:	4505                	li	a0,1
   16a82:	00aa0023          	sb	a0,0(s4)
   16a86:	00ba2223          	sw	a1,4(s4)
   16a8a:	470d                	li	a4,3
   16a8c:	77f00513          	li	a0,1919
   16a90:	4581                	li	a1,0
   16a92:	4601                	li	a2,0
   16a94:	4681                	li	a3,0
   16a96:	00000073          	ecall
   16a9a:	00514703          	lbu	a4,5(sp)
   16a9e:	4509                	li	a0,2
   16aa0:	00a70963          	beq	a4,a0,16ab2 <_ZN20complex_dynamic_type3app17ha53c57e0b87aa67dE+0xe6>
   16aa4:	77f00513          	li	a0,1919
   16aa8:	458d                	li	a1,3
   16aaa:	4601                	li	a2,0
   16aac:	4681                	li	a3,0
   16aae:	00000073          	ecall
   16ab2:	50b6                	lw	ra,108(sp)
   16ab4:	5426                	lw	s0,104(sp)
   16ab6:	5496                	lw	s1,100(sp)
   16ab8:	5906                	lw	s2,96(sp)
   16aba:	49f6                	lw	s3,92(sp)
   16abc:	4a66                	lw	s4,88(sp)
   16abe:	6165                	addi	sp,sp,112
   16ac0:	8082                	ret
   16ac2:	00514703          	lbu	a4,5(sp)
   16ac6:	00c71463          	bne	a4,a2,16ace <_ZN20complex_dynamic_type3app17ha53c57e0b87aa67dE+0x102>
   16aca:	470d                	li	a4,3
   16acc:	a81d                	j	16b02 <_ZN20complex_dynamic_type3app17ha53c57e0b87aa67dE+0x136>
   16ace:	77f00513          	li	a0,1919
   16ad2:	458d                	li	a1,3
   16ad4:	4601                	li	a2,0
   16ad6:	4681                	li	a3,0
   16ad8:	00000073          	ecall
   16adc:	03214703          	lbu	a4,50(sp)
   16ae0:	4509                	li	a0,2
   16ae2:	00a102a3          	sb	a0,5(sp)
   16ae6:	00a71e63          	bne	a4,a0,16b02 <_ZN20complex_dynamic_type3app17ha53c57e0b87aa67dE+0x136>
   16aea:	001a0513          	addi	a0,s4,1
   16aee:	02500613          	li	a2,37
   16af2:	85ce                	mv	a1,s3
   16af4:	00008097          	auipc	ra,0x8
   16af8:	a20080e7          	jalr	-1504(ra) # 1e514 <memcpy>
   16afc:	000a0023          	sb	zero,0(s4)
   16b00:	bf4d                	j	16ab2 <_ZN20complex_dynamic_type3app17ha53c57e0b87aa67dE+0xe6>
   16b02:	77f00513          	li	a0,1919
   16b06:	4581                	li	a1,0
   16b08:	4601                	li	a2,0
   16b0a:	4681                	li	a3,0
   16b0c:	00000073          	ecall
   16b10:	00514903          	lbu	s2,5(sp)
   16b14:	001a0513          	addi	a0,s4,1
   16b18:	02500613          	li	a2,37
   16b1c:	85ce                	mv	a1,s3
   16b1e:	00008097          	auipc	ra,0x8
   16b22:	9f6080e7          	jalr	-1546(ra) # 1e514 <memcpy>
   16b26:	4509                	li	a0,2
   16b28:	000a0023          	sb	zero,0(s4)
   16b2c:	f8a903e3          	beq	s2,a0,16ab2 <_ZN20complex_dynamic_type3app17ha53c57e0b87aa67dE+0xe6>
   16b30:	77f00513          	li	a0,1919
   16b34:	458d                	li	a1,3
   16b36:	4601                	li	a2,0
   16b38:	4681                	li	a3,0
   16b3a:	874a                	mv	a4,s2
   16b3c:	00000073          	ecall
   16b40:	bf8d                	j	16ab2 <_ZN20complex_dynamic_type3app17ha53c57e0b87aa67dE+0xe6>

00016b42 <_ZN20complex_dynamic_type3app17ha5f79b6208c1d83dE>:
   16b42:	7175                	addi	sp,sp,-144
   16b44:	c706                	sw	ra,140(sp)
   16b46:	c522                	sw	s0,136(sp)
   16b48:	c326                	sw	s1,132(sp)
   16b4a:	c14a                	sw	s2,128(sp)
   16b4c:	dece                	sw	s3,124(sp)
   16b4e:	dcd2                	sw	s4,120(sp)
   16b50:	dad6                	sw	s5,116(sp)
   16b52:	8aaa                	mv	s5,a0
   16b54:	4409                	li	s0,2
   16b56:	008107a3          	sb	s0,15(sp)
   16b5a:	0804                	addi	s1,sp,16
   16b5c:	04100613          	li	a2,65
   16b60:	8526                	mv	a0,s1
   16b62:	00008097          	auipc	ra,0x8
   16b66:	9b2080e7          	jalr	-1614(ra) # 1e514 <memcpy>
   16b6a:	05210a13          	addi	s4,sp,82
   16b6e:	02200613          	li	a2,34
   16b72:	8552                	mv	a0,s4
   16b74:	4581                	li	a1,0
   16b76:	00008097          	auipc	ra,0x8
   16b7a:	932080e7          	jalr	-1742(ra) # 1e4a8 <memset>
   16b7e:	8626                	mv	a2,s1
   16b80:	048108a3          	sb	s0,81(sp)
   16b84:	6509                	lui	a0,0x2
   16b86:	4485                	li	s1,1
   16b88:	4811                	li	a6,4
   16b8a:	4585                	li	a1,1
   16b8c:	47c50793          	addi	a5,a0,1148 # 247c <.Lline_table_start1+0x2251>
   16b90:	04100693          	li	a3,65
   16b94:	4711                	li	a4,4
   16b96:	853e                	mv	a0,a5
   16b98:	00000073          	ecall
   16b9c:	00851763          	bne	a0,s0,16baa <_ZN20complex_dynamic_type3app17ha5f79b6208c1d83dE+0x68>
   16ba0:	009a8023          	sb	s1,0(s5)
   16ba4:	00baa223          	sw	a1,4(s5)
   16ba8:	a0bd                	j	16c16 <_ZN20complex_dynamic_type3app17ha5f79b6208c1d83dE+0xd4>
   16baa:	853e                	mv	a0,a5
   16bac:	4581                	li	a1,0
   16bae:	8652                	mv	a2,s4
   16bb0:	010107a3          	sb	a6,15(sp)
   16bb4:	478d                	li	a5,3
   16bb6:	02200693          	li	a3,34
   16bba:	470d                	li	a4,3
   16bbc:	00000073          	ecall
   16bc0:	00851d63          	bne	a0,s0,16bda <_ZN20complex_dynamic_type3app17ha5f79b6208c1d83dE+0x98>
   16bc4:	05114703          	lbu	a4,81(sp)
   16bc8:	4505                	li	a0,1
   16bca:	4609                	li	a2,2
   16bcc:	00aa8023          	sb	a0,0(s5)
   16bd0:	00baa223          	sw	a1,4(s5)
   16bd4:	02c71963          	bne	a4,a2,16c06 <_ZN20complex_dynamic_type3app17ha5f79b6208c1d83dE+0xc4>
   16bd8:	a83d                	j	16c16 <_ZN20complex_dynamic_type3app17ha5f79b6208c1d83dE+0xd4>
   16bda:	4601                	li	a2,0
   16bdc:	4681                	li	a3,0
   16bde:	04f108a3          	sb	a5,81(sp)
   16be2:	6509                	lui	a0,0x2
   16be4:	4785                	li	a5,1
   16be6:	4585                	li	a1,1
   16be8:	4709                	li	a4,2
   16bea:	47c50513          	addi	a0,a0,1148 # 247c <.Lline_table_start1+0x2251>
   16bee:	08000493          	li	s1,128
   16bf2:	00000073          	ecall
   16bf6:	4609                	li	a2,2
   16bf8:	04957563          	bgeu	a0,s1,16c42 <_ZN20complex_dynamic_type3app17ha5f79b6208c1d83dE+0x100>
   16bfc:	00fa8023          	sb	a5,0(s5)
   16c00:	00baa223          	sw	a1,4(s5)
   16c04:	470d                	li	a4,3
   16c06:	6509                	lui	a0,0x2
   16c08:	47c50513          	addi	a0,a0,1148 # 247c <.Lline_table_start1+0x2251>
   16c0c:	4581                	li	a1,0
   16c0e:	4601                	li	a2,0
   16c10:	4681                	li	a3,0
   16c12:	00000073          	ecall
   16c16:	00f14703          	lbu	a4,15(sp)
   16c1a:	4509                	li	a0,2
   16c1c:	00a70a63          	beq	a4,a0,16c30 <_ZN20complex_dynamic_type3app17ha5f79b6208c1d83dE+0xee>
   16c20:	6509                	lui	a0,0x2
   16c22:	47c50513          	addi	a0,a0,1148 # 247c <.Lline_table_start1+0x2251>
   16c26:	4585                	li	a1,1
   16c28:	4601                	li	a2,0
   16c2a:	4681                	li	a3,0
   16c2c:	00000073          	ecall
   16c30:	40ba                	lw	ra,140(sp)
   16c32:	442a                	lw	s0,136(sp)
   16c34:	449a                	lw	s1,132(sp)
   16c36:	490a                	lw	s2,128(sp)
   16c38:	59f6                	lw	s3,124(sp)
   16c3a:	5a66                	lw	s4,120(sp)
   16c3c:	5ad6                	lw	s5,116(sp)
   16c3e:	6149                	addi	sp,sp,144
   16c40:	8082                	ret
   16c42:	00f14703          	lbu	a4,15(sp)
   16c46:	00c71463          	bne	a4,a2,16c4e <_ZN20complex_dynamic_type3app17ha5f79b6208c1d83dE+0x10c>
   16c4a:	470d                	li	a4,3
   16c4c:	a825                	j	16c84 <_ZN20complex_dynamic_type3app17ha5f79b6208c1d83dE+0x142>
   16c4e:	6509                	lui	a0,0x2
   16c50:	47c50513          	addi	a0,a0,1148 # 247c <.Lline_table_start1+0x2251>
   16c54:	4585                	li	a1,1
   16c56:	4601                	li	a2,0
   16c58:	4681                	li	a3,0
   16c5a:	00000073          	ecall
   16c5e:	05114703          	lbu	a4,81(sp)
   16c62:	4509                	li	a0,2
   16c64:	00a107a3          	sb	a0,15(sp)
   16c68:	00a71e63          	bne	a4,a0,16c84 <_ZN20complex_dynamic_type3app17ha5f79b6208c1d83dE+0x142>
   16c6c:	001a8513          	addi	a0,s5,1
   16c70:	02200613          	li	a2,34
   16c74:	85d2                	mv	a1,s4
   16c76:	00008097          	auipc	ra,0x8
   16c7a:	89e080e7          	jalr	-1890(ra) # 1e514 <memcpy>
   16c7e:	000a8023          	sb	zero,0(s5)
   16c82:	b77d                	j	16c30 <_ZN20complex_dynamic_type3app17ha5f79b6208c1d83dE+0xee>
   16c84:	6509                	lui	a0,0x2
   16c86:	47c50913          	addi	s2,a0,1148 # 247c <.Lline_table_start1+0x2251>
   16c8a:	854a                	mv	a0,s2
   16c8c:	4581                	li	a1,0
   16c8e:	4601                	li	a2,0
   16c90:	4681                	li	a3,0
   16c92:	00000073          	ecall
   16c96:	00f14983          	lbu	s3,15(sp)
   16c9a:	001a8513          	addi	a0,s5,1
   16c9e:	02200613          	li	a2,34
   16ca2:	85d2                	mv	a1,s4
   16ca4:	00008097          	auipc	ra,0x8
   16ca8:	870080e7          	jalr	-1936(ra) # 1e514 <memcpy>
   16cac:	4509                	li	a0,2
   16cae:	000a8023          	sb	zero,0(s5)
   16cb2:	f6a98fe3          	beq	s3,a0,16c30 <_ZN20complex_dynamic_type3app17ha5f79b6208c1d83dE+0xee>
   16cb6:	4585                	li	a1,1
   16cb8:	854a                	mv	a0,s2
   16cba:	4601                	li	a2,0
   16cbc:	4681                	li	a3,0
   16cbe:	874e                	mv	a4,s3
   16cc0:	00000073          	ecall
   16cc4:	b7b5                	j	16c30 <_ZN20complex_dynamic_type3app17ha5f79b6208c1d83dE+0xee>

00016cc6 <_ZN20complex_dynamic_type3app17ha8a6a104d3e3046cE>:
   16cc6:	711d                	addi	sp,sp,-96
   16cc8:	ce86                	sw	ra,92(sp)
   16cca:	cca2                	sw	s0,88(sp)
   16ccc:	caa6                	sw	s1,84(sp)
   16cce:	c8ca                	sw	s2,80(sp)
   16cd0:	c6ce                	sw	s3,76(sp)
   16cd2:	c4d2                	sw	s4,72(sp)
   16cd4:	c2d6                	sw	s5,68(sp)
   16cd6:	8aaa                	mv	s5,a0
   16cd8:	4409                	li	s0,2
   16cda:	00810623          	sb	s0,12(sp)
   16cde:	00d10493          	addi	s1,sp,13
   16ce2:	4661                	li	a2,24
   16ce4:	8526                	mv	a0,s1
   16ce6:	00008097          	auipc	ra,0x8
   16cea:	82e080e7          	jalr	-2002(ra) # 1e514 <memcpy>
   16cee:	02610a13          	addi	s4,sp,38
   16cf2:	4679                	li	a2,30
   16cf4:	8552                	mv	a0,s4
   16cf6:	4581                	li	a1,0
   16cf8:	00007097          	auipc	ra,0x7
   16cfc:	7b0080e7          	jalr	1968(ra) # 1e4a8 <memset>
   16d00:	8626                	mv	a2,s1
   16d02:	028102a3          	sb	s0,37(sp)
   16d06:	6505                	lui	a0,0x1
   16d08:	4491                	li	s1,4
   16d0a:	45a5                	li	a1,9
   16d0c:	cbb50793          	addi	a5,a0,-837 # cbb <.Lline_table_start1+0xa90>
   16d10:	46e1                	li	a3,24
   16d12:	4711                	li	a4,4
   16d14:	853e                	mv	a0,a5
   16d16:	00000073          	ecall
   16d1a:	00851863          	bne	a0,s0,16d2a <_ZN20complex_dynamic_type3app17ha8a6a104d3e3046cE+0x64>
   16d1e:	4505                	li	a0,1
   16d20:	00aa8023          	sb	a0,0(s5)
   16d24:	00baa223          	sw	a1,4(s5)
   16d28:	a0b5                	j	16d94 <_ZN20complex_dynamic_type3app17ha8a6a104d3e3046cE+0xce>
   16d2a:	853e                	mv	a0,a5
   16d2c:	8652                	mv	a2,s4
   16d2e:	00910623          	sb	s1,12(sp)
   16d32:	478d                	li	a5,3
   16d34:	4595                	li	a1,5
   16d36:	46f9                	li	a3,30
   16d38:	470d                	li	a4,3
   16d3a:	00000073          	ecall
   16d3e:	00851d63          	bne	a0,s0,16d58 <_ZN20complex_dynamic_type3app17ha8a6a104d3e3046cE+0x92>
   16d42:	02514703          	lbu	a4,37(sp)
   16d46:	4505                	li	a0,1
   16d48:	4609                	li	a2,2
   16d4a:	00aa8023          	sb	a0,0(s5)
   16d4e:	00baa223          	sw	a1,4(s5)
   16d52:	02c71963          	bne	a4,a2,16d84 <_ZN20complex_dynamic_type3app17ha8a6a104d3e3046cE+0xbe>
   16d56:	a83d                	j	16d94 <_ZN20complex_dynamic_type3app17ha8a6a104d3e3046cE+0xce>
   16d58:	4681                	li	a3,0
   16d5a:	02f102a3          	sb	a5,37(sp)
   16d5e:	6505                	lui	a0,0x1
   16d60:	45a5                	li	a1,9
   16d62:	4615                	li	a2,5
   16d64:	4709                	li	a4,2
   16d66:	cbb50513          	addi	a0,a0,-837 # cbb <.Lline_table_start1+0xa90>
   16d6a:	08000793          	li	a5,128
   16d6e:	00000073          	ecall
   16d72:	4609                	li	a2,2
   16d74:	04f57663          	bgeu	a0,a5,16dc0 <_ZN20complex_dynamic_type3app17ha8a6a104d3e3046cE+0xfa>
   16d78:	4505                	li	a0,1
   16d7a:	00aa8023          	sb	a0,0(s5)
   16d7e:	00baa223          	sw	a1,4(s5)
   16d82:	470d                	li	a4,3
   16d84:	6505                	lui	a0,0x1
   16d86:	cbb50513          	addi	a0,a0,-837 # cbb <.Lline_table_start1+0xa90>
   16d8a:	4595                	li	a1,5
   16d8c:	4601                	li	a2,0
   16d8e:	4681                	li	a3,0
   16d90:	00000073          	ecall
   16d94:	00c14703          	lbu	a4,12(sp)
   16d98:	4509                	li	a0,2
   16d9a:	00a70a63          	beq	a4,a0,16dae <_ZN20complex_dynamic_type3app17ha8a6a104d3e3046cE+0xe8>
   16d9e:	6505                	lui	a0,0x1
   16da0:	cbb50513          	addi	a0,a0,-837 # cbb <.Lline_table_start1+0xa90>
   16da4:	45a5                	li	a1,9
   16da6:	4601                	li	a2,0
   16da8:	4681                	li	a3,0
   16daa:	00000073          	ecall
   16dae:	40f6                	lw	ra,92(sp)
   16db0:	4466                	lw	s0,88(sp)
   16db2:	44d6                	lw	s1,84(sp)
   16db4:	4946                	lw	s2,80(sp)
   16db6:	49b6                	lw	s3,76(sp)
   16db8:	4a26                	lw	s4,72(sp)
   16dba:	4a96                	lw	s5,68(sp)
   16dbc:	6125                	addi	sp,sp,96
   16dbe:	8082                	ret
   16dc0:	00c14703          	lbu	a4,12(sp)
   16dc4:	00c71463          	bne	a4,a2,16dcc <_ZN20complex_dynamic_type3app17ha8a6a104d3e3046cE+0x106>
   16dc8:	470d                	li	a4,3
   16dca:	a81d                	j	16e00 <_ZN20complex_dynamic_type3app17ha8a6a104d3e3046cE+0x13a>
   16dcc:	6505                	lui	a0,0x1
   16dce:	cbb50513          	addi	a0,a0,-837 # cbb <.Lline_table_start1+0xa90>
   16dd2:	45a5                	li	a1,9
   16dd4:	4601                	li	a2,0
   16dd6:	4681                	li	a3,0
   16dd8:	00000073          	ecall
   16ddc:	02514703          	lbu	a4,37(sp)
   16de0:	4509                	li	a0,2
   16de2:	00a10623          	sb	a0,12(sp)
   16de6:	00a71d63          	bne	a4,a0,16e00 <_ZN20complex_dynamic_type3app17ha8a6a104d3e3046cE+0x13a>
   16dea:	001a8513          	addi	a0,s5,1
   16dee:	4679                	li	a2,30
   16df0:	85d2                	mv	a1,s4
   16df2:	00007097          	auipc	ra,0x7
   16df6:	722080e7          	jalr	1826(ra) # 1e514 <memcpy>
   16dfa:	000a8023          	sb	zero,0(s5)
   16dfe:	bf45                	j	16dae <_ZN20complex_dynamic_type3app17ha8a6a104d3e3046cE+0xe8>
   16e00:	6505                	lui	a0,0x1
   16e02:	cbb50913          	addi	s2,a0,-837 # cbb <.Lline_table_start1+0xa90>
   16e06:	4595                	li	a1,5
   16e08:	854a                	mv	a0,s2
   16e0a:	4601                	li	a2,0
   16e0c:	4681                	li	a3,0
   16e0e:	00000073          	ecall
   16e12:	00c14983          	lbu	s3,12(sp)
   16e16:	001a8513          	addi	a0,s5,1
   16e1a:	4679                	li	a2,30
   16e1c:	85d2                	mv	a1,s4
   16e1e:	00007097          	auipc	ra,0x7
   16e22:	6f6080e7          	jalr	1782(ra) # 1e514 <memcpy>
   16e26:	4509                	li	a0,2
   16e28:	000a8023          	sb	zero,0(s5)
   16e2c:	f8a981e3          	beq	s3,a0,16dae <_ZN20complex_dynamic_type3app17ha8a6a104d3e3046cE+0xe8>
   16e30:	45a5                	li	a1,9
   16e32:	854a                	mv	a0,s2
   16e34:	4601                	li	a2,0
   16e36:	4681                	li	a3,0
   16e38:	874e                	mv	a4,s3
   16e3a:	00000073          	ecall
   16e3e:	bf85                	j	16dae <_ZN20complex_dynamic_type3app17ha8a6a104d3e3046cE+0xe8>

00016e40 <_ZN20complex_dynamic_type3app17hac1c272ffb6718b1E>:
   16e40:	7131                	addi	sp,sp,-192
   16e42:	df06                	sw	ra,188(sp)
   16e44:	dd22                	sw	s0,184(sp)
   16e46:	db26                	sw	s1,180(sp)
   16e48:	d94a                	sw	s2,176(sp)
   16e4a:	d74e                	sw	s3,172(sp)
   16e4c:	d552                	sw	s4,168(sp)
   16e4e:	d356                	sw	s5,164(sp)
   16e50:	8aaa                	mv	s5,a0
   16e52:	4409                	li	s0,2
   16e54:	008101a3          	sb	s0,3(sp)
   16e58:	0044                	addi	s1,sp,4
   16e5a:	05600613          	li	a2,86
   16e5e:	8526                	mv	a0,s1
   16e60:	00007097          	auipc	ra,0x7
   16e64:	6b4080e7          	jalr	1716(ra) # 1e514 <memcpy>
   16e68:	05b10a13          	addi	s4,sp,91
   16e6c:	04900613          	li	a2,73
   16e70:	8552                	mv	a0,s4
   16e72:	4581                	li	a1,0
   16e74:	00007097          	auipc	ra,0x7
   16e78:	634080e7          	jalr	1588(ra) # 1e4a8 <memset>
   16e7c:	8626                	mv	a2,s1
   16e7e:	04810d23          	sb	s0,90(sp)
   16e82:	6509                	lui	a0,0x2
   16e84:	4491                	li	s1,4
   16e86:	4599                	li	a1,6
   16e88:	c6b50793          	addi	a5,a0,-917 # 1c6b <.Lline_table_start1+0x1a40>
   16e8c:	05600693          	li	a3,86
   16e90:	4711                	li	a4,4
   16e92:	853e                	mv	a0,a5
   16e94:	00000073          	ecall
   16e98:	00851863          	bne	a0,s0,16ea8 <_ZN20complex_dynamic_type3app17hac1c272ffb6718b1E+0x68>
   16e9c:	4505                	li	a0,1
   16e9e:	00aa8023          	sb	a0,0(s5)
   16ea2:	00baa223          	sw	a1,4(s5)
   16ea6:	a0bd                	j	16f14 <_ZN20complex_dynamic_type3app17hac1c272ffb6718b1E+0xd4>
   16ea8:	853e                	mv	a0,a5
   16eaa:	8652                	mv	a2,s4
   16eac:	009101a3          	sb	s1,3(sp)
   16eb0:	478d                	li	a5,3
   16eb2:	4599                	li	a1,6
   16eb4:	04900693          	li	a3,73
   16eb8:	470d                	li	a4,3
   16eba:	00000073          	ecall
   16ebe:	00851d63          	bne	a0,s0,16ed8 <_ZN20complex_dynamic_type3app17hac1c272ffb6718b1E+0x98>
   16ec2:	05a14703          	lbu	a4,90(sp)
   16ec6:	4505                	li	a0,1
   16ec8:	4609                	li	a2,2
   16eca:	00aa8023          	sb	a0,0(s5)
   16ece:	00baa223          	sw	a1,4(s5)
   16ed2:	02c71963          	bne	a4,a2,16f04 <_ZN20complex_dynamic_type3app17hac1c272ffb6718b1E+0xc4>
   16ed6:	a83d                	j	16f14 <_ZN20complex_dynamic_type3app17hac1c272ffb6718b1E+0xd4>
   16ed8:	4681                	li	a3,0
   16eda:	04f10d23          	sb	a5,90(sp)
   16ede:	6509                	lui	a0,0x2
   16ee0:	4599                	li	a1,6
   16ee2:	4619                	li	a2,6
   16ee4:	4709                	li	a4,2
   16ee6:	c6b50513          	addi	a0,a0,-917 # 1c6b <.Lline_table_start1+0x1a40>
   16eea:	08000793          	li	a5,128
   16eee:	00000073          	ecall
   16ef2:	4609                	li	a2,2
   16ef4:	04f57663          	bgeu	a0,a5,16f40 <_ZN20complex_dynamic_type3app17hac1c272ffb6718b1E+0x100>
   16ef8:	4505                	li	a0,1
   16efa:	00aa8023          	sb	a0,0(s5)
   16efe:	00baa223          	sw	a1,4(s5)
   16f02:	470d                	li	a4,3
   16f04:	6509                	lui	a0,0x2
   16f06:	c6b50513          	addi	a0,a0,-917 # 1c6b <.Lline_table_start1+0x1a40>
   16f0a:	4599                	li	a1,6
   16f0c:	4601                	li	a2,0
   16f0e:	4681                	li	a3,0
   16f10:	00000073          	ecall
   16f14:	00314703          	lbu	a4,3(sp)
   16f18:	4509                	li	a0,2
   16f1a:	00a70a63          	beq	a4,a0,16f2e <_ZN20complex_dynamic_type3app17hac1c272ffb6718b1E+0xee>
   16f1e:	6509                	lui	a0,0x2
   16f20:	c6b50513          	addi	a0,a0,-917 # 1c6b <.Lline_table_start1+0x1a40>
   16f24:	4599                	li	a1,6
   16f26:	4601                	li	a2,0
   16f28:	4681                	li	a3,0
   16f2a:	00000073          	ecall
   16f2e:	50fa                	lw	ra,188(sp)
   16f30:	546a                	lw	s0,184(sp)
   16f32:	54da                	lw	s1,180(sp)
   16f34:	594a                	lw	s2,176(sp)
   16f36:	59ba                	lw	s3,172(sp)
   16f38:	5a2a                	lw	s4,168(sp)
   16f3a:	5a9a                	lw	s5,164(sp)
   16f3c:	6129                	addi	sp,sp,192
   16f3e:	8082                	ret
   16f40:	00314703          	lbu	a4,3(sp)
   16f44:	00c71463          	bne	a4,a2,16f4c <_ZN20complex_dynamic_type3app17hac1c272ffb6718b1E+0x10c>
   16f48:	470d                	li	a4,3
   16f4a:	a825                	j	16f82 <_ZN20complex_dynamic_type3app17hac1c272ffb6718b1E+0x142>
   16f4c:	6509                	lui	a0,0x2
   16f4e:	c6b50513          	addi	a0,a0,-917 # 1c6b <.Lline_table_start1+0x1a40>
   16f52:	4599                	li	a1,6
   16f54:	4601                	li	a2,0
   16f56:	4681                	li	a3,0
   16f58:	00000073          	ecall
   16f5c:	05a14703          	lbu	a4,90(sp)
   16f60:	4509                	li	a0,2
   16f62:	00a101a3          	sb	a0,3(sp)
   16f66:	00a71e63          	bne	a4,a0,16f82 <_ZN20complex_dynamic_type3app17hac1c272ffb6718b1E+0x142>
   16f6a:	001a8513          	addi	a0,s5,1
   16f6e:	04900613          	li	a2,73
   16f72:	85d2                	mv	a1,s4
   16f74:	00007097          	auipc	ra,0x7
   16f78:	5a0080e7          	jalr	1440(ra) # 1e514 <memcpy>
   16f7c:	000a8023          	sb	zero,0(s5)
   16f80:	b77d                	j	16f2e <_ZN20complex_dynamic_type3app17hac1c272ffb6718b1E+0xee>
   16f82:	6509                	lui	a0,0x2
   16f84:	c6b50913          	addi	s2,a0,-917 # 1c6b <.Lline_table_start1+0x1a40>
   16f88:	4599                	li	a1,6
   16f8a:	854a                	mv	a0,s2
   16f8c:	4601                	li	a2,0
   16f8e:	4681                	li	a3,0
   16f90:	00000073          	ecall
   16f94:	00314983          	lbu	s3,3(sp)
   16f98:	001a8513          	addi	a0,s5,1
   16f9c:	04900613          	li	a2,73
   16fa0:	85d2                	mv	a1,s4
   16fa2:	00007097          	auipc	ra,0x7
   16fa6:	572080e7          	jalr	1394(ra) # 1e514 <memcpy>
   16faa:	4509                	li	a0,2
   16fac:	000a8023          	sb	zero,0(s5)
   16fb0:	f6a98fe3          	beq	s3,a0,16f2e <_ZN20complex_dynamic_type3app17hac1c272ffb6718b1E+0xee>
   16fb4:	4599                	li	a1,6
   16fb6:	854a                	mv	a0,s2
   16fb8:	4601                	li	a2,0
   16fba:	4681                	li	a3,0
   16fbc:	874e                	mv	a4,s3
   16fbe:	00000073          	ecall
   16fc2:	b7b5                	j	16f2e <_ZN20complex_dynamic_type3app17hac1c272ffb6718b1E+0xee>

00016fc4 <_ZN20complex_dynamic_type3app17hafe464b1b354bda5E>:
   16fc4:	7139                	addi	sp,sp,-64
   16fc6:	de06                	sw	ra,60(sp)
   16fc8:	dc22                	sw	s0,56(sp)
   16fca:	da26                	sw	s1,52(sp)
   16fcc:	d84a                	sw	s2,48(sp)
   16fce:	d64e                	sw	s3,44(sp)
   16fd0:	d452                	sw	s4,40(sp)
   16fd2:	d256                	sw	s5,36(sp)
   16fd4:	8aaa                	mv	s5,a0
   16fd6:	4409                	li	s0,2
   16fd8:	00810023          	sb	s0,0(sp)
   16fdc:	00110493          	addi	s1,sp,1
   16fe0:	463d                	li	a2,15
   16fe2:	8526                	mv	a0,s1
   16fe4:	00007097          	auipc	ra,0x7
   16fe8:	530080e7          	jalr	1328(ra) # 1e514 <memcpy>
   16fec:	01110a13          	addi	s4,sp,17
   16ff0:	464d                	li	a2,19
   16ff2:	8552                	mv	a0,s4
   16ff4:	4581                	li	a1,0
   16ff6:	00007097          	auipc	ra,0x7
   16ffa:	4b2080e7          	jalr	1202(ra) # 1e4a8 <memset>
   16ffe:	8626                	mv	a2,s1
   17000:	00810823          	sb	s0,16(sp)
   17004:	6509                	lui	a0,0x2
   17006:	4491                	li	s1,4
   17008:	458d                	li	a1,3
   1700a:	e4b50793          	addi	a5,a0,-437 # 1e4b <.Lline_table_start1+0x1c20>
   1700e:	46bd                	li	a3,15
   17010:	4711                	li	a4,4
   17012:	853e                	mv	a0,a5
   17014:	00000073          	ecall
   17018:	00851863          	bne	a0,s0,17028 <_ZN20complex_dynamic_type3app17hafe464b1b354bda5E+0x64>
   1701c:	4505                	li	a0,1
   1701e:	00aa8023          	sb	a0,0(s5)
   17022:	00baa223          	sw	a1,4(s5)
   17026:	a0b5                	j	17092 <_ZN20complex_dynamic_type3app17hafe464b1b354bda5E+0xce>
   17028:	853e                	mv	a0,a5
   1702a:	4581                	li	a1,0
   1702c:	8652                	mv	a2,s4
   1702e:	00910023          	sb	s1,0(sp)
   17032:	478d                	li	a5,3
   17034:	46cd                	li	a3,19
   17036:	470d                	li	a4,3
   17038:	00000073          	ecall
   1703c:	00851d63          	bne	a0,s0,17056 <_ZN20complex_dynamic_type3app17hafe464b1b354bda5E+0x92>
   17040:	01014703          	lbu	a4,16(sp)
   17044:	4505                	li	a0,1
   17046:	4609                	li	a2,2
   17048:	00aa8023          	sb	a0,0(s5)
   1704c:	00baa223          	sw	a1,4(s5)
   17050:	02c71963          	bne	a4,a2,17082 <_ZN20complex_dynamic_type3app17hafe464b1b354bda5E+0xbe>
   17054:	a83d                	j	17092 <_ZN20complex_dynamic_type3app17hafe464b1b354bda5E+0xce>
   17056:	4601                	li	a2,0
   17058:	4681                	li	a3,0
   1705a:	00f10823          	sb	a5,16(sp)
   1705e:	6509                	lui	a0,0x2
   17060:	458d                	li	a1,3
   17062:	4709                	li	a4,2
   17064:	e4b50513          	addi	a0,a0,-437 # 1e4b <.Lline_table_start1+0x1c20>
   17068:	08000793          	li	a5,128
   1706c:	00000073          	ecall
   17070:	4609                	li	a2,2
   17072:	04f57663          	bgeu	a0,a5,170be <_ZN20complex_dynamic_type3app17hafe464b1b354bda5E+0xfa>
   17076:	4505                	li	a0,1
   17078:	00aa8023          	sb	a0,0(s5)
   1707c:	00baa223          	sw	a1,4(s5)
   17080:	470d                	li	a4,3
   17082:	6509                	lui	a0,0x2
   17084:	e4b50513          	addi	a0,a0,-437 # 1e4b <.Lline_table_start1+0x1c20>
   17088:	4581                	li	a1,0
   1708a:	4601                	li	a2,0
   1708c:	4681                	li	a3,0
   1708e:	00000073          	ecall
   17092:	00014703          	lbu	a4,0(sp)
   17096:	4509                	li	a0,2
   17098:	00a70a63          	beq	a4,a0,170ac <_ZN20complex_dynamic_type3app17hafe464b1b354bda5E+0xe8>
   1709c:	6509                	lui	a0,0x2
   1709e:	e4b50513          	addi	a0,a0,-437 # 1e4b <.Lline_table_start1+0x1c20>
   170a2:	458d                	li	a1,3
   170a4:	4601                	li	a2,0
   170a6:	4681                	li	a3,0
   170a8:	00000073          	ecall
   170ac:	50f2                	lw	ra,60(sp)
   170ae:	5462                	lw	s0,56(sp)
   170b0:	54d2                	lw	s1,52(sp)
   170b2:	5942                	lw	s2,48(sp)
   170b4:	59b2                	lw	s3,44(sp)
   170b6:	5a22                	lw	s4,40(sp)
   170b8:	5a92                	lw	s5,36(sp)
   170ba:	6121                	addi	sp,sp,64
   170bc:	8082                	ret
   170be:	00014703          	lbu	a4,0(sp)
   170c2:	00c71463          	bne	a4,a2,170ca <_ZN20complex_dynamic_type3app17hafe464b1b354bda5E+0x106>
   170c6:	470d                	li	a4,3
   170c8:	a81d                	j	170fe <_ZN20complex_dynamic_type3app17hafe464b1b354bda5E+0x13a>
   170ca:	6509                	lui	a0,0x2
   170cc:	e4b50513          	addi	a0,a0,-437 # 1e4b <.Lline_table_start1+0x1c20>
   170d0:	458d                	li	a1,3
   170d2:	4601                	li	a2,0
   170d4:	4681                	li	a3,0
   170d6:	00000073          	ecall
   170da:	01014703          	lbu	a4,16(sp)
   170de:	4509                	li	a0,2
   170e0:	00a10023          	sb	a0,0(sp)
   170e4:	00a71d63          	bne	a4,a0,170fe <_ZN20complex_dynamic_type3app17hafe464b1b354bda5E+0x13a>
   170e8:	001a8513          	addi	a0,s5,1
   170ec:	464d                	li	a2,19
   170ee:	85d2                	mv	a1,s4
   170f0:	00007097          	auipc	ra,0x7
   170f4:	424080e7          	jalr	1060(ra) # 1e514 <memcpy>
   170f8:	000a8023          	sb	zero,0(s5)
   170fc:	bf45                	j	170ac <_ZN20complex_dynamic_type3app17hafe464b1b354bda5E+0xe8>
   170fe:	6509                	lui	a0,0x2
   17100:	e4b50913          	addi	s2,a0,-437 # 1e4b <.Lline_table_start1+0x1c20>
   17104:	854a                	mv	a0,s2
   17106:	4581                	li	a1,0
   17108:	4601                	li	a2,0
   1710a:	4681                	li	a3,0
   1710c:	00000073          	ecall
   17110:	00014983          	lbu	s3,0(sp)
   17114:	001a8513          	addi	a0,s5,1
   17118:	464d                	li	a2,19
   1711a:	85d2                	mv	a1,s4
   1711c:	00007097          	auipc	ra,0x7
   17120:	3f8080e7          	jalr	1016(ra) # 1e514 <memcpy>
   17124:	4509                	li	a0,2
   17126:	000a8023          	sb	zero,0(s5)
   1712a:	f8a981e3          	beq	s3,a0,170ac <_ZN20complex_dynamic_type3app17hafe464b1b354bda5E+0xe8>
   1712e:	458d                	li	a1,3
   17130:	854a                	mv	a0,s2
   17132:	4601                	li	a2,0
   17134:	4681                	li	a3,0
   17136:	874e                	mv	a4,s3
   17138:	00000073          	ecall
   1713c:	bf85                	j	170ac <_ZN20complex_dynamic_type3app17hafe464b1b354bda5E+0xe8>

0001713e <_ZN20complex_dynamic_type3app17hb1f0a24a56de3e8cE>:
   1713e:	7171                	addi	sp,sp,-176
   17140:	d706                	sw	ra,172(sp)
   17142:	d522                	sw	s0,168(sp)
   17144:	d326                	sw	s1,164(sp)
   17146:	d14a                	sw	s2,160(sp)
   17148:	cf4e                	sw	s3,156(sp)
   1714a:	cd52                	sw	s4,152(sp)
   1714c:	cb56                	sw	s5,148(sp)
   1714e:	8aaa                	mv	s5,a0
   17150:	4409                	li	s0,2
   17152:	008102a3          	sb	s0,5(sp)
   17156:	00610493          	addi	s1,sp,6
   1715a:	05300613          	li	a2,83
   1715e:	8526                	mv	a0,s1
   17160:	00007097          	auipc	ra,0x7
   17164:	3b4080e7          	jalr	948(ra) # 1e514 <memcpy>
   17168:	05a10a13          	addi	s4,sp,90
   1716c:	03a00613          	li	a2,58
   17170:	8552                	mv	a0,s4
   17172:	4581                	li	a1,0
   17174:	00007097          	auipc	ra,0x7
   17178:	334080e7          	jalr	820(ra) # 1e4a8 <memset>
   1717c:	8626                	mv	a2,s1
   1717e:	04810ca3          	sb	s0,89(sp)
   17182:	6509                	lui	a0,0x2
   17184:	4491                	li	s1,4
   17186:	4599                	li	a1,6
   17188:	64550793          	addi	a5,a0,1605 # 2645 <.Lline_table_start1+0x241a>
   1718c:	05300693          	li	a3,83
   17190:	4711                	li	a4,4
   17192:	853e                	mv	a0,a5
   17194:	00000073          	ecall
   17198:	00851863          	bne	a0,s0,171a8 <_ZN20complex_dynamic_type3app17hb1f0a24a56de3e8cE+0x6a>
   1719c:	4505                	li	a0,1
   1719e:	00aa8023          	sb	a0,0(s5)
   171a2:	00baa223          	sw	a1,4(s5)
   171a6:	a0bd                	j	17214 <_ZN20complex_dynamic_type3app17hb1f0a24a56de3e8cE+0xd6>
   171a8:	853e                	mv	a0,a5
   171aa:	8652                	mv	a2,s4
   171ac:	009102a3          	sb	s1,5(sp)
   171b0:	478d                	li	a5,3
   171b2:	459d                	li	a1,7
   171b4:	03a00693          	li	a3,58
   171b8:	470d                	li	a4,3
   171ba:	00000073          	ecall
   171be:	00851d63          	bne	a0,s0,171d8 <_ZN20complex_dynamic_type3app17hb1f0a24a56de3e8cE+0x9a>
   171c2:	05914703          	lbu	a4,89(sp)
   171c6:	4505                	li	a0,1
   171c8:	4609                	li	a2,2
   171ca:	00aa8023          	sb	a0,0(s5)
   171ce:	00baa223          	sw	a1,4(s5)
   171d2:	02c71963          	bne	a4,a2,17204 <_ZN20complex_dynamic_type3app17hb1f0a24a56de3e8cE+0xc6>
   171d6:	a83d                	j	17214 <_ZN20complex_dynamic_type3app17hb1f0a24a56de3e8cE+0xd6>
   171d8:	4681                	li	a3,0
   171da:	04f10ca3          	sb	a5,89(sp)
   171de:	6509                	lui	a0,0x2
   171e0:	4599                	li	a1,6
   171e2:	461d                	li	a2,7
   171e4:	4709                	li	a4,2
   171e6:	64550513          	addi	a0,a0,1605 # 2645 <.Lline_table_start1+0x241a>
   171ea:	08000793          	li	a5,128
   171ee:	00000073          	ecall
   171f2:	4609                	li	a2,2
   171f4:	04f57663          	bgeu	a0,a5,17240 <_ZN20complex_dynamic_type3app17hb1f0a24a56de3e8cE+0x102>
   171f8:	4505                	li	a0,1
   171fa:	00aa8023          	sb	a0,0(s5)
   171fe:	00baa223          	sw	a1,4(s5)
   17202:	470d                	li	a4,3
   17204:	6509                	lui	a0,0x2
   17206:	64550513          	addi	a0,a0,1605 # 2645 <.Lline_table_start1+0x241a>
   1720a:	459d                	li	a1,7
   1720c:	4601                	li	a2,0
   1720e:	4681                	li	a3,0
   17210:	00000073          	ecall
   17214:	00514703          	lbu	a4,5(sp)
   17218:	4509                	li	a0,2
   1721a:	00a70a63          	beq	a4,a0,1722e <_ZN20complex_dynamic_type3app17hb1f0a24a56de3e8cE+0xf0>
   1721e:	6509                	lui	a0,0x2
   17220:	64550513          	addi	a0,a0,1605 # 2645 <.Lline_table_start1+0x241a>
   17224:	4599                	li	a1,6
   17226:	4601                	li	a2,0
   17228:	4681                	li	a3,0
   1722a:	00000073          	ecall
   1722e:	50ba                	lw	ra,172(sp)
   17230:	542a                	lw	s0,168(sp)
   17232:	549a                	lw	s1,164(sp)
   17234:	590a                	lw	s2,160(sp)
   17236:	49fa                	lw	s3,156(sp)
   17238:	4a6a                	lw	s4,152(sp)
   1723a:	4ada                	lw	s5,148(sp)
   1723c:	614d                	addi	sp,sp,176
   1723e:	8082                	ret
   17240:	00514703          	lbu	a4,5(sp)
   17244:	00c71463          	bne	a4,a2,1724c <_ZN20complex_dynamic_type3app17hb1f0a24a56de3e8cE+0x10e>
   17248:	470d                	li	a4,3
   1724a:	a825                	j	17282 <_ZN20complex_dynamic_type3app17hb1f0a24a56de3e8cE+0x144>
   1724c:	6509                	lui	a0,0x2
   1724e:	64550513          	addi	a0,a0,1605 # 2645 <.Lline_table_start1+0x241a>
   17252:	4599                	li	a1,6
   17254:	4601                	li	a2,0
   17256:	4681                	li	a3,0
   17258:	00000073          	ecall
   1725c:	05914703          	lbu	a4,89(sp)
   17260:	4509                	li	a0,2
   17262:	00a102a3          	sb	a0,5(sp)
   17266:	00a71e63          	bne	a4,a0,17282 <_ZN20complex_dynamic_type3app17hb1f0a24a56de3e8cE+0x144>
   1726a:	001a8513          	addi	a0,s5,1
   1726e:	03a00613          	li	a2,58
   17272:	85d2                	mv	a1,s4
   17274:	00007097          	auipc	ra,0x7
   17278:	2a0080e7          	jalr	672(ra) # 1e514 <memcpy>
   1727c:	000a8023          	sb	zero,0(s5)
   17280:	b77d                	j	1722e <_ZN20complex_dynamic_type3app17hb1f0a24a56de3e8cE+0xf0>
   17282:	6509                	lui	a0,0x2
   17284:	64550913          	addi	s2,a0,1605 # 2645 <.Lline_table_start1+0x241a>
   17288:	459d                	li	a1,7
   1728a:	854a                	mv	a0,s2
   1728c:	4601                	li	a2,0
   1728e:	4681                	li	a3,0
   17290:	00000073          	ecall
   17294:	00514983          	lbu	s3,5(sp)
   17298:	001a8513          	addi	a0,s5,1
   1729c:	03a00613          	li	a2,58
   172a0:	85d2                	mv	a1,s4
   172a2:	00007097          	auipc	ra,0x7
   172a6:	272080e7          	jalr	626(ra) # 1e514 <memcpy>
   172aa:	4509                	li	a0,2
   172ac:	000a8023          	sb	zero,0(s5)
   172b0:	f6a98fe3          	beq	s3,a0,1722e <_ZN20complex_dynamic_type3app17hb1f0a24a56de3e8cE+0xf0>
   172b4:	4599                	li	a1,6
   172b6:	854a                	mv	a0,s2
   172b8:	4601                	li	a2,0
   172ba:	4681                	li	a3,0
   172bc:	874e                	mv	a4,s3
   172be:	00000073          	ecall
   172c2:	b7b5                	j	1722e <_ZN20complex_dynamic_type3app17hb1f0a24a56de3e8cE+0xf0>

000172c4 <_ZN20complex_dynamic_type3app17hb4bc400aa21e4829E>:
   172c4:	7135                	addi	sp,sp,-160
   172c6:	cf06                	sw	ra,156(sp)
   172c8:	cd22                	sw	s0,152(sp)
   172ca:	cb26                	sw	s1,148(sp)
   172cc:	c94a                	sw	s2,144(sp)
   172ce:	c74e                	sw	s3,140(sp)
   172d0:	c552                	sw	s4,136(sp)
   172d2:	c356                	sw	s5,132(sp)
   172d4:	8aaa                	mv	s5,a0
   172d6:	4409                	li	s0,2
   172d8:	008104a3          	sb	s0,9(sp)
   172dc:	00a10493          	addi	s1,sp,10
   172e0:	4671                	li	a2,28
   172e2:	8526                	mv	a0,s1
   172e4:	00007097          	auipc	ra,0x7
   172e8:	230080e7          	jalr	560(ra) # 1e514 <memcpy>
   172ec:	02710a13          	addi	s4,sp,39
   172f0:	05d00613          	li	a2,93
   172f4:	8552                	mv	a0,s4
   172f6:	4581                	li	a1,0
   172f8:	00007097          	auipc	ra,0x7
   172fc:	1b0080e7          	jalr	432(ra) # 1e4a8 <memset>
   17300:	8626                	mv	a2,s1
   17302:	02810323          	sb	s0,38(sp)
   17306:	6505                	lui	a0,0x1
   17308:	4491                	li	s1,4
   1730a:	45a1                	li	a1,8
   1730c:	c3e50793          	addi	a5,a0,-962 # c3e <.Lline_table_start1+0xa13>
   17310:	46f1                	li	a3,28
   17312:	4711                	li	a4,4
   17314:	853e                	mv	a0,a5
   17316:	00000073          	ecall
   1731a:	00851863          	bne	a0,s0,1732a <_ZN20complex_dynamic_type3app17hb4bc400aa21e4829E+0x66>
   1731e:	4505                	li	a0,1
   17320:	00aa8023          	sb	a0,0(s5)
   17324:	00baa223          	sw	a1,4(s5)
   17328:	a0bd                	j	17396 <_ZN20complex_dynamic_type3app17hb4bc400aa21e4829E+0xd2>
   1732a:	853e                	mv	a0,a5
   1732c:	8652                	mv	a2,s4
   1732e:	009104a3          	sb	s1,9(sp)
   17332:	478d                	li	a5,3
   17334:	4595                	li	a1,5
   17336:	05d00693          	li	a3,93
   1733a:	470d                	li	a4,3
   1733c:	00000073          	ecall
   17340:	00851d63          	bne	a0,s0,1735a <_ZN20complex_dynamic_type3app17hb4bc400aa21e4829E+0x96>
   17344:	02614703          	lbu	a4,38(sp)
   17348:	4505                	li	a0,1
   1734a:	4609                	li	a2,2
   1734c:	00aa8023          	sb	a0,0(s5)
   17350:	00baa223          	sw	a1,4(s5)
   17354:	02c71963          	bne	a4,a2,17386 <_ZN20complex_dynamic_type3app17hb4bc400aa21e4829E+0xc2>
   17358:	a83d                	j	17396 <_ZN20complex_dynamic_type3app17hb4bc400aa21e4829E+0xd2>
   1735a:	4681                	li	a3,0
   1735c:	02f10323          	sb	a5,38(sp)
   17360:	6505                	lui	a0,0x1
   17362:	45a1                	li	a1,8
   17364:	4615                	li	a2,5
   17366:	4709                	li	a4,2
   17368:	c3e50513          	addi	a0,a0,-962 # c3e <.Lline_table_start1+0xa13>
   1736c:	08000793          	li	a5,128
   17370:	00000073          	ecall
   17374:	4609                	li	a2,2
   17376:	04f57663          	bgeu	a0,a5,173c2 <_ZN20complex_dynamic_type3app17hb4bc400aa21e4829E+0xfe>
   1737a:	4505                	li	a0,1
   1737c:	00aa8023          	sb	a0,0(s5)
   17380:	00baa223          	sw	a1,4(s5)
   17384:	470d                	li	a4,3
   17386:	6505                	lui	a0,0x1
   17388:	c3e50513          	addi	a0,a0,-962 # c3e <.Lline_table_start1+0xa13>
   1738c:	4595                	li	a1,5
   1738e:	4601                	li	a2,0
   17390:	4681                	li	a3,0
   17392:	00000073          	ecall
   17396:	00914703          	lbu	a4,9(sp)
   1739a:	4509                	li	a0,2
   1739c:	00a70a63          	beq	a4,a0,173b0 <_ZN20complex_dynamic_type3app17hb4bc400aa21e4829E+0xec>
   173a0:	6505                	lui	a0,0x1
   173a2:	c3e50513          	addi	a0,a0,-962 # c3e <.Lline_table_start1+0xa13>
   173a6:	45a1                	li	a1,8
   173a8:	4601                	li	a2,0
   173aa:	4681                	li	a3,0
   173ac:	00000073          	ecall
   173b0:	40fa                	lw	ra,156(sp)
   173b2:	446a                	lw	s0,152(sp)
   173b4:	44da                	lw	s1,148(sp)
   173b6:	494a                	lw	s2,144(sp)
   173b8:	49ba                	lw	s3,140(sp)
   173ba:	4a2a                	lw	s4,136(sp)
   173bc:	4a9a                	lw	s5,132(sp)
   173be:	610d                	addi	sp,sp,160
   173c0:	8082                	ret
   173c2:	00914703          	lbu	a4,9(sp)
   173c6:	00c71463          	bne	a4,a2,173ce <_ZN20complex_dynamic_type3app17hb4bc400aa21e4829E+0x10a>
   173ca:	470d                	li	a4,3
   173cc:	a825                	j	17404 <_ZN20complex_dynamic_type3app17hb4bc400aa21e4829E+0x140>
   173ce:	6505                	lui	a0,0x1
   173d0:	c3e50513          	addi	a0,a0,-962 # c3e <.Lline_table_start1+0xa13>
   173d4:	45a1                	li	a1,8
   173d6:	4601                	li	a2,0
   173d8:	4681                	li	a3,0
   173da:	00000073          	ecall
   173de:	02614703          	lbu	a4,38(sp)
   173e2:	4509                	li	a0,2
   173e4:	00a104a3          	sb	a0,9(sp)
   173e8:	00a71e63          	bne	a4,a0,17404 <_ZN20complex_dynamic_type3app17hb4bc400aa21e4829E+0x140>
   173ec:	001a8513          	addi	a0,s5,1
   173f0:	05d00613          	li	a2,93
   173f4:	85d2                	mv	a1,s4
   173f6:	00007097          	auipc	ra,0x7
   173fa:	11e080e7          	jalr	286(ra) # 1e514 <memcpy>
   173fe:	000a8023          	sb	zero,0(s5)
   17402:	b77d                	j	173b0 <_ZN20complex_dynamic_type3app17hb4bc400aa21e4829E+0xec>
   17404:	6505                	lui	a0,0x1
   17406:	c3e50913          	addi	s2,a0,-962 # c3e <.Lline_table_start1+0xa13>
   1740a:	4595                	li	a1,5
   1740c:	854a                	mv	a0,s2
   1740e:	4601                	li	a2,0
   17410:	4681                	li	a3,0
   17412:	00000073          	ecall
   17416:	00914983          	lbu	s3,9(sp)
   1741a:	001a8513          	addi	a0,s5,1
   1741e:	05d00613          	li	a2,93
   17422:	85d2                	mv	a1,s4
   17424:	00007097          	auipc	ra,0x7
   17428:	0f0080e7          	jalr	240(ra) # 1e514 <memcpy>
   1742c:	4509                	li	a0,2
   1742e:	000a8023          	sb	zero,0(s5)
   17432:	f6a98fe3          	beq	s3,a0,173b0 <_ZN20complex_dynamic_type3app17hb4bc400aa21e4829E+0xec>
   17436:	45a1                	li	a1,8
   17438:	854a                	mv	a0,s2
   1743a:	4601                	li	a2,0
   1743c:	4681                	li	a3,0
   1743e:	874e                	mv	a4,s3
   17440:	00000073          	ecall
   17444:	b7b5                	j	173b0 <_ZN20complex_dynamic_type3app17hb4bc400aa21e4829E+0xec>

00017446 <_ZN20complex_dynamic_type3app17hb991f427dc4e78e6E>:
   17446:	715d                	addi	sp,sp,-80
   17448:	c686                	sw	ra,76(sp)
   1744a:	c4a2                	sw	s0,72(sp)
   1744c:	c2a6                	sw	s1,68(sp)
   1744e:	c0ca                	sw	s2,64(sp)
   17450:	de4e                	sw	s3,60(sp)
   17452:	dc52                	sw	s4,56(sp)
   17454:	da56                	sw	s5,52(sp)
   17456:	8aaa                	mv	s5,a0
   17458:	4409                	li	s0,2
   1745a:	00810223          	sb	s0,4(sp)
   1745e:	00510493          	addi	s1,sp,5
   17462:	4635                	li	a2,13
   17464:	8526                	mv	a0,s1
   17466:	00007097          	auipc	ra,0x7
   1746a:	0ae080e7          	jalr	174(ra) # 1e514 <memcpy>
   1746e:	01310a13          	addi	s4,sp,19
   17472:	02100613          	li	a2,33
   17476:	8552                	mv	a0,s4
   17478:	4581                	li	a1,0
   1747a:	00007097          	auipc	ra,0x7
   1747e:	02e080e7          	jalr	46(ra) # 1e4a8 <memset>
   17482:	4581                	li	a1,0
   17484:	8626                	mv	a2,s1
   17486:	00810923          	sb	s0,18(sp)
   1748a:	6505                	lui	a0,0x1
   1748c:	4491                	li	s1,4
   1748e:	6b050793          	addi	a5,a0,1712 # 16b0 <.Lline_table_start1+0x1485>
   17492:	46b5                	li	a3,13
   17494:	4711                	li	a4,4
   17496:	853e                	mv	a0,a5
   17498:	00000073          	ecall
   1749c:	00851863          	bne	a0,s0,174ac <_ZN20complex_dynamic_type3app17hb991f427dc4e78e6E+0x66>
   174a0:	4505                	li	a0,1
   174a2:	00aa8023          	sb	a0,0(s5)
   174a6:	00baa223          	sw	a1,4(s5)
   174aa:	a0bd                	j	17518 <_ZN20complex_dynamic_type3app17hb991f427dc4e78e6E+0xd2>
   174ac:	853e                	mv	a0,a5
   174ae:	4581                	li	a1,0
   174b0:	8652                	mv	a2,s4
   174b2:	00910223          	sb	s1,4(sp)
   174b6:	478d                	li	a5,3
   174b8:	02100693          	li	a3,33
   174bc:	470d                	li	a4,3
   174be:	00000073          	ecall
   174c2:	00851d63          	bne	a0,s0,174dc <_ZN20complex_dynamic_type3app17hb991f427dc4e78e6E+0x96>
   174c6:	01214703          	lbu	a4,18(sp)
   174ca:	4505                	li	a0,1
   174cc:	4609                	li	a2,2
   174ce:	00aa8023          	sb	a0,0(s5)
   174d2:	00baa223          	sw	a1,4(s5)
   174d6:	02c71963          	bne	a4,a2,17508 <_ZN20complex_dynamic_type3app17hb991f427dc4e78e6E+0xc2>
   174da:	a83d                	j	17518 <_ZN20complex_dynamic_type3app17hb991f427dc4e78e6E+0xd2>
   174dc:	4581                	li	a1,0
   174de:	4601                	li	a2,0
   174e0:	4681                	li	a3,0
   174e2:	00f10923          	sb	a5,18(sp)
   174e6:	6505                	lui	a0,0x1
   174e8:	4709                	li	a4,2
   174ea:	6b050513          	addi	a0,a0,1712 # 16b0 <.Lline_table_start1+0x1485>
   174ee:	08000793          	li	a5,128
   174f2:	00000073          	ecall
   174f6:	4609                	li	a2,2
   174f8:	04f57663          	bgeu	a0,a5,17544 <_ZN20complex_dynamic_type3app17hb991f427dc4e78e6E+0xfe>
   174fc:	4505                	li	a0,1
   174fe:	00aa8023          	sb	a0,0(s5)
   17502:	00baa223          	sw	a1,4(s5)
   17506:	470d                	li	a4,3
   17508:	6505                	lui	a0,0x1
   1750a:	6b050513          	addi	a0,a0,1712 # 16b0 <.Lline_table_start1+0x1485>
   1750e:	4581                	li	a1,0
   17510:	4601                	li	a2,0
   17512:	4681                	li	a3,0
   17514:	00000073          	ecall
   17518:	00414703          	lbu	a4,4(sp)
   1751c:	4509                	li	a0,2
   1751e:	00a70a63          	beq	a4,a0,17532 <_ZN20complex_dynamic_type3app17hb991f427dc4e78e6E+0xec>
   17522:	6505                	lui	a0,0x1
   17524:	6b050513          	addi	a0,a0,1712 # 16b0 <.Lline_table_start1+0x1485>
   17528:	4581                	li	a1,0
   1752a:	4601                	li	a2,0
   1752c:	4681                	li	a3,0
   1752e:	00000073          	ecall
   17532:	40b6                	lw	ra,76(sp)
   17534:	4426                	lw	s0,72(sp)
   17536:	4496                	lw	s1,68(sp)
   17538:	4906                	lw	s2,64(sp)
   1753a:	59f2                	lw	s3,60(sp)
   1753c:	5a62                	lw	s4,56(sp)
   1753e:	5ad2                	lw	s5,52(sp)
   17540:	6161                	addi	sp,sp,80
   17542:	8082                	ret
   17544:	00414703          	lbu	a4,4(sp)
   17548:	00c71463          	bne	a4,a2,17550 <_ZN20complex_dynamic_type3app17hb991f427dc4e78e6E+0x10a>
   1754c:	470d                	li	a4,3
   1754e:	a825                	j	17586 <_ZN20complex_dynamic_type3app17hb991f427dc4e78e6E+0x140>
   17550:	6505                	lui	a0,0x1
   17552:	6b050513          	addi	a0,a0,1712 # 16b0 <.Lline_table_start1+0x1485>
   17556:	4581                	li	a1,0
   17558:	4601                	li	a2,0
   1755a:	4681                	li	a3,0
   1755c:	00000073          	ecall
   17560:	01214703          	lbu	a4,18(sp)
   17564:	4509                	li	a0,2
   17566:	00a10223          	sb	a0,4(sp)
   1756a:	00a71e63          	bne	a4,a0,17586 <_ZN20complex_dynamic_type3app17hb991f427dc4e78e6E+0x140>
   1756e:	001a8513          	addi	a0,s5,1
   17572:	02100613          	li	a2,33
   17576:	85d2                	mv	a1,s4
   17578:	00007097          	auipc	ra,0x7
   1757c:	f9c080e7          	jalr	-100(ra) # 1e514 <memcpy>
   17580:	000a8023          	sb	zero,0(s5)
   17584:	b77d                	j	17532 <_ZN20complex_dynamic_type3app17hb991f427dc4e78e6E+0xec>
   17586:	6505                	lui	a0,0x1
   17588:	6b050913          	addi	s2,a0,1712 # 16b0 <.Lline_table_start1+0x1485>
   1758c:	854a                	mv	a0,s2
   1758e:	4581                	li	a1,0
   17590:	4601                	li	a2,0
   17592:	4681                	li	a3,0
   17594:	00000073          	ecall
   17598:	00414983          	lbu	s3,4(sp)
   1759c:	001a8513          	addi	a0,s5,1
   175a0:	02100613          	li	a2,33
   175a4:	85d2                	mv	a1,s4
   175a6:	00007097          	auipc	ra,0x7
   175aa:	f6e080e7          	jalr	-146(ra) # 1e514 <memcpy>
   175ae:	4509                	li	a0,2
   175b0:	000a8023          	sb	zero,0(s5)
   175b4:	f6a98fe3          	beq	s3,a0,17532 <_ZN20complex_dynamic_type3app17hb991f427dc4e78e6E+0xec>
   175b8:	854a                	mv	a0,s2
   175ba:	4581                	li	a1,0
   175bc:	4601                	li	a2,0
   175be:	4681                	li	a3,0
   175c0:	874e                	mv	a4,s3
   175c2:	00000073          	ecall
   175c6:	b7b5                	j	17532 <_ZN20complex_dynamic_type3app17hb991f427dc4e78e6E+0xec>

000175c8 <_ZN20complex_dynamic_type3app17hb9bfbb822f918faaE>:
   175c8:	7159                	addi	sp,sp,-112
   175ca:	d686                	sw	ra,108(sp)
   175cc:	d4a2                	sw	s0,104(sp)
   175ce:	d2a6                	sw	s1,100(sp)
   175d0:	d0ca                	sw	s2,96(sp)
   175d2:	cece                	sw	s3,92(sp)
   175d4:	ccd2                	sw	s4,88(sp)
   175d6:	cad6                	sw	s5,84(sp)
   175d8:	8aaa                	mv	s5,a0
   175da:	4409                	li	s0,2
   175dc:	008105a3          	sb	s0,11(sp)
   175e0:	0064                	addi	s1,sp,12
   175e2:	02300613          	li	a2,35
   175e6:	8526                	mv	a0,s1
   175e8:	00007097          	auipc	ra,0x7
   175ec:	f2c080e7          	jalr	-212(ra) # 1e514 <memcpy>
   175f0:	03010a13          	addi	s4,sp,48
   175f4:	02400613          	li	a2,36
   175f8:	8552                	mv	a0,s4
   175fa:	4581                	li	a1,0
   175fc:	00007097          	auipc	ra,0x7
   17600:	eac080e7          	jalr	-340(ra) # 1e4a8 <memset>
   17604:	8626                	mv	a2,s1
   17606:	028107a3          	sb	s0,47(sp)
   1760a:	6509                	lui	a0,0x2
   1760c:	4491                	li	s1,4
   1760e:	4591                	li	a1,4
   17610:	bd650793          	addi	a5,a0,-1066 # 1bd6 <.Lline_table_start1+0x19ab>
   17614:	02300693          	li	a3,35
   17618:	4711                	li	a4,4
   1761a:	853e                	mv	a0,a5
   1761c:	00000073          	ecall
   17620:	00851863          	bne	a0,s0,17630 <_ZN20complex_dynamic_type3app17hb9bfbb822f918faaE+0x68>
   17624:	4505                	li	a0,1
   17626:	00aa8023          	sb	a0,0(s5)
   1762a:	00baa223          	sw	a1,4(s5)
   1762e:	a0bd                	j	1769c <_ZN20complex_dynamic_type3app17hb9bfbb822f918faaE+0xd4>
   17630:	853e                	mv	a0,a5
   17632:	8652                	mv	a2,s4
   17634:	009105a3          	sb	s1,11(sp)
   17638:	478d                	li	a5,3
   1763a:	45a1                	li	a1,8
   1763c:	02400693          	li	a3,36
   17640:	470d                	li	a4,3
   17642:	00000073          	ecall
   17646:	00851d63          	bne	a0,s0,17660 <_ZN20complex_dynamic_type3app17hb9bfbb822f918faaE+0x98>
   1764a:	02f14703          	lbu	a4,47(sp)
   1764e:	4505                	li	a0,1
   17650:	4609                	li	a2,2
   17652:	00aa8023          	sb	a0,0(s5)
   17656:	00baa223          	sw	a1,4(s5)
   1765a:	02c71963          	bne	a4,a2,1768c <_ZN20complex_dynamic_type3app17hb9bfbb822f918faaE+0xc4>
   1765e:	a83d                	j	1769c <_ZN20complex_dynamic_type3app17hb9bfbb822f918faaE+0xd4>
   17660:	4681                	li	a3,0
   17662:	02f107a3          	sb	a5,47(sp)
   17666:	6509                	lui	a0,0x2
   17668:	4591                	li	a1,4
   1766a:	4621                	li	a2,8
   1766c:	4709                	li	a4,2
   1766e:	bd650513          	addi	a0,a0,-1066 # 1bd6 <.Lline_table_start1+0x19ab>
   17672:	08000793          	li	a5,128
   17676:	00000073          	ecall
   1767a:	4609                	li	a2,2
   1767c:	04f57663          	bgeu	a0,a5,176c8 <_ZN20complex_dynamic_type3app17hb9bfbb822f918faaE+0x100>
   17680:	4505                	li	a0,1
   17682:	00aa8023          	sb	a0,0(s5)
   17686:	00baa223          	sw	a1,4(s5)
   1768a:	470d                	li	a4,3
   1768c:	6509                	lui	a0,0x2
   1768e:	bd650513          	addi	a0,a0,-1066 # 1bd6 <.Lline_table_start1+0x19ab>
   17692:	45a1                	li	a1,8
   17694:	4601                	li	a2,0
   17696:	4681                	li	a3,0
   17698:	00000073          	ecall
   1769c:	00b14703          	lbu	a4,11(sp)
   176a0:	4509                	li	a0,2
   176a2:	00a70a63          	beq	a4,a0,176b6 <_ZN20complex_dynamic_type3app17hb9bfbb822f918faaE+0xee>
   176a6:	6509                	lui	a0,0x2
   176a8:	bd650513          	addi	a0,a0,-1066 # 1bd6 <.Lline_table_start1+0x19ab>
   176ac:	4591                	li	a1,4
   176ae:	4601                	li	a2,0
   176b0:	4681                	li	a3,0
   176b2:	00000073          	ecall
   176b6:	50b6                	lw	ra,108(sp)
   176b8:	5426                	lw	s0,104(sp)
   176ba:	5496                	lw	s1,100(sp)
   176bc:	5906                	lw	s2,96(sp)
   176be:	49f6                	lw	s3,92(sp)
   176c0:	4a66                	lw	s4,88(sp)
   176c2:	4ad6                	lw	s5,84(sp)
   176c4:	6165                	addi	sp,sp,112
   176c6:	8082                	ret
   176c8:	00b14703          	lbu	a4,11(sp)
   176cc:	00c71463          	bne	a4,a2,176d4 <_ZN20complex_dynamic_type3app17hb9bfbb822f918faaE+0x10c>
   176d0:	470d                	li	a4,3
   176d2:	a825                	j	1770a <_ZN20complex_dynamic_type3app17hb9bfbb822f918faaE+0x142>
   176d4:	6509                	lui	a0,0x2
   176d6:	bd650513          	addi	a0,a0,-1066 # 1bd6 <.Lline_table_start1+0x19ab>
   176da:	4591                	li	a1,4
   176dc:	4601                	li	a2,0
   176de:	4681                	li	a3,0
   176e0:	00000073          	ecall
   176e4:	02f14703          	lbu	a4,47(sp)
   176e8:	4509                	li	a0,2
   176ea:	00a105a3          	sb	a0,11(sp)
   176ee:	00a71e63          	bne	a4,a0,1770a <_ZN20complex_dynamic_type3app17hb9bfbb822f918faaE+0x142>
   176f2:	001a8513          	addi	a0,s5,1
   176f6:	02400613          	li	a2,36
   176fa:	85d2                	mv	a1,s4
   176fc:	00007097          	auipc	ra,0x7
   17700:	e18080e7          	jalr	-488(ra) # 1e514 <memcpy>
   17704:	000a8023          	sb	zero,0(s5)
   17708:	b77d                	j	176b6 <_ZN20complex_dynamic_type3app17hb9bfbb822f918faaE+0xee>
   1770a:	6509                	lui	a0,0x2
   1770c:	bd650913          	addi	s2,a0,-1066 # 1bd6 <.Lline_table_start1+0x19ab>
   17710:	45a1                	li	a1,8
   17712:	854a                	mv	a0,s2
   17714:	4601                	li	a2,0
   17716:	4681                	li	a3,0
   17718:	00000073          	ecall
   1771c:	00b14983          	lbu	s3,11(sp)
   17720:	001a8513          	addi	a0,s5,1
   17724:	02400613          	li	a2,36
   17728:	85d2                	mv	a1,s4
   1772a:	00007097          	auipc	ra,0x7
   1772e:	dea080e7          	jalr	-534(ra) # 1e514 <memcpy>
   17732:	4509                	li	a0,2
   17734:	000a8023          	sb	zero,0(s5)
   17738:	f6a98fe3          	beq	s3,a0,176b6 <_ZN20complex_dynamic_type3app17hb9bfbb822f918faaE+0xee>
   1773c:	4591                	li	a1,4
   1773e:	854a                	mv	a0,s2
   17740:	4601                	li	a2,0
   17742:	4681                	li	a3,0
   17744:	874e                	mv	a4,s3
   17746:	00000073          	ecall
   1774a:	b7b5                	j	176b6 <_ZN20complex_dynamic_type3app17hb9bfbb822f918faaE+0xee>

0001774c <_ZN20complex_dynamic_type3app17hbf3fc723d318db2eE>:
   1774c:	7159                	addi	sp,sp,-112
   1774e:	d686                	sw	ra,108(sp)
   17750:	d4a2                	sw	s0,104(sp)
   17752:	d2a6                	sw	s1,100(sp)
   17754:	d0ca                	sw	s2,96(sp)
   17756:	cece                	sw	s3,92(sp)
   17758:	ccd2                	sw	s4,88(sp)
   1775a:	8a2a                	mv	s4,a0
   1775c:	4409                	li	s0,2
   1775e:	00810423          	sb	s0,8(sp)
   17762:	00910493          	addi	s1,sp,9
   17766:	4661                	li	a2,24
   17768:	8526                	mv	a0,s1
   1776a:	00007097          	auipc	ra,0x7
   1776e:	daa080e7          	jalr	-598(ra) # 1e514 <memcpy>
   17772:	02210993          	addi	s3,sp,34
   17776:	03600613          	li	a2,54
   1777a:	854e                	mv	a0,s3
   1777c:	4581                	li	a1,0
   1777e:	00007097          	auipc	ra,0x7
   17782:	d2a080e7          	jalr	-726(ra) # 1e4a8 <memset>
   17786:	8626                	mv	a2,s1
   17788:	028100a3          	sb	s0,33(sp)
   1778c:	4791                	li	a5,4
   1778e:	0f300513          	li	a0,243
   17792:	45a1                	li	a1,8
   17794:	46e1                	li	a3,24
   17796:	4711                	li	a4,4
   17798:	00000073          	ecall
   1779c:	00851863          	bne	a0,s0,177ac <_ZN20complex_dynamic_type3app17hbf3fc723d318db2eE+0x60>
   177a0:	4505                	li	a0,1
   177a2:	00aa0023          	sb	a0,0(s4)
   177a6:	00ba2223          	sw	a1,4(s4)
   177aa:	a0b5                	j	17816 <_ZN20complex_dynamic_type3app17hbf3fc723d318db2eE+0xca>
   177ac:	864e                	mv	a2,s3
   177ae:	00f10423          	sb	a5,8(sp)
   177b2:	478d                	li	a5,3
   177b4:	0f300513          	li	a0,243
   177b8:	4591                	li	a1,4
   177ba:	03600693          	li	a3,54
   177be:	470d                	li	a4,3
   177c0:	00000073          	ecall
   177c4:	00851d63          	bne	a0,s0,177de <_ZN20complex_dynamic_type3app17hbf3fc723d318db2eE+0x92>
   177c8:	02114703          	lbu	a4,33(sp)
   177cc:	4505                	li	a0,1
   177ce:	4609                	li	a2,2
   177d0:	00aa0023          	sb	a0,0(s4)
   177d4:	00ba2223          	sw	a1,4(s4)
   177d8:	02c71863          	bne	a4,a2,17808 <_ZN20complex_dynamic_type3app17hbf3fc723d318db2eE+0xbc>
   177dc:	a82d                	j	17816 <_ZN20complex_dynamic_type3app17hbf3fc723d318db2eE+0xca>
   177de:	4681                	li	a3,0
   177e0:	02f100a3          	sb	a5,33(sp)
   177e4:	0f300513          	li	a0,243
   177e8:	45a1                	li	a1,8
   177ea:	4611                	li	a2,4
   177ec:	4709                	li	a4,2
   177ee:	08000793          	li	a5,128
   177f2:	00000073          	ecall
   177f6:	4609                	li	a2,2
   177f8:	04f57363          	bgeu	a0,a5,1783e <_ZN20complex_dynamic_type3app17hbf3fc723d318db2eE+0xf2>
   177fc:	4505                	li	a0,1
   177fe:	00aa0023          	sb	a0,0(s4)
   17802:	00ba2223          	sw	a1,4(s4)
   17806:	470d                	li	a4,3
   17808:	0f300513          	li	a0,243
   1780c:	4591                	li	a1,4
   1780e:	4601                	li	a2,0
   17810:	4681                	li	a3,0
   17812:	00000073          	ecall
   17816:	00814703          	lbu	a4,8(sp)
   1781a:	4509                	li	a0,2
   1781c:	00a70963          	beq	a4,a0,1782e <_ZN20complex_dynamic_type3app17hbf3fc723d318db2eE+0xe2>
   17820:	0f300513          	li	a0,243
   17824:	45a1                	li	a1,8
   17826:	4601                	li	a2,0
   17828:	4681                	li	a3,0
   1782a:	00000073          	ecall
   1782e:	50b6                	lw	ra,108(sp)
   17830:	5426                	lw	s0,104(sp)
   17832:	5496                	lw	s1,100(sp)
   17834:	5906                	lw	s2,96(sp)
   17836:	49f6                	lw	s3,92(sp)
   17838:	4a66                	lw	s4,88(sp)
   1783a:	6165                	addi	sp,sp,112
   1783c:	8082                	ret
   1783e:	00814703          	lbu	a4,8(sp)
   17842:	00c71463          	bne	a4,a2,1784a <_ZN20complex_dynamic_type3app17hbf3fc723d318db2eE+0xfe>
   17846:	470d                	li	a4,3
   17848:	a81d                	j	1787e <_ZN20complex_dynamic_type3app17hbf3fc723d318db2eE+0x132>
   1784a:	0f300513          	li	a0,243
   1784e:	45a1                	li	a1,8
   17850:	4601                	li	a2,0
   17852:	4681                	li	a3,0
   17854:	00000073          	ecall
   17858:	02114703          	lbu	a4,33(sp)
   1785c:	4509                	li	a0,2
   1785e:	00a10423          	sb	a0,8(sp)
   17862:	00a71e63          	bne	a4,a0,1787e <_ZN20complex_dynamic_type3app17hbf3fc723d318db2eE+0x132>
   17866:	001a0513          	addi	a0,s4,1
   1786a:	03600613          	li	a2,54
   1786e:	85ce                	mv	a1,s3
   17870:	00007097          	auipc	ra,0x7
   17874:	ca4080e7          	jalr	-860(ra) # 1e514 <memcpy>
   17878:	000a0023          	sb	zero,0(s4)
   1787c:	bf4d                	j	1782e <_ZN20complex_dynamic_type3app17hbf3fc723d318db2eE+0xe2>
   1787e:	0f300513          	li	a0,243
   17882:	4591                	li	a1,4
   17884:	4601                	li	a2,0
   17886:	4681                	li	a3,0
   17888:	00000073          	ecall
   1788c:	00814903          	lbu	s2,8(sp)
   17890:	001a0513          	addi	a0,s4,1
   17894:	03600613          	li	a2,54
   17898:	85ce                	mv	a1,s3
   1789a:	00007097          	auipc	ra,0x7
   1789e:	c7a080e7          	jalr	-902(ra) # 1e514 <memcpy>
   178a2:	4509                	li	a0,2
   178a4:	000a0023          	sb	zero,0(s4)
   178a8:	f8a903e3          	beq	s2,a0,1782e <_ZN20complex_dynamic_type3app17hbf3fc723d318db2eE+0xe2>
   178ac:	0f300513          	li	a0,243
   178b0:	45a1                	li	a1,8
   178b2:	4601                	li	a2,0
   178b4:	4681                	li	a3,0
   178b6:	874a                	mv	a4,s2
   178b8:	00000073          	ecall
   178bc:	bf8d                	j	1782e <_ZN20complex_dynamic_type3app17hbf3fc723d318db2eE+0xe2>

000178be <_ZN20complex_dynamic_type3app17hc41f1b15554c1669E>:
   178be:	7135                	addi	sp,sp,-160
   178c0:	cf06                	sw	ra,156(sp)
   178c2:	cd22                	sw	s0,152(sp)
   178c4:	cb26                	sw	s1,148(sp)
   178c6:	c94a                	sw	s2,144(sp)
   178c8:	c74e                	sw	s3,140(sp)
   178ca:	c552                	sw	s4,136(sp)
   178cc:	c356                	sw	s5,132(sp)
   178ce:	8aaa                	mv	s5,a0
   178d0:	4409                	li	s0,2
   178d2:	00810623          	sb	s0,12(sp)
   178d6:	00d10493          	addi	s1,sp,13
   178da:	02700613          	li	a2,39
   178de:	8526                	mv	a0,s1
   178e0:	00007097          	auipc	ra,0x7
   178e4:	c34080e7          	jalr	-972(ra) # 1e514 <memcpy>
   178e8:	03510a13          	addi	s4,sp,53
   178ec:	04f00613          	li	a2,79
   178f0:	8552                	mv	a0,s4
   178f2:	4581                	li	a1,0
   178f4:	00007097          	auipc	ra,0x7
   178f8:	bb4080e7          	jalr	-1100(ra) # 1e4a8 <memset>
   178fc:	8626                	mv	a2,s1
   178fe:	02810a23          	sb	s0,52(sp)
   17902:	6505                	lui	a0,0x1
   17904:	4491                	li	s1,4
   17906:	45a5                	li	a1,9
   17908:	b4c50793          	addi	a5,a0,-1204 # b4c <.Lline_table_start1+0x921>
   1790c:	02700693          	li	a3,39
   17910:	4711                	li	a4,4
   17912:	853e                	mv	a0,a5
   17914:	00000073          	ecall
   17918:	00851863          	bne	a0,s0,17928 <_ZN20complex_dynamic_type3app17hc41f1b15554c1669E+0x6a>
   1791c:	4505                	li	a0,1
   1791e:	00aa8023          	sb	a0,0(s5)
   17922:	00baa223          	sw	a1,4(s5)
   17926:	a0bd                	j	17994 <_ZN20complex_dynamic_type3app17hc41f1b15554c1669E+0xd6>
   17928:	853e                	mv	a0,a5
   1792a:	4581                	li	a1,0
   1792c:	8652                	mv	a2,s4
   1792e:	00910623          	sb	s1,12(sp)
   17932:	478d                	li	a5,3
   17934:	04f00693          	li	a3,79
   17938:	470d                	li	a4,3
   1793a:	00000073          	ecall
   1793e:	00851d63          	bne	a0,s0,17958 <_ZN20complex_dynamic_type3app17hc41f1b15554c1669E+0x9a>
   17942:	03414703          	lbu	a4,52(sp)
   17946:	4505                	li	a0,1
   17948:	4609                	li	a2,2
   1794a:	00aa8023          	sb	a0,0(s5)
   1794e:	00baa223          	sw	a1,4(s5)
   17952:	02c71963          	bne	a4,a2,17984 <_ZN20complex_dynamic_type3app17hc41f1b15554c1669E+0xc6>
   17956:	a83d                	j	17994 <_ZN20complex_dynamic_type3app17hc41f1b15554c1669E+0xd6>
   17958:	4601                	li	a2,0
   1795a:	4681                	li	a3,0
   1795c:	02f10a23          	sb	a5,52(sp)
   17960:	6505                	lui	a0,0x1
   17962:	45a5                	li	a1,9
   17964:	4709                	li	a4,2
   17966:	b4c50513          	addi	a0,a0,-1204 # b4c <.Lline_table_start1+0x921>
   1796a:	08000793          	li	a5,128
   1796e:	00000073          	ecall
   17972:	4609                	li	a2,2
   17974:	04f57663          	bgeu	a0,a5,179c0 <_ZN20complex_dynamic_type3app17hc41f1b15554c1669E+0x102>
   17978:	4505                	li	a0,1
   1797a:	00aa8023          	sb	a0,0(s5)
   1797e:	00baa223          	sw	a1,4(s5)
   17982:	470d                	li	a4,3
   17984:	6505                	lui	a0,0x1
   17986:	b4c50513          	addi	a0,a0,-1204 # b4c <.Lline_table_start1+0x921>
   1798a:	4581                	li	a1,0
   1798c:	4601                	li	a2,0
   1798e:	4681                	li	a3,0
   17990:	00000073          	ecall
   17994:	00c14703          	lbu	a4,12(sp)
   17998:	4509                	li	a0,2
   1799a:	00a70a63          	beq	a4,a0,179ae <_ZN20complex_dynamic_type3app17hc41f1b15554c1669E+0xf0>
   1799e:	6505                	lui	a0,0x1
   179a0:	b4c50513          	addi	a0,a0,-1204 # b4c <.Lline_table_start1+0x921>
   179a4:	45a5                	li	a1,9
   179a6:	4601                	li	a2,0
   179a8:	4681                	li	a3,0
   179aa:	00000073          	ecall
   179ae:	40fa                	lw	ra,156(sp)
   179b0:	446a                	lw	s0,152(sp)
   179b2:	44da                	lw	s1,148(sp)
   179b4:	494a                	lw	s2,144(sp)
   179b6:	49ba                	lw	s3,140(sp)
   179b8:	4a2a                	lw	s4,136(sp)
   179ba:	4a9a                	lw	s5,132(sp)
   179bc:	610d                	addi	sp,sp,160
   179be:	8082                	ret
   179c0:	00c14703          	lbu	a4,12(sp)
   179c4:	00c71463          	bne	a4,a2,179cc <_ZN20complex_dynamic_type3app17hc41f1b15554c1669E+0x10e>
   179c8:	470d                	li	a4,3
   179ca:	a825                	j	17a02 <_ZN20complex_dynamic_type3app17hc41f1b15554c1669E+0x144>
   179cc:	6505                	lui	a0,0x1
   179ce:	b4c50513          	addi	a0,a0,-1204 # b4c <.Lline_table_start1+0x921>
   179d2:	45a5                	li	a1,9
   179d4:	4601                	li	a2,0
   179d6:	4681                	li	a3,0
   179d8:	00000073          	ecall
   179dc:	03414703          	lbu	a4,52(sp)
   179e0:	4509                	li	a0,2
   179e2:	00a10623          	sb	a0,12(sp)
   179e6:	00a71e63          	bne	a4,a0,17a02 <_ZN20complex_dynamic_type3app17hc41f1b15554c1669E+0x144>
   179ea:	001a8513          	addi	a0,s5,1
   179ee:	04f00613          	li	a2,79
   179f2:	85d2                	mv	a1,s4
   179f4:	00007097          	auipc	ra,0x7
   179f8:	b20080e7          	jalr	-1248(ra) # 1e514 <memcpy>
   179fc:	000a8023          	sb	zero,0(s5)
   17a00:	b77d                	j	179ae <_ZN20complex_dynamic_type3app17hc41f1b15554c1669E+0xf0>
   17a02:	6505                	lui	a0,0x1
   17a04:	b4c50913          	addi	s2,a0,-1204 # b4c <.Lline_table_start1+0x921>
   17a08:	854a                	mv	a0,s2
   17a0a:	4581                	li	a1,0
   17a0c:	4601                	li	a2,0
   17a0e:	4681                	li	a3,0
   17a10:	00000073          	ecall
   17a14:	00c14983          	lbu	s3,12(sp)
   17a18:	001a8513          	addi	a0,s5,1
   17a1c:	04f00613          	li	a2,79
   17a20:	85d2                	mv	a1,s4
   17a22:	00007097          	auipc	ra,0x7
   17a26:	af2080e7          	jalr	-1294(ra) # 1e514 <memcpy>
   17a2a:	4509                	li	a0,2
   17a2c:	000a8023          	sb	zero,0(s5)
   17a30:	f6a98fe3          	beq	s3,a0,179ae <_ZN20complex_dynamic_type3app17hc41f1b15554c1669E+0xf0>
   17a34:	45a5                	li	a1,9
   17a36:	854a                	mv	a0,s2
   17a38:	4601                	li	a2,0
   17a3a:	4681                	li	a3,0
   17a3c:	874e                	mv	a4,s3
   17a3e:	00000073          	ecall
   17a42:	b7b5                	j	179ae <_ZN20complex_dynamic_type3app17hc41f1b15554c1669E+0xf0>

00017a44 <_ZN20complex_dynamic_type3app17hc46e71b8cd43c401E>:
   17a44:	711d                	addi	sp,sp,-96
   17a46:	ce86                	sw	ra,92(sp)
   17a48:	cca2                	sw	s0,88(sp)
   17a4a:	caa6                	sw	s1,84(sp)
   17a4c:	c8ca                	sw	s2,80(sp)
   17a4e:	c6ce                	sw	s3,76(sp)
   17a50:	c4d2                	sw	s4,72(sp)
   17a52:	8a2a                	mv	s4,a0
   17a54:	4409                	li	s0,2
   17a56:	008100a3          	sb	s0,1(sp)
   17a5a:	00210493          	addi	s1,sp,2
   17a5e:	03600613          	li	a2,54
   17a62:	8526                	mv	a0,s1
   17a64:	00007097          	auipc	ra,0x7
   17a68:	ab0080e7          	jalr	-1360(ra) # 1e514 <memcpy>
   17a6c:	03910993          	addi	s3,sp,57
   17a70:	463d                	li	a2,15
   17a72:	854e                	mv	a0,s3
   17a74:	4581                	li	a1,0
   17a76:	00007097          	auipc	ra,0x7
   17a7a:	a32080e7          	jalr	-1486(ra) # 1e4a8 <memset>
   17a7e:	8626                	mv	a2,s1
   17a80:	02810c23          	sb	s0,56(sp)
   17a84:	4791                	li	a5,4
   17a86:	65300513          	li	a0,1619
   17a8a:	4595                	li	a1,5
   17a8c:	03600693          	li	a3,54
   17a90:	4711                	li	a4,4
   17a92:	00000073          	ecall
   17a96:	00851863          	bne	a0,s0,17aa6 <_ZN20complex_dynamic_type3app17hc46e71b8cd43c401E+0x62>
   17a9a:	4505                	li	a0,1
   17a9c:	00aa0023          	sb	a0,0(s4)
   17aa0:	00ba2223          	sw	a1,4(s4)
   17aa4:	a0ad                	j	17b0e <_ZN20complex_dynamic_type3app17hc46e71b8cd43c401E+0xca>
   17aa6:	864e                	mv	a2,s3
   17aa8:	00f100a3          	sb	a5,1(sp)
   17aac:	478d                	li	a5,3
   17aae:	65300513          	li	a0,1619
   17ab2:	458d                	li	a1,3
   17ab4:	46bd                	li	a3,15
   17ab6:	470d                	li	a4,3
   17ab8:	00000073          	ecall
   17abc:	00851d63          	bne	a0,s0,17ad6 <_ZN20complex_dynamic_type3app17hc46e71b8cd43c401E+0x92>
   17ac0:	03814703          	lbu	a4,56(sp)
   17ac4:	4505                	li	a0,1
   17ac6:	4609                	li	a2,2
   17ac8:	00aa0023          	sb	a0,0(s4)
   17acc:	00ba2223          	sw	a1,4(s4)
   17ad0:	02c71863          	bne	a4,a2,17b00 <_ZN20complex_dynamic_type3app17hc46e71b8cd43c401E+0xbc>
   17ad4:	a82d                	j	17b0e <_ZN20complex_dynamic_type3app17hc46e71b8cd43c401E+0xca>
   17ad6:	4681                	li	a3,0
   17ad8:	02f10c23          	sb	a5,56(sp)
   17adc:	65300513          	li	a0,1619
   17ae0:	4595                	li	a1,5
   17ae2:	460d                	li	a2,3
   17ae4:	4709                	li	a4,2
   17ae6:	08000793          	li	a5,128
   17aea:	00000073          	ecall
   17aee:	4609                	li	a2,2
   17af0:	04f57363          	bgeu	a0,a5,17b36 <_ZN20complex_dynamic_type3app17hc46e71b8cd43c401E+0xf2>
   17af4:	4505                	li	a0,1
   17af6:	00aa0023          	sb	a0,0(s4)
   17afa:	00ba2223          	sw	a1,4(s4)
   17afe:	470d                	li	a4,3
   17b00:	65300513          	li	a0,1619
   17b04:	458d                	li	a1,3
   17b06:	4601                	li	a2,0
   17b08:	4681                	li	a3,0
   17b0a:	00000073          	ecall
   17b0e:	00114703          	lbu	a4,1(sp)
   17b12:	4509                	li	a0,2
   17b14:	00a70963          	beq	a4,a0,17b26 <_ZN20complex_dynamic_type3app17hc46e71b8cd43c401E+0xe2>
   17b18:	65300513          	li	a0,1619
   17b1c:	4595                	li	a1,5
   17b1e:	4601                	li	a2,0
   17b20:	4681                	li	a3,0
   17b22:	00000073          	ecall
   17b26:	40f6                	lw	ra,92(sp)
   17b28:	4466                	lw	s0,88(sp)
   17b2a:	44d6                	lw	s1,84(sp)
   17b2c:	4946                	lw	s2,80(sp)
   17b2e:	49b6                	lw	s3,76(sp)
   17b30:	4a26                	lw	s4,72(sp)
   17b32:	6125                	addi	sp,sp,96
   17b34:	8082                	ret
   17b36:	00114703          	lbu	a4,1(sp)
   17b3a:	00c71463          	bne	a4,a2,17b42 <_ZN20complex_dynamic_type3app17hc46e71b8cd43c401E+0xfe>
   17b3e:	470d                	li	a4,3
   17b40:	a815                	j	17b74 <_ZN20complex_dynamic_type3app17hc46e71b8cd43c401E+0x130>
   17b42:	65300513          	li	a0,1619
   17b46:	4595                	li	a1,5
   17b48:	4601                	li	a2,0
   17b4a:	4681                	li	a3,0
   17b4c:	00000073          	ecall
   17b50:	03814703          	lbu	a4,56(sp)
   17b54:	4509                	li	a0,2
   17b56:	00a100a3          	sb	a0,1(sp)
   17b5a:	00a71d63          	bne	a4,a0,17b74 <_ZN20complex_dynamic_type3app17hc46e71b8cd43c401E+0x130>
   17b5e:	001a0513          	addi	a0,s4,1
   17b62:	463d                	li	a2,15
   17b64:	85ce                	mv	a1,s3
   17b66:	00007097          	auipc	ra,0x7
   17b6a:	9ae080e7          	jalr	-1618(ra) # 1e514 <memcpy>
   17b6e:	000a0023          	sb	zero,0(s4)
   17b72:	bf55                	j	17b26 <_ZN20complex_dynamic_type3app17hc46e71b8cd43c401E+0xe2>
   17b74:	65300513          	li	a0,1619
   17b78:	458d                	li	a1,3
   17b7a:	4601                	li	a2,0
   17b7c:	4681                	li	a3,0
   17b7e:	00000073          	ecall
   17b82:	00114903          	lbu	s2,1(sp)
   17b86:	001a0513          	addi	a0,s4,1
   17b8a:	463d                	li	a2,15
   17b8c:	85ce                	mv	a1,s3
   17b8e:	00007097          	auipc	ra,0x7
   17b92:	986080e7          	jalr	-1658(ra) # 1e514 <memcpy>
   17b96:	4509                	li	a0,2
   17b98:	000a0023          	sb	zero,0(s4)
   17b9c:	f8a905e3          	beq	s2,a0,17b26 <_ZN20complex_dynamic_type3app17hc46e71b8cd43c401E+0xe2>
   17ba0:	65300513          	li	a0,1619
   17ba4:	4595                	li	a1,5
   17ba6:	4601                	li	a2,0
   17ba8:	4681                	li	a3,0
   17baa:	874a                	mv	a4,s2
   17bac:	00000073          	ecall
   17bb0:	bf9d                	j	17b26 <_ZN20complex_dynamic_type3app17hc46e71b8cd43c401E+0xe2>

00017bb2 <_ZN20complex_dynamic_type3app17hc60eef5406704967E>:
   17bb2:	7175                	addi	sp,sp,-144
   17bb4:	c706                	sw	ra,140(sp)
   17bb6:	c522                	sw	s0,136(sp)
   17bb8:	c326                	sw	s1,132(sp)
   17bba:	c14a                	sw	s2,128(sp)
   17bbc:	dece                	sw	s3,124(sp)
   17bbe:	dcd2                	sw	s4,120(sp)
   17bc0:	dad6                	sw	s5,116(sp)
   17bc2:	8aaa                	mv	s5,a0
   17bc4:	4409                	li	s0,2
   17bc6:	00810523          	sb	s0,10(sp)
   17bca:	00b10493          	addi	s1,sp,11
   17bce:	03c00613          	li	a2,60
   17bd2:	8526                	mv	a0,s1
   17bd4:	00007097          	auipc	ra,0x7
   17bd8:	940080e7          	jalr	-1728(ra) # 1e514 <memcpy>
   17bdc:	04810a13          	addi	s4,sp,72
   17be0:	02c00613          	li	a2,44
   17be4:	8552                	mv	a0,s4
   17be6:	4581                	li	a1,0
   17be8:	00007097          	auipc	ra,0x7
   17bec:	8c0080e7          	jalr	-1856(ra) # 1e4a8 <memset>
   17bf0:	8626                	mv	a2,s1
   17bf2:	048103a3          	sb	s0,71(sp)
   17bf6:	6509                	lui	a0,0x2
   17bf8:	4491                	li	s1,4
   17bfa:	4595                	li	a1,5
   17bfc:	eac50793          	addi	a5,a0,-340 # 1eac <.Lline_table_start1+0x1c81>
   17c00:	03c00693          	li	a3,60
   17c04:	4711                	li	a4,4
   17c06:	853e                	mv	a0,a5
   17c08:	00000073          	ecall
   17c0c:	00851863          	bne	a0,s0,17c1c <_ZN20complex_dynamic_type3app17hc60eef5406704967E+0x6a>
   17c10:	4505                	li	a0,1
   17c12:	00aa8023          	sb	a0,0(s5)
   17c16:	00baa223          	sw	a1,4(s5)
   17c1a:	a0bd                	j	17c88 <_ZN20complex_dynamic_type3app17hc60eef5406704967E+0xd6>
   17c1c:	853e                	mv	a0,a5
   17c1e:	8652                	mv	a2,s4
   17c20:	00910523          	sb	s1,10(sp)
   17c24:	478d                	li	a5,3
   17c26:	459d                	li	a1,7
   17c28:	02c00693          	li	a3,44
   17c2c:	470d                	li	a4,3
   17c2e:	00000073          	ecall
   17c32:	00851d63          	bne	a0,s0,17c4c <_ZN20complex_dynamic_type3app17hc60eef5406704967E+0x9a>
   17c36:	04714703          	lbu	a4,71(sp)
   17c3a:	4505                	li	a0,1
   17c3c:	4609                	li	a2,2
   17c3e:	00aa8023          	sb	a0,0(s5)
   17c42:	00baa223          	sw	a1,4(s5)
   17c46:	02c71963          	bne	a4,a2,17c78 <_ZN20complex_dynamic_type3app17hc60eef5406704967E+0xc6>
   17c4a:	a83d                	j	17c88 <_ZN20complex_dynamic_type3app17hc60eef5406704967E+0xd6>
   17c4c:	4681                	li	a3,0
   17c4e:	04f103a3          	sb	a5,71(sp)
   17c52:	6509                	lui	a0,0x2
   17c54:	4595                	li	a1,5
   17c56:	461d                	li	a2,7
   17c58:	4709                	li	a4,2
   17c5a:	eac50513          	addi	a0,a0,-340 # 1eac <.Lline_table_start1+0x1c81>
   17c5e:	08000793          	li	a5,128
   17c62:	00000073          	ecall
   17c66:	4609                	li	a2,2
   17c68:	04f57663          	bgeu	a0,a5,17cb4 <_ZN20complex_dynamic_type3app17hc60eef5406704967E+0x102>
   17c6c:	4505                	li	a0,1
   17c6e:	00aa8023          	sb	a0,0(s5)
   17c72:	00baa223          	sw	a1,4(s5)
   17c76:	470d                	li	a4,3
   17c78:	6509                	lui	a0,0x2
   17c7a:	eac50513          	addi	a0,a0,-340 # 1eac <.Lline_table_start1+0x1c81>
   17c7e:	459d                	li	a1,7
   17c80:	4601                	li	a2,0
   17c82:	4681                	li	a3,0
   17c84:	00000073          	ecall
   17c88:	00a14703          	lbu	a4,10(sp)
   17c8c:	4509                	li	a0,2
   17c8e:	00a70a63          	beq	a4,a0,17ca2 <_ZN20complex_dynamic_type3app17hc60eef5406704967E+0xf0>
   17c92:	6509                	lui	a0,0x2
   17c94:	eac50513          	addi	a0,a0,-340 # 1eac <.Lline_table_start1+0x1c81>
   17c98:	4595                	li	a1,5
   17c9a:	4601                	li	a2,0
   17c9c:	4681                	li	a3,0
   17c9e:	00000073          	ecall
   17ca2:	40ba                	lw	ra,140(sp)
   17ca4:	442a                	lw	s0,136(sp)
   17ca6:	449a                	lw	s1,132(sp)
   17ca8:	490a                	lw	s2,128(sp)
   17caa:	59f6                	lw	s3,124(sp)
   17cac:	5a66                	lw	s4,120(sp)
   17cae:	5ad6                	lw	s5,116(sp)
   17cb0:	6149                	addi	sp,sp,144
   17cb2:	8082                	ret
   17cb4:	00a14703          	lbu	a4,10(sp)
   17cb8:	00c71463          	bne	a4,a2,17cc0 <_ZN20complex_dynamic_type3app17hc60eef5406704967E+0x10e>
   17cbc:	470d                	li	a4,3
   17cbe:	a825                	j	17cf6 <_ZN20complex_dynamic_type3app17hc60eef5406704967E+0x144>
   17cc0:	6509                	lui	a0,0x2
   17cc2:	eac50513          	addi	a0,a0,-340 # 1eac <.Lline_table_start1+0x1c81>
   17cc6:	4595                	li	a1,5
   17cc8:	4601                	li	a2,0
   17cca:	4681                	li	a3,0
   17ccc:	00000073          	ecall
   17cd0:	04714703          	lbu	a4,71(sp)
   17cd4:	4509                	li	a0,2
   17cd6:	00a10523          	sb	a0,10(sp)
   17cda:	00a71e63          	bne	a4,a0,17cf6 <_ZN20complex_dynamic_type3app17hc60eef5406704967E+0x144>
   17cde:	001a8513          	addi	a0,s5,1
   17ce2:	02c00613          	li	a2,44
   17ce6:	85d2                	mv	a1,s4
   17ce8:	00007097          	auipc	ra,0x7
   17cec:	82c080e7          	jalr	-2004(ra) # 1e514 <memcpy>
   17cf0:	000a8023          	sb	zero,0(s5)
   17cf4:	b77d                	j	17ca2 <_ZN20complex_dynamic_type3app17hc60eef5406704967E+0xf0>
   17cf6:	6509                	lui	a0,0x2
   17cf8:	eac50913          	addi	s2,a0,-340 # 1eac <.Lline_table_start1+0x1c81>
   17cfc:	459d                	li	a1,7
   17cfe:	854a                	mv	a0,s2
   17d00:	4601                	li	a2,0
   17d02:	4681                	li	a3,0
   17d04:	00000073          	ecall
   17d08:	00a14983          	lbu	s3,10(sp)
   17d0c:	001a8513          	addi	a0,s5,1
   17d10:	02c00613          	li	a2,44
   17d14:	85d2                	mv	a1,s4
   17d16:	00006097          	auipc	ra,0x6
   17d1a:	7fe080e7          	jalr	2046(ra) # 1e514 <memcpy>
   17d1e:	4509                	li	a0,2
   17d20:	000a8023          	sb	zero,0(s5)
   17d24:	f6a98fe3          	beq	s3,a0,17ca2 <_ZN20complex_dynamic_type3app17hc60eef5406704967E+0xf0>
   17d28:	4595                	li	a1,5
   17d2a:	854a                	mv	a0,s2
   17d2c:	4601                	li	a2,0
   17d2e:	4681                	li	a3,0
   17d30:	874e                	mv	a4,s3
   17d32:	00000073          	ecall
   17d36:	b7b5                	j	17ca2 <_ZN20complex_dynamic_type3app17hc60eef5406704967E+0xf0>

00017d38 <_ZN20complex_dynamic_type3app17hc6bc96591714140aE>:
   17d38:	7119                	addi	sp,sp,-128
   17d3a:	de86                	sw	ra,124(sp)
   17d3c:	dca2                	sw	s0,120(sp)
   17d3e:	daa6                	sw	s1,116(sp)
   17d40:	d8ca                	sw	s2,112(sp)
   17d42:	d6ce                	sw	s3,108(sp)
   17d44:	d4d2                	sw	s4,104(sp)
   17d46:	d2d6                	sw	s5,100(sp)
   17d48:	8aaa                	mv	s5,a0
   17d4a:	4409                	li	s0,2
   17d4c:	00810623          	sb	s0,12(sp)
   17d50:	00d10493          	addi	s1,sp,13
   17d54:	02c00613          	li	a2,44
   17d58:	8526                	mv	a0,s1
   17d5a:	00006097          	auipc	ra,0x6
   17d5e:	7ba080e7          	jalr	1978(ra) # 1e514 <memcpy>
   17d62:	03a10a13          	addi	s4,sp,58
   17d66:	02a00613          	li	a2,42
   17d6a:	8552                	mv	a0,s4
   17d6c:	4581                	li	a1,0
   17d6e:	00006097          	auipc	ra,0x6
   17d72:	73a080e7          	jalr	1850(ra) # 1e4a8 <memset>
   17d76:	8626                	mv	a2,s1
   17d78:	02810ca3          	sb	s0,57(sp)
   17d7c:	6509                	lui	a0,0x2
   17d7e:	4491                	li	s1,4
   17d80:	458d                	li	a1,3
   17d82:	4f050793          	addi	a5,a0,1264 # 24f0 <.Lline_table_start1+0x22c5>
   17d86:	02c00693          	li	a3,44
   17d8a:	4711                	li	a4,4
   17d8c:	853e                	mv	a0,a5
   17d8e:	00000073          	ecall
   17d92:	00851863          	bne	a0,s0,17da2 <_ZN20complex_dynamic_type3app17hc6bc96591714140aE+0x6a>
   17d96:	4505                	li	a0,1
   17d98:	00aa8023          	sb	a0,0(s5)
   17d9c:	00baa223          	sw	a1,4(s5)
   17da0:	a0bd                	j	17e0e <_ZN20complex_dynamic_type3app17hc6bc96591714140aE+0xd6>
   17da2:	853e                	mv	a0,a5
   17da4:	4581                	li	a1,0
   17da6:	8652                	mv	a2,s4
   17da8:	00910623          	sb	s1,12(sp)
   17dac:	478d                	li	a5,3
   17dae:	02a00693          	li	a3,42
   17db2:	470d                	li	a4,3
   17db4:	00000073          	ecall
   17db8:	00851d63          	bne	a0,s0,17dd2 <_ZN20complex_dynamic_type3app17hc6bc96591714140aE+0x9a>
   17dbc:	03914703          	lbu	a4,57(sp)
   17dc0:	4505                	li	a0,1
   17dc2:	4609                	li	a2,2
   17dc4:	00aa8023          	sb	a0,0(s5)
   17dc8:	00baa223          	sw	a1,4(s5)
   17dcc:	02c71963          	bne	a4,a2,17dfe <_ZN20complex_dynamic_type3app17hc6bc96591714140aE+0xc6>
   17dd0:	a83d                	j	17e0e <_ZN20complex_dynamic_type3app17hc6bc96591714140aE+0xd6>
   17dd2:	4601                	li	a2,0
   17dd4:	4681                	li	a3,0
   17dd6:	02f10ca3          	sb	a5,57(sp)
   17dda:	6509                	lui	a0,0x2
   17ddc:	458d                	li	a1,3
   17dde:	4709                	li	a4,2
   17de0:	4f050513          	addi	a0,a0,1264 # 24f0 <.Lline_table_start1+0x22c5>
   17de4:	08000793          	li	a5,128
   17de8:	00000073          	ecall
   17dec:	4609                	li	a2,2
   17dee:	04f57663          	bgeu	a0,a5,17e3a <_ZN20complex_dynamic_type3app17hc6bc96591714140aE+0x102>
   17df2:	4505                	li	a0,1
   17df4:	00aa8023          	sb	a0,0(s5)
   17df8:	00baa223          	sw	a1,4(s5)
   17dfc:	470d                	li	a4,3
   17dfe:	6509                	lui	a0,0x2
   17e00:	4f050513          	addi	a0,a0,1264 # 24f0 <.Lline_table_start1+0x22c5>
   17e04:	4581                	li	a1,0
   17e06:	4601                	li	a2,0
   17e08:	4681                	li	a3,0
   17e0a:	00000073          	ecall
   17e0e:	00c14703          	lbu	a4,12(sp)
   17e12:	4509                	li	a0,2
   17e14:	00a70a63          	beq	a4,a0,17e28 <_ZN20complex_dynamic_type3app17hc6bc96591714140aE+0xf0>
   17e18:	6509                	lui	a0,0x2
   17e1a:	4f050513          	addi	a0,a0,1264 # 24f0 <.Lline_table_start1+0x22c5>
   17e1e:	458d                	li	a1,3
   17e20:	4601                	li	a2,0
   17e22:	4681                	li	a3,0
   17e24:	00000073          	ecall
   17e28:	50f6                	lw	ra,124(sp)
   17e2a:	5466                	lw	s0,120(sp)
   17e2c:	54d6                	lw	s1,116(sp)
   17e2e:	5946                	lw	s2,112(sp)
   17e30:	59b6                	lw	s3,108(sp)
   17e32:	5a26                	lw	s4,104(sp)
   17e34:	5a96                	lw	s5,100(sp)
   17e36:	6109                	addi	sp,sp,128
   17e38:	8082                	ret
   17e3a:	00c14703          	lbu	a4,12(sp)
   17e3e:	00c71463          	bne	a4,a2,17e46 <_ZN20complex_dynamic_type3app17hc6bc96591714140aE+0x10e>
   17e42:	470d                	li	a4,3
   17e44:	a825                	j	17e7c <_ZN20complex_dynamic_type3app17hc6bc96591714140aE+0x144>
   17e46:	6509                	lui	a0,0x2
   17e48:	4f050513          	addi	a0,a0,1264 # 24f0 <.Lline_table_start1+0x22c5>
   17e4c:	458d                	li	a1,3
   17e4e:	4601                	li	a2,0
   17e50:	4681                	li	a3,0
   17e52:	00000073          	ecall
   17e56:	03914703          	lbu	a4,57(sp)
   17e5a:	4509                	li	a0,2
   17e5c:	00a10623          	sb	a0,12(sp)
   17e60:	00a71e63          	bne	a4,a0,17e7c <_ZN20complex_dynamic_type3app17hc6bc96591714140aE+0x144>
   17e64:	001a8513          	addi	a0,s5,1
   17e68:	02a00613          	li	a2,42
   17e6c:	85d2                	mv	a1,s4
   17e6e:	00006097          	auipc	ra,0x6
   17e72:	6a6080e7          	jalr	1702(ra) # 1e514 <memcpy>
   17e76:	000a8023          	sb	zero,0(s5)
   17e7a:	b77d                	j	17e28 <_ZN20complex_dynamic_type3app17hc6bc96591714140aE+0xf0>
   17e7c:	6509                	lui	a0,0x2
   17e7e:	4f050913          	addi	s2,a0,1264 # 24f0 <.Lline_table_start1+0x22c5>
   17e82:	854a                	mv	a0,s2
   17e84:	4581                	li	a1,0
   17e86:	4601                	li	a2,0
   17e88:	4681                	li	a3,0
   17e8a:	00000073          	ecall
   17e8e:	00c14983          	lbu	s3,12(sp)
   17e92:	001a8513          	addi	a0,s5,1
   17e96:	02a00613          	li	a2,42
   17e9a:	85d2                	mv	a1,s4
   17e9c:	00006097          	auipc	ra,0x6
   17ea0:	678080e7          	jalr	1656(ra) # 1e514 <memcpy>
   17ea4:	4509                	li	a0,2
   17ea6:	000a8023          	sb	zero,0(s5)
   17eaa:	f6a98fe3          	beq	s3,a0,17e28 <_ZN20complex_dynamic_type3app17hc6bc96591714140aE+0xf0>
   17eae:	458d                	li	a1,3
   17eb0:	854a                	mv	a0,s2
   17eb2:	4601                	li	a2,0
   17eb4:	4681                	li	a3,0
   17eb6:	874e                	mv	a4,s3
   17eb8:	00000073          	ecall
   17ebc:	b7b5                	j	17e28 <_ZN20complex_dynamic_type3app17hc6bc96591714140aE+0xf0>

00017ebe <_ZN20complex_dynamic_type3app17hc78b82f46800387fE>:
   17ebe:	7131                	addi	sp,sp,-192
   17ec0:	df06                	sw	ra,188(sp)
   17ec2:	dd22                	sw	s0,184(sp)
   17ec4:	db26                	sw	s1,180(sp)
   17ec6:	d94a                	sw	s2,176(sp)
   17ec8:	d74e                	sw	s3,172(sp)
   17eca:	d552                	sw	s4,168(sp)
   17ecc:	d356                	sw	s5,164(sp)
   17ece:	8aaa                	mv	s5,a0
   17ed0:	4409                	li	s0,2
   17ed2:	00810123          	sb	s0,2(sp)
   17ed6:	00310493          	addi	s1,sp,3
   17eda:	05300613          	li	a2,83
   17ede:	8526                	mv	a0,s1
   17ee0:	00006097          	auipc	ra,0x6
   17ee4:	634080e7          	jalr	1588(ra) # 1e514 <memcpy>
   17ee8:	05710a13          	addi	s4,sp,87
   17eec:	04d00613          	li	a2,77
   17ef0:	8552                	mv	a0,s4
   17ef2:	4581                	li	a1,0
   17ef4:	00006097          	auipc	ra,0x6
   17ef8:	5b4080e7          	jalr	1460(ra) # 1e4a8 <memset>
   17efc:	8626                	mv	a2,s1
   17efe:	04810b23          	sb	s0,86(sp)
   17f02:	6505                	lui	a0,0x1
   17f04:	4491                	li	s1,4
   17f06:	45a5                	li	a1,9
   17f08:	6ba50793          	addi	a5,a0,1722 # 16ba <.Lline_table_start1+0x148f>
   17f0c:	05300693          	li	a3,83
   17f10:	4711                	li	a4,4
   17f12:	853e                	mv	a0,a5
   17f14:	00000073          	ecall
   17f18:	00851863          	bne	a0,s0,17f28 <_ZN20complex_dynamic_type3app17hc78b82f46800387fE+0x6a>
   17f1c:	4505                	li	a0,1
   17f1e:	00aa8023          	sb	a0,0(s5)
   17f22:	00baa223          	sw	a1,4(s5)
   17f26:	a0bd                	j	17f94 <_ZN20complex_dynamic_type3app17hc78b82f46800387fE+0xd6>
   17f28:	853e                	mv	a0,a5
   17f2a:	8652                	mv	a2,s4
   17f2c:	00910123          	sb	s1,2(sp)
   17f30:	478d                	li	a5,3
   17f32:	4591                	li	a1,4
   17f34:	04d00693          	li	a3,77
   17f38:	470d                	li	a4,3
   17f3a:	00000073          	ecall
   17f3e:	00851d63          	bne	a0,s0,17f58 <_ZN20complex_dynamic_type3app17hc78b82f46800387fE+0x9a>
   17f42:	05614703          	lbu	a4,86(sp)
   17f46:	4505                	li	a0,1
   17f48:	4609                	li	a2,2
   17f4a:	00aa8023          	sb	a0,0(s5)
   17f4e:	00baa223          	sw	a1,4(s5)
   17f52:	02c71963          	bne	a4,a2,17f84 <_ZN20complex_dynamic_type3app17hc78b82f46800387fE+0xc6>
   17f56:	a83d                	j	17f94 <_ZN20complex_dynamic_type3app17hc78b82f46800387fE+0xd6>
   17f58:	4681                	li	a3,0
   17f5a:	04f10b23          	sb	a5,86(sp)
   17f5e:	6505                	lui	a0,0x1
   17f60:	45a5                	li	a1,9
   17f62:	4611                	li	a2,4
   17f64:	4709                	li	a4,2
   17f66:	6ba50513          	addi	a0,a0,1722 # 16ba <.Lline_table_start1+0x148f>
   17f6a:	08000793          	li	a5,128
   17f6e:	00000073          	ecall
   17f72:	4609                	li	a2,2
   17f74:	04f57663          	bgeu	a0,a5,17fc0 <_ZN20complex_dynamic_type3app17hc78b82f46800387fE+0x102>
   17f78:	4505                	li	a0,1
   17f7a:	00aa8023          	sb	a0,0(s5)
   17f7e:	00baa223          	sw	a1,4(s5)
   17f82:	470d                	li	a4,3
   17f84:	6505                	lui	a0,0x1
   17f86:	6ba50513          	addi	a0,a0,1722 # 16ba <.Lline_table_start1+0x148f>
   17f8a:	4591                	li	a1,4
   17f8c:	4601                	li	a2,0
   17f8e:	4681                	li	a3,0
   17f90:	00000073          	ecall
   17f94:	00214703          	lbu	a4,2(sp)
   17f98:	4509                	li	a0,2
   17f9a:	00a70a63          	beq	a4,a0,17fae <_ZN20complex_dynamic_type3app17hc78b82f46800387fE+0xf0>
   17f9e:	6505                	lui	a0,0x1
   17fa0:	6ba50513          	addi	a0,a0,1722 # 16ba <.Lline_table_start1+0x148f>
   17fa4:	45a5                	li	a1,9
   17fa6:	4601                	li	a2,0
   17fa8:	4681                	li	a3,0
   17faa:	00000073          	ecall
   17fae:	50fa                	lw	ra,188(sp)
   17fb0:	546a                	lw	s0,184(sp)
   17fb2:	54da                	lw	s1,180(sp)
   17fb4:	594a                	lw	s2,176(sp)
   17fb6:	59ba                	lw	s3,172(sp)
   17fb8:	5a2a                	lw	s4,168(sp)
   17fba:	5a9a                	lw	s5,164(sp)
   17fbc:	6129                	addi	sp,sp,192
   17fbe:	8082                	ret
   17fc0:	00214703          	lbu	a4,2(sp)
   17fc4:	00c71463          	bne	a4,a2,17fcc <_ZN20complex_dynamic_type3app17hc78b82f46800387fE+0x10e>
   17fc8:	470d                	li	a4,3
   17fca:	a825                	j	18002 <_ZN20complex_dynamic_type3app17hc78b82f46800387fE+0x144>
   17fcc:	6505                	lui	a0,0x1
   17fce:	6ba50513          	addi	a0,a0,1722 # 16ba <.Lline_table_start1+0x148f>
   17fd2:	45a5                	li	a1,9
   17fd4:	4601                	li	a2,0
   17fd6:	4681                	li	a3,0
   17fd8:	00000073          	ecall
   17fdc:	05614703          	lbu	a4,86(sp)
   17fe0:	4509                	li	a0,2
   17fe2:	00a10123          	sb	a0,2(sp)
   17fe6:	00a71e63          	bne	a4,a0,18002 <_ZN20complex_dynamic_type3app17hc78b82f46800387fE+0x144>
   17fea:	001a8513          	addi	a0,s5,1
   17fee:	04d00613          	li	a2,77
   17ff2:	85d2                	mv	a1,s4
   17ff4:	00006097          	auipc	ra,0x6
   17ff8:	520080e7          	jalr	1312(ra) # 1e514 <memcpy>
   17ffc:	000a8023          	sb	zero,0(s5)
   18000:	b77d                	j	17fae <_ZN20complex_dynamic_type3app17hc78b82f46800387fE+0xf0>
   18002:	6505                	lui	a0,0x1
   18004:	6ba50913          	addi	s2,a0,1722 # 16ba <.Lline_table_start1+0x148f>
   18008:	4591                	li	a1,4
   1800a:	854a                	mv	a0,s2
   1800c:	4601                	li	a2,0
   1800e:	4681                	li	a3,0
   18010:	00000073          	ecall
   18014:	00214983          	lbu	s3,2(sp)
   18018:	001a8513          	addi	a0,s5,1
   1801c:	04d00613          	li	a2,77
   18020:	85d2                	mv	a1,s4
   18022:	00006097          	auipc	ra,0x6
   18026:	4f2080e7          	jalr	1266(ra) # 1e514 <memcpy>
   1802a:	4509                	li	a0,2
   1802c:	000a8023          	sb	zero,0(s5)
   18030:	f6a98fe3          	beq	s3,a0,17fae <_ZN20complex_dynamic_type3app17hc78b82f46800387fE+0xf0>
   18034:	45a5                	li	a1,9
   18036:	854a                	mv	a0,s2
   18038:	4601                	li	a2,0
   1803a:	4681                	li	a3,0
   1803c:	874e                	mv	a4,s3
   1803e:	00000073          	ecall
   18042:	b7b5                	j	17fae <_ZN20complex_dynamic_type3app17hc78b82f46800387fE+0xf0>

00018044 <_ZN20complex_dynamic_type3app17hcd7544c8e01cd7daE>:
   18044:	7175                	addi	sp,sp,-144
   18046:	c706                	sw	ra,140(sp)
   18048:	c522                	sw	s0,136(sp)
   1804a:	c326                	sw	s1,132(sp)
   1804c:	c14a                	sw	s2,128(sp)
   1804e:	dece                	sw	s3,124(sp)
   18050:	dcd2                	sw	s4,120(sp)
   18052:	8a2a                	mv	s4,a0
   18054:	4409                	li	s0,2
   18056:	00810723          	sb	s0,14(sp)
   1805a:	00f10493          	addi	s1,sp,15
   1805e:	464d                	li	a2,19
   18060:	8526                	mv	a0,s1
   18062:	00006097          	auipc	ra,0x6
   18066:	4b2080e7          	jalr	1202(ra) # 1e514 <memcpy>
   1806a:	02310993          	addi	s3,sp,35
   1806e:	05500613          	li	a2,85
   18072:	854e                	mv	a0,s3
   18074:	4581                	li	a1,0
   18076:	00006097          	auipc	ra,0x6
   1807a:	432080e7          	jalr	1074(ra) # 1e4a8 <memset>
   1807e:	8626                	mv	a2,s1
   18080:	02810123          	sb	s0,34(sp)
   18084:	4791                	li	a5,4
   18086:	32e00513          	li	a0,814
   1808a:	45a5                	li	a1,9
   1808c:	46cd                	li	a3,19
   1808e:	4711                	li	a4,4
   18090:	00000073          	ecall
   18094:	00851863          	bne	a0,s0,180a4 <_ZN20complex_dynamic_type3app17hcd7544c8e01cd7daE+0x60>
   18098:	4505                	li	a0,1
   1809a:	00aa0023          	sb	a0,0(s4)
   1809e:	00ba2223          	sw	a1,4(s4)
   180a2:	a0b5                	j	1810e <_ZN20complex_dynamic_type3app17hcd7544c8e01cd7daE+0xca>
   180a4:	864e                	mv	a2,s3
   180a6:	00f10723          	sb	a5,14(sp)
   180aa:	478d                	li	a5,3
   180ac:	32e00513          	li	a0,814
   180b0:	459d                	li	a1,7
   180b2:	05500693          	li	a3,85
   180b6:	470d                	li	a4,3
   180b8:	00000073          	ecall
   180bc:	00851d63          	bne	a0,s0,180d6 <_ZN20complex_dynamic_type3app17hcd7544c8e01cd7daE+0x92>
   180c0:	02214703          	lbu	a4,34(sp)
   180c4:	4505                	li	a0,1
   180c6:	4609                	li	a2,2
   180c8:	00aa0023          	sb	a0,0(s4)
   180cc:	00ba2223          	sw	a1,4(s4)
   180d0:	02c71863          	bne	a4,a2,18100 <_ZN20complex_dynamic_type3app17hcd7544c8e01cd7daE+0xbc>
   180d4:	a82d                	j	1810e <_ZN20complex_dynamic_type3app17hcd7544c8e01cd7daE+0xca>
   180d6:	4681                	li	a3,0
   180d8:	02f10123          	sb	a5,34(sp)
   180dc:	32e00513          	li	a0,814
   180e0:	45a5                	li	a1,9
   180e2:	461d                	li	a2,7
   180e4:	4709                	li	a4,2
   180e6:	08000793          	li	a5,128
   180ea:	00000073          	ecall
   180ee:	4609                	li	a2,2
   180f0:	04f57363          	bgeu	a0,a5,18136 <_ZN20complex_dynamic_type3app17hcd7544c8e01cd7daE+0xf2>
   180f4:	4505                	li	a0,1
   180f6:	00aa0023          	sb	a0,0(s4)
   180fa:	00ba2223          	sw	a1,4(s4)
   180fe:	470d                	li	a4,3
   18100:	32e00513          	li	a0,814
   18104:	459d                	li	a1,7
   18106:	4601                	li	a2,0
   18108:	4681                	li	a3,0
   1810a:	00000073          	ecall
   1810e:	00e14703          	lbu	a4,14(sp)
   18112:	4509                	li	a0,2
   18114:	00a70963          	beq	a4,a0,18126 <_ZN20complex_dynamic_type3app17hcd7544c8e01cd7daE+0xe2>
   18118:	32e00513          	li	a0,814
   1811c:	45a5                	li	a1,9
   1811e:	4601                	li	a2,0
   18120:	4681                	li	a3,0
   18122:	00000073          	ecall
   18126:	40ba                	lw	ra,140(sp)
   18128:	442a                	lw	s0,136(sp)
   1812a:	449a                	lw	s1,132(sp)
   1812c:	490a                	lw	s2,128(sp)
   1812e:	59f6                	lw	s3,124(sp)
   18130:	5a66                	lw	s4,120(sp)
   18132:	6149                	addi	sp,sp,144
   18134:	8082                	ret
   18136:	00e14703          	lbu	a4,14(sp)
   1813a:	00c71463          	bne	a4,a2,18142 <_ZN20complex_dynamic_type3app17hcd7544c8e01cd7daE+0xfe>
   1813e:	470d                	li	a4,3
   18140:	a81d                	j	18176 <_ZN20complex_dynamic_type3app17hcd7544c8e01cd7daE+0x132>
   18142:	32e00513          	li	a0,814
   18146:	45a5                	li	a1,9
   18148:	4601                	li	a2,0
   1814a:	4681                	li	a3,0
   1814c:	00000073          	ecall
   18150:	02214703          	lbu	a4,34(sp)
   18154:	4509                	li	a0,2
   18156:	00a10723          	sb	a0,14(sp)
   1815a:	00a71e63          	bne	a4,a0,18176 <_ZN20complex_dynamic_type3app17hcd7544c8e01cd7daE+0x132>
   1815e:	001a0513          	addi	a0,s4,1
   18162:	05500613          	li	a2,85
   18166:	85ce                	mv	a1,s3
   18168:	00006097          	auipc	ra,0x6
   1816c:	3ac080e7          	jalr	940(ra) # 1e514 <memcpy>
   18170:	000a0023          	sb	zero,0(s4)
   18174:	bf4d                	j	18126 <_ZN20complex_dynamic_type3app17hcd7544c8e01cd7daE+0xe2>
   18176:	32e00513          	li	a0,814
   1817a:	459d                	li	a1,7
   1817c:	4601                	li	a2,0
   1817e:	4681                	li	a3,0
   18180:	00000073          	ecall
   18184:	00e14903          	lbu	s2,14(sp)
   18188:	001a0513          	addi	a0,s4,1
   1818c:	05500613          	li	a2,85
   18190:	85ce                	mv	a1,s3
   18192:	00006097          	auipc	ra,0x6
   18196:	382080e7          	jalr	898(ra) # 1e514 <memcpy>
   1819a:	4509                	li	a0,2
   1819c:	000a0023          	sb	zero,0(s4)
   181a0:	f8a903e3          	beq	s2,a0,18126 <_ZN20complex_dynamic_type3app17hcd7544c8e01cd7daE+0xe2>
   181a4:	32e00513          	li	a0,814
   181a8:	45a5                	li	a1,9
   181aa:	4601                	li	a2,0
   181ac:	4681                	li	a3,0
   181ae:	874a                	mv	a4,s2
   181b0:	00000073          	ecall
   181b4:	bf8d                	j	18126 <_ZN20complex_dynamic_type3app17hcd7544c8e01cd7daE+0xe2>

000181b6 <_ZN20complex_dynamic_type3app17hce253621245687d9E>:
   181b6:	7175                	addi	sp,sp,-144
   181b8:	c706                	sw	ra,140(sp)
   181ba:	c522                	sw	s0,136(sp)
   181bc:	c326                	sw	s1,132(sp)
   181be:	c14a                	sw	s2,128(sp)
   181c0:	dece                	sw	s3,124(sp)
   181c2:	dcd2                	sw	s4,120(sp)
   181c4:	dad6                	sw	s5,116(sp)
   181c6:	8aaa                	mv	s5,a0
   181c8:	4409                	li	s0,2
   181ca:	008100a3          	sb	s0,1(sp)
   181ce:	00210493          	addi	s1,sp,2
   181d2:	04000613          	li	a2,64
   181d6:	8526                	mv	a0,s1
   181d8:	00006097          	auipc	ra,0x6
   181dc:	33c080e7          	jalr	828(ra) # 1e514 <memcpy>
   181e0:	04310a13          	addi	s4,sp,67
   181e4:	03100613          	li	a2,49
   181e8:	8552                	mv	a0,s4
   181ea:	4581                	li	a1,0
   181ec:	00006097          	auipc	ra,0x6
   181f0:	2bc080e7          	jalr	700(ra) # 1e4a8 <memset>
   181f4:	8626                	mv	a2,s1
   181f6:	04810123          	sb	s0,66(sp)
   181fa:	6505                	lui	a0,0x1
   181fc:	4491                	li	s1,4
   181fe:	45a1                	li	a1,8
   18200:	fce50793          	addi	a5,a0,-50 # fce <.Lline_table_start1+0xda3>
   18204:	04000693          	li	a3,64
   18208:	4711                	li	a4,4
   1820a:	853e                	mv	a0,a5
   1820c:	00000073          	ecall
   18210:	00851863          	bne	a0,s0,18220 <_ZN20complex_dynamic_type3app17hce253621245687d9E+0x6a>
   18214:	4505                	li	a0,1
   18216:	00aa8023          	sb	a0,0(s5)
   1821a:	00baa223          	sw	a1,4(s5)
   1821e:	a0bd                	j	1828c <_ZN20complex_dynamic_type3app17hce253621245687d9E+0xd6>
   18220:	853e                	mv	a0,a5
   18222:	8652                	mv	a2,s4
   18224:	009100a3          	sb	s1,1(sp)
   18228:	478d                	li	a5,3
   1822a:	4595                	li	a1,5
   1822c:	03100693          	li	a3,49
   18230:	470d                	li	a4,3
   18232:	00000073          	ecall
   18236:	00851d63          	bne	a0,s0,18250 <_ZN20complex_dynamic_type3app17hce253621245687d9E+0x9a>
   1823a:	04214703          	lbu	a4,66(sp)
   1823e:	4505                	li	a0,1
   18240:	4609                	li	a2,2
   18242:	00aa8023          	sb	a0,0(s5)
   18246:	00baa223          	sw	a1,4(s5)
   1824a:	02c71963          	bne	a4,a2,1827c <_ZN20complex_dynamic_type3app17hce253621245687d9E+0xc6>
   1824e:	a83d                	j	1828c <_ZN20complex_dynamic_type3app17hce253621245687d9E+0xd6>
   18250:	4681                	li	a3,0
   18252:	04f10123          	sb	a5,66(sp)
   18256:	6505                	lui	a0,0x1
   18258:	45a1                	li	a1,8
   1825a:	4615                	li	a2,5
   1825c:	4709                	li	a4,2
   1825e:	fce50513          	addi	a0,a0,-50 # fce <.Lline_table_start1+0xda3>
   18262:	08000793          	li	a5,128
   18266:	00000073          	ecall
   1826a:	4609                	li	a2,2
   1826c:	04f57663          	bgeu	a0,a5,182b8 <_ZN20complex_dynamic_type3app17hce253621245687d9E+0x102>
   18270:	4505                	li	a0,1
   18272:	00aa8023          	sb	a0,0(s5)
   18276:	00baa223          	sw	a1,4(s5)
   1827a:	470d                	li	a4,3
   1827c:	6505                	lui	a0,0x1
   1827e:	fce50513          	addi	a0,a0,-50 # fce <.Lline_table_start1+0xda3>
   18282:	4595                	li	a1,5
   18284:	4601                	li	a2,0
   18286:	4681                	li	a3,0
   18288:	00000073          	ecall
   1828c:	00114703          	lbu	a4,1(sp)
   18290:	4509                	li	a0,2
   18292:	00a70a63          	beq	a4,a0,182a6 <_ZN20complex_dynamic_type3app17hce253621245687d9E+0xf0>
   18296:	6505                	lui	a0,0x1
   18298:	fce50513          	addi	a0,a0,-50 # fce <.Lline_table_start1+0xda3>
   1829c:	45a1                	li	a1,8
   1829e:	4601                	li	a2,0
   182a0:	4681                	li	a3,0
   182a2:	00000073          	ecall
   182a6:	40ba                	lw	ra,140(sp)
   182a8:	442a                	lw	s0,136(sp)
   182aa:	449a                	lw	s1,132(sp)
   182ac:	490a                	lw	s2,128(sp)
   182ae:	59f6                	lw	s3,124(sp)
   182b0:	5a66                	lw	s4,120(sp)
   182b2:	5ad6                	lw	s5,116(sp)
   182b4:	6149                	addi	sp,sp,144
   182b6:	8082                	ret
   182b8:	00114703          	lbu	a4,1(sp)
   182bc:	00c71463          	bne	a4,a2,182c4 <_ZN20complex_dynamic_type3app17hce253621245687d9E+0x10e>
   182c0:	470d                	li	a4,3
   182c2:	a825                	j	182fa <_ZN20complex_dynamic_type3app17hce253621245687d9E+0x144>
   182c4:	6505                	lui	a0,0x1
   182c6:	fce50513          	addi	a0,a0,-50 # fce <.Lline_table_start1+0xda3>
   182ca:	45a1                	li	a1,8
   182cc:	4601                	li	a2,0
   182ce:	4681                	li	a3,0
   182d0:	00000073          	ecall
   182d4:	04214703          	lbu	a4,66(sp)
   182d8:	4509                	li	a0,2
   182da:	00a100a3          	sb	a0,1(sp)
   182de:	00a71e63          	bne	a4,a0,182fa <_ZN20complex_dynamic_type3app17hce253621245687d9E+0x144>
   182e2:	001a8513          	addi	a0,s5,1
   182e6:	03100613          	li	a2,49
   182ea:	85d2                	mv	a1,s4
   182ec:	00006097          	auipc	ra,0x6
   182f0:	228080e7          	jalr	552(ra) # 1e514 <memcpy>
   182f4:	000a8023          	sb	zero,0(s5)
   182f8:	b77d                	j	182a6 <_ZN20complex_dynamic_type3app17hce253621245687d9E+0xf0>
   182fa:	6505                	lui	a0,0x1
   182fc:	fce50913          	addi	s2,a0,-50 # fce <.Lline_table_start1+0xda3>
   18300:	4595                	li	a1,5
   18302:	854a                	mv	a0,s2
   18304:	4601                	li	a2,0
   18306:	4681                	li	a3,0
   18308:	00000073          	ecall
   1830c:	00114983          	lbu	s3,1(sp)
   18310:	001a8513          	addi	a0,s5,1
   18314:	03100613          	li	a2,49
   18318:	85d2                	mv	a1,s4
   1831a:	00006097          	auipc	ra,0x6
   1831e:	1fa080e7          	jalr	506(ra) # 1e514 <memcpy>
   18322:	4509                	li	a0,2
   18324:	000a8023          	sb	zero,0(s5)
   18328:	f6a98fe3          	beq	s3,a0,182a6 <_ZN20complex_dynamic_type3app17hce253621245687d9E+0xf0>
   1832c:	45a1                	li	a1,8
   1832e:	854a                	mv	a0,s2
   18330:	4601                	li	a2,0
   18332:	4681                	li	a3,0
   18334:	874e                	mv	a4,s3
   18336:	00000073          	ecall
   1833a:	b7b5                	j	182a6 <_ZN20complex_dynamic_type3app17hce253621245687d9E+0xf0>

0001833c <_ZN20complex_dynamic_type3app17hd1fe9939bc492d5fE>:
   1833c:	7175                	addi	sp,sp,-144
   1833e:	c706                	sw	ra,140(sp)
   18340:	c522                	sw	s0,136(sp)
   18342:	c326                	sw	s1,132(sp)
   18344:	c14a                	sw	s2,128(sp)
   18346:	dece                	sw	s3,124(sp)
   18348:	dcd2                	sw	s4,120(sp)
   1834a:	8a2a                	mv	s4,a0
   1834c:	4409                	li	s0,2
   1834e:	008101a3          	sb	s0,3(sp)
   18352:	0044                	addi	s1,sp,4
   18354:	02200613          	li	a2,34
   18358:	8526                	mv	a0,s1
   1835a:	00006097          	auipc	ra,0x6
   1835e:	1ba080e7          	jalr	442(ra) # 1e514 <memcpy>
   18362:	02710993          	addi	s3,sp,39
   18366:	05100613          	li	a2,81
   1836a:	854e                	mv	a0,s3
   1836c:	4581                	li	a1,0
   1836e:	00006097          	auipc	ra,0x6
   18372:	13a080e7          	jalr	314(ra) # 1e4a8 <memset>
   18376:	8626                	mv	a2,s1
   18378:	02810323          	sb	s0,38(sp)
   1837c:	4791                	li	a5,4
   1837e:	55e00513          	li	a0,1374
   18382:	45a5                	li	a1,9
   18384:	02200693          	li	a3,34
   18388:	4711                	li	a4,4
   1838a:	00000073          	ecall
   1838e:	00851863          	bne	a0,s0,1839e <_ZN20complex_dynamic_type3app17hd1fe9939bc492d5fE+0x62>
   18392:	4505                	li	a0,1
   18394:	00aa0023          	sb	a0,0(s4)
   18398:	00ba2223          	sw	a1,4(s4)
   1839c:	a0b5                	j	18408 <_ZN20complex_dynamic_type3app17hd1fe9939bc492d5fE+0xcc>
   1839e:	864e                	mv	a2,s3
   183a0:	00f101a3          	sb	a5,3(sp)
   183a4:	478d                	li	a5,3
   183a6:	55e00513          	li	a0,1374
   183aa:	45a5                	li	a1,9
   183ac:	05100693          	li	a3,81
   183b0:	470d                	li	a4,3
   183b2:	00000073          	ecall
   183b6:	00851d63          	bne	a0,s0,183d0 <_ZN20complex_dynamic_type3app17hd1fe9939bc492d5fE+0x94>
   183ba:	02614703          	lbu	a4,38(sp)
   183be:	4505                	li	a0,1
   183c0:	4609                	li	a2,2
   183c2:	00aa0023          	sb	a0,0(s4)
   183c6:	00ba2223          	sw	a1,4(s4)
   183ca:	02c71863          	bne	a4,a2,183fa <_ZN20complex_dynamic_type3app17hd1fe9939bc492d5fE+0xbe>
   183ce:	a82d                	j	18408 <_ZN20complex_dynamic_type3app17hd1fe9939bc492d5fE+0xcc>
   183d0:	4681                	li	a3,0
   183d2:	02f10323          	sb	a5,38(sp)
   183d6:	55e00513          	li	a0,1374
   183da:	45a5                	li	a1,9
   183dc:	4625                	li	a2,9
   183de:	4709                	li	a4,2
   183e0:	08000793          	li	a5,128
   183e4:	00000073          	ecall
   183e8:	4609                	li	a2,2
   183ea:	04f57363          	bgeu	a0,a5,18430 <_ZN20complex_dynamic_type3app17hd1fe9939bc492d5fE+0xf4>
   183ee:	4505                	li	a0,1
   183f0:	00aa0023          	sb	a0,0(s4)
   183f4:	00ba2223          	sw	a1,4(s4)
   183f8:	470d                	li	a4,3
   183fa:	55e00513          	li	a0,1374
   183fe:	45a5                	li	a1,9
   18400:	4601                	li	a2,0
   18402:	4681                	li	a3,0
   18404:	00000073          	ecall
   18408:	00314703          	lbu	a4,3(sp)
   1840c:	4509                	li	a0,2
   1840e:	00a70963          	beq	a4,a0,18420 <_ZN20complex_dynamic_type3app17hd1fe9939bc492d5fE+0xe4>
   18412:	55e00513          	li	a0,1374
   18416:	45a5                	li	a1,9
   18418:	4601                	li	a2,0
   1841a:	4681                	li	a3,0
   1841c:	00000073          	ecall
   18420:	40ba                	lw	ra,140(sp)
   18422:	442a                	lw	s0,136(sp)
   18424:	449a                	lw	s1,132(sp)
   18426:	490a                	lw	s2,128(sp)
   18428:	59f6                	lw	s3,124(sp)
   1842a:	5a66                	lw	s4,120(sp)
   1842c:	6149                	addi	sp,sp,144
   1842e:	8082                	ret
   18430:	00314703          	lbu	a4,3(sp)
   18434:	00c71463          	bne	a4,a2,1843c <_ZN20complex_dynamic_type3app17hd1fe9939bc492d5fE+0x100>
   18438:	470d                	li	a4,3
   1843a:	a81d                	j	18470 <_ZN20complex_dynamic_type3app17hd1fe9939bc492d5fE+0x134>
   1843c:	55e00513          	li	a0,1374
   18440:	45a5                	li	a1,9
   18442:	4601                	li	a2,0
   18444:	4681                	li	a3,0
   18446:	00000073          	ecall
   1844a:	02614703          	lbu	a4,38(sp)
   1844e:	4509                	li	a0,2
   18450:	00a101a3          	sb	a0,3(sp)
   18454:	00a71e63          	bne	a4,a0,18470 <_ZN20complex_dynamic_type3app17hd1fe9939bc492d5fE+0x134>
   18458:	001a0513          	addi	a0,s4,1
   1845c:	05100613          	li	a2,81
   18460:	85ce                	mv	a1,s3
   18462:	00006097          	auipc	ra,0x6
   18466:	0b2080e7          	jalr	178(ra) # 1e514 <memcpy>
   1846a:	000a0023          	sb	zero,0(s4)
   1846e:	bf4d                	j	18420 <_ZN20complex_dynamic_type3app17hd1fe9939bc492d5fE+0xe4>
   18470:	55e00513          	li	a0,1374
   18474:	45a5                	li	a1,9
   18476:	4601                	li	a2,0
   18478:	4681                	li	a3,0
   1847a:	00000073          	ecall
   1847e:	00314903          	lbu	s2,3(sp)
   18482:	001a0513          	addi	a0,s4,1
   18486:	05100613          	li	a2,81
   1848a:	85ce                	mv	a1,s3
   1848c:	00006097          	auipc	ra,0x6
   18490:	088080e7          	jalr	136(ra) # 1e514 <memcpy>
   18494:	4509                	li	a0,2
   18496:	000a0023          	sb	zero,0(s4)
   1849a:	f8a903e3          	beq	s2,a0,18420 <_ZN20complex_dynamic_type3app17hd1fe9939bc492d5fE+0xe4>
   1849e:	55e00513          	li	a0,1374
   184a2:	45a5                	li	a1,9
   184a4:	4601                	li	a2,0
   184a6:	4681                	li	a3,0
   184a8:	874a                	mv	a4,s2
   184aa:	00000073          	ecall
   184ae:	bf8d                	j	18420 <_ZN20complex_dynamic_type3app17hd1fe9939bc492d5fE+0xe4>

000184b0 <_ZN20complex_dynamic_type3app17hd6d3a2eb03fc0563E>:
   184b0:	7159                	addi	sp,sp,-112
   184b2:	d686                	sw	ra,108(sp)
   184b4:	d4a2                	sw	s0,104(sp)
   184b6:	d2a6                	sw	s1,100(sp)
   184b8:	d0ca                	sw	s2,96(sp)
   184ba:	cece                	sw	s3,92(sp)
   184bc:	ccd2                	sw	s4,88(sp)
   184be:	cad6                	sw	s5,84(sp)
   184c0:	8aaa                	mv	s5,a0
   184c2:	4409                	li	s0,2
   184c4:	008106a3          	sb	s0,13(sp)
   184c8:	00e10493          	addi	s1,sp,14
   184cc:	02700613          	li	a2,39
   184d0:	8526                	mv	a0,s1
   184d2:	00006097          	auipc	ra,0x6
   184d6:	042080e7          	jalr	66(ra) # 1e514 <memcpy>
   184da:	03610a13          	addi	s4,sp,54
   184de:	4679                	li	a2,30
   184e0:	8552                	mv	a0,s4
   184e2:	4581                	li	a1,0
   184e4:	00006097          	auipc	ra,0x6
   184e8:	fc4080e7          	jalr	-60(ra) # 1e4a8 <memset>
   184ec:	8626                	mv	a2,s1
   184ee:	02810aa3          	sb	s0,53(sp)
   184f2:	6505                	lui	a0,0x1
   184f4:	4491                	li	s1,4
   184f6:	458d                	li	a1,3
   184f8:	0e250793          	addi	a5,a0,226 # 10e2 <.Lline_table_start1+0xeb7>
   184fc:	02700693          	li	a3,39
   18500:	4711                	li	a4,4
   18502:	853e                	mv	a0,a5
   18504:	00000073          	ecall
   18508:	00851863          	bne	a0,s0,18518 <_ZN20complex_dynamic_type3app17hd6d3a2eb03fc0563E+0x68>
   1850c:	4505                	li	a0,1
   1850e:	00aa8023          	sb	a0,0(s5)
   18512:	00baa223          	sw	a1,4(s5)
   18516:	a0b5                	j	18582 <_ZN20complex_dynamic_type3app17hd6d3a2eb03fc0563E+0xd2>
   18518:	853e                	mv	a0,a5
   1851a:	8652                	mv	a2,s4
   1851c:	009106a3          	sb	s1,13(sp)
   18520:	478d                	li	a5,3
   18522:	458d                	li	a1,3
   18524:	46f9                	li	a3,30
   18526:	470d                	li	a4,3
   18528:	00000073          	ecall
   1852c:	00851d63          	bne	a0,s0,18546 <_ZN20complex_dynamic_type3app17hd6d3a2eb03fc0563E+0x96>
   18530:	03514703          	lbu	a4,53(sp)
   18534:	4505                	li	a0,1
   18536:	4609                	li	a2,2
   18538:	00aa8023          	sb	a0,0(s5)
   1853c:	00baa223          	sw	a1,4(s5)
   18540:	02c71963          	bne	a4,a2,18572 <_ZN20complex_dynamic_type3app17hd6d3a2eb03fc0563E+0xc2>
   18544:	a83d                	j	18582 <_ZN20complex_dynamic_type3app17hd6d3a2eb03fc0563E+0xd2>
   18546:	4681                	li	a3,0
   18548:	02f10aa3          	sb	a5,53(sp)
   1854c:	6505                	lui	a0,0x1
   1854e:	458d                	li	a1,3
   18550:	460d                	li	a2,3
   18552:	4709                	li	a4,2
   18554:	0e250513          	addi	a0,a0,226 # 10e2 <.Lline_table_start1+0xeb7>
   18558:	08000793          	li	a5,128
   1855c:	00000073          	ecall
   18560:	4609                	li	a2,2
   18562:	04f57663          	bgeu	a0,a5,185ae <_ZN20complex_dynamic_type3app17hd6d3a2eb03fc0563E+0xfe>
   18566:	4505                	li	a0,1
   18568:	00aa8023          	sb	a0,0(s5)
   1856c:	00baa223          	sw	a1,4(s5)
   18570:	470d                	li	a4,3
   18572:	6505                	lui	a0,0x1
   18574:	0e250513          	addi	a0,a0,226 # 10e2 <.Lline_table_start1+0xeb7>
   18578:	458d                	li	a1,3
   1857a:	4601                	li	a2,0
   1857c:	4681                	li	a3,0
   1857e:	00000073          	ecall
   18582:	00d14703          	lbu	a4,13(sp)
   18586:	4509                	li	a0,2
   18588:	00a70a63          	beq	a4,a0,1859c <_ZN20complex_dynamic_type3app17hd6d3a2eb03fc0563E+0xec>
   1858c:	6505                	lui	a0,0x1
   1858e:	0e250513          	addi	a0,a0,226 # 10e2 <.Lline_table_start1+0xeb7>
   18592:	458d                	li	a1,3
   18594:	4601                	li	a2,0
   18596:	4681                	li	a3,0
   18598:	00000073          	ecall
   1859c:	50b6                	lw	ra,108(sp)
   1859e:	5426                	lw	s0,104(sp)
   185a0:	5496                	lw	s1,100(sp)
   185a2:	5906                	lw	s2,96(sp)
   185a4:	49f6                	lw	s3,92(sp)
   185a6:	4a66                	lw	s4,88(sp)
   185a8:	4ad6                	lw	s5,84(sp)
   185aa:	6165                	addi	sp,sp,112
   185ac:	8082                	ret
   185ae:	00d14703          	lbu	a4,13(sp)
   185b2:	00c71463          	bne	a4,a2,185ba <_ZN20complex_dynamic_type3app17hd6d3a2eb03fc0563E+0x10a>
   185b6:	470d                	li	a4,3
   185b8:	a81d                	j	185ee <_ZN20complex_dynamic_type3app17hd6d3a2eb03fc0563E+0x13e>
   185ba:	6505                	lui	a0,0x1
   185bc:	0e250513          	addi	a0,a0,226 # 10e2 <.Lline_table_start1+0xeb7>
   185c0:	458d                	li	a1,3
   185c2:	4601                	li	a2,0
   185c4:	4681                	li	a3,0
   185c6:	00000073          	ecall
   185ca:	03514703          	lbu	a4,53(sp)
   185ce:	4509                	li	a0,2
   185d0:	00a106a3          	sb	a0,13(sp)
   185d4:	00a71d63          	bne	a4,a0,185ee <_ZN20complex_dynamic_type3app17hd6d3a2eb03fc0563E+0x13e>
   185d8:	001a8513          	addi	a0,s5,1
   185dc:	4679                	li	a2,30
   185de:	85d2                	mv	a1,s4
   185e0:	00006097          	auipc	ra,0x6
   185e4:	f34080e7          	jalr	-204(ra) # 1e514 <memcpy>
   185e8:	000a8023          	sb	zero,0(s5)
   185ec:	bf45                	j	1859c <_ZN20complex_dynamic_type3app17hd6d3a2eb03fc0563E+0xec>
   185ee:	6505                	lui	a0,0x1
   185f0:	0e250913          	addi	s2,a0,226 # 10e2 <.Lline_table_start1+0xeb7>
   185f4:	458d                	li	a1,3
   185f6:	854a                	mv	a0,s2
   185f8:	4601                	li	a2,0
   185fa:	4681                	li	a3,0
   185fc:	00000073          	ecall
   18600:	00d14983          	lbu	s3,13(sp)
   18604:	001a8513          	addi	a0,s5,1
   18608:	4679                	li	a2,30
   1860a:	85d2                	mv	a1,s4
   1860c:	00006097          	auipc	ra,0x6
   18610:	f08080e7          	jalr	-248(ra) # 1e514 <memcpy>
   18614:	4509                	li	a0,2
   18616:	000a8023          	sb	zero,0(s5)
   1861a:	f8a981e3          	beq	s3,a0,1859c <_ZN20complex_dynamic_type3app17hd6d3a2eb03fc0563E+0xec>
   1861e:	458d                	li	a1,3
   18620:	854a                	mv	a0,s2
   18622:	4601                	li	a2,0
   18624:	4681                	li	a3,0
   18626:	874e                	mv	a4,s3
   18628:	00000073          	ecall
   1862c:	bf85                	j	1859c <_ZN20complex_dynamic_type3app17hd6d3a2eb03fc0563E+0xec>

0001862e <_ZN20complex_dynamic_type3app17hd7730f3317397384E>:
   1862e:	7119                	addi	sp,sp,-128
   18630:	de86                	sw	ra,124(sp)
   18632:	dca2                	sw	s0,120(sp)
   18634:	daa6                	sw	s1,116(sp)
   18636:	d8ca                	sw	s2,112(sp)
   18638:	d6ce                	sw	s3,108(sp)
   1863a:	d4d2                	sw	s4,104(sp)
   1863c:	d2d6                	sw	s5,100(sp)
   1863e:	8aaa                	mv	s5,a0
   18640:	4409                	li	s0,2
   18642:	00810123          	sb	s0,2(sp)
   18646:	00310493          	addi	s1,sp,3
   1864a:	05100613          	li	a2,81
   1864e:	8526                	mv	a0,s1
   18650:	00006097          	auipc	ra,0x6
   18654:	ec4080e7          	jalr	-316(ra) # 1e514 <memcpy>
   18658:	05510a13          	addi	s4,sp,85
   1865c:	463d                	li	a2,15
   1865e:	8552                	mv	a0,s4
   18660:	4581                	li	a1,0
   18662:	00006097          	auipc	ra,0x6
   18666:	e46080e7          	jalr	-442(ra) # 1e4a8 <memset>
   1866a:	4581                	li	a1,0
   1866c:	8626                	mv	a2,s1
   1866e:	04810a23          	sb	s0,84(sp)
   18672:	6505                	lui	a0,0x1
   18674:	4491                	li	s1,4
   18676:	3bf50793          	addi	a5,a0,959 # 13bf <.Lline_table_start1+0x1194>
   1867a:	05100693          	li	a3,81
   1867e:	4711                	li	a4,4
   18680:	853e                	mv	a0,a5
   18682:	00000073          	ecall
   18686:	00851863          	bne	a0,s0,18696 <_ZN20complex_dynamic_type3app17hd7730f3317397384E+0x68>
   1868a:	4505                	li	a0,1
   1868c:	00aa8023          	sb	a0,0(s5)
   18690:	00baa223          	sw	a1,4(s5)
   18694:	a0b5                	j	18700 <_ZN20complex_dynamic_type3app17hd7730f3317397384E+0xd2>
   18696:	853e                	mv	a0,a5
   18698:	8652                	mv	a2,s4
   1869a:	00910123          	sb	s1,2(sp)
   1869e:	478d                	li	a5,3
   186a0:	458d                	li	a1,3
   186a2:	46bd                	li	a3,15
   186a4:	470d                	li	a4,3
   186a6:	00000073          	ecall
   186aa:	00851d63          	bne	a0,s0,186c4 <_ZN20complex_dynamic_type3app17hd7730f3317397384E+0x96>
   186ae:	05414703          	lbu	a4,84(sp)
   186b2:	4505                	li	a0,1
   186b4:	4609                	li	a2,2
   186b6:	00aa8023          	sb	a0,0(s5)
   186ba:	00baa223          	sw	a1,4(s5)
   186be:	02c71963          	bne	a4,a2,186f0 <_ZN20complex_dynamic_type3app17hd7730f3317397384E+0xc2>
   186c2:	a83d                	j	18700 <_ZN20complex_dynamic_type3app17hd7730f3317397384E+0xd2>
   186c4:	4581                	li	a1,0
   186c6:	4681                	li	a3,0
   186c8:	04f10a23          	sb	a5,84(sp)
   186cc:	6505                	lui	a0,0x1
   186ce:	460d                	li	a2,3
   186d0:	4709                	li	a4,2
   186d2:	3bf50513          	addi	a0,a0,959 # 13bf <.Lline_table_start1+0x1194>
   186d6:	08000793          	li	a5,128
   186da:	00000073          	ecall
   186de:	4609                	li	a2,2
   186e0:	04f57663          	bgeu	a0,a5,1872c <_ZN20complex_dynamic_type3app17hd7730f3317397384E+0xfe>
   186e4:	4505                	li	a0,1
   186e6:	00aa8023          	sb	a0,0(s5)
   186ea:	00baa223          	sw	a1,4(s5)
   186ee:	470d                	li	a4,3
   186f0:	6505                	lui	a0,0x1
   186f2:	3bf50513          	addi	a0,a0,959 # 13bf <.Lline_table_start1+0x1194>
   186f6:	458d                	li	a1,3
   186f8:	4601                	li	a2,0
   186fa:	4681                	li	a3,0
   186fc:	00000073          	ecall
   18700:	00214703          	lbu	a4,2(sp)
   18704:	4509                	li	a0,2
   18706:	00a70a63          	beq	a4,a0,1871a <_ZN20complex_dynamic_type3app17hd7730f3317397384E+0xec>
   1870a:	6505                	lui	a0,0x1
   1870c:	3bf50513          	addi	a0,a0,959 # 13bf <.Lline_table_start1+0x1194>
   18710:	4581                	li	a1,0
   18712:	4601                	li	a2,0
   18714:	4681                	li	a3,0
   18716:	00000073          	ecall
   1871a:	50f6                	lw	ra,124(sp)
   1871c:	5466                	lw	s0,120(sp)
   1871e:	54d6                	lw	s1,116(sp)
   18720:	5946                	lw	s2,112(sp)
   18722:	59b6                	lw	s3,108(sp)
   18724:	5a26                	lw	s4,104(sp)
   18726:	5a96                	lw	s5,100(sp)
   18728:	6109                	addi	sp,sp,128
   1872a:	8082                	ret
   1872c:	00214703          	lbu	a4,2(sp)
   18730:	00c71463          	bne	a4,a2,18738 <_ZN20complex_dynamic_type3app17hd7730f3317397384E+0x10a>
   18734:	470d                	li	a4,3
   18736:	a81d                	j	1876c <_ZN20complex_dynamic_type3app17hd7730f3317397384E+0x13e>
   18738:	6505                	lui	a0,0x1
   1873a:	3bf50513          	addi	a0,a0,959 # 13bf <.Lline_table_start1+0x1194>
   1873e:	4581                	li	a1,0
   18740:	4601                	li	a2,0
   18742:	4681                	li	a3,0
   18744:	00000073          	ecall
   18748:	05414703          	lbu	a4,84(sp)
   1874c:	4509                	li	a0,2
   1874e:	00a10123          	sb	a0,2(sp)
   18752:	00a71d63          	bne	a4,a0,1876c <_ZN20complex_dynamic_type3app17hd7730f3317397384E+0x13e>
   18756:	001a8513          	addi	a0,s5,1
   1875a:	463d                	li	a2,15
   1875c:	85d2                	mv	a1,s4
   1875e:	00006097          	auipc	ra,0x6
   18762:	db6080e7          	jalr	-586(ra) # 1e514 <memcpy>
   18766:	000a8023          	sb	zero,0(s5)
   1876a:	bf45                	j	1871a <_ZN20complex_dynamic_type3app17hd7730f3317397384E+0xec>
   1876c:	6505                	lui	a0,0x1
   1876e:	3bf50913          	addi	s2,a0,959 # 13bf <.Lline_table_start1+0x1194>
   18772:	458d                	li	a1,3
   18774:	854a                	mv	a0,s2
   18776:	4601                	li	a2,0
   18778:	4681                	li	a3,0
   1877a:	00000073          	ecall
   1877e:	00214983          	lbu	s3,2(sp)
   18782:	001a8513          	addi	a0,s5,1
   18786:	463d                	li	a2,15
   18788:	85d2                	mv	a1,s4
   1878a:	00006097          	auipc	ra,0x6
   1878e:	d8a080e7          	jalr	-630(ra) # 1e514 <memcpy>
   18792:	4509                	li	a0,2
   18794:	000a8023          	sb	zero,0(s5)
   18798:	f8a981e3          	beq	s3,a0,1871a <_ZN20complex_dynamic_type3app17hd7730f3317397384E+0xec>
   1879c:	854a                	mv	a0,s2
   1879e:	4581                	li	a1,0
   187a0:	4601                	li	a2,0
   187a2:	4681                	li	a3,0
   187a4:	874e                	mv	a4,s3
   187a6:	00000073          	ecall
   187aa:	bf85                	j	1871a <_ZN20complex_dynamic_type3app17hd7730f3317397384E+0xec>

000187ac <_ZN20complex_dynamic_type3app17hd862b1160f392e36E>:
   187ac:	7119                	addi	sp,sp,-128
   187ae:	de86                	sw	ra,124(sp)
   187b0:	dca2                	sw	s0,120(sp)
   187b2:	daa6                	sw	s1,116(sp)
   187b4:	d8ca                	sw	s2,112(sp)
   187b6:	d6ce                	sw	s3,108(sp)
   187b8:	d4d2                	sw	s4,104(sp)
   187ba:	d2d6                	sw	s5,100(sp)
   187bc:	8aaa                	mv	s5,a0
   187be:	4409                	li	s0,2
   187c0:	008103a3          	sb	s0,7(sp)
   187c4:	0024                	addi	s1,sp,8
   187c6:	03f00613          	li	a2,63
   187ca:	8526                	mv	a0,s1
   187cc:	00006097          	auipc	ra,0x6
   187d0:	d48080e7          	jalr	-696(ra) # 1e514 <memcpy>
   187d4:	04810a13          	addi	s4,sp,72
   187d8:	4671                	li	a2,28
   187da:	8552                	mv	a0,s4
   187dc:	4581                	li	a1,0
   187de:	00006097          	auipc	ra,0x6
   187e2:	cca080e7          	jalr	-822(ra) # 1e4a8 <memset>
   187e6:	8626                	mv	a2,s1
   187e8:	048103a3          	sb	s0,71(sp)
   187ec:	6505                	lui	a0,0x1
   187ee:	4491                	li	s1,4
   187f0:	4595                	li	a1,5
   187f2:	69450793          	addi	a5,a0,1684 # 1694 <.Lline_table_start1+0x1469>
   187f6:	03f00693          	li	a3,63
   187fa:	4711                	li	a4,4
   187fc:	853e                	mv	a0,a5
   187fe:	00000073          	ecall
   18802:	00851863          	bne	a0,s0,18812 <_ZN20complex_dynamic_type3app17hd862b1160f392e36E+0x66>
   18806:	4505                	li	a0,1
   18808:	00aa8023          	sb	a0,0(s5)
   1880c:	00baa223          	sw	a1,4(s5)
   18810:	a0b5                	j	1887c <_ZN20complex_dynamic_type3app17hd862b1160f392e36E+0xd0>
   18812:	853e                	mv	a0,a5
   18814:	8652                	mv	a2,s4
   18816:	009103a3          	sb	s1,7(sp)
   1881a:	478d                	li	a5,3
   1881c:	45a5                	li	a1,9
   1881e:	46f1                	li	a3,28
   18820:	470d                	li	a4,3
   18822:	00000073          	ecall
   18826:	00851d63          	bne	a0,s0,18840 <_ZN20complex_dynamic_type3app17hd862b1160f392e36E+0x94>
   1882a:	04714703          	lbu	a4,71(sp)
   1882e:	4505                	li	a0,1
   18830:	4609                	li	a2,2
   18832:	00aa8023          	sb	a0,0(s5)
   18836:	00baa223          	sw	a1,4(s5)
   1883a:	02c71963          	bne	a4,a2,1886c <_ZN20complex_dynamic_type3app17hd862b1160f392e36E+0xc0>
   1883e:	a83d                	j	1887c <_ZN20complex_dynamic_type3app17hd862b1160f392e36E+0xd0>
   18840:	4681                	li	a3,0
   18842:	04f103a3          	sb	a5,71(sp)
   18846:	6505                	lui	a0,0x1
   18848:	4595                	li	a1,5
   1884a:	4625                	li	a2,9
   1884c:	4709                	li	a4,2
   1884e:	69450513          	addi	a0,a0,1684 # 1694 <.Lline_table_start1+0x1469>
   18852:	08000793          	li	a5,128
   18856:	00000073          	ecall
   1885a:	4609                	li	a2,2
   1885c:	04f57663          	bgeu	a0,a5,188a8 <_ZN20complex_dynamic_type3app17hd862b1160f392e36E+0xfc>
   18860:	4505                	li	a0,1
   18862:	00aa8023          	sb	a0,0(s5)
   18866:	00baa223          	sw	a1,4(s5)
   1886a:	470d                	li	a4,3
   1886c:	6505                	lui	a0,0x1
   1886e:	69450513          	addi	a0,a0,1684 # 1694 <.Lline_table_start1+0x1469>
   18872:	45a5                	li	a1,9
   18874:	4601                	li	a2,0
   18876:	4681                	li	a3,0
   18878:	00000073          	ecall
   1887c:	00714703          	lbu	a4,7(sp)
   18880:	4509                	li	a0,2
   18882:	00a70a63          	beq	a4,a0,18896 <_ZN20complex_dynamic_type3app17hd862b1160f392e36E+0xea>
   18886:	6505                	lui	a0,0x1
   18888:	69450513          	addi	a0,a0,1684 # 1694 <.Lline_table_start1+0x1469>
   1888c:	4595                	li	a1,5
   1888e:	4601                	li	a2,0
   18890:	4681                	li	a3,0
   18892:	00000073          	ecall
   18896:	50f6                	lw	ra,124(sp)
   18898:	5466                	lw	s0,120(sp)
   1889a:	54d6                	lw	s1,116(sp)
   1889c:	5946                	lw	s2,112(sp)
   1889e:	59b6                	lw	s3,108(sp)
   188a0:	5a26                	lw	s4,104(sp)
   188a2:	5a96                	lw	s5,100(sp)
   188a4:	6109                	addi	sp,sp,128
   188a6:	8082                	ret
   188a8:	00714703          	lbu	a4,7(sp)
   188ac:	00c71463          	bne	a4,a2,188b4 <_ZN20complex_dynamic_type3app17hd862b1160f392e36E+0x108>
   188b0:	470d                	li	a4,3
   188b2:	a81d                	j	188e8 <_ZN20complex_dynamic_type3app17hd862b1160f392e36E+0x13c>
   188b4:	6505                	lui	a0,0x1
   188b6:	69450513          	addi	a0,a0,1684 # 1694 <.Lline_table_start1+0x1469>
   188ba:	4595                	li	a1,5
   188bc:	4601                	li	a2,0
   188be:	4681                	li	a3,0
   188c0:	00000073          	ecall
   188c4:	04714703          	lbu	a4,71(sp)
   188c8:	4509                	li	a0,2
   188ca:	00a103a3          	sb	a0,7(sp)
   188ce:	00a71d63          	bne	a4,a0,188e8 <_ZN20complex_dynamic_type3app17hd862b1160f392e36E+0x13c>
   188d2:	001a8513          	addi	a0,s5,1
   188d6:	4671                	li	a2,28
   188d8:	85d2                	mv	a1,s4
   188da:	00006097          	auipc	ra,0x6
   188de:	c3a080e7          	jalr	-966(ra) # 1e514 <memcpy>
   188e2:	000a8023          	sb	zero,0(s5)
   188e6:	bf45                	j	18896 <_ZN20complex_dynamic_type3app17hd862b1160f392e36E+0xea>
   188e8:	6505                	lui	a0,0x1
   188ea:	69450913          	addi	s2,a0,1684 # 1694 <.Lline_table_start1+0x1469>
   188ee:	45a5                	li	a1,9
   188f0:	854a                	mv	a0,s2
   188f2:	4601                	li	a2,0
   188f4:	4681                	li	a3,0
   188f6:	00000073          	ecall
   188fa:	00714983          	lbu	s3,7(sp)
   188fe:	001a8513          	addi	a0,s5,1
   18902:	4671                	li	a2,28
   18904:	85d2                	mv	a1,s4
   18906:	00006097          	auipc	ra,0x6
   1890a:	c0e080e7          	jalr	-1010(ra) # 1e514 <memcpy>
   1890e:	4509                	li	a0,2
   18910:	000a8023          	sb	zero,0(s5)
   18914:	f8a981e3          	beq	s3,a0,18896 <_ZN20complex_dynamic_type3app17hd862b1160f392e36E+0xea>
   18918:	4595                	li	a1,5
   1891a:	854a                	mv	a0,s2
   1891c:	4601                	li	a2,0
   1891e:	4681                	li	a3,0
   18920:	874e                	mv	a4,s3
   18922:	00000073          	ecall
   18926:	bf85                	j	18896 <_ZN20complex_dynamic_type3app17hd862b1160f392e36E+0xea>

00018928 <_ZN20complex_dynamic_type3app17hdb1e87e43de1e1dbE>:
   18928:	7175                	addi	sp,sp,-144
   1892a:	c706                	sw	ra,140(sp)
   1892c:	c522                	sw	s0,136(sp)
   1892e:	c326                	sw	s1,132(sp)
   18930:	c14a                	sw	s2,128(sp)
   18932:	dece                	sw	s3,124(sp)
   18934:	dcd2                	sw	s4,120(sp)
   18936:	8a2a                	mv	s4,a0
   18938:	4409                	li	s0,2
   1893a:	00810523          	sb	s0,10(sp)
   1893e:	00b10493          	addi	s1,sp,11
   18942:	03800613          	li	a2,56
   18946:	8526                	mv	a0,s1
   18948:	00006097          	auipc	ra,0x6
   1894c:	bcc080e7          	jalr	-1076(ra) # 1e514 <memcpy>
   18950:	04410993          	addi	s3,sp,68
   18954:	03400613          	li	a2,52
   18958:	854e                	mv	a0,s3
   1895a:	4581                	li	a1,0
   1895c:	00006097          	auipc	ra,0x6
   18960:	b4c080e7          	jalr	-1204(ra) # 1e4a8 <memset>
   18964:	8626                	mv	a2,s1
   18966:	048101a3          	sb	s0,67(sp)
   1896a:	4791                	li	a5,4
   1896c:	12e00513          	li	a0,302
   18970:	45a1                	li	a1,8
   18972:	03800693          	li	a3,56
   18976:	4711                	li	a4,4
   18978:	00000073          	ecall
   1897c:	00851863          	bne	a0,s0,1898c <_ZN20complex_dynamic_type3app17hdb1e87e43de1e1dbE+0x64>
   18980:	4505                	li	a0,1
   18982:	00aa0023          	sb	a0,0(s4)
   18986:	00ba2223          	sw	a1,4(s4)
   1898a:	a0b5                	j	189f6 <_ZN20complex_dynamic_type3app17hdb1e87e43de1e1dbE+0xce>
   1898c:	864e                	mv	a2,s3
   1898e:	00f10523          	sb	a5,10(sp)
   18992:	478d                	li	a5,3
   18994:	12e00513          	li	a0,302
   18998:	458d                	li	a1,3
   1899a:	03400693          	li	a3,52
   1899e:	470d                	li	a4,3
   189a0:	00000073          	ecall
   189a4:	00851d63          	bne	a0,s0,189be <_ZN20complex_dynamic_type3app17hdb1e87e43de1e1dbE+0x96>
   189a8:	04314703          	lbu	a4,67(sp)
   189ac:	4505                	li	a0,1
   189ae:	4609                	li	a2,2
   189b0:	00aa0023          	sb	a0,0(s4)
   189b4:	00ba2223          	sw	a1,4(s4)
   189b8:	02c71863          	bne	a4,a2,189e8 <_ZN20complex_dynamic_type3app17hdb1e87e43de1e1dbE+0xc0>
   189bc:	a82d                	j	189f6 <_ZN20complex_dynamic_type3app17hdb1e87e43de1e1dbE+0xce>
   189be:	4681                	li	a3,0
   189c0:	04f101a3          	sb	a5,67(sp)
   189c4:	12e00513          	li	a0,302
   189c8:	45a1                	li	a1,8
   189ca:	460d                	li	a2,3
   189cc:	4709                	li	a4,2
   189ce:	08000793          	li	a5,128
   189d2:	00000073          	ecall
   189d6:	4609                	li	a2,2
   189d8:	04f57363          	bgeu	a0,a5,18a1e <_ZN20complex_dynamic_type3app17hdb1e87e43de1e1dbE+0xf6>
   189dc:	4505                	li	a0,1
   189de:	00aa0023          	sb	a0,0(s4)
   189e2:	00ba2223          	sw	a1,4(s4)
   189e6:	470d                	li	a4,3
   189e8:	12e00513          	li	a0,302
   189ec:	458d                	li	a1,3
   189ee:	4601                	li	a2,0
   189f0:	4681                	li	a3,0
   189f2:	00000073          	ecall
   189f6:	00a14703          	lbu	a4,10(sp)
   189fa:	4509                	li	a0,2
   189fc:	00a70963          	beq	a4,a0,18a0e <_ZN20complex_dynamic_type3app17hdb1e87e43de1e1dbE+0xe6>
   18a00:	12e00513          	li	a0,302
   18a04:	45a1                	li	a1,8
   18a06:	4601                	li	a2,0
   18a08:	4681                	li	a3,0
   18a0a:	00000073          	ecall
   18a0e:	40ba                	lw	ra,140(sp)
   18a10:	442a                	lw	s0,136(sp)
   18a12:	449a                	lw	s1,132(sp)
   18a14:	490a                	lw	s2,128(sp)
   18a16:	59f6                	lw	s3,124(sp)
   18a18:	5a66                	lw	s4,120(sp)
   18a1a:	6149                	addi	sp,sp,144
   18a1c:	8082                	ret
   18a1e:	00a14703          	lbu	a4,10(sp)
   18a22:	00c71463          	bne	a4,a2,18a2a <_ZN20complex_dynamic_type3app17hdb1e87e43de1e1dbE+0x102>
   18a26:	470d                	li	a4,3
   18a28:	a81d                	j	18a5e <_ZN20complex_dynamic_type3app17hdb1e87e43de1e1dbE+0x136>
   18a2a:	12e00513          	li	a0,302
   18a2e:	45a1                	li	a1,8
   18a30:	4601                	li	a2,0
   18a32:	4681                	li	a3,0
   18a34:	00000073          	ecall
   18a38:	04314703          	lbu	a4,67(sp)
   18a3c:	4509                	li	a0,2
   18a3e:	00a10523          	sb	a0,10(sp)
   18a42:	00a71e63          	bne	a4,a0,18a5e <_ZN20complex_dynamic_type3app17hdb1e87e43de1e1dbE+0x136>
   18a46:	001a0513          	addi	a0,s4,1
   18a4a:	03400613          	li	a2,52
   18a4e:	85ce                	mv	a1,s3
   18a50:	00006097          	auipc	ra,0x6
   18a54:	ac4080e7          	jalr	-1340(ra) # 1e514 <memcpy>
   18a58:	000a0023          	sb	zero,0(s4)
   18a5c:	bf4d                	j	18a0e <_ZN20complex_dynamic_type3app17hdb1e87e43de1e1dbE+0xe6>
   18a5e:	12e00513          	li	a0,302
   18a62:	458d                	li	a1,3
   18a64:	4601                	li	a2,0
   18a66:	4681                	li	a3,0
   18a68:	00000073          	ecall
   18a6c:	00a14903          	lbu	s2,10(sp)
   18a70:	001a0513          	addi	a0,s4,1
   18a74:	03400613          	li	a2,52
   18a78:	85ce                	mv	a1,s3
   18a7a:	00006097          	auipc	ra,0x6
   18a7e:	a9a080e7          	jalr	-1382(ra) # 1e514 <memcpy>
   18a82:	4509                	li	a0,2
   18a84:	000a0023          	sb	zero,0(s4)
   18a88:	f8a903e3          	beq	s2,a0,18a0e <_ZN20complex_dynamic_type3app17hdb1e87e43de1e1dbE+0xe6>
   18a8c:	12e00513          	li	a0,302
   18a90:	45a1                	li	a1,8
   18a92:	4601                	li	a2,0
   18a94:	4681                	li	a3,0
   18a96:	874a                	mv	a4,s2
   18a98:	00000073          	ecall
   18a9c:	bf8d                	j	18a0e <_ZN20complex_dynamic_type3app17hdb1e87e43de1e1dbE+0xe6>

00018a9e <_ZN20complex_dynamic_type3app17hdb50b5b46523c506E>:
   18a9e:	711d                	addi	sp,sp,-96
   18aa0:	ce86                	sw	ra,92(sp)
   18aa2:	cca2                	sw	s0,88(sp)
   18aa4:	caa6                	sw	s1,84(sp)
   18aa6:	c8ca                	sw	s2,80(sp)
   18aa8:	c6ce                	sw	s3,76(sp)
   18aaa:	c4d2                	sw	s4,72(sp)
   18aac:	c2d6                	sw	s5,68(sp)
   18aae:	8aaa                	mv	s5,a0
   18ab0:	4409                	li	s0,2
   18ab2:	008101a3          	sb	s0,3(sp)
   18ab6:	0044                	addi	s1,sp,4
   18ab8:	4679                	li	a2,30
   18aba:	8526                	mv	a0,s1
   18abc:	00006097          	auipc	ra,0x6
   18ac0:	a58080e7          	jalr	-1448(ra) # 1e514 <memcpy>
   18ac4:	02310a13          	addi	s4,sp,35
   18ac8:	02100613          	li	a2,33
   18acc:	8552                	mv	a0,s4
   18ace:	4581                	li	a1,0
   18ad0:	00006097          	auipc	ra,0x6
   18ad4:	9d8080e7          	jalr	-1576(ra) # 1e4a8 <memset>
   18ad8:	8626                	mv	a2,s1
   18ada:	02810123          	sb	s0,34(sp)
   18ade:	6509                	lui	a0,0x2
   18ae0:	4491                	li	s1,4
   18ae2:	4599                	li	a1,6
   18ae4:	9b550793          	addi	a5,a0,-1611 # 19b5 <.Lline_table_start1+0x178a>
   18ae8:	46f9                	li	a3,30
   18aea:	4711                	li	a4,4
   18aec:	853e                	mv	a0,a5
   18aee:	00000073          	ecall
   18af2:	00851863          	bne	a0,s0,18b02 <_ZN20complex_dynamic_type3app17hdb50b5b46523c506E+0x64>
   18af6:	4505                	li	a0,1
   18af8:	00aa8023          	sb	a0,0(s5)
   18afc:	00baa223          	sw	a1,4(s5)
   18b00:	a0bd                	j	18b6e <_ZN20complex_dynamic_type3app17hdb50b5b46523c506E+0xd0>
   18b02:	853e                	mv	a0,a5
   18b04:	8652                	mv	a2,s4
   18b06:	009101a3          	sb	s1,3(sp)
   18b0a:	478d                	li	a5,3
   18b0c:	45a5                	li	a1,9
   18b0e:	02100693          	li	a3,33
   18b12:	470d                	li	a4,3
   18b14:	00000073          	ecall
   18b18:	00851d63          	bne	a0,s0,18b32 <_ZN20complex_dynamic_type3app17hdb50b5b46523c506E+0x94>
   18b1c:	02214703          	lbu	a4,34(sp)
   18b20:	4505                	li	a0,1
   18b22:	4609                	li	a2,2
   18b24:	00aa8023          	sb	a0,0(s5)
   18b28:	00baa223          	sw	a1,4(s5)
   18b2c:	02c71963          	bne	a4,a2,18b5e <_ZN20complex_dynamic_type3app17hdb50b5b46523c506E+0xc0>
   18b30:	a83d                	j	18b6e <_ZN20complex_dynamic_type3app17hdb50b5b46523c506E+0xd0>
   18b32:	4681                	li	a3,0
   18b34:	02f10123          	sb	a5,34(sp)
   18b38:	6509                	lui	a0,0x2
   18b3a:	4599                	li	a1,6
   18b3c:	4625                	li	a2,9
   18b3e:	4709                	li	a4,2
   18b40:	9b550513          	addi	a0,a0,-1611 # 19b5 <.Lline_table_start1+0x178a>
   18b44:	08000793          	li	a5,128
   18b48:	00000073          	ecall
   18b4c:	4609                	li	a2,2
   18b4e:	04f57663          	bgeu	a0,a5,18b9a <_ZN20complex_dynamic_type3app17hdb50b5b46523c506E+0xfc>
   18b52:	4505                	li	a0,1
   18b54:	00aa8023          	sb	a0,0(s5)
   18b58:	00baa223          	sw	a1,4(s5)
   18b5c:	470d                	li	a4,3
   18b5e:	6509                	lui	a0,0x2
   18b60:	9b550513          	addi	a0,a0,-1611 # 19b5 <.Lline_table_start1+0x178a>
   18b64:	45a5                	li	a1,9
   18b66:	4601                	li	a2,0
   18b68:	4681                	li	a3,0
   18b6a:	00000073          	ecall
   18b6e:	00314703          	lbu	a4,3(sp)
   18b72:	4509                	li	a0,2
   18b74:	00a70a63          	beq	a4,a0,18b88 <_ZN20complex_dynamic_type3app17hdb50b5b46523c506E+0xea>
   18b78:	6509                	lui	a0,0x2
   18b7a:	9b550513          	addi	a0,a0,-1611 # 19b5 <.Lline_table_start1+0x178a>
   18b7e:	4599                	li	a1,6
   18b80:	4601                	li	a2,0
   18b82:	4681                	li	a3,0
   18b84:	00000073          	ecall
   18b88:	40f6                	lw	ra,92(sp)
   18b8a:	4466                	lw	s0,88(sp)
   18b8c:	44d6                	lw	s1,84(sp)
   18b8e:	4946                	lw	s2,80(sp)
   18b90:	49b6                	lw	s3,76(sp)
   18b92:	4a26                	lw	s4,72(sp)
   18b94:	4a96                	lw	s5,68(sp)
   18b96:	6125                	addi	sp,sp,96
   18b98:	8082                	ret
   18b9a:	00314703          	lbu	a4,3(sp)
   18b9e:	00c71463          	bne	a4,a2,18ba6 <_ZN20complex_dynamic_type3app17hdb50b5b46523c506E+0x108>
   18ba2:	470d                	li	a4,3
   18ba4:	a825                	j	18bdc <_ZN20complex_dynamic_type3app17hdb50b5b46523c506E+0x13e>
   18ba6:	6509                	lui	a0,0x2
   18ba8:	9b550513          	addi	a0,a0,-1611 # 19b5 <.Lline_table_start1+0x178a>
   18bac:	4599                	li	a1,6
   18bae:	4601                	li	a2,0
   18bb0:	4681                	li	a3,0
   18bb2:	00000073          	ecall
   18bb6:	02214703          	lbu	a4,34(sp)
   18bba:	4509                	li	a0,2
   18bbc:	00a101a3          	sb	a0,3(sp)
   18bc0:	00a71e63          	bne	a4,a0,18bdc <_ZN20complex_dynamic_type3app17hdb50b5b46523c506E+0x13e>
   18bc4:	001a8513          	addi	a0,s5,1
   18bc8:	02100613          	li	a2,33
   18bcc:	85d2                	mv	a1,s4
   18bce:	00006097          	auipc	ra,0x6
   18bd2:	946080e7          	jalr	-1722(ra) # 1e514 <memcpy>
   18bd6:	000a8023          	sb	zero,0(s5)
   18bda:	b77d                	j	18b88 <_ZN20complex_dynamic_type3app17hdb50b5b46523c506E+0xea>
   18bdc:	6509                	lui	a0,0x2
   18bde:	9b550913          	addi	s2,a0,-1611 # 19b5 <.Lline_table_start1+0x178a>
   18be2:	45a5                	li	a1,9
   18be4:	854a                	mv	a0,s2
   18be6:	4601                	li	a2,0
   18be8:	4681                	li	a3,0
   18bea:	00000073          	ecall
   18bee:	00314983          	lbu	s3,3(sp)
   18bf2:	001a8513          	addi	a0,s5,1
   18bf6:	02100613          	li	a2,33
   18bfa:	85d2                	mv	a1,s4
   18bfc:	00006097          	auipc	ra,0x6
   18c00:	918080e7          	jalr	-1768(ra) # 1e514 <memcpy>
   18c04:	4509                	li	a0,2
   18c06:	000a8023          	sb	zero,0(s5)
   18c0a:	f6a98fe3          	beq	s3,a0,18b88 <_ZN20complex_dynamic_type3app17hdb50b5b46523c506E+0xea>
   18c0e:	4599                	li	a1,6
   18c10:	854a                	mv	a0,s2
   18c12:	4601                	li	a2,0
   18c14:	4681                	li	a3,0
   18c16:	874e                	mv	a4,s3
   18c18:	00000073          	ecall
   18c1c:	b7b5                	j	18b88 <_ZN20complex_dynamic_type3app17hdb50b5b46523c506E+0xea>

00018c1e <_ZN20complex_dynamic_type3app17hdd42710f50f209aaE>:
   18c1e:	7175                	addi	sp,sp,-144
   18c20:	c706                	sw	ra,140(sp)
   18c22:	c522                	sw	s0,136(sp)
   18c24:	c326                	sw	s1,132(sp)
   18c26:	c14a                	sw	s2,128(sp)
   18c28:	dece                	sw	s3,124(sp)
   18c2a:	dcd2                	sw	s4,120(sp)
   18c2c:	dad6                	sw	s5,116(sp)
   18c2e:	8aaa                	mv	s5,a0
   18c30:	4409                	li	s0,2
   18c32:	008105a3          	sb	s0,11(sp)
   18c36:	0064                	addi	s1,sp,12
   18c38:	04400613          	li	a2,68
   18c3c:	8526                	mv	a0,s1
   18c3e:	00006097          	auipc	ra,0x6
   18c42:	8d6080e7          	jalr	-1834(ra) # 1e514 <memcpy>
   18c46:	05110a13          	addi	s4,sp,81
   18c4a:	02300613          	li	a2,35
   18c4e:	8552                	mv	a0,s4
   18c50:	4581                	li	a1,0
   18c52:	00006097          	auipc	ra,0x6
   18c56:	856080e7          	jalr	-1962(ra) # 1e4a8 <memset>
   18c5a:	8626                	mv	a2,s1
   18c5c:	04810823          	sb	s0,80(sp)
   18c60:	6505                	lui	a0,0x1
   18c62:	4491                	li	s1,4
   18c64:	4599                	li	a1,6
   18c66:	9bf50793          	addi	a5,a0,-1601 # 9bf <.Lline_table_start1+0x794>
   18c6a:	04400693          	li	a3,68
   18c6e:	4711                	li	a4,4
   18c70:	853e                	mv	a0,a5
   18c72:	00000073          	ecall
   18c76:	00851863          	bne	a0,s0,18c86 <_ZN20complex_dynamic_type3app17hdd42710f50f209aaE+0x68>
   18c7a:	4505                	li	a0,1
   18c7c:	00aa8023          	sb	a0,0(s5)
   18c80:	00baa223          	sw	a1,4(s5)
   18c84:	a0bd                	j	18cf2 <_ZN20complex_dynamic_type3app17hdd42710f50f209aaE+0xd4>
   18c86:	853e                	mv	a0,a5
   18c88:	8652                	mv	a2,s4
   18c8a:	009105a3          	sb	s1,11(sp)
   18c8e:	478d                	li	a5,3
   18c90:	458d                	li	a1,3
   18c92:	02300693          	li	a3,35
   18c96:	470d                	li	a4,3
   18c98:	00000073          	ecall
   18c9c:	00851d63          	bne	a0,s0,18cb6 <_ZN20complex_dynamic_type3app17hdd42710f50f209aaE+0x98>
   18ca0:	05014703          	lbu	a4,80(sp)
   18ca4:	4505                	li	a0,1
   18ca6:	4609                	li	a2,2
   18ca8:	00aa8023          	sb	a0,0(s5)
   18cac:	00baa223          	sw	a1,4(s5)
   18cb0:	02c71963          	bne	a4,a2,18ce2 <_ZN20complex_dynamic_type3app17hdd42710f50f209aaE+0xc4>
   18cb4:	a83d                	j	18cf2 <_ZN20complex_dynamic_type3app17hdd42710f50f209aaE+0xd4>
   18cb6:	4681                	li	a3,0
   18cb8:	04f10823          	sb	a5,80(sp)
   18cbc:	6505                	lui	a0,0x1
   18cbe:	4599                	li	a1,6
   18cc0:	460d                	li	a2,3
   18cc2:	4709                	li	a4,2
   18cc4:	9bf50513          	addi	a0,a0,-1601 # 9bf <.Lline_table_start1+0x794>
   18cc8:	08000793          	li	a5,128
   18ccc:	00000073          	ecall
   18cd0:	4609                	li	a2,2
   18cd2:	04f57663          	bgeu	a0,a5,18d1e <_ZN20complex_dynamic_type3app17hdd42710f50f209aaE+0x100>
   18cd6:	4505                	li	a0,1
   18cd8:	00aa8023          	sb	a0,0(s5)
   18cdc:	00baa223          	sw	a1,4(s5)
   18ce0:	470d                	li	a4,3
   18ce2:	6505                	lui	a0,0x1
   18ce4:	9bf50513          	addi	a0,a0,-1601 # 9bf <.Lline_table_start1+0x794>
   18ce8:	458d                	li	a1,3
   18cea:	4601                	li	a2,0
   18cec:	4681                	li	a3,0
   18cee:	00000073          	ecall
   18cf2:	00b14703          	lbu	a4,11(sp)
   18cf6:	4509                	li	a0,2
   18cf8:	00a70a63          	beq	a4,a0,18d0c <_ZN20complex_dynamic_type3app17hdd42710f50f209aaE+0xee>
   18cfc:	6505                	lui	a0,0x1
   18cfe:	9bf50513          	addi	a0,a0,-1601 # 9bf <.Lline_table_start1+0x794>
   18d02:	4599                	li	a1,6
   18d04:	4601                	li	a2,0
   18d06:	4681                	li	a3,0
   18d08:	00000073          	ecall
   18d0c:	40ba                	lw	ra,140(sp)
   18d0e:	442a                	lw	s0,136(sp)
   18d10:	449a                	lw	s1,132(sp)
   18d12:	490a                	lw	s2,128(sp)
   18d14:	59f6                	lw	s3,124(sp)
   18d16:	5a66                	lw	s4,120(sp)
   18d18:	5ad6                	lw	s5,116(sp)
   18d1a:	6149                	addi	sp,sp,144
   18d1c:	8082                	ret
   18d1e:	00b14703          	lbu	a4,11(sp)
   18d22:	00c71463          	bne	a4,a2,18d2a <_ZN20complex_dynamic_type3app17hdd42710f50f209aaE+0x10c>
   18d26:	470d                	li	a4,3
   18d28:	a825                	j	18d60 <_ZN20complex_dynamic_type3app17hdd42710f50f209aaE+0x142>
   18d2a:	6505                	lui	a0,0x1
   18d2c:	9bf50513          	addi	a0,a0,-1601 # 9bf <.Lline_table_start1+0x794>
   18d30:	4599                	li	a1,6
   18d32:	4601                	li	a2,0
   18d34:	4681                	li	a3,0
   18d36:	00000073          	ecall
   18d3a:	05014703          	lbu	a4,80(sp)
   18d3e:	4509                	li	a0,2
   18d40:	00a105a3          	sb	a0,11(sp)
   18d44:	00a71e63          	bne	a4,a0,18d60 <_ZN20complex_dynamic_type3app17hdd42710f50f209aaE+0x142>
   18d48:	001a8513          	addi	a0,s5,1
   18d4c:	02300613          	li	a2,35
   18d50:	85d2                	mv	a1,s4
   18d52:	00005097          	auipc	ra,0x5
   18d56:	7c2080e7          	jalr	1986(ra) # 1e514 <memcpy>
   18d5a:	000a8023          	sb	zero,0(s5)
   18d5e:	b77d                	j	18d0c <_ZN20complex_dynamic_type3app17hdd42710f50f209aaE+0xee>
   18d60:	6505                	lui	a0,0x1
   18d62:	9bf50913          	addi	s2,a0,-1601 # 9bf <.Lline_table_start1+0x794>
   18d66:	458d                	li	a1,3
   18d68:	854a                	mv	a0,s2
   18d6a:	4601                	li	a2,0
   18d6c:	4681                	li	a3,0
   18d6e:	00000073          	ecall
   18d72:	00b14983          	lbu	s3,11(sp)
   18d76:	001a8513          	addi	a0,s5,1
   18d7a:	02300613          	li	a2,35
   18d7e:	85d2                	mv	a1,s4
   18d80:	00005097          	auipc	ra,0x5
   18d84:	794080e7          	jalr	1940(ra) # 1e514 <memcpy>
   18d88:	4509                	li	a0,2
   18d8a:	000a8023          	sb	zero,0(s5)
   18d8e:	f6a98fe3          	beq	s3,a0,18d0c <_ZN20complex_dynamic_type3app17hdd42710f50f209aaE+0xee>
   18d92:	4599                	li	a1,6
   18d94:	854a                	mv	a0,s2
   18d96:	4601                	li	a2,0
   18d98:	4681                	li	a3,0
   18d9a:	874e                	mv	a4,s3
   18d9c:	00000073          	ecall
   18da0:	b7b5                	j	18d0c <_ZN20complex_dynamic_type3app17hdd42710f50f209aaE+0xee>

00018da2 <_ZN20complex_dynamic_type3app17hde55e91e632df8ecE>:
   18da2:	7115                	addi	sp,sp,-224
   18da4:	cf86                	sw	ra,220(sp)
   18da6:	cda2                	sw	s0,216(sp)
   18da8:	cba6                	sw	s1,212(sp)
   18daa:	c9ca                	sw	s2,208(sp)
   18dac:	c7ce                	sw	s3,204(sp)
   18dae:	c5d2                	sw	s4,200(sp)
   18db0:	c3d6                	sw	s5,196(sp)
   18db2:	8aaa                	mv	s5,a0
   18db4:	4409                	li	s0,2
   18db6:	008107a3          	sb	s0,15(sp)
   18dba:	0804                	addi	s1,sp,16
   18dbc:	05e00613          	li	a2,94
   18dc0:	8526                	mv	a0,s1
   18dc2:	00005097          	auipc	ra,0x5
   18dc6:	752080e7          	jalr	1874(ra) # 1e514 <memcpy>
   18dca:	06f10a13          	addi	s4,sp,111
   18dce:	05500613          	li	a2,85
   18dd2:	8552                	mv	a0,s4
   18dd4:	4581                	li	a1,0
   18dd6:	00005097          	auipc	ra,0x5
   18dda:	6d2080e7          	jalr	1746(ra) # 1e4a8 <memset>
   18dde:	8626                	mv	a2,s1
   18de0:	06810723          	sb	s0,110(sp)
   18de4:	6505                	lui	a0,0x1
   18de6:	4491                	li	s1,4
   18de8:	459d                	li	a1,7
   18dea:	78a50793          	addi	a5,a0,1930 # 178a <.Lline_table_start1+0x155f>
   18dee:	05e00693          	li	a3,94
   18df2:	4711                	li	a4,4
   18df4:	853e                	mv	a0,a5
   18df6:	00000073          	ecall
   18dfa:	00851863          	bne	a0,s0,18e0a <_ZN20complex_dynamic_type3app17hde55e91e632df8ecE+0x68>
   18dfe:	4505                	li	a0,1
   18e00:	00aa8023          	sb	a0,0(s5)
   18e04:	00baa223          	sw	a1,4(s5)
   18e08:	a0bd                	j	18e76 <_ZN20complex_dynamic_type3app17hde55e91e632df8ecE+0xd4>
   18e0a:	853e                	mv	a0,a5
   18e0c:	8652                	mv	a2,s4
   18e0e:	009107a3          	sb	s1,15(sp)
   18e12:	478d                	li	a5,3
   18e14:	458d                	li	a1,3
   18e16:	05500693          	li	a3,85
   18e1a:	470d                	li	a4,3
   18e1c:	00000073          	ecall
   18e20:	00851d63          	bne	a0,s0,18e3a <_ZN20complex_dynamic_type3app17hde55e91e632df8ecE+0x98>
   18e24:	06e14703          	lbu	a4,110(sp)
   18e28:	4505                	li	a0,1
   18e2a:	4609                	li	a2,2
   18e2c:	00aa8023          	sb	a0,0(s5)
   18e30:	00baa223          	sw	a1,4(s5)
   18e34:	02c71963          	bne	a4,a2,18e66 <_ZN20complex_dynamic_type3app17hde55e91e632df8ecE+0xc4>
   18e38:	a83d                	j	18e76 <_ZN20complex_dynamic_type3app17hde55e91e632df8ecE+0xd4>
   18e3a:	4681                	li	a3,0
   18e3c:	06f10723          	sb	a5,110(sp)
   18e40:	6505                	lui	a0,0x1
   18e42:	459d                	li	a1,7
   18e44:	460d                	li	a2,3
   18e46:	4709                	li	a4,2
   18e48:	78a50513          	addi	a0,a0,1930 # 178a <.Lline_table_start1+0x155f>
   18e4c:	08000793          	li	a5,128
   18e50:	00000073          	ecall
   18e54:	4609                	li	a2,2
   18e56:	04f57663          	bgeu	a0,a5,18ea2 <_ZN20complex_dynamic_type3app17hde55e91e632df8ecE+0x100>
   18e5a:	4505                	li	a0,1
   18e5c:	00aa8023          	sb	a0,0(s5)
   18e60:	00baa223          	sw	a1,4(s5)
   18e64:	470d                	li	a4,3
   18e66:	6505                	lui	a0,0x1
   18e68:	78a50513          	addi	a0,a0,1930 # 178a <.Lline_table_start1+0x155f>
   18e6c:	458d                	li	a1,3
   18e6e:	4601                	li	a2,0
   18e70:	4681                	li	a3,0
   18e72:	00000073          	ecall
   18e76:	00f14703          	lbu	a4,15(sp)
   18e7a:	4509                	li	a0,2
   18e7c:	00a70a63          	beq	a4,a0,18e90 <_ZN20complex_dynamic_type3app17hde55e91e632df8ecE+0xee>
   18e80:	6505                	lui	a0,0x1
   18e82:	78a50513          	addi	a0,a0,1930 # 178a <.Lline_table_start1+0x155f>
   18e86:	459d                	li	a1,7
   18e88:	4601                	li	a2,0
   18e8a:	4681                	li	a3,0
   18e8c:	00000073          	ecall
   18e90:	40fe                	lw	ra,220(sp)
   18e92:	446e                	lw	s0,216(sp)
   18e94:	44de                	lw	s1,212(sp)
   18e96:	494e                	lw	s2,208(sp)
   18e98:	49be                	lw	s3,204(sp)
   18e9a:	4a2e                	lw	s4,200(sp)
   18e9c:	4a9e                	lw	s5,196(sp)
   18e9e:	612d                	addi	sp,sp,224
   18ea0:	8082                	ret
   18ea2:	00f14703          	lbu	a4,15(sp)
   18ea6:	00c71463          	bne	a4,a2,18eae <_ZN20complex_dynamic_type3app17hde55e91e632df8ecE+0x10c>
   18eaa:	470d                	li	a4,3
   18eac:	a825                	j	18ee4 <_ZN20complex_dynamic_type3app17hde55e91e632df8ecE+0x142>
   18eae:	6505                	lui	a0,0x1
   18eb0:	78a50513          	addi	a0,a0,1930 # 178a <.Lline_table_start1+0x155f>
   18eb4:	459d                	li	a1,7
   18eb6:	4601                	li	a2,0
   18eb8:	4681                	li	a3,0
   18eba:	00000073          	ecall
   18ebe:	06e14703          	lbu	a4,110(sp)
   18ec2:	4509                	li	a0,2
   18ec4:	00a107a3          	sb	a0,15(sp)
   18ec8:	00a71e63          	bne	a4,a0,18ee4 <_ZN20complex_dynamic_type3app17hde55e91e632df8ecE+0x142>
   18ecc:	001a8513          	addi	a0,s5,1
   18ed0:	05500613          	li	a2,85
   18ed4:	85d2                	mv	a1,s4
   18ed6:	00005097          	auipc	ra,0x5
   18eda:	63e080e7          	jalr	1598(ra) # 1e514 <memcpy>
   18ede:	000a8023          	sb	zero,0(s5)
   18ee2:	b77d                	j	18e90 <_ZN20complex_dynamic_type3app17hde55e91e632df8ecE+0xee>
   18ee4:	6505                	lui	a0,0x1
   18ee6:	78a50913          	addi	s2,a0,1930 # 178a <.Lline_table_start1+0x155f>
   18eea:	458d                	li	a1,3
   18eec:	854a                	mv	a0,s2
   18eee:	4601                	li	a2,0
   18ef0:	4681                	li	a3,0
   18ef2:	00000073          	ecall
   18ef6:	00f14983          	lbu	s3,15(sp)
   18efa:	001a8513          	addi	a0,s5,1
   18efe:	05500613          	li	a2,85
   18f02:	85d2                	mv	a1,s4
   18f04:	00005097          	auipc	ra,0x5
   18f08:	610080e7          	jalr	1552(ra) # 1e514 <memcpy>
   18f0c:	4509                	li	a0,2
   18f0e:	000a8023          	sb	zero,0(s5)
   18f12:	f6a98fe3          	beq	s3,a0,18e90 <_ZN20complex_dynamic_type3app17hde55e91e632df8ecE+0xee>
   18f16:	459d                	li	a1,7
   18f18:	854a                	mv	a0,s2
   18f1a:	4601                	li	a2,0
   18f1c:	4681                	li	a3,0
   18f1e:	874e                	mv	a4,s3
   18f20:	00000073          	ecall
   18f24:	b7b5                	j	18e90 <_ZN20complex_dynamic_type3app17hde55e91e632df8ecE+0xee>

00018f26 <_ZN20complex_dynamic_type3app17he52c3f59f8542316E>:
   18f26:	7159                	addi	sp,sp,-112
   18f28:	d686                	sw	ra,108(sp)
   18f2a:	d4a2                	sw	s0,104(sp)
   18f2c:	d2a6                	sw	s1,100(sp)
   18f2e:	d0ca                	sw	s2,96(sp)
   18f30:	cece                	sw	s3,92(sp)
   18f32:	ccd2                	sw	s4,88(sp)
   18f34:	cad6                	sw	s5,84(sp)
   18f36:	8aaa                	mv	s5,a0
   18f38:	4409                	li	s0,2
   18f3a:	008101a3          	sb	s0,3(sp)
   18f3e:	0044                	addi	s1,sp,4
   18f40:	02500613          	li	a2,37
   18f44:	8526                	mv	a0,s1
   18f46:	00005097          	auipc	ra,0x5
   18f4a:	5ce080e7          	jalr	1486(ra) # 1e514 <memcpy>
   18f4e:	02a10a13          	addi	s4,sp,42
   18f52:	02a00613          	li	a2,42
   18f56:	8552                	mv	a0,s4
   18f58:	4581                	li	a1,0
   18f5a:	00005097          	auipc	ra,0x5
   18f5e:	54e080e7          	jalr	1358(ra) # 1e4a8 <memset>
   18f62:	4581                	li	a1,0
   18f64:	8626                	mv	a2,s1
   18f66:	028104a3          	sb	s0,41(sp)
   18f6a:	6505                	lui	a0,0x1
   18f6c:	4491                	li	s1,4
   18f6e:	93c50793          	addi	a5,a0,-1732 # 93c <.Lline_table_start1+0x711>
   18f72:	02500693          	li	a3,37
   18f76:	4711                	li	a4,4
   18f78:	853e                	mv	a0,a5
   18f7a:	00000073          	ecall
   18f7e:	00851863          	bne	a0,s0,18f8e <_ZN20complex_dynamic_type3app17he52c3f59f8542316E+0x68>
   18f82:	4505                	li	a0,1
   18f84:	00aa8023          	sb	a0,0(s5)
   18f88:	00baa223          	sw	a1,4(s5)
   18f8c:	a0bd                	j	18ffa <_ZN20complex_dynamic_type3app17he52c3f59f8542316E+0xd4>
   18f8e:	853e                	mv	a0,a5
   18f90:	8652                	mv	a2,s4
   18f92:	009101a3          	sb	s1,3(sp)
   18f96:	478d                	li	a5,3
   18f98:	458d                	li	a1,3
   18f9a:	02a00693          	li	a3,42
   18f9e:	470d                	li	a4,3
   18fa0:	00000073          	ecall
   18fa4:	00851d63          	bne	a0,s0,18fbe <_ZN20complex_dynamic_type3app17he52c3f59f8542316E+0x98>
   18fa8:	02914703          	lbu	a4,41(sp)
   18fac:	4505                	li	a0,1
   18fae:	4609                	li	a2,2
   18fb0:	00aa8023          	sb	a0,0(s5)
   18fb4:	00baa223          	sw	a1,4(s5)
   18fb8:	02c71963          	bne	a4,a2,18fea <_ZN20complex_dynamic_type3app17he52c3f59f8542316E+0xc4>
   18fbc:	a83d                	j	18ffa <_ZN20complex_dynamic_type3app17he52c3f59f8542316E+0xd4>
   18fbe:	4581                	li	a1,0
   18fc0:	4681                	li	a3,0
   18fc2:	02f104a3          	sb	a5,41(sp)
   18fc6:	6505                	lui	a0,0x1
   18fc8:	460d                	li	a2,3
   18fca:	4709                	li	a4,2
   18fcc:	93c50513          	addi	a0,a0,-1732 # 93c <.Lline_table_start1+0x711>
   18fd0:	08000793          	li	a5,128
   18fd4:	00000073          	ecall
   18fd8:	4609                	li	a2,2
   18fda:	04f57663          	bgeu	a0,a5,19026 <_ZN20complex_dynamic_type3app17he52c3f59f8542316E+0x100>
   18fde:	4505                	li	a0,1
   18fe0:	00aa8023          	sb	a0,0(s5)
   18fe4:	00baa223          	sw	a1,4(s5)
   18fe8:	470d                	li	a4,3
   18fea:	6505                	lui	a0,0x1
   18fec:	93c50513          	addi	a0,a0,-1732 # 93c <.Lline_table_start1+0x711>
   18ff0:	458d                	li	a1,3
   18ff2:	4601                	li	a2,0
   18ff4:	4681                	li	a3,0
   18ff6:	00000073          	ecall
   18ffa:	00314703          	lbu	a4,3(sp)
   18ffe:	4509                	li	a0,2
   19000:	00a70a63          	beq	a4,a0,19014 <_ZN20complex_dynamic_type3app17he52c3f59f8542316E+0xee>
   19004:	6505                	lui	a0,0x1
   19006:	93c50513          	addi	a0,a0,-1732 # 93c <.Lline_table_start1+0x711>
   1900a:	4581                	li	a1,0
   1900c:	4601                	li	a2,0
   1900e:	4681                	li	a3,0
   19010:	00000073          	ecall
   19014:	50b6                	lw	ra,108(sp)
   19016:	5426                	lw	s0,104(sp)
   19018:	5496                	lw	s1,100(sp)
   1901a:	5906                	lw	s2,96(sp)
   1901c:	49f6                	lw	s3,92(sp)
   1901e:	4a66                	lw	s4,88(sp)
   19020:	4ad6                	lw	s5,84(sp)
   19022:	6165                	addi	sp,sp,112
   19024:	8082                	ret
   19026:	00314703          	lbu	a4,3(sp)
   1902a:	00c71463          	bne	a4,a2,19032 <_ZN20complex_dynamic_type3app17he52c3f59f8542316E+0x10c>
   1902e:	470d                	li	a4,3
   19030:	a825                	j	19068 <_ZN20complex_dynamic_type3app17he52c3f59f8542316E+0x142>
   19032:	6505                	lui	a0,0x1
   19034:	93c50513          	addi	a0,a0,-1732 # 93c <.Lline_table_start1+0x711>
   19038:	4581                	li	a1,0
   1903a:	4601                	li	a2,0
   1903c:	4681                	li	a3,0
   1903e:	00000073          	ecall
   19042:	02914703          	lbu	a4,41(sp)
   19046:	4509                	li	a0,2
   19048:	00a101a3          	sb	a0,3(sp)
   1904c:	00a71e63          	bne	a4,a0,19068 <_ZN20complex_dynamic_type3app17he52c3f59f8542316E+0x142>
   19050:	001a8513          	addi	a0,s5,1
   19054:	02a00613          	li	a2,42
   19058:	85d2                	mv	a1,s4
   1905a:	00005097          	auipc	ra,0x5
   1905e:	4ba080e7          	jalr	1210(ra) # 1e514 <memcpy>
   19062:	000a8023          	sb	zero,0(s5)
   19066:	b77d                	j	19014 <_ZN20complex_dynamic_type3app17he52c3f59f8542316E+0xee>
   19068:	6505                	lui	a0,0x1
   1906a:	93c50913          	addi	s2,a0,-1732 # 93c <.Lline_table_start1+0x711>
   1906e:	458d                	li	a1,3
   19070:	854a                	mv	a0,s2
   19072:	4601                	li	a2,0
   19074:	4681                	li	a3,0
   19076:	00000073          	ecall
   1907a:	00314983          	lbu	s3,3(sp)
   1907e:	001a8513          	addi	a0,s5,1
   19082:	02a00613          	li	a2,42
   19086:	85d2                	mv	a1,s4
   19088:	00005097          	auipc	ra,0x5
   1908c:	48c080e7          	jalr	1164(ra) # 1e514 <memcpy>
   19090:	4509                	li	a0,2
   19092:	000a8023          	sb	zero,0(s5)
   19096:	f6a98fe3          	beq	s3,a0,19014 <_ZN20complex_dynamic_type3app17he52c3f59f8542316E+0xee>
   1909a:	854a                	mv	a0,s2
   1909c:	4581                	li	a1,0
   1909e:	4601                	li	a2,0
   190a0:	4681                	li	a3,0
   190a2:	874e                	mv	a4,s3
   190a4:	00000073          	ecall
   190a8:	b7b5                	j	19014 <_ZN20complex_dynamic_type3app17he52c3f59f8542316E+0xee>

000190aa <_ZN20complex_dynamic_type3app17he8a33bcebbd03d90E>:
   190aa:	7171                	addi	sp,sp,-176
   190ac:	d706                	sw	ra,172(sp)
   190ae:	d522                	sw	s0,168(sp)
   190b0:	d326                	sw	s1,164(sp)
   190b2:	d14a                	sw	s2,160(sp)
   190b4:	cf4e                	sw	s3,156(sp)
   190b6:	cd52                	sw	s4,152(sp)
   190b8:	cb56                	sw	s5,148(sp)
   190ba:	8aaa                	mv	s5,a0
   190bc:	4409                	li	s0,2
   190be:	00810323          	sb	s0,6(sp)
   190c2:	00710493          	addi	s1,sp,7
   190c6:	05000613          	li	a2,80
   190ca:	8526                	mv	a0,s1
   190cc:	00005097          	auipc	ra,0x5
   190d0:	448080e7          	jalr	1096(ra) # 1e514 <memcpy>
   190d4:	05810a13          	addi	s4,sp,88
   190d8:	03c00613          	li	a2,60
   190dc:	8552                	mv	a0,s4
   190de:	4581                	li	a1,0
   190e0:	00005097          	auipc	ra,0x5
   190e4:	3c8080e7          	jalr	968(ra) # 1e4a8 <memset>
   190e8:	8626                	mv	a2,s1
   190ea:	04810ba3          	sb	s0,87(sp)
   190ee:	6505                	lui	a0,0x1
   190f0:	4491                	li	s1,4
   190f2:	458d                	li	a1,3
   190f4:	d7a50793          	addi	a5,a0,-646 # d7a <.Lline_table_start1+0xb4f>
   190f8:	05000693          	li	a3,80
   190fc:	4711                	li	a4,4
   190fe:	853e                	mv	a0,a5
   19100:	00000073          	ecall
   19104:	00851863          	bne	a0,s0,19114 <_ZN20complex_dynamic_type3app17he8a33bcebbd03d90E+0x6a>
   19108:	4505                	li	a0,1
   1910a:	00aa8023          	sb	a0,0(s5)
   1910e:	00baa223          	sw	a1,4(s5)
   19112:	a0bd                	j	19180 <_ZN20complex_dynamic_type3app17he8a33bcebbd03d90E+0xd6>
   19114:	853e                	mv	a0,a5
   19116:	8652                	mv	a2,s4
   19118:	00910323          	sb	s1,6(sp)
   1911c:	478d                	li	a5,3
   1911e:	45a5                	li	a1,9
   19120:	03c00693          	li	a3,60
   19124:	470d                	li	a4,3
   19126:	00000073          	ecall
   1912a:	00851d63          	bne	a0,s0,19144 <_ZN20complex_dynamic_type3app17he8a33bcebbd03d90E+0x9a>
   1912e:	05714703          	lbu	a4,87(sp)
   19132:	4505                	li	a0,1
   19134:	4609                	li	a2,2
   19136:	00aa8023          	sb	a0,0(s5)
   1913a:	00baa223          	sw	a1,4(s5)
   1913e:	02c71963          	bne	a4,a2,19170 <_ZN20complex_dynamic_type3app17he8a33bcebbd03d90E+0xc6>
   19142:	a83d                	j	19180 <_ZN20complex_dynamic_type3app17he8a33bcebbd03d90E+0xd6>
   19144:	4681                	li	a3,0
   19146:	04f10ba3          	sb	a5,87(sp)
   1914a:	6505                	lui	a0,0x1
   1914c:	458d                	li	a1,3
   1914e:	4625                	li	a2,9
   19150:	4709                	li	a4,2
   19152:	d7a50513          	addi	a0,a0,-646 # d7a <.Lline_table_start1+0xb4f>
   19156:	08000793          	li	a5,128
   1915a:	00000073          	ecall
   1915e:	4609                	li	a2,2
   19160:	04f57663          	bgeu	a0,a5,191ac <_ZN20complex_dynamic_type3app17he8a33bcebbd03d90E+0x102>
   19164:	4505                	li	a0,1
   19166:	00aa8023          	sb	a0,0(s5)
   1916a:	00baa223          	sw	a1,4(s5)
   1916e:	470d                	li	a4,3
   19170:	6505                	lui	a0,0x1
   19172:	d7a50513          	addi	a0,a0,-646 # d7a <.Lline_table_start1+0xb4f>
   19176:	45a5                	li	a1,9
   19178:	4601                	li	a2,0
   1917a:	4681                	li	a3,0
   1917c:	00000073          	ecall
   19180:	00614703          	lbu	a4,6(sp)
   19184:	4509                	li	a0,2
   19186:	00a70a63          	beq	a4,a0,1919a <_ZN20complex_dynamic_type3app17he8a33bcebbd03d90E+0xf0>
   1918a:	6505                	lui	a0,0x1
   1918c:	d7a50513          	addi	a0,a0,-646 # d7a <.Lline_table_start1+0xb4f>
   19190:	458d                	li	a1,3
   19192:	4601                	li	a2,0
   19194:	4681                	li	a3,0
   19196:	00000073          	ecall
   1919a:	50ba                	lw	ra,172(sp)
   1919c:	542a                	lw	s0,168(sp)
   1919e:	549a                	lw	s1,164(sp)
   191a0:	590a                	lw	s2,160(sp)
   191a2:	49fa                	lw	s3,156(sp)
   191a4:	4a6a                	lw	s4,152(sp)
   191a6:	4ada                	lw	s5,148(sp)
   191a8:	614d                	addi	sp,sp,176
   191aa:	8082                	ret
   191ac:	00614703          	lbu	a4,6(sp)
   191b0:	00c71463          	bne	a4,a2,191b8 <_ZN20complex_dynamic_type3app17he8a33bcebbd03d90E+0x10e>
   191b4:	470d                	li	a4,3
   191b6:	a825                	j	191ee <_ZN20complex_dynamic_type3app17he8a33bcebbd03d90E+0x144>
   191b8:	6505                	lui	a0,0x1
   191ba:	d7a50513          	addi	a0,a0,-646 # d7a <.Lline_table_start1+0xb4f>
   191be:	458d                	li	a1,3
   191c0:	4601                	li	a2,0
   191c2:	4681                	li	a3,0
   191c4:	00000073          	ecall
   191c8:	05714703          	lbu	a4,87(sp)
   191cc:	4509                	li	a0,2
   191ce:	00a10323          	sb	a0,6(sp)
   191d2:	00a71e63          	bne	a4,a0,191ee <_ZN20complex_dynamic_type3app17he8a33bcebbd03d90E+0x144>
   191d6:	001a8513          	addi	a0,s5,1
   191da:	03c00613          	li	a2,60
   191de:	85d2                	mv	a1,s4
   191e0:	00005097          	auipc	ra,0x5
   191e4:	334080e7          	jalr	820(ra) # 1e514 <memcpy>
   191e8:	000a8023          	sb	zero,0(s5)
   191ec:	b77d                	j	1919a <_ZN20complex_dynamic_type3app17he8a33bcebbd03d90E+0xf0>
   191ee:	6505                	lui	a0,0x1
   191f0:	d7a50913          	addi	s2,a0,-646 # d7a <.Lline_table_start1+0xb4f>
   191f4:	45a5                	li	a1,9
   191f6:	854a                	mv	a0,s2
   191f8:	4601                	li	a2,0
   191fa:	4681                	li	a3,0
   191fc:	00000073          	ecall
   19200:	00614983          	lbu	s3,6(sp)
   19204:	001a8513          	addi	a0,s5,1
   19208:	03c00613          	li	a2,60
   1920c:	85d2                	mv	a1,s4
   1920e:	00005097          	auipc	ra,0x5
   19212:	306080e7          	jalr	774(ra) # 1e514 <memcpy>
   19216:	4509                	li	a0,2
   19218:	000a8023          	sb	zero,0(s5)
   1921c:	f6a98fe3          	beq	s3,a0,1919a <_ZN20complex_dynamic_type3app17he8a33bcebbd03d90E+0xf0>
   19220:	458d                	li	a1,3
   19222:	854a                	mv	a0,s2
   19224:	4601                	li	a2,0
   19226:	4681                	li	a3,0
   19228:	874e                	mv	a4,s3
   1922a:	00000073          	ecall
   1922e:	b7b5                	j	1919a <_ZN20complex_dynamic_type3app17he8a33bcebbd03d90E+0xf0>

00019230 <_ZN20complex_dynamic_type3app17he8e8d0d045b7eb24E>:
   19230:	7171                	addi	sp,sp,-176
   19232:	d706                	sw	ra,172(sp)
   19234:	d522                	sw	s0,168(sp)
   19236:	d326                	sw	s1,164(sp)
   19238:	d14a                	sw	s2,160(sp)
   1923a:	cf4e                	sw	s3,156(sp)
   1923c:	cd52                	sw	s4,152(sp)
   1923e:	8a2a                	mv	s4,a0
   19240:	4409                	li	s0,2
   19242:	008104a3          	sb	s0,9(sp)
   19246:	00a10493          	addi	s1,sp,10
   1924a:	02f00613          	li	a2,47
   1924e:	8526                	mv	a0,s1
   19250:	00005097          	auipc	ra,0x5
   19254:	2c4080e7          	jalr	708(ra) # 1e514 <memcpy>
   19258:	03a10993          	addi	s3,sp,58
   1925c:	05e00613          	li	a2,94
   19260:	854e                	mv	a0,s3
   19262:	4581                	li	a1,0
   19264:	00005097          	auipc	ra,0x5
   19268:	244080e7          	jalr	580(ra) # 1e4a8 <memset>
   1926c:	8626                	mv	a2,s1
   1926e:	02810ca3          	sb	s0,57(sp)
   19272:	4791                	li	a5,4
   19274:	22b00513          	li	a0,555
   19278:	4595                	li	a1,5
   1927a:	02f00693          	li	a3,47
   1927e:	4711                	li	a4,4
   19280:	00000073          	ecall
   19284:	00851863          	bne	a0,s0,19294 <_ZN20complex_dynamic_type3app17he8e8d0d045b7eb24E+0x64>
   19288:	4505                	li	a0,1
   1928a:	00aa0023          	sb	a0,0(s4)
   1928e:	00ba2223          	sw	a1,4(s4)
   19292:	a0b5                	j	192fe <_ZN20complex_dynamic_type3app17he8e8d0d045b7eb24E+0xce>
   19294:	864e                	mv	a2,s3
   19296:	00f104a3          	sb	a5,9(sp)
   1929a:	478d                	li	a5,3
   1929c:	22b00513          	li	a0,555
   192a0:	4589                	li	a1,2
   192a2:	05e00693          	li	a3,94
   192a6:	470d                	li	a4,3
   192a8:	00000073          	ecall
   192ac:	00851d63          	bne	a0,s0,192c6 <_ZN20complex_dynamic_type3app17he8e8d0d045b7eb24E+0x96>
   192b0:	03914703          	lbu	a4,57(sp)
   192b4:	4505                	li	a0,1
   192b6:	4609                	li	a2,2
   192b8:	00aa0023          	sb	a0,0(s4)
   192bc:	00ba2223          	sw	a1,4(s4)
   192c0:	02c71863          	bne	a4,a2,192f0 <_ZN20complex_dynamic_type3app17he8e8d0d045b7eb24E+0xc0>
   192c4:	a82d                	j	192fe <_ZN20complex_dynamic_type3app17he8e8d0d045b7eb24E+0xce>
   192c6:	4681                	li	a3,0
   192c8:	02f10ca3          	sb	a5,57(sp)
   192cc:	22b00513          	li	a0,555
   192d0:	4595                	li	a1,5
   192d2:	4609                	li	a2,2
   192d4:	4709                	li	a4,2
   192d6:	08000793          	li	a5,128
   192da:	00000073          	ecall
   192de:	4609                	li	a2,2
   192e0:	04f57363          	bgeu	a0,a5,19326 <_ZN20complex_dynamic_type3app17he8e8d0d045b7eb24E+0xf6>
   192e4:	4505                	li	a0,1
   192e6:	00aa0023          	sb	a0,0(s4)
   192ea:	00ba2223          	sw	a1,4(s4)
   192ee:	470d                	li	a4,3
   192f0:	22b00513          	li	a0,555
   192f4:	4589                	li	a1,2
   192f6:	4601                	li	a2,0
   192f8:	4681                	li	a3,0
   192fa:	00000073          	ecall
   192fe:	00914703          	lbu	a4,9(sp)
   19302:	4509                	li	a0,2
   19304:	00a70963          	beq	a4,a0,19316 <_ZN20complex_dynamic_type3app17he8e8d0d045b7eb24E+0xe6>
   19308:	22b00513          	li	a0,555
   1930c:	4595                	li	a1,5
   1930e:	4601                	li	a2,0
   19310:	4681                	li	a3,0
   19312:	00000073          	ecall
   19316:	50ba                	lw	ra,172(sp)
   19318:	542a                	lw	s0,168(sp)
   1931a:	549a                	lw	s1,164(sp)
   1931c:	590a                	lw	s2,160(sp)
   1931e:	49fa                	lw	s3,156(sp)
   19320:	4a6a                	lw	s4,152(sp)
   19322:	614d                	addi	sp,sp,176
   19324:	8082                	ret
   19326:	00914703          	lbu	a4,9(sp)
   1932a:	00c71463          	bne	a4,a2,19332 <_ZN20complex_dynamic_type3app17he8e8d0d045b7eb24E+0x102>
   1932e:	470d                	li	a4,3
   19330:	a81d                	j	19366 <_ZN20complex_dynamic_type3app17he8e8d0d045b7eb24E+0x136>
   19332:	22b00513          	li	a0,555
   19336:	4595                	li	a1,5
   19338:	4601                	li	a2,0
   1933a:	4681                	li	a3,0
   1933c:	00000073          	ecall
   19340:	03914703          	lbu	a4,57(sp)
   19344:	4509                	li	a0,2
   19346:	00a104a3          	sb	a0,9(sp)
   1934a:	00a71e63          	bne	a4,a0,19366 <_ZN20complex_dynamic_type3app17he8e8d0d045b7eb24E+0x136>
   1934e:	001a0513          	addi	a0,s4,1
   19352:	05e00613          	li	a2,94
   19356:	85ce                	mv	a1,s3
   19358:	00005097          	auipc	ra,0x5
   1935c:	1bc080e7          	jalr	444(ra) # 1e514 <memcpy>
   19360:	000a0023          	sb	zero,0(s4)
   19364:	bf4d                	j	19316 <_ZN20complex_dynamic_type3app17he8e8d0d045b7eb24E+0xe6>
   19366:	4601                	li	a2,0
   19368:	4681                	li	a3,0
   1936a:	22b00513          	li	a0,555
   1936e:	4589                	li	a1,2
   19370:	00000073          	ecall
   19374:	00914903          	lbu	s2,9(sp)
   19378:	4409                	li	s0,2
   1937a:	001a0513          	addi	a0,s4,1
   1937e:	05e00613          	li	a2,94
   19382:	85ce                	mv	a1,s3
   19384:	00005097          	auipc	ra,0x5
   19388:	190080e7          	jalr	400(ra) # 1e514 <memcpy>
   1938c:	000a0023          	sb	zero,0(s4)
   19390:	f88903e3          	beq	s2,s0,19316 <_ZN20complex_dynamic_type3app17he8e8d0d045b7eb24E+0xe6>
   19394:	22b00513          	li	a0,555
   19398:	4595                	li	a1,5
   1939a:	4601                	li	a2,0
   1939c:	4681                	li	a3,0
   1939e:	874a                	mv	a4,s2
   193a0:	00000073          	ecall
   193a4:	bf8d                	j	19316 <_ZN20complex_dynamic_type3app17he8e8d0d045b7eb24E+0xe6>

000193a6 <_ZN20complex_dynamic_type3app17hec1f7c35d4161866E>:
   193a6:	7119                	addi	sp,sp,-128
   193a8:	de86                	sw	ra,124(sp)
   193aa:	dca2                	sw	s0,120(sp)
   193ac:	daa6                	sw	s1,116(sp)
   193ae:	d8ca                	sw	s2,112(sp)
   193b0:	d6ce                	sw	s3,108(sp)
   193b2:	d4d2                	sw	s4,104(sp)
   193b4:	d2d6                	sw	s5,100(sp)
   193b6:	8aaa                	mv	s5,a0
   193b8:	4409                	li	s0,2
   193ba:	008105a3          	sb	s0,11(sp)
   193be:	0064                	addi	s1,sp,12
   193c0:	04800613          	li	a2,72
   193c4:	8526                	mv	a0,s1
   193c6:	00005097          	auipc	ra,0x5
   193ca:	14e080e7          	jalr	334(ra) # 1e514 <memcpy>
   193ce:	05510a13          	addi	s4,sp,85
   193d2:	463d                	li	a2,15
   193d4:	8552                	mv	a0,s4
   193d6:	4581                	li	a1,0
   193d8:	00005097          	auipc	ra,0x5
   193dc:	0d0080e7          	jalr	208(ra) # 1e4a8 <memset>
   193e0:	8626                	mv	a2,s1
   193e2:	04810a23          	sb	s0,84(sp)
   193e6:	6505                	lui	a0,0x1
   193e8:	4491                	li	s1,4
   193ea:	45a1                	li	a1,8
   193ec:	11d50793          	addi	a5,a0,285 # 111d <.Lline_table_start1+0xef2>
   193f0:	04800693          	li	a3,72
   193f4:	4711                	li	a4,4
   193f6:	853e                	mv	a0,a5
   193f8:	00000073          	ecall
   193fc:	00851863          	bne	a0,s0,1940c <_ZN20complex_dynamic_type3app17hec1f7c35d4161866E+0x66>
   19400:	4505                	li	a0,1
   19402:	00aa8023          	sb	a0,0(s5)
   19406:	00baa223          	sw	a1,4(s5)
   1940a:	a0b5                	j	19476 <_ZN20complex_dynamic_type3app17hec1f7c35d4161866E+0xd0>
   1940c:	853e                	mv	a0,a5
   1940e:	8652                	mv	a2,s4
   19410:	009105a3          	sb	s1,11(sp)
   19414:	478d                	li	a5,3
   19416:	45a5                	li	a1,9
   19418:	46bd                	li	a3,15
   1941a:	470d                	li	a4,3
   1941c:	00000073          	ecall
   19420:	00851d63          	bne	a0,s0,1943a <_ZN20complex_dynamic_type3app17hec1f7c35d4161866E+0x94>
   19424:	05414703          	lbu	a4,84(sp)
   19428:	4505                	li	a0,1
   1942a:	4609                	li	a2,2
   1942c:	00aa8023          	sb	a0,0(s5)
   19430:	00baa223          	sw	a1,4(s5)
   19434:	02c71963          	bne	a4,a2,19466 <_ZN20complex_dynamic_type3app17hec1f7c35d4161866E+0xc0>
   19438:	a83d                	j	19476 <_ZN20complex_dynamic_type3app17hec1f7c35d4161866E+0xd0>
   1943a:	4681                	li	a3,0
   1943c:	04f10a23          	sb	a5,84(sp)
   19440:	6505                	lui	a0,0x1
   19442:	45a1                	li	a1,8
   19444:	4625                	li	a2,9
   19446:	4709                	li	a4,2
   19448:	11d50513          	addi	a0,a0,285 # 111d <.Lline_table_start1+0xef2>
   1944c:	08000793          	li	a5,128
   19450:	00000073          	ecall
   19454:	4609                	li	a2,2
   19456:	04f57663          	bgeu	a0,a5,194a2 <_ZN20complex_dynamic_type3app17hec1f7c35d4161866E+0xfc>
   1945a:	4505                	li	a0,1
   1945c:	00aa8023          	sb	a0,0(s5)
   19460:	00baa223          	sw	a1,4(s5)
   19464:	470d                	li	a4,3
   19466:	6505                	lui	a0,0x1
   19468:	11d50513          	addi	a0,a0,285 # 111d <.Lline_table_start1+0xef2>
   1946c:	45a5                	li	a1,9
   1946e:	4601                	li	a2,0
   19470:	4681                	li	a3,0
   19472:	00000073          	ecall
   19476:	00b14703          	lbu	a4,11(sp)
   1947a:	4509                	li	a0,2
   1947c:	00a70a63          	beq	a4,a0,19490 <_ZN20complex_dynamic_type3app17hec1f7c35d4161866E+0xea>
   19480:	6505                	lui	a0,0x1
   19482:	11d50513          	addi	a0,a0,285 # 111d <.Lline_table_start1+0xef2>
   19486:	45a1                	li	a1,8
   19488:	4601                	li	a2,0
   1948a:	4681                	li	a3,0
   1948c:	00000073          	ecall
   19490:	50f6                	lw	ra,124(sp)
   19492:	5466                	lw	s0,120(sp)
   19494:	54d6                	lw	s1,116(sp)
   19496:	5946                	lw	s2,112(sp)
   19498:	59b6                	lw	s3,108(sp)
   1949a:	5a26                	lw	s4,104(sp)
   1949c:	5a96                	lw	s5,100(sp)
   1949e:	6109                	addi	sp,sp,128
   194a0:	8082                	ret
   194a2:	00b14703          	lbu	a4,11(sp)
   194a6:	00c71463          	bne	a4,a2,194ae <_ZN20complex_dynamic_type3app17hec1f7c35d4161866E+0x108>
   194aa:	470d                	li	a4,3
   194ac:	a81d                	j	194e2 <_ZN20complex_dynamic_type3app17hec1f7c35d4161866E+0x13c>
   194ae:	6505                	lui	a0,0x1
   194b0:	11d50513          	addi	a0,a0,285 # 111d <.Lline_table_start1+0xef2>
   194b4:	45a1                	li	a1,8
   194b6:	4601                	li	a2,0
   194b8:	4681                	li	a3,0
   194ba:	00000073          	ecall
   194be:	05414703          	lbu	a4,84(sp)
   194c2:	4509                	li	a0,2
   194c4:	00a105a3          	sb	a0,11(sp)
   194c8:	00a71d63          	bne	a4,a0,194e2 <_ZN20complex_dynamic_type3app17hec1f7c35d4161866E+0x13c>
   194cc:	001a8513          	addi	a0,s5,1
   194d0:	463d                	li	a2,15
   194d2:	85d2                	mv	a1,s4
   194d4:	00005097          	auipc	ra,0x5
   194d8:	040080e7          	jalr	64(ra) # 1e514 <memcpy>
   194dc:	000a8023          	sb	zero,0(s5)
   194e0:	bf45                	j	19490 <_ZN20complex_dynamic_type3app17hec1f7c35d4161866E+0xea>
   194e2:	6505                	lui	a0,0x1
   194e4:	11d50913          	addi	s2,a0,285 # 111d <.Lline_table_start1+0xef2>
   194e8:	45a5                	li	a1,9
   194ea:	854a                	mv	a0,s2
   194ec:	4601                	li	a2,0
   194ee:	4681                	li	a3,0
   194f0:	00000073          	ecall
   194f4:	00b14983          	lbu	s3,11(sp)
   194f8:	001a8513          	addi	a0,s5,1
   194fc:	463d                	li	a2,15
   194fe:	85d2                	mv	a1,s4
   19500:	00005097          	auipc	ra,0x5
   19504:	014080e7          	jalr	20(ra) # 1e514 <memcpy>
   19508:	4509                	li	a0,2
   1950a:	000a8023          	sb	zero,0(s5)
   1950e:	f8a981e3          	beq	s3,a0,19490 <_ZN20complex_dynamic_type3app17hec1f7c35d4161866E+0xea>
   19512:	45a1                	li	a1,8
   19514:	854a                	mv	a0,s2
   19516:	4601                	li	a2,0
   19518:	4681                	li	a3,0
   1951a:	874e                	mv	a4,s3
   1951c:	00000073          	ecall
   19520:	bf85                	j	19490 <_ZN20complex_dynamic_type3app17hec1f7c35d4161866E+0xea>

00019522 <_ZN20complex_dynamic_type3app17hf22a8b5a8873b017E>:
   19522:	7159                	addi	sp,sp,-112
   19524:	d686                	sw	ra,108(sp)
   19526:	d4a2                	sw	s0,104(sp)
   19528:	d2a6                	sw	s1,100(sp)
   1952a:	d0ca                	sw	s2,96(sp)
   1952c:	cece                	sw	s3,92(sp)
   1952e:	ccd2                	sw	s4,88(sp)
   19530:	8a2a                	mv	s4,a0
   19532:	4409                	li	s0,2
   19534:	008106a3          	sb	s0,13(sp)
   19538:	00e10493          	addi	s1,sp,14
   1953c:	02b00613          	li	a2,43
   19540:	8526                	mv	a0,s1
   19542:	00005097          	auipc	ra,0x5
   19546:	fd2080e7          	jalr	-46(ra) # 1e514 <memcpy>
   1954a:	03a10993          	addi	s3,sp,58
   1954e:	4679                	li	a2,30
   19550:	854e                	mv	a0,s3
   19552:	4581                	li	a1,0
   19554:	00005097          	auipc	ra,0x5
   19558:	f54080e7          	jalr	-172(ra) # 1e4a8 <memset>
   1955c:	8626                	mv	a2,s1
   1955e:	02810ca3          	sb	s0,57(sp)
   19562:	4791                	li	a5,4
   19564:	7e300513          	li	a0,2019
   19568:	459d                	li	a1,7
   1956a:	02b00693          	li	a3,43
   1956e:	4711                	li	a4,4
   19570:	00000073          	ecall
   19574:	00851863          	bne	a0,s0,19584 <_ZN20complex_dynamic_type3app17hf22a8b5a8873b017E+0x62>
   19578:	4505                	li	a0,1
   1957a:	00aa0023          	sb	a0,0(s4)
   1957e:	00ba2223          	sw	a1,4(s4)
   19582:	a0ad                	j	195ec <_ZN20complex_dynamic_type3app17hf22a8b5a8873b017E+0xca>
   19584:	864e                	mv	a2,s3
   19586:	00f106a3          	sb	a5,13(sp)
   1958a:	478d                	li	a5,3
   1958c:	7e300513          	li	a0,2019
   19590:	45a1                	li	a1,8
   19592:	46f9                	li	a3,30
   19594:	470d                	li	a4,3
   19596:	00000073          	ecall
   1959a:	00851d63          	bne	a0,s0,195b4 <_ZN20complex_dynamic_type3app17hf22a8b5a8873b017E+0x92>
   1959e:	03914703          	lbu	a4,57(sp)
   195a2:	4505                	li	a0,1
   195a4:	4609                	li	a2,2
   195a6:	00aa0023          	sb	a0,0(s4)
   195aa:	00ba2223          	sw	a1,4(s4)
   195ae:	02c71863          	bne	a4,a2,195de <_ZN20complex_dynamic_type3app17hf22a8b5a8873b017E+0xbc>
   195b2:	a82d                	j	195ec <_ZN20complex_dynamic_type3app17hf22a8b5a8873b017E+0xca>
   195b4:	4681                	li	a3,0
   195b6:	02f10ca3          	sb	a5,57(sp)
   195ba:	7e300513          	li	a0,2019
   195be:	459d                	li	a1,7
   195c0:	4621                	li	a2,8
   195c2:	4709                	li	a4,2
   195c4:	08000793          	li	a5,128
   195c8:	00000073          	ecall
   195cc:	4609                	li	a2,2
   195ce:	04f57363          	bgeu	a0,a5,19614 <_ZN20complex_dynamic_type3app17hf22a8b5a8873b017E+0xf2>
   195d2:	4505                	li	a0,1
   195d4:	00aa0023          	sb	a0,0(s4)
   195d8:	00ba2223          	sw	a1,4(s4)
   195dc:	470d                	li	a4,3
   195de:	7e300513          	li	a0,2019
   195e2:	45a1                	li	a1,8
   195e4:	4601                	li	a2,0
   195e6:	4681                	li	a3,0
   195e8:	00000073          	ecall
   195ec:	00d14703          	lbu	a4,13(sp)
   195f0:	4509                	li	a0,2
   195f2:	00a70963          	beq	a4,a0,19604 <_ZN20complex_dynamic_type3app17hf22a8b5a8873b017E+0xe2>
   195f6:	7e300513          	li	a0,2019
   195fa:	459d                	li	a1,7
   195fc:	4601                	li	a2,0
   195fe:	4681                	li	a3,0
   19600:	00000073          	ecall
   19604:	50b6                	lw	ra,108(sp)
   19606:	5426                	lw	s0,104(sp)
   19608:	5496                	lw	s1,100(sp)
   1960a:	5906                	lw	s2,96(sp)
   1960c:	49f6                	lw	s3,92(sp)
   1960e:	4a66                	lw	s4,88(sp)
   19610:	6165                	addi	sp,sp,112
   19612:	8082                	ret
   19614:	00d14703          	lbu	a4,13(sp)
   19618:	00c71463          	bne	a4,a2,19620 <_ZN20complex_dynamic_type3app17hf22a8b5a8873b017E+0xfe>
   1961c:	470d                	li	a4,3
   1961e:	a815                	j	19652 <_ZN20complex_dynamic_type3app17hf22a8b5a8873b017E+0x130>
   19620:	7e300513          	li	a0,2019
   19624:	459d                	li	a1,7
   19626:	4601                	li	a2,0
   19628:	4681                	li	a3,0
   1962a:	00000073          	ecall
   1962e:	03914703          	lbu	a4,57(sp)
   19632:	4509                	li	a0,2
   19634:	00a106a3          	sb	a0,13(sp)
   19638:	00a71d63          	bne	a4,a0,19652 <_ZN20complex_dynamic_type3app17hf22a8b5a8873b017E+0x130>
   1963c:	001a0513          	addi	a0,s4,1
   19640:	4679                	li	a2,30
   19642:	85ce                	mv	a1,s3
   19644:	00005097          	auipc	ra,0x5
   19648:	ed0080e7          	jalr	-304(ra) # 1e514 <memcpy>
   1964c:	000a0023          	sb	zero,0(s4)
   19650:	bf55                	j	19604 <_ZN20complex_dynamic_type3app17hf22a8b5a8873b017E+0xe2>
   19652:	7e300513          	li	a0,2019
   19656:	45a1                	li	a1,8
   19658:	4601                	li	a2,0
   1965a:	4681                	li	a3,0
   1965c:	00000073          	ecall
   19660:	00d14903          	lbu	s2,13(sp)
   19664:	001a0513          	addi	a0,s4,1
   19668:	4679                	li	a2,30
   1966a:	85ce                	mv	a1,s3
   1966c:	00005097          	auipc	ra,0x5
   19670:	ea8080e7          	jalr	-344(ra) # 1e514 <memcpy>
   19674:	4509                	li	a0,2
   19676:	000a0023          	sb	zero,0(s4)
   1967a:	f8a905e3          	beq	s2,a0,19604 <_ZN20complex_dynamic_type3app17hf22a8b5a8873b017E+0xe2>
   1967e:	7e300513          	li	a0,2019
   19682:	459d                	li	a1,7
   19684:	4601                	li	a2,0
   19686:	4681                	li	a3,0
   19688:	874a                	mv	a4,s2
   1968a:	00000073          	ecall
   1968e:	bf9d                	j	19604 <_ZN20complex_dynamic_type3app17hf22a8b5a8873b017E+0xe2>

00019690 <_ZN20complex_dynamic_type3app17hf527b74f458a8b72E>:
   19690:	7159                	addi	sp,sp,-112
   19692:	d686                	sw	ra,108(sp)
   19694:	d4a2                	sw	s0,104(sp)
   19696:	d2a6                	sw	s1,100(sp)
   19698:	d0ca                	sw	s2,96(sp)
   1969a:	cece                	sw	s3,92(sp)
   1969c:	ccd2                	sw	s4,88(sp)
   1969e:	cad6                	sw	s5,84(sp)
   196a0:	8aaa                	mv	s5,a0
   196a2:	4409                	li	s0,2
   196a4:	00810023          	sb	s0,0(sp)
   196a8:	00110493          	addi	s1,sp,1
   196ac:	02a00613          	li	a2,42
   196b0:	8526                	mv	a0,s1
   196b2:	00005097          	auipc	ra,0x5
   196b6:	e62080e7          	jalr	-414(ra) # 1e514 <memcpy>
   196ba:	02c10a13          	addi	s4,sp,44
   196be:	02800613          	li	a2,40
   196c2:	8552                	mv	a0,s4
   196c4:	4581                	li	a1,0
   196c6:	00005097          	auipc	ra,0x5
   196ca:	de2080e7          	jalr	-542(ra) # 1e4a8 <memset>
   196ce:	8626                	mv	a2,s1
   196d0:	028105a3          	sb	s0,43(sp)
   196d4:	6509                	lui	a0,0x2
   196d6:	4491                	li	s1,4
   196d8:	4591                	li	a1,4
   196da:	efa50793          	addi	a5,a0,-262 # 1efa <.Lline_table_start1+0x1ccf>
   196de:	02a00693          	li	a3,42
   196e2:	4711                	li	a4,4
   196e4:	853e                	mv	a0,a5
   196e6:	00000073          	ecall
   196ea:	00851863          	bne	a0,s0,196fa <_ZN20complex_dynamic_type3app17hf527b74f458a8b72E+0x6a>
   196ee:	4505                	li	a0,1
   196f0:	00aa8023          	sb	a0,0(s5)
   196f4:	00baa223          	sw	a1,4(s5)
   196f8:	a0bd                	j	19766 <_ZN20complex_dynamic_type3app17hf527b74f458a8b72E+0xd6>
   196fa:	853e                	mv	a0,a5
   196fc:	8652                	mv	a2,s4
   196fe:	00910023          	sb	s1,0(sp)
   19702:	478d                	li	a5,3
   19704:	45a1                	li	a1,8
   19706:	02800693          	li	a3,40
   1970a:	470d                	li	a4,3
   1970c:	00000073          	ecall
   19710:	00851d63          	bne	a0,s0,1972a <_ZN20complex_dynamic_type3app17hf527b74f458a8b72E+0x9a>
   19714:	02b14703          	lbu	a4,43(sp)
   19718:	4505                	li	a0,1
   1971a:	4609                	li	a2,2
   1971c:	00aa8023          	sb	a0,0(s5)
   19720:	00baa223          	sw	a1,4(s5)
   19724:	02c71963          	bne	a4,a2,19756 <_ZN20complex_dynamic_type3app17hf527b74f458a8b72E+0xc6>
   19728:	a83d                	j	19766 <_ZN20complex_dynamic_type3app17hf527b74f458a8b72E+0xd6>
   1972a:	4681                	li	a3,0
   1972c:	02f105a3          	sb	a5,43(sp)
   19730:	6509                	lui	a0,0x2
   19732:	4591                	li	a1,4
   19734:	4621                	li	a2,8
   19736:	4709                	li	a4,2
   19738:	efa50513          	addi	a0,a0,-262 # 1efa <.Lline_table_start1+0x1ccf>
   1973c:	08000793          	li	a5,128
   19740:	00000073          	ecall
   19744:	4609                	li	a2,2
   19746:	04f57663          	bgeu	a0,a5,19792 <_ZN20complex_dynamic_type3app17hf527b74f458a8b72E+0x102>
   1974a:	4505                	li	a0,1
   1974c:	00aa8023          	sb	a0,0(s5)
   19750:	00baa223          	sw	a1,4(s5)
   19754:	470d                	li	a4,3
   19756:	6509                	lui	a0,0x2
   19758:	efa50513          	addi	a0,a0,-262 # 1efa <.Lline_table_start1+0x1ccf>
   1975c:	45a1                	li	a1,8
   1975e:	4601                	li	a2,0
   19760:	4681                	li	a3,0
   19762:	00000073          	ecall
   19766:	00014703          	lbu	a4,0(sp)
   1976a:	4509                	li	a0,2
   1976c:	00a70a63          	beq	a4,a0,19780 <_ZN20complex_dynamic_type3app17hf527b74f458a8b72E+0xf0>
   19770:	6509                	lui	a0,0x2
   19772:	efa50513          	addi	a0,a0,-262 # 1efa <.Lline_table_start1+0x1ccf>
   19776:	4591                	li	a1,4
   19778:	4601                	li	a2,0
   1977a:	4681                	li	a3,0
   1977c:	00000073          	ecall
   19780:	50b6                	lw	ra,108(sp)
   19782:	5426                	lw	s0,104(sp)
   19784:	5496                	lw	s1,100(sp)
   19786:	5906                	lw	s2,96(sp)
   19788:	49f6                	lw	s3,92(sp)
   1978a:	4a66                	lw	s4,88(sp)
   1978c:	4ad6                	lw	s5,84(sp)
   1978e:	6165                	addi	sp,sp,112
   19790:	8082                	ret
   19792:	00014703          	lbu	a4,0(sp)
   19796:	00c71463          	bne	a4,a2,1979e <_ZN20complex_dynamic_type3app17hf527b74f458a8b72E+0x10e>
   1979a:	470d                	li	a4,3
   1979c:	a825                	j	197d4 <_ZN20complex_dynamic_type3app17hf527b74f458a8b72E+0x144>
   1979e:	6509                	lui	a0,0x2
   197a0:	efa50513          	addi	a0,a0,-262 # 1efa <.Lline_table_start1+0x1ccf>
   197a4:	4591                	li	a1,4
   197a6:	4601                	li	a2,0
   197a8:	4681                	li	a3,0
   197aa:	00000073          	ecall
   197ae:	02b14703          	lbu	a4,43(sp)
   197b2:	4509                	li	a0,2
   197b4:	00a10023          	sb	a0,0(sp)
   197b8:	00a71e63          	bne	a4,a0,197d4 <_ZN20complex_dynamic_type3app17hf527b74f458a8b72E+0x144>
   197bc:	001a8513          	addi	a0,s5,1
   197c0:	02800613          	li	a2,40
   197c4:	85d2                	mv	a1,s4
   197c6:	00005097          	auipc	ra,0x5
   197ca:	d4e080e7          	jalr	-690(ra) # 1e514 <memcpy>
   197ce:	000a8023          	sb	zero,0(s5)
   197d2:	b77d                	j	19780 <_ZN20complex_dynamic_type3app17hf527b74f458a8b72E+0xf0>
   197d4:	6509                	lui	a0,0x2
   197d6:	efa50913          	addi	s2,a0,-262 # 1efa <.Lline_table_start1+0x1ccf>
   197da:	45a1                	li	a1,8
   197dc:	854a                	mv	a0,s2
   197de:	4601                	li	a2,0
   197e0:	4681                	li	a3,0
   197e2:	00000073          	ecall
   197e6:	00014983          	lbu	s3,0(sp)
   197ea:	001a8513          	addi	a0,s5,1
   197ee:	02800613          	li	a2,40
   197f2:	85d2                	mv	a1,s4
   197f4:	00005097          	auipc	ra,0x5
   197f8:	d20080e7          	jalr	-736(ra) # 1e514 <memcpy>
   197fc:	4509                	li	a0,2
   197fe:	000a8023          	sb	zero,0(s5)
   19802:	f6a98fe3          	beq	s3,a0,19780 <_ZN20complex_dynamic_type3app17hf527b74f458a8b72E+0xf0>
   19806:	4591                	li	a1,4
   19808:	854a                	mv	a0,s2
   1980a:	4601                	li	a2,0
   1980c:	4681                	li	a3,0
   1980e:	874e                	mv	a4,s3
   19810:	00000073          	ecall
   19814:	b7b5                	j	19780 <_ZN20complex_dynamic_type3app17hf527b74f458a8b72E+0xf0>

00019816 <_ZN20complex_dynamic_type3app17hf88d228bf44026fcE>:
   19816:	7159                	addi	sp,sp,-112
   19818:	d686                	sw	ra,108(sp)
   1981a:	d4a2                	sw	s0,104(sp)
   1981c:	d2a6                	sw	s1,100(sp)
   1981e:	d0ca                	sw	s2,96(sp)
   19820:	cece                	sw	s3,92(sp)
   19822:	ccd2                	sw	s4,88(sp)
   19824:	cad6                	sw	s5,84(sp)
   19826:	8aaa                	mv	s5,a0
   19828:	4409                	li	s0,2
   1982a:	00810623          	sb	s0,12(sp)
   1982e:	00d10493          	addi	s1,sp,13
   19832:	4641                	li	a2,16
   19834:	8526                	mv	a0,s1
   19836:	00005097          	auipc	ra,0x5
   1983a:	cde080e7          	jalr	-802(ra) # 1e514 <memcpy>
   1983e:	01e10a13          	addi	s4,sp,30
   19842:	03600613          	li	a2,54
   19846:	8552                	mv	a0,s4
   19848:	4581                	li	a1,0
   1984a:	00005097          	auipc	ra,0x5
   1984e:	c5e080e7          	jalr	-930(ra) # 1e4a8 <memset>
   19852:	8626                	mv	a2,s1
   19854:	00810ea3          	sb	s0,29(sp)
   19858:	6509                	lui	a0,0x2
   1985a:	4805                	li	a6,1
   1985c:	4491                	li	s1,4
   1985e:	4585                	li	a1,1
   19860:	98950793          	addi	a5,a0,-1655 # 1989 <.Lline_table_start1+0x175e>
   19864:	46c1                	li	a3,16
   19866:	4711                	li	a4,4
   19868:	853e                	mv	a0,a5
   1986a:	00000073          	ecall
   1986e:	00851763          	bne	a0,s0,1987c <_ZN20complex_dynamic_type3app17hf88d228bf44026fcE+0x66>
   19872:	010a8023          	sb	a6,0(s5)
   19876:	00baa223          	sw	a1,4(s5)
   1987a:	a0bd                	j	198e8 <_ZN20complex_dynamic_type3app17hf88d228bf44026fcE+0xd2>
   1987c:	853e                	mv	a0,a5
   1987e:	8652                	mv	a2,s4
   19880:	00910623          	sb	s1,12(sp)
   19884:	478d                	li	a5,3
   19886:	459d                	li	a1,7
   19888:	03600693          	li	a3,54
   1988c:	470d                	li	a4,3
   1988e:	00000073          	ecall
   19892:	00851d63          	bne	a0,s0,198ac <_ZN20complex_dynamic_type3app17hf88d228bf44026fcE+0x96>
   19896:	01d14703          	lbu	a4,29(sp)
   1989a:	4505                	li	a0,1
   1989c:	4609                	li	a2,2
   1989e:	00aa8023          	sb	a0,0(s5)
   198a2:	00baa223          	sw	a1,4(s5)
   198a6:	02c71963          	bne	a4,a2,198d8 <_ZN20complex_dynamic_type3app17hf88d228bf44026fcE+0xc2>
   198aa:	a83d                	j	198e8 <_ZN20complex_dynamic_type3app17hf88d228bf44026fcE+0xd2>
   198ac:	4681                	li	a3,0
   198ae:	00f10ea3          	sb	a5,29(sp)
   198b2:	6509                	lui	a0,0x2
   198b4:	4785                	li	a5,1
   198b6:	4585                	li	a1,1
   198b8:	461d                	li	a2,7
   198ba:	4709                	li	a4,2
   198bc:	98950513          	addi	a0,a0,-1655 # 1989 <.Lline_table_start1+0x175e>
   198c0:	08000493          	li	s1,128
   198c4:	00000073          	ecall
   198c8:	4609                	li	a2,2
   198ca:	04957563          	bgeu	a0,s1,19914 <_ZN20complex_dynamic_type3app17hf88d228bf44026fcE+0xfe>
   198ce:	00fa8023          	sb	a5,0(s5)
   198d2:	00baa223          	sw	a1,4(s5)
   198d6:	470d                	li	a4,3
   198d8:	6509                	lui	a0,0x2
   198da:	98950513          	addi	a0,a0,-1655 # 1989 <.Lline_table_start1+0x175e>
   198de:	459d                	li	a1,7
   198e0:	4601                	li	a2,0
   198e2:	4681                	li	a3,0
   198e4:	00000073          	ecall
   198e8:	00c14703          	lbu	a4,12(sp)
   198ec:	4509                	li	a0,2
   198ee:	00a70a63          	beq	a4,a0,19902 <_ZN20complex_dynamic_type3app17hf88d228bf44026fcE+0xec>
   198f2:	6509                	lui	a0,0x2
   198f4:	98950513          	addi	a0,a0,-1655 # 1989 <.Lline_table_start1+0x175e>
   198f8:	4585                	li	a1,1
   198fa:	4601                	li	a2,0
   198fc:	4681                	li	a3,0
   198fe:	00000073          	ecall
   19902:	50b6                	lw	ra,108(sp)
   19904:	5426                	lw	s0,104(sp)
   19906:	5496                	lw	s1,100(sp)
   19908:	5906                	lw	s2,96(sp)
   1990a:	49f6                	lw	s3,92(sp)
   1990c:	4a66                	lw	s4,88(sp)
   1990e:	4ad6                	lw	s5,84(sp)
   19910:	6165                	addi	sp,sp,112
   19912:	8082                	ret
   19914:	00c14703          	lbu	a4,12(sp)
   19918:	00c71463          	bne	a4,a2,19920 <_ZN20complex_dynamic_type3app17hf88d228bf44026fcE+0x10a>
   1991c:	470d                	li	a4,3
   1991e:	a825                	j	19956 <_ZN20complex_dynamic_type3app17hf88d228bf44026fcE+0x140>
   19920:	6509                	lui	a0,0x2
   19922:	98950513          	addi	a0,a0,-1655 # 1989 <.Lline_table_start1+0x175e>
   19926:	4585                	li	a1,1
   19928:	4601                	li	a2,0
   1992a:	4681                	li	a3,0
   1992c:	00000073          	ecall
   19930:	01d14703          	lbu	a4,29(sp)
   19934:	4509                	li	a0,2
   19936:	00a10623          	sb	a0,12(sp)
   1993a:	00a71e63          	bne	a4,a0,19956 <_ZN20complex_dynamic_type3app17hf88d228bf44026fcE+0x140>
   1993e:	001a8513          	addi	a0,s5,1
   19942:	03600613          	li	a2,54
   19946:	85d2                	mv	a1,s4
   19948:	00005097          	auipc	ra,0x5
   1994c:	bcc080e7          	jalr	-1076(ra) # 1e514 <memcpy>
   19950:	000a8023          	sb	zero,0(s5)
   19954:	b77d                	j	19902 <_ZN20complex_dynamic_type3app17hf88d228bf44026fcE+0xec>
   19956:	6509                	lui	a0,0x2
   19958:	98950913          	addi	s2,a0,-1655 # 1989 <.Lline_table_start1+0x175e>
   1995c:	459d                	li	a1,7
   1995e:	854a                	mv	a0,s2
   19960:	4601                	li	a2,0
   19962:	4681                	li	a3,0
   19964:	00000073          	ecall
   19968:	00c14983          	lbu	s3,12(sp)
   1996c:	001a8513          	addi	a0,s5,1
   19970:	03600613          	li	a2,54
   19974:	85d2                	mv	a1,s4
   19976:	00005097          	auipc	ra,0x5
   1997a:	b9e080e7          	jalr	-1122(ra) # 1e514 <memcpy>
   1997e:	4509                	li	a0,2
   19980:	000a8023          	sb	zero,0(s5)
   19984:	f6a98fe3          	beq	s3,a0,19902 <_ZN20complex_dynamic_type3app17hf88d228bf44026fcE+0xec>
   19988:	4585                	li	a1,1
   1998a:	854a                	mv	a0,s2
   1998c:	4601                	li	a2,0
   1998e:	4681                	li	a3,0
   19990:	874e                	mv	a4,s3
   19992:	00000073          	ecall
   19996:	b7b5                	j	19902 <_ZN20complex_dynamic_type3app17hf88d228bf44026fcE+0xec>

00019998 <_ZN20complex_dynamic_type3app17hf905218ab4b0289fE>:
   19998:	7171                	addi	sp,sp,-176
   1999a:	d706                	sw	ra,172(sp)
   1999c:	d522                	sw	s0,168(sp)
   1999e:	d326                	sw	s1,164(sp)
   199a0:	d14a                	sw	s2,160(sp)
   199a2:	cf4e                	sw	s3,156(sp)
   199a4:	cd52                	sw	s4,152(sp)
   199a6:	cb56                	sw	s5,148(sp)
   199a8:	8aaa                	mv	s5,a0
   199aa:	4409                	li	s0,2
   199ac:	008105a3          	sb	s0,11(sp)
   199b0:	0064                	addi	s1,sp,12
   199b2:	05500613          	li	a2,85
   199b6:	8526                	mv	a0,s1
   199b8:	00005097          	auipc	ra,0x5
   199bc:	b5c080e7          	jalr	-1188(ra) # 1e514 <memcpy>
   199c0:	06210a13          	addi	s4,sp,98
   199c4:	03200613          	li	a2,50
   199c8:	8552                	mv	a0,s4
   199ca:	4581                	li	a1,0
   199cc:	00005097          	auipc	ra,0x5
   199d0:	adc080e7          	jalr	-1316(ra) # 1e4a8 <memset>
   199d4:	8626                	mv	a2,s1
   199d6:	068100a3          	sb	s0,97(sp)
   199da:	6509                	lui	a0,0x2
   199dc:	4491                	li	s1,4
   199de:	45a1                	li	a1,8
   199e0:	09550793          	addi	a5,a0,149 # 2095 <.Lline_table_start1+0x1e6a>
   199e4:	05500693          	li	a3,85
   199e8:	4711                	li	a4,4
   199ea:	853e                	mv	a0,a5
   199ec:	00000073          	ecall
   199f0:	00851863          	bne	a0,s0,19a00 <_ZN20complex_dynamic_type3app17hf905218ab4b0289fE+0x68>
   199f4:	4505                	li	a0,1
   199f6:	00aa8023          	sb	a0,0(s5)
   199fa:	00baa223          	sw	a1,4(s5)
   199fe:	a0bd                	j	19a6c <_ZN20complex_dynamic_type3app17hf905218ab4b0289fE+0xd4>
   19a00:	853e                	mv	a0,a5
   19a02:	8652                	mv	a2,s4
   19a04:	009105a3          	sb	s1,11(sp)
   19a08:	478d                	li	a5,3
   19a0a:	45a1                	li	a1,8
   19a0c:	03200693          	li	a3,50
   19a10:	470d                	li	a4,3
   19a12:	00000073          	ecall
   19a16:	00851d63          	bne	a0,s0,19a30 <_ZN20complex_dynamic_type3app17hf905218ab4b0289fE+0x98>
   19a1a:	06114703          	lbu	a4,97(sp)
   19a1e:	4505                	li	a0,1
   19a20:	4609                	li	a2,2
   19a22:	00aa8023          	sb	a0,0(s5)
   19a26:	00baa223          	sw	a1,4(s5)
   19a2a:	02c71963          	bne	a4,a2,19a5c <_ZN20complex_dynamic_type3app17hf905218ab4b0289fE+0xc4>
   19a2e:	a83d                	j	19a6c <_ZN20complex_dynamic_type3app17hf905218ab4b0289fE+0xd4>
   19a30:	4681                	li	a3,0
   19a32:	06f100a3          	sb	a5,97(sp)
   19a36:	6509                	lui	a0,0x2
   19a38:	45a1                	li	a1,8
   19a3a:	4621                	li	a2,8
   19a3c:	4709                	li	a4,2
   19a3e:	09550513          	addi	a0,a0,149 # 2095 <.Lline_table_start1+0x1e6a>
   19a42:	08000793          	li	a5,128
   19a46:	00000073          	ecall
   19a4a:	4609                	li	a2,2
   19a4c:	04f57663          	bgeu	a0,a5,19a98 <_ZN20complex_dynamic_type3app17hf905218ab4b0289fE+0x100>
   19a50:	4505                	li	a0,1
   19a52:	00aa8023          	sb	a0,0(s5)
   19a56:	00baa223          	sw	a1,4(s5)
   19a5a:	470d                	li	a4,3
   19a5c:	6509                	lui	a0,0x2
   19a5e:	09550513          	addi	a0,a0,149 # 2095 <.Lline_table_start1+0x1e6a>
   19a62:	45a1                	li	a1,8
   19a64:	4601                	li	a2,0
   19a66:	4681                	li	a3,0
   19a68:	00000073          	ecall
   19a6c:	00b14703          	lbu	a4,11(sp)
   19a70:	4509                	li	a0,2
   19a72:	00a70a63          	beq	a4,a0,19a86 <_ZN20complex_dynamic_type3app17hf905218ab4b0289fE+0xee>
   19a76:	6509                	lui	a0,0x2
   19a78:	09550513          	addi	a0,a0,149 # 2095 <.Lline_table_start1+0x1e6a>
   19a7c:	45a1                	li	a1,8
   19a7e:	4601                	li	a2,0
   19a80:	4681                	li	a3,0
   19a82:	00000073          	ecall
   19a86:	50ba                	lw	ra,172(sp)
   19a88:	542a                	lw	s0,168(sp)
   19a8a:	549a                	lw	s1,164(sp)
   19a8c:	590a                	lw	s2,160(sp)
   19a8e:	49fa                	lw	s3,156(sp)
   19a90:	4a6a                	lw	s4,152(sp)
   19a92:	4ada                	lw	s5,148(sp)
   19a94:	614d                	addi	sp,sp,176
   19a96:	8082                	ret
   19a98:	00b14703          	lbu	a4,11(sp)
   19a9c:	00c71463          	bne	a4,a2,19aa4 <_ZN20complex_dynamic_type3app17hf905218ab4b0289fE+0x10c>
   19aa0:	470d                	li	a4,3
   19aa2:	a825                	j	19ada <_ZN20complex_dynamic_type3app17hf905218ab4b0289fE+0x142>
   19aa4:	6509                	lui	a0,0x2
   19aa6:	09550513          	addi	a0,a0,149 # 2095 <.Lline_table_start1+0x1e6a>
   19aaa:	45a1                	li	a1,8
   19aac:	4601                	li	a2,0
   19aae:	4681                	li	a3,0
   19ab0:	00000073          	ecall
   19ab4:	06114703          	lbu	a4,97(sp)
   19ab8:	4509                	li	a0,2
   19aba:	00a105a3          	sb	a0,11(sp)
   19abe:	00a71e63          	bne	a4,a0,19ada <_ZN20complex_dynamic_type3app17hf905218ab4b0289fE+0x142>
   19ac2:	001a8513          	addi	a0,s5,1
   19ac6:	03200613          	li	a2,50
   19aca:	85d2                	mv	a1,s4
   19acc:	00005097          	auipc	ra,0x5
   19ad0:	a48080e7          	jalr	-1464(ra) # 1e514 <memcpy>
   19ad4:	000a8023          	sb	zero,0(s5)
   19ad8:	b77d                	j	19a86 <_ZN20complex_dynamic_type3app17hf905218ab4b0289fE+0xee>
   19ada:	6509                	lui	a0,0x2
   19adc:	09550913          	addi	s2,a0,149 # 2095 <.Lline_table_start1+0x1e6a>
   19ae0:	45a1                	li	a1,8
   19ae2:	854a                	mv	a0,s2
   19ae4:	4601                	li	a2,0
   19ae6:	4681                	li	a3,0
   19ae8:	00000073          	ecall
   19aec:	00b14983          	lbu	s3,11(sp)
   19af0:	001a8513          	addi	a0,s5,1
   19af4:	03200613          	li	a2,50
   19af8:	85d2                	mv	a1,s4
   19afa:	00005097          	auipc	ra,0x5
   19afe:	a1a080e7          	jalr	-1510(ra) # 1e514 <memcpy>
   19b02:	4509                	li	a0,2
   19b04:	000a8023          	sb	zero,0(s5)
   19b08:	f6a98fe3          	beq	s3,a0,19a86 <_ZN20complex_dynamic_type3app17hf905218ab4b0289fE+0xee>
   19b0c:	45a1                	li	a1,8
   19b0e:	854a                	mv	a0,s2
   19b10:	4601                	li	a2,0
   19b12:	4681                	li	a3,0
   19b14:	874e                	mv	a4,s3
   19b16:	00000073          	ecall
   19b1a:	b7b5                	j	19a86 <_ZN20complex_dynamic_type3app17hf905218ab4b0289fE+0xee>

00019b1c <_ZN20complex_dynamic_type3app17hff8fc61e47f2eaa9E>:
   19b1c:	711d                	addi	sp,sp,-96
   19b1e:	ce86                	sw	ra,92(sp)
   19b20:	cca2                	sw	s0,88(sp)
   19b22:	caa6                	sw	s1,84(sp)
   19b24:	c8ca                	sw	s2,80(sp)
   19b26:	c6ce                	sw	s3,76(sp)
   19b28:	c4d2                	sw	s4,72(sp)
   19b2a:	c2d6                	sw	s5,68(sp)
   19b2c:	8aaa                	mv	s5,a0
   19b2e:	4409                	li	s0,2
   19b30:	00810523          	sb	s0,10(sp)
   19b34:	00b10493          	addi	s1,sp,11
   19b38:	02b00613          	li	a2,43
   19b3c:	8526                	mv	a0,s1
   19b3e:	00005097          	auipc	ra,0x5
   19b42:	9d6080e7          	jalr	-1578(ra) # 1e514 <memcpy>
   19b46:	03710a13          	addi	s4,sp,55
   19b4a:	4635                	li	a2,13
   19b4c:	8552                	mv	a0,s4
   19b4e:	4581                	li	a1,0
   19b50:	00005097          	auipc	ra,0x5
   19b54:	958080e7          	jalr	-1704(ra) # 1e4a8 <memset>
   19b58:	8626                	mv	a2,s1
   19b5a:	02810b23          	sb	s0,54(sp)
   19b5e:	6505                	lui	a0,0x1
   19b60:	4491                	li	s1,4
   19b62:	4599                	li	a1,6
   19b64:	46550793          	addi	a5,a0,1125 # 1465 <.Lline_table_start1+0x123a>
   19b68:	02b00693          	li	a3,43
   19b6c:	4711                	li	a4,4
   19b6e:	853e                	mv	a0,a5
   19b70:	00000073          	ecall
   19b74:	00851863          	bne	a0,s0,19b84 <_ZN20complex_dynamic_type3app17hff8fc61e47f2eaa9E+0x68>
   19b78:	4505                	li	a0,1
   19b7a:	00aa8023          	sb	a0,0(s5)
   19b7e:	00baa223          	sw	a1,4(s5)
   19b82:	a0b5                	j	19bee <_ZN20complex_dynamic_type3app17hff8fc61e47f2eaa9E+0xd2>
   19b84:	853e                	mv	a0,a5
   19b86:	4581                	li	a1,0
   19b88:	8652                	mv	a2,s4
   19b8a:	00910523          	sb	s1,10(sp)
   19b8e:	478d                	li	a5,3
   19b90:	46b5                	li	a3,13
   19b92:	470d                	li	a4,3
   19b94:	00000073          	ecall
   19b98:	00851d63          	bne	a0,s0,19bb2 <_ZN20complex_dynamic_type3app17hff8fc61e47f2eaa9E+0x96>
   19b9c:	03614703          	lbu	a4,54(sp)
   19ba0:	4505                	li	a0,1
   19ba2:	4609                	li	a2,2
   19ba4:	00aa8023          	sb	a0,0(s5)
   19ba8:	00baa223          	sw	a1,4(s5)
   19bac:	02c71963          	bne	a4,a2,19bde <_ZN20complex_dynamic_type3app17hff8fc61e47f2eaa9E+0xc2>
   19bb0:	a83d                	j	19bee <_ZN20complex_dynamic_type3app17hff8fc61e47f2eaa9E+0xd2>
   19bb2:	4601                	li	a2,0
   19bb4:	4681                	li	a3,0
   19bb6:	02f10b23          	sb	a5,54(sp)
   19bba:	6505                	lui	a0,0x1
   19bbc:	4599                	li	a1,6
   19bbe:	4709                	li	a4,2
   19bc0:	46550513          	addi	a0,a0,1125 # 1465 <.Lline_table_start1+0x123a>
   19bc4:	08000793          	li	a5,128
   19bc8:	00000073          	ecall
   19bcc:	4609                	li	a2,2
   19bce:	04f57663          	bgeu	a0,a5,19c1a <_ZN20complex_dynamic_type3app17hff8fc61e47f2eaa9E+0xfe>
   19bd2:	4505                	li	a0,1
   19bd4:	00aa8023          	sb	a0,0(s5)
   19bd8:	00baa223          	sw	a1,4(s5)
   19bdc:	470d                	li	a4,3
   19bde:	6505                	lui	a0,0x1
   19be0:	46550513          	addi	a0,a0,1125 # 1465 <.Lline_table_start1+0x123a>
   19be4:	4581                	li	a1,0
   19be6:	4601                	li	a2,0
   19be8:	4681                	li	a3,0
   19bea:	00000073          	ecall
   19bee:	00a14703          	lbu	a4,10(sp)
   19bf2:	4509                	li	a0,2
   19bf4:	00a70a63          	beq	a4,a0,19c08 <_ZN20complex_dynamic_type3app17hff8fc61e47f2eaa9E+0xec>
   19bf8:	6505                	lui	a0,0x1
   19bfa:	46550513          	addi	a0,a0,1125 # 1465 <.Lline_table_start1+0x123a>
   19bfe:	4599                	li	a1,6
   19c00:	4601                	li	a2,0
   19c02:	4681                	li	a3,0
   19c04:	00000073          	ecall
   19c08:	40f6                	lw	ra,92(sp)
   19c0a:	4466                	lw	s0,88(sp)
   19c0c:	44d6                	lw	s1,84(sp)
   19c0e:	4946                	lw	s2,80(sp)
   19c10:	49b6                	lw	s3,76(sp)
   19c12:	4a26                	lw	s4,72(sp)
   19c14:	4a96                	lw	s5,68(sp)
   19c16:	6125                	addi	sp,sp,96
   19c18:	8082                	ret
   19c1a:	00a14703          	lbu	a4,10(sp)
   19c1e:	00c71463          	bne	a4,a2,19c26 <_ZN20complex_dynamic_type3app17hff8fc61e47f2eaa9E+0x10a>
   19c22:	470d                	li	a4,3
   19c24:	a81d                	j	19c5a <_ZN20complex_dynamic_type3app17hff8fc61e47f2eaa9E+0x13e>
   19c26:	6505                	lui	a0,0x1
   19c28:	46550513          	addi	a0,a0,1125 # 1465 <.Lline_table_start1+0x123a>
   19c2c:	4599                	li	a1,6
   19c2e:	4601                	li	a2,0
   19c30:	4681                	li	a3,0
   19c32:	00000073          	ecall
   19c36:	03614703          	lbu	a4,54(sp)
   19c3a:	4509                	li	a0,2
   19c3c:	00a10523          	sb	a0,10(sp)
   19c40:	00a71d63          	bne	a4,a0,19c5a <_ZN20complex_dynamic_type3app17hff8fc61e47f2eaa9E+0x13e>
   19c44:	001a8513          	addi	a0,s5,1
   19c48:	4635                	li	a2,13
   19c4a:	85d2                	mv	a1,s4
   19c4c:	00005097          	auipc	ra,0x5
   19c50:	8c8080e7          	jalr	-1848(ra) # 1e514 <memcpy>
   19c54:	000a8023          	sb	zero,0(s5)
   19c58:	bf45                	j	19c08 <_ZN20complex_dynamic_type3app17hff8fc61e47f2eaa9E+0xec>
   19c5a:	6505                	lui	a0,0x1
   19c5c:	46550913          	addi	s2,a0,1125 # 1465 <.Lline_table_start1+0x123a>
   19c60:	854a                	mv	a0,s2
   19c62:	4581                	li	a1,0
   19c64:	4601                	li	a2,0
   19c66:	4681                	li	a3,0
   19c68:	00000073          	ecall
   19c6c:	00a14983          	lbu	s3,10(sp)
   19c70:	001a8513          	addi	a0,s5,1
   19c74:	4635                	li	a2,13
   19c76:	85d2                	mv	a1,s4
   19c78:	00005097          	auipc	ra,0x5
   19c7c:	89c080e7          	jalr	-1892(ra) # 1e514 <memcpy>
   19c80:	4509                	li	a0,2
   19c82:	000a8023          	sb	zero,0(s5)
   19c86:	f8a981e3          	beq	s3,a0,19c08 <_ZN20complex_dynamic_type3app17hff8fc61e47f2eaa9E+0xec>
   19c8a:	4599                	li	a1,6
   19c8c:	854a                	mv	a0,s2
   19c8e:	4601                	li	a2,0
   19c90:	4681                	li	a3,0
   19c92:	874e                	mv	a4,s3
   19c94:	00000073          	ecall
   19c98:	bf85                	j	19c08 <_ZN20complex_dynamic_type3app17hff8fc61e47f2eaa9E+0xec>

00019c9a <_ZN20complex_dynamic_type3app17hffe4a0d1cfe76c92E>:
   19c9a:	7175                	addi	sp,sp,-144
   19c9c:	c706                	sw	ra,140(sp)
   19c9e:	c522                	sw	s0,136(sp)
   19ca0:	c326                	sw	s1,132(sp)
   19ca2:	c14a                	sw	s2,128(sp)
   19ca4:	dece                	sw	s3,124(sp)
   19ca6:	dcd2                	sw	s4,120(sp)
   19ca8:	dad6                	sw	s5,116(sp)
   19caa:	8aaa                	mv	s5,a0
   19cac:	4409                	li	s0,2
   19cae:	008100a3          	sb	s0,1(sp)
   19cb2:	00210493          	addi	s1,sp,2
   19cb6:	04800613          	li	a2,72
   19cba:	8526                	mv	a0,s1
   19cbc:	00005097          	auipc	ra,0x5
   19cc0:	858080e7          	jalr	-1960(ra) # 1e514 <memcpy>
   19cc4:	04b10a13          	addi	s4,sp,75
   19cc8:	02900613          	li	a2,41
   19ccc:	8552                	mv	a0,s4
   19cce:	4581                	li	a1,0
   19cd0:	00004097          	auipc	ra,0x4
   19cd4:	7d8080e7          	jalr	2008(ra) # 1e4a8 <memset>
   19cd8:	8626                	mv	a2,s1
   19cda:	04810523          	sb	s0,74(sp)
   19cde:	6509                	lui	a0,0x2
   19ce0:	4491                	li	s1,4
   19ce2:	458d                	li	a1,3
   19ce4:	6a450793          	addi	a5,a0,1700 # 26a4 <.Lline_table_start1+0x2479>
   19ce8:	04800693          	li	a3,72
   19cec:	4711                	li	a4,4
   19cee:	853e                	mv	a0,a5
   19cf0:	00000073          	ecall
   19cf4:	00851863          	bne	a0,s0,19d04 <_ZN20complex_dynamic_type3app17hffe4a0d1cfe76c92E+0x6a>
   19cf8:	4505                	li	a0,1
   19cfa:	00aa8023          	sb	a0,0(s5)
   19cfe:	00baa223          	sw	a1,4(s5)
   19d02:	a0bd                	j	19d70 <_ZN20complex_dynamic_type3app17hffe4a0d1cfe76c92E+0xd6>
   19d04:	853e                	mv	a0,a5
   19d06:	8652                	mv	a2,s4
   19d08:	009100a3          	sb	s1,1(sp)
   19d0c:	478d                	li	a5,3
   19d0e:	4591                	li	a1,4
   19d10:	02900693          	li	a3,41
   19d14:	470d                	li	a4,3
   19d16:	00000073          	ecall
   19d1a:	00851d63          	bne	a0,s0,19d34 <_ZN20complex_dynamic_type3app17hffe4a0d1cfe76c92E+0x9a>
   19d1e:	04a14703          	lbu	a4,74(sp)
   19d22:	4505                	li	a0,1
   19d24:	4609                	li	a2,2
   19d26:	00aa8023          	sb	a0,0(s5)
   19d2a:	00baa223          	sw	a1,4(s5)
   19d2e:	02c71963          	bne	a4,a2,19d60 <_ZN20complex_dynamic_type3app17hffe4a0d1cfe76c92E+0xc6>
   19d32:	a83d                	j	19d70 <_ZN20complex_dynamic_type3app17hffe4a0d1cfe76c92E+0xd6>
   19d34:	4681                	li	a3,0
   19d36:	04f10523          	sb	a5,74(sp)
   19d3a:	6509                	lui	a0,0x2
   19d3c:	458d                	li	a1,3
   19d3e:	4611                	li	a2,4
   19d40:	4709                	li	a4,2
   19d42:	6a450513          	addi	a0,a0,1700 # 26a4 <.Lline_table_start1+0x2479>
   19d46:	08000793          	li	a5,128
   19d4a:	00000073          	ecall
   19d4e:	4609                	li	a2,2
   19d50:	04f57663          	bgeu	a0,a5,19d9c <_ZN20complex_dynamic_type3app17hffe4a0d1cfe76c92E+0x102>
   19d54:	4505                	li	a0,1
   19d56:	00aa8023          	sb	a0,0(s5)
   19d5a:	00baa223          	sw	a1,4(s5)
   19d5e:	470d                	li	a4,3
   19d60:	6509                	lui	a0,0x2
   19d62:	6a450513          	addi	a0,a0,1700 # 26a4 <.Lline_table_start1+0x2479>
   19d66:	4591                	li	a1,4
   19d68:	4601                	li	a2,0
   19d6a:	4681                	li	a3,0
   19d6c:	00000073          	ecall
   19d70:	00114703          	lbu	a4,1(sp)
   19d74:	4509                	li	a0,2
   19d76:	00a70a63          	beq	a4,a0,19d8a <_ZN20complex_dynamic_type3app17hffe4a0d1cfe76c92E+0xf0>
   19d7a:	6509                	lui	a0,0x2
   19d7c:	6a450513          	addi	a0,a0,1700 # 26a4 <.Lline_table_start1+0x2479>
   19d80:	458d                	li	a1,3
   19d82:	4601                	li	a2,0
   19d84:	4681                	li	a3,0
   19d86:	00000073          	ecall
   19d8a:	40ba                	lw	ra,140(sp)
   19d8c:	442a                	lw	s0,136(sp)
   19d8e:	449a                	lw	s1,132(sp)
   19d90:	490a                	lw	s2,128(sp)
   19d92:	59f6                	lw	s3,124(sp)
   19d94:	5a66                	lw	s4,120(sp)
   19d96:	5ad6                	lw	s5,116(sp)
   19d98:	6149                	addi	sp,sp,144
   19d9a:	8082                	ret
   19d9c:	00114703          	lbu	a4,1(sp)
   19da0:	00c71463          	bne	a4,a2,19da8 <_ZN20complex_dynamic_type3app17hffe4a0d1cfe76c92E+0x10e>
   19da4:	470d                	li	a4,3
   19da6:	a825                	j	19dde <_ZN20complex_dynamic_type3app17hffe4a0d1cfe76c92E+0x144>
   19da8:	6509                	lui	a0,0x2
   19daa:	6a450513          	addi	a0,a0,1700 # 26a4 <.Lline_table_start1+0x2479>
   19dae:	458d                	li	a1,3
   19db0:	4601                	li	a2,0
   19db2:	4681                	li	a3,0
   19db4:	00000073          	ecall
   19db8:	04a14703          	lbu	a4,74(sp)
   19dbc:	4509                	li	a0,2
   19dbe:	00a100a3          	sb	a0,1(sp)
   19dc2:	00a71e63          	bne	a4,a0,19dde <_ZN20complex_dynamic_type3app17hffe4a0d1cfe76c92E+0x144>
   19dc6:	001a8513          	addi	a0,s5,1
   19dca:	02900613          	li	a2,41
   19dce:	85d2                	mv	a1,s4
   19dd0:	00004097          	auipc	ra,0x4
   19dd4:	744080e7          	jalr	1860(ra) # 1e514 <memcpy>
   19dd8:	000a8023          	sb	zero,0(s5)
   19ddc:	b77d                	j	19d8a <_ZN20complex_dynamic_type3app17hffe4a0d1cfe76c92E+0xf0>
   19dde:	6509                	lui	a0,0x2
   19de0:	6a450913          	addi	s2,a0,1700 # 26a4 <.Lline_table_start1+0x2479>
   19de4:	4591                	li	a1,4
   19de6:	854a                	mv	a0,s2
   19de8:	4601                	li	a2,0
   19dea:	4681                	li	a3,0
   19dec:	00000073          	ecall
   19df0:	00114983          	lbu	s3,1(sp)
   19df4:	001a8513          	addi	a0,s5,1
   19df8:	02900613          	li	a2,41
   19dfc:	85d2                	mv	a1,s4
   19dfe:	00004097          	auipc	ra,0x4
   19e02:	716080e7          	jalr	1814(ra) # 1e514 <memcpy>
   19e06:	4509                	li	a0,2
   19e08:	000a8023          	sb	zero,0(s5)
   19e0c:	f6a98fe3          	beq	s3,a0,19d8a <_ZN20complex_dynamic_type3app17hffe4a0d1cfe76c92E+0xf0>
   19e10:	458d                	li	a1,3
   19e12:	854a                	mv	a0,s2
   19e14:	4601                	li	a2,0
   19e16:	4681                	li	a3,0
   19e18:	874e                	mv	a4,s3
   19e1a:	00000073          	ecall
   19e1e:	b7b5                	j	19d8a <_ZN20complex_dynamic_type3app17hffe4a0d1cfe76c92E+0xf0>

00019e20 <_start>:
   19e20:	81010113          	addi	sp,sp,-2032
   19e24:	7e112623          	sw	ra,2028(sp)
   19e28:	7e812423          	sw	s0,2024(sp)
   19e2c:	7e912223          	sw	s1,2020(sp)
   19e30:	7f212023          	sw	s2,2016(sp)
   19e34:	7d312e23          	sw	s3,2012(sp)
   19e38:	7d412c23          	sw	s4,2008(sp)
   19e3c:	7d512a23          	sw	s5,2004(sp)
   19e40:	7d612823          	sw	s6,2000(sp)
   19e44:	7d712623          	sw	s7,1996(sp)
   19e48:	7d812423          	sw	s8,1992(sp)
   19e4c:	7d912223          	sw	s9,1988(sp)
   19e50:	7da12023          	sw	s10,1984(sp)
   19e54:	7bb12e23          	sw	s11,1980(sp)
   19e58:	80010113          	addi	sp,sp,-2048
   19e5c:	b1010113          	addi	sp,sp,-1264
   19e60:	7ff10993          	addi	s3,sp,2047
   19e64:	7a198993          	addi	s3,s3,1953
   19e68:	06110493          	addi	s1,sp,97
   19e6c:	02800613          	li	a2,40
   19e70:	8526                	mv	a0,s1
   19e72:	4581                	li	a1,0
   19e74:	00004097          	auipc	ra,0x4
   19e78:	634080e7          	jalr	1588(ra) # 1e4a8 <memset>
   19e7c:	4409                	li	s0,2
   19e7e:	06810023          	sb	s0,96(sp)
   19e82:	6505                	lui	a0,0x1
   19e84:	38d50513          	addi	a0,a0,909 # 138d <.Lline_table_start1+0x1162>
   19e88:	00a10a33          	add	s4,sp,a0
   19e8c:	05100613          	li	a2,81
   19e90:	8552                	mv	a0,s4
   19e92:	4581                	li	a1,0
   19e94:	00004097          	auipc	ra,0x4
   19e98:	614080e7          	jalr	1556(ra) # 1e4a8 <memset>
   19e9c:	8626                	mv	a2,s1
   19e9e:	3e898623          	sb	s0,1004(s3)
   19ea2:	6789                	lui	a5,0x2
   19ea4:	4491                	li	s1,4
   19ea6:	45a5                	li	a1,9
   19ea8:	0799                	addi	a5,a5,6 # 2006 <.Lline_table_start1+0x1ddb>
   19eaa:	02800693          	li	a3,40
   19eae:	4711                	li	a4,4
   19eb0:	853e                	mv	a0,a5
   19eb2:	00000073          	ecall
   19eb6:	04850e63          	beq	a0,s0,19f12 <_start+0xf2>
   19eba:	853e                	mv	a0,a5
   19ebc:	8652                	mv	a2,s4
   19ebe:	06910023          	sb	s1,96(sp)
   19ec2:	478d                	li	a5,3
   19ec4:	45a5                	li	a1,9
   19ec6:	05100693          	li	a3,81
   19eca:	470d                	li	a4,3
   19ecc:	00000073          	ecall
   19ed0:	00851863          	bne	a0,s0,19ee0 <_start+0xc0>
   19ed4:	3ec9c703          	lbu	a4,1004(s3)
   19ed8:	4509                	li	a0,2
   19eda:	02a71363          	bne	a4,a0,19f00 <_start+0xe0>
   19ede:	a815                	j	19f12 <_start+0xf2>
   19ee0:	4681                	li	a3,0
   19ee2:	3ef98623          	sb	a5,1004(s3)
   19ee6:	6509                	lui	a0,0x2
   19ee8:	45a5                	li	a1,9
   19eea:	4625                	li	a2,9
   19eec:	4709                	li	a4,2
   19eee:	0519                	addi	a0,a0,6 # 2006 <.Lline_table_start1+0x1ddb>
   19ef0:	08000793          	li	a5,128
   19ef4:	00000073          	ecall
   19ef8:	4609                	li	a2,2
   19efa:	06f57c63          	bgeu	a0,a5,19f72 <_start+0x152>
   19efe:	470d                	li	a4,3
   19f00:	6509                	lui	a0,0x2
   19f02:	0519                	addi	a0,a0,6 # 2006 <.Lline_table_start1+0x1ddb>
   19f04:	87ae                	mv	a5,a1
   19f06:	45a5                	li	a1,9
   19f08:	4601                	li	a2,0
   19f0a:	4681                	li	a3,0
   19f0c:	00000073          	ecall
   19f10:	85be                	mv	a1,a5
   19f12:	06014703          	lbu	a4,96(sp)
   19f16:	4509                	li	a0,2
   19f18:	00a70b63          	beq	a4,a0,19f2e <_start+0x10e>
   19f1c:	6509                	lui	a0,0x2
   19f1e:	0519                	addi	a0,a0,6 # 2006 <.Lline_table_start1+0x1ddb>
   19f20:	87ae                	mv	a5,a1
   19f22:	45a5                	li	a1,9
   19f24:	4601                	li	a2,0
   19f26:	4681                	li	a3,0
   19f28:	00000073          	ecall
   19f2c:	85be                	mv	a1,a5
   19f2e:	4505                	li	a0,1
   19f30:	7f010113          	addi	sp,sp,2032
   19f34:	50010113          	addi	sp,sp,1280
   19f38:	7ec12083          	lw	ra,2028(sp)
   19f3c:	7e812403          	lw	s0,2024(sp)
   19f40:	7e412483          	lw	s1,2020(sp)
   19f44:	7e012903          	lw	s2,2016(sp)
   19f48:	7dc12983          	lw	s3,2012(sp)
   19f4c:	7d812a03          	lw	s4,2008(sp)
   19f50:	7d412a83          	lw	s5,2004(sp)
   19f54:	7d012b03          	lw	s6,2000(sp)
   19f58:	7cc12b83          	lw	s7,1996(sp)
   19f5c:	7c812c03          	lw	s8,1992(sp)
   19f60:	7c412c83          	lw	s9,1988(sp)
   19f64:	7c012d03          	lw	s10,1984(sp)
   19f68:	7bc12d83          	lw	s11,1980(sp)
   19f6c:	7f010113          	addi	sp,sp,2032
   19f70:	8082                	ret
   19f72:	06014703          	lbu	a4,96(sp)
   19f76:	00c71463          	bne	a4,a2,19f7e <_start+0x15e>
   19f7a:	470d                	li	a4,3
   19f7c:	a0bd                	j	19fea <_start+0x1ca>
   19f7e:	6509                	lui	a0,0x2
   19f80:	0519                	addi	a0,a0,6 # 2006 <.Lline_table_start1+0x1ddb>
   19f82:	45a5                	li	a1,9
   19f84:	4601                	li	a2,0
   19f86:	4681                	li	a3,0
   19f88:	00000073          	ecall
   19f8c:	3ec9c703          	lbu	a4,1004(s3)
   19f90:	4509                	li	a0,2
   19f92:	06a10023          	sb	a0,96(sp)
   19f96:	04a71a63          	bne	a4,a0,19fea <_start+0x1ca>
   19f9a:	001a4503          	lbu	a0,1(s4)
   19f9e:	000a4583          	lbu	a1,0(s4)
   19fa2:	002a4603          	lbu	a2,2(s4)
   19fa6:	0522                	slli	a0,a0,0x8
   19fa8:	3f09c683          	lbu	a3,1008(s3)
   19fac:	3f19c703          	lbu	a4,1009(s3)
   19fb0:	8d4d                	or	a0,a0,a1
   19fb2:	3f29c583          	lbu	a1,1010(s3)
   19fb6:	3f39c783          	lbu	a5,1011(s3)
   19fba:	0722                	slli	a4,a4,0x8
   19fbc:	8ed9                	or	a3,a3,a4
   19fbe:	05c2                	slli	a1,a1,0x10
   19fc0:	07e2                	slli	a5,a5,0x18
   19fc2:	8ddd                	or	a1,a1,a5
   19fc4:	0aa11023          	sh	a0,160(sp)
   19fc8:	0ac10123          	sb	a2,162(sp)
   19fcc:	00d5e4b3          	or	s1,a1,a3
   19fd0:	6505                	lui	a0,0x1
   19fd2:	39450513          	addi	a0,a0,916 # 1394 <.Lline_table_start1+0x1169>
   19fd6:	00a105b3          	add	a1,sp,a0
   19fda:	0848                	addi	a0,sp,20
   19fdc:	04a00613          	li	a2,74
   19fe0:	00004097          	auipc	ra,0x4
   19fe4:	534080e7          	jalr	1332(ra) # 1e514 <memcpy>
   19fe8:	a8a5                	j	1a060 <_start+0x240>
   19fea:	4601                	li	a2,0
   19fec:	4681                	li	a3,0
   19fee:	6909                	lui	s2,0x2
   19ff0:	0919                	addi	s2,s2,6 # 2006 <.Lline_table_start1+0x1ddb>
   19ff2:	45a5                	li	a1,9
   19ff4:	854a                	mv	a0,s2
   19ff6:	00000073          	ecall
   19ffa:	001a4503          	lbu	a0,1(s4)
   19ffe:	000a4583          	lbu	a1,0(s4)
   1a002:	002a4603          	lbu	a2,2(s4)
   1a006:	0522                	slli	a0,a0,0x8
   1a008:	3f09c683          	lbu	a3,1008(s3)
   1a00c:	3f19c703          	lbu	a4,1009(s3)
   1a010:	8d4d                	or	a0,a0,a1
   1a012:	3f29c583          	lbu	a1,1010(s3)
   1a016:	3f39c783          	lbu	a5,1011(s3)
   1a01a:	0722                	slli	a4,a4,0x8
   1a01c:	8ed9                	or	a3,a3,a4
   1a01e:	06014403          	lbu	s0,96(sp)
   1a022:	05c2                	slli	a1,a1,0x10
   1a024:	07e2                	slli	a5,a5,0x18
   1a026:	8ddd                	or	a1,a1,a5
   1a028:	0aa11023          	sh	a0,160(sp)
   1a02c:	0ac10123          	sb	a2,162(sp)
   1a030:	00d5e4b3          	or	s1,a1,a3
   1a034:	6505                	lui	a0,0x1
   1a036:	39450513          	addi	a0,a0,916 # 1394 <.Lline_table_start1+0x1169>
   1a03a:	00a105b3          	add	a1,sp,a0
   1a03e:	0848                	addi	a0,sp,20
   1a040:	04a00613          	li	a2,74
   1a044:	00004097          	auipc	ra,0x4
   1a048:	4d0080e7          	jalr	1232(ra) # 1e514 <memcpy>
   1a04c:	4509                	li	a0,2
   1a04e:	00a40963          	beq	s0,a0,1a060 <_start+0x240>
   1a052:	45a5                	li	a1,9
   1a054:	854a                	mv	a0,s2
   1a056:	4601                	li	a2,0
   1a058:	4681                	li	a3,0
   1a05a:	8722                	mv	a4,s0
   1a05c:	00000073          	ecall
   1a060:	0a014503          	lbu	a0,160(sp)
   1a064:	0a114583          	lbu	a1,161(sp)
   1a068:	0a214603          	lbu	a2,162(sp)
   1a06c:	6685                	lui	a3,0x1
   1a06e:	38d68693          	addi	a3,a3,909 # 138d <.Lline_table_start1+0x1162>
   1a072:	00d10a33          	add	s4,sp,a3
   1a076:	3ea986a3          	sb	a0,1005(s3)
   1a07a:	3eb98723          	sb	a1,1006(s3)
   1a07e:	3ec987a3          	sb	a2,1007(s3)
   1a082:	6505                	lui	a0,0x1
   1a084:	33050513          	addi	a0,a0,816 # 1330 <.Lline_table_start1+0x1105>
   1a088:	950a                	add	a0,a0,sp
   1a08a:	084c                	addi	a1,sp,20
   1a08c:	04a00613          	li	a2,74
   1a090:	00004097          	auipc	ra,0x4
   1a094:	484080e7          	jalr	1156(ra) # 1e514 <memcpy>
   1a098:	6505                	lui	a0,0x1
   1a09a:	39450513          	addi	a0,a0,916 # 1394 <.Lline_table_start1+0x1169>
   1a09e:	950a                	add	a0,a0,sp
   1a0a0:	6585                	lui	a1,0x1
   1a0a2:	33058593          	addi	a1,a1,816 # 1330 <.Lline_table_start1+0x1105>
   1a0a6:	958a                	add	a1,a1,sp
   1a0a8:	04a00613          	li	a2,74
   1a0ac:	00004097          	auipc	ra,0x4
   1a0b0:	468080e7          	jalr	1128(ra) # 1e514 <memcpy>
   1a0b4:	4409                	li	s0,2
   1a0b6:	0184d513          	srli	a0,s1,0x18
   1a0ba:	0104d593          	srli	a1,s1,0x10
   1a0be:	3ea989a3          	sb	a0,1011(s3)
   1a0c2:	0084d513          	srli	a0,s1,0x8
   1a0c6:	3e898623          	sb	s0,1004(s3)
   1a0ca:	3e998823          	sb	s1,1008(s3)
   1a0ce:	3ea988a3          	sb	a0,1009(s3)
   1a0d2:	3eb98923          	sb	a1,1010(s3)
   1a0d6:	6505                	lui	a0,0x1
   1a0d8:	33150513          	addi	a0,a0,817 # 1331 <.Lline_table_start1+0x1106>
   1a0dc:	00a10933          	add	s2,sp,a0
   1a0e0:	04600613          	li	a2,70
   1a0e4:	854a                	mv	a0,s2
   1a0e6:	4581                	li	a1,0
   1a0e8:	00004097          	auipc	ra,0x4
   1a0ec:	3c0080e7          	jalr	960(ra) # 1e4a8 <memset>
   1a0f0:	8652                	mv	a2,s4
   1a0f2:	38898823          	sb	s0,912(s3)
   1a0f6:	6509                	lui	a0,0x2
   1a0f8:	4491                	li	s1,4
   1a0fa:	459d                	li	a1,7
   1a0fc:	0c450793          	addi	a5,a0,196 # 20c4 <.Lline_table_start1+0x1e99>
   1a100:	05100693          	li	a3,81
   1a104:	4711                	li	a4,4
   1a106:	853e                	mv	a0,a5
   1a108:	00000073          	ecall
   1a10c:	06850063          	beq	a0,s0,1a16c <_start+0x34c>
   1a110:	853e                	mv	a0,a5
   1a112:	4581                	li	a1,0
   1a114:	864a                	mv	a2,s2
   1a116:	3e998623          	sb	s1,1004(s3)
   1a11a:	478d                	li	a5,3
   1a11c:	04600693          	li	a3,70
   1a120:	470d                	li	a4,3
   1a122:	00000073          	ecall
   1a126:	00851863          	bne	a0,s0,1a136 <_start+0x316>
   1a12a:	3909c703          	lbu	a4,912(s3)
   1a12e:	4509                	li	a0,2
   1a130:	02a71463          	bne	a4,a0,1a158 <_start+0x338>
   1a134:	a825                	j	1a16c <_start+0x34c>
   1a136:	4601                	li	a2,0
   1a138:	4681                	li	a3,0
   1a13a:	38f98823          	sb	a5,912(s3)
   1a13e:	6509                	lui	a0,0x2
   1a140:	459d                	li	a1,7
   1a142:	4709                	li	a4,2
   1a144:	0c450513          	addi	a0,a0,196 # 20c4 <.Lline_table_start1+0x1e99>
   1a148:	08000793          	li	a5,128
   1a14c:	00000073          	ecall
   1a150:	4609                	li	a2,2
   1a152:	02f57c63          	bgeu	a0,a5,1a18a <_start+0x36a>
   1a156:	470d                	li	a4,3
   1a158:	6509                	lui	a0,0x2
   1a15a:	0c450513          	addi	a0,a0,196 # 20c4 <.Lline_table_start1+0x1e99>
   1a15e:	87ae                	mv	a5,a1
   1a160:	4581                	li	a1,0
   1a162:	4601                	li	a2,0
   1a164:	4681                	li	a3,0
   1a166:	00000073          	ecall
   1a16a:	85be                	mv	a1,a5
   1a16c:	3ec9c703          	lbu	a4,1004(s3)
   1a170:	4509                	li	a0,2
   1a172:	daa70ee3          	beq	a4,a0,19f2e <_start+0x10e>
   1a176:	6509                	lui	a0,0x2
   1a178:	0c450513          	addi	a0,a0,196 # 20c4 <.Lline_table_start1+0x1e99>
   1a17c:	87ae                	mv	a5,a1
   1a17e:	459d                	li	a1,7
   1a180:	4601                	li	a2,0
   1a182:	4681                	li	a3,0
   1a184:	00000073          	ecall
   1a188:	b355                	j	19f2c <_start+0x10c>
   1a18a:	3ec9c703          	lbu	a4,1004(s3)
   1a18e:	00c71463          	bne	a4,a2,1a196 <_start+0x376>
   1a192:	470d                	li	a4,3
   1a194:	a885                	j	1a204 <_start+0x3e4>
   1a196:	6509                	lui	a0,0x2
   1a198:	0c450513          	addi	a0,a0,196 # 20c4 <.Lline_table_start1+0x1e99>
   1a19c:	459d                	li	a1,7
   1a19e:	4601                	li	a2,0
   1a1a0:	4681                	li	a3,0
   1a1a2:	00000073          	ecall
   1a1a6:	3909c703          	lbu	a4,912(s3)
   1a1aa:	4509                	li	a0,2
   1a1ac:	3ea98623          	sb	a0,1004(s3)
   1a1b0:	04a71a63          	bne	a4,a0,1a204 <_start+0x3e4>
   1a1b4:	00194503          	lbu	a0,1(s2)
   1a1b8:	00094583          	lbu	a1,0(s2)
   1a1bc:	00294603          	lbu	a2,2(s2)
   1a1c0:	0522                	slli	a0,a0,0x8
   1a1c2:	3949c683          	lbu	a3,916(s3)
   1a1c6:	3959c703          	lbu	a4,917(s3)
   1a1ca:	8d4d                	or	a0,a0,a1
   1a1cc:	3969c583          	lbu	a1,918(s3)
   1a1d0:	3979c783          	lbu	a5,919(s3)
   1a1d4:	0722                	slli	a4,a4,0x8
   1a1d6:	8ed9                	or	a3,a3,a4
   1a1d8:	05c2                	slli	a1,a1,0x10
   1a1da:	07e2                	slli	a5,a5,0x18
   1a1dc:	8ddd                	or	a1,a1,a5
   1a1de:	0aa11023          	sh	a0,160(sp)
   1a1e2:	0ac10123          	sb	a2,162(sp)
   1a1e6:	00d5e4b3          	or	s1,a1,a3
   1a1ea:	6505                	lui	a0,0x1
   1a1ec:	33850513          	addi	a0,a0,824 # 1338 <.Lline_table_start1+0x110d>
   1a1f0:	00a105b3          	add	a1,sp,a0
   1a1f4:	1088                	addi	a0,sp,96
   1a1f6:	03f00613          	li	a2,63
   1a1fa:	00004097          	auipc	ra,0x4
   1a1fe:	31a080e7          	jalr	794(ra) # 1e514 <memcpy>
   1a202:	a8ad                	j	1a27c <_start+0x45c>
   1a204:	4581                	li	a1,0
   1a206:	4601                	li	a2,0
   1a208:	4681                	li	a3,0
   1a20a:	6509                	lui	a0,0x2
   1a20c:	0c450a13          	addi	s4,a0,196 # 20c4 <.Lline_table_start1+0x1e99>
   1a210:	8552                	mv	a0,s4
   1a212:	00000073          	ecall
   1a216:	00194503          	lbu	a0,1(s2)
   1a21a:	00094583          	lbu	a1,0(s2)
   1a21e:	00294603          	lbu	a2,2(s2)
   1a222:	0522                	slli	a0,a0,0x8
   1a224:	3949c683          	lbu	a3,916(s3)
   1a228:	3959c703          	lbu	a4,917(s3)
   1a22c:	8d4d                	or	a0,a0,a1
   1a22e:	3969c583          	lbu	a1,918(s3)
   1a232:	3979c783          	lbu	a5,919(s3)
   1a236:	0722                	slli	a4,a4,0x8
   1a238:	8ed9                	or	a3,a3,a4
   1a23a:	05c2                	slli	a1,a1,0x10
   1a23c:	07e2                	slli	a5,a5,0x18
   1a23e:	8ddd                	or	a1,a1,a5
   1a240:	3ec9c403          	lbu	s0,1004(s3)
   1a244:	0aa11023          	sh	a0,160(sp)
   1a248:	0ac10123          	sb	a2,162(sp)
   1a24c:	00d5e4b3          	or	s1,a1,a3
   1a250:	6505                	lui	a0,0x1
   1a252:	33850513          	addi	a0,a0,824 # 1338 <.Lline_table_start1+0x110d>
   1a256:	00a105b3          	add	a1,sp,a0
   1a25a:	1088                	addi	a0,sp,96
   1a25c:	03f00613          	li	a2,63
   1a260:	00004097          	auipc	ra,0x4
   1a264:	2b4080e7          	jalr	692(ra) # 1e514 <memcpy>
   1a268:	4509                	li	a0,2
   1a26a:	00a40963          	beq	s0,a0,1a27c <_start+0x45c>
   1a26e:	459d                	li	a1,7
   1a270:	8552                	mv	a0,s4
   1a272:	4601                	li	a2,0
   1a274:	4681                	li	a3,0
   1a276:	8722                	mv	a4,s0
   1a278:	00000073          	ecall
   1a27c:	0a014503          	lbu	a0,160(sp)
   1a280:	0a114583          	lbu	a1,161(sp)
   1a284:	0a214603          	lbu	a2,162(sp)
   1a288:	6685                	lui	a3,0x1
   1a28a:	38d68693          	addi	a3,a3,909 # 138d <.Lline_table_start1+0x1162>
   1a28e:	00d10a33          	add	s4,sp,a3
   1a292:	3ea986a3          	sb	a0,1005(s3)
   1a296:	3eb98723          	sb	a1,1006(s3)
   1a29a:	3ec987a3          	sb	a2,1007(s3)
   1a29e:	0848                	addi	a0,sp,20
   1a2a0:	108c                	addi	a1,sp,96
   1a2a2:	03f00613          	li	a2,63
   1a2a6:	00004097          	auipc	ra,0x4
   1a2aa:	26e080e7          	jalr	622(ra) # 1e514 <memcpy>
   1a2ae:	6505                	lui	a0,0x1
   1a2b0:	39450513          	addi	a0,a0,916 # 1394 <.Lline_table_start1+0x1169>
   1a2b4:	950a                	add	a0,a0,sp
   1a2b6:	084c                	addi	a1,sp,20
   1a2b8:	03f00613          	li	a2,63
   1a2bc:	00004097          	auipc	ra,0x4
   1a2c0:	258080e7          	jalr	600(ra) # 1e514 <memcpy>
   1a2c4:	4409                	li	s0,2
   1a2c6:	0184d513          	srli	a0,s1,0x18
   1a2ca:	0104d593          	srli	a1,s1,0x10
   1a2ce:	3ea989a3          	sb	a0,1011(s3)
   1a2d2:	0084d513          	srli	a0,s1,0x8
   1a2d6:	3e898623          	sb	s0,1004(s3)
   1a2da:	3e998823          	sb	s1,1008(s3)
   1a2de:	3ea988a3          	sb	a0,1009(s3)
   1a2e2:	3eb98923          	sb	a1,1010(s3)
   1a2e6:	4661                	li	a2,24
   1a2e8:	854a                	mv	a0,s2
   1a2ea:	4581                	li	a1,0
   1a2ec:	00004097          	auipc	ra,0x4
   1a2f0:	1bc080e7          	jalr	444(ra) # 1e4a8 <memset>
   1a2f4:	8652                	mv	a2,s4
   1a2f6:	38898823          	sb	s0,912(s3)
   1a2fa:	6509                	lui	a0,0x2
   1a2fc:	4491                	li	s1,4
   1a2fe:	458d                	li	a1,3
   1a300:	3cf50793          	addi	a5,a0,975 # 23cf <.Lline_table_start1+0x21a4>
   1a304:	04600693          	li	a3,70
   1a308:	4711                	li	a4,4
   1a30a:	853e                	mv	a0,a5
   1a30c:	00000073          	ecall
   1a310:	04850f63          	beq	a0,s0,1a36e <_start+0x54e>
   1a314:	853e                	mv	a0,a5
   1a316:	864a                	mv	a2,s2
   1a318:	3e998623          	sb	s1,1004(s3)
   1a31c:	478d                	li	a5,3
   1a31e:	4589                	li	a1,2
   1a320:	46e1                	li	a3,24
   1a322:	470d                	li	a4,3
   1a324:	00000073          	ecall
   1a328:	00851863          	bne	a0,s0,1a338 <_start+0x518>
   1a32c:	3909c703          	lbu	a4,912(s3)
   1a330:	4509                	li	a0,2
   1a332:	02a71463          	bne	a4,a0,1a35a <_start+0x53a>
   1a336:	a825                	j	1a36e <_start+0x54e>
   1a338:	4681                	li	a3,0
   1a33a:	38f98823          	sb	a5,912(s3)
   1a33e:	6509                	lui	a0,0x2
   1a340:	458d                	li	a1,3
   1a342:	4609                	li	a2,2
   1a344:	4709                	li	a4,2
   1a346:	3cf50513          	addi	a0,a0,975 # 23cf <.Lline_table_start1+0x21a4>
   1a34a:	08000793          	li	a5,128
   1a34e:	00000073          	ecall
   1a352:	4609                	li	a2,2
   1a354:	02f57c63          	bgeu	a0,a5,1a38c <_start+0x56c>
   1a358:	470d                	li	a4,3
   1a35a:	6509                	lui	a0,0x2
   1a35c:	3cf50513          	addi	a0,a0,975 # 23cf <.Lline_table_start1+0x21a4>
   1a360:	87ae                	mv	a5,a1
   1a362:	4589                	li	a1,2
   1a364:	4601                	li	a2,0
   1a366:	4681                	li	a3,0
   1a368:	00000073          	ecall
   1a36c:	85be                	mv	a1,a5
   1a36e:	3ec9c703          	lbu	a4,1004(s3)
   1a372:	4509                	li	a0,2
   1a374:	baa70de3          	beq	a4,a0,19f2e <_start+0x10e>
   1a378:	6509                	lui	a0,0x2
   1a37a:	3cf50513          	addi	a0,a0,975 # 23cf <.Lline_table_start1+0x21a4>
   1a37e:	87ae                	mv	a5,a1
   1a380:	458d                	li	a1,3
   1a382:	4601                	li	a2,0
   1a384:	4681                	li	a3,0
   1a386:	00000073          	ecall
   1a38a:	b64d                	j	19f2c <_start+0x10c>
   1a38c:	3ec9c703          	lbu	a4,1004(s3)
   1a390:	00c71463          	bne	a4,a2,1a398 <_start+0x578>
   1a394:	470d                	li	a4,3
   1a396:	a0dd                	j	1a47c <_start+0x65c>
   1a398:	6509                	lui	a0,0x2
   1a39a:	3cf50513          	addi	a0,a0,975 # 23cf <.Lline_table_start1+0x21a4>
   1a39e:	458d                	li	a1,3
   1a3a0:	4601                	li	a2,0
   1a3a2:	4681                	li	a3,0
   1a3a4:	00000073          	ecall
   1a3a8:	3909c703          	lbu	a4,912(s3)
   1a3ac:	4509                	li	a0,2
   1a3ae:	3ea98623          	sb	a0,1004(s3)
   1a3b2:	0ca71563          	bne	a4,a0,1a47c <_start+0x65c>
   1a3b6:	00094583          	lbu	a1,0(s2)
   1a3ba:	00194603          	lbu	a2,1(s2)
   1a3be:	00294803          	lbu	a6,2(s2)
   1a3c2:	3949c883          	lbu	a7,916(s3)
   1a3c6:	3959c283          	lbu	t0,917(s3)
   1a3ca:	3969c303          	lbu	t1,918(s3)
   1a3ce:	3979c483          	lbu	s1,919(s3)
   1a3d2:	3a89c403          	lbu	s0,936(s3)
   1a3d6:	3989c503          	lbu	a0,920(s3)
   1a3da:	3999c683          	lbu	a3,921(s3)
   1a3de:	39a9c703          	lbu	a4,922(s3)
   1a3e2:	39b9c783          	lbu	a5,923(s3)
   1a3e6:	0622                	slli	a2,a2,0x8
   1a3e8:	0a810823          	sb	s0,176(sp)
   1a3ec:	00b663b3          	or	t2,a2,a1
   1a3f0:	39c9ce03          	lbu	t3,924(s3)
   1a3f4:	39d9c403          	lbu	s0,925(s3)
   1a3f8:	39e9c583          	lbu	a1,926(s3)
   1a3fc:	39f9c603          	lbu	a2,927(s3)
   1a400:	02a2                	slli	t0,t0,0x8
   1a402:	0342                	slli	t1,t1,0x10
   1a404:	04e2                	slli	s1,s1,0x18
   1a406:	06a2                	slli	a3,a3,0x8
   1a408:	0742                	slli	a4,a4,0x10
   1a40a:	07e2                	slli	a5,a5,0x18
   1a40c:	0112e8b3          	or	a7,t0,a7
   1a410:	0064e333          	or	t1,s1,t1
   1a414:	00a6e2b3          	or	t0,a3,a0
   1a418:	00e7eeb3          	or	t4,a5,a4
   1a41c:	3a09c683          	lbu	a3,928(s3)
   1a420:	3a19c783          	lbu	a5,929(s3)
   1a424:	3a29c503          	lbu	a0,930(s3)
   1a428:	3a39c483          	lbu	s1,931(s3)
   1a42c:	0422                	slli	s0,s0,0x8
   1a42e:	05c2                	slli	a1,a1,0x10
   1a430:	0662                	slli	a2,a2,0x18
   1a432:	07a2                	slli	a5,a5,0x8
   1a434:	0542                	slli	a0,a0,0x10
   1a436:	04e2                	slli	s1,s1,0x18
   1a438:	01c46433          	or	s0,s0,t3
   1a43c:	8dd1                	or	a1,a1,a2
   1a43e:	8edd                	or	a3,a3,a5
   1a440:	3a49c603          	lbu	a2,932(s3)
   1a444:	3a59c783          	lbu	a5,933(s3)
   1a448:	8d45                	or	a0,a0,s1
   1a44a:	3a69c483          	lbu	s1,934(s3)
   1a44e:	3a79c703          	lbu	a4,935(s3)
   1a452:	07a2                	slli	a5,a5,0x8
   1a454:	8e5d                	or	a2,a2,a5
   1a456:	04c2                	slli	s1,s1,0x10
   1a458:	0762                	slli	a4,a4,0x18
   1a45a:	8f45                	or	a4,a4,s1
   1a45c:	0a711a23          	sh	t2,180(sp)
   1a460:	0b010b23          	sb	a6,182(sp)
   1a464:	011364b3          	or	s1,t1,a7
   1a468:	005ee7b3          	or	a5,t4,t0
   1a46c:	8dc1                	or	a1,a1,s0
   1a46e:	8d55                	or	a0,a0,a3
   1a470:	8e59                	or	a2,a2,a4
   1a472:	d13e                	sw	a5,160(sp)
   1a474:	d32e                	sw	a1,164(sp)
   1a476:	d52a                	sw	a0,168(sp)
   1a478:	d732                	sw	a2,172(sp)
   1a47a:	a0fd                	j	1a568 <_start+0x748>
   1a47c:	4601                	li	a2,0
   1a47e:	4681                	li	a3,0
   1a480:	6509                	lui	a0,0x2
   1a482:	3cf50813          	addi	a6,a0,975 # 23cf <.Lline_table_start1+0x21a4>
   1a486:	4589                	li	a1,2
   1a488:	8542                	mv	a0,a6
   1a48a:	00000073          	ecall
   1a48e:	00094583          	lbu	a1,0(s2)
   1a492:	00194603          	lbu	a2,1(s2)
   1a496:	00294883          	lbu	a7,2(s2)
   1a49a:	3949c283          	lbu	t0,916(s3)
   1a49e:	3959c303          	lbu	t1,917(s3)
   1a4a2:	3969c383          	lbu	t2,918(s3)
   1a4a6:	3979c403          	lbu	s0,919(s3)
   1a4aa:	3a89c783          	lbu	a5,936(s3)
   1a4ae:	3989c503          	lbu	a0,920(s3)
   1a4b2:	3999c683          	lbu	a3,921(s3)
   1a4b6:	39a9c703          	lbu	a4,922(s3)
   1a4ba:	39b9c483          	lbu	s1,923(s3)
   1a4be:	0622                	slli	a2,a2,0x8
   1a4c0:	0af10823          	sb	a5,176(sp)
   1a4c4:	00b66e33          	or	t3,a2,a1
   1a4c8:	39c9ce83          	lbu	t4,924(s3)
   1a4cc:	39d9c783          	lbu	a5,925(s3)
   1a4d0:	39e9c583          	lbu	a1,926(s3)
   1a4d4:	39f9c603          	lbu	a2,927(s3)
   1a4d8:	0322                	slli	t1,t1,0x8
   1a4da:	03c2                	slli	t2,t2,0x10
   1a4dc:	0462                	slli	s0,s0,0x18
   1a4de:	06a2                	slli	a3,a3,0x8
   1a4e0:	0742                	slli	a4,a4,0x10
   1a4e2:	04e2                	slli	s1,s1,0x18
   1a4e4:	005362b3          	or	t0,t1,t0
   1a4e8:	007463b3          	or	t2,s0,t2
   1a4ec:	00a6e333          	or	t1,a3,a0
   1a4f0:	00e4ef33          	or	t5,s1,a4
   1a4f4:	3a09c683          	lbu	a3,928(s3)
   1a4f8:	3a19c483          	lbu	s1,929(s3)
   1a4fc:	3a29c503          	lbu	a0,930(s3)
   1a500:	3a39c403          	lbu	s0,931(s3)
   1a504:	07a2                	slli	a5,a5,0x8
   1a506:	05c2                	slli	a1,a1,0x10
   1a508:	0662                	slli	a2,a2,0x18
   1a50a:	04a2                	slli	s1,s1,0x8
   1a50c:	0542                	slli	a0,a0,0x10
   1a50e:	0462                	slli	s0,s0,0x18
   1a510:	01d7e7b3          	or	a5,a5,t4
   1a514:	8dd1                	or	a1,a1,a2
   1a516:	8ec5                	or	a3,a3,s1
   1a518:	3a49c603          	lbu	a2,932(s3)
   1a51c:	3a59c483          	lbu	s1,933(s3)
   1a520:	8d41                	or	a0,a0,s0
   1a522:	3a69c403          	lbu	s0,934(s3)
   1a526:	3a79c703          	lbu	a4,935(s3)
   1a52a:	04a2                	slli	s1,s1,0x8
   1a52c:	8e45                	or	a2,a2,s1
   1a52e:	0442                	slli	s0,s0,0x10
   1a530:	0762                	slli	a4,a4,0x18
   1a532:	8f41                	or	a4,a4,s0
   1a534:	0bc11a23          	sh	t3,180(sp)
   1a538:	0b110b23          	sb	a7,182(sp)
   1a53c:	0053e4b3          	or	s1,t2,t0
   1a540:	006f6433          	or	s0,t5,t1
   1a544:	8ddd                	or	a1,a1,a5
   1a546:	8d55                	or	a0,a0,a3
   1a548:	4689                	li	a3,2
   1a54a:	8e59                	or	a2,a2,a4
   1a54c:	3ec9c703          	lbu	a4,1004(s3)
   1a550:	d122                	sw	s0,160(sp)
   1a552:	d32e                	sw	a1,164(sp)
   1a554:	d52a                	sw	a0,168(sp)
   1a556:	d732                	sw	a2,172(sp)
   1a558:	00d70863          	beq	a4,a3,1a568 <_start+0x748>
   1a55c:	458d                	li	a1,3
   1a55e:	8542                	mv	a0,a6
   1a560:	4601                	li	a2,0
   1a562:	4681                	li	a3,0
   1a564:	00000073          	ecall
   1a568:	0b414503          	lbu	a0,180(sp)
   1a56c:	0b514583          	lbu	a1,181(sp)
   1a570:	0b614603          	lbu	a2,182(sp)
   1a574:	568a                	lw	a3,160(sp)
   1a576:	571a                	lw	a4,164(sp)
   1a578:	57aa                	lw	a5,168(sp)
   1a57a:	543a                	lw	s0,172(sp)
   1a57c:	06a100a3          	sb	a0,97(sp)
   1a580:	06b10123          	sb	a1,98(sp)
   1a584:	06c101a3          	sb	a2,99(sp)
   1a588:	0b014503          	lbu	a0,176(sp)
   1a58c:	ca36                	sw	a3,20(sp)
   1a58e:	cc3a                	sw	a4,24(sp)
   1a590:	ce3e                	sw	a5,28(sp)
   1a592:	d022                	sw	s0,32(sp)
   1a594:	06110a93          	addi	s5,sp,97
   1a598:	02a10223          	sb	a0,36(sp)
   1a59c:	10a8                	addi	a0,sp,104
   1a59e:	084c                	addi	a1,sp,20
   1a5a0:	4645                	li	a2,17
   1a5a2:	00004097          	auipc	ra,0x4
   1a5a6:	f72080e7          	jalr	-142(ra) # 1e514 <memcpy>
   1a5aa:	4409                	li	s0,2
   1a5ac:	0184d513          	srli	a0,s1,0x18
   1a5b0:	0104d593          	srli	a1,s1,0x10
   1a5b4:	06a103a3          	sb	a0,103(sp)
   1a5b8:	0084d513          	srli	a0,s1,0x8
   1a5bc:	06810023          	sb	s0,96(sp)
   1a5c0:	06910223          	sb	s1,100(sp)
   1a5c4:	06a102a3          	sb	a0,101(sp)
   1a5c8:	06b10323          	sb	a1,102(sp)
   1a5cc:	03600613          	li	a2,54
   1a5d0:	8552                	mv	a0,s4
   1a5d2:	4581                	li	a1,0
   1a5d4:	00004097          	auipc	ra,0x4
   1a5d8:	ed4080e7          	jalr	-300(ra) # 1e4a8 <memset>
   1a5dc:	4581                	li	a1,0
   1a5de:	8656                	mv	a2,s5
   1a5e0:	3e898623          	sb	s0,1004(s3)
   1a5e4:	4791                	li	a5,4
   1a5e6:	21f00513          	li	a0,543
   1a5ea:	46e1                	li	a3,24
   1a5ec:	4711                	li	a4,4
   1a5ee:	00000073          	ecall
   1a5f2:	04850f63          	beq	a0,s0,1a650 <_start+0x830>
   1a5f6:	8652                	mv	a2,s4
   1a5f8:	06f10023          	sb	a5,96(sp)
   1a5fc:	478d                	li	a5,3
   1a5fe:	21f00513          	li	a0,543
   1a602:	459d                	li	a1,7
   1a604:	03600693          	li	a3,54
   1a608:	470d                	li	a4,3
   1a60a:	00000073          	ecall
   1a60e:	00851863          	bne	a0,s0,1a61e <_start+0x7fe>
   1a612:	3ec9c703          	lbu	a4,1004(s3)
   1a616:	4509                	li	a0,2
   1a618:	02a71363          	bne	a4,a0,1a63e <_start+0x81e>
   1a61c:	a815                	j	1a650 <_start+0x830>
   1a61e:	4581                	li	a1,0
   1a620:	4681                	li	a3,0
   1a622:	3ef98623          	sb	a5,1004(s3)
   1a626:	21f00513          	li	a0,543
   1a62a:	461d                	li	a2,7
   1a62c:	4709                	li	a4,2
   1a62e:	08000793          	li	a5,128
   1a632:	00000073          	ecall
   1a636:	4609                	li	a2,2
   1a638:	02f57a63          	bgeu	a0,a5,1a66c <_start+0x84c>
   1a63c:	470d                	li	a4,3
   1a63e:	21f00513          	li	a0,543
   1a642:	87ae                	mv	a5,a1
   1a644:	459d                	li	a1,7
   1a646:	4601                	li	a2,0
   1a648:	4681                	li	a3,0
   1a64a:	00000073          	ecall
   1a64e:	85be                	mv	a1,a5
   1a650:	06014703          	lbu	a4,96(sp)
   1a654:	4509                	li	a0,2
   1a656:	8ca70ce3          	beq	a4,a0,19f2e <_start+0x10e>
   1a65a:	21f00513          	li	a0,543
   1a65e:	87ae                	mv	a5,a1
   1a660:	4581                	li	a1,0
   1a662:	4601                	li	a2,0
   1a664:	4681                	li	a3,0
   1a666:	00000073          	ecall
   1a66a:	b0c9                	j	19f2c <_start+0x10c>
   1a66c:	06014703          	lbu	a4,96(sp)
   1a670:	00c71463          	bne	a4,a2,1a678 <_start+0x858>
   1a674:	470d                	li	a4,3
   1a676:	a0bd                	j	1a6e4 <_start+0x8c4>
   1a678:	21f00513          	li	a0,543
   1a67c:	4581                	li	a1,0
   1a67e:	4601                	li	a2,0
   1a680:	4681                	li	a3,0
   1a682:	00000073          	ecall
   1a686:	3ec9c703          	lbu	a4,1004(s3)
   1a68a:	4509                	li	a0,2
   1a68c:	06a10023          	sb	a0,96(sp)
   1a690:	04a71a63          	bne	a4,a0,1a6e4 <_start+0x8c4>
   1a694:	001a4503          	lbu	a0,1(s4)
   1a698:	000a4583          	lbu	a1,0(s4)
   1a69c:	002a4603          	lbu	a2,2(s4)
   1a6a0:	0522                	slli	a0,a0,0x8
   1a6a2:	3f09c683          	lbu	a3,1008(s3)
   1a6a6:	3f19c703          	lbu	a4,1009(s3)
   1a6aa:	8d4d                	or	a0,a0,a1
   1a6ac:	3f29c583          	lbu	a1,1010(s3)
   1a6b0:	3f39c783          	lbu	a5,1011(s3)
   1a6b4:	0722                	slli	a4,a4,0x8
   1a6b6:	8ed9                	or	a3,a3,a4
   1a6b8:	05c2                	slli	a1,a1,0x10
   1a6ba:	07e2                	slli	a5,a5,0x18
   1a6bc:	8ddd                	or	a1,a1,a5
   1a6be:	0aa11023          	sh	a0,160(sp)
   1a6c2:	0ac10123          	sb	a2,162(sp)
   1a6c6:	00d5e433          	or	s0,a1,a3
   1a6ca:	6505                	lui	a0,0x1
   1a6cc:	39450513          	addi	a0,a0,916 # 1394 <.Lline_table_start1+0x1169>
   1a6d0:	00a105b3          	add	a1,sp,a0
   1a6d4:	0848                	addi	a0,sp,20
   1a6d6:	02f00613          	li	a2,47
   1a6da:	00004097          	auipc	ra,0x4
   1a6de:	e3a080e7          	jalr	-454(ra) # 1e514 <memcpy>
   1a6e2:	a8a5                	j	1a75a <_start+0x93a>
   1a6e4:	4601                	li	a2,0
   1a6e6:	4681                	li	a3,0
   1a6e8:	21f00513          	li	a0,543
   1a6ec:	459d                	li	a1,7
   1a6ee:	00000073          	ecall
   1a6f2:	001a4503          	lbu	a0,1(s4)
   1a6f6:	000a4583          	lbu	a1,0(s4)
   1a6fa:	002a4603          	lbu	a2,2(s4)
   1a6fe:	0522                	slli	a0,a0,0x8
   1a700:	3f09c683          	lbu	a3,1008(s3)
   1a704:	3f19c703          	lbu	a4,1009(s3)
   1a708:	8d4d                	or	a0,a0,a1
   1a70a:	3f29c583          	lbu	a1,1010(s3)
   1a70e:	3f39c783          	lbu	a5,1011(s3)
   1a712:	0722                	slli	a4,a4,0x8
   1a714:	8ed9                	or	a3,a3,a4
   1a716:	06014483          	lbu	s1,96(sp)
   1a71a:	05c2                	slli	a1,a1,0x10
   1a71c:	07e2                	slli	a5,a5,0x18
   1a71e:	8ddd                	or	a1,a1,a5
   1a720:	0aa11023          	sh	a0,160(sp)
   1a724:	0ac10123          	sb	a2,162(sp)
   1a728:	00d5e433          	or	s0,a1,a3
   1a72c:	6505                	lui	a0,0x1
   1a72e:	39450513          	addi	a0,a0,916 # 1394 <.Lline_table_start1+0x1169>
   1a732:	00a105b3          	add	a1,sp,a0
   1a736:	0848                	addi	a0,sp,20
   1a738:	02f00613          	li	a2,47
   1a73c:	00004097          	auipc	ra,0x4
   1a740:	dd8080e7          	jalr	-552(ra) # 1e514 <memcpy>
   1a744:	4509                	li	a0,2
   1a746:	00a48a63          	beq	s1,a0,1a75a <_start+0x93a>
   1a74a:	21f00513          	li	a0,543
   1a74e:	4581                	li	a1,0
   1a750:	4601                	li	a2,0
   1a752:	4681                	li	a3,0
   1a754:	8726                	mv	a4,s1
   1a756:	00000073          	ecall
   1a75a:	0a014503          	lbu	a0,160(sp)
   1a75e:	0a114583          	lbu	a1,161(sp)
   1a762:	0a214603          	lbu	a2,162(sp)
   1a766:	6685                	lui	a3,0x1
   1a768:	38d68693          	addi	a3,a3,909 # 138d <.Lline_table_start1+0x1162>
   1a76c:	00d10a33          	add	s4,sp,a3
   1a770:	3ea986a3          	sb	a0,1005(s3)
   1a774:	3eb98723          	sb	a1,1006(s3)
   1a778:	3ec987a3          	sb	a2,1007(s3)
   1a77c:	6505                	lui	a0,0x1
   1a77e:	33050513          	addi	a0,a0,816 # 1330 <.Lline_table_start1+0x1105>
   1a782:	950a                	add	a0,a0,sp
   1a784:	084c                	addi	a1,sp,20
   1a786:	02f00613          	li	a2,47
   1a78a:	00004097          	auipc	ra,0x4
   1a78e:	d8a080e7          	jalr	-630(ra) # 1e514 <memcpy>
   1a792:	6505                	lui	a0,0x1
   1a794:	39450513          	addi	a0,a0,916 # 1394 <.Lline_table_start1+0x1169>
   1a798:	950a                	add	a0,a0,sp
   1a79a:	6585                	lui	a1,0x1
   1a79c:	33058593          	addi	a1,a1,816 # 1330 <.Lline_table_start1+0x1105>
   1a7a0:	958a                	add	a1,a1,sp
   1a7a2:	02f00613          	li	a2,47
   1a7a6:	00004097          	auipc	ra,0x4
   1a7aa:	d6e080e7          	jalr	-658(ra) # 1e514 <memcpy>
   1a7ae:	4489                	li	s1,2
   1a7b0:	01845513          	srli	a0,s0,0x18
   1a7b4:	01045593          	srli	a1,s0,0x10
   1a7b8:	3ea989a3          	sb	a0,1011(s3)
   1a7bc:	00845513          	srli	a0,s0,0x8
   1a7c0:	3e998623          	sb	s1,1004(s3)
   1a7c4:	3e898823          	sb	s0,1008(s3)
   1a7c8:	3ea988a3          	sb	a0,1009(s3)
   1a7cc:	3eb98923          	sb	a1,1010(s3)
   1a7d0:	02500613          	li	a2,37
   1a7d4:	854a                	mv	a0,s2
   1a7d6:	4581                	li	a1,0
   1a7d8:	00004097          	auipc	ra,0x4
   1a7dc:	cd0080e7          	jalr	-816(ra) # 1e4a8 <memset>
   1a7e0:	8652                	mv	a2,s4
   1a7e2:	38998823          	sb	s1,912(s3)
   1a7e6:	6505                	lui	a0,0x1
   1a7e8:	4411                	li	s0,4
   1a7ea:	459d                	li	a1,7
   1a7ec:	59750793          	addi	a5,a0,1431 # 1597 <.Lline_table_start1+0x136c>
   1a7f0:	03600693          	li	a3,54
   1a7f4:	4711                	li	a4,4
   1a7f6:	853e                	mv	a0,a5
   1a7f8:	00000073          	ecall
   1a7fc:	06950063          	beq	a0,s1,1a85c <_start+0xa3c>
   1a800:	853e                	mv	a0,a5
   1a802:	4581                	li	a1,0
   1a804:	864a                	mv	a2,s2
   1a806:	3e898623          	sb	s0,1004(s3)
   1a80a:	478d                	li	a5,3
   1a80c:	02500693          	li	a3,37
   1a810:	470d                	li	a4,3
   1a812:	00000073          	ecall
   1a816:	00951863          	bne	a0,s1,1a826 <_start+0xa06>
   1a81a:	3909c703          	lbu	a4,912(s3)
   1a81e:	4509                	li	a0,2
   1a820:	02a71463          	bne	a4,a0,1a848 <_start+0xa28>
   1a824:	a825                	j	1a85c <_start+0xa3c>
   1a826:	4601                	li	a2,0
   1a828:	4681                	li	a3,0
   1a82a:	38f98823          	sb	a5,912(s3)
   1a82e:	6505                	lui	a0,0x1
   1a830:	459d                	li	a1,7
   1a832:	4709                	li	a4,2
   1a834:	59750513          	addi	a0,a0,1431 # 1597 <.Lline_table_start1+0x136c>
   1a838:	08000793          	li	a5,128
   1a83c:	00000073          	ecall
   1a840:	4609                	li	a2,2
   1a842:	02f57d63          	bgeu	a0,a5,1a87c <_start+0xa5c>
   1a846:	470d                	li	a4,3
   1a848:	6505                	lui	a0,0x1
   1a84a:	59750513          	addi	a0,a0,1431 # 1597 <.Lline_table_start1+0x136c>
   1a84e:	87ae                	mv	a5,a1
   1a850:	4581                	li	a1,0
   1a852:	4601                	li	a2,0
   1a854:	4681                	li	a3,0
   1a856:	00000073          	ecall
   1a85a:	85be                	mv	a1,a5
   1a85c:	3ec9c703          	lbu	a4,1004(s3)
   1a860:	4509                	li	a0,2
   1a862:	eca70663          	beq	a4,a0,19f2e <_start+0x10e>
   1a866:	6505                	lui	a0,0x1
   1a868:	59750513          	addi	a0,a0,1431 # 1597 <.Lline_table_start1+0x136c>
   1a86c:	87ae                	mv	a5,a1
   1a86e:	459d                	li	a1,7
   1a870:	4601                	li	a2,0
   1a872:	4681                	li	a3,0
   1a874:	00000073          	ecall
   1a878:	eb4ff06f          	j	19f2c <_start+0x10c>
   1a87c:	3ec9c703          	lbu	a4,1004(s3)
   1a880:	00c71463          	bne	a4,a2,1a888 <_start+0xa68>
   1a884:	470d                	li	a4,3
   1a886:	aa8d                	j	1a9f8 <_start+0xbd8>
   1a888:	6505                	lui	a0,0x1
   1a88a:	59750513          	addi	a0,a0,1431 # 1597 <.Lline_table_start1+0x136c>
   1a88e:	459d                	li	a1,7
   1a890:	4601                	li	a2,0
   1a892:	4681                	li	a3,0
   1a894:	00000073          	ecall
   1a898:	3909c703          	lbu	a4,912(s3)
   1a89c:	4509                	li	a0,2
   1a89e:	3ea98623          	sb	a0,1004(s3)
   1a8a2:	14a71b63          	bne	a4,a0,1a9f8 <_start+0xbd8>
   1a8a6:	00094883          	lbu	a7,0(s2)
   1a8aa:	00194303          	lbu	t1,1(s2)
   1a8ae:	00294503          	lbu	a0,2(s2)
   1a8b2:	c82a                	sw	a0,16(sp)
   1a8b4:	3949c383          	lbu	t2,916(s3)
   1a8b8:	3959cf83          	lbu	t6,917(s3)
   1a8bc:	3969c783          	lbu	a5,918(s3)
   1a8c0:	3979c483          	lbu	s1,919(s3)
   1a8c4:	3b49c403          	lbu	s0,948(s3)
   1a8c8:	3b59c503          	lbu	a0,949(s3)
   1a8cc:	3989c283          	lbu	t0,920(s3)
   1a8d0:	3999ce03          	lbu	t3,921(s3)
   1a8d4:	39a9ce83          	lbu	t4,922(s3)
   1a8d8:	39b9cf03          	lbu	t5,923(s3)
   1a8dc:	39c9cb83          	lbu	s7,924(s3)
   1a8e0:	39d9c583          	lbu	a1,925(s3)
   1a8e4:	39e9c603          	lbu	a2,926(s3)
   1a8e8:	39f9c683          	lbu	a3,927(s3)
   1a8ec:	3a09ca03          	lbu	s4,928(s3)
   1a8f0:	3a19ca83          	lbu	s5,929(s3)
   1a8f4:	3a29cb03          	lbu	s6,930(s3)
   1a8f8:	3a39cc03          	lbu	s8,931(s3)
   1a8fc:	0322                	slli	t1,t1,0x8
   1a8fe:	008f9713          	slli	a4,t6,0x8
   1a902:	07c2                	slli	a5,a5,0x10
   1a904:	04e2                	slli	s1,s1,0x18
   1a906:	0522                	slli	a0,a0,0x8
   1a908:	01136fb3          	or	t6,t1,a7
   1a90c:	00776333          	or	t1,a4,t2
   1a910:	00f4e3b3          	or	t2,s1,a5
   1a914:	008568b3          	or	a7,a0,s0
   1a918:	3a49c703          	lbu	a4,932(s3)
   1a91c:	3a59c403          	lbu	s0,933(s3)
   1a920:	3a69c783          	lbu	a5,934(s3)
   1a924:	3a79c483          	lbu	s1,935(s3)
   1a928:	0e22                	slli	t3,t3,0x8
   1a92a:	0ec2                	slli	t4,t4,0x10
   1a92c:	0f62                	slli	t5,t5,0x18
   1a92e:	05a2                	slli	a1,a1,0x8
   1a930:	0642                	slli	a2,a2,0x10
   1a932:	01869513          	slli	a0,a3,0x18
   1a936:	005e62b3          	or	t0,t3,t0
   1a93a:	01df6e33          	or	t3,t5,t4
   1a93e:	0175eeb3          	or	t4,a1,s7
   1a942:	00c56f33          	or	t5,a0,a2
   1a946:	3a89c583          	lbu	a1,936(s3)
   1a94a:	3a99c603          	lbu	a2,937(s3)
   1a94e:	3aa9c683          	lbu	a3,938(s3)
   1a952:	3ab9c503          	lbu	a0,939(s3)
   1a956:	0aa2                	slli	s5,s5,0x8
   1a958:	0b42                	slli	s6,s6,0x10
   1a95a:	0c62                	slli	s8,s8,0x18
   1a95c:	0422                	slli	s0,s0,0x8
   1a95e:	07c2                	slli	a5,a5,0x10
   1a960:	04e2                	slli	s1,s1,0x18
   1a962:	014aea33          	or	s4,s5,s4
   1a966:	016c6833          	or	a6,s8,s6
   1a96a:	00e46b33          	or	s6,s0,a4
   1a96e:	00f4ebb3          	or	s7,s1,a5
   1a972:	3ac9c403          	lbu	s0,940(s3)
   1a976:	3ad9c483          	lbu	s1,941(s3)
   1a97a:	3ae9c703          	lbu	a4,942(s3)
   1a97e:	3af9c783          	lbu	a5,943(s3)
   1a982:	0622                	slli	a2,a2,0x8
   1a984:	06c2                	slli	a3,a3,0x10
   1a986:	0562                	slli	a0,a0,0x18
   1a988:	04a2                	slli	s1,s1,0x8
   1a98a:	0742                	slli	a4,a4,0x10
   1a98c:	07e2                	slli	a5,a5,0x18
   1a98e:	00b66c33          	or	s8,a2,a1
   1a992:	00d56cb3          	or	s9,a0,a3
   1a996:	0084ed33          	or	s10,s1,s0
   1a99a:	3b09c603          	lbu	a2,944(s3)
   1a99e:	3b19c683          	lbu	a3,945(s3)
   1a9a2:	00e7edb3          	or	s11,a5,a4
   1a9a6:	3b29c783          	lbu	a5,946(s3)
   1a9aa:	3b39c403          	lbu	s0,947(s3)
   1a9ae:	06a2                	slli	a3,a3,0x8
   1a9b0:	00c6e0b3          	or	ra,a3,a2
   1a9b4:	07c2                	slli	a5,a5,0x10
   1a9b6:	0462                	slli	s0,s0,0x18
   1a9b8:	8fc1                	or	a5,a5,s0
   1a9ba:	0bf11023          	sh	t6,160(sp)
   1a9be:	4542                	lw	a0,16(sp)
   1a9c0:	0aa10123          	sb	a0,162(sp)
   1a9c4:	0063eab3          	or	s5,t2,t1
   1a9c8:	005e66b3          	or	a3,t3,t0
   1a9cc:	01df65b3          	or	a1,t5,t4
   1a9d0:	01486533          	or	a0,a6,s4
   1a9d4:	016be4b3          	or	s1,s7,s6
   1a9d8:	018ce733          	or	a4,s9,s8
   1a9dc:	01ade633          	or	a2,s11,s10
   1a9e0:	0017e7b3          	or	a5,a5,ra
   1a9e4:	d8ba                	sw	a4,112(sp)
   1a9e6:	dab2                	sw	a2,116(sp)
   1a9e8:	dcbe                	sw	a5,120(sp)
   1a9ea:	07111e23          	sh	a7,124(sp)
   1a9ee:	d0b6                	sw	a3,96(sp)
   1a9f0:	d2ae                	sw	a1,100(sp)
   1a9f2:	d4aa                	sw	a0,104(sp)
   1a9f4:	d6a6                	sw	s1,108(sp)
   1a9f6:	aa8d                	j	1ab68 <_start+0xd48>
   1a9f8:	4581                	li	a1,0
   1a9fa:	4601                	li	a2,0
   1a9fc:	4681                	li	a3,0
   1a9fe:	6505                	lui	a0,0x1
   1aa00:	59750813          	addi	a6,a0,1431 # 1597 <.Lline_table_start1+0x136c>
   1aa04:	8542                	mv	a0,a6
   1aa06:	00000073          	ecall
   1aa0a:	3b49c283          	lbu	t0,948(s3)
   1aa0e:	3b59cf83          	lbu	t6,949(s3)
   1aa12:	3ec9c703          	lbu	a4,1004(s3)
   1aa16:	00094a03          	lbu	s4,0(s2)
   1aa1a:	00194783          	lbu	a5,1(s2)
   1aa1e:	00294883          	lbu	a7,2(s2)
   1aa22:	3949ca83          	lbu	s5,916(s3)
   1aa26:	3959c403          	lbu	s0,917(s3)
   1aa2a:	3969c503          	lbu	a0,918(s3)
   1aa2e:	3979c583          	lbu	a1,919(s3)
   1aa32:	3989c303          	lbu	t1,920(s3)
   1aa36:	3999c383          	lbu	t2,921(s3)
   1aa3a:	39a9ce03          	lbu	t3,922(s3)
   1aa3e:	39b9ce83          	lbu	t4,923(s3)
   1aa42:	39c9cf03          	lbu	t5,924(s3)
   1aa46:	39d9cd03          	lbu	s10,925(s3)
   1aa4a:	39e9c683          	lbu	a3,926(s3)
   1aa4e:	39f9c483          	lbu	s1,927(s3)
   1aa52:	3a09cb03          	lbu	s6,928(s3)
   1aa56:	3a19cb83          	lbu	s7,929(s3)
   1aa5a:	3a29cc03          	lbu	s8,930(s3)
   1aa5e:	3a39cc83          	lbu	s9,931(s3)
   1aa62:	07a2                	slli	a5,a5,0x8
   1aa64:	0422                	slli	s0,s0,0x8
   1aa66:	0542                	slli	a0,a0,0x10
   1aa68:	05e2                	slli	a1,a1,0x18
   1aa6a:	008f9613          	slli	a2,t6,0x8
   1aa6e:	0147ea33          	or	s4,a5,s4
   1aa72:	01546fb3          	or	t6,s0,s5
   1aa76:	00a5eab3          	or	s5,a1,a0
   1aa7a:	005662b3          	or	t0,a2,t0
   1aa7e:	3a49cd83          	lbu	s11,932(s3)
   1aa82:	3a59c403          	lbu	s0,933(s3)
   1aa86:	3a69c503          	lbu	a0,934(s3)
   1aa8a:	3a79c783          	lbu	a5,935(s3)
   1aa8e:	03a2                	slli	t2,t2,0x8
   1aa90:	0e42                	slli	t3,t3,0x10
   1aa92:	0ee2                	slli	t4,t4,0x18
   1aa94:	0d22                	slli	s10,s10,0x8
   1aa96:	06c2                	slli	a3,a3,0x10
   1aa98:	01849593          	slli	a1,s1,0x18
   1aa9c:	0063e333          	or	t1,t2,t1
   1aaa0:	01ceee33          	or	t3,t4,t3
   1aaa4:	01ed63b3          	or	t2,s10,t5
   1aaa8:	00d5eeb3          	or	t4,a1,a3
   1aaac:	3a89cd03          	lbu	s10,936(s3)
   1aab0:	3a99c483          	lbu	s1,937(s3)
   1aab4:	3aa9c583          	lbu	a1,938(s3)
   1aab8:	3ab9c603          	lbu	a2,939(s3)
   1aabc:	0ba2                	slli	s7,s7,0x8
   1aabe:	0c42                	slli	s8,s8,0x10
   1aac0:	0ce2                	slli	s9,s9,0x18
   1aac2:	0422                	slli	s0,s0,0x8
   1aac4:	0542                	slli	a0,a0,0x10
   1aac6:	07e2                	slli	a5,a5,0x18
   1aac8:	016bef33          	or	t5,s7,s6
   1aacc:	018ceb33          	or	s6,s9,s8
   1aad0:	01b46bb3          	or	s7,s0,s11
   1aad4:	00a7ec33          	or	s8,a5,a0
   1aad8:	3ac9c783          	lbu	a5,940(s3)
   1aadc:	3ad9c403          	lbu	s0,941(s3)
   1aae0:	3ae9c503          	lbu	a0,942(s3)
   1aae4:	3af9c683          	lbu	a3,943(s3)
   1aae8:	04a2                	slli	s1,s1,0x8
   1aaea:	05c2                	slli	a1,a1,0x10
   1aaec:	0662                	slli	a2,a2,0x18
   1aaee:	0422                	slli	s0,s0,0x8
   1aaf0:	0542                	slli	a0,a0,0x10
   1aaf2:	06e2                	slli	a3,a3,0x18
   1aaf4:	01a4ecb3          	or	s9,s1,s10
   1aaf8:	00b66d33          	or	s10,a2,a1
   1aafc:	00f46db3          	or	s11,s0,a5
   1ab00:	3b09c603          	lbu	a2,944(s3)
   1ab04:	3b19c403          	lbu	s0,945(s3)
   1ab08:	00a6e0b3          	or	ra,a3,a0
   1ab0c:	3b29c683          	lbu	a3,946(s3)
   1ab10:	3b39c483          	lbu	s1,947(s3)
   1ab14:	0422                	slli	s0,s0,0x8
   1ab16:	8e41                	or	a2,a2,s0
   1ab18:	06c2                	slli	a3,a3,0x10
   1ab1a:	04e2                	slli	s1,s1,0x18
   1ab1c:	8ec5                	or	a3,a3,s1
   1ab1e:	0b411023          	sh	s4,160(sp)
   1ab22:	0b110123          	sb	a7,162(sp)
   1ab26:	01faeab3          	or	s5,s5,t6
   1ab2a:	006e64b3          	or	s1,t3,t1
   1ab2e:	007ee5b3          	or	a1,t4,t2
   1ab32:	01eb67b3          	or	a5,s6,t5
   1ab36:	017c68b3          	or	a7,s8,s7
   1ab3a:	019d6433          	or	s0,s10,s9
   1ab3e:	01b0e533          	or	a0,ra,s11
   1ab42:	8e55                	or	a2,a2,a3
   1ab44:	d8a2                	sw	s0,112(sp)
   1ab46:	daaa                	sw	a0,116(sp)
   1ab48:	dcb2                	sw	a2,120(sp)
   1ab4a:	06511e23          	sh	t0,124(sp)
   1ab4e:	4509                	li	a0,2
   1ab50:	d0a6                	sw	s1,96(sp)
   1ab52:	d2ae                	sw	a1,100(sp)
   1ab54:	d4be                	sw	a5,104(sp)
   1ab56:	d6c6                	sw	a7,108(sp)
   1ab58:	00a70863          	beq	a4,a0,1ab68 <_start+0xd48>
   1ab5c:	459d                	li	a1,7
   1ab5e:	8542                	mv	a0,a6
   1ab60:	4601                	li	a2,0
   1ab62:	4681                	li	a3,0
   1ab64:	00000073          	ecall
   1ab68:	0a014503          	lbu	a0,160(sp)
   1ab6c:	0a114583          	lbu	a1,161(sp)
   1ab70:	0a214603          	lbu	a2,162(sp)
   1ab74:	6685                	lui	a3,0x1
   1ab76:	38d68693          	addi	a3,a3,909 # 138d <.Lline_table_start1+0x1162>
   1ab7a:	00d10a33          	add	s4,sp,a3
   1ab7e:	3ea986a3          	sb	a0,1005(s3)
   1ab82:	3eb98723          	sb	a1,1006(s3)
   1ab86:	3ec987a3          	sb	a2,1007(s3)
   1ab8a:	5506                	lw	a0,96(sp)
   1ab8c:	5596                	lw	a1,100(sp)
   1ab8e:	5626                	lw	a2,104(sp)
   1ab90:	56b6                	lw	a3,108(sp)
   1ab92:	ca2a                	sw	a0,20(sp)
   1ab94:	cc2e                	sw	a1,24(sp)
   1ab96:	ce32                	sw	a2,28(sp)
   1ab98:	d036                	sw	a3,32(sp)
   1ab9a:	5546                	lw	a0,112(sp)
   1ab9c:	55d6                	lw	a1,116(sp)
   1ab9e:	5666                	lw	a2,120(sp)
   1aba0:	07c11683          	lh	a3,124(sp)
   1aba4:	d22a                	sw	a0,36(sp)
   1aba6:	d42e                	sw	a1,40(sp)
   1aba8:	d632                	sw	a2,44(sp)
   1abaa:	02d11823          	sh	a3,48(sp)
   1abae:	6505                	lui	a0,0x1
   1abb0:	39450513          	addi	a0,a0,916 # 1394 <.Lline_table_start1+0x1169>
   1abb4:	950a                	add	a0,a0,sp
   1abb6:	084c                	addi	a1,sp,20
   1abb8:	4679                	li	a2,30
   1abba:	00004097          	auipc	ra,0x4
   1abbe:	95a080e7          	jalr	-1702(ra) # 1e514 <memcpy>
   1abc2:	4489                	li	s1,2
   1abc4:	018ad513          	srli	a0,s5,0x18
   1abc8:	010ad593          	srli	a1,s5,0x10
   1abcc:	3ea989a3          	sb	a0,1011(s3)
   1abd0:	008ad513          	srli	a0,s5,0x8
   1abd4:	3e998623          	sb	s1,1004(s3)
   1abd8:	3f598823          	sb	s5,1008(s3)
   1abdc:	3ea988a3          	sb	a0,1009(s3)
   1abe0:	3eb98923          	sb	a1,1010(s3)
   1abe4:	4639                	li	a2,14
   1abe6:	854a                	mv	a0,s2
   1abe8:	4581                	li	a1,0
   1abea:	00004097          	auipc	ra,0x4
   1abee:	8be080e7          	jalr	-1858(ra) # 1e4a8 <memset>
   1abf2:	8652                	mv	a2,s4
   1abf4:	38998823          	sb	s1,912(s3)
   1abf8:	4411                	li	s0,4
   1abfa:	66700513          	li	a0,1639
   1abfe:	4589                	li	a1,2
   1ac00:	02500693          	li	a3,37
   1ac04:	4711                	li	a4,4
   1ac06:	00000073          	ecall
   1ac0a:	00951463          	bne	a0,s1,1ac12 <_start+0xdf2>
   1ac0e:	87ae                	mv	a5,a1
   1ac10:	a8a9                	j	1ac6a <_start+0xe4a>
   1ac12:	864a                	mv	a2,s2
   1ac14:	3e898623          	sb	s0,1004(s3)
   1ac18:	440d                	li	s0,3
   1ac1a:	66700513          	li	a0,1639
   1ac1e:	45a1                	li	a1,8
   1ac20:	46b9                	li	a3,14
   1ac22:	470d                	li	a4,3
   1ac24:	00000073          	ecall
   1ac28:	00951963          	bne	a0,s1,1ac3a <_start+0xe1a>
   1ac2c:	87ae                	mv	a5,a1
   1ac2e:	3909c703          	lbu	a4,912(s3)
   1ac32:	4509                	li	a0,2
   1ac34:	02a71463          	bne	a4,a0,1ac5c <_start+0xe3c>
   1ac38:	a80d                	j	1ac6a <_start+0xe4a>
   1ac3a:	4681                	li	a3,0
   1ac3c:	38898823          	sb	s0,912(s3)
   1ac40:	66700513          	li	a0,1639
   1ac44:	4589                	li	a1,2
   1ac46:	4621                	li	a2,8
   1ac48:	4709                	li	a4,2
   1ac4a:	08000493          	li	s1,128
   1ac4e:	00000073          	ecall
   1ac52:	87ae                	mv	a5,a1
   1ac54:	4589                	li	a1,2
   1ac56:	02957a63          	bgeu	a0,s1,1ac8a <_start+0xe6a>
   1ac5a:	470d                	li	a4,3
   1ac5c:	66700513          	li	a0,1639
   1ac60:	45a1                	li	a1,8
   1ac62:	4601                	li	a2,0
   1ac64:	4681                	li	a3,0
   1ac66:	00000073          	ecall
   1ac6a:	3ec9c703          	lbu	a4,1004(s3)
   1ac6e:	4509                	li	a0,2
   1ac70:	00a70963          	beq	a4,a0,1ac82 <_start+0xe62>
   1ac74:	66700513          	li	a0,1639
   1ac78:	4589                	li	a1,2
   1ac7a:	4601                	li	a2,0
   1ac7c:	4681                	li	a3,0
   1ac7e:	00000073          	ecall
   1ac82:	4505                	li	a0,1
   1ac84:	85be                	mv	a1,a5
   1ac86:	aaaff06f          	j	19f30 <_start+0x110>
   1ac8a:	3ec9c703          	lbu	a4,1004(s3)
   1ac8e:	00b71463          	bne	a4,a1,1ac96 <_start+0xe76>
   1ac92:	470d                	li	a4,3
   1ac94:	a069                	j	1ad1e <_start+0xefe>
   1ac96:	66700513          	li	a0,1639
   1ac9a:	4589                	li	a1,2
   1ac9c:	4601                	li	a2,0
   1ac9e:	4681                	li	a3,0
   1aca0:	00000073          	ecall
   1aca4:	3909c703          	lbu	a4,912(s3)
   1aca8:	4509                	li	a0,2
   1acaa:	3ea98623          	sb	a0,1004(s3)
   1acae:	06a71863          	bne	a4,a0,1ad1e <_start+0xefe>
   1acb2:	00094503          	lbu	a0,0(s2)
   1acb6:	00194583          	lbu	a1,1(s2)
   1acba:	00294803          	lbu	a6,2(s2)
   1acbe:	3949c683          	lbu	a3,916(s3)
   1acc2:	3959c703          	lbu	a4,917(s3)
   1acc6:	3969c783          	lbu	a5,918(s3)
   1acca:	3979c483          	lbu	s1,919(s3)
   1acce:	39c9c403          	lbu	s0,924(s3)
   1acd2:	39d9c603          	lbu	a2,925(s3)
   1acd6:	39e9c883          	lbu	a7,926(s3)
   1acda:	05a2                	slli	a1,a1,0x8
   1acdc:	0722                	slli	a4,a4,0x8
   1acde:	07c2                	slli	a5,a5,0x10
   1ace0:	04e2                	slli	s1,s1,0x18
   1ace2:	0622                	slli	a2,a2,0x8
   1ace4:	8d4d                	or	a0,a0,a1
   1ace6:	8ed9                	or	a3,a3,a4
   1ace8:	8fc5                	or	a5,a5,s1
   1acea:	3989c583          	lbu	a1,920(s3)
   1acee:	3999c703          	lbu	a4,921(s3)
   1acf2:	8e41                	or	a2,a2,s0
   1acf4:	39a9c483          	lbu	s1,922(s3)
   1acf8:	39b9c403          	lbu	s0,923(s3)
   1acfc:	0722                	slli	a4,a4,0x8
   1acfe:	8dd9                	or	a1,a1,a4
   1ad00:	04c2                	slli	s1,s1,0x10
   1ad02:	0462                	slli	s0,s0,0x18
   1ad04:	8c45                	or	s0,s0,s1
   1ad06:	0aa11023          	sh	a0,160(sp)
   1ad0a:	0b010123          	sb	a6,162(sp)
   1ad0e:	8fd5                	or	a5,a5,a3
   1ad10:	8dc1                	or	a1,a1,s0
   1ad12:	d0ae                	sw	a1,96(sp)
   1ad14:	06c11223          	sh	a2,100(sp)
   1ad18:	07110323          	sb	a7,102(sp)
   1ad1c:	a849                	j	1adae <_start+0xf8e>
   1ad1e:	4601                	li	a2,0
   1ad20:	4681                	li	a3,0
   1ad22:	66700513          	li	a0,1639
   1ad26:	45a1                	li	a1,8
   1ad28:	00000073          	ecall
   1ad2c:	00094503          	lbu	a0,0(s2)
   1ad30:	00194583          	lbu	a1,1(s2)
   1ad34:	00294803          	lbu	a6,2(s2)
   1ad38:	3949c683          	lbu	a3,916(s3)
   1ad3c:	3959c703          	lbu	a4,917(s3)
   1ad40:	3969c783          	lbu	a5,918(s3)
   1ad44:	3979c483          	lbu	s1,919(s3)
   1ad48:	39c9c403          	lbu	s0,924(s3)
   1ad4c:	39d9c603          	lbu	a2,925(s3)
   1ad50:	39e9c883          	lbu	a7,926(s3)
   1ad54:	05a2                	slli	a1,a1,0x8
   1ad56:	0722                	slli	a4,a4,0x8
   1ad58:	07c2                	slli	a5,a5,0x10
   1ad5a:	04e2                	slli	s1,s1,0x18
   1ad5c:	0622                	slli	a2,a2,0x8
   1ad5e:	8d4d                	or	a0,a0,a1
   1ad60:	8ed9                	or	a3,a3,a4
   1ad62:	8fc5                	or	a5,a5,s1
   1ad64:	3989c583          	lbu	a1,920(s3)
   1ad68:	3999c703          	lbu	a4,921(s3)
   1ad6c:	8e41                	or	a2,a2,s0
   1ad6e:	39a9c483          	lbu	s1,922(s3)
   1ad72:	39b9c403          	lbu	s0,923(s3)
   1ad76:	0722                	slli	a4,a4,0x8
   1ad78:	8dd9                	or	a1,a1,a4
   1ad7a:	04c2                	slli	s1,s1,0x10
   1ad7c:	0462                	slli	s0,s0,0x18
   1ad7e:	8c45                	or	s0,s0,s1
   1ad80:	0aa11023          	sh	a0,160(sp)
   1ad84:	0b010123          	sb	a6,162(sp)
   1ad88:	8fd5                	or	a5,a5,a3
   1ad8a:	3ec9c703          	lbu	a4,1004(s3)
   1ad8e:	8dc1                	or	a1,a1,s0
   1ad90:	4509                	li	a0,2
   1ad92:	d0ae                	sw	a1,96(sp)
   1ad94:	06c11223          	sh	a2,100(sp)
   1ad98:	07110323          	sb	a7,102(sp)
   1ad9c:	00a70963          	beq	a4,a0,1adae <_start+0xf8e>
   1ada0:	66700513          	li	a0,1639
   1ada4:	4589                	li	a1,2
   1ada6:	4601                	li	a2,0
   1ada8:	4681                	li	a3,0
   1adaa:	00000073          	ecall
   1adae:	0a011503          	lh	a0,160(sp)
   1adb2:	0a214583          	lbu	a1,162(sp)
   1adb6:	5606                	lw	a2,96(sp)
   1adb8:	06411683          	lh	a3,100(sp)
   1adbc:	06614703          	lbu	a4,102(sp)
   1adc0:	0187d493          	srli	s1,a5,0x18
   1adc4:	0107d413          	srli	s0,a5,0x10
   1adc8:	ca32                	sw	a2,20(sp)
   1adca:	00d11c23          	sh	a3,24(sp)
   1adce:	0087d693          	srli	a3,a5,0x8
   1add2:	0aa11c23          	sh	a0,184(sp)
   1add6:	0ab10d23          	sb	a1,186(sp)
   1adda:	0af10da3          	sb	a5,187(sp)
   1adde:	0ad10e23          	sb	a3,188(sp)
   1ade2:	0ce102a3          	sb	a4,197(sp)
   1ade6:	01514503          	lbu	a0,21(sp)
   1adea:	01614583          	lbu	a1,22(sp)
   1adee:	01714683          	lbu	a3,23(sp)
   1adf2:	01814703          	lbu	a4,24(sp)
   1adf6:	0a810ea3          	sb	s0,189(sp)
   1adfa:	0a910f23          	sb	s1,190(sp)
   1adfe:	0ac10fa3          	sb	a2,191(sp)
   1ae02:	0ca10023          	sb	a0,192(sp)
   1ae06:	01914503          	lbu	a0,25(sp)
   1ae0a:	0cb100a3          	sb	a1,193(sp)
   1ae0e:	0cd10123          	sb	a3,194(sp)
   1ae12:	0ce101a3          	sb	a4,195(sp)
   1ae16:	0ca10223          	sb	a0,196(sp)
   1ae1a:	6505                	lui	a0,0x1
   1ae1c:	38c50513          	addi	a0,a0,908 # 138c <.Lline_table_start1+0x1161>
   1ae20:	950a                	add	a0,a0,sp
   1ae22:	192c                	addi	a1,sp,184
   1ae24:	ffffb097          	auipc	ra,0xffffb
   1ae28:	fac080e7          	jalr	-84(ra) # 15dd0 <_ZN20complex_dynamic_type3app17h93a9a0f982ec2a7dE>
   1ae2c:	3ec9c503          	lbu	a0,1004(s3)
   1ae30:	c119                	beqz	a0,1ae36 <_start+0x1016>
   1ae32:	5d80306f          	j	1e40a <_start+0x45ea>
   1ae36:	3ee9c503          	lbu	a0,1006(s3)
   1ae3a:	3ed9c583          	lbu	a1,1005(s3)
   1ae3e:	3ef9c603          	lbu	a2,1007(s3)
   1ae42:	3f09a403          	lw	s0,1008(s3)
   1ae46:	0522                	slli	a0,a0,0x8
   1ae48:	8d4d                	or	a0,a0,a1
   1ae4a:	0ca11323          	sh	a0,198(sp)
   1ae4e:	0cc10423          	sb	a2,200(sp)
   1ae52:	6505                	lui	a0,0x1
   1ae54:	39450513          	addi	a0,a0,916 # 1394 <.Lline_table_start1+0x1169>
   1ae58:	00a105b3          	add	a1,sp,a0
   1ae5c:	6505                	lui	a0,0x1
   1ae5e:	33050513          	addi	a0,a0,816 # 1330 <.Lline_table_start1+0x1105>
   1ae62:	950a                	add	a0,a0,sp
   1ae64:	04100613          	li	a2,65
   1ae68:	00003097          	auipc	ra,0x3
   1ae6c:	6ac080e7          	jalr	1708(ra) # 1e514 <memcpy>
   1ae70:	01845513          	srli	a0,s0,0x18
   1ae74:	01045593          	srli	a1,s0,0x10
   1ae78:	00845613          	srli	a2,s0,0x8
   1ae7c:	0c8104a3          	sb	s0,201(sp)
   1ae80:	0cc10523          	sb	a2,202(sp)
   1ae84:	0cb105a3          	sb	a1,203(sp)
   1ae88:	0ca10623          	sb	a0,204(sp)
   1ae8c:	0cd10513          	addi	a0,sp,205
   1ae90:	6585                	lui	a1,0x1
   1ae92:	33058593          	addi	a1,a1,816 # 1330 <.Lline_table_start1+0x1105>
   1ae96:	958a                	add	a1,a1,sp
   1ae98:	04100613          	li	a2,65
   1ae9c:	00003097          	auipc	ra,0x3
   1aea0:	678080e7          	jalr	1656(ra) # 1e514 <memcpy>
   1aea4:	6505                	lui	a0,0x1
   1aea6:	38c50513          	addi	a0,a0,908 # 138c <.Lline_table_start1+0x1161>
   1aeaa:	950a                	add	a0,a0,sp
   1aeac:	0c610593          	addi	a1,sp,198
   1aeb0:	ffffe097          	auipc	ra,0xffffe
   1aeb4:	4f6080e7          	jalr	1270(ra) # 193a6 <_ZN20complex_dynamic_type3app17hec1f7c35d4161866E>
   1aeb8:	3ec9c503          	lbu	a0,1004(s3)
   1aebc:	c119                	beqz	a0,1aec2 <_start+0x10a2>
   1aebe:	54c0306f          	j	1e40a <_start+0x45ea>
   1aec2:	3ed9c503          	lbu	a0,1005(s3)
   1aec6:	3ee9c583          	lbu	a1,1006(s3)
   1aeca:	3ef9c803          	lbu	a6,1007(s3)
   1aece:	3f09a683          	lw	a3,1008(s3)
   1aed2:	3f49a703          	lw	a4,1012(s3)
   1aed6:	3f89a783          	lw	a5,1016(s3)
   1aeda:	05a2                	slli	a1,a1,0x8
   1aedc:	0186d893          	srli	a7,a3,0x18
   1aee0:	0106d293          	srli	t0,a3,0x10
   1aee4:	0187d613          	srli	a2,a5,0x18
   1aee8:	0107d493          	srli	s1,a5,0x10
   1aeec:	0087d413          	srli	s0,a5,0x8
   1aef0:	8d4d                	or	a0,a0,a1
   1aef2:	01875593          	srli	a1,a4,0x18
   1aef6:	10910da3          	sb	s1,283(sp)
   1aefa:	10c10e23          	sb	a2,284(sp)
   1aefe:	01075613          	srli	a2,a4,0x10
   1af02:	10c10ba3          	sb	a2,279(sp)
   1af06:	10b10c23          	sb	a1,280(sp)
   1af0a:	10f10ca3          	sb	a5,281(sp)
   1af0e:	10810d23          	sb	s0,282(sp)
   1af12:	0086d593          	srli	a1,a3,0x8
   1af16:	10a11723          	sh	a0,270(sp)
   1af1a:	11010823          	sb	a6,272(sp)
   1af1e:	10d108a3          	sb	a3,273(sp)
   1af22:	10b10923          	sb	a1,274(sp)
   1af26:	00875513          	srli	a0,a4,0x8
   1af2a:	105109a3          	sb	t0,275(sp)
   1af2e:	11110a23          	sb	a7,276(sp)
   1af32:	10e10aa3          	sb	a4,277(sp)
   1af36:	10a10b23          	sb	a0,278(sp)
   1af3a:	6505                	lui	a0,0x1
   1af3c:	38c50513          	addi	a0,a0,908 # 138c <.Lline_table_start1+0x1161>
   1af40:	950a                	add	a0,a0,sp
   1af42:	10e10593          	addi	a1,sp,270
   1af46:	ffff9097          	auipc	ra,0xffff9
   1af4a:	67c080e7          	jalr	1660(ra) # 145c2 <_ZN20complex_dynamic_type3app17h66bf68d52ee54194E>
   1af4e:	3ec9c503          	lbu	a0,1004(s3)
   1af52:	c119                	beqz	a0,1af58 <_start+0x1138>
   1af54:	4b60306f          	j	1e40a <_start+0x45ea>
   1af58:	3ed9c503          	lbu	a0,1005(s3)
   1af5c:	3ee9c583          	lbu	a1,1006(s3)
   1af60:	3ef9c603          	lbu	a2,1007(s3)
   1af64:	3f09a683          	lw	a3,1008(s3)
   1af68:	3f49a703          	lw	a4,1012(s3)
   1af6c:	3f89a783          	lw	a5,1016(s3)
   1af70:	3fc9a483          	lw	s1,1020(s3)
   1af74:	4009a403          	lw	s0,1024(s3)
   1af78:	38e9a823          	sw	a4,912(s3)
   1af7c:	38f9aa23          	sw	a5,916(s3)
   1af80:	3899ac23          	sw	s1,920(s3)
   1af84:	3889ae23          	sw	s0,924(s3)
   1af88:	4049a703          	lw	a4,1028(s3)
   1af8c:	4089a783          	lw	a5,1032(s3)
   1af90:	40c9a483          	lw	s1,1036(s3)
   1af94:	41099403          	lh	s0,1040(s3)
   1af98:	05a2                	slli	a1,a1,0x8
   1af9a:	3ae9a023          	sw	a4,928(s3)
   1af9e:	3af9a223          	sw	a5,932(s3)
   1afa2:	3a99a423          	sw	s1,936(s3)
   1afa6:	3a899623          	sh	s0,940(s3)
   1afaa:	0186d713          	srli	a4,a3,0x18
   1afae:	8d4d                	or	a0,a0,a1
   1afb0:	0106d593          	srli	a1,a3,0x10
   1afb4:	12b101a3          	sb	a1,291(sp)
   1afb8:	12e10223          	sb	a4,292(sp)
   1afbc:	0086d593          	srli	a1,a3,0x8
   1afc0:	10a11f23          	sh	a0,286(sp)
   1afc4:	12c10023          	sb	a2,288(sp)
   1afc8:	12d100a3          	sb	a3,289(sp)
   1afcc:	12b10123          	sb	a1,290(sp)
   1afd0:	12510513          	addi	a0,sp,293
   1afd4:	6585                	lui	a1,0x1
   1afd6:	33058593          	addi	a1,a1,816 # 1330 <.Lline_table_start1+0x1105>
   1afda:	958a                	add	a1,a1,sp
   1afdc:	4679                	li	a2,30
   1afde:	00003097          	auipc	ra,0x3
   1afe2:	536080e7          	jalr	1334(ra) # 1e514 <memcpy>
   1afe6:	6505                	lui	a0,0x1
   1afe8:	38c50513          	addi	a0,a0,908 # 138c <.Lline_table_start1+0x1161>
   1afec:	950a                	add	a0,a0,sp
   1afee:	11e10593          	addi	a1,sp,286
   1aff2:	ffffe097          	auipc	ra,0xffffe
   1aff6:	f34080e7          	jalr	-204(ra) # 18f26 <_ZN20complex_dynamic_type3app17he52c3f59f8542316E>
   1affa:	3ec9c503          	lbu	a0,1004(s3)
   1affe:	c119                	beqz	a0,1b004 <_start+0x11e4>
   1b000:	40a0306f          	j	1e40a <_start+0x45ea>
   1b004:	3ee9c503          	lbu	a0,1006(s3)
   1b008:	3ed9c583          	lbu	a1,1005(s3)
   1b00c:	3ef9c603          	lbu	a2,1007(s3)
   1b010:	3f09a403          	lw	s0,1008(s3)
   1b014:	0522                	slli	a0,a0,0x8
   1b016:	8d4d                	or	a0,a0,a1
   1b018:	14a11223          	sh	a0,324(sp)
   1b01c:	14c10323          	sb	a2,326(sp)
   1b020:	6505                	lui	a0,0x1
   1b022:	39450513          	addi	a0,a0,916 # 1394 <.Lline_table_start1+0x1169>
   1b026:	00a105b3          	add	a1,sp,a0
   1b02a:	6505                	lui	a0,0x1
   1b02c:	33050513          	addi	a0,a0,816 # 1330 <.Lline_table_start1+0x1105>
   1b030:	950a                	add	a0,a0,sp
   1b032:	02300613          	li	a2,35
   1b036:	00003097          	auipc	ra,0x3
   1b03a:	4de080e7          	jalr	1246(ra) # 1e514 <memcpy>
   1b03e:	01845513          	srli	a0,s0,0x18
   1b042:	01045593          	srli	a1,s0,0x10
   1b046:	00845613          	srli	a2,s0,0x8
   1b04a:	148103a3          	sb	s0,327(sp)
   1b04e:	14c10423          	sb	a2,328(sp)
   1b052:	14b104a3          	sb	a1,329(sp)
   1b056:	14a10523          	sb	a0,330(sp)
   1b05a:	14b10513          	addi	a0,sp,331
   1b05e:	6585                	lui	a1,0x1
   1b060:	33058593          	addi	a1,a1,816 # 1330 <.Lline_table_start1+0x1105>
   1b064:	958a                	add	a1,a1,sp
   1b066:	02300613          	li	a2,35
   1b06a:	00003097          	auipc	ra,0x3
   1b06e:	4aa080e7          	jalr	1194(ra) # 1e514 <memcpy>
   1b072:	6505                	lui	a0,0x1
   1b074:	38c50513          	addi	a0,a0,908 # 138c <.Lline_table_start1+0x1161>
   1b078:	950a                	add	a0,a0,sp
   1b07a:	02cc                	addi	a1,sp,324
   1b07c:	ffff6097          	auipc	ra,0xffff6
   1b080:	3c4080e7          	jalr	964(ra) # 11440 <_ZN20complex_dynamic_type3app17h038f475d1a9862d1E>
   1b084:	3ec9c503          	lbu	a0,1004(s3)
   1b088:	c119                	beqz	a0,1b08e <_start+0x126e>
   1b08a:	3800306f          	j	1e40a <_start+0x45ea>
   1b08e:	3ee9c503          	lbu	a0,1006(s3)
   1b092:	3ed9c583          	lbu	a1,1005(s3)
   1b096:	3ef9c603          	lbu	a2,1007(s3)
   1b09a:	3f09a403          	lw	s0,1008(s3)
   1b09e:	0522                	slli	a0,a0,0x8
   1b0a0:	8d4d                	or	a0,a0,a1
   1b0a2:	16a11723          	sh	a0,366(sp)
   1b0a6:	16c10823          	sb	a2,368(sp)
   1b0aa:	6505                	lui	a0,0x1
   1b0ac:	39450513          	addi	a0,a0,916 # 1394 <.Lline_table_start1+0x1169>
   1b0b0:	00a105b3          	add	a1,sp,a0
   1b0b4:	6505                	lui	a0,0x1
   1b0b6:	33050513          	addi	a0,a0,816 # 1330 <.Lline_table_start1+0x1105>
   1b0ba:	950a                	add	a0,a0,sp
   1b0bc:	05c00613          	li	a2,92
   1b0c0:	00003097          	auipc	ra,0x3
   1b0c4:	454080e7          	jalr	1108(ra) # 1e514 <memcpy>
   1b0c8:	01845513          	srli	a0,s0,0x18
   1b0cc:	01045593          	srli	a1,s0,0x10
   1b0d0:	00845613          	srli	a2,s0,0x8
   1b0d4:	168108a3          	sb	s0,369(sp)
   1b0d8:	16c10923          	sb	a2,370(sp)
   1b0dc:	16b109a3          	sb	a1,371(sp)
   1b0e0:	16a10a23          	sb	a0,372(sp)
   1b0e4:	17510513          	addi	a0,sp,373
   1b0e8:	6585                	lui	a1,0x1
   1b0ea:	33058593          	addi	a1,a1,816 # 1330 <.Lline_table_start1+0x1105>
   1b0ee:	958a                	add	a1,a1,sp
   1b0f0:	05c00613          	li	a2,92
   1b0f4:	00003097          	auipc	ra,0x3
   1b0f8:	420080e7          	jalr	1056(ra) # 1e514 <memcpy>
   1b0fc:	6505                	lui	a0,0x1
   1b0fe:	38c50513          	addi	a0,a0,908 # 138c <.Lline_table_start1+0x1161>
   1b102:	950a                	add	a0,a0,sp
   1b104:	16e10593          	addi	a1,sp,366
   1b108:	ffff9097          	auipc	ra,0xffff9
   1b10c:	ec4080e7          	jalr	-316(ra) # 13fcc <_ZN20complex_dynamic_type3app17h56fd1f7a6e7f44b5E>
   1b110:	3ec9c503          	lbu	a0,1004(s3)
   1b114:	c119                	beqz	a0,1b11a <_start+0x12fa>
   1b116:	2f40306f          	j	1e40a <_start+0x45ea>
   1b11a:	3ed9c503          	lbu	a0,1005(s3)
   1b11e:	3ee9c583          	lbu	a1,1006(s3)
   1b122:	3ef9c603          	lbu	a2,1007(s3)
   1b126:	3f09a683          	lw	a3,1008(s3)
   1b12a:	3f49a703          	lw	a4,1012(s3)
   1b12e:	3f89a783          	lw	a5,1016(s3)
   1b132:	3fc9a483          	lw	s1,1020(s3)
   1b136:	4009a403          	lw	s0,1024(s3)
   1b13a:	38e9a823          	sw	a4,912(s3)
   1b13e:	38f9aa23          	sw	a5,916(s3)
   1b142:	3899ac23          	sw	s1,920(s3)
   1b146:	3889ae23          	sw	s0,924(s3)
   1b14a:	4049a703          	lw	a4,1028(s3)
   1b14e:	4089a783          	lw	a5,1032(s3)
   1b152:	40c9a483          	lw	s1,1036(s3)
   1b156:	4109a403          	lw	s0,1040(s3)
   1b15a:	05a2                	slli	a1,a1,0x8
   1b15c:	3ae9a023          	sw	a4,928(s3)
   1b160:	3af9a223          	sw	a5,932(s3)
   1b164:	3a99a423          	sw	s1,936(s3)
   1b168:	3a89a623          	sw	s0,940(s3)
   1b16c:	0186d713          	srli	a4,a3,0x18
   1b170:	8d4d                	or	a0,a0,a1
   1b172:	0106d593          	srli	a1,a3,0x10
   1b176:	1cb10ba3          	sb	a1,471(sp)
   1b17a:	1ce10c23          	sb	a4,472(sp)
   1b17e:	0086d593          	srli	a1,a3,0x8
   1b182:	1ca11923          	sh	a0,466(sp)
   1b186:	1cc10a23          	sb	a2,468(sp)
   1b18a:	1cd10aa3          	sb	a3,469(sp)
   1b18e:	1cb10b23          	sb	a1,470(sp)
   1b192:	1d910513          	addi	a0,sp,473
   1b196:	6585                	lui	a1,0x1
   1b198:	33058593          	addi	a1,a1,816 # 1330 <.Lline_table_start1+0x1105>
   1b19c:	958a                	add	a1,a1,sp
   1b19e:	02000613          	li	a2,32
   1b1a2:	00003097          	auipc	ra,0x3
   1b1a6:	372080e7          	jalr	882(ra) # 1e514 <memcpy>
   1b1aa:	6505                	lui	a0,0x1
   1b1ac:	38c50513          	addi	a0,a0,908 # 138c <.Lline_table_start1+0x1161>
   1b1b0:	950a                	add	a0,a0,sp
   1b1b2:	1d210593          	addi	a1,sp,466
   1b1b6:	ffffd097          	auipc	ra,0xffffd
   1b1ba:	2fa080e7          	jalr	762(ra) # 184b0 <_ZN20complex_dynamic_type3app17hd6d3a2eb03fc0563E>
   1b1be:	3ec9c503          	lbu	a0,1004(s3)
   1b1c2:	c119                	beqz	a0,1b1c8 <_start+0x13a8>
   1b1c4:	2460306f          	j	1e40a <_start+0x45ea>
   1b1c8:	3ed9c503          	lbu	a0,1005(s3)
   1b1cc:	3ee9c583          	lbu	a1,1006(s3)
   1b1d0:	3ef9c603          	lbu	a2,1007(s3)
   1b1d4:	3f09a683          	lw	a3,1008(s3)
   1b1d8:	3f49a703          	lw	a4,1012(s3)
   1b1dc:	3f89a783          	lw	a5,1016(s3)
   1b1e0:	3fc9a483          	lw	s1,1020(s3)
   1b1e4:	4009a403          	lw	s0,1024(s3)
   1b1e8:	38e9a823          	sw	a4,912(s3)
   1b1ec:	38f9aa23          	sw	a5,916(s3)
   1b1f0:	3899ac23          	sw	s1,920(s3)
   1b1f4:	3889ae23          	sw	s0,924(s3)
   1b1f8:	4049a703          	lw	a4,1028(s3)
   1b1fc:	40899783          	lh	a5,1032(s3)
   1b200:	40a9c483          	lbu	s1,1034(s3)
   1b204:	05a2                	slli	a1,a1,0x8
   1b206:	3ae9a023          	sw	a4,928(s3)
   1b20a:	3af99223          	sh	a5,932(s3)
   1b20e:	3a998323          	sb	s1,934(s3)
   1b212:	0186d713          	srli	a4,a3,0x18
   1b216:	8d4d                	or	a0,a0,a1
   1b218:	0106d593          	srli	a1,a3,0x10
   1b21c:	1eb10fa3          	sb	a1,511(sp)
   1b220:	20e10023          	sb	a4,512(sp)
   1b224:	0086d593          	srli	a1,a3,0x8
   1b228:	1ea11d23          	sh	a0,506(sp)
   1b22c:	1ec10e23          	sb	a2,508(sp)
   1b230:	1ed10ea3          	sb	a3,509(sp)
   1b234:	1eb10f23          	sb	a1,510(sp)
   1b238:	20110513          	addi	a0,sp,513
   1b23c:	6585                	lui	a1,0x1
   1b23e:	33058593          	addi	a1,a1,816 # 1330 <.Lline_table_start1+0x1105>
   1b242:	958a                	add	a1,a1,sp
   1b244:	465d                	li	a2,23
   1b246:	00003097          	auipc	ra,0x3
   1b24a:	2ce080e7          	jalr	718(ra) # 1e514 <memcpy>
   1b24e:	6505                	lui	a0,0x1
   1b250:	38c50513          	addi	a0,a0,908 # 138c <.Lline_table_start1+0x1161>
   1b254:	950a                	add	a0,a0,sp
   1b256:	1fa10593          	addi	a1,sp,506
   1b25a:	ffff7097          	auipc	ra,0xffff7
   1b25e:	564080e7          	jalr	1380(ra) # 127be <_ZN20complex_dynamic_type3app17h2f31bf1258cbac18E>
   1b262:	3ec9c503          	lbu	a0,1004(s3)
   1b266:	c119                	beqz	a0,1b26c <_start+0x144c>
   1b268:	1a20306f          	j	1e40a <_start+0x45ea>
   1b26c:	3ee9c503          	lbu	a0,1006(s3)
   1b270:	3ed9c583          	lbu	a1,1005(s3)
   1b274:	3ef9c603          	lbu	a2,1007(s3)
   1b278:	3f09a403          	lw	s0,1008(s3)
   1b27c:	0522                	slli	a0,a0,0x8
   1b27e:	8d4d                	or	a0,a0,a1
   1b280:	20a11c23          	sh	a0,536(sp)
   1b284:	20c10d23          	sb	a2,538(sp)
   1b288:	6505                	lui	a0,0x1
   1b28a:	39450513          	addi	a0,a0,916 # 1394 <.Lline_table_start1+0x1169>
   1b28e:	00a105b3          	add	a1,sp,a0
   1b292:	6505                	lui	a0,0x1
   1b294:	33050513          	addi	a0,a0,816 # 1330 <.Lline_table_start1+0x1105>
   1b298:	950a                	add	a0,a0,sp
   1b29a:	02500613          	li	a2,37
   1b29e:	00003097          	auipc	ra,0x3
   1b2a2:	276080e7          	jalr	630(ra) # 1e514 <memcpy>
   1b2a6:	01845513          	srli	a0,s0,0x18
   1b2aa:	01045593          	srli	a1,s0,0x10
   1b2ae:	00845613          	srli	a2,s0,0x8
   1b2b2:	20810da3          	sb	s0,539(sp)
   1b2b6:	20c10e23          	sb	a2,540(sp)
   1b2ba:	20b10ea3          	sb	a1,541(sp)
   1b2be:	20a10f23          	sb	a0,542(sp)
   1b2c2:	21f10513          	addi	a0,sp,543
   1b2c6:	6585                	lui	a1,0x1
   1b2c8:	33058593          	addi	a1,a1,816 # 1330 <.Lline_table_start1+0x1105>
   1b2cc:	958a                	add	a1,a1,sp
   1b2ce:	02500613          	li	a2,37
   1b2d2:	00003097          	auipc	ra,0x3
   1b2d6:	242080e7          	jalr	578(ra) # 1e514 <memcpy>
   1b2da:	6505                	lui	a0,0x1
   1b2dc:	38c50513          	addi	a0,a0,908 # 138c <.Lline_table_start1+0x1161>
   1b2e0:	950a                	add	a0,a0,sp
   1b2e2:	0c2c                	addi	a1,sp,536
   1b2e4:	ffffb097          	auipc	ra,0xffffb
   1b2e8:	6e8080e7          	jalr	1768(ra) # 169cc <_ZN20complex_dynamic_type3app17ha53c57e0b87aa67dE>
   1b2ec:	3ec9c503          	lbu	a0,1004(s3)
   1b2f0:	c119                	beqz	a0,1b2f6 <_start+0x14d6>
   1b2f2:	1180306f          	j	1e40a <_start+0x45ea>
   1b2f6:	3ed9c503          	lbu	a0,1005(s3)
   1b2fa:	3ee9c583          	lbu	a1,1006(s3)
   1b2fe:	3ef9c603          	lbu	a2,1007(s3)
   1b302:	3f09a683          	lw	a3,1008(s3)
   1b306:	3f49a703          	lw	a4,1012(s3)
   1b30a:	3f89a783          	lw	a5,1016(s3)
   1b30e:	3fc9a483          	lw	s1,1020(s3)
   1b312:	4009a403          	lw	s0,1024(s3)
   1b316:	38e9a823          	sw	a4,912(s3)
   1b31a:	38f9aa23          	sw	a5,916(s3)
   1b31e:	3899ac23          	sw	s1,920(s3)
   1b322:	3889ae23          	sw	s0,924(s3)
   1b326:	4049a703          	lw	a4,1028(s3)
   1b32a:	4089a783          	lw	a5,1032(s3)
   1b32e:	40c9a483          	lw	s1,1036(s3)
   1b332:	41099403          	lh	s0,1040(s3)
   1b336:	05a2                	slli	a1,a1,0x8
   1b338:	3ae9a023          	sw	a4,928(s3)
   1b33c:	3af9a223          	sw	a5,932(s3)
   1b340:	3a99a423          	sw	s1,936(s3)
   1b344:	3a899623          	sh	s0,940(s3)
   1b348:	0186d713          	srli	a4,a3,0x18
   1b34c:	8d4d                	or	a0,a0,a1
   1b34e:	0106d593          	srli	a1,a3,0x10
   1b352:	24b104a3          	sb	a1,585(sp)
   1b356:	24e10523          	sb	a4,586(sp)
   1b35a:	0086d593          	srli	a1,a3,0x8
   1b35e:	24a11223          	sh	a0,580(sp)
   1b362:	24c10323          	sb	a2,582(sp)
   1b366:	24d103a3          	sb	a3,583(sp)
   1b36a:	24b10423          	sb	a1,584(sp)
   1b36e:	24b10513          	addi	a0,sp,587
   1b372:	6585                	lui	a1,0x1
   1b374:	33058593          	addi	a1,a1,816 # 1330 <.Lline_table_start1+0x1105>
   1b378:	958a                	add	a1,a1,sp
   1b37a:	4679                	li	a2,30
   1b37c:	00003097          	auipc	ra,0x3
   1b380:	198080e7          	jalr	408(ra) # 1e514 <memcpy>
   1b384:	6505                	lui	a0,0x1
   1b386:	38c50513          	addi	a0,a0,908 # 138c <.Lline_table_start1+0x1161>
   1b38a:	950a                	add	a0,a0,sp
   1b38c:	04cc                	addi	a1,sp,580
   1b38e:	ffff6097          	auipc	ra,0xffff6
   1b392:	6c0080e7          	jalr	1728(ra) # 11a4e <_ZN20complex_dynamic_type3app17h11742037a0c8529eE>
   1b396:	3ec9c503          	lbu	a0,1004(s3)
   1b39a:	c119                	beqz	a0,1b3a0 <_start+0x1580>
   1b39c:	06e0306f          	j	1e40a <_start+0x45ea>
   1b3a0:	3ed9c503          	lbu	a0,1005(s3)
   1b3a4:	3ee9c583          	lbu	a1,1006(s3)
   1b3a8:	3ef9c803          	lbu	a6,1007(s3)
   1b3ac:	3f09a683          	lw	a3,1008(s3)
   1b3b0:	3f49a703          	lw	a4,1012(s3)
   1b3b4:	3f89a783          	lw	a5,1016(s3)
   1b3b8:	3fc9a483          	lw	s1,1020(s3)
   1b3bc:	4009a403          	lw	s0,1024(s3)
   1b3c0:	4049c603          	lbu	a2,1028(s3)
   1b3c4:	38e9a823          	sw	a4,912(s3)
   1b3c8:	38f9aa23          	sw	a5,916(s3)
   1b3cc:	3899ac23          	sw	s1,920(s3)
   1b3d0:	3889ae23          	sw	s0,924(s3)
   1b3d4:	05a2                	slli	a1,a1,0x8
   1b3d6:	3ac98023          	sb	a2,928(s3)
   1b3da:	0186d613          	srli	a2,a3,0x18
   1b3de:	8d4d                	or	a0,a0,a1
   1b3e0:	0106d593          	srli	a1,a3,0x10
   1b3e4:	26b107a3          	sb	a1,623(sp)
   1b3e8:	26c10823          	sb	a2,624(sp)
   1b3ec:	0086d593          	srli	a1,a3,0x8
   1b3f0:	26a11523          	sh	a0,618(sp)
   1b3f4:	27010623          	sb	a6,620(sp)
   1b3f8:	26d106a3          	sb	a3,621(sp)
   1b3fc:	26b10723          	sb	a1,622(sp)
   1b400:	27110513          	addi	a0,sp,625
   1b404:	6585                	lui	a1,0x1
   1b406:	33058593          	addi	a1,a1,816 # 1330 <.Lline_table_start1+0x1105>
   1b40a:	958a                	add	a1,a1,sp
   1b40c:	4645                	li	a2,17
   1b40e:	00003097          	auipc	ra,0x3
   1b412:	106080e7          	jalr	262(ra) # 1e514 <memcpy>
   1b416:	6505                	lui	a0,0x1
   1b418:	38c50513          	addi	a0,a0,908 # 138c <.Lline_table_start1+0x1161>
   1b41c:	950a                	add	a0,a0,sp
   1b41e:	26a10593          	addi	a1,sp,618
   1b422:	ffffc097          	auipc	ra,0xffffc
   1b426:	32a080e7          	jalr	810(ra) # 1774c <_ZN20complex_dynamic_type3app17hbf3fc723d318db2eE>
   1b42a:	3ec9c503          	lbu	a0,1004(s3)
   1b42e:	c119                	beqz	a0,1b434 <_start+0x1614>
   1b430:	7db0206f          	j	1e40a <_start+0x45ea>
   1b434:	3ee9c503          	lbu	a0,1006(s3)
   1b438:	3ed9c583          	lbu	a1,1005(s3)
   1b43c:	3ef9c603          	lbu	a2,1007(s3)
   1b440:	3f09a403          	lw	s0,1008(s3)
   1b444:	0522                	slli	a0,a0,0x8
   1b446:	8d4d                	or	a0,a0,a1
   1b448:	28a11123          	sh	a0,642(sp)
   1b44c:	28c10223          	sb	a2,644(sp)
   1b450:	6505                	lui	a0,0x1
   1b452:	39450513          	addi	a0,a0,916 # 1394 <.Lline_table_start1+0x1169>
   1b456:	00a105b3          	add	a1,sp,a0
   1b45a:	6505                	lui	a0,0x1
   1b45c:	33050513          	addi	a0,a0,816 # 1330 <.Lline_table_start1+0x1105>
   1b460:	950a                	add	a0,a0,sp
   1b462:	02f00613          	li	a2,47
   1b466:	00003097          	auipc	ra,0x3
   1b46a:	0ae080e7          	jalr	174(ra) # 1e514 <memcpy>
   1b46e:	01845513          	srli	a0,s0,0x18
   1b472:	01045593          	srli	a1,s0,0x10
   1b476:	00845613          	srli	a2,s0,0x8
   1b47a:	288102a3          	sb	s0,645(sp)
   1b47e:	28c10323          	sb	a2,646(sp)
   1b482:	28b103a3          	sb	a1,647(sp)
   1b486:	28a10423          	sb	a0,648(sp)
   1b48a:	28910513          	addi	a0,sp,649
   1b48e:	6585                	lui	a1,0x1
   1b490:	33058593          	addi	a1,a1,816 # 1330 <.Lline_table_start1+0x1105>
   1b494:	958a                	add	a1,a1,sp
   1b496:	02f00613          	li	a2,47
   1b49a:	00003097          	auipc	ra,0x3
   1b49e:	07a080e7          	jalr	122(ra) # 1e514 <memcpy>
   1b4a2:	6505                	lui	a0,0x1
   1b4a4:	38c50513          	addi	a0,a0,908 # 138c <.Lline_table_start1+0x1161>
   1b4a8:	950a                	add	a0,a0,sp
   1b4aa:	28210593          	addi	a1,sp,642
   1b4ae:	ffff8097          	auipc	ra,0xffff8
   1b4b2:	690080e7          	jalr	1680(ra) # 13b3e <_ZN20complex_dynamic_type3app17h4c72312a3037f6c3E>
   1b4b6:	3ec9c503          	lbu	a0,1004(s3)
   1b4ba:	c119                	beqz	a0,1b4c0 <_start+0x16a0>
   1b4bc:	74f0206f          	j	1e40a <_start+0x45ea>
   1b4c0:	3ee9c503          	lbu	a0,1006(s3)
   1b4c4:	3ed9c583          	lbu	a1,1005(s3)
   1b4c8:	3ef9c603          	lbu	a2,1007(s3)
   1b4cc:	3f09a403          	lw	s0,1008(s3)
   1b4d0:	0522                	slli	a0,a0,0x8
   1b4d2:	8d4d                	or	a0,a0,a1
   1b4d4:	2aa11c23          	sh	a0,696(sp)
   1b4d8:	2ac10d23          	sb	a2,698(sp)
   1b4dc:	6505                	lui	a0,0x1
   1b4de:	39450513          	addi	a0,a0,916 # 1394 <.Lline_table_start1+0x1169>
   1b4e2:	00a105b3          	add	a1,sp,a0
   1b4e6:	6505                	lui	a0,0x1
   1b4e8:	33050513          	addi	a0,a0,816 # 1330 <.Lline_table_start1+0x1105>
   1b4ec:	950a                	add	a0,a0,sp
   1b4ee:	02d00613          	li	a2,45
   1b4f2:	00003097          	auipc	ra,0x3
   1b4f6:	022080e7          	jalr	34(ra) # 1e514 <memcpy>
   1b4fa:	01845513          	srli	a0,s0,0x18
   1b4fe:	01045593          	srli	a1,s0,0x10
   1b502:	00845613          	srli	a2,s0,0x8
   1b506:	2a810da3          	sb	s0,699(sp)
   1b50a:	2ac10e23          	sb	a2,700(sp)
   1b50e:	2ab10ea3          	sb	a1,701(sp)
   1b512:	2aa10f23          	sb	a0,702(sp)
   1b516:	2bf10513          	addi	a0,sp,703
   1b51a:	6585                	lui	a1,0x1
   1b51c:	33058593          	addi	a1,a1,816 # 1330 <.Lline_table_start1+0x1105>
   1b520:	958a                	add	a1,a1,sp
   1b522:	02d00613          	li	a2,45
   1b526:	00003097          	auipc	ra,0x3
   1b52a:	fee080e7          	jalr	-18(ra) # 1e514 <memcpy>
   1b52e:	6505                	lui	a0,0x1
   1b530:	38c50513          	addi	a0,a0,908 # 138c <.Lline_table_start1+0x1161>
   1b534:	950a                	add	a0,a0,sp
   1b536:	1d2c                	addi	a1,sp,696
   1b538:	ffffa097          	auipc	ra,0xffffa
   1b53c:	418080e7          	jalr	1048(ra) # 15950 <_ZN20complex_dynamic_type3app17h881da36e0040e62eE>
   1b540:	3ec9c503          	lbu	a0,1004(s3)
   1b544:	c119                	beqz	a0,1b54a <_start+0x172a>
   1b546:	6c50206f          	j	1e40a <_start+0x45ea>
   1b54a:	3ee9c503          	lbu	a0,1006(s3)
   1b54e:	3ed9c583          	lbu	a1,1005(s3)
   1b552:	3ef9c603          	lbu	a2,1007(s3)
   1b556:	3f09a403          	lw	s0,1008(s3)
   1b55a:	0522                	slli	a0,a0,0x8
   1b55c:	8d4d                	or	a0,a0,a1
   1b55e:	2ea11623          	sh	a0,748(sp)
   1b562:	2ec10723          	sb	a2,750(sp)
   1b566:	6505                	lui	a0,0x1
   1b568:	39450513          	addi	a0,a0,916 # 1394 <.Lline_table_start1+0x1169>
   1b56c:	00a105b3          	add	a1,sp,a0
   1b570:	6505                	lui	a0,0x1
   1b572:	33050513          	addi	a0,a0,816 # 1330 <.Lline_table_start1+0x1105>
   1b576:	950a                	add	a0,a0,sp
   1b578:	02700613          	li	a2,39
   1b57c:	00003097          	auipc	ra,0x3
   1b580:	f98080e7          	jalr	-104(ra) # 1e514 <memcpy>
   1b584:	01845513          	srli	a0,s0,0x18
   1b588:	01045593          	srli	a1,s0,0x10
   1b58c:	00845613          	srli	a2,s0,0x8
   1b590:	2e8107a3          	sb	s0,751(sp)
   1b594:	2ec10823          	sb	a2,752(sp)
   1b598:	2eb108a3          	sb	a1,753(sp)
   1b59c:	2ea10923          	sb	a0,754(sp)
   1b5a0:	2f310513          	addi	a0,sp,755
   1b5a4:	6585                	lui	a1,0x1
   1b5a6:	33058593          	addi	a1,a1,816 # 1330 <.Lline_table_start1+0x1105>
   1b5aa:	958a                	add	a1,a1,sp
   1b5ac:	02700613          	li	a2,39
   1b5b0:	00003097          	auipc	ra,0x3
   1b5b4:	f64080e7          	jalr	-156(ra) # 1e514 <memcpy>
   1b5b8:	6505                	lui	a0,0x1
   1b5ba:	38c50513          	addi	a0,a0,908 # 138c <.Lline_table_start1+0x1161>
   1b5be:	950a                	add	a0,a0,sp
   1b5c0:	15ec                	addi	a1,sp,748
   1b5c2:	ffff6097          	auipc	ra,0xffff6
   1b5c6:	18a080e7          	jalr	394(ra) # 1174c <_ZN20complex_dynamic_type3app17h068d2d1d4804a789E>
   1b5ca:	3ec9c503          	lbu	a0,1004(s3)
   1b5ce:	c119                	beqz	a0,1b5d4 <_start+0x17b4>
   1b5d0:	63b0206f          	j	1e40a <_start+0x45ea>
   1b5d4:	3ee9c503          	lbu	a0,1006(s3)
   1b5d8:	3ed9c583          	lbu	a1,1005(s3)
   1b5dc:	3ef9c603          	lbu	a2,1007(s3)
   1b5e0:	3f09a403          	lw	s0,1008(s3)
   1b5e4:	0522                	slli	a0,a0,0x8
   1b5e6:	8d4d                	or	a0,a0,a1
   1b5e8:	30a11d23          	sh	a0,794(sp)
   1b5ec:	30c10e23          	sb	a2,796(sp)
   1b5f0:	6505                	lui	a0,0x1
   1b5f2:	39450513          	addi	a0,a0,916 # 1394 <.Lline_table_start1+0x1169>
   1b5f6:	00a105b3          	add	a1,sp,a0
   1b5fa:	6505                	lui	a0,0x1
   1b5fc:	33050513          	addi	a0,a0,816 # 1330 <.Lline_table_start1+0x1105>
   1b600:	950a                	add	a0,a0,sp
   1b602:	03100613          	li	a2,49
   1b606:	00003097          	auipc	ra,0x3
   1b60a:	f0e080e7          	jalr	-242(ra) # 1e514 <memcpy>
   1b60e:	01845513          	srli	a0,s0,0x18
   1b612:	01045593          	srli	a1,s0,0x10
   1b616:	00845613          	srli	a2,s0,0x8
   1b61a:	30810ea3          	sb	s0,797(sp)
   1b61e:	30c10f23          	sb	a2,798(sp)
   1b622:	30b10fa3          	sb	a1,799(sp)
   1b626:	32a10023          	sb	a0,800(sp)
   1b62a:	32110513          	addi	a0,sp,801
   1b62e:	6585                	lui	a1,0x1
   1b630:	33058593          	addi	a1,a1,816 # 1330 <.Lline_table_start1+0x1105>
   1b634:	958a                	add	a1,a1,sp
   1b636:	03100613          	li	a2,49
   1b63a:	00003097          	auipc	ra,0x3
   1b63e:	eda080e7          	jalr	-294(ra) # 1e514 <memcpy>
   1b642:	6505                	lui	a0,0x1
   1b644:	38c50513          	addi	a0,a0,908 # 138c <.Lline_table_start1+0x1161>
   1b648:	950a                	add	a0,a0,sp
   1b64a:	31a10593          	addi	a1,sp,794
   1b64e:	ffffd097          	auipc	ra,0xffffd
   1b652:	2da080e7          	jalr	730(ra) # 18928 <_ZN20complex_dynamic_type3app17hdb1e87e43de1e1dbE>
   1b656:	3ec9c503          	lbu	a0,1004(s3)
   1b65a:	c119                	beqz	a0,1b660 <_start+0x1840>
   1b65c:	5af0206f          	j	1e40a <_start+0x45ea>
   1b660:	3ee9c503          	lbu	a0,1006(s3)
   1b664:	3ed9c583          	lbu	a1,1005(s3)
   1b668:	3ef9c603          	lbu	a2,1007(s3)
   1b66c:	3f09a403          	lw	s0,1008(s3)
   1b670:	0522                	slli	a0,a0,0x8
   1b672:	8d4d                	or	a0,a0,a1
   1b674:	34a11923          	sh	a0,850(sp)
   1b678:	34c10a23          	sb	a2,852(sp)
   1b67c:	6505                	lui	a0,0x1
   1b67e:	39450513          	addi	a0,a0,916 # 1394 <.Lline_table_start1+0x1169>
   1b682:	00a105b3          	add	a1,sp,a0
   1b686:	6505                	lui	a0,0x1
   1b688:	33050513          	addi	a0,a0,816 # 1330 <.Lline_table_start1+0x1105>
   1b68c:	950a                	add	a0,a0,sp
   1b68e:	02d00613          	li	a2,45
   1b692:	00003097          	auipc	ra,0x3
   1b696:	e82080e7          	jalr	-382(ra) # 1e514 <memcpy>
   1b69a:	01845513          	srli	a0,s0,0x18
   1b69e:	01045593          	srli	a1,s0,0x10
   1b6a2:	00845613          	srli	a2,s0,0x8
   1b6a6:	34810aa3          	sb	s0,853(sp)
   1b6aa:	34c10b23          	sb	a2,854(sp)
   1b6ae:	34b10ba3          	sb	a1,855(sp)
   1b6b2:	34a10c23          	sb	a0,856(sp)
   1b6b6:	35910513          	addi	a0,sp,857
   1b6ba:	6585                	lui	a1,0x1
   1b6bc:	33058593          	addi	a1,a1,816 # 1330 <.Lline_table_start1+0x1105>
   1b6c0:	958a                	add	a1,a1,sp
   1b6c2:	02d00613          	li	a2,45
   1b6c6:	00003097          	auipc	ra,0x3
   1b6ca:	e4e080e7          	jalr	-434(ra) # 1e514 <memcpy>
   1b6ce:	6505                	lui	a0,0x1
   1b6d0:	38c50513          	addi	a0,a0,908 # 138c <.Lline_table_start1+0x1161>
   1b6d4:	950a                	add	a0,a0,sp
   1b6d6:	35210593          	addi	a1,sp,850
   1b6da:	ffffb097          	auipc	ra,0xffffb
   1b6de:	fee080e7          	jalr	-18(ra) # 166c8 <_ZN20complex_dynamic_type3app17h9f83ba307bbbaffbE>
   1b6e2:	3ec9c503          	lbu	a0,1004(s3)
   1b6e6:	c119                	beqz	a0,1b6ec <_start+0x18cc>
   1b6e8:	5230206f          	j	1e40a <_start+0x45ea>
   1b6ec:	3ed9c503          	lbu	a0,1005(s3)
   1b6f0:	3ee9c583          	lbu	a1,1006(s3)
   1b6f4:	3f49a603          	lw	a2,1012(s3)
   1b6f8:	3f89a683          	lw	a3,1016(s3)
   1b6fc:	3fc9a703          	lw	a4,1020(s3)
   1b700:	4009a783          	lw	a5,1024(s3)
   1b704:	40499483          	lh	s1,1028(s3)
   1b708:	4069c403          	lbu	s0,1030(s3)
   1b70c:	38c9a823          	sw	a2,912(s3)
   1b710:	38d9aa23          	sw	a3,916(s3)
   1b714:	38e9ac23          	sw	a4,920(s3)
   1b718:	38f9ae23          	sw	a5,924(s3)
   1b71c:	3ef9c603          	lbu	a2,1007(s3)
   1b720:	3f09a683          	lw	a3,1008(s3)
   1b724:	05a2                	slli	a1,a1,0x8
   1b726:	3a999023          	sh	s1,928(s3)
   1b72a:	3a898123          	sb	s0,930(s3)
   1b72e:	0186d713          	srli	a4,a3,0x18
   1b732:	8d4d                	or	a0,a0,a1
   1b734:	0106d593          	srli	a1,a3,0x10
   1b738:	38b105a3          	sb	a1,907(sp)
   1b73c:	38e10623          	sb	a4,908(sp)
   1b740:	0086d593          	srli	a1,a3,0x8
   1b744:	38a11323          	sh	a0,902(sp)
   1b748:	38c10423          	sb	a2,904(sp)
   1b74c:	38d104a3          	sb	a3,905(sp)
   1b750:	38b10523          	sb	a1,906(sp)
   1b754:	38d10513          	addi	a0,sp,909
   1b758:	6585                	lui	a1,0x1
   1b75a:	33058593          	addi	a1,a1,816 # 1330 <.Lline_table_start1+0x1105>
   1b75e:	958a                	add	a1,a1,sp
   1b760:	464d                	li	a2,19
   1b762:	00003097          	auipc	ra,0x3
   1b766:	db2080e7          	jalr	-590(ra) # 1e514 <memcpy>
   1b76a:	6505                	lui	a0,0x1
   1b76c:	38c50513          	addi	a0,a0,908 # 138c <.Lline_table_start1+0x1161>
   1b770:	950a                	add	a0,a0,sp
   1b772:	38610593          	addi	a1,sp,902
   1b776:	ffff7097          	auipc	ra,0xffff7
   1b77a:	bd6080e7          	jalr	-1066(ra) # 1234c <_ZN20complex_dynamic_type3app17h27d8931c8cf0ffe9E>
   1b77e:	3ec9c503          	lbu	a0,1004(s3)
   1b782:	c119                	beqz	a0,1b788 <_start+0x1968>
   1b784:	4870206f          	j	1e40a <_start+0x45ea>
   1b788:	3ee9c503          	lbu	a0,1006(s3)
   1b78c:	3ed9c583          	lbu	a1,1005(s3)
   1b790:	3ef9c603          	lbu	a2,1007(s3)
   1b794:	3f09a403          	lw	s0,1008(s3)
   1b798:	0522                	slli	a0,a0,0x8
   1b79a:	8d4d                	or	a0,a0,a1
   1b79c:	3aa11023          	sh	a0,928(sp)
   1b7a0:	3ac10123          	sb	a2,930(sp)
   1b7a4:	6505                	lui	a0,0x1
   1b7a6:	39450513          	addi	a0,a0,916 # 1394 <.Lline_table_start1+0x1169>
   1b7aa:	00a105b3          	add	a1,sp,a0
   1b7ae:	6505                	lui	a0,0x1
   1b7b0:	33050513          	addi	a0,a0,816 # 1330 <.Lline_table_start1+0x1105>
   1b7b4:	950a                	add	a0,a0,sp
   1b7b6:	04900613          	li	a2,73
   1b7ba:	00003097          	auipc	ra,0x3
   1b7be:	d5a080e7          	jalr	-678(ra) # 1e514 <memcpy>
   1b7c2:	01845513          	srli	a0,s0,0x18
   1b7c6:	01045593          	srli	a1,s0,0x10
   1b7ca:	00845613          	srli	a2,s0,0x8
   1b7ce:	3a8101a3          	sb	s0,931(sp)
   1b7d2:	3ac10223          	sb	a2,932(sp)
   1b7d6:	3ab102a3          	sb	a1,933(sp)
   1b7da:	3aa10323          	sb	a0,934(sp)
   1b7de:	3a710513          	addi	a0,sp,935
   1b7e2:	6585                	lui	a1,0x1
   1b7e4:	33058593          	addi	a1,a1,816 # 1330 <.Lline_table_start1+0x1105>
   1b7e8:	958a                	add	a1,a1,sp
   1b7ea:	04900613          	li	a2,73
   1b7ee:	00003097          	auipc	ra,0x3
   1b7f2:	d26080e7          	jalr	-730(ra) # 1e514 <memcpy>
   1b7f6:	6505                	lui	a0,0x1
   1b7f8:	38c50513          	addi	a0,a0,908 # 138c <.Lline_table_start1+0x1161>
   1b7fc:	950a                	add	a0,a0,sp
   1b7fe:	170c                	addi	a1,sp,928
   1b800:	ffffe097          	auipc	ra,0xffffe
   1b804:	8aa080e7          	jalr	-1878(ra) # 190aa <_ZN20complex_dynamic_type3app17he8a33bcebbd03d90E>
   1b808:	3ec9c503          	lbu	a0,1004(s3)
   1b80c:	c119                	beqz	a0,1b812 <_start+0x19f2>
   1b80e:	3fd0206f          	j	1e40a <_start+0x45ea>
   1b812:	3ee9c503          	lbu	a0,1006(s3)
   1b816:	3ed9c583          	lbu	a1,1005(s3)
   1b81a:	3ef9c603          	lbu	a2,1007(s3)
   1b81e:	3f09a403          	lw	s0,1008(s3)
   1b822:	0522                	slli	a0,a0,0x8
   1b824:	8d4d                	or	a0,a0,a1
   1b826:	3ea11823          	sh	a0,1008(sp)
   1b82a:	3ec10923          	sb	a2,1010(sp)
   1b82e:	6505                	lui	a0,0x1
   1b830:	39450513          	addi	a0,a0,916 # 1394 <.Lline_table_start1+0x1169>
   1b834:	00a105b3          	add	a1,sp,a0
   1b838:	6505                	lui	a0,0x1
   1b83a:	33050513          	addi	a0,a0,816 # 1330 <.Lline_table_start1+0x1105>
   1b83e:	950a                	add	a0,a0,sp
   1b840:	03500613          	li	a2,53
   1b844:	00003097          	auipc	ra,0x3
   1b848:	cd0080e7          	jalr	-816(ra) # 1e514 <memcpy>
   1b84c:	01845513          	srli	a0,s0,0x18
   1b850:	01045593          	srli	a1,s0,0x10
   1b854:	00845613          	srli	a2,s0,0x8
   1b858:	3e8109a3          	sb	s0,1011(sp)
   1b85c:	3ec10a23          	sb	a2,1012(sp)
   1b860:	3eb10aa3          	sb	a1,1013(sp)
   1b864:	3ea10b23          	sb	a0,1014(sp)
   1b868:	3f710513          	addi	a0,sp,1015
   1b86c:	6585                	lui	a1,0x1
   1b86e:	33058593          	addi	a1,a1,816 # 1330 <.Lline_table_start1+0x1105>
   1b872:	958a                	add	a1,a1,sp
   1b874:	03500613          	li	a2,53
   1b878:	00003097          	auipc	ra,0x3
   1b87c:	c9c080e7          	jalr	-868(ra) # 1e514 <memcpy>
   1b880:	6505                	lui	a0,0x1
   1b882:	38c50513          	addi	a0,a0,908 # 138c <.Lline_table_start1+0x1161>
   1b886:	950a                	add	a0,a0,sp
   1b888:	1f8c                	addi	a1,sp,1008
   1b88a:	ffff6097          	auipc	ra,0xffff6
   1b88e:	a30080e7          	jalr	-1488(ra) # 112ba <_ZN20complex_dynamic_type3app17h0352a65525d38bc5E>
   1b892:	3ec9c503          	lbu	a0,1004(s3)
   1b896:	c119                	beqz	a0,1b89c <_start+0x1a7c>
   1b898:	3730206f          	j	1e40a <_start+0x45ea>
   1b89c:	3ee9c503          	lbu	a0,1006(s3)
   1b8a0:	3ed9c583          	lbu	a1,1005(s3)
   1b8a4:	3ef9c603          	lbu	a2,1007(s3)
   1b8a8:	3f09a403          	lw	s0,1008(s3)
   1b8ac:	0522                	slli	a0,a0,0x8
   1b8ae:	8d4d                	or	a0,a0,a1
   1b8b0:	42a11623          	sh	a0,1068(sp)
   1b8b4:	42c10723          	sb	a2,1070(sp)
   1b8b8:	6505                	lui	a0,0x1
   1b8ba:	39450513          	addi	a0,a0,916 # 1394 <.Lline_table_start1+0x1169>
   1b8be:	00a105b3          	add	a1,sp,a0
   1b8c2:	6505                	lui	a0,0x1
   1b8c4:	33050513          	addi	a0,a0,816 # 1330 <.Lline_table_start1+0x1105>
   1b8c8:	950a                	add	a0,a0,sp
   1b8ca:	02b00613          	li	a2,43
   1b8ce:	00003097          	auipc	ra,0x3
   1b8d2:	c46080e7          	jalr	-954(ra) # 1e514 <memcpy>
   1b8d6:	01845513          	srli	a0,s0,0x18
   1b8da:	01045593          	srli	a1,s0,0x10
   1b8de:	00845613          	srli	a2,s0,0x8
   1b8e2:	428107a3          	sb	s0,1071(sp)
   1b8e6:	42c10823          	sb	a2,1072(sp)
   1b8ea:	42b108a3          	sb	a1,1073(sp)
   1b8ee:	42a10923          	sb	a0,1074(sp)
   1b8f2:	43310513          	addi	a0,sp,1075
   1b8f6:	6585                	lui	a1,0x1
   1b8f8:	33058593          	addi	a1,a1,816 # 1330 <.Lline_table_start1+0x1105>
   1b8fc:	958a                	add	a1,a1,sp
   1b8fe:	02b00613          	li	a2,43
   1b902:	00003097          	auipc	ra,0x3
   1b906:	c12080e7          	jalr	-1006(ra) # 1e514 <memcpy>
   1b90a:	6505                	lui	a0,0x1
   1b90c:	38c50513          	addi	a0,a0,908 # 138c <.Lline_table_start1+0x1161>
   1b910:	950a                	add	a0,a0,sp
   1b912:	42c10593          	addi	a1,sp,1068
   1b916:	ffffa097          	auipc	ra,0xffffa
   1b91a:	334080e7          	jalr	820(ra) # 15c4a <_ZN20complex_dynamic_type3app17h8f6c975285ac4021E>
   1b91e:	3ec9c503          	lbu	a0,1004(s3)
   1b922:	c119                	beqz	a0,1b928 <_start+0x1b08>
   1b924:	2e70206f          	j	1e40a <_start+0x45ea>
   1b928:	3ee9c503          	lbu	a0,1006(s3)
   1b92c:	3ed9c583          	lbu	a1,1005(s3)
   1b930:	3ef9c603          	lbu	a2,1007(s3)
   1b934:	3f09a403          	lw	s0,1008(s3)
   1b938:	0522                	slli	a0,a0,0x8
   1b93a:	8d4d                	or	a0,a0,a1
   1b93c:	44a11f23          	sh	a0,1118(sp)
   1b940:	46c10023          	sb	a2,1120(sp)
   1b944:	6505                	lui	a0,0x1
   1b946:	39450513          	addi	a0,a0,916 # 1394 <.Lline_table_start1+0x1169>
   1b94a:	00a105b3          	add	a1,sp,a0
   1b94e:	6505                	lui	a0,0x1
   1b950:	33050513          	addi	a0,a0,816 # 1330 <.Lline_table_start1+0x1105>
   1b954:	950a                	add	a0,a0,sp
   1b956:	02b00613          	li	a2,43
   1b95a:	00003097          	auipc	ra,0x3
   1b95e:	bba080e7          	jalr	-1094(ra) # 1e514 <memcpy>
   1b962:	01845513          	srli	a0,s0,0x18
   1b966:	01045593          	srli	a1,s0,0x10
   1b96a:	00845613          	srli	a2,s0,0x8
   1b96e:	468100a3          	sb	s0,1121(sp)
   1b972:	46c10123          	sb	a2,1122(sp)
   1b976:	46b101a3          	sb	a1,1123(sp)
   1b97a:	46a10223          	sb	a0,1124(sp)
   1b97e:	46510513          	addi	a0,sp,1125
   1b982:	6585                	lui	a1,0x1
   1b984:	33058593          	addi	a1,a1,816 # 1330 <.Lline_table_start1+0x1105>
   1b988:	958a                	add	a1,a1,sp
   1b98a:	02b00613          	li	a2,43
   1b98e:	00003097          	auipc	ra,0x3
   1b992:	b86080e7          	jalr	-1146(ra) # 1e514 <memcpy>
   1b996:	6505                	lui	a0,0x1
   1b998:	38c50513          	addi	a0,a0,908 # 138c <.Lline_table_start1+0x1161>
   1b99c:	950a                	add	a0,a0,sp
   1b99e:	45e10593          	addi	a1,sp,1118
   1b9a2:	ffffa097          	auipc	ra,0xffffa
   1b9a6:	cac080e7          	jalr	-852(ra) # 1564e <_ZN20complex_dynamic_type3app17h7cc1a939bb236b55E>
   1b9aa:	3ec9c503          	lbu	a0,1004(s3)
   1b9ae:	c119                	beqz	a0,1b9b4 <_start+0x1b94>
   1b9b0:	25b0206f          	j	1e40a <_start+0x45ea>
   1b9b4:	3ed9c503          	lbu	a0,1005(s3)
   1b9b8:	3ee9c583          	lbu	a1,1006(s3)
   1b9bc:	3ef9c603          	lbu	a2,1007(s3)
   1b9c0:	3f09a683          	lw	a3,1008(s3)
   1b9c4:	3f49a703          	lw	a4,1012(s3)
   1b9c8:	3f89a783          	lw	a5,1016(s3)
   1b9cc:	3fc9c483          	lbu	s1,1020(s3)
   1b9d0:	05a2                	slli	a1,a1,0x8
   1b9d2:	38e9a823          	sw	a4,912(s3)
   1b9d6:	38f9aa23          	sw	a5,916(s3)
   1b9da:	38998c23          	sb	s1,920(s3)
   1b9de:	0186d713          	srli	a4,a3,0x18
   1b9e2:	8d4d                	or	a0,a0,a1
   1b9e4:	0106d593          	srli	a1,a3,0x10
   1b9e8:	48b10aa3          	sb	a1,1173(sp)
   1b9ec:	48e10b23          	sb	a4,1174(sp)
   1b9f0:	0086d593          	srli	a1,a3,0x8
   1b9f4:	48a11823          	sh	a0,1168(sp)
   1b9f8:	48c10923          	sb	a2,1170(sp)
   1b9fc:	48d109a3          	sb	a3,1171(sp)
   1ba00:	48b10a23          	sb	a1,1172(sp)
   1ba04:	49710513          	addi	a0,sp,1175
   1ba08:	6585                	lui	a1,0x1
   1ba0a:	33058593          	addi	a1,a1,816 # 1330 <.Lline_table_start1+0x1105>
   1ba0e:	958a                	add	a1,a1,sp
   1ba10:	4625                	li	a2,9
   1ba12:	00003097          	auipc	ra,0x3
   1ba16:	b02080e7          	jalr	-1278(ra) # 1e514 <memcpy>
   1ba1a:	6505                	lui	a0,0x1
   1ba1c:	38c50513          	addi	a0,a0,908 # 138c <.Lline_table_start1+0x1161>
   1ba20:	950a                	add	a0,a0,sp
   1ba22:	49010593          	addi	a1,sp,1168
   1ba26:	ffffe097          	auipc	ra,0xffffe
   1ba2a:	df0080e7          	jalr	-528(ra) # 19816 <_ZN20complex_dynamic_type3app17hf88d228bf44026fcE>
   1ba2e:	3ec9c503          	lbu	a0,1004(s3)
   1ba32:	c119                	beqz	a0,1ba38 <_start+0x1c18>
   1ba34:	1d70206f          	j	1e40a <_start+0x45ea>
   1ba38:	3ee9c503          	lbu	a0,1006(s3)
   1ba3c:	3ed9c583          	lbu	a1,1005(s3)
   1ba40:	3ef9c603          	lbu	a2,1007(s3)
   1ba44:	3f09a403          	lw	s0,1008(s3)
   1ba48:	0522                	slli	a0,a0,0x8
   1ba4a:	8d4d                	or	a0,a0,a1
   1ba4c:	4aa11023          	sh	a0,1184(sp)
   1ba50:	4ac10123          	sb	a2,1186(sp)
   1ba54:	6505                	lui	a0,0x1
   1ba56:	39450513          	addi	a0,a0,916 # 1394 <.Lline_table_start1+0x1169>
   1ba5a:	00a105b3          	add	a1,sp,a0
   1ba5e:	6505                	lui	a0,0x1
   1ba60:	33050513          	addi	a0,a0,816 # 1330 <.Lline_table_start1+0x1105>
   1ba64:	950a                	add	a0,a0,sp
   1ba66:	02f00613          	li	a2,47
   1ba6a:	00003097          	auipc	ra,0x3
   1ba6e:	aaa080e7          	jalr	-1366(ra) # 1e514 <memcpy>
   1ba72:	01845513          	srli	a0,s0,0x18
   1ba76:	01045593          	srli	a1,s0,0x10
   1ba7a:	00845613          	srli	a2,s0,0x8
   1ba7e:	4a8101a3          	sb	s0,1187(sp)
   1ba82:	4ac10223          	sb	a2,1188(sp)
   1ba86:	4ab102a3          	sb	a1,1189(sp)
   1ba8a:	4aa10323          	sb	a0,1190(sp)
   1ba8e:	4a710513          	addi	a0,sp,1191
   1ba92:	6585                	lui	a1,0x1
   1ba94:	33058593          	addi	a1,a1,816 # 1330 <.Lline_table_start1+0x1105>
   1ba98:	958a                	add	a1,a1,sp
   1ba9a:	02f00613          	li	a2,47
   1ba9e:	00003097          	auipc	ra,0x3
   1baa2:	a76080e7          	jalr	-1418(ra) # 1e514 <memcpy>
   1baa6:	6505                	lui	a0,0x1
   1baa8:	38c50513          	addi	a0,a0,908 # 138c <.Lline_table_start1+0x1161>
   1baac:	950a                	add	a0,a0,sp
   1baae:	4a010593          	addi	a1,sp,1184
   1bab2:	ffffc097          	auipc	ra,0xffffc
   1bab6:	f92080e7          	jalr	-110(ra) # 17a44 <_ZN20complex_dynamic_type3app17hc46e71b8cd43c401E>
   1baba:	3ec9c503          	lbu	a0,1004(s3)
   1babe:	c119                	beqz	a0,1bac4 <_start+0x1ca4>
   1bac0:	14b0206f          	j	1e40a <_start+0x45ea>
   1bac4:	3ed9c503          	lbu	a0,1005(s3)
   1bac8:	3ee9c583          	lbu	a1,1006(s3)
   1bacc:	3ef9c803          	lbu	a6,1007(s3)
   1bad0:	3f09a683          	lw	a3,1008(s3)
   1bad4:	3f49a703          	lw	a4,1012(s3)
   1bad8:	3f89a783          	lw	a5,1016(s3)
   1badc:	05a2                	slli	a1,a1,0x8
   1bade:	0186d893          	srli	a7,a3,0x18
   1bae2:	0106d293          	srli	t0,a3,0x10
   1bae6:	0187d613          	srli	a2,a5,0x18
   1baea:	0107d493          	srli	s1,a5,0x10
   1baee:	0087d413          	srli	s0,a5,0x8
   1baf2:	8d4d                	or	a0,a0,a1
   1baf4:	01875593          	srli	a1,a4,0x18
   1baf8:	4e9101a3          	sb	s1,1251(sp)
   1bafc:	4ec10223          	sb	a2,1252(sp)
   1bb00:	01075613          	srli	a2,a4,0x10
   1bb04:	4cc10fa3          	sb	a2,1247(sp)
   1bb08:	4eb10023          	sb	a1,1248(sp)
   1bb0c:	4ef100a3          	sb	a5,1249(sp)
   1bb10:	4e810123          	sb	s0,1250(sp)
   1bb14:	0086d593          	srli	a1,a3,0x8
   1bb18:	4ca11b23          	sh	a0,1238(sp)
   1bb1c:	4d010c23          	sb	a6,1240(sp)
   1bb20:	4cd10ca3          	sb	a3,1241(sp)
   1bb24:	4cb10d23          	sb	a1,1242(sp)
   1bb28:	00875513          	srli	a0,a4,0x8
   1bb2c:	4c510da3          	sb	t0,1243(sp)
   1bb30:	4d110e23          	sb	a7,1244(sp)
   1bb34:	4ce10ea3          	sb	a4,1245(sp)
   1bb38:	4ca10f23          	sb	a0,1246(sp)
   1bb3c:	6505                	lui	a0,0x1
   1bb3e:	38c50513          	addi	a0,a0,908 # 138c <.Lline_table_start1+0x1161>
   1bb42:	950a                	add	a0,a0,sp
   1bb44:	4d610593          	addi	a1,sp,1238
   1bb48:	ffffb097          	auipc	ra,0xffffb
   1bb4c:	47c080e7          	jalr	1148(ra) # 16fc4 <_ZN20complex_dynamic_type3app17hafe464b1b354bda5E>
   1bb50:	3ec9c503          	lbu	a0,1004(s3)
   1bb54:	c119                	beqz	a0,1bb5a <_start+0x1d3a>
   1bb56:	0b50206f          	j	1e40a <_start+0x45ea>
   1bb5a:	3ed9c503          	lbu	a0,1005(s3)
   1bb5e:	3ee9c583          	lbu	a1,1006(s3)
   1bb62:	3ef9c603          	lbu	a2,1007(s3)
   1bb66:	3f09a683          	lw	a3,1008(s3)
   1bb6a:	3f49a703          	lw	a4,1012(s3)
   1bb6e:	3f89a783          	lw	a5,1016(s3)
   1bb72:	3fc9a483          	lw	s1,1020(s3)
   1bb76:	05a2                	slli	a1,a1,0x8
   1bb78:	38e9a823          	sw	a4,912(s3)
   1bb7c:	38f9aa23          	sw	a5,916(s3)
   1bb80:	3899ac23          	sw	s1,920(s3)
   1bb84:	0186d713          	srli	a4,a3,0x18
   1bb88:	8d4d                	or	a0,a0,a1
   1bb8a:	0106d593          	srli	a1,a3,0x10
   1bb8e:	4eb105a3          	sb	a1,1259(sp)
   1bb92:	4ee10623          	sb	a4,1260(sp)
   1bb96:	0086d593          	srli	a1,a3,0x8
   1bb9a:	4ea11323          	sh	a0,1254(sp)
   1bb9e:	4ec10423          	sb	a2,1256(sp)
   1bba2:	4ed104a3          	sb	a3,1257(sp)
   1bba6:	4eb10523          	sb	a1,1258(sp)
   1bbaa:	4ed10513          	addi	a0,sp,1261
   1bbae:	6585                	lui	a1,0x1
   1bbb0:	33058593          	addi	a1,a1,816 # 1330 <.Lline_table_start1+0x1105>
   1bbb4:	958a                	add	a1,a1,sp
   1bbb6:	4631                	li	a2,12
   1bbb8:	00003097          	auipc	ra,0x3
   1bbbc:	95c080e7          	jalr	-1700(ra) # 1e514 <memcpy>
   1bbc0:	6505                	lui	a0,0x1
   1bbc2:	38c50513          	addi	a0,a0,908 # 138c <.Lline_table_start1+0x1161>
   1bbc6:	950a                	add	a0,a0,sp
   1bbc8:	4e610593          	addi	a1,sp,1254
   1bbcc:	ffffc097          	auipc	ra,0xffffc
   1bbd0:	478080e7          	jalr	1144(ra) # 18044 <_ZN20complex_dynamic_type3app17hcd7544c8e01cd7daE>
   1bbd4:	3ec9c503          	lbu	a0,1004(s3)
   1bbd8:	c119                	beqz	a0,1bbde <_start+0x1dbe>
   1bbda:	0310206f          	j	1e40a <_start+0x45ea>
   1bbde:	3ee9c503          	lbu	a0,1006(s3)
   1bbe2:	3ed9c583          	lbu	a1,1005(s3)
   1bbe6:	3ef9c603          	lbu	a2,1007(s3)
   1bbea:	3f09a403          	lw	s0,1008(s3)
   1bbee:	0522                	slli	a0,a0,0x8
   1bbf0:	8d4d                	or	a0,a0,a1
   1bbf2:	4ea11d23          	sh	a0,1274(sp)
   1bbf6:	4ec10e23          	sb	a2,1276(sp)
   1bbfa:	6505                	lui	a0,0x1
   1bbfc:	39450513          	addi	a0,a0,916 # 1394 <.Lline_table_start1+0x1169>
   1bc00:	00a105b3          	add	a1,sp,a0
   1bc04:	6505                	lui	a0,0x1
   1bc06:	33050513          	addi	a0,a0,816 # 1330 <.Lline_table_start1+0x1105>
   1bc0a:	950a                	add	a0,a0,sp
   1bc0c:	04e00613          	li	a2,78
   1bc10:	00003097          	auipc	ra,0x3
   1bc14:	904080e7          	jalr	-1788(ra) # 1e514 <memcpy>
   1bc18:	01845513          	srli	a0,s0,0x18
   1bc1c:	01045593          	srli	a1,s0,0x10
   1bc20:	00845613          	srli	a2,s0,0x8
   1bc24:	4e810ea3          	sb	s0,1277(sp)
   1bc28:	4ec10f23          	sb	a2,1278(sp)
   1bc2c:	4eb10fa3          	sb	a1,1279(sp)
   1bc30:	50a10023          	sb	a0,1280(sp)
   1bc34:	50110513          	addi	a0,sp,1281
   1bc38:	6585                	lui	a1,0x1
   1bc3a:	33058593          	addi	a1,a1,816 # 1330 <.Lline_table_start1+0x1105>
   1bc3e:	958a                	add	a1,a1,sp
   1bc40:	04e00613          	li	a2,78
   1bc44:	00003097          	auipc	ra,0x3
   1bc48:	8d0080e7          	jalr	-1840(ra) # 1e514 <memcpy>
   1bc4c:	6505                	lui	a0,0x1
   1bc4e:	38c50513          	addi	a0,a0,908 # 138c <.Lline_table_start1+0x1161>
   1bc52:	950a                	add	a0,a0,sp
   1bc54:	4fa10593          	addi	a1,sp,1274
   1bc58:	ffffe097          	auipc	ra,0xffffe
   1bc5c:	d40080e7          	jalr	-704(ra) # 19998 <_ZN20complex_dynamic_type3app17hf905218ab4b0289fE>
   1bc60:	3ec9c503          	lbu	a0,1004(s3)
   1bc64:	c119                	beqz	a0,1bc6a <_start+0x1e4a>
   1bc66:	7a40206f          	j	1e40a <_start+0x45ea>
   1bc6a:	3ee9c503          	lbu	a0,1006(s3)
   1bc6e:	3ed9c583          	lbu	a1,1005(s3)
   1bc72:	3ef9c603          	lbu	a2,1007(s3)
   1bc76:	3f09a403          	lw	s0,1008(s3)
   1bc7a:	0522                	slli	a0,a0,0x8
   1bc7c:	8d4d                	or	a0,a0,a1
   1bc7e:	54a11823          	sh	a0,1360(sp)
   1bc82:	54c10923          	sb	a2,1362(sp)
   1bc86:	6505                	lui	a0,0x1
   1bc88:	39450513          	addi	a0,a0,916 # 1394 <.Lline_table_start1+0x1169>
   1bc8c:	00a105b3          	add	a1,sp,a0
   1bc90:	6505                	lui	a0,0x1
   1bc92:	33050513          	addi	a0,a0,816 # 1330 <.Lline_table_start1+0x1105>
   1bc96:	950a                	add	a0,a0,sp
   1bc98:	02b00613          	li	a2,43
   1bc9c:	00003097          	auipc	ra,0x3
   1bca0:	878080e7          	jalr	-1928(ra) # 1e514 <memcpy>
   1bca4:	01845513          	srli	a0,s0,0x18
   1bca8:	01045593          	srli	a1,s0,0x10
   1bcac:	00845613          	srli	a2,s0,0x8
   1bcb0:	548109a3          	sb	s0,1363(sp)
   1bcb4:	54c10a23          	sb	a2,1364(sp)
   1bcb8:	54b10aa3          	sb	a1,1365(sp)
   1bcbc:	54a10b23          	sb	a0,1366(sp)
   1bcc0:	55710513          	addi	a0,sp,1367
   1bcc4:	6585                	lui	a1,0x1
   1bcc6:	33058593          	addi	a1,a1,816 # 1330 <.Lline_table_start1+0x1105>
   1bcca:	958a                	add	a1,a1,sp
   1bccc:	02b00613          	li	a2,43
   1bcd0:	00003097          	auipc	ra,0x3
   1bcd4:	844080e7          	jalr	-1980(ra) # 1e514 <memcpy>
   1bcd8:	6505                	lui	a0,0x1
   1bcda:	38c50513          	addi	a0,a0,908 # 138c <.Lline_table_start1+0x1161>
   1bcde:	950a                	add	a0,a0,sp
   1bce0:	55010593          	addi	a1,sp,1360
   1bce4:	ffff6097          	auipc	ra,0xffff6
   1bce8:	362080e7          	jalr	866(ra) # 12046 <_ZN20complex_dynamic_type3app17h2122739b2e03fa95E>
   1bcec:	3ec9c503          	lbu	a0,1004(s3)
   1bcf0:	c119                	beqz	a0,1bcf6 <_start+0x1ed6>
   1bcf2:	7180206f          	j	1e40a <_start+0x45ea>
   1bcf6:	3ee9c503          	lbu	a0,1006(s3)
   1bcfa:	3ed9c583          	lbu	a1,1005(s3)
   1bcfe:	3ef9c603          	lbu	a2,1007(s3)
   1bd02:	3f09a403          	lw	s0,1008(s3)
   1bd06:	0522                	slli	a0,a0,0x8
   1bd08:	8d4d                	or	a0,a0,a1
   1bd0a:	58a11123          	sh	a0,1410(sp)
   1bd0e:	58c10223          	sb	a2,1412(sp)
   1bd12:	6505                	lui	a0,0x1
   1bd14:	39450513          	addi	a0,a0,916 # 1394 <.Lline_table_start1+0x1169>
   1bd18:	00a105b3          	add	a1,sp,a0
   1bd1c:	6505                	lui	a0,0x1
   1bd1e:	33050513          	addi	a0,a0,816 # 1330 <.Lline_table_start1+0x1105>
   1bd22:	950a                	add	a0,a0,sp
   1bd24:	03a00613          	li	a2,58
   1bd28:	00002097          	auipc	ra,0x2
   1bd2c:	7ec080e7          	jalr	2028(ra) # 1e514 <memcpy>
   1bd30:	01845513          	srli	a0,s0,0x18
   1bd34:	01045593          	srli	a1,s0,0x10
   1bd38:	00845613          	srli	a2,s0,0x8
   1bd3c:	588102a3          	sb	s0,1413(sp)
   1bd40:	58c10323          	sb	a2,1414(sp)
   1bd44:	58b103a3          	sb	a1,1415(sp)
   1bd48:	58a10423          	sb	a0,1416(sp)
   1bd4c:	58910513          	addi	a0,sp,1417
   1bd50:	6585                	lui	a1,0x1
   1bd52:	33058593          	addi	a1,a1,816 # 1330 <.Lline_table_start1+0x1105>
   1bd56:	958a                	add	a1,a1,sp
   1bd58:	03a00613          	li	a2,58
   1bd5c:	00002097          	auipc	ra,0x2
   1bd60:	7b8080e7          	jalr	1976(ra) # 1e514 <memcpy>
   1bd64:	6505                	lui	a0,0x1
   1bd66:	38c50513          	addi	a0,a0,908 # 138c <.Lline_table_start1+0x1161>
   1bd6a:	950a                	add	a0,a0,sp
   1bd6c:	58210593          	addi	a1,sp,1410
   1bd70:	ffffb097          	auipc	ra,0xffffb
   1bd74:	dd2080e7          	jalr	-558(ra) # 16b42 <_ZN20complex_dynamic_type3app17ha5f79b6208c1d83dE>
   1bd78:	3ec9c503          	lbu	a0,1004(s3)
   1bd7c:	c119                	beqz	a0,1bd82 <_start+0x1f62>
   1bd7e:	68c0206f          	j	1e40a <_start+0x45ea>
   1bd82:	3ed9c503          	lbu	a0,1005(s3)
   1bd86:	3ee9c583          	lbu	a1,1006(s3)
   1bd8a:	3ef9c603          	lbu	a2,1007(s3)
   1bd8e:	3f09a683          	lw	a3,1008(s3)
   1bd92:	3f49a703          	lw	a4,1012(s3)
   1bd96:	3f89a783          	lw	a5,1016(s3)
   1bd9a:	3fc9a483          	lw	s1,1020(s3)
   1bd9e:	4009a403          	lw	s0,1024(s3)
   1bda2:	38e9a823          	sw	a4,912(s3)
   1bda6:	38f9aa23          	sw	a5,916(s3)
   1bdaa:	3899ac23          	sw	s1,920(s3)
   1bdae:	3889ae23          	sw	s0,924(s3)
   1bdb2:	4049a703          	lw	a4,1028(s3)
   1bdb6:	4089a783          	lw	a5,1032(s3)
   1bdba:	40c99483          	lh	s1,1036(s3)
   1bdbe:	40e9c403          	lbu	s0,1038(s3)
   1bdc2:	05a2                	slli	a1,a1,0x8
   1bdc4:	3ae9a023          	sw	a4,928(s3)
   1bdc8:	3af9a223          	sw	a5,932(s3)
   1bdcc:	3a999423          	sh	s1,936(s3)
   1bdd0:	3a898523          	sb	s0,938(s3)
   1bdd4:	0186d713          	srli	a4,a3,0x18
   1bdd8:	8d4d                	or	a0,a0,a1
   1bdda:	0106d593          	srli	a1,a3,0x10
   1bdde:	5cb104a3          	sb	a1,1481(sp)
   1bde2:	5ce10523          	sb	a4,1482(sp)
   1bde6:	0086d593          	srli	a1,a3,0x8
   1bdea:	5ca11223          	sh	a0,1476(sp)
   1bdee:	5cc10323          	sb	a2,1478(sp)
   1bdf2:	5cd103a3          	sb	a3,1479(sp)
   1bdf6:	5cb10423          	sb	a1,1480(sp)
   1bdfa:	5cb10513          	addi	a0,sp,1483
   1bdfe:	6585                	lui	a1,0x1
   1be00:	33058593          	addi	a1,a1,816 # 1330 <.Lline_table_start1+0x1105>
   1be04:	958a                	add	a1,a1,sp
   1be06:	466d                	li	a2,27
   1be08:	00002097          	auipc	ra,0x2
   1be0c:	70c080e7          	jalr	1804(ra) # 1e514 <memcpy>
   1be10:	6505                	lui	a0,0x1
   1be12:	38c50513          	addi	a0,a0,908 # 138c <.Lline_table_start1+0x1161>
   1be16:	950a                	add	a0,a0,sp
   1be18:	5c410593          	addi	a1,sp,1476
   1be1c:	ffffc097          	auipc	ra,0xffffc
   1be20:	520080e7          	jalr	1312(ra) # 1833c <_ZN20complex_dynamic_type3app17hd1fe9939bc492d5fE>
   1be24:	3ec9c503          	lbu	a0,1004(s3)
   1be28:	c119                	beqz	a0,1be2e <_start+0x200e>
   1be2a:	5e00206f          	j	1e40a <_start+0x45ea>
   1be2e:	3ee9c503          	lbu	a0,1006(s3)
   1be32:	3ed9c583          	lbu	a1,1005(s3)
   1be36:	3ef9c603          	lbu	a2,1007(s3)
   1be3a:	3f09a403          	lw	s0,1008(s3)
   1be3e:	0522                	slli	a0,a0,0x8
   1be40:	8d4d                	or	a0,a0,a1
   1be42:	5ea11323          	sh	a0,1510(sp)
   1be46:	5ec10423          	sb	a2,1512(sp)
   1be4a:	6505                	lui	a0,0x1
   1be4c:	39450513          	addi	a0,a0,916 # 1394 <.Lline_table_start1+0x1169>
   1be50:	00a105b3          	add	a1,sp,a0
   1be54:	6505                	lui	a0,0x1
   1be56:	33050513          	addi	a0,a0,816 # 1330 <.Lline_table_start1+0x1105>
   1be5a:	950a                	add	a0,a0,sp
   1be5c:	04a00613          	li	a2,74
   1be60:	00002097          	auipc	ra,0x2
   1be64:	6b4080e7          	jalr	1716(ra) # 1e514 <memcpy>
   1be68:	01845513          	srli	a0,s0,0x18
   1be6c:	01045593          	srli	a1,s0,0x10
   1be70:	00845613          	srli	a2,s0,0x8
   1be74:	5e8104a3          	sb	s0,1513(sp)
   1be78:	5ec10523          	sb	a2,1514(sp)
   1be7c:	5eb105a3          	sb	a1,1515(sp)
   1be80:	5ea10623          	sb	a0,1516(sp)
   1be84:	5ed10513          	addi	a0,sp,1517
   1be88:	6585                	lui	a1,0x1
   1be8a:	33058593          	addi	a1,a1,816 # 1330 <.Lline_table_start1+0x1105>
   1be8e:	958a                	add	a1,a1,sp
   1be90:	04a00613          	li	a2,74
   1be94:	00002097          	auipc	ra,0x2
   1be98:	680080e7          	jalr	1664(ra) # 1e514 <memcpy>
   1be9c:	6505                	lui	a0,0x1
   1be9e:	38c50513          	addi	a0,a0,908 # 138c <.Lline_table_start1+0x1161>
   1bea2:	950a                	add	a0,a0,sp
   1bea4:	5e610593          	addi	a1,sp,1510
   1bea8:	ffff7097          	auipc	ra,0xffff7
   1beac:	39c080e7          	jalr	924(ra) # 13244 <_ZN20complex_dynamic_type3app17h3b37cc9c17a601cbE>
   1beb0:	3ec9c503          	lbu	a0,1004(s3)
   1beb4:	c119                	beqz	a0,1beba <_start+0x209a>
   1beb6:	5540206f          	j	1e40a <_start+0x45ea>
   1beba:	3ee9c503          	lbu	a0,1006(s3)
   1bebe:	3ed9c583          	lbu	a1,1005(s3)
   1bec2:	3ef9c603          	lbu	a2,1007(s3)
   1bec6:	3f09a403          	lw	s0,1008(s3)
   1beca:	0522                	slli	a0,a0,0x8
   1becc:	8d4d                	or	a0,a0,a1
   1bece:	62a11c23          	sh	a0,1592(sp)
   1bed2:	62c10d23          	sb	a2,1594(sp)
   1bed6:	6505                	lui	a0,0x1
   1bed8:	39450513          	addi	a0,a0,916 # 1394 <.Lline_table_start1+0x1169>
   1bedc:	00a105b3          	add	a1,sp,a0
   1bee0:	6505                	lui	a0,0x1
   1bee2:	33050513          	addi	a0,a0,816 # 1330 <.Lline_table_start1+0x1105>
   1bee6:	950a                	add	a0,a0,sp
   1bee8:	04800613          	li	a2,72
   1beec:	00002097          	auipc	ra,0x2
   1bef0:	628080e7          	jalr	1576(ra) # 1e514 <memcpy>
   1bef4:	01845513          	srli	a0,s0,0x18
   1bef8:	01045593          	srli	a1,s0,0x10
   1befc:	00845613          	srli	a2,s0,0x8
   1bf00:	62810da3          	sb	s0,1595(sp)
   1bf04:	62c10e23          	sb	a2,1596(sp)
   1bf08:	62b10ea3          	sb	a1,1597(sp)
   1bf0c:	62a10f23          	sb	a0,1598(sp)
   1bf10:	63f10513          	addi	a0,sp,1599
   1bf14:	6585                	lui	a1,0x1
   1bf16:	33058593          	addi	a1,a1,816 # 1330 <.Lline_table_start1+0x1105>
   1bf1a:	958a                	add	a1,a1,sp
   1bf1c:	04800613          	li	a2,72
   1bf20:	00002097          	auipc	ra,0x2
   1bf24:	5f4080e7          	jalr	1524(ra) # 1e514 <memcpy>
   1bf28:	6505                	lui	a0,0x1
   1bf2a:	38c50513          	addi	a0,a0,908 # 138c <.Lline_table_start1+0x1161>
   1bf2e:	950a                	add	a0,a0,sp
   1bf30:	63810593          	addi	a1,sp,1592
   1bf34:	ffff8097          	auipc	ra,0xffff8
   1bf38:	f12080e7          	jalr	-238(ra) # 13e46 <_ZN20complex_dynamic_type3app17h50be64b1a29c3a01E>
   1bf3c:	3ec9c503          	lbu	a0,1004(s3)
   1bf40:	c119                	beqz	a0,1bf46 <_start+0x2126>
   1bf42:	4c80206f          	j	1e40a <_start+0x45ea>
   1bf46:	3ee9c503          	lbu	a0,1006(s3)
   1bf4a:	3ed9c583          	lbu	a1,1005(s3)
   1bf4e:	3ef9c603          	lbu	a2,1007(s3)
   1bf52:	3f09a403          	lw	s0,1008(s3)
   1bf56:	0522                	slli	a0,a0,0x8
   1bf58:	8d4d                	or	a0,a0,a1
   1bf5a:	68a11423          	sh	a0,1672(sp)
   1bf5e:	68c10523          	sb	a2,1674(sp)
   1bf62:	6505                	lui	a0,0x1
   1bf64:	39450513          	addi	a0,a0,916 # 1394 <.Lline_table_start1+0x1169>
   1bf68:	00a105b3          	add	a1,sp,a0
   1bf6c:	6505                	lui	a0,0x1
   1bf6e:	33050513          	addi	a0,a0,816 # 1330 <.Lline_table_start1+0x1105>
   1bf72:	950a                	add	a0,a0,sp
   1bf74:	03400613          	li	a2,52
   1bf78:	00002097          	auipc	ra,0x2
   1bf7c:	59c080e7          	jalr	1436(ra) # 1e514 <memcpy>
   1bf80:	01845513          	srli	a0,s0,0x18
   1bf84:	01045593          	srli	a1,s0,0x10
   1bf88:	00845613          	srli	a2,s0,0x8
   1bf8c:	688105a3          	sb	s0,1675(sp)
   1bf90:	68c10623          	sb	a2,1676(sp)
   1bf94:	68b106a3          	sb	a1,1677(sp)
   1bf98:	68a10723          	sb	a0,1678(sp)
   1bf9c:	68f10513          	addi	a0,sp,1679
   1bfa0:	6585                	lui	a1,0x1
   1bfa2:	33058593          	addi	a1,a1,816 # 1330 <.Lline_table_start1+0x1105>
   1bfa6:	958a                	add	a1,a1,sp
   1bfa8:	03400613          	li	a2,52
   1bfac:	00002097          	auipc	ra,0x2
   1bfb0:	568080e7          	jalr	1384(ra) # 1e514 <memcpy>
   1bfb4:	6505                	lui	a0,0x1
   1bfb6:	38c50513          	addi	a0,a0,908 # 138c <.Lline_table_start1+0x1161>
   1bfba:	950a                	add	a0,a0,sp
   1bfbc:	68810593          	addi	a1,sp,1672
   1bfc0:	ffff9097          	auipc	ra,0xffff9
   1bfc4:	a78080e7          	jalr	-1416(ra) # 14a38 <_ZN20complex_dynamic_type3app17h73ba81ca0cdfe7dfE>
   1bfc8:	3ec9c503          	lbu	a0,1004(s3)
   1bfcc:	c119                	beqz	a0,1bfd2 <_start+0x21b2>
   1bfce:	43c0206f          	j	1e40a <_start+0x45ea>
   1bfd2:	3ed9c503          	lbu	a0,1005(s3)
   1bfd6:	3ee9c583          	lbu	a1,1006(s3)
   1bfda:	3ef9c603          	lbu	a2,1007(s3)
   1bfde:	3f09a683          	lw	a3,1008(s3)
   1bfe2:	3f49a703          	lw	a4,1012(s3)
   1bfe6:	3f89a783          	lw	a5,1016(s3)
   1bfea:	3fc9a483          	lw	s1,1020(s3)
   1bfee:	4009a403          	lw	s0,1024(s3)
   1bff2:	38e9a823          	sw	a4,912(s3)
   1bff6:	38f9aa23          	sw	a5,916(s3)
   1bffa:	3899ac23          	sw	s1,920(s3)
   1bffe:	3889ae23          	sw	s0,924(s3)
   1c002:	4049a703          	lw	a4,1028(s3)
   1c006:	4089a783          	lw	a5,1032(s3)
   1c00a:	40c9a483          	lw	s1,1036(s3)
   1c00e:	4109a403          	lw	s0,1040(s3)
   1c012:	05a2                	slli	a1,a1,0x8
   1c014:	3ae9a023          	sw	a4,928(s3)
   1c018:	3af9a223          	sw	a5,932(s3)
   1c01c:	3a99a423          	sw	s1,936(s3)
   1c020:	3a89a623          	sw	s0,940(s3)
   1c024:	0186d713          	srli	a4,a3,0x18
   1c028:	8d4d                	or	a0,a0,a1
   1c02a:	0106d593          	srli	a1,a3,0x10
   1c02e:	6cb104a3          	sb	a1,1737(sp)
   1c032:	6ce10523          	sb	a4,1738(sp)
   1c036:	0086d593          	srli	a1,a3,0x8
   1c03a:	6ca11223          	sh	a0,1732(sp)
   1c03e:	6cc10323          	sb	a2,1734(sp)
   1c042:	6cd103a3          	sb	a3,1735(sp)
   1c046:	6cb10423          	sb	a1,1736(sp)
   1c04a:	6cb10513          	addi	a0,sp,1739
   1c04e:	6585                	lui	a1,0x1
   1c050:	33058593          	addi	a1,a1,816 # 1330 <.Lline_table_start1+0x1105>
   1c054:	958a                	add	a1,a1,sp
   1c056:	02000613          	li	a2,32
   1c05a:	00002097          	auipc	ra,0x2
   1c05e:	4ba080e7          	jalr	1210(ra) # 1e514 <memcpy>
   1c062:	6505                	lui	a0,0x1
   1c064:	38c50513          	addi	a0,a0,908 # 138c <.Lline_table_start1+0x1161>
   1c068:	950a                	add	a0,a0,sp
   1c06a:	6c410593          	addi	a1,sp,1732
   1c06e:	ffff7097          	auipc	ra,0xffff7
   1c072:	4d2080e7          	jalr	1234(ra) # 13540 <_ZN20complex_dynamic_type3app17h3fef7c658bfbe4f5E>
   1c076:	3ec9c503          	lbu	a0,1004(s3)
   1c07a:	c119                	beqz	a0,1c080 <_start+0x2260>
   1c07c:	38e0206f          	j	1e40a <_start+0x45ea>
   1c080:	3ed9c503          	lbu	a0,1005(s3)
   1c084:	3ee9c583          	lbu	a1,1006(s3)
   1c088:	3ef9c603          	lbu	a2,1007(s3)
   1c08c:	3f09a683          	lw	a3,1008(s3)
   1c090:	3f49a703          	lw	a4,1012(s3)
   1c094:	3f89a783          	lw	a5,1016(s3)
   1c098:	3fc9a483          	lw	s1,1020(s3)
   1c09c:	4009c403          	lbu	s0,1024(s3)
   1c0a0:	05a2                	slli	a1,a1,0x8
   1c0a2:	38e9a823          	sw	a4,912(s3)
   1c0a6:	38f9aa23          	sw	a5,916(s3)
   1c0aa:	3899ac23          	sw	s1,920(s3)
   1c0ae:	38898e23          	sb	s0,924(s3)
   1c0b2:	0186d713          	srli	a4,a3,0x18
   1c0b6:	8d4d                	or	a0,a0,a1
   1c0b8:	0106d593          	srli	a1,a3,0x10
   1c0bc:	6eb108a3          	sb	a1,1777(sp)
   1c0c0:	6ee10923          	sb	a4,1778(sp)
   1c0c4:	0086d593          	srli	a1,a3,0x8
   1c0c8:	6ea11623          	sh	a0,1772(sp)
   1c0cc:	6ec10723          	sb	a2,1774(sp)
   1c0d0:	6ed107a3          	sb	a3,1775(sp)
   1c0d4:	6eb10823          	sb	a1,1776(sp)
   1c0d8:	6f310513          	addi	a0,sp,1779
   1c0dc:	6585                	lui	a1,0x1
   1c0de:	33058593          	addi	a1,a1,816 # 1330 <.Lline_table_start1+0x1105>
   1c0e2:	958a                	add	a1,a1,sp
   1c0e4:	4635                	li	a2,13
   1c0e6:	00002097          	auipc	ra,0x2
   1c0ea:	42e080e7          	jalr	1070(ra) # 1e514 <memcpy>
   1c0ee:	6505                	lui	a0,0x1
   1c0f0:	38c50513          	addi	a0,a0,908 # 138c <.Lline_table_start1+0x1161>
   1c0f4:	950a                	add	a0,a0,sp
   1c0f6:	6ec10593          	addi	a1,sp,1772
   1c0fa:	ffff9097          	auipc	ra,0xffff9
   1c0fe:	24e080e7          	jalr	590(ra) # 15348 <_ZN20complex_dynamic_type3app17h7c0b0c30f5e843e4E>
   1c102:	3ec9c503          	lbu	a0,1004(s3)
   1c106:	c119                	beqz	a0,1c10c <_start+0x22ec>
   1c108:	3020206f          	j	1e40a <_start+0x45ea>
   1c10c:	3ee9c503          	lbu	a0,1006(s3)
   1c110:	3ed9c583          	lbu	a1,1005(s3)
   1c114:	3ef9c603          	lbu	a2,1007(s3)
   1c118:	3f09a403          	lw	s0,1008(s3)
   1c11c:	0522                	slli	a0,a0,0x8
   1c11e:	8d4d                	or	a0,a0,a1
   1c120:	70a11023          	sh	a0,1792(sp)
   1c124:	70c10123          	sb	a2,1794(sp)
   1c128:	6505                	lui	a0,0x1
   1c12a:	39450513          	addi	a0,a0,916 # 1394 <.Lline_table_start1+0x1169>
   1c12e:	00a105b3          	add	a1,sp,a0
   1c132:	6505                	lui	a0,0x1
   1c134:	33050513          	addi	a0,a0,816 # 1330 <.Lline_table_start1+0x1105>
   1c138:	950a                	add	a0,a0,sp
   1c13a:	02400613          	li	a2,36
   1c13e:	00002097          	auipc	ra,0x2
   1c142:	3d6080e7          	jalr	982(ra) # 1e514 <memcpy>
   1c146:	01845513          	srli	a0,s0,0x18
   1c14a:	01045593          	srli	a1,s0,0x10
   1c14e:	00845613          	srli	a2,s0,0x8
   1c152:	708101a3          	sb	s0,1795(sp)
   1c156:	70c10223          	sb	a2,1796(sp)
   1c15a:	70b102a3          	sb	a1,1797(sp)
   1c15e:	70a10323          	sb	a0,1798(sp)
   1c162:	70710513          	addi	a0,sp,1799
   1c166:	6585                	lui	a1,0x1
   1c168:	33058593          	addi	a1,a1,816 # 1330 <.Lline_table_start1+0x1105>
   1c16c:	958a                	add	a1,a1,sp
   1c16e:	02400613          	li	a2,36
   1c172:	00002097          	auipc	ra,0x2
   1c176:	3a2080e7          	jalr	930(ra) # 1e514 <memcpy>
   1c17a:	6505                	lui	a0,0x1
   1c17c:	38c50513          	addi	a0,a0,908 # 138c <.Lline_table_start1+0x1161>
   1c180:	950a                	add	a0,a0,sp
   1c182:	70010593          	addi	a1,sp,1792
   1c186:	ffffd097          	auipc	ra,0xffffd
   1c18a:	39c080e7          	jalr	924(ra) # 19522 <_ZN20complex_dynamic_type3app17hf22a8b5a8873b017E>
   1c18e:	3ec9c503          	lbu	a0,1004(s3)
   1c192:	c119                	beqz	a0,1c198 <_start+0x2378>
   1c194:	2760206f          	j	1e40a <_start+0x45ea>
   1c198:	3ed9c503          	lbu	a0,1005(s3)
   1c19c:	3ee9c583          	lbu	a1,1006(s3)
   1c1a0:	3ef9c603          	lbu	a2,1007(s3)
   1c1a4:	3f09a683          	lw	a3,1008(s3)
   1c1a8:	3f49a703          	lw	a4,1012(s3)
   1c1ac:	3f89a783          	lw	a5,1016(s3)
   1c1b0:	3fc9a483          	lw	s1,1020(s3)
   1c1b4:	4009a403          	lw	s0,1024(s3)
   1c1b8:	38e9a823          	sw	a4,912(s3)
   1c1bc:	38f9aa23          	sw	a5,916(s3)
   1c1c0:	3899ac23          	sw	s1,920(s3)
   1c1c4:	3889ae23          	sw	s0,924(s3)
   1c1c8:	4049a703          	lw	a4,1028(s3)
   1c1cc:	40899783          	lh	a5,1032(s3)
   1c1d0:	40a9c483          	lbu	s1,1034(s3)
   1c1d4:	05a2                	slli	a1,a1,0x8
   1c1d6:	3ae9a023          	sw	a4,928(s3)
   1c1da:	3af99223          	sh	a5,932(s3)
   1c1de:	3a998323          	sb	s1,934(s3)
   1c1e2:	0186d713          	srli	a4,a3,0x18
   1c1e6:	8d4d                	or	a0,a0,a1
   1c1e8:	0106d593          	srli	a1,a3,0x10
   1c1ec:	72b108a3          	sb	a1,1841(sp)
   1c1f0:	72e10923          	sb	a4,1842(sp)
   1c1f4:	0086d593          	srli	a1,a3,0x8
   1c1f8:	72a11623          	sh	a0,1836(sp)
   1c1fc:	72c10723          	sb	a2,1838(sp)
   1c200:	72d107a3          	sb	a3,1839(sp)
   1c204:	72b10823          	sb	a1,1840(sp)
   1c208:	73310513          	addi	a0,sp,1843
   1c20c:	6585                	lui	a1,0x1
   1c20e:	33058593          	addi	a1,a1,816 # 1330 <.Lline_table_start1+0x1105>
   1c212:	958a                	add	a1,a1,sp
   1c214:	465d                	li	a2,23
   1c216:	00002097          	auipc	ra,0x2
   1c21a:	2fe080e7          	jalr	766(ra) # 1e514 <memcpy>
   1c21e:	6505                	lui	a0,0x1
   1c220:	38c50513          	addi	a0,a0,908 # 138c <.Lline_table_start1+0x1161>
   1c224:	950a                	add	a0,a0,sp
   1c226:	72c10593          	addi	a1,sp,1836
   1c22a:	ffff8097          	auipc	ra,0xffff8
   1c22e:	094080e7          	jalr	148(ra) # 142be <_ZN20complex_dynamic_type3app17h64760dec0da36e91E>
   1c232:	3ec9c503          	lbu	a0,1004(s3)
   1c236:	c119                	beqz	a0,1c23c <_start+0x241c>
   1c238:	1d20206f          	j	1e40a <_start+0x45ea>
   1c23c:	3ee9c503          	lbu	a0,1006(s3)
   1c240:	3ed9c583          	lbu	a1,1005(s3)
   1c244:	3ef9c603          	lbu	a2,1007(s3)
   1c248:	3f09a403          	lw	s0,1008(s3)
   1c24c:	0522                	slli	a0,a0,0x8
   1c24e:	8d4d                	or	a0,a0,a1
   1c250:	74a11523          	sh	a0,1866(sp)
   1c254:	74c10623          	sb	a2,1868(sp)
   1c258:	6505                	lui	a0,0x1
   1c25a:	39450513          	addi	a0,a0,916 # 1394 <.Lline_table_start1+0x1169>
   1c25e:	00a105b3          	add	a1,sp,a0
   1c262:	6505                	lui	a0,0x1
   1c264:	33050513          	addi	a0,a0,816 # 1330 <.Lline_table_start1+0x1105>
   1c268:	950a                	add	a0,a0,sp
   1c26a:	04a00613          	li	a2,74
   1c26e:	00002097          	auipc	ra,0x2
   1c272:	2a6080e7          	jalr	678(ra) # 1e514 <memcpy>
   1c276:	01845513          	srli	a0,s0,0x18
   1c27a:	01045593          	srli	a1,s0,0x10
   1c27e:	00845613          	srli	a2,s0,0x8
   1c282:	748106a3          	sb	s0,1869(sp)
   1c286:	74c10723          	sb	a2,1870(sp)
   1c28a:	74b107a3          	sb	a1,1871(sp)
   1c28e:	74a10823          	sb	a0,1872(sp)
   1c292:	75110513          	addi	a0,sp,1873
   1c296:	6585                	lui	a1,0x1
   1c298:	33058593          	addi	a1,a1,816 # 1330 <.Lline_table_start1+0x1105>
   1c29c:	958a                	add	a1,a1,sp
   1c29e:	04a00613          	li	a2,74
   1c2a2:	00002097          	auipc	ra,0x2
   1c2a6:	272080e7          	jalr	626(ra) # 1e514 <memcpy>
   1c2aa:	6505                	lui	a0,0x1
   1c2ac:	38c50513          	addi	a0,a0,908 # 138c <.Lline_table_start1+0x1161>
   1c2b0:	950a                	add	a0,a0,sp
   1c2b2:	74a10593          	addi	a1,sp,1866
   1c2b6:	ffffc097          	auipc	ra,0xffffc
   1c2ba:	378080e7          	jalr	888(ra) # 1862e <_ZN20complex_dynamic_type3app17hd7730f3317397384E>
   1c2be:	3ec9c503          	lbu	a0,1004(s3)
   1c2c2:	c119                	beqz	a0,1c2c8 <_start+0x24a8>
   1c2c4:	1460206f          	j	1e40a <_start+0x45ea>
   1c2c8:	79e10413          	addi	s0,sp,1950
   1c2cc:	3ed9c303          	lbu	t1,1005(s3)
   1c2d0:	3ee9c583          	lbu	a1,1006(s3)
   1c2d4:	3ef9c803          	lbu	a6,1007(s3)
   1c2d8:	3f09a683          	lw	a3,1008(s3)
   1c2dc:	3f49a703          	lw	a4,1012(s3)
   1c2e0:	3f89a783          	lw	a5,1016(s3)
   1c2e4:	05a2                	slli	a1,a1,0x8
   1c2e6:	0186d893          	srli	a7,a3,0x18
   1c2ea:	0106d293          	srli	t0,a3,0x10
   1c2ee:	0187d493          	srli	s1,a5,0x18
   1c2f2:	0107d613          	srli	a2,a5,0x10
   1c2f6:	0087d513          	srli	a0,a5,0x8
   1c2fa:	0065e333          	or	t1,a1,t1
   1c2fe:	01875593          	srli	a1,a4,0x18
   1c302:	00c405a3          	sb	a2,11(s0)
   1c306:	00940623          	sb	s1,12(s0)
   1c30a:	01075613          	srli	a2,a4,0x10
   1c30e:	00c403a3          	sb	a2,7(s0)
   1c312:	00b40423          	sb	a1,8(s0)
   1c316:	00f404a3          	sb	a5,9(s0)
   1c31a:	00a40523          	sb	a0,10(s0)
   1c31e:	0086d513          	srli	a0,a3,0x8
   1c322:	fe641f23          	sh	t1,-2(s0)
   1c326:	01040023          	sb	a6,0(s0)
   1c32a:	00d400a3          	sb	a3,1(s0)
   1c32e:	00a40123          	sb	a0,2(s0)
   1c332:	00875513          	srli	a0,a4,0x8
   1c336:	005401a3          	sb	t0,3(s0)
   1c33a:	01140223          	sb	a7,4(s0)
   1c33e:	00e402a3          	sb	a4,5(s0)
   1c342:	00a40323          	sb	a0,6(s0)
   1c346:	6505                	lui	a0,0x1
   1c348:	38c50513          	addi	a0,a0,908 # 138c <.Lline_table_start1+0x1161>
   1c34c:	950a                	add	a0,a0,sp
   1c34e:	79c10593          	addi	a1,sp,1948
   1c352:	ffff6097          	auipc	ra,0xffff6
   1c356:	e78080e7          	jalr	-392(ra) # 121ca <_ZN20complex_dynamic_type3app17h2585f9d9b4e9f153E>
   1c35a:	3ec9c503          	lbu	a0,1004(s3)
   1c35e:	c119                	beqz	a0,1c364 <_start+0x2544>
   1c360:	0aa0206f          	j	1e40a <_start+0x45ea>
   1c364:	3ee9c503          	lbu	a0,1006(s3)
   1c368:	3ed9c583          	lbu	a1,1005(s3)
   1c36c:	3ef9c603          	lbu	a2,1007(s3)
   1c370:	3f09a483          	lw	s1,1008(s3)
   1c374:	0522                	slli	a0,a0,0x8
   1c376:	8d4d                	or	a0,a0,a1
   1c378:	00a41723          	sh	a0,14(s0)
   1c37c:	00c40823          	sb	a2,16(s0)
   1c380:	6505                	lui	a0,0x1
   1c382:	39450513          	addi	a0,a0,916 # 1394 <.Lline_table_start1+0x1169>
   1c386:	00a105b3          	add	a1,sp,a0
   1c38a:	6505                	lui	a0,0x1
   1c38c:	33050513          	addi	a0,a0,816 # 1330 <.Lline_table_start1+0x1105>
   1c390:	950a                	add	a0,a0,sp
   1c392:	03f00613          	li	a2,63
   1c396:	00002097          	auipc	ra,0x2
   1c39a:	17e080e7          	jalr	382(ra) # 1e514 <memcpy>
   1c39e:	0184d513          	srli	a0,s1,0x18
   1c3a2:	0104d593          	srli	a1,s1,0x10
   1c3a6:	0084d613          	srli	a2,s1,0x8
   1c3aa:	009408a3          	sb	s1,17(s0)
   1c3ae:	00c40923          	sb	a2,18(s0)
   1c3b2:	00b409a3          	sb	a1,19(s0)
   1c3b6:	00a40a23          	sb	a0,20(s0)
   1c3ba:	7b310513          	addi	a0,sp,1971
   1c3be:	6585                	lui	a1,0x1
   1c3c0:	33058593          	addi	a1,a1,816 # 1330 <.Lline_table_start1+0x1105>
   1c3c4:	958a                	add	a1,a1,sp
   1c3c6:	03f00613          	li	a2,63
   1c3ca:	00002097          	auipc	ra,0x2
   1c3ce:	14a080e7          	jalr	330(ra) # 1e514 <memcpy>
   1c3d2:	6505                	lui	a0,0x1
   1c3d4:	38c50513          	addi	a0,a0,908 # 138c <.Lline_table_start1+0x1161>
   1c3d8:	950a                	add	a0,a0,sp
   1c3da:	7ac10593          	addi	a1,sp,1964
   1c3de:	ffff8097          	auipc	ra,0xffff8
   1c3e2:	4d4080e7          	jalr	1236(ra) # 148b2 <_ZN20complex_dynamic_type3app17h72579b702194d565E>
   1c3e6:	3ec9c503          	lbu	a0,1004(s3)
   1c3ea:	c119                	beqz	a0,1c3f0 <_start+0x25d0>
   1c3ec:	01e0206f          	j	1e40a <_start+0x45ea>
   1c3f0:	3ee9c503          	lbu	a0,1006(s3)
   1c3f4:	3ed9c583          	lbu	a1,1005(s3)
   1c3f8:	3ef9c603          	lbu	a2,1007(s3)
   1c3fc:	3f09a483          	lw	s1,1008(s3)
   1c400:	0522                	slli	a0,a0,0x8
   1c402:	8d4d                	or	a0,a0,a1
   1c404:	04a41a23          	sh	a0,84(s0)
   1c408:	04c40b23          	sb	a2,86(s0)
   1c40c:	6505                	lui	a0,0x1
   1c40e:	39450513          	addi	a0,a0,916 # 1394 <.Lline_table_start1+0x1169>
   1c412:	00a105b3          	add	a1,sp,a0
   1c416:	6505                	lui	a0,0x1
   1c418:	33050513          	addi	a0,a0,816 # 1330 <.Lline_table_start1+0x1105>
   1c41c:	950a                	add	a0,a0,sp
   1c41e:	04f00613          	li	a2,79
   1c422:	00002097          	auipc	ra,0x2
   1c426:	0f2080e7          	jalr	242(ra) # 1e514 <memcpy>
   1c42a:	0184d513          	srli	a0,s1,0x18
   1c42e:	0104d593          	srli	a1,s1,0x10
   1c432:	0084d613          	srli	a2,s1,0x8
   1c436:	04940ba3          	sb	s1,87(s0)
   1c43a:	04c40c23          	sb	a2,88(s0)
   1c43e:	04b40ca3          	sb	a1,89(s0)
   1c442:	04a40d23          	sb	a0,90(s0)
   1c446:	7f910513          	addi	a0,sp,2041
   1c44a:	6585                	lui	a1,0x1
   1c44c:	33058593          	addi	a1,a1,816 # 1330 <.Lline_table_start1+0x1105>
   1c450:	958a                	add	a1,a1,sp
   1c452:	04f00613          	li	a2,79
   1c456:	00002097          	auipc	ra,0x2
   1c45a:	0be080e7          	jalr	190(ra) # 1e514 <memcpy>
   1c45e:	6505                	lui	a0,0x1
   1c460:	38c50513          	addi	a0,a0,908 # 138c <.Lline_table_start1+0x1161>
   1c464:	950a                	add	a0,a0,sp
   1c466:	7f210593          	addi	a1,sp,2034
   1c46a:	ffffb097          	auipc	ra,0xffffb
   1c46e:	9d6080e7          	jalr	-1578(ra) # 16e40 <_ZN20complex_dynamic_type3app17hac1c272ffb6718b1E>
   1c472:	3ec9c503          	lbu	a0,1004(s3)
   1c476:	c119                	beqz	a0,1c47c <_start+0x265c>
   1c478:	7930106f          	j	1e40a <_start+0x45ea>
   1c47c:	3ee9c503          	lbu	a0,1006(s3)
   1c480:	3ed9c583          	lbu	a1,1005(s3)
   1c484:	3ef9c603          	lbu	a2,1007(s3)
   1c488:	3f09a483          	lw	s1,1008(s3)
   1c48c:	0522                	slli	a0,a0,0x8
   1c48e:	8d4d                	or	a0,a0,a1
   1c490:	0aa41523          	sh	a0,170(s0)
   1c494:	0ac40623          	sb	a2,172(s0)
   1c498:	6505                	lui	a0,0x1
   1c49a:	39450513          	addi	a0,a0,916 # 1394 <.Lline_table_start1+0x1169>
   1c49e:	00a105b3          	add	a1,sp,a0
   1c4a2:	6505                	lui	a0,0x1
   1c4a4:	33050513          	addi	a0,a0,816 # 1330 <.Lline_table_start1+0x1105>
   1c4a8:	950a                	add	a0,a0,sp
   1c4aa:	04200613          	li	a2,66
   1c4ae:	00002097          	auipc	ra,0x2
   1c4b2:	066080e7          	jalr	102(ra) # 1e514 <memcpy>
   1c4b6:	0184d513          	srli	a0,s1,0x18
   1c4ba:	0104d593          	srli	a1,s1,0x10
   1c4be:	0084d613          	srli	a2,s1,0x8
   1c4c2:	0a9406a3          	sb	s1,173(s0)
   1c4c6:	0ac40723          	sb	a2,174(s0)
   1c4ca:	0ab407a3          	sb	a1,175(s0)
   1c4ce:	0aa40823          	sb	a0,176(s0)
   1c4d2:	7ff10513          	addi	a0,sp,2047
   1c4d6:	05050513          	addi	a0,a0,80
   1c4da:	6585                	lui	a1,0x1
   1c4dc:	33058593          	addi	a1,a1,816 # 1330 <.Lline_table_start1+0x1105>
   1c4e0:	958a                	add	a1,a1,sp
   1c4e2:	04200613          	li	a2,66
   1c4e6:	00002097          	auipc	ra,0x2
   1c4ea:	02e080e7          	jalr	46(ra) # 1e514 <memcpy>
   1c4ee:	6505                	lui	a0,0x1
   1c4f0:	38c50513          	addi	a0,a0,908 # 138c <.Lline_table_start1+0x1161>
   1c4f4:	950a                	add	a0,a0,sp
   1c4f6:	7ff10593          	addi	a1,sp,2047
   1c4fa:	04958593          	addi	a1,a1,73
   1c4fe:	ffff7097          	auipc	ra,0xffff7
   1c502:	bc0080e7          	jalr	-1088(ra) # 130be <_ZN20complex_dynamic_type3app17h3941f561cd146f03E>
   1c506:	3ec9c503          	lbu	a0,1004(s3)
   1c50a:	c119                	beqz	a0,1c510 <_start+0x26f0>
   1c50c:	6ff0106f          	j	1e40a <_start+0x45ea>
   1c510:	3ed9c503          	lbu	a0,1005(s3)
   1c514:	3ee9c583          	lbu	a1,1006(s3)
   1c518:	3ef9c803          	lbu	a6,1007(s3)
   1c51c:	3f09a683          	lw	a3,1008(s3)
   1c520:	3f49a703          	lw	a4,1012(s3)
   1c524:	3f89a783          	lw	a5,1016(s3)
   1c528:	3fc9a483          	lw	s1,1020(s3)
   1c52c:	4009a603          	lw	a2,1024(s3)
   1c530:	38e9a823          	sw	a4,912(s3)
   1c534:	38f9aa23          	sw	a5,916(s3)
   1c538:	3899ac23          	sw	s1,920(s3)
   1c53c:	38c9ae23          	sw	a2,924(s3)
   1c540:	4049a603          	lw	a2,1028(s3)
   1c544:	4089a703          	lw	a4,1032(s3)
   1c548:	40c9a783          	lw	a5,1036(s3)
   1c54c:	05a2                	slli	a1,a1,0x8
   1c54e:	3ac9a023          	sw	a2,928(s3)
   1c552:	3ae9a223          	sw	a4,932(s3)
   1c556:	3af9a423          	sw	a5,936(s3)
   1c55a:	0186d613          	srli	a2,a3,0x18
   1c55e:	8d4d                	or	a0,a0,a1
   1c560:	0106d593          	srli	a1,a3,0x10
   1c564:	0eb40ca3          	sb	a1,249(s0)
   1c568:	0ec40d23          	sb	a2,250(s0)
   1c56c:	0086d593          	srli	a1,a3,0x8
   1c570:	0ea41a23          	sh	a0,244(s0)
   1c574:	0f040b23          	sb	a6,246(s0)
   1c578:	0ed40ba3          	sb	a3,247(s0)
   1c57c:	0eb40c23          	sb	a1,248(s0)
   1c580:	7ff10513          	addi	a0,sp,2047
   1c584:	09a50513          	addi	a0,a0,154
   1c588:	6585                	lui	a1,0x1
   1c58a:	33058593          	addi	a1,a1,816 # 1330 <.Lline_table_start1+0x1105>
   1c58e:	958a                	add	a1,a1,sp
   1c590:	4671                	li	a2,28
   1c592:	00002097          	auipc	ra,0x2
   1c596:	f82080e7          	jalr	-126(ra) # 1e514 <memcpy>
   1c59a:	6505                	lui	a0,0x1
   1c59c:	38c50513          	addi	a0,a0,908 # 138c <.Lline_table_start1+0x1161>
   1c5a0:	950a                	add	a0,a0,sp
   1c5a2:	7ff10593          	addi	a1,sp,2047
   1c5a6:	09358593          	addi	a1,a1,147
   1c5aa:	ffff7097          	auipc	ra,0xffff7
   1c5ae:	290080e7          	jalr	656(ra) # 1383a <_ZN20complex_dynamic_type3app17h4567255702332f3cE>
   1c5b2:	3ec9c503          	lbu	a0,1004(s3)
   1c5b6:	c119                	beqz	a0,1c5bc <_start+0x279c>
   1c5b8:	6530106f          	j	1e40a <_start+0x45ea>
   1c5bc:	3ee9c503          	lbu	a0,1006(s3)
   1c5c0:	3ed9c583          	lbu	a1,1005(s3)
   1c5c4:	3ef9c603          	lbu	a2,1007(s3)
   1c5c8:	3f09a483          	lw	s1,1008(s3)
   1c5cc:	0522                	slli	a0,a0,0x8
   1c5ce:	8d4d                	or	a0,a0,a1
   1c5d0:	10a41c23          	sh	a0,280(s0)
   1c5d4:	10c40d23          	sb	a2,282(s0)
   1c5d8:	6505                	lui	a0,0x1
   1c5da:	39450513          	addi	a0,a0,916 # 1394 <.Lline_table_start1+0x1169>
   1c5de:	00a105b3          	add	a1,sp,a0
   1c5e2:	6505                	lui	a0,0x1
   1c5e4:	33050513          	addi	a0,a0,816 # 1330 <.Lline_table_start1+0x1105>
   1c5e8:	950a                	add	a0,a0,sp
   1c5ea:	02400613          	li	a2,36
   1c5ee:	00002097          	auipc	ra,0x2
   1c5f2:	f26080e7          	jalr	-218(ra) # 1e514 <memcpy>
   1c5f6:	0184d513          	srli	a0,s1,0x18
   1c5fa:	0104d593          	srli	a1,s1,0x10
   1c5fe:	0084d613          	srli	a2,s1,0x8
   1c602:	10940da3          	sb	s1,283(s0)
   1c606:	10c40e23          	sb	a2,284(s0)
   1c60a:	10b40ea3          	sb	a1,285(s0)
   1c60e:	10a40f23          	sb	a0,286(s0)
   1c612:	7ff10513          	addi	a0,sp,2047
   1c616:	0be50513          	addi	a0,a0,190
   1c61a:	6585                	lui	a1,0x1
   1c61c:	33058593          	addi	a1,a1,816 # 1330 <.Lline_table_start1+0x1105>
   1c620:	958a                	add	a1,a1,sp
   1c622:	02400613          	li	a2,36
   1c626:	00002097          	auipc	ra,0x2
   1c62a:	eee080e7          	jalr	-274(ra) # 1e514 <memcpy>
   1c62e:	6505                	lui	a0,0x1
   1c630:	38c50513          	addi	a0,a0,908 # 138c <.Lline_table_start1+0x1161>
   1c634:	950a                	add	a0,a0,sp
   1c636:	7ff10593          	addi	a1,sp,2047
   1c63a:	0b758593          	addi	a1,a1,183
   1c63e:	ffffd097          	auipc	ra,0xffffd
   1c642:	4de080e7          	jalr	1246(ra) # 19b1c <_ZN20complex_dynamic_type3app17hff8fc61e47f2eaa9E>
   1c646:	3ec9c503          	lbu	a0,1004(s3)
   1c64a:	c119                	beqz	a0,1c650 <_start+0x2830>
   1c64c:	5bf0106f          	j	1e40a <_start+0x45ea>
   1c650:	3ed9c503          	lbu	a0,1005(s3)
   1c654:	3ee9c583          	lbu	a1,1006(s3)
   1c658:	3f49a603          	lw	a2,1012(s3)
   1c65c:	3f899683          	lh	a3,1016(s3)
   1c660:	3ef9c703          	lbu	a4,1007(s3)
   1c664:	3f09a783          	lw	a5,1008(s3)
   1c668:	05a2                	slli	a1,a1,0x8
   1c66a:	38c9a823          	sw	a2,912(s3)
   1c66e:	38d99a23          	sh	a3,916(s3)
   1c672:	0187d693          	srli	a3,a5,0x18
   1c676:	0107d493          	srli	s1,a5,0x10
   1c67a:	8d4d                	or	a0,a0,a1
   1c67c:	0087d593          	srli	a1,a5,0x8
   1c680:	14a41223          	sh	a0,324(s0)
   1c684:	14e40323          	sb	a4,326(s0)
   1c688:	14f403a3          	sb	a5,327(s0)
   1c68c:	14b40423          	sb	a1,328(s0)
   1c690:	3919c503          	lbu	a0,913(s3)
   1c694:	3929c583          	lbu	a1,914(s3)
   1c698:	3939c703          	lbu	a4,915(s3)
   1c69c:	3949c783          	lbu	a5,916(s3)
   1c6a0:	149404a3          	sb	s1,329(s0)
   1c6a4:	14d40523          	sb	a3,330(s0)
   1c6a8:	14c405a3          	sb	a2,331(s0)
   1c6ac:	14a40623          	sb	a0,332(s0)
   1c6b0:	3959c503          	lbu	a0,917(s3)
   1c6b4:	14b406a3          	sb	a1,333(s0)
   1c6b8:	14e40723          	sb	a4,334(s0)
   1c6bc:	14f407a3          	sb	a5,335(s0)
   1c6c0:	14a40823          	sb	a0,336(s0)
   1c6c4:	6505                	lui	a0,0x1
   1c6c6:	38c50513          	addi	a0,a0,908 # 138c <.Lline_table_start1+0x1161>
   1c6ca:	950a                	add	a0,a0,sp
   1c6cc:	7ff10593          	addi	a1,sp,2047
   1c6d0:	0e358593          	addi	a1,a1,227
   1c6d4:	ffffb097          	auipc	ra,0xffffb
   1c6d8:	d72080e7          	jalr	-654(ra) # 17446 <_ZN20complex_dynamic_type3app17hb991f427dc4e78e6E>
   1c6dc:	3ec9c503          	lbu	a0,1004(s3)
   1c6e0:	c119                	beqz	a0,1c6e6 <_start+0x28c6>
   1c6e2:	5290106f          	j	1e40a <_start+0x45ea>
   1c6e6:	3ed9c503          	lbu	a0,1005(s3)
   1c6ea:	3ee9c583          	lbu	a1,1006(s3)
   1c6ee:	3ef9c803          	lbu	a6,1007(s3)
   1c6f2:	3f09a683          	lw	a3,1008(s3)
   1c6f6:	3f49a703          	lw	a4,1012(s3)
   1c6fa:	3f89a783          	lw	a5,1016(s3)
   1c6fe:	3fc9a483          	lw	s1,1020(s3)
   1c702:	4009a603          	lw	a2,1024(s3)
   1c706:	38e9a823          	sw	a4,912(s3)
   1c70a:	38f9aa23          	sw	a5,916(s3)
   1c70e:	3899ac23          	sw	s1,920(s3)
   1c712:	38c9ae23          	sw	a2,924(s3)
   1c716:	4049a603          	lw	a2,1028(s3)
   1c71a:	4089a703          	lw	a4,1032(s3)
   1c71e:	40c99783          	lh	a5,1036(s3)
   1c722:	05a2                	slli	a1,a1,0x8
   1c724:	3ac9a023          	sw	a2,928(s3)
   1c728:	3ae9a223          	sw	a4,932(s3)
   1c72c:	3af99423          	sh	a5,936(s3)
   1c730:	0186d613          	srli	a2,a3,0x18
   1c734:	8d4d                	or	a0,a0,a1
   1c736:	0106d593          	srli	a1,a3,0x10
   1c73a:	14b40ba3          	sb	a1,343(s0)
   1c73e:	14c40c23          	sb	a2,344(s0)
   1c742:	0086d593          	srli	a1,a3,0x8
   1c746:	14a41923          	sh	a0,338(s0)
   1c74a:	15040a23          	sb	a6,340(s0)
   1c74e:	14d40aa3          	sb	a3,341(s0)
   1c752:	14b40b23          	sb	a1,342(s0)
   1c756:	7ff10513          	addi	a0,sp,2047
   1c75a:	0f850513          	addi	a0,a0,248
   1c75e:	6585                	lui	a1,0x1
   1c760:	33058593          	addi	a1,a1,816 # 1330 <.Lline_table_start1+0x1105>
   1c764:	958a                	add	a1,a1,sp
   1c766:	4669                	li	a2,26
   1c768:	00002097          	auipc	ra,0x2
   1c76c:	dac080e7          	jalr	-596(ra) # 1e514 <memcpy>
   1c770:	6505                	lui	a0,0x1
   1c772:	38c50513          	addi	a0,a0,908 # 138c <.Lline_table_start1+0x1161>
   1c776:	950a                	add	a0,a0,sp
   1c778:	7ff10593          	addi	a1,sp,2047
   1c77c:	0f158593          	addi	a1,a1,241
   1c780:	ffff9097          	auipc	ra,0xffff9
   1c784:	d48080e7          	jalr	-696(ra) # 154c8 <_ZN20complex_dynamic_type3app17h7c4122dad4c48d4aE>
   1c788:	3ec9c503          	lbu	a0,1004(s3)
   1c78c:	c119                	beqz	a0,1c792 <_start+0x2972>
   1c78e:	47d0106f          	j	1e40a <_start+0x45ea>
   1c792:	3ee9c503          	lbu	a0,1006(s3)
   1c796:	3ed9c583          	lbu	a1,1005(s3)
   1c79a:	3ef9c603          	lbu	a2,1007(s3)
   1c79e:	3f09a483          	lw	s1,1008(s3)
   1c7a2:	0522                	slli	a0,a0,0x8
   1c7a4:	8d4d                	or	a0,a0,a1
   1c7a6:	16a41a23          	sh	a0,372(s0)
   1c7aa:	16c40b23          	sb	a2,374(s0)
   1c7ae:	6505                	lui	a0,0x1
   1c7b0:	39450513          	addi	a0,a0,916 # 1394 <.Lline_table_start1+0x1169>
   1c7b4:	00a105b3          	add	a1,sp,a0
   1c7b8:	6505                	lui	a0,0x1
   1c7ba:	33050513          	addi	a0,a0,816 # 1330 <.Lline_table_start1+0x1105>
   1c7be:	950a                	add	a0,a0,sp
   1c7c0:	04c00613          	li	a2,76
   1c7c4:	00002097          	auipc	ra,0x2
   1c7c8:	d50080e7          	jalr	-688(ra) # 1e514 <memcpy>
   1c7cc:	0184d513          	srli	a0,s1,0x18
   1c7d0:	0104d593          	srli	a1,s1,0x10
   1c7d4:	0084d613          	srli	a2,s1,0x8
   1c7d8:	16940ba3          	sb	s1,375(s0)
   1c7dc:	16c40c23          	sb	a2,376(s0)
   1c7e0:	16b40ca3          	sb	a1,377(s0)
   1c7e4:	16a40d23          	sb	a0,378(s0)
   1c7e8:	7ff10513          	addi	a0,sp,2047
   1c7ec:	11a50513          	addi	a0,a0,282
   1c7f0:	6585                	lui	a1,0x1
   1c7f2:	33058593          	addi	a1,a1,816 # 1330 <.Lline_table_start1+0x1105>
   1c7f6:	958a                	add	a1,a1,sp
   1c7f8:	04c00613          	li	a2,76
   1c7fc:	00002097          	auipc	ra,0x2
   1c800:	d18080e7          	jalr	-744(ra) # 1e514 <memcpy>
   1c804:	6505                	lui	a0,0x1
   1c806:	38c50513          	addi	a0,a0,908 # 138c <.Lline_table_start1+0x1161>
   1c80a:	950a                	add	a0,a0,sp
   1c80c:	7ff10593          	addi	a1,sp,2047
   1c810:	11358593          	addi	a1,a1,275
   1c814:	ffffb097          	auipc	ra,0xffffb
   1c818:	6aa080e7          	jalr	1706(ra) # 17ebe <_ZN20complex_dynamic_type3app17hc78b82f46800387fE>
   1c81c:	3ec9c503          	lbu	a0,1004(s3)
   1c820:	c119                	beqz	a0,1c826 <_start+0x2a06>
   1c822:	3e90106f          	j	1e40a <_start+0x45ea>
   1c826:	3ee9c503          	lbu	a0,1006(s3)
   1c82a:	3ed9c583          	lbu	a1,1005(s3)
   1c82e:	3ef9c603          	lbu	a2,1007(s3)
   1c832:	3f09a483          	lw	s1,1008(s3)
   1c836:	0522                	slli	a0,a0,0x8
   1c838:	8d4d                	or	a0,a0,a1
   1c83a:	1ca41423          	sh	a0,456(s0)
   1c83e:	1cc40523          	sb	a2,458(s0)
   1c842:	6505                	lui	a0,0x1
   1c844:	39450513          	addi	a0,a0,916 # 1394 <.Lline_table_start1+0x1169>
   1c848:	00a105b3          	add	a1,sp,a0
   1c84c:	6505                	lui	a0,0x1
   1c84e:	33050513          	addi	a0,a0,816 # 1330 <.Lline_table_start1+0x1105>
   1c852:	950a                	add	a0,a0,sp
   1c854:	04600613          	li	a2,70
   1c858:	00002097          	auipc	ra,0x2
   1c85c:	cbc080e7          	jalr	-836(ra) # 1e514 <memcpy>
   1c860:	0184d513          	srli	a0,s1,0x18
   1c864:	0104d593          	srli	a1,s1,0x10
   1c868:	0084d613          	srli	a2,s1,0x8
   1c86c:	1c9405a3          	sb	s1,459(s0)
   1c870:	1cc40623          	sb	a2,460(s0)
   1c874:	1cb406a3          	sb	a1,461(s0)
   1c878:	1ca40723          	sb	a0,462(s0)
   1c87c:	7ff10513          	addi	a0,sp,2047
   1c880:	16e50513          	addi	a0,a0,366
   1c884:	6585                	lui	a1,0x1
   1c886:	33058593          	addi	a1,a1,816 # 1330 <.Lline_table_start1+0x1105>
   1c88a:	958a                	add	a1,a1,sp
   1c88c:	04600613          	li	a2,70
   1c890:	00002097          	auipc	ra,0x2
   1c894:	c84080e7          	jalr	-892(ra) # 1e514 <memcpy>
   1c898:	6505                	lui	a0,0x1
   1c89a:	38c50513          	addi	a0,a0,908 # 138c <.Lline_table_start1+0x1161>
   1c89e:	950a                	add	a0,a0,sp
   1c8a0:	7ff10593          	addi	a1,sp,2047
   1c8a4:	16758593          	addi	a1,a1,359
   1c8a8:	ffff8097          	auipc	ra,0xffff8
   1c8ac:	49a080e7          	jalr	1178(ra) # 14d42 <_ZN20complex_dynamic_type3app17h74fcc2ff5036654bE>
   1c8b0:	3ec9c503          	lbu	a0,1004(s3)
   1c8b4:	c119                	beqz	a0,1c8ba <_start+0x2a9a>
   1c8b6:	3550106f          	j	1e40a <_start+0x45ea>
   1c8ba:	3ee9c503          	lbu	a0,1006(s3)
   1c8be:	3ed9c583          	lbu	a1,1005(s3)
   1c8c2:	3ef9c603          	lbu	a2,1007(s3)
   1c8c6:	3f09a483          	lw	s1,1008(s3)
   1c8ca:	0522                	slli	a0,a0,0x8
   1c8cc:	8d4d                	or	a0,a0,a1
   1c8ce:	20a41b23          	sh	a0,534(s0)
   1c8d2:	20c40c23          	sb	a2,536(s0)
   1c8d6:	6505                	lui	a0,0x1
   1c8d8:	39450513          	addi	a0,a0,916 # 1394 <.Lline_table_start1+0x1169>
   1c8dc:	00a105b3          	add	a1,sp,a0
   1c8e0:	6505                	lui	a0,0x1
   1c8e2:	33050513          	addi	a0,a0,816 # 1330 <.Lline_table_start1+0x1105>
   1c8e6:	950a                	add	a0,a0,sp
   1c8e8:	03500613          	li	a2,53
   1c8ec:	00002097          	auipc	ra,0x2
   1c8f0:	c28080e7          	jalr	-984(ra) # 1e514 <memcpy>
   1c8f4:	0184d513          	srli	a0,s1,0x18
   1c8f8:	0104d593          	srli	a1,s1,0x10
   1c8fc:	0084d613          	srli	a2,s1,0x8
   1c900:	20940ca3          	sb	s1,537(s0)
   1c904:	20c40d23          	sb	a2,538(s0)
   1c908:	20b40da3          	sb	a1,539(s0)
   1c90c:	20a40e23          	sb	a0,540(s0)
   1c910:	7ff10513          	addi	a0,sp,2047
   1c914:	1bc50513          	addi	a0,a0,444
   1c918:	6585                	lui	a1,0x1
   1c91a:	33058593          	addi	a1,a1,816 # 1330 <.Lline_table_start1+0x1105>
   1c91e:	958a                	add	a1,a1,sp
   1c920:	03500613          	li	a2,53
   1c924:	00002097          	auipc	ra,0x2
   1c928:	bf0080e7          	jalr	-1040(ra) # 1e514 <memcpy>
   1c92c:	6505                	lui	a0,0x1
   1c92e:	38c50513          	addi	a0,a0,908 # 138c <.Lline_table_start1+0x1161>
   1c932:	950a                	add	a0,a0,sp
   1c934:	7ff10593          	addi	a1,sp,2047
   1c938:	1b558593          	addi	a1,a1,437
   1c93c:	ffffa097          	auipc	ra,0xffffa
   1c940:	f0a080e7          	jalr	-246(ra) # 16846 <_ZN20complex_dynamic_type3app17ha51a51679280d6dbE>
   1c944:	3ec9c503          	lbu	a0,1004(s3)
   1c948:	c119                	beqz	a0,1c94e <_start+0x2b2e>
   1c94a:	2c10106f          	j	1e40a <_start+0x45ea>
   1c94e:	3ee9c503          	lbu	a0,1006(s3)
   1c952:	3ed9c583          	lbu	a1,1005(s3)
   1c956:	3ef9c603          	lbu	a2,1007(s3)
   1c95a:	3f09a483          	lw	s1,1008(s3)
   1c95e:	0522                	slli	a0,a0,0x8
   1c960:	8d4d                	or	a0,a0,a1
   1c962:	24a41923          	sh	a0,594(s0)
   1c966:	24c40a23          	sb	a2,596(s0)
   1c96a:	6505                	lui	a0,0x1
   1c96c:	39450513          	addi	a0,a0,916 # 1394 <.Lline_table_start1+0x1169>
   1c970:	00a105b3          	add	a1,sp,a0
   1c974:	6505                	lui	a0,0x1
   1c976:	33050513          	addi	a0,a0,816 # 1330 <.Lline_table_start1+0x1105>
   1c97a:	950a                	add	a0,a0,sp
   1c97c:	03100613          	li	a2,49
   1c980:	00002097          	auipc	ra,0x2
   1c984:	b94080e7          	jalr	-1132(ra) # 1e514 <memcpy>
   1c988:	0184d513          	srli	a0,s1,0x18
   1c98c:	0104d593          	srli	a1,s1,0x10
   1c990:	0084d613          	srli	a2,s1,0x8
   1c994:	24940aa3          	sb	s1,597(s0)
   1c998:	24c40b23          	sb	a2,598(s0)
   1c99c:	24b40ba3          	sb	a1,599(s0)
   1c9a0:	24a40c23          	sb	a0,600(s0)
   1c9a4:	7ff10513          	addi	a0,sp,2047
   1c9a8:	1f850513          	addi	a0,a0,504
   1c9ac:	6585                	lui	a1,0x1
   1c9ae:	33058593          	addi	a1,a1,816 # 1330 <.Lline_table_start1+0x1105>
   1c9b2:	958a                	add	a1,a1,sp
   1c9b4:	03100613          	li	a2,49
   1c9b8:	00002097          	auipc	ra,0x2
   1c9bc:	b5c080e7          	jalr	-1188(ra) # 1e514 <memcpy>
   1c9c0:	6505                	lui	a0,0x1
   1c9c2:	38c50513          	addi	a0,a0,908 # 138c <.Lline_table_start1+0x1161>
   1c9c6:	950a                	add	a0,a0,sp
   1c9c8:	7ff10593          	addi	a1,sp,2047
   1c9cc:	1f158593          	addi	a1,a1,497
   1c9d0:	ffff6097          	auipc	ra,0xffff6
   1c9d4:	0dc080e7          	jalr	220(ra) # 12aac <_ZN20complex_dynamic_type3app17h30e4a669a0398deaE>
   1c9d8:	3ec9c503          	lbu	a0,1004(s3)
   1c9dc:	c119                	beqz	a0,1c9e2 <_start+0x2bc2>
   1c9de:	22d0106f          	j	1e40a <_start+0x45ea>
   1c9e2:	3ed9c503          	lbu	a0,1005(s3)
   1c9e6:	3ee9c583          	lbu	a1,1006(s3)
   1c9ea:	3ef9c803          	lbu	a6,1007(s3)
   1c9ee:	3f09a683          	lw	a3,1008(s3)
   1c9f2:	3f49a703          	lw	a4,1012(s3)
   1c9f6:	3f89a783          	lw	a5,1016(s3)
   1c9fa:	3fc9a483          	lw	s1,1020(s3)
   1c9fe:	4009a603          	lw	a2,1024(s3)
   1ca02:	38e9a823          	sw	a4,912(s3)
   1ca06:	38f9aa23          	sw	a5,916(s3)
   1ca0a:	3899ac23          	sw	s1,920(s3)
   1ca0e:	38c9ae23          	sw	a2,924(s3)
   1ca12:	4049a603          	lw	a2,1028(s3)
   1ca16:	4089a703          	lw	a4,1032(s3)
   1ca1a:	40c9a783          	lw	a5,1036(s3)
   1ca1e:	4109a483          	lw	s1,1040(s3)
   1ca22:	05a2                	slli	a1,a1,0x8
   1ca24:	3ac9a023          	sw	a2,928(s3)
   1ca28:	3ae9a223          	sw	a4,932(s3)
   1ca2c:	3af9a423          	sw	a5,936(s3)
   1ca30:	3a99a623          	sw	s1,940(s3)
   1ca34:	0186d613          	srli	a2,a3,0x18
   1ca38:	8d4d                	or	a0,a0,a1
   1ca3a:	0106d593          	srli	a1,a3,0x10
   1ca3e:	28b407a3          	sb	a1,655(s0)
   1ca42:	28c40823          	sb	a2,656(s0)
   1ca46:	0086d593          	srli	a1,a3,0x8
   1ca4a:	28a41523          	sh	a0,650(s0)
   1ca4e:	29040623          	sb	a6,652(s0)
   1ca52:	28d406a3          	sb	a3,653(s0)
   1ca56:	28b40723          	sb	a1,654(s0)
   1ca5a:	7ff10513          	addi	a0,sp,2047
   1ca5e:	23050513          	addi	a0,a0,560
   1ca62:	6585                	lui	a1,0x1
   1ca64:	33058593          	addi	a1,a1,816 # 1330 <.Lline_table_start1+0x1105>
   1ca68:	958a                	add	a1,a1,sp
   1ca6a:	02000613          	li	a2,32
   1ca6e:	00002097          	auipc	ra,0x2
   1ca72:	aa6080e7          	jalr	-1370(ra) # 1e514 <memcpy>
   1ca76:	6505                	lui	a0,0x1
   1ca78:	38c50513          	addi	a0,a0,908 # 138c <.Lline_table_start1+0x1161>
   1ca7c:	950a                	add	a0,a0,sp
   1ca7e:	7ff10593          	addi	a1,sp,2047
   1ca82:	22958593          	addi	a1,a1,553
   1ca86:	ffffa097          	auipc	ra,0xffffa
   1ca8a:	938080e7          	jalr	-1736(ra) # 163be <_ZN20complex_dynamic_type3app17h9aa76b3cf95c3dc3E>
   1ca8e:	3ec9c503          	lbu	a0,1004(s3)
   1ca92:	c119                	beqz	a0,1ca98 <_start+0x2c78>
   1ca94:	1770106f          	j	1e40a <_start+0x45ea>
   1ca98:	3ee9c503          	lbu	a0,1006(s3)
   1ca9c:	3ed9c583          	lbu	a1,1005(s3)
   1caa0:	3ef9c603          	lbu	a2,1007(s3)
   1caa4:	3f09a483          	lw	s1,1008(s3)
   1caa8:	0522                	slli	a0,a0,0x8
   1caaa:	8d4d                	or	a0,a0,a1
   1caac:	2aa41923          	sh	a0,690(s0)
   1cab0:	2ac40a23          	sb	a2,692(s0)
   1cab4:	6505                	lui	a0,0x1
   1cab6:	39450513          	addi	a0,a0,916 # 1394 <.Lline_table_start1+0x1169>
   1caba:	00a105b3          	add	a1,sp,a0
   1cabe:	6505                	lui	a0,0x1
   1cac0:	33050513          	addi	a0,a0,816 # 1330 <.Lline_table_start1+0x1105>
   1cac4:	950a                	add	a0,a0,sp
   1cac6:	04a00613          	li	a2,74
   1caca:	00002097          	auipc	ra,0x2
   1cace:	a4a080e7          	jalr	-1462(ra) # 1e514 <memcpy>
   1cad2:	0184d513          	srli	a0,s1,0x18
   1cad6:	0104d593          	srli	a1,s1,0x10
   1cada:	0084d613          	srli	a2,s1,0x8
   1cade:	2a940aa3          	sb	s1,693(s0)
   1cae2:	2ac40b23          	sb	a2,694(s0)
   1cae6:	2ab40ba3          	sb	a1,695(s0)
   1caea:	2aa40c23          	sb	a0,696(s0)
   1caee:	7ff10513          	addi	a0,sp,2047
   1caf2:	25850513          	addi	a0,a0,600
   1caf6:	6585                	lui	a1,0x1
   1caf8:	33058593          	addi	a1,a1,816 # 1330 <.Lline_table_start1+0x1105>
   1cafc:	958a                	add	a1,a1,sp
   1cafe:	04a00613          	li	a2,74
   1cb02:	00002097          	auipc	ra,0x2
   1cb06:	a12080e7          	jalr	-1518(ra) # 1e514 <memcpy>
   1cb0a:	6505                	lui	a0,0x1
   1cb0c:	38c50513          	addi	a0,a0,908 # 138c <.Lline_table_start1+0x1161>
   1cb10:	950a                	add	a0,a0,sp
   1cb12:	7ff10593          	addi	a1,sp,2047
   1cb16:	25158593          	addi	a1,a1,593
   1cb1a:	ffff4097          	auipc	ra,0xffff4
   1cb1e:	61a080e7          	jalr	1562(ra) # 11134 <_ZN20complex_dynamic_type3app17h0118e5284f3d8caaE>
   1cb22:	3ec9c503          	lbu	a0,1004(s3)
   1cb26:	c119                	beqz	a0,1cb2c <_start+0x2d0c>
   1cb28:	0e30106f          	j	1e40a <_start+0x45ea>
   1cb2c:	3ee9c503          	lbu	a0,1006(s3)
   1cb30:	3ed9c583          	lbu	a1,1005(s3)
   1cb34:	3ef9c603          	lbu	a2,1007(s3)
   1cb38:	3f09a483          	lw	s1,1008(s3)
   1cb3c:	0522                	slli	a0,a0,0x8
   1cb3e:	8d4d                	or	a0,a0,a1
   1cb40:	30a41223          	sh	a0,772(s0)
   1cb44:	30c40323          	sb	a2,774(s0)
   1cb48:	6505                	lui	a0,0x1
   1cb4a:	39450513          	addi	a0,a0,916 # 1394 <.Lline_table_start1+0x1169>
   1cb4e:	00a105b3          	add	a1,sp,a0
   1cb52:	6505                	lui	a0,0x1
   1cb54:	33050513          	addi	a0,a0,816 # 1330 <.Lline_table_start1+0x1105>
   1cb58:	950a                	add	a0,a0,sp
   1cb5a:	04800613          	li	a2,72
   1cb5e:	00002097          	auipc	ra,0x2
   1cb62:	9b6080e7          	jalr	-1610(ra) # 1e514 <memcpy>
   1cb66:	0184d513          	srli	a0,s1,0x18
   1cb6a:	0104d593          	srli	a1,s1,0x10
   1cb6e:	0084d613          	srli	a2,s1,0x8
   1cb72:	309403a3          	sb	s1,775(s0)
   1cb76:	30c40423          	sb	a2,776(s0)
   1cb7a:	30b404a3          	sb	a1,777(s0)
   1cb7e:	30a40523          	sb	a0,778(s0)
   1cb82:	7ff10513          	addi	a0,sp,2047
   1cb86:	2aa50513          	addi	a0,a0,682
   1cb8a:	6585                	lui	a1,0x1
   1cb8c:	33058593          	addi	a1,a1,816 # 1330 <.Lline_table_start1+0x1105>
   1cb90:	958a                	add	a1,a1,sp
   1cb92:	04800613          	li	a2,72
   1cb96:	00002097          	auipc	ra,0x2
   1cb9a:	97e080e7          	jalr	-1666(ra) # 1e514 <memcpy>
   1cb9e:	6505                	lui	a0,0x1
   1cba0:	38c50513          	addi	a0,a0,908 # 138c <.Lline_table_start1+0x1161>
   1cba4:	950a                	add	a0,a0,sp
   1cba6:	7ff10593          	addi	a1,sp,2047
   1cbaa:	2a358593          	addi	a1,a1,675
   1cbae:	ffff7097          	auipc	ra,0xffff7
   1cbb2:	81c080e7          	jalr	-2020(ra) # 133ca <_ZN20complex_dynamic_type3app17h3c3e69f701d9bf3aE>
   1cbb6:	3ec9c503          	lbu	a0,1004(s3)
   1cbba:	c119                	beqz	a0,1cbc0 <_start+0x2da0>
   1cbbc:	04f0106f          	j	1e40a <_start+0x45ea>
   1cbc0:	3ee9c503          	lbu	a0,1006(s3)
   1cbc4:	3ed9c583          	lbu	a1,1005(s3)
   1cbc8:	3ef9c603          	lbu	a2,1007(s3)
   1cbcc:	3f09a483          	lw	s1,1008(s3)
   1cbd0:	0522                	slli	a0,a0,0x8
   1cbd2:	8d4d                	or	a0,a0,a1
   1cbd4:	34a41a23          	sh	a0,852(s0)
   1cbd8:	34c40b23          	sb	a2,854(s0)
   1cbdc:	6505                	lui	a0,0x1
   1cbde:	39450513          	addi	a0,a0,916 # 1394 <.Lline_table_start1+0x1169>
   1cbe2:	00a105b3          	add	a1,sp,a0
   1cbe6:	6505                	lui	a0,0x1
   1cbe8:	33050513          	addi	a0,a0,816 # 1330 <.Lline_table_start1+0x1105>
   1cbec:	950a                	add	a0,a0,sp
   1cbee:	05a00613          	li	a2,90
   1cbf2:	00002097          	auipc	ra,0x2
   1cbf6:	922080e7          	jalr	-1758(ra) # 1e514 <memcpy>
   1cbfa:	0184d513          	srli	a0,s1,0x18
   1cbfe:	0104d593          	srli	a1,s1,0x10
   1cc02:	0084d613          	srli	a2,s1,0x8
   1cc06:	34940ba3          	sb	s1,855(s0)
   1cc0a:	34c40c23          	sb	a2,856(s0)
   1cc0e:	34b40ca3          	sb	a1,857(s0)
   1cc12:	34a40d23          	sb	a0,858(s0)
   1cc16:	7ff10513          	addi	a0,sp,2047
   1cc1a:	2fa50513          	addi	a0,a0,762
   1cc1e:	6585                	lui	a1,0x1
   1cc20:	33058593          	addi	a1,a1,816 # 1330 <.Lline_table_start1+0x1105>
   1cc24:	958a                	add	a1,a1,sp
   1cc26:	05a00613          	li	a2,90
   1cc2a:	00002097          	auipc	ra,0x2
   1cc2e:	8ea080e7          	jalr	-1814(ra) # 1e514 <memcpy>
   1cc32:	6505                	lui	a0,0x1
   1cc34:	38c50513          	addi	a0,a0,908 # 138c <.Lline_table_start1+0x1161>
   1cc38:	950a                	add	a0,a0,sp
   1cc3a:	7ff10593          	addi	a1,sp,2047
   1cc3e:	2f358593          	addi	a1,a1,755
   1cc42:	ffff6097          	auipc	ra,0xffff6
   1cc46:	88c080e7          	jalr	-1908(ra) # 124ce <_ZN20complex_dynamic_type3app17h2b911826479ca4bcE>
   1cc4a:	3ec9c503          	lbu	a0,1004(s3)
   1cc4e:	c119                	beqz	a0,1cc54 <_start+0x2e34>
   1cc50:	7ba0106f          	j	1e40a <_start+0x45ea>
   1cc54:	3ed9c503          	lbu	a0,1005(s3)
   1cc58:	3ee9c583          	lbu	a1,1006(s3)
   1cc5c:	3ef9c803          	lbu	a6,1007(s3)
   1cc60:	3f09a683          	lw	a3,1008(s3)
   1cc64:	3f49a703          	lw	a4,1012(s3)
   1cc68:	3f89a783          	lw	a5,1016(s3)
   1cc6c:	3fc9a483          	lw	s1,1020(s3)
   1cc70:	4009a603          	lw	a2,1024(s3)
   1cc74:	38e9a823          	sw	a4,912(s3)
   1cc78:	38f9aa23          	sw	a5,916(s3)
   1cc7c:	3899ac23          	sw	s1,920(s3)
   1cc80:	38c9ae23          	sw	a2,924(s3)
   1cc84:	4049a603          	lw	a2,1028(s3)
   1cc88:	40899703          	lh	a4,1032(s3)
   1cc8c:	40a9c783          	lbu	a5,1034(s3)
   1cc90:	05a2                	slli	a1,a1,0x8
   1cc92:	3ac9a023          	sw	a2,928(s3)
   1cc96:	3ae99223          	sh	a4,932(s3)
   1cc9a:	3af98323          	sb	a5,934(s3)
   1cc9e:	0186d613          	srli	a2,a3,0x18
   1cca2:	8d4d                	or	a0,a0,a1
   1cca4:	0106d593          	srli	a1,a3,0x10
   1cca8:	3ab40da3          	sb	a1,955(s0)
   1ccac:	3ac40e23          	sb	a2,956(s0)
   1ccb0:	0086d593          	srli	a1,a3,0x8
   1ccb4:	3aa41b23          	sh	a0,950(s0)
   1ccb8:	3b040c23          	sb	a6,952(s0)
   1ccbc:	3ad40ca3          	sb	a3,953(s0)
   1ccc0:	3ab40d23          	sb	a1,954(s0)
   1ccc4:	7ff10513          	addi	a0,sp,2047
   1ccc8:	35c50513          	addi	a0,a0,860
   1cccc:	6585                	lui	a1,0x1
   1ccce:	33058593          	addi	a1,a1,816 # 1330 <.Lline_table_start1+0x1105>
   1ccd2:	958a                	add	a1,a1,sp
   1ccd4:	465d                	li	a2,23
   1ccd6:	00002097          	auipc	ra,0x2
   1ccda:	83e080e7          	jalr	-1986(ra) # 1e514 <memcpy>
   1ccde:	6505                	lui	a0,0x1
   1cce0:	38c50513          	addi	a0,a0,908 # 138c <.Lline_table_start1+0x1161>
   1cce4:	950a                	add	a0,a0,sp
   1cce6:	7ff10593          	addi	a1,sp,2047
   1ccea:	35558593          	addi	a1,a1,853
   1ccee:	ffffc097          	auipc	ra,0xffffc
   1ccf2:	db0080e7          	jalr	-592(ra) # 18a9e <_ZN20complex_dynamic_type3app17hdb50b5b46523c506E>
   1ccf6:	3ec9c503          	lbu	a0,1004(s3)
   1ccfa:	c119                	beqz	a0,1cd00 <_start+0x2ee0>
   1ccfc:	70e0106f          	j	1e40a <_start+0x45ea>
   1cd00:	3ed9c503          	lbu	a0,1005(s3)
   1cd04:	3ee9c583          	lbu	a1,1006(s3)
   1cd08:	3ef9c803          	lbu	a6,1007(s3)
   1cd0c:	3f09a683          	lw	a3,1008(s3)
   1cd10:	3f49a703          	lw	a4,1012(s3)
   1cd14:	3f89a783          	lw	a5,1016(s3)
   1cd18:	3fc9a483          	lw	s1,1020(s3)
   1cd1c:	4009a603          	lw	a2,1024(s3)
   1cd20:	38e9a823          	sw	a4,912(s3)
   1cd24:	38f9aa23          	sw	a5,916(s3)
   1cd28:	3899ac23          	sw	s1,920(s3)
   1cd2c:	38c9ae23          	sw	a2,924(s3)
   1cd30:	4049a603          	lw	a2,1028(s3)
   1cd34:	4089a703          	lw	a4,1032(s3)
   1cd38:	40c99783          	lh	a5,1036(s3)
   1cd3c:	05a2                	slli	a1,a1,0x8
   1cd3e:	3ac9a023          	sw	a2,928(s3)
   1cd42:	3ae9a223          	sw	a4,932(s3)
   1cd46:	3af99423          	sh	a5,936(s3)
   1cd4a:	0186d613          	srli	a2,a3,0x18
   1cd4e:	8d4d                	or	a0,a0,a1
   1cd50:	0106d593          	srli	a1,a3,0x10
   1cd54:	3cb40ca3          	sb	a1,985(s0)
   1cd58:	3cc40d23          	sb	a2,986(s0)
   1cd5c:	0086d593          	srli	a1,a3,0x8
   1cd60:	3ca41a23          	sh	a0,980(s0)
   1cd64:	3d040b23          	sb	a6,982(s0)
   1cd68:	3cd40ba3          	sb	a3,983(s0)
   1cd6c:	3cb40c23          	sb	a1,984(s0)
   1cd70:	7ff10513          	addi	a0,sp,2047
   1cd74:	37a50513          	addi	a0,a0,890
   1cd78:	6585                	lui	a1,0x1
   1cd7a:	33058593          	addi	a1,a1,816 # 1330 <.Lline_table_start1+0x1105>
   1cd7e:	958a                	add	a1,a1,sp
   1cd80:	4669                	li	a2,26
   1cd82:	00001097          	auipc	ra,0x1
   1cd86:	792080e7          	jalr	1938(ra) # 1e514 <memcpy>
   1cd8a:	6505                	lui	a0,0x1
   1cd8c:	38c50513          	addi	a0,a0,908 # 138c <.Lline_table_start1+0x1161>
   1cd90:	950a                	add	a0,a0,sp
   1cd92:	7ff10593          	addi	a1,sp,2047
   1cd96:	37358593          	addi	a1,a1,883
   1cd9a:	ffff6097          	auipc	ra,0xffff6
   1cd9e:	8a0080e7          	jalr	-1888(ra) # 1263a <_ZN20complex_dynamic_type3app17h2ce1c5800b850089E>
   1cda2:	3ec9c503          	lbu	a0,1004(s3)
   1cda6:	c119                	beqz	a0,1cdac <_start+0x2f8c>
   1cda8:	6620106f          	j	1e40a <_start+0x45ea>
   1cdac:	3ee9c503          	lbu	a0,1006(s3)
   1cdb0:	3ed9c583          	lbu	a1,1005(s3)
   1cdb4:	3ef9c603          	lbu	a2,1007(s3)
   1cdb8:	3f09a483          	lw	s1,1008(s3)
   1cdbc:	0522                	slli	a0,a0,0x8
   1cdbe:	8d4d                	or	a0,a0,a1
   1cdc0:	3ea41b23          	sh	a0,1014(s0)
   1cdc4:	3ec40c23          	sb	a2,1016(s0)
   1cdc8:	6505                	lui	a0,0x1
   1cdca:	39450513          	addi	a0,a0,916 # 1394 <.Lline_table_start1+0x1169>
   1cdce:	00a105b3          	add	a1,sp,a0
   1cdd2:	6505                	lui	a0,0x1
   1cdd4:	33050513          	addi	a0,a0,816 # 1330 <.Lline_table_start1+0x1105>
   1cdd8:	950a                	add	a0,a0,sp
   1cdda:	02300613          	li	a2,35
   1cdde:	00001097          	auipc	ra,0x1
   1cde2:	736080e7          	jalr	1846(ra) # 1e514 <memcpy>
   1cde6:	0184d513          	srli	a0,s1,0x18
   1cdea:	0104d593          	srli	a1,s1,0x10
   1cdee:	0084d613          	srli	a2,s1,0x8
   1cdf2:	3e940ca3          	sb	s1,1017(s0)
   1cdf6:	3ec40d23          	sb	a2,1018(s0)
   1cdfa:	3eb40da3          	sb	a1,1019(s0)
   1cdfe:	3ea40e23          	sb	a0,1020(s0)
   1ce02:	7ff10513          	addi	a0,sp,2047
   1ce06:	39c50513          	addi	a0,a0,924
   1ce0a:	6585                	lui	a1,0x1
   1ce0c:	33058593          	addi	a1,a1,816 # 1330 <.Lline_table_start1+0x1105>
   1ce10:	958a                	add	a1,a1,sp
   1ce12:	02300613          	li	a2,35
   1ce16:	00001097          	auipc	ra,0x1
   1ce1a:	6fe080e7          	jalr	1790(ra) # 1e514 <memcpy>
   1ce1e:	6505                	lui	a0,0x1
   1ce20:	38c50513          	addi	a0,a0,908 # 138c <.Lline_table_start1+0x1161>
   1ce24:	950a                	add	a0,a0,sp
   1ce26:	7ff10593          	addi	a1,sp,2047
   1ce2a:	39558593          	addi	a1,a1,917
   1ce2e:	ffff9097          	auipc	ra,0xffff9
   1ce32:	c98080e7          	jalr	-872(ra) # 15ac6 <_ZN20complex_dynamic_type3app17h8b6c838c87ca26c6E>
   1ce36:	3ec9c503          	lbu	a0,1004(s3)
   1ce3a:	c119                	beqz	a0,1ce40 <_start+0x3020>
   1ce3c:	5ce0106f          	j	1e40a <_start+0x45ea>
   1ce40:	3ee9c503          	lbu	a0,1006(s3)
   1ce44:	3ed9c583          	lbu	a1,1005(s3)
   1ce48:	3ef9c603          	lbu	a2,1007(s3)
   1ce4c:	3f09a483          	lw	s1,1008(s3)
   1ce50:	0522                	slli	a0,a0,0x8
   1ce52:	8d4d                	or	a0,a0,a1
   1ce54:	42a41023          	sh	a0,1056(s0)
   1ce58:	42c40123          	sb	a2,1058(s0)
   1ce5c:	6505                	lui	a0,0x1
   1ce5e:	39450513          	addi	a0,a0,916 # 1394 <.Lline_table_start1+0x1169>
   1ce62:	00a105b3          	add	a1,sp,a0
   1ce66:	6505                	lui	a0,0x1
   1ce68:	33050513          	addi	a0,a0,816 # 1330 <.Lline_table_start1+0x1105>
   1ce6c:	950a                	add	a0,a0,sp
   1ce6e:	05200613          	li	a2,82
   1ce72:	00001097          	auipc	ra,0x1
   1ce76:	6a2080e7          	jalr	1698(ra) # 1e514 <memcpy>
   1ce7a:	0184d513          	srli	a0,s1,0x18
   1ce7e:	0104d593          	srli	a1,s1,0x10
   1ce82:	0084d613          	srli	a2,s1,0x8
   1ce86:	429401a3          	sb	s1,1059(s0)
   1ce8a:	42c40223          	sb	a2,1060(s0)
   1ce8e:	42b402a3          	sb	a1,1061(s0)
   1ce92:	42a40323          	sb	a0,1062(s0)
   1ce96:	7ff10513          	addi	a0,sp,2047
   1ce9a:	3c650513          	addi	a0,a0,966
   1ce9e:	6585                	lui	a1,0x1
   1cea0:	33058593          	addi	a1,a1,816 # 1330 <.Lline_table_start1+0x1105>
   1cea4:	958a                	add	a1,a1,sp
   1cea6:	05200613          	li	a2,82
   1ceaa:	00001097          	auipc	ra,0x1
   1ceae:	66a080e7          	jalr	1642(ra) # 1e514 <memcpy>
   1ceb2:	6505                	lui	a0,0x1
   1ceb4:	38c50513          	addi	a0,a0,908 # 138c <.Lline_table_start1+0x1161>
   1ceb8:	950a                	add	a0,a0,sp
   1ceba:	7ff10593          	addi	a1,sp,2047
   1cebe:	3bf58593          	addi	a1,a1,959
   1cec2:	ffff8097          	auipc	ra,0xffff8
   1cec6:	302080e7          	jalr	770(ra) # 151c4 <_ZN20complex_dynamic_type3app17h7aeace5da031673fE>
   1ceca:	3ec9c503          	lbu	a0,1004(s3)
   1cece:	c119                	beqz	a0,1ced4 <_start+0x30b4>
   1ced0:	53a0106f          	j	1e40a <_start+0x45ea>
   1ced4:	3ee9c503          	lbu	a0,1006(s3)
   1ced8:	3ed9c583          	lbu	a1,1005(s3)
   1cedc:	3ef9c603          	lbu	a2,1007(s3)
   1cee0:	3f09a483          	lw	s1,1008(s3)
   1cee4:	0522                	slli	a0,a0,0x8
   1cee6:	8d4d                	or	a0,a0,a1
   1cee8:	46a41d23          	sh	a0,1146(s0)
   1ceec:	46c40e23          	sb	a2,1148(s0)
   1cef0:	6505                	lui	a0,0x1
   1cef2:	39450513          	addi	a0,a0,916 # 1394 <.Lline_table_start1+0x1169>
   1cef6:	00a105b3          	add	a1,sp,a0
   1cefa:	6505                	lui	a0,0x1
   1cefc:	33050513          	addi	a0,a0,816 # 1330 <.Lline_table_start1+0x1105>
   1cf00:	950a                	add	a0,a0,sp
   1cf02:	04300613          	li	a2,67
   1cf06:	00001097          	auipc	ra,0x1
   1cf0a:	60e080e7          	jalr	1550(ra) # 1e514 <memcpy>
   1cf0e:	0184d513          	srli	a0,s1,0x18
   1cf12:	0104d593          	srli	a1,s1,0x10
   1cf16:	0084d613          	srli	a2,s1,0x8
   1cf1a:	46940ea3          	sb	s1,1149(s0)
   1cf1e:	46c40f23          	sb	a2,1150(s0)
   1cf22:	46b40fa3          	sb	a1,1151(s0)
   1cf26:	48a40023          	sb	a0,1152(s0)
   1cf2a:	7ff10513          	addi	a0,sp,2047
   1cf2e:	42050513          	addi	a0,a0,1056
   1cf32:	6585                	lui	a1,0x1
   1cf34:	33058593          	addi	a1,a1,816 # 1330 <.Lline_table_start1+0x1105>
   1cf38:	958a                	add	a1,a1,sp
   1cf3a:	04300613          	li	a2,67
   1cf3e:	00001097          	auipc	ra,0x1
   1cf42:	5d6080e7          	jalr	1494(ra) # 1e514 <memcpy>
   1cf46:	6505                	lui	a0,0x1
   1cf48:	38c50513          	addi	a0,a0,908 # 138c <.Lline_table_start1+0x1161>
   1cf4c:	950a                	add	a0,a0,sp
   1cf4e:	7ff10593          	addi	a1,sp,2047
   1cf52:	41958593          	addi	a1,a1,1049
   1cf56:	ffff8097          	auipc	ra,0xffff8
   1cf5a:	c68080e7          	jalr	-920(ra) # 14bbe <_ZN20complex_dynamic_type3app17h746a86a44182cee2E>
   1cf5e:	3ec9c503          	lbu	a0,1004(s3)
   1cf62:	c119                	beqz	a0,1cf68 <_start+0x3148>
   1cf64:	4a60106f          	j	1e40a <_start+0x45ea>
   1cf68:	3ee9c503          	lbu	a0,1006(s3)
   1cf6c:	3ed9c583          	lbu	a1,1005(s3)
   1cf70:	3ef9c603          	lbu	a2,1007(s3)
   1cf74:	3f09a483          	lw	s1,1008(s3)
   1cf78:	0522                	slli	a0,a0,0x8
   1cf7a:	8d4d                	or	a0,a0,a1
   1cf7c:	4ca41223          	sh	a0,1220(s0)
   1cf80:	4cc40323          	sb	a2,1222(s0)
   1cf84:	6505                	lui	a0,0x1
   1cf86:	39450513          	addi	a0,a0,916 # 1394 <.Lline_table_start1+0x1169>
   1cf8a:	00a105b3          	add	a1,sp,a0
   1cf8e:	6505                	lui	a0,0x1
   1cf90:	33050513          	addi	a0,a0,816 # 1330 <.Lline_table_start1+0x1105>
   1cf94:	950a                	add	a0,a0,sp
   1cf96:	02600613          	li	a2,38
   1cf9a:	00001097          	auipc	ra,0x1
   1cf9e:	57a080e7          	jalr	1402(ra) # 1e514 <memcpy>
   1cfa2:	0184d513          	srli	a0,s1,0x18
   1cfa6:	0104d593          	srli	a1,s1,0x10
   1cfaa:	0084d613          	srli	a2,s1,0x8
   1cfae:	4c9403a3          	sb	s1,1223(s0)
   1cfb2:	4cc40423          	sb	a2,1224(s0)
   1cfb6:	4cb404a3          	sb	a1,1225(s0)
   1cfba:	4ca40523          	sb	a0,1226(s0)
   1cfbe:	7ff10513          	addi	a0,sp,2047
   1cfc2:	46a50513          	addi	a0,a0,1130
   1cfc6:	6585                	lui	a1,0x1
   1cfc8:	33058593          	addi	a1,a1,816 # 1330 <.Lline_table_start1+0x1105>
   1cfcc:	958a                	add	a1,a1,sp
   1cfce:	02600613          	li	a2,38
   1cfd2:	00001097          	auipc	ra,0x1
   1cfd6:	542080e7          	jalr	1346(ra) # 1e514 <memcpy>
   1cfda:	6505                	lui	a0,0x1
   1cfdc:	38c50513          	addi	a0,a0,908 # 138c <.Lline_table_start1+0x1161>
   1cfe0:	950a                	add	a0,a0,sp
   1cfe2:	7ff10593          	addi	a1,sp,2047
   1cfe6:	46358593          	addi	a1,a1,1123
   1cfea:	ffff9097          	auipc	ra,0xffff9
   1cfee:	f68080e7          	jalr	-152(ra) # 15f52 <_ZN20complex_dynamic_type3app17h959007c27530f6cfE>
   1cff2:	3ec9c503          	lbu	a0,1004(s3)
   1cff6:	c119                	beqz	a0,1cffc <_start+0x31dc>
   1cff8:	4120106f          	j	1e40a <_start+0x45ea>
   1cffc:	3ee9c503          	lbu	a0,1006(s3)
   1d000:	3ed9c583          	lbu	a1,1005(s3)
   1d004:	3ef9c603          	lbu	a2,1007(s3)
   1d008:	3f09a483          	lw	s1,1008(s3)
   1d00c:	0522                	slli	a0,a0,0x8
   1d00e:	8d4d                	or	a0,a0,a1
   1d010:	4ea41923          	sh	a0,1266(s0)
   1d014:	4ec40a23          	sb	a2,1268(s0)
   1d018:	6505                	lui	a0,0x1
   1d01a:	39450513          	addi	a0,a0,916 # 1394 <.Lline_table_start1+0x1169>
   1d01e:	00a105b3          	add	a1,sp,a0
   1d022:	6505                	lui	a0,0x1
   1d024:	33050513          	addi	a0,a0,816 # 1330 <.Lline_table_start1+0x1105>
   1d028:	950a                	add	a0,a0,sp
   1d02a:	04c00613          	li	a2,76
   1d02e:	00001097          	auipc	ra,0x1
   1d032:	4e6080e7          	jalr	1254(ra) # 1e514 <memcpy>
   1d036:	0184d513          	srli	a0,s1,0x18
   1d03a:	0104d593          	srli	a1,s1,0x10
   1d03e:	0084d613          	srli	a2,s1,0x8
   1d042:	4e940aa3          	sb	s1,1269(s0)
   1d046:	4ec40b23          	sb	a2,1270(s0)
   1d04a:	4eb40ba3          	sb	a1,1271(s0)
   1d04e:	4ea40c23          	sb	a0,1272(s0)
   1d052:	7ff10513          	addi	a0,sp,2047
   1d056:	49850513          	addi	a0,a0,1176
   1d05a:	6585                	lui	a1,0x1
   1d05c:	33058593          	addi	a1,a1,816 # 1330 <.Lline_table_start1+0x1105>
   1d060:	958a                	add	a1,a1,sp
   1d062:	04c00613          	li	a2,76
   1d066:	00001097          	auipc	ra,0x1
   1d06a:	4ae080e7          	jalr	1198(ra) # 1e514 <memcpy>
   1d06e:	6505                	lui	a0,0x1
   1d070:	38c50513          	addi	a0,a0,908 # 138c <.Lline_table_start1+0x1161>
   1d074:	950a                	add	a0,a0,sp
   1d076:	7ff10593          	addi	a1,sp,2047
   1d07a:	49158593          	addi	a1,a1,1169
   1d07e:	ffffa097          	auipc	ra,0xffffa
   1d082:	0c0080e7          	jalr	192(ra) # 1713e <_ZN20complex_dynamic_type3app17hb1f0a24a56de3e8cE>
   1d086:	3ec9c503          	lbu	a0,1004(s3)
   1d08a:	c119                	beqz	a0,1d090 <_start+0x3270>
   1d08c:	37e0106f          	j	1e40a <_start+0x45ea>
   1d090:	3ee9c503          	lbu	a0,1006(s3)
   1d094:	3ed9c583          	lbu	a1,1005(s3)
   1d098:	3ef9c603          	lbu	a2,1007(s3)
   1d09c:	3f09a483          	lw	s1,1008(s3)
   1d0a0:	0522                	slli	a0,a0,0x8
   1d0a2:	8d4d                	or	a0,a0,a1
   1d0a4:	54a41323          	sh	a0,1350(s0)
   1d0a8:	54c40423          	sb	a2,1352(s0)
   1d0ac:	6505                	lui	a0,0x1
   1d0ae:	39450513          	addi	a0,a0,916 # 1394 <.Lline_table_start1+0x1169>
   1d0b2:	00a105b3          	add	a1,sp,a0
   1d0b6:	6505                	lui	a0,0x1
   1d0b8:	33050513          	addi	a0,a0,816 # 1330 <.Lline_table_start1+0x1105>
   1d0bc:	950a                	add	a0,a0,sp
   1d0be:	03300613          	li	a2,51
   1d0c2:	00001097          	auipc	ra,0x1
   1d0c6:	452080e7          	jalr	1106(ra) # 1e514 <memcpy>
   1d0ca:	0184d513          	srli	a0,s1,0x18
   1d0ce:	0104d593          	srli	a1,s1,0x10
   1d0d2:	0084d613          	srli	a2,s1,0x8
   1d0d6:	549404a3          	sb	s1,1353(s0)
   1d0da:	54c40523          	sb	a2,1354(s0)
   1d0de:	54b405a3          	sb	a1,1355(s0)
   1d0e2:	54a40623          	sb	a0,1356(s0)
   1d0e6:	7ff10513          	addi	a0,sp,2047
   1d0ea:	4ec50513          	addi	a0,a0,1260
   1d0ee:	6585                	lui	a1,0x1
   1d0f0:	33058593          	addi	a1,a1,816 # 1330 <.Lline_table_start1+0x1105>
   1d0f4:	958a                	add	a1,a1,sp
   1d0f6:	03300613          	li	a2,51
   1d0fa:	00001097          	auipc	ra,0x1
   1d0fe:	41a080e7          	jalr	1050(ra) # 1e514 <memcpy>
   1d102:	6505                	lui	a0,0x1
   1d104:	38c50513          	addi	a0,a0,908 # 138c <.Lline_table_start1+0x1161>
   1d108:	950a                	add	a0,a0,sp
   1d10a:	7ff10593          	addi	a1,sp,2047
   1d10e:	4e558593          	addi	a1,a1,1253
   1d112:	ffff7097          	auipc	ra,0xffff7
   1d116:	32c080e7          	jalr	812(ra) # 1443e <_ZN20complex_dynamic_type3app17h66637f46fa41bd15E>
   1d11a:	3ec9c503          	lbu	a0,1004(s3)
   1d11e:	c119                	beqz	a0,1d124 <_start+0x3304>
   1d120:	2ea0106f          	j	1e40a <_start+0x45ea>
   1d124:	3ee9c503          	lbu	a0,1006(s3)
   1d128:	3ed9c583          	lbu	a1,1005(s3)
   1d12c:	3ef9c603          	lbu	a2,1007(s3)
   1d130:	3f09a483          	lw	s1,1008(s3)
   1d134:	0522                	slli	a0,a0,0x8
   1d136:	8d4d                	or	a0,a0,a1
   1d138:	58a41023          	sh	a0,1408(s0)
   1d13c:	58c40123          	sb	a2,1410(s0)
   1d140:	6505                	lui	a0,0x1
   1d142:	39450513          	addi	a0,a0,916 # 1394 <.Lline_table_start1+0x1169>
   1d146:	00a105b3          	add	a1,sp,a0
   1d14a:	6505                	lui	a0,0x1
   1d14c:	33050513          	addi	a0,a0,816 # 1330 <.Lline_table_start1+0x1105>
   1d150:	950a                	add	a0,a0,sp
   1d152:	05600613          	li	a2,86
   1d156:	00001097          	auipc	ra,0x1
   1d15a:	3be080e7          	jalr	958(ra) # 1e514 <memcpy>
   1d15e:	0184d513          	srli	a0,s1,0x18
   1d162:	0104d593          	srli	a1,s1,0x10
   1d166:	0084d613          	srli	a2,s1,0x8
   1d16a:	589401a3          	sb	s1,1411(s0)
   1d16e:	58c40223          	sb	a2,1412(s0)
   1d172:	58b402a3          	sb	a1,1413(s0)
   1d176:	58a40323          	sb	a0,1414(s0)
   1d17a:	7ff10513          	addi	a0,sp,2047
   1d17e:	52650513          	addi	a0,a0,1318
   1d182:	6585                	lui	a1,0x1
   1d184:	33058593          	addi	a1,a1,816 # 1330 <.Lline_table_start1+0x1105>
   1d188:	958a                	add	a1,a1,sp
   1d18a:	05600613          	li	a2,86
   1d18e:	00001097          	auipc	ra,0x1
   1d192:	386080e7          	jalr	902(ra) # 1e514 <memcpy>
   1d196:	6505                	lui	a0,0x1
   1d198:	38c50513          	addi	a0,a0,908 # 138c <.Lline_table_start1+0x1161>
   1d19c:	950a                	add	a0,a0,sp
   1d19e:	7ff10593          	addi	a1,sp,2047
   1d1a2:	51f58593          	addi	a1,a1,1311
   1d1a6:	ffff6097          	auipc	ra,0xffff6
   1d1aa:	d92080e7          	jalr	-622(ra) # 12f38 <_ZN20complex_dynamic_type3app17h3383497a00c2f09eE>
   1d1ae:	3ec9c503          	lbu	a0,1004(s3)
   1d1b2:	c119                	beqz	a0,1d1b8 <_start+0x3398>
   1d1b4:	2560106f          	j	1e40a <_start+0x45ea>
   1d1b8:	3ee9c503          	lbu	a0,1006(s3)
   1d1bc:	3ed9c583          	lbu	a1,1005(s3)
   1d1c0:	3ef9c603          	lbu	a2,1007(s3)
   1d1c4:	3f09a483          	lw	s1,1008(s3)
   1d1c8:	0522                	slli	a0,a0,0x8
   1d1ca:	8d4d                	or	a0,a0,a1
   1d1cc:	5ca41f23          	sh	a0,1502(s0)
   1d1d0:	5ec40023          	sb	a2,1504(s0)
   1d1d4:	6505                	lui	a0,0x1
   1d1d6:	39450513          	addi	a0,a0,916 # 1394 <.Lline_table_start1+0x1169>
   1d1da:	00a105b3          	add	a1,sp,a0
   1d1de:	6505                	lui	a0,0x1
   1d1e0:	33050513          	addi	a0,a0,816 # 1330 <.Lline_table_start1+0x1105>
   1d1e4:	950a                	add	a0,a0,sp
   1d1e6:	03900613          	li	a2,57
   1d1ea:	00001097          	auipc	ra,0x1
   1d1ee:	32a080e7          	jalr	810(ra) # 1e514 <memcpy>
   1d1f2:	0184d513          	srli	a0,s1,0x18
   1d1f6:	0104d593          	srli	a1,s1,0x10
   1d1fa:	0084d613          	srli	a2,s1,0x8
   1d1fe:	5e9400a3          	sb	s1,1505(s0)
   1d202:	5ec40123          	sb	a2,1506(s0)
   1d206:	5eb401a3          	sb	a1,1507(s0)
   1d20a:	5ea40223          	sb	a0,1508(s0)
   1d20e:	7ff10513          	addi	a0,sp,2047
   1d212:	58450513          	addi	a0,a0,1412
   1d216:	6585                	lui	a1,0x1
   1d218:	33058593          	addi	a1,a1,816 # 1330 <.Lline_table_start1+0x1105>
   1d21c:	958a                	add	a1,a1,sp
   1d21e:	03900613          	li	a2,57
   1d222:	00001097          	auipc	ra,0x1
   1d226:	2f2080e7          	jalr	754(ra) # 1e514 <memcpy>
   1d22a:	6505                	lui	a0,0x1
   1d22c:	38c50513          	addi	a0,a0,908 # 138c <.Lline_table_start1+0x1161>
   1d230:	950a                	add	a0,a0,sp
   1d232:	7ff10593          	addi	a1,sp,2047
   1d236:	57d58593          	addi	a1,a1,1405
   1d23a:	ffffb097          	auipc	ra,0xffffb
   1d23e:	f7c080e7          	jalr	-132(ra) # 181b6 <_ZN20complex_dynamic_type3app17hce253621245687d9E>
   1d242:	3ec9c503          	lbu	a0,1004(s3)
   1d246:	c119                	beqz	a0,1d24c <_start+0x342c>
   1d248:	1c20106f          	j	1e40a <_start+0x45ea>
   1d24c:	3ee9c503          	lbu	a0,1006(s3)
   1d250:	3ed9c583          	lbu	a1,1005(s3)
   1d254:	3ef9c603          	lbu	a2,1007(s3)
   1d258:	3f09a483          	lw	s1,1008(s3)
   1d25c:	0522                	slli	a0,a0,0x8
   1d25e:	8d4d                	or	a0,a0,a1
   1d260:	60a41f23          	sh	a0,1566(s0)
   1d264:	62c40023          	sb	a2,1568(s0)
   1d268:	6505                	lui	a0,0x1
   1d26a:	39450513          	addi	a0,a0,916 # 1394 <.Lline_table_start1+0x1169>
   1d26e:	00a105b3          	add	a1,sp,a0
   1d272:	6505                	lui	a0,0x1
   1d274:	33050513          	addi	a0,a0,816 # 1330 <.Lline_table_start1+0x1105>
   1d278:	950a                	add	a0,a0,sp
   1d27a:	02a00613          	li	a2,42
   1d27e:	00001097          	auipc	ra,0x1
   1d282:	296080e7          	jalr	662(ra) # 1e514 <memcpy>
   1d286:	0184d513          	srli	a0,s1,0x18
   1d28a:	0104d593          	srli	a1,s1,0x10
   1d28e:	0084d613          	srli	a2,s1,0x8
   1d292:	629400a3          	sb	s1,1569(s0)
   1d296:	62c40123          	sb	a2,1570(s0)
   1d29a:	62b401a3          	sb	a1,1571(s0)
   1d29e:	62a40223          	sb	a0,1572(s0)
   1d2a2:	7ff10513          	addi	a0,sp,2047
   1d2a6:	5c450513          	addi	a0,a0,1476
   1d2aa:	6585                	lui	a1,0x1
   1d2ac:	33058593          	addi	a1,a1,816 # 1330 <.Lline_table_start1+0x1105>
   1d2b0:	958a                	add	a1,a1,sp
   1d2b2:	02a00613          	li	a2,42
   1d2b6:	00001097          	auipc	ra,0x1
   1d2ba:	25e080e7          	jalr	606(ra) # 1e514 <memcpy>
   1d2be:	6505                	lui	a0,0x1
   1d2c0:	38c50513          	addi	a0,a0,908 # 138c <.Lline_table_start1+0x1161>
   1d2c4:	950a                	add	a0,a0,sp
   1d2c6:	7ff10593          	addi	a1,sp,2047
   1d2ca:	5bd58593          	addi	a1,a1,1469
   1d2ce:	ffff4097          	auipc	ra,0xffff4
   1d2d2:	2f8080e7          	jalr	760(ra) # 115c6 <_ZN20complex_dynamic_type3app17h040554d2fb744f89E>
   1d2d6:	3ec9c503          	lbu	a0,1004(s3)
   1d2da:	c119                	beqz	a0,1d2e0 <_start+0x34c0>
   1d2dc:	12e0106f          	j	1e40a <_start+0x45ea>
   1d2e0:	3ee9c503          	lbu	a0,1006(s3)
   1d2e4:	3ed9c583          	lbu	a1,1005(s3)
   1d2e8:	3ef9c603          	lbu	a2,1007(s3)
   1d2ec:	3f09a483          	lw	s1,1008(s3)
   1d2f0:	0522                	slli	a0,a0,0x8
   1d2f2:	8d4d                	or	a0,a0,a1
   1d2f4:	64a41823          	sh	a0,1616(s0)
   1d2f8:	64c40923          	sb	a2,1618(s0)
   1d2fc:	6505                	lui	a0,0x1
   1d2fe:	39450513          	addi	a0,a0,916 # 1394 <.Lline_table_start1+0x1169>
   1d302:	00a105b3          	add	a1,sp,a0
   1d306:	6505                	lui	a0,0x1
   1d308:	33050513          	addi	a0,a0,816 # 1330 <.Lline_table_start1+0x1105>
   1d30c:	950a                	add	a0,a0,sp
   1d30e:	04100613          	li	a2,65
   1d312:	00001097          	auipc	ra,0x1
   1d316:	202080e7          	jalr	514(ra) # 1e514 <memcpy>
   1d31a:	0184d513          	srli	a0,s1,0x18
   1d31e:	0104d593          	srli	a1,s1,0x10
   1d322:	0084d613          	srli	a2,s1,0x8
   1d326:	649409a3          	sb	s1,1619(s0)
   1d32a:	64c40a23          	sb	a2,1620(s0)
   1d32e:	64b40aa3          	sb	a1,1621(s0)
   1d332:	64a40b23          	sb	a0,1622(s0)
   1d336:	7ff10513          	addi	a0,sp,2047
   1d33a:	5f650513          	addi	a0,a0,1526
   1d33e:	6585                	lui	a1,0x1
   1d340:	33058593          	addi	a1,a1,816 # 1330 <.Lline_table_start1+0x1105>
   1d344:	958a                	add	a1,a1,sp
   1d346:	04100613          	li	a2,65
   1d34a:	00001097          	auipc	ra,0x1
   1d34e:	1ca080e7          	jalr	458(ra) # 1e514 <memcpy>
   1d352:	6505                	lui	a0,0x1
   1d354:	38c50513          	addi	a0,a0,908 # 138c <.Lline_table_start1+0x1161>
   1d358:	950a                	add	a0,a0,sp
   1d35a:	7ff10593          	addi	a1,sp,2047
   1d35e:	5ef58593          	addi	a1,a1,1519
   1d362:	ffffd097          	auipc	ra,0xffffd
   1d366:	938080e7          	jalr	-1736(ra) # 19c9a <_ZN20complex_dynamic_type3app17hffe4a0d1cfe76c92E>
   1d36a:	3ec9c503          	lbu	a0,1004(s3)
   1d36e:	c119                	beqz	a0,1d374 <_start+0x3554>
   1d370:	09a0106f          	j	1e40a <_start+0x45ea>
   1d374:	3ee9c503          	lbu	a0,1006(s3)
   1d378:	3ed9c583          	lbu	a1,1005(s3)
   1d37c:	3ef9c603          	lbu	a2,1007(s3)
   1d380:	3f09a483          	lw	s1,1008(s3)
   1d384:	0522                	slli	a0,a0,0x8
   1d386:	8d4d                	or	a0,a0,a1
   1d388:	68a41c23          	sh	a0,1688(s0)
   1d38c:	68c40d23          	sb	a2,1690(s0)
   1d390:	6505                	lui	a0,0x1
   1d392:	39450513          	addi	a0,a0,916 # 1394 <.Lline_table_start1+0x1169>
   1d396:	00a105b3          	add	a1,sp,a0
   1d39a:	6505                	lui	a0,0x1
   1d39c:	33050513          	addi	a0,a0,816 # 1330 <.Lline_table_start1+0x1105>
   1d3a0:	950a                	add	a0,a0,sp
   1d3a2:	02200613          	li	a2,34
   1d3a6:	00001097          	auipc	ra,0x1
   1d3aa:	16e080e7          	jalr	366(ra) # 1e514 <memcpy>
   1d3ae:	0184d513          	srli	a0,s1,0x18
   1d3b2:	0104d593          	srli	a1,s1,0x10
   1d3b6:	0084d613          	srli	a2,s1,0x8
   1d3ba:	68940da3          	sb	s1,1691(s0)
   1d3be:	68c40e23          	sb	a2,1692(s0)
   1d3c2:	68b40ea3          	sb	a1,1693(s0)
   1d3c6:	68a40f23          	sb	a0,1694(s0)
   1d3ca:	7ff10513          	addi	a0,sp,2047
   1d3ce:	63e50513          	addi	a0,a0,1598
   1d3d2:	6585                	lui	a1,0x1
   1d3d4:	33058593          	addi	a1,a1,816 # 1330 <.Lline_table_start1+0x1105>
   1d3d8:	958a                	add	a1,a1,sp
   1d3da:	02200613          	li	a2,34
   1d3de:	00001097          	auipc	ra,0x1
   1d3e2:	136080e7          	jalr	310(ra) # 1e514 <memcpy>
   1d3e6:	6505                	lui	a0,0x1
   1d3e8:	38c50513          	addi	a0,a0,908 # 138c <.Lline_table_start1+0x1161>
   1d3ec:	950a                	add	a0,a0,sp
   1d3ee:	7ff10593          	addi	a1,sp,2047
   1d3f2:	63758593          	addi	a1,a1,1591
   1d3f6:	ffff4097          	auipc	ra,0xffff4
   1d3fa:	4dc080e7          	jalr	1244(ra) # 118d2 <_ZN20complex_dynamic_type3app17h0af0156ff98d9d33E>
   1d3fe:	3ec9c503          	lbu	a0,1004(s3)
   1d402:	c119                	beqz	a0,1d408 <_start+0x35e8>
   1d404:	0060106f          	j	1e40a <_start+0x45ea>
   1d408:	3ed9c803          	lbu	a6,1005(s3)
   1d40c:	3ee9c583          	lbu	a1,1006(s3)
   1d410:	3f49a603          	lw	a2,1012(s3)
   1d414:	3f89a683          	lw	a3,1016(s3)
   1d418:	3fc9a703          	lw	a4,1020(s3)
   1d41c:	4009a783          	lw	a5,1024(s3)
   1d420:	40499483          	lh	s1,1028(s3)
   1d424:	4069c503          	lbu	a0,1030(s3)
   1d428:	38c9a823          	sw	a2,912(s3)
   1d42c:	38d9aa23          	sw	a3,916(s3)
   1d430:	38e9ac23          	sw	a4,920(s3)
   1d434:	38f9ae23          	sw	a5,924(s3)
   1d438:	3ef9c603          	lbu	a2,1007(s3)
   1d43c:	3f09a683          	lw	a3,1008(s3)
   1d440:	05a2                	slli	a1,a1,0x8
   1d442:	3a999023          	sh	s1,928(s3)
   1d446:	3aa98123          	sb	a0,930(s3)
   1d44a:	0186d513          	srli	a0,a3,0x18
   1d44e:	0105e5b3          	or	a1,a1,a6
   1d452:	0106d713          	srli	a4,a3,0x10
   1d456:	6ce403a3          	sb	a4,1735(s0)
   1d45a:	6ca40423          	sb	a0,1736(s0)
   1d45e:	0086d513          	srli	a0,a3,0x8
   1d462:	6cb41123          	sh	a1,1730(s0)
   1d466:	6cc40223          	sb	a2,1732(s0)
   1d46a:	6cd402a3          	sb	a3,1733(s0)
   1d46e:	6ca40323          	sb	a0,1734(s0)
   1d472:	7ff10513          	addi	a0,sp,2047
   1d476:	66850513          	addi	a0,a0,1640
   1d47a:	6585                	lui	a1,0x1
   1d47c:	33058593          	addi	a1,a1,816 # 1330 <.Lline_table_start1+0x1105>
   1d480:	958a                	add	a1,a1,sp
   1d482:	464d                	li	a2,19
   1d484:	00001097          	auipc	ra,0x1
   1d488:	090080e7          	jalr	144(ra) # 1e514 <memcpy>
   1d48c:	6505                	lui	a0,0x1
   1d48e:	38c50513          	addi	a0,a0,908 # 138c <.Lline_table_start1+0x1161>
   1d492:	950a                	add	a0,a0,sp
   1d494:	7ff10593          	addi	a1,sp,2047
   1d498:	66158593          	addi	a1,a1,1633
   1d49c:	ffff8097          	auipc	ra,0xffff8
   1d4a0:	a2c080e7          	jalr	-1492(ra) # 14ec8 <_ZN20complex_dynamic_type3app17h76c7a52f098ef126E>
   1d4a4:	3ec9c503          	lbu	a0,1004(s3)
   1d4a8:	760511e3          	bnez	a0,1e40a <_start+0x45ea>
   1d4ac:	3ed9c883          	lbu	a7,1005(s3)
   1d4b0:	3ee9c583          	lbu	a1,1006(s3)
   1d4b4:	3ef9c803          	lbu	a6,1007(s3)
   1d4b8:	3f09a683          	lw	a3,1008(s3)
   1d4bc:	3f49a703          	lw	a4,1012(s3)
   1d4c0:	3f89a783          	lw	a5,1016(s3)
   1d4c4:	3fc9a483          	lw	s1,1020(s3)
   1d4c8:	4009a603          	lw	a2,1024(s3)
   1d4cc:	4049a503          	lw	a0,1028(s3)
   1d4d0:	38e9a823          	sw	a4,912(s3)
   1d4d4:	38f9aa23          	sw	a5,916(s3)
   1d4d8:	3899ac23          	sw	s1,920(s3)
   1d4dc:	38c9ae23          	sw	a2,924(s3)
   1d4e0:	05a2                	slli	a1,a1,0x8
   1d4e2:	3aa9a023          	sw	a0,928(s3)
   1d4e6:	0186d513          	srli	a0,a3,0x18
   1d4ea:	0115e5b3          	or	a1,a1,a7
   1d4ee:	0106d613          	srli	a2,a3,0x10
   1d4f2:	6ec400a3          	sb	a2,1761(s0)
   1d4f6:	6ea40123          	sb	a0,1762(s0)
   1d4fa:	0086d513          	srli	a0,a3,0x8
   1d4fe:	6cb41e23          	sh	a1,1756(s0)
   1d502:	6d040f23          	sb	a6,1758(s0)
   1d506:	6cd40fa3          	sb	a3,1759(s0)
   1d50a:	6ea40023          	sb	a0,1760(s0)
   1d50e:	7ff10513          	addi	a0,sp,2047
   1d512:	68250513          	addi	a0,a0,1666
   1d516:	6585                	lui	a1,0x1
   1d518:	33058593          	addi	a1,a1,816 # 1330 <.Lline_table_start1+0x1105>
   1d51c:	958a                	add	a1,a1,sp
   1d51e:	4651                	li	a2,20
   1d520:	00001097          	auipc	ra,0x1
   1d524:	ff4080e7          	jalr	-12(ra) # 1e514 <memcpy>
   1d528:	6505                	lui	a0,0x1
   1d52a:	38c50513          	addi	a0,a0,908 # 138c <.Lline_table_start1+0x1161>
   1d52e:	950a                	add	a0,a0,sp
   1d530:	7ff10593          	addi	a1,sp,2047
   1d534:	67b58593          	addi	a1,a1,1659
   1d538:	ffff4097          	auipc	ra,0xffff4
   1d53c:	694080e7          	jalr	1684(ra) # 11bcc <_ZN20complex_dynamic_type3app17h134678ccff1a7b76E>
   1d540:	3ec9c503          	lbu	a0,1004(s3)
   1d544:	6c0513e3          	bnez	a0,1e40a <_start+0x45ea>
   1d548:	3ee9c503          	lbu	a0,1006(s3)
   1d54c:	3ed9c583          	lbu	a1,1005(s3)
   1d550:	3ef9c603          	lbu	a2,1007(s3)
   1d554:	3f09a483          	lw	s1,1008(s3)
   1d558:	0522                	slli	a0,a0,0x8
   1d55a:	8d4d                	or	a0,a0,a1
   1d55c:	6ea41c23          	sh	a0,1784(s0)
   1d560:	6ec40d23          	sb	a2,1786(s0)
   1d564:	6505                	lui	a0,0x1
   1d566:	39450513          	addi	a0,a0,916 # 1394 <.Lline_table_start1+0x1169>
   1d56a:	00a105b3          	add	a1,sp,a0
   1d56e:	6505                	lui	a0,0x1
   1d570:	33050513          	addi	a0,a0,816 # 1330 <.Lline_table_start1+0x1105>
   1d574:	950a                	add	a0,a0,sp
   1d576:	03a00613          	li	a2,58
   1d57a:	00001097          	auipc	ra,0x1
   1d57e:	f9a080e7          	jalr	-102(ra) # 1e514 <memcpy>
   1d582:	0184d513          	srli	a0,s1,0x18
   1d586:	0104d593          	srli	a1,s1,0x10
   1d58a:	0084d613          	srli	a2,s1,0x8
   1d58e:	6e940da3          	sb	s1,1787(s0)
   1d592:	6ec40e23          	sb	a2,1788(s0)
   1d596:	6eb40ea3          	sb	a1,1789(s0)
   1d59a:	6ea40f23          	sb	a0,1790(s0)
   1d59e:	7ff10513          	addi	a0,sp,2047
   1d5a2:	69e50513          	addi	a0,a0,1694
   1d5a6:	6585                	lui	a1,0x1
   1d5a8:	33058593          	addi	a1,a1,816 # 1330 <.Lline_table_start1+0x1105>
   1d5ac:	958a                	add	a1,a1,sp
   1d5ae:	03a00613          	li	a2,58
   1d5b2:	00001097          	auipc	ra,0x1
   1d5b6:	f62080e7          	jalr	-158(ra) # 1e514 <memcpy>
   1d5ba:	6505                	lui	a0,0x1
   1d5bc:	38c50513          	addi	a0,a0,908 # 138c <.Lline_table_start1+0x1161>
   1d5c0:	950a                	add	a0,a0,sp
   1d5c2:	7ff10593          	addi	a1,sp,2047
   1d5c6:	69758593          	addi	a1,a1,1687
   1d5ca:	ffff6097          	auipc	ra,0xffff6
   1d5ce:	0f2080e7          	jalr	242(ra) # 136bc <_ZN20complex_dynamic_type3app17h44c65f387a6de8feE>
   1d5d2:	3ec9c503          	lbu	a0,1004(s3)
   1d5d6:	62051ae3          	bnez	a0,1e40a <_start+0x45ea>
   1d5da:	3ed9c883          	lbu	a7,1005(s3)
   1d5de:	3ee9c583          	lbu	a1,1006(s3)
   1d5e2:	3ef9c803          	lbu	a6,1007(s3)
   1d5e6:	3f09a683          	lw	a3,1008(s3)
   1d5ea:	3f49a703          	lw	a4,1012(s3)
   1d5ee:	3f89a783          	lw	a5,1016(s3)
   1d5f2:	3fc9a483          	lw	s1,1020(s3)
   1d5f6:	4009a603          	lw	a2,1024(s3)
   1d5fa:	4049c503          	lbu	a0,1028(s3)
   1d5fe:	38e9a823          	sw	a4,912(s3)
   1d602:	38f9aa23          	sw	a5,916(s3)
   1d606:	3899ac23          	sw	s1,920(s3)
   1d60a:	38c9ae23          	sw	a2,924(s3)
   1d60e:	05a2                	slli	a1,a1,0x8
   1d610:	3aa98023          	sb	a0,928(s3)
   1d614:	0186d513          	srli	a0,a3,0x18
   1d618:	0115e5b3          	or	a1,a1,a7
   1d61c:	0106d613          	srli	a2,a3,0x10
   1d620:	72c40fa3          	sb	a2,1855(s0)
   1d624:	74a40023          	sb	a0,1856(s0)
   1d628:	0086d513          	srli	a0,a3,0x8
   1d62c:	72b41d23          	sh	a1,1850(s0)
   1d630:	73040e23          	sb	a6,1852(s0)
   1d634:	72d40ea3          	sb	a3,1853(s0)
   1d638:	72a40f23          	sb	a0,1854(s0)
   1d63c:	7ff10513          	addi	a0,sp,2047
   1d640:	6e050513          	addi	a0,a0,1760
   1d644:	6585                	lui	a1,0x1
   1d646:	33058593          	addi	a1,a1,816 # 1330 <.Lline_table_start1+0x1105>
   1d64a:	958a                	add	a1,a1,sp
   1d64c:	4645                	li	a2,17
   1d64e:	00001097          	auipc	ra,0x1
   1d652:	ec6080e7          	jalr	-314(ra) # 1e514 <memcpy>
   1d656:	6505                	lui	a0,0x1
   1d658:	38c50513          	addi	a0,a0,908 # 138c <.Lline_table_start1+0x1161>
   1d65c:	950a                	add	a0,a0,sp
   1d65e:	7ff10593          	addi	a1,sp,2047
   1d662:	6d958593          	addi	a1,a1,1753
   1d666:	ffff9097          	auipc	ra,0xffff9
   1d66a:	660080e7          	jalr	1632(ra) # 16cc6 <_ZN20complex_dynamic_type3app17ha8a6a104d3e3046cE>
   1d66e:	3ec9c503          	lbu	a0,1004(s3)
   1d672:	58051ce3          	bnez	a0,1e40a <_start+0x45ea>
   1d676:	3ed9c503          	lbu	a0,1005(s3)
   1d67a:	3ee9c583          	lbu	a1,1006(s3)
   1d67e:	3ef9c803          	lbu	a6,1007(s3)
   1d682:	3f09a683          	lw	a3,1008(s3)
   1d686:	3f49a703          	lw	a4,1012(s3)
   1d68a:	3f89a783          	lw	a5,1016(s3)
   1d68e:	3fc9a483          	lw	s1,1020(s3)
   1d692:	4009a603          	lw	a2,1024(s3)
   1d696:	38e9a823          	sw	a4,912(s3)
   1d69a:	38f9aa23          	sw	a5,916(s3)
   1d69e:	3899ac23          	sw	s1,920(s3)
   1d6a2:	38c9ae23          	sw	a2,924(s3)
   1d6a6:	4049a603          	lw	a2,1028(s3)
   1d6aa:	40899703          	lh	a4,1032(s3)
   1d6ae:	40a9c783          	lbu	a5,1034(s3)
   1d6b2:	05a2                	slli	a1,a1,0x8
   1d6b4:	3ac9a023          	sw	a2,928(s3)
   1d6b8:	3ae99223          	sh	a4,932(s3)
   1d6bc:	3af98323          	sb	a5,934(s3)
   1d6c0:	0186d613          	srli	a2,a3,0x18
   1d6c4:	8d4d                	or	a0,a0,a1
   1d6c6:	0106d593          	srli	a1,a3,0x10
   1d6ca:	74b40ba3          	sb	a1,1879(s0)
   1d6ce:	74c40c23          	sb	a2,1880(s0)
   1d6d2:	0086d593          	srli	a1,a3,0x8
   1d6d6:	74a41923          	sh	a0,1874(s0)
   1d6da:	75040a23          	sb	a6,1876(s0)
   1d6de:	74d40aa3          	sb	a3,1877(s0)
   1d6e2:	74b40b23          	sb	a1,1878(s0)
   1d6e6:	7ff10513          	addi	a0,sp,2047
   1d6ea:	6f850513          	addi	a0,a0,1784
   1d6ee:	6585                	lui	a1,0x1
   1d6f0:	33058593          	addi	a1,a1,816 # 1330 <.Lline_table_start1+0x1105>
   1d6f4:	958a                	add	a1,a1,sp
   1d6f6:	465d                	li	a2,23
   1d6f8:	00001097          	auipc	ra,0x1
   1d6fc:	e1c080e7          	jalr	-484(ra) # 1e514 <memcpy>
   1d700:	6505                	lui	a0,0x1
   1d702:	38c50513          	addi	a0,a0,908 # 138c <.Lline_table_start1+0x1161>
   1d706:	950a                	add	a0,a0,sp
   1d708:	7ff10593          	addi	a1,sp,2047
   1d70c:	6f158593          	addi	a1,a1,1777
   1d710:	ffff9097          	auipc	ra,0xffff9
   1d714:	9c8080e7          	jalr	-1592(ra) # 160d8 <_ZN20complex_dynamic_type3app17h99fdc9e628ea1c93E>
   1d718:	3ec9c503          	lbu	a0,1004(s3)
   1d71c:	4e0517e3          	bnez	a0,1e40a <_start+0x45ea>
   1d720:	3ee9c503          	lbu	a0,1006(s3)
   1d724:	3ed9c583          	lbu	a1,1005(s3)
   1d728:	3ef9c603          	lbu	a2,1007(s3)
   1d72c:	3f09a483          	lw	s1,1008(s3)
   1d730:	0522                	slli	a0,a0,0x8
   1d732:	8d4d                	or	a0,a0,a1
   1d734:	76a41823          	sh	a0,1904(s0)
   1d738:	76c40923          	sb	a2,1906(s0)
   1d73c:	6505                	lui	a0,0x1
   1d73e:	39450513          	addi	a0,a0,916 # 1394 <.Lline_table_start1+0x1169>
   1d742:	00a105b3          	add	a1,sp,a0
   1d746:	6505                	lui	a0,0x1
   1d748:	33050513          	addi	a0,a0,816 # 1330 <.Lline_table_start1+0x1105>
   1d74c:	950a                	add	a0,a0,sp
   1d74e:	03500613          	li	a2,53
   1d752:	00001097          	auipc	ra,0x1
   1d756:	dc2080e7          	jalr	-574(ra) # 1e514 <memcpy>
   1d75a:	0184d513          	srli	a0,s1,0x18
   1d75e:	0104d593          	srli	a1,s1,0x10
   1d762:	0084d613          	srli	a2,s1,0x8
   1d766:	769409a3          	sb	s1,1907(s0)
   1d76a:	76c40a23          	sb	a2,1908(s0)
   1d76e:	76b40aa3          	sb	a1,1909(s0)
   1d772:	76a40b23          	sb	a0,1910(s0)
   1d776:	7ff10513          	addi	a0,sp,2047
   1d77a:	71650513          	addi	a0,a0,1814
   1d77e:	6585                	lui	a1,0x1
   1d780:	33058593          	addi	a1,a1,816 # 1330 <.Lline_table_start1+0x1105>
   1d784:	958a                	add	a1,a1,sp
   1d786:	03500613          	li	a2,53
   1d78a:	00001097          	auipc	ra,0x1
   1d78e:	d8a080e7          	jalr	-630(ra) # 1e514 <memcpy>
   1d792:	6505                	lui	a0,0x1
   1d794:	38c50513          	addi	a0,a0,908 # 138c <.Lline_table_start1+0x1161>
   1d798:	950a                	add	a0,a0,sp
   1d79a:	7ff10593          	addi	a1,sp,2047
   1d79e:	70f58593          	addi	a1,a1,1807
   1d7a2:	ffffa097          	auipc	ra,0xffffa
   1d7a6:	410080e7          	jalr	1040(ra) # 17bb2 <_ZN20complex_dynamic_type3app17hc60eef5406704967E>
   1d7aa:	3ec9c503          	lbu	a0,1004(s3)
   1d7ae:	44051ee3          	bnez	a0,1e40a <_start+0x45ea>
   1d7b2:	3ee9c503          	lbu	a0,1006(s3)
   1d7b6:	3ed9c583          	lbu	a1,1005(s3)
   1d7ba:	3ef9c603          	lbu	a2,1007(s3)
   1d7be:	3f09a483          	lw	s1,1008(s3)
   1d7c2:	0522                	slli	a0,a0,0x8
   1d7c4:	8d4d                	or	a0,a0,a1
   1d7c6:	7aa41623          	sh	a0,1964(s0)
   1d7ca:	7ac40723          	sb	a2,1966(s0)
   1d7ce:	6505                	lui	a0,0x1
   1d7d0:	39450513          	addi	a0,a0,916 # 1394 <.Lline_table_start1+0x1169>
   1d7d4:	00a105b3          	add	a1,sp,a0
   1d7d8:	6505                	lui	a0,0x1
   1d7da:	33050513          	addi	a0,a0,816 # 1330 <.Lline_table_start1+0x1105>
   1d7de:	950a                	add	a0,a0,sp
   1d7e0:	02500613          	li	a2,37
   1d7e4:	00001097          	auipc	ra,0x1
   1d7e8:	d30080e7          	jalr	-720(ra) # 1e514 <memcpy>
   1d7ec:	0184d513          	srli	a0,s1,0x18
   1d7f0:	0104d593          	srli	a1,s1,0x10
   1d7f4:	0084d613          	srli	a2,s1,0x8
   1d7f8:	7a9407a3          	sb	s1,1967(s0)
   1d7fc:	7ac40823          	sb	a2,1968(s0)
   1d800:	7ab408a3          	sb	a1,1969(s0)
   1d804:	7aa40923          	sb	a0,1970(s0)
   1d808:	7ff10513          	addi	a0,sp,2047
   1d80c:	75250513          	addi	a0,a0,1874
   1d810:	6585                	lui	a1,0x1
   1d812:	33058593          	addi	a1,a1,816 # 1330 <.Lline_table_start1+0x1105>
   1d816:	958a                	add	a1,a1,sp
   1d818:	02500613          	li	a2,37
   1d81c:	00001097          	auipc	ra,0x1
   1d820:	cf8080e7          	jalr	-776(ra) # 1e514 <memcpy>
   1d824:	6505                	lui	a0,0x1
   1d826:	38c50513          	addi	a0,a0,908 # 138c <.Lline_table_start1+0x1161>
   1d82a:	950a                	add	a0,a0,sp
   1d82c:	7ff10593          	addi	a1,sp,2047
   1d830:	74b58593          	addi	a1,a1,1867
   1d834:	ffff8097          	auipc	ra,0xffff8
   1d838:	f98080e7          	jalr	-104(ra) # 157cc <_ZN20complex_dynamic_type3app17h7d84bf76a2820e8fE>
   1d83c:	3ec9c503          	lbu	a0,1004(s3)
   1d840:	3c0515e3          	bnez	a0,1e40a <_start+0x45ea>
   1d844:	3ed9c503          	lbu	a0,1005(s3)
   1d848:	3ee9c583          	lbu	a1,1006(s3)
   1d84c:	3ef9c803          	lbu	a6,1007(s3)
   1d850:	3f09a683          	lw	a3,1008(s3)
   1d854:	3f49a703          	lw	a4,1012(s3)
   1d858:	3f89a783          	lw	a5,1016(s3)
   1d85c:	3fc9a483          	lw	s1,1020(s3)
   1d860:	4009a603          	lw	a2,1024(s3)
   1d864:	38e9a823          	sw	a4,912(s3)
   1d868:	38f9aa23          	sw	a5,916(s3)
   1d86c:	3899ac23          	sw	s1,920(s3)
   1d870:	38c9ae23          	sw	a2,924(s3)
   1d874:	4049a603          	lw	a2,1028(s3)
   1d878:	4089a703          	lw	a4,1032(s3)
   1d87c:	40c9a783          	lw	a5,1036(s3)
   1d880:	4109a483          	lw	s1,1040(s3)
   1d884:	05a2                	slli	a1,a1,0x8
   1d886:	3ac9a023          	sw	a2,928(s3)
   1d88a:	3ae9a223          	sw	a4,932(s3)
   1d88e:	3af9a423          	sw	a5,936(s3)
   1d892:	3a99a623          	sw	s1,940(s3)
   1d896:	0186d613          	srli	a2,a3,0x18
   1d89a:	8d4d                	or	a0,a0,a1
   1d89c:	0106d593          	srli	a1,a3,0x10
   1d8a0:	7cb40ea3          	sb	a1,2013(s0)
   1d8a4:	7cc40f23          	sb	a2,2014(s0)
   1d8a8:	0086d593          	srli	a1,a3,0x8
   1d8ac:	7ca41c23          	sh	a0,2008(s0)
   1d8b0:	7d040d23          	sb	a6,2010(s0)
   1d8b4:	7cd40da3          	sb	a3,2011(s0)
   1d8b8:	7cb40e23          	sb	a1,2012(s0)
   1d8bc:	7ff10513          	addi	a0,sp,2047
   1d8c0:	77e50513          	addi	a0,a0,1918
   1d8c4:	6585                	lui	a1,0x1
   1d8c6:	33058593          	addi	a1,a1,816 # 1330 <.Lline_table_start1+0x1105>
   1d8ca:	958a                	add	a1,a1,sp
   1d8cc:	02000613          	li	a2,32
   1d8d0:	00001097          	auipc	ra,0x1
   1d8d4:	c44080e7          	jalr	-956(ra) # 1e514 <memcpy>
   1d8d8:	6505                	lui	a0,0x1
   1d8da:	38c50513          	addi	a0,a0,908 # 138c <.Lline_table_start1+0x1161>
   1d8de:	950a                	add	a0,a0,sp
   1d8e0:	7ff10593          	addi	a1,sp,2047
   1d8e4:	77758593          	addi	a1,a1,1911
   1d8e8:	ffffa097          	auipc	ra,0xffffa
   1d8ec:	fd6080e7          	jalr	-42(ra) # 178be <_ZN20complex_dynamic_type3app17hc41f1b15554c1669E>
   1d8f0:	3ec9c503          	lbu	a0,1004(s3)
   1d8f4:	30051be3          	bnez	a0,1e40a <_start+0x45ea>
   1d8f8:	3ee9c503          	lbu	a0,1006(s3)
   1d8fc:	3ed9c583          	lbu	a1,1005(s3)
   1d900:	3ef9c603          	lbu	a2,1007(s3)
   1d904:	3f09a403          	lw	s0,1008(s3)
   1d908:	0522                	slli	a0,a0,0x8
   1d90a:	8d4d                	or	a0,a0,a1
   1d90c:	fea99f23          	sh	a0,-2(s3)
   1d910:	00c98023          	sb	a2,0(s3)
   1d914:	6505                	lui	a0,0x1
   1d916:	39450513          	addi	a0,a0,916 # 1394 <.Lline_table_start1+0x1169>
   1d91a:	00a105b3          	add	a1,sp,a0
   1d91e:	6505                	lui	a0,0x1
   1d920:	33050513          	addi	a0,a0,816 # 1330 <.Lline_table_start1+0x1105>
   1d924:	950a                	add	a0,a0,sp
   1d926:	04800613          	li	a2,72
   1d92a:	00001097          	auipc	ra,0x1
   1d92e:	bea080e7          	jalr	-1046(ra) # 1e514 <memcpy>
   1d932:	01845513          	srli	a0,s0,0x18
   1d936:	01045593          	srli	a1,s0,0x10
   1d93a:	00845613          	srli	a2,s0,0x8
   1d93e:	008980a3          	sb	s0,1(s3)
   1d942:	00c98123          	sb	a2,2(s3)
   1d946:	00b981a3          	sb	a1,3(s3)
   1d94a:	00a98223          	sb	a0,4(s3)
   1d94e:	7ff10513          	addi	a0,sp,2047
   1d952:	7a650513          	addi	a0,a0,1958
   1d956:	6585                	lui	a1,0x1
   1d958:	33058593          	addi	a1,a1,816 # 1330 <.Lline_table_start1+0x1105>
   1d95c:	958a                	add	a1,a1,sp
   1d95e:	04800613          	li	a2,72
   1d962:	00001097          	auipc	ra,0x1
   1d966:	bb2080e7          	jalr	-1102(ra) # 1e514 <memcpy>
   1d96a:	6505                	lui	a0,0x1
   1d96c:	38c50513          	addi	a0,a0,908 # 138c <.Lline_table_start1+0x1161>
   1d970:	950a                	add	a0,a0,sp
   1d972:	7ff10593          	addi	a1,sp,2047
   1d976:	79f58593          	addi	a1,a1,1951
   1d97a:	ffff4097          	auipc	ra,0xffff4
   1d97e:	546080e7          	jalr	1350(ra) # 11ec0 <_ZN20complex_dynamic_type3app17h1a20cf9dcb37c6deE>
   1d982:	3ec9c503          	lbu	a0,1004(s3)
   1d986:	280512e3          	bnez	a0,1e40a <_start+0x45ea>
   1d98a:	3ee9c503          	lbu	a0,1006(s3)
   1d98e:	3ed9c583          	lbu	a1,1005(s3)
   1d992:	3ef9c603          	lbu	a2,1007(s3)
   1d996:	3f09a403          	lw	s0,1008(s3)
   1d99a:	0522                	slli	a0,a0,0x8
   1d99c:	8d4d                	or	a0,a0,a1
   1d99e:	04a99723          	sh	a0,78(s3)
   1d9a2:	04c98823          	sb	a2,80(s3)
   1d9a6:	6505                	lui	a0,0x1
   1d9a8:	39450513          	addi	a0,a0,916 # 1394 <.Lline_table_start1+0x1169>
   1d9ac:	00a105b3          	add	a1,sp,a0
   1d9b0:	6505                	lui	a0,0x1
   1d9b2:	33050513          	addi	a0,a0,816 # 1330 <.Lline_table_start1+0x1105>
   1d9b6:	950a                	add	a0,a0,sp
   1d9b8:	02e00613          	li	a2,46
   1d9bc:	00001097          	auipc	ra,0x1
   1d9c0:	b58080e7          	jalr	-1192(ra) # 1e514 <memcpy>
   1d9c4:	01845513          	srli	a0,s0,0x18
   1d9c8:	01045593          	srli	a1,s0,0x10
   1d9cc:	00845613          	srli	a2,s0,0x8
   1d9d0:	048988a3          	sb	s0,81(s3)
   1d9d4:	04c98923          	sb	a2,82(s3)
   1d9d8:	04b989a3          	sb	a1,83(s3)
   1d9dc:	04a98a23          	sb	a0,84(s3)
   1d9e0:	7ff10513          	addi	a0,sp,2047
   1d9e4:	7f650513          	addi	a0,a0,2038
   1d9e8:	6585                	lui	a1,0x1
   1d9ea:	33058593          	addi	a1,a1,816 # 1330 <.Lline_table_start1+0x1105>
   1d9ee:	958a                	add	a1,a1,sp
   1d9f0:	02e00613          	li	a2,46
   1d9f4:	00001097          	auipc	ra,0x1
   1d9f8:	b20080e7          	jalr	-1248(ra) # 1e514 <memcpy>
   1d9fc:	6505                	lui	a0,0x1
   1d9fe:	38c50513          	addi	a0,a0,908 # 138c <.Lline_table_start1+0x1161>
   1da02:	950a                	add	a0,a0,sp
   1da04:	7ff10593          	addi	a1,sp,2047
   1da08:	7ef58593          	addi	a1,a1,2031
   1da0c:	ffff5097          	auipc	ra,0xffff5
   1da10:	3a6080e7          	jalr	934(ra) # 12db2 <_ZN20complex_dynamic_type3app17h32bdfeae20b7793dE>
   1da14:	3ec9c503          	lbu	a0,1004(s3)
   1da18:	1e0519e3          	bnez	a0,1e40a <_start+0x45ea>
   1da1c:	3ee9c503          	lbu	a0,1006(s3)
   1da20:	3ed9c583          	lbu	a1,1005(s3)
   1da24:	3ef9c603          	lbu	a2,1007(s3)
   1da28:	3f09a403          	lw	s0,1008(s3)
   1da2c:	0522                	slli	a0,a0,0x8
   1da2e:	8d4d                	or	a0,a0,a1
   1da30:	08a99223          	sh	a0,132(s3)
   1da34:	08c98323          	sb	a2,134(s3)
   1da38:	6505                	lui	a0,0x1
   1da3a:	39450513          	addi	a0,a0,916 # 1394 <.Lline_table_start1+0x1169>
   1da3e:	00a105b3          	add	a1,sp,a0
   1da42:	6505                	lui	a0,0x1
   1da44:	33050513          	addi	a0,a0,816 # 1330 <.Lline_table_start1+0x1105>
   1da48:	950a                	add	a0,a0,sp
   1da4a:	03800613          	li	a2,56
   1da4e:	00001097          	auipc	ra,0x1
   1da52:	ac6080e7          	jalr	-1338(ra) # 1e514 <memcpy>
   1da56:	01845513          	srli	a0,s0,0x18
   1da5a:	01045593          	srli	a1,s0,0x10
   1da5e:	00845613          	srli	a2,s0,0x8
   1da62:	088983a3          	sb	s0,135(s3)
   1da66:	08c98423          	sb	a2,136(s3)
   1da6a:	08b984a3          	sb	a1,137(s3)
   1da6e:	08a98523          	sb	a0,138(s3)
   1da72:	6505                	lui	a0,0x1
   1da74:	02b50513          	addi	a0,a0,43 # 102b <.Lline_table_start1+0xe00>
   1da78:	950a                	add	a0,a0,sp
   1da7a:	6585                	lui	a1,0x1
   1da7c:	33058593          	addi	a1,a1,816 # 1330 <.Lline_table_start1+0x1105>
   1da80:	958a                	add	a1,a1,sp
   1da82:	03800613          	li	a2,56
   1da86:	00001097          	auipc	ra,0x1
   1da8a:	a8e080e7          	jalr	-1394(ra) # 1e514 <memcpy>
   1da8e:	6505                	lui	a0,0x1
   1da90:	38c50513          	addi	a0,a0,908 # 138c <.Lline_table_start1+0x1161>
   1da94:	950a                	add	a0,a0,sp
   1da96:	6585                	lui	a1,0x1
   1da98:	02458593          	addi	a1,a1,36 # 1024 <.Lline_table_start1+0xdf9>
   1da9c:	958a                	add	a1,a1,sp
   1da9e:	ffff7097          	auipc	ra,0xffff7
   1daa2:	c96080e7          	jalr	-874(ra) # 14734 <_ZN20complex_dynamic_type3app17h6c6137a84074cc0aE>
   1daa6:	3ec9c503          	lbu	a0,1004(s3)
   1daaa:	160510e3          	bnez	a0,1e40a <_start+0x45ea>
   1daae:	3ed9c503          	lbu	a0,1005(s3)
   1dab2:	3ee9c583          	lbu	a1,1006(s3)
   1dab6:	3ef9c603          	lbu	a2,1007(s3)
   1daba:	3f09a683          	lw	a3,1008(s3)
   1dabe:	3f49a703          	lw	a4,1012(s3)
   1dac2:	3f89a783          	lw	a5,1016(s3)
   1dac6:	3fc99483          	lh	s1,1020(s3)
   1daca:	05a2                	slli	a1,a1,0x8
   1dacc:	38e9a823          	sw	a4,912(s3)
   1dad0:	38f9aa23          	sw	a5,916(s3)
   1dad4:	38999c23          	sh	s1,920(s3)
   1dad8:	0186d713          	srli	a4,a3,0x18
   1dadc:	8d4d                	or	a0,a0,a1
   1dade:	0106d593          	srli	a1,a3,0x10
   1dae2:	0cb984a3          	sb	a1,201(s3)
   1dae6:	0ce98523          	sb	a4,202(s3)
   1daea:	0086d593          	srli	a1,a3,0x8
   1daee:	0ca99223          	sh	a0,196(s3)
   1daf2:	0cc98323          	sb	a2,198(s3)
   1daf6:	0cd983a3          	sb	a3,199(s3)
   1dafa:	0cb98423          	sb	a1,200(s3)
   1dafe:	6505                	lui	a0,0x1
   1db00:	06b50513          	addi	a0,a0,107 # 106b <.Lline_table_start1+0xe40>
   1db04:	950a                	add	a0,a0,sp
   1db06:	6585                	lui	a1,0x1
   1db08:	33058593          	addi	a1,a1,816 # 1330 <.Lline_table_start1+0x1105>
   1db0c:	958a                	add	a1,a1,sp
   1db0e:	4629                	li	a2,10
   1db10:	00001097          	auipc	ra,0x1
   1db14:	a04080e7          	jalr	-1532(ra) # 1e514 <memcpy>
   1db18:	6505                	lui	a0,0x1
   1db1a:	38c50513          	addi	a0,a0,908 # 138c <.Lline_table_start1+0x1161>
   1db1e:	950a                	add	a0,a0,sp
   1db20:	6585                	lui	a1,0x1
   1db22:	06458593          	addi	a1,a1,100 # 1064 <.Lline_table_start1+0xe39>
   1db26:	958a                	add	a1,a1,sp
   1db28:	ffff4097          	auipc	ra,0xffff4
   1db2c:	216080e7          	jalr	534(ra) # 11d3e <_ZN20complex_dynamic_type3app17h17efd54cf7a1b5fcE>
   1db30:	3ec9c503          	lbu	a0,1004(s3)
   1db34:	0c051be3          	bnez	a0,1e40a <_start+0x45ea>
   1db38:	3ee9c503          	lbu	a0,1006(s3)
   1db3c:	3ed9c583          	lbu	a1,1005(s3)
   1db40:	3ef9c603          	lbu	a2,1007(s3)
   1db44:	3f09a403          	lw	s0,1008(s3)
   1db48:	0522                	slli	a0,a0,0x8
   1db4a:	8d4d                	or	a0,a0,a1
   1db4c:	0ca99b23          	sh	a0,214(s3)
   1db50:	0cc98c23          	sb	a2,216(s3)
   1db54:	6505                	lui	a0,0x1
   1db56:	39450513          	addi	a0,a0,916 # 1394 <.Lline_table_start1+0x1169>
   1db5a:	00a105b3          	add	a1,sp,a0
   1db5e:	6505                	lui	a0,0x1
   1db60:	33050513          	addi	a0,a0,816 # 1330 <.Lline_table_start1+0x1105>
   1db64:	950a                	add	a0,a0,sp
   1db66:	03800613          	li	a2,56
   1db6a:	00001097          	auipc	ra,0x1
   1db6e:	9aa080e7          	jalr	-1622(ra) # 1e514 <memcpy>
   1db72:	01845513          	srli	a0,s0,0x18
   1db76:	01045593          	srli	a1,s0,0x10
   1db7a:	00845613          	srli	a2,s0,0x8
   1db7e:	0c898ca3          	sb	s0,217(s3)
   1db82:	0cc98d23          	sb	a2,218(s3)
   1db86:	0cb98da3          	sb	a1,219(s3)
   1db8a:	0ca98e23          	sb	a0,220(s3)
   1db8e:	6505                	lui	a0,0x1
   1db90:	07d50513          	addi	a0,a0,125 # 107d <.Lline_table_start1+0xe52>
   1db94:	950a                	add	a0,a0,sp
   1db96:	6585                	lui	a1,0x1
   1db98:	33058593          	addi	a1,a1,816 # 1330 <.Lline_table_start1+0x1105>
   1db9c:	958a                	add	a1,a1,sp
   1db9e:	03800613          	li	a2,56
   1dba2:	00001097          	auipc	ra,0x1
   1dba6:	972080e7          	jalr	-1678(ra) # 1e514 <memcpy>
   1dbaa:	6505                	lui	a0,0x1
   1dbac:	38c50513          	addi	a0,a0,908 # 138c <.Lline_table_start1+0x1161>
   1dbb0:	950a                	add	a0,a0,sp
   1dbb2:	6585                	lui	a1,0x1
   1dbb4:	07658593          	addi	a1,a1,118 # 1076 <.Lline_table_start1+0xe4b>
   1dbb8:	958a                	add	a1,a1,sp
   1dbba:	ffffb097          	auipc	ra,0xffffb
   1dbbe:	bf2080e7          	jalr	-1038(ra) # 187ac <_ZN20complex_dynamic_type3app17hd862b1160f392e36E>
   1dbc2:	3ec9c503          	lbu	a0,1004(s3)
   1dbc6:	040512e3          	bnez	a0,1e40a <_start+0x45ea>
   1dbca:	3ed9c503          	lbu	a0,1005(s3)
   1dbce:	3ee9c583          	lbu	a1,1006(s3)
   1dbd2:	3f49a603          	lw	a2,1012(s3)
   1dbd6:	3f89a683          	lw	a3,1016(s3)
   1dbda:	3fc9a703          	lw	a4,1020(s3)
   1dbde:	4009a783          	lw	a5,1024(s3)
   1dbe2:	4049a483          	lw	s1,1028(s3)
   1dbe6:	4089c403          	lbu	s0,1032(s3)
   1dbea:	38c9a823          	sw	a2,912(s3)
   1dbee:	38d9aa23          	sw	a3,916(s3)
   1dbf2:	38e9ac23          	sw	a4,920(s3)
   1dbf6:	38f9ae23          	sw	a5,924(s3)
   1dbfa:	3ef9c603          	lbu	a2,1007(s3)
   1dbfe:	3f09a683          	lw	a3,1008(s3)
   1dc02:	05a2                	slli	a1,a1,0x8
   1dc04:	3a99a023          	sw	s1,928(s3)
   1dc08:	3a898223          	sb	s0,932(s3)
   1dc0c:	0186d713          	srli	a4,a3,0x18
   1dc10:	8d4d                	or	a0,a0,a1
   1dc12:	0106d593          	srli	a1,a3,0x10
   1dc16:	10b98da3          	sb	a1,283(s3)
   1dc1a:	10e98e23          	sb	a4,284(s3)
   1dc1e:	0086d593          	srli	a1,a3,0x8
   1dc22:	10a99b23          	sh	a0,278(s3)
   1dc26:	10c98c23          	sb	a2,280(s3)
   1dc2a:	10d98ca3          	sb	a3,281(s3)
   1dc2e:	10b98d23          	sb	a1,282(s3)
   1dc32:	6505                	lui	a0,0x1
   1dc34:	0bd50513          	addi	a0,a0,189 # 10bd <.Lline_table_start1+0xe92>
   1dc38:	950a                	add	a0,a0,sp
   1dc3a:	6585                	lui	a1,0x1
   1dc3c:	33058593          	addi	a1,a1,816 # 1330 <.Lline_table_start1+0x1105>
   1dc40:	958a                	add	a1,a1,sp
   1dc42:	4655                	li	a2,21
   1dc44:	00001097          	auipc	ra,0x1
   1dc48:	8d0080e7          	jalr	-1840(ra) # 1e514 <memcpy>
   1dc4c:	6505                	lui	a0,0x1
   1dc4e:	38c50513          	addi	a0,a0,908 # 138c <.Lline_table_start1+0x1161>
   1dc52:	950a                	add	a0,a0,sp
   1dc54:	6585                	lui	a1,0x1
   1dc56:	0b658593          	addi	a1,a1,182 # 10b6 <.Lline_table_start1+0xe8b>
   1dc5a:	958a                	add	a1,a1,sp
   1dc5c:	ffff9097          	auipc	ra,0xffff9
   1dc60:	668080e7          	jalr	1640(ra) # 172c4 <_ZN20complex_dynamic_type3app17hb4bc400aa21e4829E>
   1dc64:	3ec9c503          	lbu	a0,1004(s3)
   1dc68:	7a051163          	bnez	a0,1e40a <_start+0x45ea>
   1dc6c:	3ee9c503          	lbu	a0,1006(s3)
   1dc70:	3ed9c583          	lbu	a1,1005(s3)
   1dc74:	3ef9c603          	lbu	a2,1007(s3)
   1dc78:	3f09a403          	lw	s0,1008(s3)
   1dc7c:	0522                	slli	a0,a0,0x8
   1dc7e:	8d4d                	or	a0,a0,a1
   1dc80:	12a99923          	sh	a0,306(s3)
   1dc84:	12c98a23          	sb	a2,308(s3)
   1dc88:	6505                	lui	a0,0x1
   1dc8a:	39450513          	addi	a0,a0,916 # 1394 <.Lline_table_start1+0x1169>
   1dc8e:	00a105b3          	add	a1,sp,a0
   1dc92:	6505                	lui	a0,0x1
   1dc94:	33050513          	addi	a0,a0,816 # 1330 <.Lline_table_start1+0x1105>
   1dc98:	950a                	add	a0,a0,sp
   1dc9a:	05600613          	li	a2,86
   1dc9e:	00001097          	auipc	ra,0x1
   1dca2:	876080e7          	jalr	-1930(ra) # 1e514 <memcpy>
   1dca6:	01845513          	srli	a0,s0,0x18
   1dcaa:	01045593          	srli	a1,s0,0x10
   1dcae:	00845613          	srli	a2,s0,0x8
   1dcb2:	12898aa3          	sb	s0,309(s3)
   1dcb6:	12c98b23          	sb	a2,310(s3)
   1dcba:	12b98ba3          	sb	a1,311(s3)
   1dcbe:	12a98c23          	sb	a0,312(s3)
   1dcc2:	6505                	lui	a0,0x1
   1dcc4:	0d950513          	addi	a0,a0,217 # 10d9 <.Lline_table_start1+0xeae>
   1dcc8:	950a                	add	a0,a0,sp
   1dcca:	6585                	lui	a1,0x1
   1dccc:	33058593          	addi	a1,a1,816 # 1330 <.Lline_table_start1+0x1105>
   1dcd0:	958a                	add	a1,a1,sp
   1dcd2:	05600613          	li	a2,86
   1dcd6:	00001097          	auipc	ra,0x1
   1dcda:	83e080e7          	jalr	-1986(ra) # 1e514 <memcpy>
   1dcde:	6505                	lui	a0,0x1
   1dce0:	38c50513          	addi	a0,a0,908 # 138c <.Lline_table_start1+0x1161>
   1dce4:	950a                	add	a0,a0,sp
   1dce6:	6585                	lui	a1,0x1
   1dce8:	0d258593          	addi	a1,a1,210 # 10d2 <.Lline_table_start1+0xea7>
   1dcec:	958a                	add	a1,a1,sp
   1dcee:	ffff5097          	auipc	ra,0xffff5
   1dcf2:	c42080e7          	jalr	-958(ra) # 12930 <_ZN20complex_dynamic_type3app17h2f767fe541e41200E>
   1dcf6:	3ec9c503          	lbu	a0,1004(s3)
   1dcfa:	70051863          	bnez	a0,1e40a <_start+0x45ea>
   1dcfe:	3ed9c503          	lbu	a0,1005(s3)
   1dd02:	3ee9c583          	lbu	a1,1006(s3)
   1dd06:	3ef9c603          	lbu	a2,1007(s3)
   1dd0a:	3f09a683          	lw	a3,1008(s3)
   1dd0e:	3f49a703          	lw	a4,1012(s3)
   1dd12:	3f89a783          	lw	a5,1016(s3)
   1dd16:	3fc99483          	lh	s1,1020(s3)
   1dd1a:	3fe9c403          	lbu	s0,1022(s3)
   1dd1e:	05a2                	slli	a1,a1,0x8
   1dd20:	38e9a823          	sw	a4,912(s3)
   1dd24:	38f9aa23          	sw	a5,916(s3)
   1dd28:	38999c23          	sh	s1,920(s3)
   1dd2c:	38898d23          	sb	s0,922(s3)
   1dd30:	0186d713          	srli	a4,a3,0x18
   1dd34:	8d4d                	or	a0,a0,a1
   1dd36:	0106d593          	srli	a1,a3,0x10
   1dd3a:	18b98aa3          	sb	a1,405(s3)
   1dd3e:	18e98b23          	sb	a4,406(s3)
   1dd42:	0086d593          	srli	a1,a3,0x8
   1dd46:	18a99823          	sh	a0,400(s3)
   1dd4a:	18c98923          	sb	a2,402(s3)
   1dd4e:	18d989a3          	sb	a3,403(s3)
   1dd52:	18b98a23          	sb	a1,404(s3)
   1dd56:	6505                	lui	a0,0x1
   1dd58:	13750513          	addi	a0,a0,311 # 1137 <.Lline_table_start1+0xf0c>
   1dd5c:	950a                	add	a0,a0,sp
   1dd5e:	6585                	lui	a1,0x1
   1dd60:	33058593          	addi	a1,a1,816 # 1330 <.Lline_table_start1+0x1105>
   1dd64:	958a                	add	a1,a1,sp
   1dd66:	462d                	li	a2,11
   1dd68:	00000097          	auipc	ra,0x0
   1dd6c:	7ac080e7          	jalr	1964(ra) # 1e514 <memcpy>
   1dd70:	6505                	lui	a0,0x1
   1dd72:	38c50513          	addi	a0,a0,908 # 138c <.Lline_table_start1+0x1161>
   1dd76:	950a                	add	a0,a0,sp
   1dd78:	6585                	lui	a1,0x1
   1dd7a:	13058593          	addi	a1,a1,304 # 1130 <.Lline_table_start1+0xf05>
   1dd7e:	958a                	add	a1,a1,sp
   1dd80:	ffff7097          	auipc	ra,0xffff7
   1dd84:	2c2080e7          	jalr	706(ra) # 15042 <_ZN20complex_dynamic_type3app17h796ec3374a9ffa13E>
   1dd88:	3ec9c503          	lbu	a0,1004(s3)
   1dd8c:	66051f63          	bnez	a0,1e40a <_start+0x45ea>
   1dd90:	3ee9c503          	lbu	a0,1006(s3)
   1dd94:	3ed9c583          	lbu	a1,1005(s3)
   1dd98:	3ef9c603          	lbu	a2,1007(s3)
   1dd9c:	3f09a403          	lw	s0,1008(s3)
   1dda0:	0522                	slli	a0,a0,0x8
   1dda2:	8d4d                	or	a0,a0,a1
   1dda4:	1aa99123          	sh	a0,418(s3)
   1dda8:	1ac98223          	sb	a2,420(s3)
   1ddac:	6505                	lui	a0,0x1
   1ddae:	39450513          	addi	a0,a0,916 # 1394 <.Lline_table_start1+0x1169>
   1ddb2:	00a105b3          	add	a1,sp,a0
   1ddb6:	6505                	lui	a0,0x1
   1ddb8:	33050513          	addi	a0,a0,816 # 1330 <.Lline_table_start1+0x1105>
   1ddbc:	950a                	add	a0,a0,sp
   1ddbe:	03d00613          	li	a2,61
   1ddc2:	00000097          	auipc	ra,0x0
   1ddc6:	752080e7          	jalr	1874(ra) # 1e514 <memcpy>
   1ddca:	01845513          	srli	a0,s0,0x18
   1ddce:	01045593          	srli	a1,s0,0x10
   1ddd2:	00845613          	srli	a2,s0,0x8
   1ddd6:	1a8982a3          	sb	s0,421(s3)
   1ddda:	1ac98323          	sb	a2,422(s3)
   1ddde:	1ab983a3          	sb	a1,423(s3)
   1dde2:	1aa98423          	sb	a0,424(s3)
   1dde6:	6505                	lui	a0,0x1
   1dde8:	14950513          	addi	a0,a0,329 # 1149 <.Lline_table_start1+0xf1e>
   1ddec:	950a                	add	a0,a0,sp
   1ddee:	6585                	lui	a1,0x1
   1ddf0:	33058593          	addi	a1,a1,816 # 1330 <.Lline_table_start1+0x1105>
   1ddf4:	958a                	add	a1,a1,sp
   1ddf6:	03d00613          	li	a2,61
   1ddfa:	00000097          	auipc	ra,0x0
   1ddfe:	71a080e7          	jalr	1818(ra) # 1e514 <memcpy>
   1de02:	6505                	lui	a0,0x1
   1de04:	38c50513          	addi	a0,a0,908 # 138c <.Lline_table_start1+0x1161>
   1de08:	950a                	add	a0,a0,sp
   1de0a:	6585                	lui	a1,0x1
   1de0c:	14258593          	addi	a1,a1,322 # 1142 <.Lline_table_start1+0xf17>
   1de10:	958a                	add	a1,a1,sp
   1de12:	ffffb097          	auipc	ra,0xffffb
   1de16:	e0c080e7          	jalr	-500(ra) # 18c1e <_ZN20complex_dynamic_type3app17hdd42710f50f209aaE>
   1de1a:	3ec9c503          	lbu	a0,1004(s3)
   1de1e:	5e051663          	bnez	a0,1e40a <_start+0x45ea>
   1de22:	3ed9c503          	lbu	a0,1005(s3)
   1de26:	3ee9c583          	lbu	a1,1006(s3)
   1de2a:	3ef9c603          	lbu	a2,1007(s3)
   1de2e:	3f09a683          	lw	a3,1008(s3)
   1de32:	3f49a703          	lw	a4,1012(s3)
   1de36:	3f89a783          	lw	a5,1016(s3)
   1de3a:	3fc9a483          	lw	s1,1020(s3)
   1de3e:	4009a403          	lw	s0,1024(s3)
   1de42:	38e9a823          	sw	a4,912(s3)
   1de46:	38f9aa23          	sw	a5,916(s3)
   1de4a:	3899ac23          	sw	s1,920(s3)
   1de4e:	3889ae23          	sw	s0,924(s3)
   1de52:	4049a703          	lw	a4,1028(s3)
   1de56:	4089a783          	lw	a5,1032(s3)
   1de5a:	40c9a483          	lw	s1,1036(s3)
   1de5e:	05a2                	slli	a1,a1,0x8
   1de60:	3ae9a023          	sw	a4,928(s3)
   1de64:	3af9a223          	sw	a5,932(s3)
   1de68:	3a99a423          	sw	s1,936(s3)
   1de6c:	0186d713          	srli	a4,a3,0x18
   1de70:	8d4d                	or	a0,a0,a1
   1de72:	0106d593          	srli	a1,a3,0x10
   1de76:	1eb985a3          	sb	a1,491(s3)
   1de7a:	1ee98623          	sb	a4,492(s3)
   1de7e:	0086d593          	srli	a1,a3,0x8
   1de82:	1ea99323          	sh	a0,486(s3)
   1de86:	1ec98423          	sb	a2,488(s3)
   1de8a:	1ed984a3          	sb	a3,489(s3)
   1de8e:	1eb98523          	sb	a1,490(s3)
   1de92:	6505                	lui	a0,0x1
   1de94:	18d50513          	addi	a0,a0,397 # 118d <.Lline_table_start1+0xf62>
   1de98:	950a                	add	a0,a0,sp
   1de9a:	6585                	lui	a1,0x1
   1de9c:	33058593          	addi	a1,a1,816 # 1330 <.Lline_table_start1+0x1105>
   1dea0:	958a                	add	a1,a1,sp
   1dea2:	4671                	li	a2,28
   1dea4:	00000097          	auipc	ra,0x0
   1dea8:	670080e7          	jalr	1648(ra) # 1e514 <memcpy>
   1deac:	6505                	lui	a0,0x1
   1deae:	38c50513          	addi	a0,a0,908 # 138c <.Lline_table_start1+0x1161>
   1deb2:	950a                	add	a0,a0,sp
   1deb4:	6585                	lui	a1,0x1
   1deb6:	18658593          	addi	a1,a1,390 # 1186 <.Lline_table_start1+0xf5b>
   1deba:	958a                	add	a1,a1,sp
   1debc:	ffff9097          	auipc	ra,0xffff9
   1dec0:	70c080e7          	jalr	1804(ra) # 175c8 <_ZN20complex_dynamic_type3app17hb9bfbb822f918faaE>
   1dec4:	3ec9c503          	lbu	a0,1004(s3)
   1dec8:	54051163          	bnez	a0,1e40a <_start+0x45ea>
   1decc:	3ed9c503          	lbu	a0,1005(s3)
   1ded0:	3ee9c583          	lbu	a1,1006(s3)
   1ded4:	3ef9c603          	lbu	a2,1007(s3)
   1ded8:	3f09a683          	lw	a3,1008(s3)
   1dedc:	3f49a703          	lw	a4,1012(s3)
   1dee0:	3f89a783          	lw	a5,1016(s3)
   1dee4:	3fc9a483          	lw	s1,1020(s3)
   1dee8:	4009a403          	lw	s0,1024(s3)
   1deec:	38e9a823          	sw	a4,912(s3)
   1def0:	38f9aa23          	sw	a5,916(s3)
   1def4:	3899ac23          	sw	s1,920(s3)
   1def8:	3889ae23          	sw	s0,924(s3)
   1defc:	4049a703          	lw	a4,1028(s3)
   1df00:	4089a783          	lw	a5,1032(s3)
   1df04:	40c9a483          	lw	s1,1036(s3)
   1df08:	4109c403          	lbu	s0,1040(s3)
   1df0c:	05a2                	slli	a1,a1,0x8
   1df0e:	3ae9a023          	sw	a4,928(s3)
   1df12:	3af9a223          	sw	a5,932(s3)
   1df16:	3a99a423          	sw	s1,936(s3)
   1df1a:	3a898623          	sb	s0,940(s3)
   1df1e:	0186d713          	srli	a4,a3,0x18
   1df22:	8d4d                	or	a0,a0,a1
   1df24:	0106d593          	srli	a1,a3,0x10
   1df28:	20b987a3          	sb	a1,527(s3)
   1df2c:	20e98823          	sb	a4,528(s3)
   1df30:	0086d593          	srli	a1,a3,0x8
   1df34:	20a99523          	sh	a0,522(s3)
   1df38:	20c98623          	sb	a2,524(s3)
   1df3c:	20d986a3          	sb	a3,525(s3)
   1df40:	20b98723          	sb	a1,526(s3)
   1df44:	6505                	lui	a0,0x1
   1df46:	1b150513          	addi	a0,a0,433 # 11b1 <.Lline_table_start1+0xf86>
   1df4a:	950a                	add	a0,a0,sp
   1df4c:	6585                	lui	a1,0x1
   1df4e:	33058593          	addi	a1,a1,816 # 1330 <.Lline_table_start1+0x1105>
   1df52:	958a                	add	a1,a1,sp
   1df54:	4675                	li	a2,29
   1df56:	00000097          	auipc	ra,0x0
   1df5a:	5be080e7          	jalr	1470(ra) # 1e514 <memcpy>
   1df5e:	6505                	lui	a0,0x1
   1df60:	38c50513          	addi	a0,a0,908 # 138c <.Lline_table_start1+0x1161>
   1df64:	950a                	add	a0,a0,sp
   1df66:	6585                	lui	a1,0x1
   1df68:	1aa58593          	addi	a1,a1,426 # 11aa <.Lline_table_start1+0xf7f>
   1df6c:	958a                	add	a1,a1,sp
   1df6e:	ffff8097          	auipc	ra,0xffff8
   1df72:	5d6080e7          	jalr	1494(ra) # 16544 <_ZN20complex_dynamic_type3app17h9f2a940f2945ecfcE>
   1df76:	3ec9c503          	lbu	a0,1004(s3)
   1df7a:	48051863          	bnez	a0,1e40a <_start+0x45ea>
   1df7e:	3ee9c503          	lbu	a0,1006(s3)
   1df82:	3ed9c583          	lbu	a1,1005(s3)
   1df86:	3ef9c603          	lbu	a2,1007(s3)
   1df8a:	3f09a403          	lw	s0,1008(s3)
   1df8e:	0522                	slli	a0,a0,0x8
   1df90:	8d4d                	or	a0,a0,a1
   1df92:	22a99723          	sh	a0,558(s3)
   1df96:	22c98823          	sb	a2,560(s3)
   1df9a:	6505                	lui	a0,0x1
   1df9c:	39450513          	addi	a0,a0,916 # 1394 <.Lline_table_start1+0x1169>
   1dfa0:	00a105b3          	add	a1,sp,a0
   1dfa4:	6505                	lui	a0,0x1
   1dfa6:	33050513          	addi	a0,a0,816 # 1330 <.Lline_table_start1+0x1105>
   1dfaa:	950a                	add	a0,a0,sp
   1dfac:	02800613          	li	a2,40
   1dfb0:	00000097          	auipc	ra,0x0
   1dfb4:	564080e7          	jalr	1380(ra) # 1e514 <memcpy>
   1dfb8:	01845513          	srli	a0,s0,0x18
   1dfbc:	01045593          	srli	a1,s0,0x10
   1dfc0:	00845613          	srli	a2,s0,0x8
   1dfc4:	228988a3          	sb	s0,561(s3)
   1dfc8:	22c98923          	sb	a2,562(s3)
   1dfcc:	22b989a3          	sb	a1,563(s3)
   1dfd0:	22a98a23          	sb	a0,564(s3)
   1dfd4:	6505                	lui	a0,0x1
   1dfd6:	1d550513          	addi	a0,a0,469 # 11d5 <.Lline_table_start1+0xfaa>
   1dfda:	950a                	add	a0,a0,sp
   1dfdc:	6585                	lui	a1,0x1
   1dfde:	33058593          	addi	a1,a1,816 # 1330 <.Lline_table_start1+0x1105>
   1dfe2:	958a                	add	a1,a1,sp
   1dfe4:	02800613          	li	a2,40
   1dfe8:	00000097          	auipc	ra,0x0
   1dfec:	52c080e7          	jalr	1324(ra) # 1e514 <memcpy>
   1dff0:	6505                	lui	a0,0x1
   1dff2:	38c50513          	addi	a0,a0,908 # 138c <.Lline_table_start1+0x1161>
   1dff6:	950a                	add	a0,a0,sp
   1dff8:	6585                	lui	a1,0x1
   1dffa:	1ce58593          	addi	a1,a1,462 # 11ce <.Lline_table_start1+0xfa3>
   1dffe:	958a                	add	a1,a1,sp
   1e000:	ffffb097          	auipc	ra,0xffffb
   1e004:	230080e7          	jalr	560(ra) # 19230 <_ZN20complex_dynamic_type3app17he8e8d0d045b7eb24E>
   1e008:	3ec9c503          	lbu	a0,1004(s3)
   1e00c:	3e051f63          	bnez	a0,1e40a <_start+0x45ea>
   1e010:	3ee9c503          	lbu	a0,1006(s3)
   1e014:	3ed9c583          	lbu	a1,1005(s3)
   1e018:	3ef9c603          	lbu	a2,1007(s3)
   1e01c:	3f09a403          	lw	s0,1008(s3)
   1e020:	0522                	slli	a0,a0,0x8
   1e022:	8d4d                	or	a0,a0,a1
   1e024:	24a99f23          	sh	a0,606(s3)
   1e028:	26c98023          	sb	a2,608(s3)
   1e02c:	6505                	lui	a0,0x1
   1e02e:	39450513          	addi	a0,a0,916 # 1394 <.Lline_table_start1+0x1169>
   1e032:	00a105b3          	add	a1,sp,a0
   1e036:	6505                	lui	a0,0x1
   1e038:	33050513          	addi	a0,a0,816 # 1330 <.Lline_table_start1+0x1105>
   1e03c:	950a                	add	a0,a0,sp
   1e03e:	05700613          	li	a2,87
   1e042:	00000097          	auipc	ra,0x0
   1e046:	4d2080e7          	jalr	1234(ra) # 1e514 <memcpy>
   1e04a:	01845513          	srli	a0,s0,0x18
   1e04e:	01045593          	srli	a1,s0,0x10
   1e052:	00845613          	srli	a2,s0,0x8
   1e056:	268980a3          	sb	s0,609(s3)
   1e05a:	26c98123          	sb	a2,610(s3)
   1e05e:	26b981a3          	sb	a1,611(s3)
   1e062:	26a98223          	sb	a0,612(s3)
   1e066:	6505                	lui	a0,0x1
   1e068:	20550513          	addi	a0,a0,517 # 1205 <.Lline_table_start1+0xfda>
   1e06c:	950a                	add	a0,a0,sp
   1e06e:	6585                	lui	a1,0x1
   1e070:	33058593          	addi	a1,a1,816 # 1330 <.Lline_table_start1+0x1105>
   1e074:	958a                	add	a1,a1,sp
   1e076:	05700613          	li	a2,87
   1e07a:	00000097          	auipc	ra,0x0
   1e07e:	49a080e7          	jalr	1178(ra) # 1e514 <memcpy>
   1e082:	6505                	lui	a0,0x1
   1e084:	38c50513          	addi	a0,a0,908 # 138c <.Lline_table_start1+0x1161>
   1e088:	950a                	add	a0,a0,sp
   1e08a:	6585                	lui	a1,0x1
   1e08c:	1fe58593          	addi	a1,a1,510 # 11fe <.Lline_table_start1+0xfd3>
   1e090:	958a                	add	a1,a1,sp
   1e092:	ffffb097          	auipc	ra,0xffffb
   1e096:	d10080e7          	jalr	-752(ra) # 18da2 <_ZN20complex_dynamic_type3app17hde55e91e632df8ecE>
   1e09a:	3ec9c503          	lbu	a0,1004(s3)
   1e09e:	36051663          	bnez	a0,1e40a <_start+0x45ea>
   1e0a2:	3ee9c503          	lbu	a0,1006(s3)
   1e0a6:	3ed9c583          	lbu	a1,1005(s3)
   1e0aa:	3ef9c603          	lbu	a2,1007(s3)
   1e0ae:	3f09a403          	lw	s0,1008(s3)
   1e0b2:	0522                	slli	a0,a0,0x8
   1e0b4:	8d4d                	or	a0,a0,a1
   1e0b6:	2aa99e23          	sh	a0,700(s3)
   1e0ba:	2ac98f23          	sb	a2,702(s3)
   1e0be:	6505                	lui	a0,0x1
   1e0c0:	39450513          	addi	a0,a0,916 # 1394 <.Lline_table_start1+0x1169>
   1e0c4:	00a105b3          	add	a1,sp,a0
   1e0c8:	6505                	lui	a0,0x1
   1e0ca:	33050513          	addi	a0,a0,816 # 1330 <.Lline_table_start1+0x1105>
   1e0ce:	950a                	add	a0,a0,sp
   1e0d0:	04e00613          	li	a2,78
   1e0d4:	00000097          	auipc	ra,0x0
   1e0d8:	440080e7          	jalr	1088(ra) # 1e514 <memcpy>
   1e0dc:	01845513          	srli	a0,s0,0x18
   1e0e0:	01045593          	srli	a1,s0,0x10
   1e0e4:	00845613          	srli	a2,s0,0x8
   1e0e8:	2a898fa3          	sb	s0,703(s3)
   1e0ec:	2cc98023          	sb	a2,704(s3)
   1e0f0:	2cb980a3          	sb	a1,705(s3)
   1e0f4:	2ca98123          	sb	a0,706(s3)
   1e0f8:	6505                	lui	a0,0x1
   1e0fa:	26350513          	addi	a0,a0,611 # 1263 <.Lline_table_start1+0x1038>
   1e0fe:	950a                	add	a0,a0,sp
   1e100:	6585                	lui	a1,0x1
   1e102:	33058593          	addi	a1,a1,816 # 1330 <.Lline_table_start1+0x1105>
   1e106:	958a                	add	a1,a1,sp
   1e108:	04e00613          	li	a2,78
   1e10c:	00000097          	auipc	ra,0x0
   1e110:	408080e7          	jalr	1032(ra) # 1e514 <memcpy>
   1e114:	6505                	lui	a0,0x1
   1e116:	38c50513          	addi	a0,a0,908 # 138c <.Lline_table_start1+0x1161>
   1e11a:	950a                	add	a0,a0,sp
   1e11c:	6585                	lui	a1,0x1
   1e11e:	25c58593          	addi	a1,a1,604 # 125c <.Lline_table_start1+0x1031>
   1e122:	958a                	add	a1,a1,sp
   1e124:	ffff6097          	auipc	ra,0xffff6
   1e128:	89c080e7          	jalr	-1892(ra) # 139c0 <_ZN20complex_dynamic_type3app17h4b0c1d263463686fE>
   1e12c:	3ec9c503          	lbu	a0,1004(s3)
   1e130:	2c051d63          	bnez	a0,1e40a <_start+0x45ea>
   1e134:	3ed9c503          	lbu	a0,1005(s3)
   1e138:	3ee9c583          	lbu	a1,1006(s3)
   1e13c:	3ef9c603          	lbu	a2,1007(s3)
   1e140:	3f09a683          	lw	a3,1008(s3)
   1e144:	3f49a703          	lw	a4,1012(s3)
   1e148:	3f89a783          	lw	a5,1016(s3)
   1e14c:	3fc99483          	lh	s1,1020(s3)
   1e150:	05a2                	slli	a1,a1,0x8
   1e152:	38e9a823          	sw	a4,912(s3)
   1e156:	38f9aa23          	sw	a5,916(s3)
   1e15a:	38999c23          	sh	s1,920(s3)
   1e15e:	0186d713          	srli	a4,a3,0x18
   1e162:	8d4d                	or	a0,a0,a1
   1e164:	0106d593          	srli	a1,a3,0x10
   1e168:	30b98ba3          	sb	a1,791(s3)
   1e16c:	30e98c23          	sb	a4,792(s3)
   1e170:	0086d593          	srli	a1,a3,0x8
   1e174:	30a99923          	sh	a0,786(s3)
   1e178:	30c98a23          	sb	a2,788(s3)
   1e17c:	30d98aa3          	sb	a3,789(s3)
   1e180:	30b98b23          	sb	a1,790(s3)
   1e184:	6505                	lui	a0,0x1
   1e186:	2b950513          	addi	a0,a0,697 # 12b9 <.Lline_table_start1+0x108e>
   1e18a:	950a                	add	a0,a0,sp
   1e18c:	6585                	lui	a1,0x1
   1e18e:	33058593          	addi	a1,a1,816 # 1330 <.Lline_table_start1+0x1105>
   1e192:	958a                	add	a1,a1,sp
   1e194:	4629                	li	a2,10
   1e196:	00000097          	auipc	ra,0x0
   1e19a:	37e080e7          	jalr	894(ra) # 1e514 <memcpy>
   1e19e:	6505                	lui	a0,0x1
   1e1a0:	38c50513          	addi	a0,a0,908 # 138c <.Lline_table_start1+0x1161>
   1e1a4:	950a                	add	a0,a0,sp
   1e1a6:	6585                	lui	a1,0x1
   1e1a8:	2b258593          	addi	a1,a1,690 # 12b2 <.Lline_table_start1+0x1087>
   1e1ac:	958a                	add	a1,a1,sp
   1e1ae:	ffff5097          	auipc	ra,0xffff5
   1e1b2:	a82080e7          	jalr	-1406(ra) # 12c30 <_ZN20complex_dynamic_type3app17h326614e2665df7a2E>
   1e1b6:	3ec9c503          	lbu	a0,1004(s3)
   1e1ba:	24051863          	bnez	a0,1e40a <_start+0x45ea>
   1e1be:	3ee9c503          	lbu	a0,1006(s3)
   1e1c2:	3ed9c583          	lbu	a1,1005(s3)
   1e1c6:	3ef9c603          	lbu	a2,1007(s3)
   1e1ca:	3f09a403          	lw	s0,1008(s3)
   1e1ce:	0522                	slli	a0,a0,0x8
   1e1d0:	8d4d                	or	a0,a0,a1
   1e1d2:	32a99223          	sh	a0,804(s3)
   1e1d6:	32c98323          	sb	a2,806(s3)
   1e1da:	6505                	lui	a0,0x1
   1e1dc:	39450513          	addi	a0,a0,916 # 1394 <.Lline_table_start1+0x1169>
   1e1e0:	00a105b3          	add	a1,sp,a0
   1e1e4:	6505                	lui	a0,0x1
   1e1e6:	33050513          	addi	a0,a0,816 # 1330 <.Lline_table_start1+0x1105>
   1e1ea:	950a                	add	a0,a0,sp
   1e1ec:	04900613          	li	a2,73
   1e1f0:	00000097          	auipc	ra,0x0
   1e1f4:	324080e7          	jalr	804(ra) # 1e514 <memcpy>
   1e1f8:	01845513          	srli	a0,s0,0x18
   1e1fc:	01045593          	srli	a1,s0,0x10
   1e200:	00845613          	srli	a2,s0,0x8
   1e204:	328983a3          	sb	s0,807(s3)
   1e208:	32c98423          	sb	a2,808(s3)
   1e20c:	32b984a3          	sb	a1,809(s3)
   1e210:	32a98523          	sb	a0,810(s3)
   1e214:	6505                	lui	a0,0x1
   1e216:	2cb50513          	addi	a0,a0,715 # 12cb <.Lline_table_start1+0x10a0>
   1e21a:	950a                	add	a0,a0,sp
   1e21c:	6585                	lui	a1,0x1
   1e21e:	33058593          	addi	a1,a1,816 # 1330 <.Lline_table_start1+0x1105>
   1e222:	958a                	add	a1,a1,sp
   1e224:	04900613          	li	a2,73
   1e228:	00000097          	auipc	ra,0x0
   1e22c:	2ec080e7          	jalr	748(ra) # 1e514 <memcpy>
   1e230:	6505                	lui	a0,0x1
   1e232:	38c50513          	addi	a0,a0,908 # 138c <.Lline_table_start1+0x1161>
   1e236:	950a                	add	a0,a0,sp
   1e238:	6585                	lui	a1,0x1
   1e23a:	2c458593          	addi	a1,a1,708 # 12c4 <.Lline_table_start1+0x1099>
   1e23e:	958a                	add	a1,a1,sp
   1e240:	ffff6097          	auipc	ra,0xffff6
   1e244:	f12080e7          	jalr	-238(ra) # 14152 <_ZN20complex_dynamic_type3app17h5a1d01c8250d57a0E>
   1e248:	3ec9c503          	lbu	a0,1004(s3)
   1e24c:	1a051f63          	bnez	a0,1e40a <_start+0x45ea>
   1e250:	3ed9c503          	lbu	a0,1005(s3)
   1e254:	3ee9c583          	lbu	a1,1006(s3)
   1e258:	3ef9c803          	lbu	a6,1007(s3)
   1e25c:	3f09a683          	lw	a3,1008(s3)
   1e260:	3f49a703          	lw	a4,1012(s3)
   1e264:	3f89a783          	lw	a5,1016(s3)
   1e268:	3fc9a483          	lw	s1,1020(s3)
   1e26c:	4009a403          	lw	s0,1024(s3)
   1e270:	4049a603          	lw	a2,1028(s3)
   1e274:	05a2                	slli	a1,a1,0x8
   1e276:	3899ac23          	sw	s1,920(s3)
   1e27a:	3889ae23          	sw	s0,924(s3)
   1e27e:	3ac9a023          	sw	a2,928(s3)
   1e282:	0186d613          	srli	a2,a3,0x18
   1e286:	8d4d                	or	a0,a0,a1
   1e288:	0106d593          	srli	a1,a3,0x10
   1e28c:	36b98ca3          	sb	a1,889(s3)
   1e290:	36c98d23          	sb	a2,890(s3)
   1e294:	38e9a823          	sw	a4,912(s3)
   1e298:	38f9aa23          	sw	a5,916(s3)
   1e29c:	0086d593          	srli	a1,a3,0x8
   1e2a0:	36a99a23          	sh	a0,884(s3)
   1e2a4:	37098b23          	sb	a6,886(s3)
   1e2a8:	36d98ba3          	sb	a3,887(s3)
   1e2ac:	36b98c23          	sb	a1,888(s3)
   1e2b0:	6505                	lui	a0,0x1
   1e2b2:	31b50513          	addi	a0,a0,795 # 131b <.Lline_table_start1+0x10f0>
   1e2b6:	950a                	add	a0,a0,sp
   1e2b8:	6585                	lui	a1,0x1
   1e2ba:	33058593          	addi	a1,a1,816 # 1330 <.Lline_table_start1+0x1105>
   1e2be:	958a                	add	a1,a1,sp
   1e2c0:	4651                	li	a2,20
   1e2c2:	00000097          	auipc	ra,0x0
   1e2c6:	252080e7          	jalr	594(ra) # 1e514 <memcpy>
   1e2ca:	6505                	lui	a0,0x1
   1e2cc:	38c50513          	addi	a0,a0,908 # 138c <.Lline_table_start1+0x1161>
   1e2d0:	950a                	add	a0,a0,sp
   1e2d2:	6585                	lui	a1,0x1
   1e2d4:	31458593          	addi	a1,a1,788 # 1314 <.Lline_table_start1+0x10e9>
   1e2d8:	958a                	add	a1,a1,sp
   1e2da:	ffff6097          	auipc	ra,0xffff6
   1e2de:	9ea080e7          	jalr	-1558(ra) # 13cc4 <_ZN20complex_dynamic_type3app17h4cf9c50398d94692E>
   1e2e2:	3ec9c503          	lbu	a0,1004(s3)
   1e2e6:	12051263          	bnez	a0,1e40a <_start+0x45ea>
   1e2ea:	3ee9c503          	lbu	a0,1006(s3)
   1e2ee:	3ed9c583          	lbu	a1,1005(s3)
   1e2f2:	3ef9c603          	lbu	a2,1007(s3)
   1e2f6:	3f09a403          	lw	s0,1008(s3)
   1e2fa:	0522                	slli	a0,a0,0x8
   1e2fc:	8d4d                	or	a0,a0,a1
   1e2fe:	44a99923          	sh	a0,1106(s3)
   1e302:	44c98a23          	sb	a2,1108(s3)
   1e306:	6505                	lui	a0,0x1
   1e308:	39450513          	addi	a0,a0,916 # 1394 <.Lline_table_start1+0x1169>
   1e30c:	00a105b3          	add	a1,sp,a0
   1e310:	6505                	lui	a0,0x1
   1e312:	33050513          	addi	a0,a0,816 # 1330 <.Lline_table_start1+0x1105>
   1e316:	950a                	add	a0,a0,sp
   1e318:	05c00613          	li	a2,92
   1e31c:	00000097          	auipc	ra,0x0
   1e320:	1f8080e7          	jalr	504(ra) # 1e514 <memcpy>
   1e324:	01845513          	srli	a0,s0,0x18
   1e328:	01045593          	srli	a1,s0,0x10
   1e32c:	00845613          	srli	a2,s0,0x8
   1e330:	44898aa3          	sb	s0,1109(s3)
   1e334:	44c98b23          	sb	a2,1110(s3)
   1e338:	44b98ba3          	sb	a1,1111(s3)
   1e33c:	44a98c23          	sb	a0,1112(s3)
   1e340:	6505                	lui	a0,0x1
   1e342:	3f950513          	addi	a0,a0,1017 # 13f9 <.Lline_table_start1+0x11ce>
   1e346:	950a                	add	a0,a0,sp
   1e348:	6585                	lui	a1,0x1
   1e34a:	33058593          	addi	a1,a1,816 # 1330 <.Lline_table_start1+0x1105>
   1e34e:	958a                	add	a1,a1,sp
   1e350:	05c00613          	li	a2,92
   1e354:	00000097          	auipc	ra,0x0
   1e358:	1c0080e7          	jalr	448(ra) # 1e514 <memcpy>
   1e35c:	6505                	lui	a0,0x1
   1e35e:	38c50513          	addi	a0,a0,908 # 138c <.Lline_table_start1+0x1161>
   1e362:	950a                	add	a0,a0,sp
   1e364:	6585                	lui	a1,0x1
   1e366:	3f258593          	addi	a1,a1,1010 # 13f2 <.Lline_table_start1+0x11c7>
   1e36a:	958a                	add	a1,a1,sp
   1e36c:	ffff8097          	auipc	ra,0xffff8
   1e370:	eee080e7          	jalr	-274(ra) # 1625a <_ZN20complex_dynamic_type3app17h9a7d89c65b2bac25E>
   1e374:	3ec9c503          	lbu	a0,1004(s3)
   1e378:	e949                	bnez	a0,1e40a <_start+0x45ea>
   1e37a:	3ee9c503          	lbu	a0,1006(s3)
   1e37e:	3ed9c583          	lbu	a1,1005(s3)
   1e382:	3ef9c603          	lbu	a2,1007(s3)
   1e386:	3f09a403          	lw	s0,1008(s3)
   1e38a:	0522                	slli	a0,a0,0x8
   1e38c:	8d4d                	or	a0,a0,a1
   1e38e:	4aa99b23          	sh	a0,1206(s3)
   1e392:	4ac98c23          	sb	a2,1208(s3)
   1e396:	6505                	lui	a0,0x1
   1e398:	39450513          	addi	a0,a0,916 # 1394 <.Lline_table_start1+0x1169>
   1e39c:	00a105b3          	add	a1,sp,a0
   1e3a0:	6505                	lui	a0,0x1
   1e3a2:	33050513          	addi	a0,a0,816 # 1330 <.Lline_table_start1+0x1105>
   1e3a6:	950a                	add	a0,a0,sp
   1e3a8:	02500613          	li	a2,37
   1e3ac:	00000097          	auipc	ra,0x0
   1e3b0:	168080e7          	jalr	360(ra) # 1e514 <memcpy>
   1e3b4:	01845513          	srli	a0,s0,0x18
   1e3b8:	01045593          	srli	a1,s0,0x10
   1e3bc:	00845613          	srli	a2,s0,0x8
   1e3c0:	4a898ca3          	sb	s0,1209(s3)
   1e3c4:	4ac98d23          	sb	a2,1210(s3)
   1e3c8:	4ab98da3          	sb	a1,1211(s3)
   1e3cc:	4aa98e23          	sb	a0,1212(s3)
   1e3d0:	6505                	lui	a0,0x1
   1e3d2:	45d50513          	addi	a0,a0,1117 # 145d <.Lline_table_start1+0x1232>
   1e3d6:	950a                	add	a0,a0,sp
   1e3d8:	6585                	lui	a1,0x1
   1e3da:	33058593          	addi	a1,a1,816 # 1330 <.Lline_table_start1+0x1105>
   1e3de:	958a                	add	a1,a1,sp
   1e3e0:	02500613          	li	a2,37
   1e3e4:	00000097          	auipc	ra,0x0
   1e3e8:	130080e7          	jalr	304(ra) # 1e514 <memcpy>
   1e3ec:	6505                	lui	a0,0x1
   1e3ee:	38c50513          	addi	a0,a0,908 # 138c <.Lline_table_start1+0x1161>
   1e3f2:	950a                	add	a0,a0,sp
   1e3f4:	6585                	lui	a1,0x1
   1e3f6:	45658593          	addi	a1,a1,1110 # 1456 <.Lline_table_start1+0x122b>
   1e3fa:	958a                	add	a1,a1,sp
   1e3fc:	ffffa097          	auipc	ra,0xffffa
   1e400:	93c080e7          	jalr	-1732(ra) # 17d38 <_ZN20complex_dynamic_type3app17hc6bc96591714140aE>
   1e404:	3ec9c503          	lbu	a0,1004(s3)
   1e408:	c509                	beqz	a0,1e412 <_start+0x45f2>
   1e40a:	3f09a583          	lw	a1,1008(s3)
   1e40e:	b21fb06f          	j	19f2e <_start+0x10e>
   1e412:	3ee9c503          	lbu	a0,1006(s3)
   1e416:	3ed9c583          	lbu	a1,1005(s3)
   1e41a:	3ef9c603          	lbu	a2,1007(s3)
   1e41e:	3f09a403          	lw	s0,1008(s3)
   1e422:	0522                	slli	a0,a0,0x8
   1e424:	8d4d                	or	a0,a0,a1
   1e426:	4ea99123          	sh	a0,1250(s3)
   1e42a:	4ec98223          	sb	a2,1252(s3)
   1e42e:	6505                	lui	a0,0x1
   1e430:	39450513          	addi	a0,a0,916 # 1394 <.Lline_table_start1+0x1169>
   1e434:	00a105b3          	add	a1,sp,a0
   1e438:	6505                	lui	a0,0x1
   1e43a:	33050513          	addi	a0,a0,816 # 1330 <.Lline_table_start1+0x1105>
   1e43e:	950a                	add	a0,a0,sp
   1e440:	02300613          	li	a2,35
   1e444:	00000097          	auipc	ra,0x0
   1e448:	0d0080e7          	jalr	208(ra) # 1e514 <memcpy>
   1e44c:	01845513          	srli	a0,s0,0x18
   1e450:	01045593          	srli	a1,s0,0x10
   1e454:	00845613          	srli	a2,s0,0x8
   1e458:	4e8982a3          	sb	s0,1253(s3)
   1e45c:	4ec98323          	sb	a2,1254(s3)
   1e460:	4eb983a3          	sb	a1,1255(s3)
   1e464:	4ea98423          	sb	a0,1256(s3)
   1e468:	6505                	lui	a0,0x1
   1e46a:	48950513          	addi	a0,a0,1161 # 1489 <.Lline_table_start1+0x125e>
   1e46e:	950a                	add	a0,a0,sp
   1e470:	6585                	lui	a1,0x1
   1e472:	33058593          	addi	a1,a1,816 # 1330 <.Lline_table_start1+0x1105>
   1e476:	958a                	add	a1,a1,sp
   1e478:	02300613          	li	a2,35
   1e47c:	00000097          	auipc	ra,0x0
   1e480:	098080e7          	jalr	152(ra) # 1e514 <memcpy>
   1e484:	6505                	lui	a0,0x1
   1e486:	38c50513          	addi	a0,a0,908 # 138c <.Lline_table_start1+0x1161>
   1e48a:	950a                	add	a0,a0,sp
   1e48c:	6585                	lui	a1,0x1
   1e48e:	48258593          	addi	a1,a1,1154 # 1482 <.Lline_table_start1+0x1257>
   1e492:	958a                	add	a1,a1,sp
   1e494:	ffffb097          	auipc	ra,0xffffb
   1e498:	1fc080e7          	jalr	508(ra) # 19690 <_ZN20complex_dynamic_type3app17hf527b74f458a8b72E>
   1e49c:	3ec9c503          	lbu	a0,1004(s3)
   1e4a0:	3f09a583          	lw	a1,1008(s3)
   1e4a4:	a8dfb06f          	j	19f30 <_start+0x110>

0001e4a8 <memset>:
   1e4a8:	46c1                	li	a3,16
   1e4aa:	04d66f63          	bltu	a2,a3,1e508 <memset+0x60>
   1e4ae:	40a006b3          	neg	a3,a0
   1e4b2:	0036f813          	andi	a6,a3,3
   1e4b6:	01050733          	add	a4,a0,a6
   1e4ba:	00e57963          	bgeu	a0,a4,1e4cc <memset+0x24>
   1e4be:	87c2                	mv	a5,a6
   1e4c0:	86aa                	mv	a3,a0
   1e4c2:	00b68023          	sb	a1,0(a3)
   1e4c6:	17fd                	addi	a5,a5,-1
   1e4c8:	0685                	addi	a3,a3,1
   1e4ca:	ffe5                	bnez	a5,1e4c2 <memset+0x1a>
   1e4cc:	41060633          	sub	a2,a2,a6
   1e4d0:	ffc67693          	andi	a3,a2,-4
   1e4d4:	96ba                	add	a3,a3,a4
   1e4d6:	00d77e63          	bgeu	a4,a3,1e4f2 <memset+0x4a>
   1e4da:	0ff5f813          	zext.b	a6,a1
   1e4de:	010107b7          	lui	a5,0x1010
   1e4e2:	10178793          	addi	a5,a5,257 # 1010101 <_ZN17compiler_builtins3mem6memcpy17h90d0c987d2ef5a79E+0xff1be5>
   1e4e6:	02f807b3          	mul	a5,a6,a5
   1e4ea:	c31c                	sw	a5,0(a4)
   1e4ec:	0711                	addi	a4,a4,4
   1e4ee:	fed76ee3          	bltu	a4,a3,1e4ea <memset+0x42>
   1e4f2:	8a0d                	andi	a2,a2,3
   1e4f4:	00c68733          	add	a4,a3,a2
   1e4f8:	00e6f763          	bgeu	a3,a4,1e506 <memset+0x5e>
   1e4fc:	00b68023          	sb	a1,0(a3)
   1e500:	167d                	addi	a2,a2,-1
   1e502:	0685                	addi	a3,a3,1
   1e504:	fe65                	bnez	a2,1e4fc <memset+0x54>
   1e506:	8082                	ret
   1e508:	86aa                	mv	a3,a0
   1e50a:	00c50733          	add	a4,a0,a2
   1e50e:	fee567e3          	bltu	a0,a4,1e4fc <memset+0x54>
   1e512:	bfd5                	j	1e506 <memset+0x5e>

0001e514 <memcpy>:
   1e514:	00000317          	auipc	t1,0x0
   1e518:	00830067          	jr	8(t1) # 1e51c <_ZN17compiler_builtins3mem6memcpy17h90d0c987d2ef5a79E>

0001e51c <_ZN17compiler_builtins3mem6memcpy17h90d0c987d2ef5a79E>:
   1e51c:	1141                	addi	sp,sp,-16
   1e51e:	c622                	sw	s0,12(sp)
   1e520:	46c1                	li	a3,16
   1e522:	06d66363          	bltu	a2,a3,1e588 <_ZN17compiler_builtins3mem6memcpy17h90d0c987d2ef5a79E+0x6c>
   1e526:	40a006b3          	neg	a3,a0
   1e52a:	0036f813          	andi	a6,a3,3
   1e52e:	01050fb3          	add	t6,a0,a6
   1e532:	01f57d63          	bgeu	a0,t6,1e54c <_ZN17compiler_builtins3mem6memcpy17h90d0c987d2ef5a79E+0x30>
   1e536:	8742                	mv	a4,a6
   1e538:	86aa                	mv	a3,a0
   1e53a:	87ae                	mv	a5,a1
   1e53c:	0007c883          	lbu	a7,0(a5)
   1e540:	177d                	addi	a4,a4,-1
   1e542:	01168023          	sb	a7,0(a3)
   1e546:	0685                	addi	a3,a3,1
   1e548:	0785                	addi	a5,a5,1
   1e54a:	fb6d                	bnez	a4,1e53c <_ZN17compiler_builtins3mem6memcpy17h90d0c987d2ef5a79E+0x20>
   1e54c:	01058433          	add	s0,a1,a6
   1e550:	410608b3          	sub	a7,a2,a6
   1e554:	ffc8f713          	andi	a4,a7,-4
   1e558:	00347613          	andi	a2,s0,3
   1e55c:	00ef86b3          	add	a3,t6,a4
   1e560:	e621                	bnez	a2,1e5a8 <_ZN17compiler_builtins3mem6memcpy17h90d0c987d2ef5a79E+0x8c>
   1e562:	00dffa63          	bgeu	t6,a3,1e576 <_ZN17compiler_builtins3mem6memcpy17h90d0c987d2ef5a79E+0x5a>
   1e566:	8622                	mv	a2,s0
   1e568:	421c                	lw	a5,0(a2)
   1e56a:	00ffa023          	sw	a5,0(t6)
   1e56e:	0f91                	addi	t6,t6,4
   1e570:	0611                	addi	a2,a2,4
   1e572:	fedfebe3          	bltu	t6,a3,1e568 <_ZN17compiler_builtins3mem6memcpy17h90d0c987d2ef5a79E+0x4c>
   1e576:	00e405b3          	add	a1,s0,a4
   1e57a:	0038f613          	andi	a2,a7,3
   1e57e:	00c68733          	add	a4,a3,a2
   1e582:	00e6e863          	bltu	a3,a4,1e592 <_ZN17compiler_builtins3mem6memcpy17h90d0c987d2ef5a79E+0x76>
   1e586:	a831                	j	1e5a2 <_ZN17compiler_builtins3mem6memcpy17h90d0c987d2ef5a79E+0x86>
   1e588:	86aa                	mv	a3,a0
   1e58a:	00c50733          	add	a4,a0,a2
   1e58e:	00e57a63          	bgeu	a0,a4,1e5a2 <_ZN17compiler_builtins3mem6memcpy17h90d0c987d2ef5a79E+0x86>
   1e592:	0005c703          	lbu	a4,0(a1)
   1e596:	167d                	addi	a2,a2,-1
   1e598:	00e68023          	sb	a4,0(a3)
   1e59c:	0685                	addi	a3,a3,1
   1e59e:	0585                	addi	a1,a1,1
   1e5a0:	fa6d                	bnez	a2,1e592 <_ZN17compiler_builtins3mem6memcpy17h90d0c987d2ef5a79E+0x76>
   1e5a2:	4432                	lw	s0,12(sp)
   1e5a4:	0141                	addi	sp,sp,16
   1e5a6:	8082                	ret
   1e5a8:	4801                	li	a6,0
   1e5aa:	4791                	li	a5,4
   1e5ac:	c402                	sw	zero,8(sp)
   1e5ae:	40c783b3          	sub	t2,a5,a2
   1e5b2:	00810293          	addi	t0,sp,8
   1e5b6:	0013f313          	andi	t1,t2,1
   1e5ba:	00c2e2b3          	or	t0,t0,a2
   1e5be:	04031763          	bnez	t1,1e60c <_ZN17compiler_builtins3mem6memcpy17h90d0c987d2ef5a79E+0xf0>
   1e5c2:	0023f793          	andi	a5,t2,2
   1e5c6:	ebb9                	bnez	a5,1e61c <_ZN17compiler_builtins3mem6memcpy17h90d0c987d2ef5a79E+0x100>
   1e5c8:	4ea2                	lw	t4,8(sp)
   1e5ca:	00361813          	slli	a6,a2,0x3
   1e5ce:	004f8793          	addi	a5,t6,4
   1e5d2:	40c40f33          	sub	t5,s0,a2
   1e5d6:	06d7f363          	bgeu	a5,a3,1e63c <_ZN17compiler_builtins3mem6memcpy17h90d0c987d2ef5a79E+0x120>
   1e5da:	410007b3          	neg	a5,a6
   1e5de:	0187fe13          	andi	t3,a5,24
   1e5e2:	004f2283          	lw	t0,4(t5)
   1e5e6:	004f0393          	addi	t2,t5,4
   1e5ea:	010ed5b3          	srl	a1,t4,a6
   1e5ee:	004f8313          	addi	t1,t6,4
   1e5f2:	01c297b3          	sll	a5,t0,t3
   1e5f6:	8ddd                	or	a1,a1,a5
   1e5f8:	008f8793          	addi	a5,t6,8
   1e5fc:	00bfa023          	sw	a1,0(t6)
   1e600:	8f9a                	mv	t6,t1
   1e602:	8f1e                	mv	t5,t2
   1e604:	8e96                	mv	t4,t0
   1e606:	fcd7eee3          	bltu	a5,a3,1e5e2 <_ZN17compiler_builtins3mem6memcpy17h90d0c987d2ef5a79E+0xc6>
   1e60a:	a825                	j	1e642 <_ZN17compiler_builtins3mem6memcpy17h90d0c987d2ef5a79E+0x126>
   1e60c:	00044783          	lbu	a5,0(s0)
   1e610:	00f28023          	sb	a5,0(t0)
   1e614:	4805                	li	a6,1
   1e616:	0023f793          	andi	a5,t2,2
   1e61a:	d7dd                	beqz	a5,1e5c8 <_ZN17compiler_builtins3mem6memcpy17h90d0c987d2ef5a79E+0xac>
   1e61c:	010407b3          	add	a5,s0,a6
   1e620:	00079783          	lh	a5,0(a5)
   1e624:	9816                	add	a6,a6,t0
   1e626:	00f81023          	sh	a5,0(a6)
   1e62a:	4ea2                	lw	t4,8(sp)
   1e62c:	00361813          	slli	a6,a2,0x3
   1e630:	004f8793          	addi	a5,t6,4
   1e634:	40c40f33          	sub	t5,s0,a2
   1e638:	fad7e1e3          	bltu	a5,a3,1e5da <_ZN17compiler_builtins3mem6memcpy17h90d0c987d2ef5a79E+0xbe>
   1e63c:	82f6                	mv	t0,t4
   1e63e:	83fa                	mv	t2,t5
   1e640:	837e                	mv	t1,t6
   1e642:	00010223          	sb	zero,4(sp)
   1e646:	4785                	li	a5,1
   1e648:	00010123          	sb	zero,2(sp)
   1e64c:	00f61763          	bne	a2,a5,1e65a <_ZN17compiler_builtins3mem6memcpy17h90d0c987d2ef5a79E+0x13e>
   1e650:	4781                	li	a5,0
   1e652:	4e01                	li	t3,0
   1e654:	4e81                	li	t4,0
   1e656:	0050                	addi	a2,sp,4
   1e658:	a819                	j	1e66e <_ZN17compiler_builtins3mem6memcpy17h90d0c987d2ef5a79E+0x152>
   1e65a:	0043c783          	lbu	a5,4(t2)
   1e65e:	0053ce03          	lbu	t3,5(t2)
   1e662:	4e89                	li	t4,2
   1e664:	00f10223          	sb	a5,4(sp)
   1e668:	0e22                	slli	t3,t3,0x8
   1e66a:	00210613          	addi	a2,sp,2
   1e66e:	00147593          	andi	a1,s0,1
   1e672:	e199                	bnez	a1,1e678 <_ZN17compiler_builtins3mem6memcpy17h90d0c987d2ef5a79E+0x15c>
   1e674:	4601                	li	a2,0
   1e676:	a821                	j	1e68e <_ZN17compiler_builtins3mem6memcpy17h90d0c987d2ef5a79E+0x172>
   1e678:	0391                	addi	t2,t2,4
   1e67a:	93f6                	add	t2,t2,t4
   1e67c:	0003c583          	lbu	a1,0(t2)
   1e680:	00b60023          	sb	a1,0(a2)
   1e684:	00214603          	lbu	a2,2(sp)
   1e688:	00414783          	lbu	a5,4(sp)
   1e68c:	0642                	slli	a2,a2,0x10
   1e68e:	8e5d                	or	a2,a2,a5
   1e690:	0102d5b3          	srl	a1,t0,a6
   1e694:	410007b3          	neg	a5,a6
   1e698:	00ce6633          	or	a2,t3,a2
   1e69c:	8be1                	andi	a5,a5,24
   1e69e:	00f61633          	sll	a2,a2,a5
   1e6a2:	8dd1                	or	a1,a1,a2
   1e6a4:	00b32023          	sw	a1,0(t1)
   1e6a8:	00e405b3          	add	a1,s0,a4
   1e6ac:	0038f613          	andi	a2,a7,3
   1e6b0:	00c68733          	add	a4,a3,a2
   1e6b4:	ece6efe3          	bltu	a3,a4,1e592 <_ZN17compiler_builtins3mem6memcpy17h90d0c987d2ef5a79E+0x76>
   1e6b8:	b5ed                	j	1e5a2 <_ZN17compiler_builtins3mem6memcpy17h90d0c987d2ef5a79E+0x86>
