
target/thumbv6m-none-eabi/opt-z/examples/complex_no_dynamic:     file format elf32-littlearm

Sections:
Idx Name          Size      VMA       LMA       File off  Algn
  0 .ARM.exidx    00000010  000100d4  000100d4  000000d4  2**2
                  CONTENTS, ALLOC, LOAD, READONLY, DATA
  1 .text         00005dd2  000200e4  000200e4  000000e4  2**2
                  CONTENTS, ALLOC, LOAD, READONLY, CODE
  2 .comment      0000008b  00000000  00000000  00005eb6  2**0
                  CONTENTS, READONLY
  3 .ARM.attributes 00000032  00000000  00000000  00005f41  2**0
                  CONTENTS, READONLY

Disassembly of section .text:

000200e4 <_start>:
   200e4:	b5f0      	push	{r4, r5, r6, r7, lr}
   200e6:	af03      	add	r7, sp, #12
   200e8:	4ece      	ldr	r6, [pc, #824]	@ (20424 <_start+0x340>)
   200ea:	44b5      	add	sp, r6
   200ec:	48ce      	ldr	r0, [pc, #824]	@ (20428 <_start+0x344>)
   200ee:	4468      	add	r0, sp
   200f0:	9015      	str	r0, [sp, #84]	@ 0x54
   200f2:	4ece      	ldr	r6, [pc, #824]	@ (2042c <_start+0x348>)
   200f4:	446e      	add	r6, sp
   200f6:	48ce      	ldr	r0, [pc, #824]	@ (20430 <_start+0x34c>)
   200f8:	4468      	add	r0, sp
   200fa:	9014      	str	r0, [sp, #80]	@ 0x50
   200fc:	a8ff      	add	r0, sp, #1020	@ 0x3fc
   200fe:	3088      	adds	r0, #136	@ 0x88
   20100:	9013      	str	r0, [sp, #76]	@ 0x4c
   20102:	a8f9      	add	r0, sp, #996	@ 0x3e4
   20104:	9012      	str	r0, [sp, #72]	@ 0x48
   20106:	4ccb      	ldr	r4, [pc, #812]	@ (20434 <_start+0x350>)
   20108:	446c      	add	r4, sp
   2010a:	2528      	movs	r5, #40	@ 0x28
   2010c:	4620      	mov	r0, r4
   2010e:	4629      	mov	r1, r5
   20110:	f005 fd56 	bl	25bc0 <__aeabi_memclr4>
   20114:	48c8      	ldr	r0, [pc, #800]	@ (20438 <_start+0x354>)
   20116:	4468      	add	r0, sp
   20118:	2151      	movs	r1, #81	@ 0x51
   2011a:	f005 fd51 	bl	25bc0 <__aeabi_memclr4>
   2011e:	48c7      	ldr	r0, [pc, #796]	@ (2043c <_start+0x358>)
   20120:	2109      	movs	r1, #9
   20122:	4622      	mov	r2, r4
   20124:	462b      	mov	r3, r5
   20126:	df04      	svc	4
   20128:	4abf      	ldr	r2, [pc, #764]	@ (20428 <_start+0x344>)
   2012a:	446a      	add	r2, sp
   2012c:	9211      	str	r2, [sp, #68]	@ 0x44
   2012e:	4abe      	ldr	r2, [pc, #760]	@ (20428 <_start+0x344>)
   20130:	446a      	add	r2, sp
   20132:	9210      	str	r2, [sp, #64]	@ 0x40
   20134:	4abc      	ldr	r2, [pc, #752]	@ (20428 <_start+0x344>)
   20136:	446a      	add	r2, sp
   20138:	4bbb      	ldr	r3, [pc, #748]	@ (20428 <_start+0x344>)
   2013a:	446b      	add	r3, sp
   2013c:	4cba      	ldr	r4, [pc, #744]	@ (20428 <_start+0x344>)
   2013e:	446c      	add	r4, sp
   20140:	4dbc      	ldr	r5, [pc, #752]	@ (20434 <_start+0x350>)
   20142:	446d      	add	r5, sp
   20144:	2802      	cmp	r0, #2
   20146:	d010      	beq.n	2016a <_start+0x86>
   20148:	930e      	str	r3, [sp, #56]	@ 0x38
   2014a:	920f      	str	r2, [sp, #60]	@ 0x3c
   2014c:	48bb      	ldr	r0, [pc, #748]	@ (2043c <_start+0x358>)
   2014e:	2109      	movs	r1, #9
   20150:	4ab9      	ldr	r2, [pc, #740]	@ (20438 <_start+0x354>)
   20152:	446a      	add	r2, sp
   20154:	2351      	movs	r3, #81	@ 0x51
   20156:	df03      	svc	3
   20158:	2802      	cmp	r0, #2
   2015a:	d006      	beq.n	2016a <_start+0x86>
   2015c:	48b7      	ldr	r0, [pc, #732]	@ (2043c <_start+0x358>)
   2015e:	2109      	movs	r1, #9
   20160:	2300      	movs	r3, #0
   20162:	460a      	mov	r2, r1
   20164:	df02      	svc	2
   20166:	287f      	cmp	r0, #127	@ 0x7f
   20168:	d814      	bhi.n	20194 <_start+0xb0>
   2016a:	9116      	str	r1, [sp, #88]	@ 0x58
   2016c:	4cb3      	ldr	r4, [pc, #716]	@ (2043c <_start+0x358>)
   2016e:	2609      	movs	r6, #9
   20170:	2500      	movs	r5, #0
   20172:	4620      	mov	r0, r4
   20174:	4631      	mov	r1, r6
   20176:	462a      	mov	r2, r5
   20178:	462b      	mov	r3, r5
   2017a:	df03      	svc	3
   2017c:	4620      	mov	r0, r4
   2017e:	4631      	mov	r1, r6
   20180:	462a      	mov	r2, r5
   20182:	462b      	mov	r3, r5
   20184:	df04      	svc	4
   20186:	2401      	movs	r4, #1
   20188:	4620      	mov	r0, r4
   2018a:	9916      	ldr	r1, [sp, #88]	@ 0x58
   2018c:	1ffe      	subs	r6, r7, #7
   2018e:	3e05      	subs	r6, #5
   20190:	46b5      	mov	sp, r6
   20192:	bdf0      	pop	{r4, r5, r6, r7, pc}
   20194:	9506      	str	r5, [sp, #24]
   20196:	9407      	str	r4, [sp, #28]
   20198:	9608      	str	r6, [sp, #32]
   2019a:	4da8      	ldr	r5, [pc, #672]	@ (2043c <_start+0x358>)
   2019c:	2609      	movs	r6, #9
   2019e:	2400      	movs	r4, #0
   201a0:	4628      	mov	r0, r5
   201a2:	4631      	mov	r1, r6
   201a4:	4622      	mov	r2, r4
   201a6:	4623      	mov	r3, r4
   201a8:	df03      	svc	3
   201aa:	4628      	mov	r0, r5
   201ac:	4631      	mov	r1, r6
   201ae:	4622      	mov	r2, r4
   201b0:	4623      	mov	r3, r4
   201b2:	df03      	svc	3
   201b4:	aa17      	add	r2, sp, #92	@ 0x5c
   201b6:	9216      	str	r2, [sp, #88]	@ 0x58
   201b8:	9815      	ldr	r0, [sp, #84]	@ 0x54
   201ba:	6e40      	ldr	r0, [r0, #100]	@ 0x64
   201bc:	8010      	strh	r0, [r2, #0]
   201be:	489e      	ldr	r0, [pc, #632]	@ (20438 <_start+0x354>)
   201c0:	4468      	add	r0, sp
   201c2:	7881      	ldrb	r1, [r0, #2]
   201c4:	7091      	strb	r1, [r2, #2]
   201c6:	78c1      	ldrb	r1, [r0, #3]
   201c8:	910d      	str	r1, [sp, #52]	@ 0x34
   201ca:	7901      	ldrb	r1, [r0, #4]
   201cc:	910c      	str	r1, [sp, #48]	@ 0x30
   201ce:	7941      	ldrb	r1, [r0, #5]
   201d0:	910b      	str	r1, [sp, #44]	@ 0x2c
   201d2:	7981      	ldrb	r1, [r0, #6]
   201d4:	910a      	str	r1, [sp, #40]	@ 0x28
   201d6:	1dc1      	adds	r1, r0, #7
   201d8:	4d93      	ldr	r5, [pc, #588]	@ (20428 <_start+0x344>)
   201da:	446d      	add	r5, sp
   201dc:	224a      	movs	r2, #74	@ 0x4a
   201de:	9209      	str	r2, [sp, #36]	@ 0x24
   201e0:	4628      	mov	r0, r5
   201e2:	f005 fd3a 	bl	25c5a <__aeabi_memcpy>
   201e6:	4895      	ldr	r0, [pc, #596]	@ (2043c <_start+0x358>)
   201e8:	4631      	mov	r1, r6
   201ea:	4622      	mov	r2, r4
   201ec:	4623      	mov	r3, r4
   201ee:	df03      	svc	3
   201f0:	4892      	ldr	r0, [pc, #584]	@ (2043c <_start+0x358>)
   201f2:	4631      	mov	r1, r6
   201f4:	4622      	mov	r2, r4
   201f6:	4623      	mov	r3, r4
   201f8:	df04      	svc	4
   201fa:	4c8f      	ldr	r4, [pc, #572]	@ (20438 <_start+0x354>)
   201fc:	446c      	add	r4, sp
   201fe:	1de0      	adds	r0, r4, #7
   20200:	4629      	mov	r1, r5
   20202:	9a09      	ldr	r2, [sp, #36]	@ 0x24
   20204:	f005 fd29 	bl	25c5a <__aeabi_memcpy>
   20208:	980a      	ldr	r0, [sp, #40]	@ 0x28
   2020a:	71a0      	strb	r0, [r4, #6]
   2020c:	980b      	ldr	r0, [sp, #44]	@ 0x2c
   2020e:	7160      	strb	r0, [r4, #5]
   20210:	980c      	ldr	r0, [sp, #48]	@ 0x30
   20212:	7120      	strb	r0, [r4, #4]
   20214:	980d      	ldr	r0, [sp, #52]	@ 0x34
   20216:	70e0      	strb	r0, [r4, #3]
   20218:	9817      	ldr	r0, [sp, #92]	@ 0x5c
   2021a:	8020      	strh	r0, [r4, #0]
   2021c:	9816      	ldr	r0, [sp, #88]	@ 0x58
   2021e:	7880      	ldrb	r0, [r0, #2]
   20220:	70a0      	strb	r0, [r4, #2]
   20222:	4881      	ldr	r0, [pc, #516]	@ (20428 <_start+0x344>)
   20224:	4468      	add	r0, sp
   20226:	2146      	movs	r1, #70	@ 0x46
   20228:	f005 fcca 	bl	25bc0 <__aeabi_memclr4>
   2022c:	4884      	ldr	r0, [pc, #528]	@ (20440 <_start+0x35c>)
   2022e:	2107      	movs	r1, #7
   20230:	2351      	movs	r3, #81	@ 0x51
   20232:	4622      	mov	r2, r4
   20234:	df04      	svc	4
   20236:	2802      	cmp	r0, #2
   20238:	d00e      	beq.n	20258 <_start+0x174>
   2023a:	4881      	ldr	r0, [pc, #516]	@ (20440 <_start+0x35c>)
   2023c:	2100      	movs	r1, #0
   2023e:	4a7a      	ldr	r2, [pc, #488]	@ (20428 <_start+0x344>)
   20240:	446a      	add	r2, sp
   20242:	2346      	movs	r3, #70	@ 0x46
   20244:	df03      	svc	3
   20246:	2802      	cmp	r0, #2
   20248:	d006      	beq.n	20258 <_start+0x174>
   2024a:	487d      	ldr	r0, [pc, #500]	@ (20440 <_start+0x35c>)
   2024c:	2107      	movs	r1, #7
   2024e:	2200      	movs	r2, #0
   20250:	4613      	mov	r3, r2
   20252:	df02      	svc	2
   20254:	287f      	cmp	r0, #127	@ 0x7f
   20256:	d80d      	bhi.n	20274 <_start+0x190>
   20258:	9116      	str	r1, [sp, #88]	@ 0x58
   2025a:	4c79      	ldr	r4, [pc, #484]	@ (20440 <_start+0x35c>)
   2025c:	2500      	movs	r5, #0
   2025e:	4620      	mov	r0, r4
   20260:	4629      	mov	r1, r5
   20262:	462a      	mov	r2, r5
   20264:	462b      	mov	r3, r5
   20266:	df03      	svc	3
   20268:	2107      	movs	r1, #7
   2026a:	4620      	mov	r0, r4
   2026c:	462a      	mov	r2, r5
   2026e:	462b      	mov	r3, r5
   20270:	df04      	svc	4
   20272:	e788      	b.n	20186 <_start+0xa2>
   20274:	4d72      	ldr	r5, [pc, #456]	@ (20440 <_start+0x35c>)
   20276:	2400      	movs	r4, #0
   20278:	4628      	mov	r0, r5
   2027a:	4621      	mov	r1, r4
   2027c:	4622      	mov	r2, r4
   2027e:	4623      	mov	r3, r4
   20280:	df03      	svc	3
   20282:	4628      	mov	r0, r5
   20284:	4621      	mov	r1, r4
   20286:	4622      	mov	r2, r4
   20288:	4623      	mov	r3, r4
   2028a:	df03      	svc	3
   2028c:	aa18      	add	r2, sp, #96	@ 0x60
   2028e:	9216      	str	r2, [sp, #88]	@ 0x58
   20290:	9815      	ldr	r0, [sp, #84]	@ 0x54
   20292:	6800      	ldr	r0, [r0, #0]
   20294:	8010      	strh	r0, [r2, #0]
   20296:	4864      	ldr	r0, [pc, #400]	@ (20428 <_start+0x344>)
   20298:	4468      	add	r0, sp
   2029a:	7881      	ldrb	r1, [r0, #2]
   2029c:	7091      	strb	r1, [r2, #2]
   2029e:	78c1      	ldrb	r1, [r0, #3]
   202a0:	910d      	str	r1, [sp, #52]	@ 0x34
   202a2:	7901      	ldrb	r1, [r0, #4]
   202a4:	910c      	str	r1, [sp, #48]	@ 0x30
   202a6:	7941      	ldrb	r1, [r0, #5]
   202a8:	910b      	str	r1, [sp, #44]	@ 0x2c
   202aa:	7981      	ldrb	r1, [r0, #6]
   202ac:	910a      	str	r1, [sp, #40]	@ 0x28
   202ae:	1dc1      	adds	r1, r0, #7
   202b0:	4e60      	ldr	r6, [pc, #384]	@ (20434 <_start+0x350>)
   202b2:	446e      	add	r6, sp
   202b4:	253f      	movs	r5, #63	@ 0x3f
   202b6:	4630      	mov	r0, r6
   202b8:	462a      	mov	r2, r5
   202ba:	f005 fcce 	bl	25c5a <__aeabi_memcpy>
   202be:	4860      	ldr	r0, [pc, #384]	@ (20440 <_start+0x35c>)
   202c0:	4621      	mov	r1, r4
   202c2:	4622      	mov	r2, r4
   202c4:	4623      	mov	r3, r4
   202c6:	df03      	svc	3
   202c8:	2107      	movs	r1, #7
   202ca:	485d      	ldr	r0, [pc, #372]	@ (20440 <_start+0x35c>)
   202cc:	4622      	mov	r2, r4
   202ce:	4623      	mov	r3, r4
   202d0:	df04      	svc	4
   202d2:	4c59      	ldr	r4, [pc, #356]	@ (20438 <_start+0x354>)
   202d4:	446c      	add	r4, sp
   202d6:	1de0      	adds	r0, r4, #7
   202d8:	4631      	mov	r1, r6
   202da:	462a      	mov	r2, r5
   202dc:	f005 fcbd 	bl	25c5a <__aeabi_memcpy>
   202e0:	980a      	ldr	r0, [sp, #40]	@ 0x28
   202e2:	71a0      	strb	r0, [r4, #6]
   202e4:	980b      	ldr	r0, [sp, #44]	@ 0x2c
   202e6:	7160      	strb	r0, [r4, #5]
   202e8:	980c      	ldr	r0, [sp, #48]	@ 0x30
   202ea:	7120      	strb	r0, [r4, #4]
   202ec:	980d      	ldr	r0, [sp, #52]	@ 0x34
   202ee:	70e0      	strb	r0, [r4, #3]
   202f0:	9818      	ldr	r0, [sp, #96]	@ 0x60
   202f2:	8020      	strh	r0, [r4, #0]
   202f4:	9816      	ldr	r0, [sp, #88]	@ 0x58
   202f6:	7880      	ldrb	r0, [r0, #2]
   202f8:	70a0      	strb	r0, [r4, #2]
   202fa:	484b      	ldr	r0, [pc, #300]	@ (20428 <_start+0x344>)
   202fc:	4468      	add	r0, sp
   202fe:	2118      	movs	r1, #24
   20300:	f005 fc5e 	bl	25bc0 <__aeabi_memclr4>
   20304:	484f      	ldr	r0, [pc, #316]	@ (20444 <_start+0x360>)
   20306:	2103      	movs	r1, #3
   20308:	2346      	movs	r3, #70	@ 0x46
   2030a:	4622      	mov	r2, r4
   2030c:	df04      	svc	4
   2030e:	2802      	cmp	r0, #2
   20310:	d00e      	beq.n	20330 <_start+0x24c>
   20312:	484c      	ldr	r0, [pc, #304]	@ (20444 <_start+0x360>)
   20314:	2102      	movs	r1, #2
   20316:	4a44      	ldr	r2, [pc, #272]	@ (20428 <_start+0x344>)
   20318:	446a      	add	r2, sp
   2031a:	2318      	movs	r3, #24
   2031c:	df03      	svc	3
   2031e:	2802      	cmp	r0, #2
   20320:	d006      	beq.n	20330 <_start+0x24c>
   20322:	4848      	ldr	r0, [pc, #288]	@ (20444 <_start+0x360>)
   20324:	2103      	movs	r1, #3
   20326:	2202      	movs	r2, #2
   20328:	2300      	movs	r3, #0
   2032a:	df02      	svc	2
   2032c:	287f      	cmp	r0, #127	@ 0x7f
   2032e:	d80d      	bhi.n	2034c <_start+0x268>
   20330:	9116      	str	r1, [sp, #88]	@ 0x58
   20332:	4c44      	ldr	r4, [pc, #272]	@ (20444 <_start+0x360>)
   20334:	2102      	movs	r1, #2
   20336:	2500      	movs	r5, #0
   20338:	4620      	mov	r0, r4
   2033a:	462a      	mov	r2, r5
   2033c:	462b      	mov	r3, r5
   2033e:	df03      	svc	3
   20340:	2103      	movs	r1, #3
   20342:	4620      	mov	r0, r4
   20344:	462a      	mov	r2, r5
   20346:	462b      	mov	r3, r5
   20348:	df04      	svc	4
   2034a:	e71c      	b.n	20186 <_start+0xa2>
   2034c:	4d3d      	ldr	r5, [pc, #244]	@ (20444 <_start+0x360>)
   2034e:	2602      	movs	r6, #2
   20350:	2400      	movs	r4, #0
   20352:	4628      	mov	r0, r5
   20354:	4631      	mov	r1, r6
   20356:	4622      	mov	r2, r4
   20358:	4623      	mov	r3, r4
   2035a:	df03      	svc	3
   2035c:	4628      	mov	r0, r5
   2035e:	4631      	mov	r1, r6
   20360:	4622      	mov	r2, r4
   20362:	4623      	mov	r3, r4
   20364:	df03      	svc	3
   20366:	aa19      	add	r2, sp, #100	@ 0x64
   20368:	9216      	str	r2, [sp, #88]	@ 0x58
   2036a:	9815      	ldr	r0, [sp, #84]	@ 0x54
   2036c:	6800      	ldr	r0, [r0, #0]
   2036e:	8010      	strh	r0, [r2, #0]
   20370:	482d      	ldr	r0, [pc, #180]	@ (20428 <_start+0x344>)
   20372:	4468      	add	r0, sp
   20374:	7881      	ldrb	r1, [r0, #2]
   20376:	7091      	strb	r1, [r2, #2]
   20378:	78c1      	ldrb	r1, [r0, #3]
   2037a:	910d      	str	r1, [sp, #52]	@ 0x34
   2037c:	7901      	ldrb	r1, [r0, #4]
   2037e:	910c      	str	r1, [sp, #48]	@ 0x30
   20380:	7941      	ldrb	r1, [r0, #5]
   20382:	910b      	str	r1, [sp, #44]	@ 0x2c
   20384:	7981      	ldrb	r1, [r0, #6]
   20386:	910a      	str	r1, [sp, #40]	@ 0x28
   20388:	1dc1      	adds	r1, r0, #7
   2038a:	a8fa      	add	r0, sp, #1000	@ 0x3e8
   2038c:	9009      	str	r0, [sp, #36]	@ 0x24
   2038e:	2211      	movs	r2, #17
   20390:	9205      	str	r2, [sp, #20]
   20392:	f005 fc62 	bl	25c5a <__aeabi_memcpy>
   20396:	4628      	mov	r0, r5
   20398:	4631      	mov	r1, r6
   2039a:	4622      	mov	r2, r4
   2039c:	4623      	mov	r3, r4
   2039e:	df03      	svc	3
   203a0:	2103      	movs	r1, #3
   203a2:	4628      	mov	r0, r5
   203a4:	4622      	mov	r2, r4
   203a6:	4623      	mov	r3, r4
   203a8:	df04      	svc	4
   203aa:	4d22      	ldr	r5, [pc, #136]	@ (20434 <_start+0x350>)
   203ac:	446d      	add	r5, sp
   203ae:	1de8      	adds	r0, r5, #7
   203b0:	9909      	ldr	r1, [sp, #36]	@ 0x24
   203b2:	9a05      	ldr	r2, [sp, #20]
   203b4:	f005 fc51 	bl	25c5a <__aeabi_memcpy>
   203b8:	980a      	ldr	r0, [sp, #40]	@ 0x28
   203ba:	71a8      	strb	r0, [r5, #6]
   203bc:	980b      	ldr	r0, [sp, #44]	@ 0x2c
   203be:	7168      	strb	r0, [r5, #5]
   203c0:	980c      	ldr	r0, [sp, #48]	@ 0x30
   203c2:	7128      	strb	r0, [r5, #4]
   203c4:	980d      	ldr	r0, [sp, #52]	@ 0x34
   203c6:	70e8      	strb	r0, [r5, #3]
   203c8:	9819      	ldr	r0, [sp, #100]	@ 0x64
   203ca:	8028      	strh	r0, [r5, #0]
   203cc:	9816      	ldr	r0, [sp, #88]	@ 0x58
   203ce:	7880      	ldrb	r0, [r0, #2]
   203d0:	70a8      	strb	r0, [r5, #2]
   203d2:	4819      	ldr	r0, [pc, #100]	@ (20438 <_start+0x354>)
   203d4:	4468      	add	r0, sp
   203d6:	2136      	movs	r1, #54	@ 0x36
   203d8:	f005 fbf2 	bl	25bc0 <__aeabi_memclr4>
   203dc:	481a      	ldr	r0, [pc, #104]	@ (20448 <_start+0x364>)
   203de:	2318      	movs	r3, #24
   203e0:	4621      	mov	r1, r4
   203e2:	462a      	mov	r2, r5
   203e4:	df04      	svc	4
   203e6:	2802      	cmp	r0, #2
   203e8:	d00e      	beq.n	20408 <_start+0x324>
   203ea:	4817      	ldr	r0, [pc, #92]	@ (20448 <_start+0x364>)
   203ec:	2107      	movs	r1, #7
   203ee:	4a12      	ldr	r2, [pc, #72]	@ (20438 <_start+0x354>)
   203f0:	446a      	add	r2, sp
   203f2:	2336      	movs	r3, #54	@ 0x36
   203f4:	df03      	svc	3
   203f6:	2802      	cmp	r0, #2
   203f8:	d006      	beq.n	20408 <_start+0x324>
   203fa:	4813      	ldr	r0, [pc, #76]	@ (20448 <_start+0x364>)
   203fc:	2207      	movs	r2, #7
   203fe:	2100      	movs	r1, #0
   20400:	460b      	mov	r3, r1
   20402:	df02      	svc	2
   20404:	287f      	cmp	r0, #127	@ 0x7f
   20406:	d821      	bhi.n	2044c <_start+0x368>
   20408:	9116      	str	r1, [sp, #88]	@ 0x58
   2040a:	4c0f      	ldr	r4, [pc, #60]	@ (20448 <_start+0x364>)
   2040c:	2107      	movs	r1, #7
   2040e:	2500      	movs	r5, #0
   20410:	4620      	mov	r0, r4
   20412:	462a      	mov	r2, r5
   20414:	462b      	mov	r3, r5
   20416:	df03      	svc	3
   20418:	4620      	mov	r0, r4
   2041a:	4629      	mov	r1, r5
   2041c:	462a      	mov	r2, r5
   2041e:	462b      	mov	r3, r5
   20420:	df04      	svc	4
   20422:	e6b0      	b.n	20186 <_start+0xa2>
   20424:	fffff8b4 	.word	0xfffff8b4
   20428:	00000684 	.word	0x00000684
   2042c:	000005b0 	.word	0x000005b0
   20430:	00000510 	.word	0x00000510
   20434:	000005b8 	.word	0x000005b8
   20438:	000006e8 	.word	0x000006e8
   2043c:	00002006 	.word	0x00002006
   20440:	000020c4 	.word	0x000020c4
   20444:	000023cf 	.word	0x000023cf
   20448:	0000021f 	.word	0x0000021f
   2044c:	4ea5      	ldr	r6, [pc, #660]	@ (206e4 <_start+0x600>)
   2044e:	2407      	movs	r4, #7
   20450:	9416      	str	r4, [sp, #88]	@ 0x58
   20452:	2500      	movs	r5, #0
   20454:	4630      	mov	r0, r6
   20456:	4621      	mov	r1, r4
   20458:	462a      	mov	r2, r5
   2045a:	462b      	mov	r3, r5
   2045c:	df03      	svc	3
   2045e:	4630      	mov	r0, r6
   20460:	4621      	mov	r1, r4
   20462:	462a      	mov	r2, r5
   20464:	462b      	mov	r3, r5
   20466:	df03      	svc	3
   20468:	aa1a      	add	r2, sp, #104	@ 0x68
   2046a:	920d      	str	r2, [sp, #52]	@ 0x34
   2046c:	9815      	ldr	r0, [sp, #84]	@ 0x54
   2046e:	6e40      	ldr	r0, [r0, #100]	@ 0x64
   20470:	8010      	strh	r0, [r2, #0]
   20472:	489d      	ldr	r0, [pc, #628]	@ (206e8 <_start+0x604>)
   20474:	4468      	add	r0, sp
   20476:	7881      	ldrb	r1, [r0, #2]
   20478:	7091      	strb	r1, [r2, #2]
   2047a:	78c1      	ldrb	r1, [r0, #3]
   2047c:	910c      	str	r1, [sp, #48]	@ 0x30
   2047e:	7901      	ldrb	r1, [r0, #4]
   20480:	910b      	str	r1, [sp, #44]	@ 0x2c
   20482:	7941      	ldrb	r1, [r0, #5]
   20484:	910a      	str	r1, [sp, #40]	@ 0x28
   20486:	7981      	ldrb	r1, [r0, #6]
   20488:	9109      	str	r1, [sp, #36]	@ 0x24
   2048a:	1dc1      	adds	r1, r0, #7
   2048c:	4e97      	ldr	r6, [pc, #604]	@ (206ec <_start+0x608>)
   2048e:	446e      	add	r6, sp
   20490:	242f      	movs	r4, #47	@ 0x2f
   20492:	4630      	mov	r0, r6
   20494:	4622      	mov	r2, r4
   20496:	f005 fbe0 	bl	25c5a <__aeabi_memcpy>
   2049a:	4892      	ldr	r0, [pc, #584]	@ (206e4 <_start+0x600>)
   2049c:	9916      	ldr	r1, [sp, #88]	@ 0x58
   2049e:	462a      	mov	r2, r5
   204a0:	462b      	mov	r3, r5
   204a2:	df03      	svc	3
   204a4:	488f      	ldr	r0, [pc, #572]	@ (206e4 <_start+0x600>)
   204a6:	4629      	mov	r1, r5
   204a8:	462a      	mov	r2, r5
   204aa:	462b      	mov	r3, r5
   204ac:	df04      	svc	4
   204ae:	4d8e      	ldr	r5, [pc, #568]	@ (206e8 <_start+0x604>)
   204b0:	446d      	add	r5, sp
   204b2:	1de8      	adds	r0, r5, #7
   204b4:	4631      	mov	r1, r6
   204b6:	4622      	mov	r2, r4
   204b8:	f005 fbcf 	bl	25c5a <__aeabi_memcpy>
   204bc:	9809      	ldr	r0, [sp, #36]	@ 0x24
   204be:	71a8      	strb	r0, [r5, #6]
   204c0:	980a      	ldr	r0, [sp, #40]	@ 0x28
   204c2:	7168      	strb	r0, [r5, #5]
   204c4:	980b      	ldr	r0, [sp, #44]	@ 0x2c
   204c6:	7128      	strb	r0, [r5, #4]
   204c8:	980c      	ldr	r0, [sp, #48]	@ 0x30
   204ca:	70e8      	strb	r0, [r5, #3]
   204cc:	981a      	ldr	r0, [sp, #104]	@ 0x68
   204ce:	8028      	strh	r0, [r5, #0]
   204d0:	980d      	ldr	r0, [sp, #52]	@ 0x34
   204d2:	7880      	ldrb	r0, [r0, #2]
   204d4:	70a8      	strb	r0, [r5, #2]
   204d6:	4885      	ldr	r0, [pc, #532]	@ (206ec <_start+0x608>)
   204d8:	4468      	add	r0, sp
   204da:	2125      	movs	r1, #37	@ 0x25
   204dc:	f005 fb70 	bl	25bc0 <__aeabi_memclr4>
   204e0:	4883      	ldr	r0, [pc, #524]	@ (206f0 <_start+0x60c>)
   204e2:	2336      	movs	r3, #54	@ 0x36
   204e4:	9916      	ldr	r1, [sp, #88]	@ 0x58
   204e6:	462a      	mov	r2, r5
   204e8:	df04      	svc	4
   204ea:	2802      	cmp	r0, #2
   204ec:	d007      	beq.n	204fe <_start+0x41a>
   204ee:	4880      	ldr	r0, [pc, #512]	@ (206f0 <_start+0x60c>)
   204f0:	2100      	movs	r1, #0
   204f2:	4a7e      	ldr	r2, [pc, #504]	@ (206ec <_start+0x608>)
   204f4:	446a      	add	r2, sp
   204f6:	2325      	movs	r3, #37	@ 0x25
   204f8:	df03      	svc	3
   204fa:	2802      	cmp	r0, #2
   204fc:	d10d      	bne.n	2051a <_start+0x436>
   204fe:	9116      	str	r1, [sp, #88]	@ 0x58
   20500:	4c7b      	ldr	r4, [pc, #492]	@ (206f0 <_start+0x60c>)
   20502:	2500      	movs	r5, #0
   20504:	4620      	mov	r0, r4
   20506:	4629      	mov	r1, r5
   20508:	462a      	mov	r2, r5
   2050a:	462b      	mov	r3, r5
   2050c:	df03      	svc	3
   2050e:	2107      	movs	r1, #7
   20510:	4620      	mov	r0, r4
   20512:	462a      	mov	r2, r5
   20514:	462b      	mov	r3, r5
   20516:	df04      	svc	4
   20518:	e635      	b.n	20186 <_start+0xa2>
   2051a:	4875      	ldr	r0, [pc, #468]	@ (206f0 <_start+0x60c>)
   2051c:	2107      	movs	r1, #7
   2051e:	2400      	movs	r4, #0
   20520:	4622      	mov	r2, r4
   20522:	4623      	mov	r3, r4
   20524:	df02      	svc	2
   20526:	9116      	str	r1, [sp, #88]	@ 0x58
   20528:	287f      	cmp	r0, #127	@ 0x7f
   2052a:	d9e9      	bls.n	20500 <_start+0x41c>
   2052c:	4d70      	ldr	r5, [pc, #448]	@ (206f0 <_start+0x60c>)
   2052e:	4628      	mov	r0, r5
   20530:	4621      	mov	r1, r4
   20532:	4622      	mov	r2, r4
   20534:	4623      	mov	r3, r4
   20536:	df03      	svc	3
   20538:	4628      	mov	r0, r5
   2053a:	4621      	mov	r1, r4
   2053c:	4622      	mov	r2, r4
   2053e:	4623      	mov	r3, r4
   20540:	df03      	svc	3
   20542:	aa1b      	add	r2, sp, #108	@ 0x6c
   20544:	9216      	str	r2, [sp, #88]	@ 0x58
   20546:	9e15      	ldr	r6, [sp, #84]	@ 0x54
   20548:	6830      	ldr	r0, [r6, #0]
   2054a:	8010      	strh	r0, [r2, #0]
   2054c:	4867      	ldr	r0, [pc, #412]	@ (206ec <_start+0x608>)
   2054e:	4468      	add	r0, sp
   20550:	7881      	ldrb	r1, [r0, #2]
   20552:	7091      	strb	r1, [r2, #2]
   20554:	78c1      	ldrb	r1, [r0, #3]
   20556:	910d      	str	r1, [sp, #52]	@ 0x34
   20558:	7901      	ldrb	r1, [r0, #4]
   2055a:	910c      	str	r1, [sp, #48]	@ 0x30
   2055c:	7941      	ldrb	r1, [r0, #5]
   2055e:	910b      	str	r1, [sp, #44]	@ 0x2c
   20560:	7981      	ldrb	r1, [r0, #6]
   20562:	910a      	str	r1, [sp, #40]	@ 0x28
   20564:	1dc1      	adds	r1, r0, #7
   20566:	4863      	ldr	r0, [pc, #396]	@ (206f4 <_start+0x610>)
   20568:	4468      	add	r0, sp
   2056a:	9009      	str	r0, [sp, #36]	@ 0x24
   2056c:	221e      	movs	r2, #30
   2056e:	9205      	str	r2, [sp, #20]
   20570:	f005 fb73 	bl	25c5a <__aeabi_memcpy>
   20574:	4628      	mov	r0, r5
   20576:	4621      	mov	r1, r4
   20578:	4622      	mov	r2, r4
   2057a:	4623      	mov	r3, r4
   2057c:	df03      	svc	3
   2057e:	2107      	movs	r1, #7
   20580:	4628      	mov	r0, r5
   20582:	4622      	mov	r2, r4
   20584:	4623      	mov	r3, r4
   20586:	df04      	svc	4
   20588:	4d57      	ldr	r5, [pc, #348]	@ (206e8 <_start+0x604>)
   2058a:	446d      	add	r5, sp
   2058c:	1de8      	adds	r0, r5, #7
   2058e:	9909      	ldr	r1, [sp, #36]	@ 0x24
   20590:	9a05      	ldr	r2, [sp, #20]
   20592:	f005 fb62 	bl	25c5a <__aeabi_memcpy>
   20596:	980a      	ldr	r0, [sp, #40]	@ 0x28
   20598:	71a8      	strb	r0, [r5, #6]
   2059a:	980b      	ldr	r0, [sp, #44]	@ 0x2c
   2059c:	7168      	strb	r0, [r5, #5]
   2059e:	980c      	ldr	r0, [sp, #48]	@ 0x30
   205a0:	7128      	strb	r0, [r5, #4]
   205a2:	980d      	ldr	r0, [sp, #52]	@ 0x34
   205a4:	70e8      	strb	r0, [r5, #3]
   205a6:	981b      	ldr	r0, [sp, #108]	@ 0x6c
   205a8:	8028      	strh	r0, [r5, #0]
   205aa:	9816      	ldr	r0, [sp, #88]	@ 0x58
   205ac:	7880      	ldrb	r0, [r0, #2]
   205ae:	70a8      	strb	r0, [r5, #2]
   205b0:	484e      	ldr	r0, [pc, #312]	@ (206ec <_start+0x608>)
   205b2:	4468      	add	r0, sp
   205b4:	8184      	strh	r4, [r0, #12]
   205b6:	6034      	str	r4, [r6, #0]
   205b8:	6074      	str	r4, [r6, #4]
   205ba:	60b4      	str	r4, [r6, #8]
   205bc:	484e      	ldr	r0, [pc, #312]	@ (206f8 <_start+0x614>)
   205be:	2102      	movs	r1, #2
   205c0:	2325      	movs	r3, #37	@ 0x25
   205c2:	462a      	mov	r2, r5
   205c4:	df04      	svc	4
   205c6:	9116      	str	r1, [sp, #88]	@ 0x58
   205c8:	2802      	cmp	r0, #2
   205ca:	d010      	beq.n	205ee <_start+0x50a>
   205cc:	484a      	ldr	r0, [pc, #296]	@ (206f8 <_start+0x614>)
   205ce:	2108      	movs	r1, #8
   205d0:	4a46      	ldr	r2, [pc, #280]	@ (206ec <_start+0x608>)
   205d2:	446a      	add	r2, sp
   205d4:	230e      	movs	r3, #14
   205d6:	df03      	svc	3
   205d8:	9116      	str	r1, [sp, #88]	@ 0x58
   205da:	2802      	cmp	r0, #2
   205dc:	d007      	beq.n	205ee <_start+0x50a>
   205de:	4846      	ldr	r0, [pc, #280]	@ (206f8 <_start+0x614>)
   205e0:	2102      	movs	r1, #2
   205e2:	2208      	movs	r2, #8
   205e4:	2300      	movs	r3, #0
   205e6:	df02      	svc	2
   205e8:	9116      	str	r1, [sp, #88]	@ 0x58
   205ea:	287f      	cmp	r0, #127	@ 0x7f
   205ec:	d80c      	bhi.n	20608 <_start+0x524>
   205ee:	4c42      	ldr	r4, [pc, #264]	@ (206f8 <_start+0x614>)
   205f0:	2108      	movs	r1, #8
   205f2:	2500      	movs	r5, #0
   205f4:	4620      	mov	r0, r4
   205f6:	462a      	mov	r2, r5
   205f8:	462b      	mov	r3, r5
   205fa:	df03      	svc	3
   205fc:	2102      	movs	r1, #2
   205fe:	4620      	mov	r0, r4
   20600:	462a      	mov	r2, r5
   20602:	462b      	mov	r3, r5
   20604:	df04      	svc	4
   20606:	e5be      	b.n	20186 <_start+0xa2>
   20608:	4d3b      	ldr	r5, [pc, #236]	@ (206f8 <_start+0x614>)
   2060a:	2608      	movs	r6, #8
   2060c:	2400      	movs	r4, #0
   2060e:	4628      	mov	r0, r5
   20610:	4631      	mov	r1, r6
   20612:	4622      	mov	r2, r4
   20614:	4623      	mov	r3, r4
   20616:	df03      	svc	3
   20618:	4628      	mov	r0, r5
   2061a:	4631      	mov	r1, r6
   2061c:	4622      	mov	r2, r4
   2061e:	4623      	mov	r3, r4
   20620:	df03      	svc	3
   20622:	aa1c      	add	r2, sp, #112	@ 0x70
   20624:	9216      	str	r2, [sp, #88]	@ 0x58
   20626:	9815      	ldr	r0, [sp, #84]	@ 0x54
   20628:	6800      	ldr	r0, [r0, #0]
   2062a:	8010      	strh	r0, [r2, #0]
   2062c:	482f      	ldr	r0, [pc, #188]	@ (206ec <_start+0x608>)
   2062e:	4468      	add	r0, sp
   20630:	7881      	ldrb	r1, [r0, #2]
   20632:	7091      	strb	r1, [r2, #2]
   20634:	78c1      	ldrb	r1, [r0, #3]
   20636:	910d      	str	r1, [sp, #52]	@ 0x34
   20638:	7901      	ldrb	r1, [r0, #4]
   2063a:	910c      	str	r1, [sp, #48]	@ 0x30
   2063c:	7941      	ldrb	r1, [r0, #5]
   2063e:	910b      	str	r1, [sp, #44]	@ 0x2c
   20640:	7981      	ldrb	r1, [r0, #6]
   20642:	910a      	str	r1, [sp, #40]	@ 0x28
   20644:	1dc1      	adds	r1, r0, #7
   20646:	adfa      	add	r5, sp, #1000	@ 0x3e8
   20648:	2207      	movs	r2, #7
   2064a:	9209      	str	r2, [sp, #36]	@ 0x24
   2064c:	4628      	mov	r0, r5
   2064e:	f005 fb04 	bl	25c5a <__aeabi_memcpy>
   20652:	4829      	ldr	r0, [pc, #164]	@ (206f8 <_start+0x614>)
   20654:	4631      	mov	r1, r6
   20656:	4622      	mov	r2, r4
   20658:	4623      	mov	r3, r4
   2065a:	df03      	svc	3
   2065c:	2102      	movs	r1, #2
   2065e:	4826      	ldr	r0, [pc, #152]	@ (206f8 <_start+0x614>)
   20660:	4622      	mov	r2, r4
   20662:	4623      	mov	r3, r4
   20664:	df04      	svc	4
   20666:	4c23      	ldr	r4, [pc, #140]	@ (206f4 <_start+0x610>)
   20668:	446c      	add	r4, sp
   2066a:	1de0      	adds	r0, r4, #7
   2066c:	4629      	mov	r1, r5
   2066e:	9a09      	ldr	r2, [sp, #36]	@ 0x24
   20670:	f005 faf3 	bl	25c5a <__aeabi_memcpy>
   20674:	980a      	ldr	r0, [sp, #40]	@ 0x28
   20676:	71a0      	strb	r0, [r4, #6]
   20678:	980b      	ldr	r0, [sp, #44]	@ 0x2c
   2067a:	7160      	strb	r0, [r4, #5]
   2067c:	980c      	ldr	r0, [sp, #48]	@ 0x30
   2067e:	7120      	strb	r0, [r4, #4]
   20680:	980d      	ldr	r0, [sp, #52]	@ 0x34
   20682:	70e0      	strb	r0, [r4, #3]
   20684:	981c      	ldr	r0, [sp, #112]	@ 0x70
   20686:	8020      	strh	r0, [r4, #0]
   20688:	9816      	ldr	r0, [sp, #88]	@ 0x58
   2068a:	7880      	ldrb	r0, [r0, #2]
   2068c:	70a0      	strb	r0, [r4, #2]
   2068e:	4816      	ldr	r0, [pc, #88]	@ (206e8 <_start+0x604>)
   20690:	4468      	add	r0, sp
   20692:	2148      	movs	r1, #72	@ 0x48
   20694:	f005 fa94 	bl	25bc0 <__aeabi_memclr4>
   20698:	4818      	ldr	r0, [pc, #96]	@ (206fc <_start+0x618>)
   2069a:	2103      	movs	r1, #3
   2069c:	230e      	movs	r3, #14
   2069e:	4622      	mov	r2, r4
   206a0:	df04      	svc	4
   206a2:	9116      	str	r1, [sp, #88]	@ 0x58
   206a4:	2802      	cmp	r0, #2
   206a6:	d010      	beq.n	206ca <_start+0x5e6>
   206a8:	4814      	ldr	r0, [pc, #80]	@ (206fc <_start+0x618>)
   206aa:	2108      	movs	r1, #8
   206ac:	4a0e      	ldr	r2, [pc, #56]	@ (206e8 <_start+0x604>)
   206ae:	446a      	add	r2, sp
   206b0:	2348      	movs	r3, #72	@ 0x48
   206b2:	df03      	svc	3
   206b4:	9116      	str	r1, [sp, #88]	@ 0x58
   206b6:	2802      	cmp	r0, #2
   206b8:	d007      	beq.n	206ca <_start+0x5e6>
   206ba:	4810      	ldr	r0, [pc, #64]	@ (206fc <_start+0x618>)
   206bc:	2103      	movs	r1, #3
   206be:	2208      	movs	r2, #8
   206c0:	2300      	movs	r3, #0
   206c2:	df02      	svc	2
   206c4:	9116      	str	r1, [sp, #88]	@ 0x58
   206c6:	287f      	cmp	r0, #127	@ 0x7f
   206c8:	d81a      	bhi.n	20700 <_start+0x61c>
   206ca:	4c0c      	ldr	r4, [pc, #48]	@ (206fc <_start+0x618>)
   206cc:	2108      	movs	r1, #8
   206ce:	2500      	movs	r5, #0
   206d0:	4620      	mov	r0, r4
   206d2:	462a      	mov	r2, r5
   206d4:	462b      	mov	r3, r5
   206d6:	df03      	svc	3
   206d8:	2103      	movs	r1, #3
   206da:	4620      	mov	r0, r4
   206dc:	462a      	mov	r2, r5
   206de:	462b      	mov	r3, r5
   206e0:	df04      	svc	4
   206e2:	e550      	b.n	20186 <_start+0xa2>
   206e4:	0000021f 	.word	0x0000021f
   206e8:	000006e8 	.word	0x000006e8
   206ec:	00000684 	.word	0x00000684
   206f0:	00001597 	.word	0x00001597
   206f4:	000005b8 	.word	0x000005b8
   206f8:	00000667 	.word	0x00000667
   206fc:	000012d1 	.word	0x000012d1
   20700:	4eb1      	ldr	r6, [pc, #708]	@ (209c8 <_start+0x8e4>)
   20702:	2408      	movs	r4, #8
   20704:	9416      	str	r4, [sp, #88]	@ 0x58
   20706:	2500      	movs	r5, #0
   20708:	4630      	mov	r0, r6
   2070a:	4621      	mov	r1, r4
   2070c:	462a      	mov	r2, r5
   2070e:	462b      	mov	r3, r5
   20710:	df03      	svc	3
   20712:	4630      	mov	r0, r6
   20714:	4621      	mov	r1, r4
   20716:	462a      	mov	r2, r5
   20718:	462b      	mov	r3, r5
   2071a:	df03      	svc	3
   2071c:	aa1d      	add	r2, sp, #116	@ 0x74
   2071e:	920d      	str	r2, [sp, #52]	@ 0x34
   20720:	9815      	ldr	r0, [sp, #84]	@ 0x54
   20722:	6e40      	ldr	r0, [r0, #100]	@ 0x64
   20724:	8010      	strh	r0, [r2, #0]
   20726:	48a9      	ldr	r0, [pc, #676]	@ (209cc <_start+0x8e8>)
   20728:	4468      	add	r0, sp
   2072a:	7881      	ldrb	r1, [r0, #2]
   2072c:	7091      	strb	r1, [r2, #2]
   2072e:	78c1      	ldrb	r1, [r0, #3]
   20730:	910c      	str	r1, [sp, #48]	@ 0x30
   20732:	7901      	ldrb	r1, [r0, #4]
   20734:	910b      	str	r1, [sp, #44]	@ 0x2c
   20736:	7941      	ldrb	r1, [r0, #5]
   20738:	910a      	str	r1, [sp, #40]	@ 0x28
   2073a:	7981      	ldrb	r1, [r0, #6]
   2073c:	9109      	str	r1, [sp, #36]	@ 0x24
   2073e:	1dc1      	adds	r1, r0, #7
   20740:	4ea3      	ldr	r6, [pc, #652]	@ (209d0 <_start+0x8ec>)
   20742:	446e      	add	r6, sp
   20744:	2441      	movs	r4, #65	@ 0x41
   20746:	4630      	mov	r0, r6
   20748:	4622      	mov	r2, r4
   2074a:	f005 fa86 	bl	25c5a <__aeabi_memcpy>
   2074e:	489e      	ldr	r0, [pc, #632]	@ (209c8 <_start+0x8e4>)
   20750:	9916      	ldr	r1, [sp, #88]	@ 0x58
   20752:	462a      	mov	r2, r5
   20754:	462b      	mov	r3, r5
   20756:	df03      	svc	3
   20758:	2103      	movs	r1, #3
   2075a:	489b      	ldr	r0, [pc, #620]	@ (209c8 <_start+0x8e4>)
   2075c:	462a      	mov	r2, r5
   2075e:	462b      	mov	r3, r5
   20760:	df04      	svc	4
   20762:	4d9a      	ldr	r5, [pc, #616]	@ (209cc <_start+0x8e8>)
   20764:	446d      	add	r5, sp
   20766:	1de8      	adds	r0, r5, #7
   20768:	4631      	mov	r1, r6
   2076a:	4622      	mov	r2, r4
   2076c:	f005 fa75 	bl	25c5a <__aeabi_memcpy>
   20770:	9809      	ldr	r0, [sp, #36]	@ 0x24
   20772:	71a8      	strb	r0, [r5, #6]
   20774:	980a      	ldr	r0, [sp, #40]	@ 0x28
   20776:	7168      	strb	r0, [r5, #5]
   20778:	980b      	ldr	r0, [sp, #44]	@ 0x2c
   2077a:	7128      	strb	r0, [r5, #4]
   2077c:	980c      	ldr	r0, [sp, #48]	@ 0x30
   2077e:	70e8      	strb	r0, [r5, #3]
   20780:	981d      	ldr	r0, [sp, #116]	@ 0x74
   20782:	8028      	strh	r0, [r5, #0]
   20784:	980d      	ldr	r0, [sp, #52]	@ 0x34
   20786:	7880      	ldrb	r0, [r0, #2]
   20788:	70a8      	strb	r0, [r5, #2]
   2078a:	4891      	ldr	r0, [pc, #580]	@ (209d0 <_start+0x8ec>)
   2078c:	4468      	add	r0, sp
   2078e:	210f      	movs	r1, #15
   20790:	f005 fa16 	bl	25bc0 <__aeabi_memclr4>
   20794:	488f      	ldr	r0, [pc, #572]	@ (209d4 <_start+0x8f0>)
   20796:	2348      	movs	r3, #72	@ 0x48
   20798:	9916      	ldr	r1, [sp, #88]	@ 0x58
   2079a:	462a      	mov	r2, r5
   2079c:	df04      	svc	4
   2079e:	9116      	str	r1, [sp, #88]	@ 0x58
   207a0:	2802      	cmp	r0, #2
   207a2:	d010      	beq.n	207c6 <_start+0x6e2>
   207a4:	488b      	ldr	r0, [pc, #556]	@ (209d4 <_start+0x8f0>)
   207a6:	2109      	movs	r1, #9
   207a8:	4a89      	ldr	r2, [pc, #548]	@ (209d0 <_start+0x8ec>)
   207aa:	446a      	add	r2, sp
   207ac:	230f      	movs	r3, #15
   207ae:	df03      	svc	3
   207b0:	9116      	str	r1, [sp, #88]	@ 0x58
   207b2:	2802      	cmp	r0, #2
   207b4:	d007      	beq.n	207c6 <_start+0x6e2>
   207b6:	4887      	ldr	r0, [pc, #540]	@ (209d4 <_start+0x8f0>)
   207b8:	2108      	movs	r1, #8
   207ba:	2209      	movs	r2, #9
   207bc:	2300      	movs	r3, #0
   207be:	df02      	svc	2
   207c0:	9116      	str	r1, [sp, #88]	@ 0x58
   207c2:	287f      	cmp	r0, #127	@ 0x7f
   207c4:	d80c      	bhi.n	207e0 <_start+0x6fc>
   207c6:	4c83      	ldr	r4, [pc, #524]	@ (209d4 <_start+0x8f0>)
   207c8:	2109      	movs	r1, #9
   207ca:	2500      	movs	r5, #0
   207cc:	4620      	mov	r0, r4
   207ce:	462a      	mov	r2, r5
   207d0:	462b      	mov	r3, r5
   207d2:	df03      	svc	3
   207d4:	2108      	movs	r1, #8
   207d6:	4620      	mov	r0, r4
   207d8:	462a      	mov	r2, r5
   207da:	462b      	mov	r3, r5
   207dc:	df04      	svc	4
   207de:	e4d2      	b.n	20186 <_start+0xa2>
   207e0:	9811      	ldr	r0, [sp, #68]	@ 0x44
   207e2:	1cc6      	adds	r6, r0, #3
   207e4:	9810      	ldr	r0, [sp, #64]	@ 0x40
   207e6:	1cc5      	adds	r5, r0, #3
   207e8:	487a      	ldr	r0, [pc, #488]	@ (209d4 <_start+0x8f0>)
   207ea:	2109      	movs	r1, #9
   207ec:	9116      	str	r1, [sp, #88]	@ 0x58
   207ee:	2400      	movs	r4, #0
   207f0:	4622      	mov	r2, r4
   207f2:	4623      	mov	r3, r4
   207f4:	df03      	svc	3
   207f6:	4877      	ldr	r0, [pc, #476]	@ (209d4 <_start+0x8f0>)
   207f8:	9916      	ldr	r1, [sp, #88]	@ 0x58
   207fa:	4622      	mov	r2, r4
   207fc:	4623      	mov	r3, r4
   207fe:	df03      	svc	3
   20800:	a91e      	add	r1, sp, #120	@ 0x78
   20802:	9111      	str	r1, [sp, #68]	@ 0x44
   20804:	9815      	ldr	r0, [sp, #84]	@ 0x54
   20806:	6800      	ldr	r0, [r0, #0]
   20808:	8008      	strh	r0, [r1, #0]
   2080a:	4871      	ldr	r0, [pc, #452]	@ (209d0 <_start+0x8ec>)
   2080c:	4468      	add	r0, sp
   2080e:	7880      	ldrb	r0, [r0, #2]
   20810:	7088      	strb	r0, [r1, #2]
   20812:	7830      	ldrb	r0, [r6, #0]
   20814:	9010      	str	r0, [sp, #64]	@ 0x40
   20816:	7870      	ldrb	r0, [r6, #1]
   20818:	900d      	str	r0, [sp, #52]	@ 0x34
   2081a:	78b0      	ldrb	r0, [r6, #2]
   2081c:	900c      	str	r0, [sp, #48]	@ 0x30
   2081e:	78f0      	ldrb	r0, [r6, #3]
   20820:	900b      	str	r0, [sp, #44]	@ 0x2c
   20822:	7930      	ldrb	r0, [r6, #4]
   20824:	900a      	str	r0, [sp, #40]	@ 0x28
   20826:	7970      	ldrb	r0, [r6, #5]
   20828:	9009      	str	r0, [sp, #36]	@ 0x24
   2082a:	79b0      	ldrb	r0, [r6, #6]
   2082c:	9005      	str	r0, [sp, #20]
   2082e:	79f0      	ldrb	r0, [r6, #7]
   20830:	9004      	str	r0, [sp, #16]
   20832:	7a30      	ldrb	r0, [r6, #8]
   20834:	9003      	str	r0, [sp, #12]
   20836:	7a70      	ldrb	r0, [r6, #9]
   20838:	9002      	str	r0, [sp, #8]
   2083a:	7ab0      	ldrb	r0, [r6, #10]
   2083c:	9001      	str	r0, [sp, #4]
   2083e:	7af6      	ldrb	r6, [r6, #11]
   20840:	4864      	ldr	r0, [pc, #400]	@ (209d4 <_start+0x8f0>)
   20842:	9916      	ldr	r1, [sp, #88]	@ 0x58
   20844:	4622      	mov	r2, r4
   20846:	4623      	mov	r3, r4
   20848:	df03      	svc	3
   2084a:	2108      	movs	r1, #8
   2084c:	9116      	str	r1, [sp, #88]	@ 0x58
   2084e:	4861      	ldr	r0, [pc, #388]	@ (209d4 <_start+0x8f0>)
   20850:	4622      	mov	r2, r4
   20852:	4623      	mov	r3, r4
   20854:	df04      	svc	4
   20856:	72ee      	strb	r6, [r5, #11]
   20858:	9801      	ldr	r0, [sp, #4]
   2085a:	72a8      	strb	r0, [r5, #10]
   2085c:	9802      	ldr	r0, [sp, #8]
   2085e:	7268      	strb	r0, [r5, #9]
   20860:	9803      	ldr	r0, [sp, #12]
   20862:	7228      	strb	r0, [r5, #8]
   20864:	9804      	ldr	r0, [sp, #16]
   20866:	71e8      	strb	r0, [r5, #7]
   20868:	9805      	ldr	r0, [sp, #20]
   2086a:	71a8      	strb	r0, [r5, #6]
   2086c:	9809      	ldr	r0, [sp, #36]	@ 0x24
   2086e:	7168      	strb	r0, [r5, #5]
   20870:	980a      	ldr	r0, [sp, #40]	@ 0x28
   20872:	7128      	strb	r0, [r5, #4]
   20874:	980b      	ldr	r0, [sp, #44]	@ 0x2c
   20876:	70e8      	strb	r0, [r5, #3]
   20878:	980c      	ldr	r0, [sp, #48]	@ 0x30
   2087a:	70a8      	strb	r0, [r5, #2]
   2087c:	980d      	ldr	r0, [sp, #52]	@ 0x34
   2087e:	7068      	strb	r0, [r5, #1]
   20880:	9810      	ldr	r0, [sp, #64]	@ 0x40
   20882:	7028      	strb	r0, [r5, #0]
   20884:	9811      	ldr	r0, [sp, #68]	@ 0x44
   20886:	7880      	ldrb	r0, [r0, #2]
   20888:	4c51      	ldr	r4, [pc, #324]	@ (209d0 <_start+0x8ec>)
   2088a:	446c      	add	r4, sp
   2088c:	70a0      	strb	r0, [r4, #2]
   2088e:	981e      	ldr	r0, [sp, #120]	@ 0x78
   20890:	8020      	strh	r0, [r4, #0]
   20892:	484e      	ldr	r0, [pc, #312]	@ (209cc <_start+0x8e8>)
   20894:	4468      	add	r0, sp
   20896:	2125      	movs	r1, #37	@ 0x25
   20898:	f005 f992 	bl	25bc0 <__aeabi_memclr4>
   2089c:	20a2      	movs	r0, #162	@ 0xa2
   2089e:	230f      	movs	r3, #15
   208a0:	9916      	ldr	r1, [sp, #88]	@ 0x58
   208a2:	4622      	mov	r2, r4
   208a4:	df04      	svc	4
   208a6:	9116      	str	r1, [sp, #88]	@ 0x58
   208a8:	2802      	cmp	r0, #2
   208aa:	d010      	beq.n	208ce <_start+0x7ea>
   208ac:	20a2      	movs	r0, #162	@ 0xa2
   208ae:	2100      	movs	r1, #0
   208b0:	4a46      	ldr	r2, [pc, #280]	@ (209cc <_start+0x8e8>)
   208b2:	446a      	add	r2, sp
   208b4:	2325      	movs	r3, #37	@ 0x25
   208b6:	df03      	svc	3
   208b8:	9116      	str	r1, [sp, #88]	@ 0x58
   208ba:	2802      	cmp	r0, #2
   208bc:	d007      	beq.n	208ce <_start+0x7ea>
   208be:	20a2      	movs	r0, #162	@ 0xa2
   208c0:	2108      	movs	r1, #8
   208c2:	2200      	movs	r2, #0
   208c4:	4613      	mov	r3, r2
   208c6:	df02      	svc	2
   208c8:	9116      	str	r1, [sp, #88]	@ 0x58
   208ca:	287f      	cmp	r0, #127	@ 0x7f
   208cc:	d80d      	bhi.n	208ea <_start+0x806>
   208ce:	24a2      	movs	r4, #162	@ 0xa2
   208d0:	2500      	movs	r5, #0
   208d2:	4620      	mov	r0, r4
   208d4:	4629      	mov	r1, r5
   208d6:	462a      	mov	r2, r5
   208d8:	462b      	mov	r3, r5
   208da:	df03      	svc	3
   208dc:	2108      	movs	r1, #8
   208de:	4620      	mov	r0, r4
   208e0:	462a      	mov	r2, r5
   208e2:	462b      	mov	r3, r5
   208e4:	df04      	svc	4
   208e6:	f7ff fc4e 	bl	20186 <_start+0xa2>
   208ea:	25a2      	movs	r5, #162	@ 0xa2
   208ec:	2400      	movs	r4, #0
   208ee:	4628      	mov	r0, r5
   208f0:	4621      	mov	r1, r4
   208f2:	4622      	mov	r2, r4
   208f4:	4623      	mov	r3, r4
   208f6:	df03      	svc	3
   208f8:	4628      	mov	r0, r5
   208fa:	4621      	mov	r1, r4
   208fc:	4622      	mov	r2, r4
   208fe:	4623      	mov	r3, r4
   20900:	df03      	svc	3
   20902:	aa1f      	add	r2, sp, #124	@ 0x7c
   20904:	9216      	str	r2, [sp, #88]	@ 0x58
   20906:	9815      	ldr	r0, [sp, #84]	@ 0x54
   20908:	6e40      	ldr	r0, [r0, #100]	@ 0x64
   2090a:	8010      	strh	r0, [r2, #0]
   2090c:	482f      	ldr	r0, [pc, #188]	@ (209cc <_start+0x8e8>)
   2090e:	4468      	add	r0, sp
   20910:	7881      	ldrb	r1, [r0, #2]
   20912:	7091      	strb	r1, [r2, #2]
   20914:	78c1      	ldrb	r1, [r0, #3]
   20916:	9111      	str	r1, [sp, #68]	@ 0x44
   20918:	7901      	ldrb	r1, [r0, #4]
   2091a:	9110      	str	r1, [sp, #64]	@ 0x40
   2091c:	7941      	ldrb	r1, [r0, #5]
   2091e:	910d      	str	r1, [sp, #52]	@ 0x34
   20920:	7981      	ldrb	r1, [r0, #6]
   20922:	910c      	str	r1, [sp, #48]	@ 0x30
   20924:	1dc1      	adds	r1, r0, #7
   20926:	4e2c      	ldr	r6, [pc, #176]	@ (209d8 <_start+0x8f4>)
   20928:	446e      	add	r6, sp
   2092a:	221e      	movs	r2, #30
   2092c:	920b      	str	r2, [sp, #44]	@ 0x2c
   2092e:	4630      	mov	r0, r6
   20930:	f005 f993 	bl	25c5a <__aeabi_memcpy>
   20934:	4628      	mov	r0, r5
   20936:	4621      	mov	r1, r4
   20938:	4622      	mov	r2, r4
   2093a:	4623      	mov	r3, r4
   2093c:	df03      	svc	3
   2093e:	2108      	movs	r1, #8
   20940:	4628      	mov	r0, r5
   20942:	4622      	mov	r2, r4
   20944:	4623      	mov	r3, r4
   20946:	df04      	svc	4
   20948:	4d21      	ldr	r5, [pc, #132]	@ (209d0 <_start+0x8ec>)
   2094a:	446d      	add	r5, sp
   2094c:	1de8      	adds	r0, r5, #7
   2094e:	4631      	mov	r1, r6
   20950:	9a0b      	ldr	r2, [sp, #44]	@ 0x2c
   20952:	f005 f982 	bl	25c5a <__aeabi_memcpy>
   20956:	980c      	ldr	r0, [sp, #48]	@ 0x30
   20958:	71a8      	strb	r0, [r5, #6]
   2095a:	980d      	ldr	r0, [sp, #52]	@ 0x34
   2095c:	7168      	strb	r0, [r5, #5]
   2095e:	9810      	ldr	r0, [sp, #64]	@ 0x40
   20960:	7128      	strb	r0, [r5, #4]
   20962:	9811      	ldr	r0, [sp, #68]	@ 0x44
   20964:	70e8      	strb	r0, [r5, #3]
   20966:	981f      	ldr	r0, [sp, #124]	@ 0x7c
   20968:	8028      	strh	r0, [r5, #0]
   2096a:	9816      	ldr	r0, [sp, #88]	@ 0x58
   2096c:	7880      	ldrb	r0, [r0, #2]
   2096e:	70a8      	strb	r0, [r5, #2]
   20970:	4816      	ldr	r0, [pc, #88]	@ (209cc <_start+0x8e8>)
   20972:	4468      	add	r0, sp
   20974:	212a      	movs	r1, #42	@ 0x2a
   20976:	f005 f923 	bl	25bc0 <__aeabi_memclr4>
   2097a:	4818      	ldr	r0, [pc, #96]	@ (209dc <_start+0x8f8>)
   2097c:	2325      	movs	r3, #37	@ 0x25
   2097e:	4621      	mov	r1, r4
   20980:	462a      	mov	r2, r5
   20982:	df04      	svc	4
   20984:	9116      	str	r1, [sp, #88]	@ 0x58
   20986:	2802      	cmp	r0, #2
   20988:	d010      	beq.n	209ac <_start+0x8c8>
   2098a:	4814      	ldr	r0, [pc, #80]	@ (209dc <_start+0x8f8>)
   2098c:	2103      	movs	r1, #3
   2098e:	4a0f      	ldr	r2, [pc, #60]	@ (209cc <_start+0x8e8>)
   20990:	446a      	add	r2, sp
   20992:	232a      	movs	r3, #42	@ 0x2a
   20994:	df03      	svc	3
   20996:	9116      	str	r1, [sp, #88]	@ 0x58
   20998:	2802      	cmp	r0, #2
   2099a:	d007      	beq.n	209ac <_start+0x8c8>
   2099c:	480f      	ldr	r0, [pc, #60]	@ (209dc <_start+0x8f8>)
   2099e:	2203      	movs	r2, #3
   209a0:	2100      	movs	r1, #0
   209a2:	460b      	mov	r3, r1
   209a4:	df02      	svc	2
   209a6:	9116      	str	r1, [sp, #88]	@ 0x58
   209a8:	287f      	cmp	r0, #127	@ 0x7f
   209aa:	d819      	bhi.n	209e0 <_start+0x8fc>
   209ac:	4c0b      	ldr	r4, [pc, #44]	@ (209dc <_start+0x8f8>)
   209ae:	2103      	movs	r1, #3
   209b0:	2500      	movs	r5, #0
   209b2:	4620      	mov	r0, r4
   209b4:	462a      	mov	r2, r5
   209b6:	462b      	mov	r3, r5
   209b8:	df03      	svc	3
   209ba:	4620      	mov	r0, r4
   209bc:	4629      	mov	r1, r5
   209be:	462a      	mov	r2, r5
   209c0:	462b      	mov	r3, r5
   209c2:	df04      	svc	4
   209c4:	f7ff fbdf 	bl	20186 <_start+0xa2>
   209c8:	000012d1 	.word	0x000012d1
   209cc:	000006e8 	.word	0x000006e8
   209d0:	00000684 	.word	0x00000684
   209d4:	0000111d 	.word	0x0000111d
   209d8:	000005b8 	.word	0x000005b8
   209dc:	0000093c 	.word	0x0000093c
   209e0:	4da4      	ldr	r5, [pc, #656]	@ (20c74 <_start+0xb90>)
   209e2:	2603      	movs	r6, #3
   209e4:	2400      	movs	r4, #0
   209e6:	4628      	mov	r0, r5
   209e8:	4631      	mov	r1, r6
   209ea:	4622      	mov	r2, r4
   209ec:	4623      	mov	r3, r4
   209ee:	df03      	svc	3
   209f0:	4628      	mov	r0, r5
   209f2:	4631      	mov	r1, r6
   209f4:	4622      	mov	r2, r4
   209f6:	4623      	mov	r3, r4
   209f8:	df03      	svc	3
   209fa:	aa20      	add	r2, sp, #128	@ 0x80
   209fc:	9216      	str	r2, [sp, #88]	@ 0x58
   209fe:	9815      	ldr	r0, [sp, #84]	@ 0x54
   20a00:	6e40      	ldr	r0, [r0, #100]	@ 0x64
   20a02:	8010      	strh	r0, [r2, #0]
   20a04:	48d5      	ldr	r0, [pc, #852]	@ (20d5c <_start+0xc78>)
   20a06:	4468      	add	r0, sp
   20a08:	7881      	ldrb	r1, [r0, #2]
   20a0a:	7091      	strb	r1, [r2, #2]
   20a0c:	78c1      	ldrb	r1, [r0, #3]
   20a0e:	9111      	str	r1, [sp, #68]	@ 0x44
   20a10:	7901      	ldrb	r1, [r0, #4]
   20a12:	9110      	str	r1, [sp, #64]	@ 0x40
   20a14:	7941      	ldrb	r1, [r0, #5]
   20a16:	910d      	str	r1, [sp, #52]	@ 0x34
   20a18:	7981      	ldrb	r1, [r0, #6]
   20a1a:	910c      	str	r1, [sp, #48]	@ 0x30
   20a1c:	1dc1      	adds	r1, r0, #7
   20a1e:	4dd0      	ldr	r5, [pc, #832]	@ (20d60 <_start+0xc7c>)
   20a20:	446d      	add	r5, sp
   20a22:	2223      	movs	r2, #35	@ 0x23
   20a24:	920b      	str	r2, [sp, #44]	@ 0x2c
   20a26:	4628      	mov	r0, r5
   20a28:	f005 f917 	bl	25c5a <__aeabi_memcpy>
   20a2c:	48ca      	ldr	r0, [pc, #808]	@ (20d58 <_start+0xc74>)
   20a2e:	4631      	mov	r1, r6
   20a30:	4622      	mov	r2, r4
   20a32:	4623      	mov	r3, r4
   20a34:	df03      	svc	3
   20a36:	48c8      	ldr	r0, [pc, #800]	@ (20d58 <_start+0xc74>)
   20a38:	4621      	mov	r1, r4
   20a3a:	4622      	mov	r2, r4
   20a3c:	4623      	mov	r3, r4
   20a3e:	df04      	svc	4
   20a40:	4cc8      	ldr	r4, [pc, #800]	@ (20d64 <_start+0xc80>)
   20a42:	446c      	add	r4, sp
   20a44:	1de0      	adds	r0, r4, #7
   20a46:	4629      	mov	r1, r5
   20a48:	9a0b      	ldr	r2, [sp, #44]	@ 0x2c
   20a4a:	f005 f906 	bl	25c5a <__aeabi_memcpy>
   20a4e:	980c      	ldr	r0, [sp, #48]	@ 0x30
   20a50:	71a0      	strb	r0, [r4, #6]
   20a52:	980d      	ldr	r0, [sp, #52]	@ 0x34
   20a54:	7160      	strb	r0, [r4, #5]
   20a56:	9810      	ldr	r0, [sp, #64]	@ 0x40
   20a58:	7120      	strb	r0, [r4, #4]
   20a5a:	9811      	ldr	r0, [sp, #68]	@ 0x44
   20a5c:	70e0      	strb	r0, [r4, #3]
   20a5e:	9820      	ldr	r0, [sp, #128]	@ 0x80
   20a60:	8020      	strh	r0, [r4, #0]
   20a62:	9816      	ldr	r0, [sp, #88]	@ 0x58
   20a64:	7880      	ldrb	r0, [r0, #2]
   20a66:	70a0      	strb	r0, [r4, #2]
   20a68:	48bc      	ldr	r0, [pc, #752]	@ (20d5c <_start+0xc78>)
   20a6a:	4468      	add	r0, sp
   20a6c:	2163      	movs	r1, #99	@ 0x63
   20a6e:	f005 f8a7 	bl	25bc0 <__aeabi_memclr4>
   20a72:	48bd      	ldr	r0, [pc, #756]	@ (20d68 <_start+0xc84>)
   20a74:	2104      	movs	r1, #4
   20a76:	232a      	movs	r3, #42	@ 0x2a
   20a78:	4622      	mov	r2, r4
   20a7a:	df04      	svc	4
   20a7c:	9116      	str	r1, [sp, #88]	@ 0x58
   20a7e:	2802      	cmp	r0, #2
   20a80:	d010      	beq.n	20aa4 <_start+0x9c0>
   20a82:	48b9      	ldr	r0, [pc, #740]	@ (20d68 <_start+0xc84>)
   20a84:	2100      	movs	r1, #0
   20a86:	4ab5      	ldr	r2, [pc, #724]	@ (20d5c <_start+0xc78>)
   20a88:	446a      	add	r2, sp
   20a8a:	2363      	movs	r3, #99	@ 0x63
   20a8c:	df03      	svc	3
   20a8e:	9116      	str	r1, [sp, #88]	@ 0x58
   20a90:	2802      	cmp	r0, #2
   20a92:	d007      	beq.n	20aa4 <_start+0x9c0>
   20a94:	48b4      	ldr	r0, [pc, #720]	@ (20d68 <_start+0xc84>)
   20a96:	2104      	movs	r1, #4
   20a98:	2200      	movs	r2, #0
   20a9a:	4613      	mov	r3, r2
   20a9c:	df02      	svc	2
   20a9e:	9116      	str	r1, [sp, #88]	@ 0x58
   20aa0:	287f      	cmp	r0, #127	@ 0x7f
   20aa2:	d80d      	bhi.n	20ac0 <_start+0x9dc>
   20aa4:	4cb0      	ldr	r4, [pc, #704]	@ (20d68 <_start+0xc84>)
   20aa6:	2500      	movs	r5, #0
   20aa8:	4620      	mov	r0, r4
   20aaa:	4629      	mov	r1, r5
   20aac:	462a      	mov	r2, r5
   20aae:	462b      	mov	r3, r5
   20ab0:	df03      	svc	3
   20ab2:	2104      	movs	r1, #4
   20ab4:	4620      	mov	r0, r4
   20ab6:	462a      	mov	r2, r5
   20ab8:	462b      	mov	r3, r5
   20aba:	df04      	svc	4
   20abc:	f7ff fb63 	bl	20186 <_start+0xa2>
   20ac0:	4da9      	ldr	r5, [pc, #676]	@ (20d68 <_start+0xc84>)
   20ac2:	2400      	movs	r4, #0
   20ac4:	4628      	mov	r0, r5
   20ac6:	4621      	mov	r1, r4
   20ac8:	4622      	mov	r2, r4
   20aca:	4623      	mov	r3, r4
   20acc:	df03      	svc	3
   20ace:	4628      	mov	r0, r5
   20ad0:	4621      	mov	r1, r4
   20ad2:	4622      	mov	r2, r4
   20ad4:	4623      	mov	r3, r4
   20ad6:	df03      	svc	3
   20ad8:	ad38      	add	r5, sp, #224	@ 0xe0
   20ada:	9815      	ldr	r0, [sp, #84]	@ 0x54
   20adc:	6e40      	ldr	r0, [r0, #100]	@ 0x64
   20ade:	8028      	strh	r0, [r5, #0]
   20ae0:	489e      	ldr	r0, [pc, #632]	@ (20d5c <_start+0xc78>)
   20ae2:	4468      	add	r0, sp
   20ae4:	7881      	ldrb	r1, [r0, #2]
   20ae6:	70a9      	strb	r1, [r5, #2]
   20ae8:	78c1      	ldrb	r1, [r0, #3]
   20aea:	9116      	str	r1, [sp, #88]	@ 0x58
   20aec:	7901      	ldrb	r1, [r0, #4]
   20aee:	9110      	str	r1, [sp, #64]	@ 0x40
   20af0:	7941      	ldrb	r1, [r0, #5]
   20af2:	910d      	str	r1, [sp, #52]	@ 0x34
   20af4:	7981      	ldrb	r1, [r0, #6]
   20af6:	910c      	str	r1, [sp, #48]	@ 0x30
   20af8:	1dc1      	adds	r1, r0, #7
   20afa:	ae21      	add	r6, sp, #132	@ 0x84
   20afc:	225c      	movs	r2, #92	@ 0x5c
   20afe:	9211      	str	r2, [sp, #68]	@ 0x44
   20b00:	4630      	mov	r0, r6
   20b02:	f005 f8aa 	bl	25c5a <__aeabi_memcpy>
   20b06:	4898      	ldr	r0, [pc, #608]	@ (20d68 <_start+0xc84>)
   20b08:	4621      	mov	r1, r4
   20b0a:	4622      	mov	r2, r4
   20b0c:	4623      	mov	r3, r4
   20b0e:	df03      	svc	3
   20b10:	2104      	movs	r1, #4
   20b12:	4895      	ldr	r0, [pc, #596]	@ (20d68 <_start+0xc84>)
   20b14:	4622      	mov	r2, r4
   20b16:	4623      	mov	r3, r4
   20b18:	df04      	svc	4
   20b1a:	4c90      	ldr	r4, [pc, #576]	@ (20d5c <_start+0xc78>)
   20b1c:	446c      	add	r4, sp
   20b1e:	980c      	ldr	r0, [sp, #48]	@ 0x30
   20b20:	71a0      	strb	r0, [r4, #6]
   20b22:	980d      	ldr	r0, [sp, #52]	@ 0x34
   20b24:	7160      	strb	r0, [r4, #5]
   20b26:	9810      	ldr	r0, [sp, #64]	@ 0x40
   20b28:	7120      	strb	r0, [r4, #4]
   20b2a:	9816      	ldr	r0, [sp, #88]	@ 0x58
   20b2c:	70e0      	strb	r0, [r4, #3]
   20b2e:	78a8      	ldrb	r0, [r5, #2]
   20b30:	70a0      	strb	r0, [r4, #2]
   20b32:	9838      	ldr	r0, [sp, #224]	@ 0xe0
   20b34:	8020      	strh	r0, [r4, #0]
   20b36:	1de0      	adds	r0, r4, #7
   20b38:	4631      	mov	r1, r6
   20b3a:	9a11      	ldr	r2, [sp, #68]	@ 0x44
   20b3c:	f005 f88d 	bl	25c5a <__aeabi_memcpy>
   20b40:	4888      	ldr	r0, [pc, #544]	@ (20d64 <_start+0xc80>)
   20b42:	4468      	add	r0, sp
   20b44:	2127      	movs	r1, #39	@ 0x27
   20b46:	f005 f83b 	bl	25bc0 <__aeabi_memclr4>
   20b4a:	4888      	ldr	r0, [pc, #544]	@ (20d6c <_start+0xc88>)
   20b4c:	2107      	movs	r1, #7
   20b4e:	2363      	movs	r3, #99	@ 0x63
   20b50:	4622      	mov	r2, r4
   20b52:	df04      	svc	4
   20b54:	9116      	str	r1, [sp, #88]	@ 0x58
   20b56:	2802      	cmp	r0, #2
   20b58:	d010      	beq.n	20b7c <_start+0xa98>
   20b5a:	4884      	ldr	r0, [pc, #528]	@ (20d6c <_start+0xc88>)
   20b5c:	2100      	movs	r1, #0
   20b5e:	4a81      	ldr	r2, [pc, #516]	@ (20d64 <_start+0xc80>)
   20b60:	446a      	add	r2, sp
   20b62:	2327      	movs	r3, #39	@ 0x27
   20b64:	df03      	svc	3
   20b66:	9116      	str	r1, [sp, #88]	@ 0x58
   20b68:	2802      	cmp	r0, #2
   20b6a:	d007      	beq.n	20b7c <_start+0xa98>
   20b6c:	487f      	ldr	r0, [pc, #508]	@ (20d6c <_start+0xc88>)
   20b6e:	2107      	movs	r1, #7
   20b70:	2200      	movs	r2, #0
   20b72:	4613      	mov	r3, r2
   20b74:	df02      	svc	2
   20b76:	9116      	str	r1, [sp, #88]	@ 0x58
   20b78:	287f      	cmp	r0, #127	@ 0x7f
   20b7a:	d80d      	bhi.n	20b98 <_start+0xab4>
   20b7c:	4c7b      	ldr	r4, [pc, #492]	@ (20d6c <_start+0xc88>)
   20b7e:	2500      	movs	r5, #0
   20b80:	4620      	mov	r0, r4
   20b82:	4629      	mov	r1, r5
   20b84:	462a      	mov	r2, r5
   20b86:	462b      	mov	r3, r5
   20b88:	df03      	svc	3
   20b8a:	2107      	movs	r1, #7
   20b8c:	4620      	mov	r0, r4
   20b8e:	462a      	mov	r2, r5
   20b90:	462b      	mov	r3, r5
   20b92:	df04      	svc	4
   20b94:	f7ff faf7 	bl	20186 <_start+0xa2>
   20b98:	4d74      	ldr	r5, [pc, #464]	@ (20d6c <_start+0xc88>)
   20b9a:	2400      	movs	r4, #0
   20b9c:	4628      	mov	r0, r5
   20b9e:	4621      	mov	r1, r4
   20ba0:	4622      	mov	r2, r4
   20ba2:	4623      	mov	r3, r4
   20ba4:	df03      	svc	3
   20ba6:	4628      	mov	r0, r5
   20ba8:	4621      	mov	r1, r4
   20baa:	4622      	mov	r2, r4
   20bac:	4623      	mov	r3, r4
   20bae:	df03      	svc	3
   20bb0:	ad41      	add	r5, sp, #260	@ 0x104
   20bb2:	9815      	ldr	r0, [sp, #84]	@ 0x54
   20bb4:	6800      	ldr	r0, [r0, #0]
   20bb6:	8028      	strh	r0, [r5, #0]
   20bb8:	486a      	ldr	r0, [pc, #424]	@ (20d64 <_start+0xc80>)
   20bba:	4468      	add	r0, sp
   20bbc:	7881      	ldrb	r1, [r0, #2]
   20bbe:	70a9      	strb	r1, [r5, #2]
   20bc0:	78c1      	ldrb	r1, [r0, #3]
   20bc2:	9116      	str	r1, [sp, #88]	@ 0x58
   20bc4:	7901      	ldrb	r1, [r0, #4]
   20bc6:	9110      	str	r1, [sp, #64]	@ 0x40
   20bc8:	7941      	ldrb	r1, [r0, #5]
   20bca:	910d      	str	r1, [sp, #52]	@ 0x34
   20bcc:	7981      	ldrb	r1, [r0, #6]
   20bce:	910c      	str	r1, [sp, #48]	@ 0x30
   20bd0:	1dc1      	adds	r1, r0, #7
   20bd2:	ae39      	add	r6, sp, #228	@ 0xe4
   20bd4:	2220      	movs	r2, #32
   20bd6:	9211      	str	r2, [sp, #68]	@ 0x44
   20bd8:	4630      	mov	r0, r6
   20bda:	f005 f83e 	bl	25c5a <__aeabi_memcpy>
   20bde:	4863      	ldr	r0, [pc, #396]	@ (20d6c <_start+0xc88>)
   20be0:	4621      	mov	r1, r4
   20be2:	4622      	mov	r2, r4
   20be4:	4623      	mov	r3, r4
   20be6:	df03      	svc	3
   20be8:	2107      	movs	r1, #7
   20bea:	4860      	ldr	r0, [pc, #384]	@ (20d6c <_start+0xc88>)
   20bec:	4622      	mov	r2, r4
   20bee:	4623      	mov	r3, r4
   20bf0:	df04      	svc	4
   20bf2:	4c5a      	ldr	r4, [pc, #360]	@ (20d5c <_start+0xc78>)
   20bf4:	446c      	add	r4, sp
   20bf6:	980c      	ldr	r0, [sp, #48]	@ 0x30
   20bf8:	71a0      	strb	r0, [r4, #6]
   20bfa:	980d      	ldr	r0, [sp, #52]	@ 0x34
   20bfc:	7160      	strb	r0, [r4, #5]
   20bfe:	9810      	ldr	r0, [sp, #64]	@ 0x40
   20c00:	7120      	strb	r0, [r4, #4]
   20c02:	9816      	ldr	r0, [sp, #88]	@ 0x58
   20c04:	70e0      	strb	r0, [r4, #3]
   20c06:	78a8      	ldrb	r0, [r5, #2]
   20c08:	70a0      	strb	r0, [r4, #2]
   20c0a:	9841      	ldr	r0, [sp, #260]	@ 0x104
   20c0c:	8020      	strh	r0, [r4, #0]
   20c0e:	1de0      	adds	r0, r4, #7
   20c10:	4631      	mov	r1, r6
   20c12:	9a11      	ldr	r2, [sp, #68]	@ 0x44
   20c14:	f005 f821 	bl	25c5a <__aeabi_memcpy>
   20c18:	4852      	ldr	r0, [pc, #328]	@ (20d64 <_start+0xc80>)
   20c1a:	4468      	add	r0, sp
   20c1c:	211e      	movs	r1, #30
   20c1e:	f004 ffcf 	bl	25bc0 <__aeabi_memclr4>
   20c22:	4853      	ldr	r0, [pc, #332]	@ (20d70 <_start+0xc8c>)
   20c24:	2103      	movs	r1, #3
   20c26:	2327      	movs	r3, #39	@ 0x27
   20c28:	4622      	mov	r2, r4
   20c2a:	df04      	svc	4
   20c2c:	9116      	str	r1, [sp, #88]	@ 0x58
   20c2e:	2802      	cmp	r0, #2
   20c30:	d010      	beq.n	20c54 <_start+0xb70>
   20c32:	484f      	ldr	r0, [pc, #316]	@ (20d70 <_start+0xc8c>)
   20c34:	2103      	movs	r1, #3
   20c36:	4a4b      	ldr	r2, [pc, #300]	@ (20d64 <_start+0xc80>)
   20c38:	446a      	add	r2, sp
   20c3a:	231e      	movs	r3, #30
   20c3c:	df03      	svc	3
   20c3e:	9116      	str	r1, [sp, #88]	@ 0x58
   20c40:	2802      	cmp	r0, #2
   20c42:	d007      	beq.n	20c54 <_start+0xb70>
   20c44:	484a      	ldr	r0, [pc, #296]	@ (20d70 <_start+0xc8c>)
   20c46:	2103      	movs	r1, #3
   20c48:	2300      	movs	r3, #0
   20c4a:	460a      	mov	r2, r1
   20c4c:	df02      	svc	2
   20c4e:	9116      	str	r1, [sp, #88]	@ 0x58
   20c50:	287f      	cmp	r0, #127	@ 0x7f
   20c52:	d811      	bhi.n	20c78 <_start+0xb94>
   20c54:	4c46      	ldr	r4, [pc, #280]	@ (20d70 <_start+0xc8c>)
   20c56:	2503      	movs	r5, #3
   20c58:	2600      	movs	r6, #0
   20c5a:	4620      	mov	r0, r4
   20c5c:	4629      	mov	r1, r5
   20c5e:	4632      	mov	r2, r6
   20c60:	4633      	mov	r3, r6
   20c62:	df03      	svc	3
   20c64:	4620      	mov	r0, r4
   20c66:	4629      	mov	r1, r5
   20c68:	4632      	mov	r2, r6
   20c6a:	4633      	mov	r3, r6
   20c6c:	df04      	svc	4
   20c6e:	f7ff fa8a 	bl	20186 <_start+0xa2>
   20c72:	46c0      	nop			@ (mov r8, r8)
   20c74:	0000093c 	.word	0x0000093c
   20c78:	4d3d      	ldr	r5, [pc, #244]	@ (20d70 <_start+0xc8c>)
   20c7a:	2603      	movs	r6, #3
   20c7c:	2400      	movs	r4, #0
   20c7e:	4628      	mov	r0, r5
   20c80:	4631      	mov	r1, r6
   20c82:	4622      	mov	r2, r4
   20c84:	4623      	mov	r3, r4
   20c86:	df03      	svc	3
   20c88:	4628      	mov	r0, r5
   20c8a:	4631      	mov	r1, r6
   20c8c:	4622      	mov	r2, r4
   20c8e:	4623      	mov	r3, r4
   20c90:	df03      	svc	3
   20c92:	aa42      	add	r2, sp, #264	@ 0x108
   20c94:	9216      	str	r2, [sp, #88]	@ 0x58
   20c96:	9815      	ldr	r0, [sp, #84]	@ 0x54
   20c98:	6800      	ldr	r0, [r0, #0]
   20c9a:	8010      	strh	r0, [r2, #0]
   20c9c:	4831      	ldr	r0, [pc, #196]	@ (20d64 <_start+0xc80>)
   20c9e:	4468      	add	r0, sp
   20ca0:	7881      	ldrb	r1, [r0, #2]
   20ca2:	7091      	strb	r1, [r2, #2]
   20ca4:	78c1      	ldrb	r1, [r0, #3]
   20ca6:	9111      	str	r1, [sp, #68]	@ 0x44
   20ca8:	7901      	ldrb	r1, [r0, #4]
   20caa:	9110      	str	r1, [sp, #64]	@ 0x40
   20cac:	7941      	ldrb	r1, [r0, #5]
   20cae:	910d      	str	r1, [sp, #52]	@ 0x34
   20cb0:	7981      	ldrb	r1, [r0, #6]
   20cb2:	910c      	str	r1, [sp, #48]	@ 0x30
   20cb4:	1dc1      	adds	r1, r0, #7
   20cb6:	adfa      	add	r5, sp, #1000	@ 0x3e8
   20cb8:	2217      	movs	r2, #23
   20cba:	920b      	str	r2, [sp, #44]	@ 0x2c
   20cbc:	4628      	mov	r0, r5
   20cbe:	f004 ffcc 	bl	25c5a <__aeabi_memcpy>
   20cc2:	482b      	ldr	r0, [pc, #172]	@ (20d70 <_start+0xc8c>)
   20cc4:	4631      	mov	r1, r6
   20cc6:	4622      	mov	r2, r4
   20cc8:	4623      	mov	r3, r4
   20cca:	df03      	svc	3
   20ccc:	4828      	ldr	r0, [pc, #160]	@ (20d70 <_start+0xc8c>)
   20cce:	4631      	mov	r1, r6
   20cd0:	4622      	mov	r2, r4
   20cd2:	4623      	mov	r3, r4
   20cd4:	df04      	svc	4
   20cd6:	4c22      	ldr	r4, [pc, #136]	@ (20d60 <_start+0xc7c>)
   20cd8:	446c      	add	r4, sp
   20cda:	1de0      	adds	r0, r4, #7
   20cdc:	4629      	mov	r1, r5
   20cde:	9a0b      	ldr	r2, [sp, #44]	@ 0x2c
   20ce0:	f004 ffbb 	bl	25c5a <__aeabi_memcpy>
   20ce4:	980c      	ldr	r0, [sp, #48]	@ 0x30
   20ce6:	71a0      	strb	r0, [r4, #6]
   20ce8:	980d      	ldr	r0, [sp, #52]	@ 0x34
   20cea:	7160      	strb	r0, [r4, #5]
   20cec:	9810      	ldr	r0, [sp, #64]	@ 0x40
   20cee:	7120      	strb	r0, [r4, #4]
   20cf0:	9811      	ldr	r0, [sp, #68]	@ 0x44
   20cf2:	70e0      	strb	r0, [r4, #3]
   20cf4:	9842      	ldr	r0, [sp, #264]	@ 0x108
   20cf6:	8020      	strh	r0, [r4, #0]
   20cf8:	9816      	ldr	r0, [sp, #88]	@ 0x58
   20cfa:	7880      	ldrb	r0, [r0, #2]
   20cfc:	70a0      	strb	r0, [r4, #2]
   20cfe:	4817      	ldr	r0, [pc, #92]	@ (20d5c <_start+0xc78>)
   20d00:	4468      	add	r0, sp
   20d02:	212c      	movs	r1, #44	@ 0x2c
   20d04:	f004 ff5c 	bl	25bc0 <__aeabi_memclr4>
   20d08:	481a      	ldr	r0, [pc, #104]	@ (20d74 <_start+0xc90>)
   20d0a:	2107      	movs	r1, #7
   20d0c:	231e      	movs	r3, #30
   20d0e:	4622      	mov	r2, r4
   20d10:	df04      	svc	4
   20d12:	9116      	str	r1, [sp, #88]	@ 0x58
   20d14:	2802      	cmp	r0, #2
   20d16:	d010      	beq.n	20d3a <_start+0xc56>
   20d18:	4816      	ldr	r0, [pc, #88]	@ (20d74 <_start+0xc90>)
   20d1a:	2100      	movs	r1, #0
   20d1c:	4a0f      	ldr	r2, [pc, #60]	@ (20d5c <_start+0xc78>)
   20d1e:	446a      	add	r2, sp
   20d20:	232c      	movs	r3, #44	@ 0x2c
   20d22:	df03      	svc	3
   20d24:	9116      	str	r1, [sp, #88]	@ 0x58
   20d26:	2802      	cmp	r0, #2
   20d28:	d007      	beq.n	20d3a <_start+0xc56>
   20d2a:	4812      	ldr	r0, [pc, #72]	@ (20d74 <_start+0xc90>)
   20d2c:	2107      	movs	r1, #7
   20d2e:	2200      	movs	r2, #0
   20d30:	4613      	mov	r3, r2
   20d32:	df02      	svc	2
   20d34:	9116      	str	r1, [sp, #88]	@ 0x58
   20d36:	287f      	cmp	r0, #127	@ 0x7f
   20d38:	d81e      	bhi.n	20d78 <_start+0xc94>
   20d3a:	4c0e      	ldr	r4, [pc, #56]	@ (20d74 <_start+0xc90>)
   20d3c:	2500      	movs	r5, #0
   20d3e:	4620      	mov	r0, r4
   20d40:	4629      	mov	r1, r5
   20d42:	462a      	mov	r2, r5
   20d44:	462b      	mov	r3, r5
   20d46:	df03      	svc	3
   20d48:	2107      	movs	r1, #7
   20d4a:	4620      	mov	r0, r4
   20d4c:	462a      	mov	r2, r5
   20d4e:	462b      	mov	r3, r5
   20d50:	df04      	svc	4
   20d52:	f7ff fa18 	bl	20186 <_start+0xa2>
   20d56:	46c0      	nop			@ (mov r8, r8)
   20d58:	0000093c 	.word	0x0000093c
   20d5c:	000006e8 	.word	0x000006e8
   20d60:	000005b8 	.word	0x000005b8
   20d64:	00000684 	.word	0x00000684
   20d68:	00001c7c 	.word	0x00001c7c
   20d6c:	00001e54 	.word	0x00001e54
   20d70:	000010e2 	.word	0x000010e2
   20d74:	000003fb 	.word	0x000003fb
   20d78:	4da6      	ldr	r5, [pc, #664]	@ (21014 <_start+0xf30>)
   20d7a:	2400      	movs	r4, #0
   20d7c:	4628      	mov	r0, r5
   20d7e:	4621      	mov	r1, r4
   20d80:	4622      	mov	r2, r4
   20d82:	4623      	mov	r3, r4
   20d84:	df03      	svc	3
   20d86:	4628      	mov	r0, r5
   20d88:	4621      	mov	r1, r4
   20d8a:	4622      	mov	r2, r4
   20d8c:	4623      	mov	r3, r4
   20d8e:	df03      	svc	3
   20d90:	aa43      	add	r2, sp, #268	@ 0x10c
   20d92:	9216      	str	r2, [sp, #88]	@ 0x58
   20d94:	9815      	ldr	r0, [sp, #84]	@ 0x54
   20d96:	6e40      	ldr	r0, [r0, #100]	@ 0x64
   20d98:	8010      	strh	r0, [r2, #0]
   20d9a:	489f      	ldr	r0, [pc, #636]	@ (21018 <_start+0xf34>)
   20d9c:	4468      	add	r0, sp
   20d9e:	7881      	ldrb	r1, [r0, #2]
   20da0:	7091      	strb	r1, [r2, #2]
   20da2:	78c1      	ldrb	r1, [r0, #3]
   20da4:	9111      	str	r1, [sp, #68]	@ 0x44
   20da6:	7901      	ldrb	r1, [r0, #4]
   20da8:	9110      	str	r1, [sp, #64]	@ 0x40
   20daa:	7941      	ldrb	r1, [r0, #5]
   20dac:	910d      	str	r1, [sp, #52]	@ 0x34
   20dae:	7981      	ldrb	r1, [r0, #6]
   20db0:	910c      	str	r1, [sp, #48]	@ 0x30
   20db2:	1dc1      	adds	r1, r0, #7
   20db4:	4d99      	ldr	r5, [pc, #612]	@ (2101c <_start+0xf38>)
   20db6:	446d      	add	r5, sp
   20db8:	2625      	movs	r6, #37	@ 0x25
   20dba:	4628      	mov	r0, r5
   20dbc:	4632      	mov	r2, r6
   20dbe:	f004 ff4c 	bl	25c5a <__aeabi_memcpy>
   20dc2:	4894      	ldr	r0, [pc, #592]	@ (21014 <_start+0xf30>)
   20dc4:	4621      	mov	r1, r4
   20dc6:	4622      	mov	r2, r4
   20dc8:	4623      	mov	r3, r4
   20dca:	df03      	svc	3
   20dcc:	2107      	movs	r1, #7
   20dce:	4891      	ldr	r0, [pc, #580]	@ (21014 <_start+0xf30>)
   20dd0:	4622      	mov	r2, r4
   20dd2:	4623      	mov	r3, r4
   20dd4:	df04      	svc	4
   20dd6:	4c90      	ldr	r4, [pc, #576]	@ (21018 <_start+0xf34>)
   20dd8:	446c      	add	r4, sp
   20dda:	1de0      	adds	r0, r4, #7
   20ddc:	4629      	mov	r1, r5
   20dde:	4632      	mov	r2, r6
   20de0:	f004 ff3b 	bl	25c5a <__aeabi_memcpy>
   20de4:	980c      	ldr	r0, [sp, #48]	@ 0x30
   20de6:	71a0      	strb	r0, [r4, #6]
   20de8:	980d      	ldr	r0, [sp, #52]	@ 0x34
   20dea:	7160      	strb	r0, [r4, #5]
   20dec:	9810      	ldr	r0, [sp, #64]	@ 0x40
   20dee:	7120      	strb	r0, [r4, #4]
   20df0:	9811      	ldr	r0, [sp, #68]	@ 0x44
   20df2:	70e0      	strb	r0, [r4, #3]
   20df4:	9843      	ldr	r0, [sp, #268]	@ 0x10c
   20df6:	8020      	strh	r0, [r4, #0]
   20df8:	9816      	ldr	r0, [sp, #88]	@ 0x58
   20dfa:	7880      	ldrb	r0, [r0, #2]
   20dfc:	70a0      	strb	r0, [r4, #2]
   20dfe:	4887      	ldr	r0, [pc, #540]	@ (2101c <_start+0xf38>)
   20e00:	4468      	add	r0, sp
   20e02:	4631      	mov	r1, r6
   20e04:	f004 fedc 	bl	25bc0 <__aeabi_memclr4>
   20e08:	4885      	ldr	r0, [pc, #532]	@ (21020 <_start+0xf3c>)
   20e0a:	2103      	movs	r1, #3
   20e0c:	232c      	movs	r3, #44	@ 0x2c
   20e0e:	4622      	mov	r2, r4
   20e10:	df04      	svc	4
   20e12:	9116      	str	r1, [sp, #88]	@ 0x58
   20e14:	2802      	cmp	r0, #2
   20e16:	d010      	beq.n	20e3a <_start+0xd56>
   20e18:	4881      	ldr	r0, [pc, #516]	@ (21020 <_start+0xf3c>)
   20e1a:	2100      	movs	r1, #0
   20e1c:	4a7f      	ldr	r2, [pc, #508]	@ (2101c <_start+0xf38>)
   20e1e:	446a      	add	r2, sp
   20e20:	2325      	movs	r3, #37	@ 0x25
   20e22:	df03      	svc	3
   20e24:	9116      	str	r1, [sp, #88]	@ 0x58
   20e26:	2802      	cmp	r0, #2
   20e28:	d007      	beq.n	20e3a <_start+0xd56>
   20e2a:	487d      	ldr	r0, [pc, #500]	@ (21020 <_start+0xf3c>)
   20e2c:	2103      	movs	r1, #3
   20e2e:	2200      	movs	r2, #0
   20e30:	4613      	mov	r3, r2
   20e32:	df02      	svc	2
   20e34:	9116      	str	r1, [sp, #88]	@ 0x58
   20e36:	287f      	cmp	r0, #127	@ 0x7f
   20e38:	d80d      	bhi.n	20e56 <_start+0xd72>
   20e3a:	4c79      	ldr	r4, [pc, #484]	@ (21020 <_start+0xf3c>)
   20e3c:	2500      	movs	r5, #0
   20e3e:	4620      	mov	r0, r4
   20e40:	4629      	mov	r1, r5
   20e42:	462a      	mov	r2, r5
   20e44:	462b      	mov	r3, r5
   20e46:	df03      	svc	3
   20e48:	2103      	movs	r1, #3
   20e4a:	4620      	mov	r0, r4
   20e4c:	462a      	mov	r2, r5
   20e4e:	462b      	mov	r3, r5
   20e50:	df04      	svc	4
   20e52:	f7ff f998 	bl	20186 <_start+0xa2>
   20e56:	4d72      	ldr	r5, [pc, #456]	@ (21020 <_start+0xf3c>)
   20e58:	2400      	movs	r4, #0
   20e5a:	4628      	mov	r0, r5
   20e5c:	4621      	mov	r1, r4
   20e5e:	4622      	mov	r2, r4
   20e60:	4623      	mov	r3, r4
   20e62:	df03      	svc	3
   20e64:	4628      	mov	r0, r5
   20e66:	4621      	mov	r1, r4
   20e68:	4622      	mov	r2, r4
   20e6a:	4623      	mov	r3, r4
   20e6c:	df03      	svc	3
   20e6e:	aa44      	add	r2, sp, #272	@ 0x110
   20e70:	9216      	str	r2, [sp, #88]	@ 0x58
   20e72:	9815      	ldr	r0, [sp, #84]	@ 0x54
   20e74:	6800      	ldr	r0, [r0, #0]
   20e76:	8010      	strh	r0, [r2, #0]
   20e78:	4868      	ldr	r0, [pc, #416]	@ (2101c <_start+0xf38>)
   20e7a:	4468      	add	r0, sp
   20e7c:	7881      	ldrb	r1, [r0, #2]
   20e7e:	7091      	strb	r1, [r2, #2]
   20e80:	78c1      	ldrb	r1, [r0, #3]
   20e82:	9111      	str	r1, [sp, #68]	@ 0x44
   20e84:	7901      	ldrb	r1, [r0, #4]
   20e86:	9110      	str	r1, [sp, #64]	@ 0x40
   20e88:	7941      	ldrb	r1, [r0, #5]
   20e8a:	910d      	str	r1, [sp, #52]	@ 0x34
   20e8c:	7981      	ldrb	r1, [r0, #6]
   20e8e:	910c      	str	r1, [sp, #48]	@ 0x30
   20e90:	1dc1      	adds	r1, r0, #7
   20e92:	4e64      	ldr	r6, [pc, #400]	@ (21024 <_start+0xf40>)
   20e94:	446e      	add	r6, sp
   20e96:	221e      	movs	r2, #30
   20e98:	920b      	str	r2, [sp, #44]	@ 0x2c
   20e9a:	4630      	mov	r0, r6
   20e9c:	f004 fedd 	bl	25c5a <__aeabi_memcpy>
   20ea0:	4628      	mov	r0, r5
   20ea2:	4621      	mov	r1, r4
   20ea4:	4622      	mov	r2, r4
   20ea6:	4623      	mov	r3, r4
   20ea8:	df03      	svc	3
   20eaa:	2103      	movs	r1, #3
   20eac:	4628      	mov	r0, r5
   20eae:	4622      	mov	r2, r4
   20eb0:	4623      	mov	r3, r4
   20eb2:	df04      	svc	4
   20eb4:	4d58      	ldr	r5, [pc, #352]	@ (21018 <_start+0xf34>)
   20eb6:	446d      	add	r5, sp
   20eb8:	1de8      	adds	r0, r5, #7
   20eba:	4631      	mov	r1, r6
   20ebc:	9a0b      	ldr	r2, [sp, #44]	@ 0x2c
   20ebe:	f004 fecc 	bl	25c5a <__aeabi_memcpy>
   20ec2:	980c      	ldr	r0, [sp, #48]	@ 0x30
   20ec4:	71a8      	strb	r0, [r5, #6]
   20ec6:	980d      	ldr	r0, [sp, #52]	@ 0x34
   20ec8:	7168      	strb	r0, [r5, #5]
   20eca:	9810      	ldr	r0, [sp, #64]	@ 0x40
   20ecc:	7128      	strb	r0, [r5, #4]
   20ece:	9811      	ldr	r0, [sp, #68]	@ 0x44
   20ed0:	70e8      	strb	r0, [r5, #3]
   20ed2:	9844      	ldr	r0, [sp, #272]	@ 0x110
   20ed4:	8028      	strh	r0, [r5, #0]
   20ed6:	9816      	ldr	r0, [sp, #88]	@ 0x58
   20ed8:	7880      	ldrb	r0, [r0, #2]
   20eda:	70a8      	strb	r0, [r5, #2]
   20edc:	484f      	ldr	r0, [pc, #316]	@ (2101c <_start+0xf38>)
   20ede:	4468      	add	r0, sp
   20ee0:	2118      	movs	r1, #24
   20ee2:	f004 fe6d 	bl	25bc0 <__aeabi_memclr4>
   20ee6:	20a7      	movs	r0, #167	@ 0xa7
   20ee8:	0104      	lsls	r4, r0, #4
   20eea:	2109      	movs	r1, #9
   20eec:	2325      	movs	r3, #37	@ 0x25
   20eee:	4620      	mov	r0, r4
   20ef0:	462a      	mov	r2, r5
   20ef2:	df04      	svc	4
   20ef4:	9116      	str	r1, [sp, #88]	@ 0x58
   20ef6:	2802      	cmp	r0, #2
   20ef8:	d010      	beq.n	20f1c <_start+0xe38>
   20efa:	2108      	movs	r1, #8
   20efc:	4a47      	ldr	r2, [pc, #284]	@ (2101c <_start+0xf38>)
   20efe:	446a      	add	r2, sp
   20f00:	2318      	movs	r3, #24
   20f02:	4620      	mov	r0, r4
   20f04:	df03      	svc	3
   20f06:	9116      	str	r1, [sp, #88]	@ 0x58
   20f08:	2802      	cmp	r0, #2
   20f0a:	d007      	beq.n	20f1c <_start+0xe38>
   20f0c:	2109      	movs	r1, #9
   20f0e:	2208      	movs	r2, #8
   20f10:	2300      	movs	r3, #0
   20f12:	4620      	mov	r0, r4
   20f14:	df02      	svc	2
   20f16:	9116      	str	r1, [sp, #88]	@ 0x58
   20f18:	287f      	cmp	r0, #127	@ 0x7f
   20f1a:	d80c      	bhi.n	20f36 <_start+0xe52>
   20f1c:	2108      	movs	r1, #8
   20f1e:	2500      	movs	r5, #0
   20f20:	4620      	mov	r0, r4
   20f22:	462a      	mov	r2, r5
   20f24:	462b      	mov	r3, r5
   20f26:	df03      	svc	3
   20f28:	2109      	movs	r1, #9
   20f2a:	4620      	mov	r0, r4
   20f2c:	462a      	mov	r2, r5
   20f2e:	462b      	mov	r3, r5
   20f30:	df04      	svc	4
   20f32:	f7ff f928 	bl	20186 <_start+0xa2>
   20f36:	2508      	movs	r5, #8
   20f38:	9516      	str	r5, [sp, #88]	@ 0x58
   20f3a:	2600      	movs	r6, #0
   20f3c:	4620      	mov	r0, r4
   20f3e:	4629      	mov	r1, r5
   20f40:	4632      	mov	r2, r6
   20f42:	4633      	mov	r3, r6
   20f44:	df03      	svc	3
   20f46:	4620      	mov	r0, r4
   20f48:	4629      	mov	r1, r5
   20f4a:	4632      	mov	r2, r6
   20f4c:	4633      	mov	r3, r6
   20f4e:	df03      	svc	3
   20f50:	aa45      	add	r2, sp, #276	@ 0x114
   20f52:	9211      	str	r2, [sp, #68]	@ 0x44
   20f54:	9815      	ldr	r0, [sp, #84]	@ 0x54
   20f56:	6800      	ldr	r0, [r0, #0]
   20f58:	8010      	strh	r0, [r2, #0]
   20f5a:	4830      	ldr	r0, [pc, #192]	@ (2101c <_start+0xf38>)
   20f5c:	4468      	add	r0, sp
   20f5e:	7881      	ldrb	r1, [r0, #2]
   20f60:	7091      	strb	r1, [r2, #2]
   20f62:	78c1      	ldrb	r1, [r0, #3]
   20f64:	9110      	str	r1, [sp, #64]	@ 0x40
   20f66:	7901      	ldrb	r1, [r0, #4]
   20f68:	910d      	str	r1, [sp, #52]	@ 0x34
   20f6a:	7941      	ldrb	r1, [r0, #5]
   20f6c:	910c      	str	r1, [sp, #48]	@ 0x30
   20f6e:	7981      	ldrb	r1, [r0, #6]
   20f70:	910b      	str	r1, [sp, #44]	@ 0x2c
   20f72:	1dc1      	adds	r1, r0, #7
   20f74:	adfa      	add	r5, sp, #1000	@ 0x3e8
   20f76:	2211      	movs	r2, #17
   20f78:	920a      	str	r2, [sp, #40]	@ 0x28
   20f7a:	4628      	mov	r0, r5
   20f7c:	f004 fe6d 	bl	25c5a <__aeabi_memcpy>
   20f80:	4620      	mov	r0, r4
   20f82:	9916      	ldr	r1, [sp, #88]	@ 0x58
   20f84:	4632      	mov	r2, r6
   20f86:	4633      	mov	r3, r6
   20f88:	df03      	svc	3
   20f8a:	2109      	movs	r1, #9
   20f8c:	4620      	mov	r0, r4
   20f8e:	4632      	mov	r2, r6
   20f90:	4633      	mov	r3, r6
   20f92:	df04      	svc	4
   20f94:	4c23      	ldr	r4, [pc, #140]	@ (21024 <_start+0xf40>)
   20f96:	446c      	add	r4, sp
   20f98:	1de0      	adds	r0, r4, #7
   20f9a:	4629      	mov	r1, r5
   20f9c:	9a0a      	ldr	r2, [sp, #40]	@ 0x28
   20f9e:	f004 fe5c 	bl	25c5a <__aeabi_memcpy>
   20fa2:	980b      	ldr	r0, [sp, #44]	@ 0x2c
   20fa4:	71a0      	strb	r0, [r4, #6]
   20fa6:	980c      	ldr	r0, [sp, #48]	@ 0x30
   20fa8:	7160      	strb	r0, [r4, #5]
   20faa:	980d      	ldr	r0, [sp, #52]	@ 0x34
   20fac:	7120      	strb	r0, [r4, #4]
   20fae:	9810      	ldr	r0, [sp, #64]	@ 0x40
   20fb0:	70e0      	strb	r0, [r4, #3]
   20fb2:	9845      	ldr	r0, [sp, #276]	@ 0x114
   20fb4:	8020      	strh	r0, [r4, #0]
   20fb6:	9811      	ldr	r0, [sp, #68]	@ 0x44
   20fb8:	7880      	ldrb	r0, [r0, #2]
   20fba:	70a0      	strb	r0, [r4, #2]
   20fbc:	4816      	ldr	r0, [pc, #88]	@ (21018 <_start+0xf34>)
   20fbe:	4468      	add	r0, sp
   20fc0:	2136      	movs	r1, #54	@ 0x36
   20fc2:	f004 fdfd 	bl	25bc0 <__aeabi_memclr4>
   20fc6:	20f3      	movs	r0, #243	@ 0xf3
   20fc8:	2318      	movs	r3, #24
   20fca:	9916      	ldr	r1, [sp, #88]	@ 0x58
   20fcc:	4622      	mov	r2, r4
   20fce:	df04      	svc	4
   20fd0:	9116      	str	r1, [sp, #88]	@ 0x58
   20fd2:	2802      	cmp	r0, #2
   20fd4:	d010      	beq.n	20ff8 <_start+0xf14>
   20fd6:	20f3      	movs	r0, #243	@ 0xf3
   20fd8:	2104      	movs	r1, #4
   20fda:	4a0f      	ldr	r2, [pc, #60]	@ (21018 <_start+0xf34>)
   20fdc:	446a      	add	r2, sp
   20fde:	2336      	movs	r3, #54	@ 0x36
   20fe0:	df03      	svc	3
   20fe2:	9116      	str	r1, [sp, #88]	@ 0x58
   20fe4:	2802      	cmp	r0, #2
   20fe6:	d007      	beq.n	20ff8 <_start+0xf14>
   20fe8:	20f3      	movs	r0, #243	@ 0xf3
   20fea:	2108      	movs	r1, #8
   20fec:	2204      	movs	r2, #4
   20fee:	2300      	movs	r3, #0
   20ff0:	df02      	svc	2
   20ff2:	9116      	str	r1, [sp, #88]	@ 0x58
   20ff4:	287f      	cmp	r0, #127	@ 0x7f
   20ff6:	d817      	bhi.n	21028 <_start+0xf44>
   20ff8:	24f3      	movs	r4, #243	@ 0xf3
   20ffa:	2104      	movs	r1, #4
   20ffc:	2500      	movs	r5, #0
   20ffe:	4620      	mov	r0, r4
   21000:	462a      	mov	r2, r5
   21002:	462b      	mov	r3, r5
   21004:	df03      	svc	3
   21006:	2108      	movs	r1, #8
   21008:	4620      	mov	r0, r4
   2100a:	462a      	mov	r2, r5
   2100c:	462b      	mov	r3, r5
   2100e:	df04      	svc	4
   21010:	f7ff f8b9 	bl	20186 <_start+0xa2>
   21014:	000003fb 	.word	0x000003fb
   21018:	000006e8 	.word	0x000006e8
   2101c:	00000684 	.word	0x00000684
   21020:	0000077f 	.word	0x0000077f
   21024:	000005b8 	.word	0x000005b8
   21028:	26f3      	movs	r6, #243	@ 0xf3
   2102a:	2404      	movs	r4, #4
   2102c:	9416      	str	r4, [sp, #88]	@ 0x58
   2102e:	2500      	movs	r5, #0
   21030:	4630      	mov	r0, r6
   21032:	4621      	mov	r1, r4
   21034:	462a      	mov	r2, r5
   21036:	462b      	mov	r3, r5
   21038:	df03      	svc	3
   2103a:	4630      	mov	r0, r6
   2103c:	4621      	mov	r1, r4
   2103e:	462a      	mov	r2, r5
   21040:	462b      	mov	r3, r5
   21042:	df03      	svc	3
   21044:	aa46      	add	r2, sp, #280	@ 0x118
   21046:	9211      	str	r2, [sp, #68]	@ 0x44
   21048:	9815      	ldr	r0, [sp, #84]	@ 0x54
   2104a:	6e40      	ldr	r0, [r0, #100]	@ 0x64
   2104c:	8010      	strh	r0, [r2, #0]
   2104e:	48d8      	ldr	r0, [pc, #864]	@ (213b0 <_start+0x12cc>)
   21050:	4468      	add	r0, sp
   21052:	7881      	ldrb	r1, [r0, #2]
   21054:	7091      	strb	r1, [r2, #2]
   21056:	78c1      	ldrb	r1, [r0, #3]
   21058:	9110      	str	r1, [sp, #64]	@ 0x40
   2105a:	7901      	ldrb	r1, [r0, #4]
   2105c:	910d      	str	r1, [sp, #52]	@ 0x34
   2105e:	7941      	ldrb	r1, [r0, #5]
   21060:	910c      	str	r1, [sp, #48]	@ 0x30
   21062:	7981      	ldrb	r1, [r0, #6]
   21064:	910b      	str	r1, [sp, #44]	@ 0x2c
   21066:	1dc1      	adds	r1, r0, #7
   21068:	4cd2      	ldr	r4, [pc, #840]	@ (213b4 <_start+0x12d0>)
   2106a:	446c      	add	r4, sp
   2106c:	222f      	movs	r2, #47	@ 0x2f
   2106e:	920a      	str	r2, [sp, #40]	@ 0x28
   21070:	4620      	mov	r0, r4
   21072:	f004 fdf2 	bl	25c5a <__aeabi_memcpy>
   21076:	4630      	mov	r0, r6
   21078:	9916      	ldr	r1, [sp, #88]	@ 0x58
   2107a:	462a      	mov	r2, r5
   2107c:	462b      	mov	r3, r5
   2107e:	df03      	svc	3
   21080:	2108      	movs	r1, #8
   21082:	4630      	mov	r0, r6
   21084:	462a      	mov	r2, r5
   21086:	462b      	mov	r3, r5
   21088:	df04      	svc	4
   2108a:	4dc9      	ldr	r5, [pc, #804]	@ (213b0 <_start+0x12cc>)
   2108c:	446d      	add	r5, sp
   2108e:	1de8      	adds	r0, r5, #7
   21090:	4621      	mov	r1, r4
   21092:	9a0a      	ldr	r2, [sp, #40]	@ 0x28
   21094:	f004 fde1 	bl	25c5a <__aeabi_memcpy>
   21098:	980b      	ldr	r0, [sp, #44]	@ 0x2c
   2109a:	71a8      	strb	r0, [r5, #6]
   2109c:	980c      	ldr	r0, [sp, #48]	@ 0x30
   2109e:	7168      	strb	r0, [r5, #5]
   210a0:	980d      	ldr	r0, [sp, #52]	@ 0x34
   210a2:	7128      	strb	r0, [r5, #4]
   210a4:	9810      	ldr	r0, [sp, #64]	@ 0x40
   210a6:	70e8      	strb	r0, [r5, #3]
   210a8:	9846      	ldr	r0, [sp, #280]	@ 0x118
   210aa:	8028      	strh	r0, [r5, #0]
   210ac:	9811      	ldr	r0, [sp, #68]	@ 0x44
   210ae:	7880      	ldrb	r0, [r0, #2]
   210b0:	70a8      	strb	r0, [r5, #2]
   210b2:	48c0      	ldr	r0, [pc, #768]	@ (213b4 <_start+0x12d0>)
   210b4:	4468      	add	r0, sp
   210b6:	2134      	movs	r1, #52	@ 0x34
   210b8:	f004 fd82 	bl	25bc0 <__aeabi_memclr4>
   210bc:	48be      	ldr	r0, [pc, #760]	@ (213b8 <_start+0x12d4>)
   210be:	2336      	movs	r3, #54	@ 0x36
   210c0:	9916      	ldr	r1, [sp, #88]	@ 0x58
   210c2:	462a      	mov	r2, r5
   210c4:	df04      	svc	4
   210c6:	9116      	str	r1, [sp, #88]	@ 0x58
   210c8:	2802      	cmp	r0, #2
   210ca:	d010      	beq.n	210ee <_start+0x100a>
   210cc:	48ba      	ldr	r0, [pc, #744]	@ (213b8 <_start+0x12d4>)
   210ce:	2102      	movs	r1, #2
   210d0:	4ab8      	ldr	r2, [pc, #736]	@ (213b4 <_start+0x12d0>)
   210d2:	446a      	add	r2, sp
   210d4:	2334      	movs	r3, #52	@ 0x34
   210d6:	df03      	svc	3
   210d8:	9116      	str	r1, [sp, #88]	@ 0x58
   210da:	2802      	cmp	r0, #2
   210dc:	d007      	beq.n	210ee <_start+0x100a>
   210de:	48b6      	ldr	r0, [pc, #728]	@ (213b8 <_start+0x12d4>)
   210e0:	2104      	movs	r1, #4
   210e2:	2202      	movs	r2, #2
   210e4:	2300      	movs	r3, #0
   210e6:	df02      	svc	2
   210e8:	9116      	str	r1, [sp, #88]	@ 0x58
   210ea:	287f      	cmp	r0, #127	@ 0x7f
   210ec:	d80d      	bhi.n	2110a <_start+0x1026>
   210ee:	4cb2      	ldr	r4, [pc, #712]	@ (213b8 <_start+0x12d4>)
   210f0:	2102      	movs	r1, #2
   210f2:	2500      	movs	r5, #0
   210f4:	4620      	mov	r0, r4
   210f6:	462a      	mov	r2, r5
   210f8:	462b      	mov	r3, r5
   210fa:	df03      	svc	3
   210fc:	2104      	movs	r1, #4
   210fe:	4620      	mov	r0, r4
   21100:	462a      	mov	r2, r5
   21102:	462b      	mov	r3, r5
   21104:	df04      	svc	4
   21106:	f7ff f83e 	bl	20186 <_start+0xa2>
   2110a:	4eab      	ldr	r6, [pc, #684]	@ (213b8 <_start+0x12d4>)
   2110c:	2402      	movs	r4, #2
   2110e:	9416      	str	r4, [sp, #88]	@ 0x58
   21110:	2500      	movs	r5, #0
   21112:	4630      	mov	r0, r6
   21114:	4621      	mov	r1, r4
   21116:	462a      	mov	r2, r5
   21118:	462b      	mov	r3, r5
   2111a:	df03      	svc	3
   2111c:	4630      	mov	r0, r6
   2111e:	4621      	mov	r1, r4
   21120:	462a      	mov	r2, r5
   21122:	462b      	mov	r3, r5
   21124:	df03      	svc	3
   21126:	aa47      	add	r2, sp, #284	@ 0x11c
   21128:	9211      	str	r2, [sp, #68]	@ 0x44
   2112a:	9815      	ldr	r0, [sp, #84]	@ 0x54
   2112c:	6800      	ldr	r0, [r0, #0]
   2112e:	8010      	strh	r0, [r2, #0]
   21130:	48a0      	ldr	r0, [pc, #640]	@ (213b4 <_start+0x12d0>)
   21132:	4468      	add	r0, sp
   21134:	7881      	ldrb	r1, [r0, #2]
   21136:	7091      	strb	r1, [r2, #2]
   21138:	78c1      	ldrb	r1, [r0, #3]
   2113a:	9110      	str	r1, [sp, #64]	@ 0x40
   2113c:	7901      	ldrb	r1, [r0, #4]
   2113e:	910d      	str	r1, [sp, #52]	@ 0x34
   21140:	7941      	ldrb	r1, [r0, #5]
   21142:	910c      	str	r1, [sp, #48]	@ 0x30
   21144:	7981      	ldrb	r1, [r0, #6]
   21146:	910b      	str	r1, [sp, #44]	@ 0x2c
   21148:	1dc1      	adds	r1, r0, #7
   2114a:	4e9c      	ldr	r6, [pc, #624]	@ (213bc <_start+0x12d8>)
   2114c:	446e      	add	r6, sp
   2114e:	242d      	movs	r4, #45	@ 0x2d
   21150:	4630      	mov	r0, r6
   21152:	4622      	mov	r2, r4
   21154:	f004 fd81 	bl	25c5a <__aeabi_memcpy>
   21158:	4897      	ldr	r0, [pc, #604]	@ (213b8 <_start+0x12d4>)
   2115a:	9916      	ldr	r1, [sp, #88]	@ 0x58
   2115c:	462a      	mov	r2, r5
   2115e:	462b      	mov	r3, r5
   21160:	df03      	svc	3
   21162:	2104      	movs	r1, #4
   21164:	4894      	ldr	r0, [pc, #592]	@ (213b8 <_start+0x12d4>)
   21166:	462a      	mov	r2, r5
   21168:	462b      	mov	r3, r5
   2116a:	df04      	svc	4
   2116c:	4d90      	ldr	r5, [pc, #576]	@ (213b0 <_start+0x12cc>)
   2116e:	446d      	add	r5, sp
   21170:	1de8      	adds	r0, r5, #7
   21172:	4631      	mov	r1, r6
   21174:	4622      	mov	r2, r4
   21176:	f004 fd70 	bl	25c5a <__aeabi_memcpy>
   2117a:	980b      	ldr	r0, [sp, #44]	@ 0x2c
   2117c:	71a8      	strb	r0, [r5, #6]
   2117e:	980c      	ldr	r0, [sp, #48]	@ 0x30
   21180:	7168      	strb	r0, [r5, #5]
   21182:	980d      	ldr	r0, [sp, #52]	@ 0x34
   21184:	7128      	strb	r0, [r5, #4]
   21186:	9810      	ldr	r0, [sp, #64]	@ 0x40
   21188:	70e8      	strb	r0, [r5, #3]
   2118a:	9847      	ldr	r0, [sp, #284]	@ 0x11c
   2118c:	8028      	strh	r0, [r5, #0]
   2118e:	9811      	ldr	r0, [sp, #68]	@ 0x44
   21190:	7880      	ldrb	r0, [r0, #2]
   21192:	70a8      	strb	r0, [r5, #2]
   21194:	4887      	ldr	r0, [pc, #540]	@ (213b4 <_start+0x12d0>)
   21196:	4468      	add	r0, sp
   21198:	212e      	movs	r1, #46	@ 0x2e
   2119a:	f004 fd11 	bl	25bc0 <__aeabi_memclr4>
   2119e:	4888      	ldr	r0, [pc, #544]	@ (213c0 <_start+0x12dc>)
   211a0:	2334      	movs	r3, #52	@ 0x34
   211a2:	9916      	ldr	r1, [sp, #88]	@ 0x58
   211a4:	462a      	mov	r2, r5
   211a6:	df04      	svc	4
   211a8:	9116      	str	r1, [sp, #88]	@ 0x58
   211aa:	2802      	cmp	r0, #2
   211ac:	d010      	beq.n	211d0 <_start+0x10ec>
   211ae:	4884      	ldr	r0, [pc, #528]	@ (213c0 <_start+0x12dc>)
   211b0:	2108      	movs	r1, #8
   211b2:	4a80      	ldr	r2, [pc, #512]	@ (213b4 <_start+0x12d0>)
   211b4:	446a      	add	r2, sp
   211b6:	232e      	movs	r3, #46	@ 0x2e
   211b8:	df03      	svc	3
   211ba:	9116      	str	r1, [sp, #88]	@ 0x58
   211bc:	2802      	cmp	r0, #2
   211be:	d007      	beq.n	211d0 <_start+0x10ec>
   211c0:	487f      	ldr	r0, [pc, #508]	@ (213c0 <_start+0x12dc>)
   211c2:	2102      	movs	r1, #2
   211c4:	2208      	movs	r2, #8
   211c6:	2300      	movs	r3, #0
   211c8:	df02      	svc	2
   211ca:	9116      	str	r1, [sp, #88]	@ 0x58
   211cc:	287f      	cmp	r0, #127	@ 0x7f
   211ce:	d80d      	bhi.n	211ec <_start+0x1108>
   211d0:	4c7b      	ldr	r4, [pc, #492]	@ (213c0 <_start+0x12dc>)
   211d2:	2108      	movs	r1, #8
   211d4:	2500      	movs	r5, #0
   211d6:	4620      	mov	r0, r4
   211d8:	462a      	mov	r2, r5
   211da:	462b      	mov	r3, r5
   211dc:	df03      	svc	3
   211de:	2102      	movs	r1, #2
   211e0:	4620      	mov	r0, r4
   211e2:	462a      	mov	r2, r5
   211e4:	462b      	mov	r3, r5
   211e6:	df04      	svc	4
   211e8:	f7fe ffcd 	bl	20186 <_start+0xa2>
   211ec:	4d74      	ldr	r5, [pc, #464]	@ (213c0 <_start+0x12dc>)
   211ee:	2608      	movs	r6, #8
   211f0:	2400      	movs	r4, #0
   211f2:	4628      	mov	r0, r5
   211f4:	4631      	mov	r1, r6
   211f6:	4622      	mov	r2, r4
   211f8:	4623      	mov	r3, r4
   211fa:	df03      	svc	3
   211fc:	4628      	mov	r0, r5
   211fe:	4631      	mov	r1, r6
   21200:	4622      	mov	r2, r4
   21202:	4623      	mov	r3, r4
   21204:	df03      	svc	3
   21206:	aa48      	add	r2, sp, #288	@ 0x120
   21208:	9216      	str	r2, [sp, #88]	@ 0x58
   2120a:	9815      	ldr	r0, [sp, #84]	@ 0x54
   2120c:	6800      	ldr	r0, [r0, #0]
   2120e:	8010      	strh	r0, [r2, #0]
   21210:	4868      	ldr	r0, [pc, #416]	@ (213b4 <_start+0x12d0>)
   21212:	4468      	add	r0, sp
   21214:	7881      	ldrb	r1, [r0, #2]
   21216:	7091      	strb	r1, [r2, #2]
   21218:	78c1      	ldrb	r1, [r0, #3]
   2121a:	9111      	str	r1, [sp, #68]	@ 0x44
   2121c:	7901      	ldrb	r1, [r0, #4]
   2121e:	9110      	str	r1, [sp, #64]	@ 0x40
   21220:	7941      	ldrb	r1, [r0, #5]
   21222:	910d      	str	r1, [sp, #52]	@ 0x34
   21224:	7981      	ldrb	r1, [r0, #6]
   21226:	910c      	str	r1, [sp, #48]	@ 0x30
   21228:	1dc1      	adds	r1, r0, #7
   2122a:	adfa      	add	r5, sp, #1000	@ 0x3e8
   2122c:	2227      	movs	r2, #39	@ 0x27
   2122e:	920b      	str	r2, [sp, #44]	@ 0x2c
   21230:	4628      	mov	r0, r5
   21232:	f004 fd12 	bl	25c5a <__aeabi_memcpy>
   21236:	4862      	ldr	r0, [pc, #392]	@ (213c0 <_start+0x12dc>)
   21238:	4631      	mov	r1, r6
   2123a:	4622      	mov	r2, r4
   2123c:	4623      	mov	r3, r4
   2123e:	df03      	svc	3
   21240:	2102      	movs	r1, #2
   21242:	485f      	ldr	r0, [pc, #380]	@ (213c0 <_start+0x12dc>)
   21244:	4622      	mov	r2, r4
   21246:	4623      	mov	r3, r4
   21248:	df04      	svc	4
   2124a:	4c5c      	ldr	r4, [pc, #368]	@ (213bc <_start+0x12d8>)
   2124c:	446c      	add	r4, sp
   2124e:	1de0      	adds	r0, r4, #7
   21250:	4629      	mov	r1, r5
   21252:	9a0b      	ldr	r2, [sp, #44]	@ 0x2c
   21254:	f004 fd01 	bl	25c5a <__aeabi_memcpy>
   21258:	980c      	ldr	r0, [sp, #48]	@ 0x30
   2125a:	71a0      	strb	r0, [r4, #6]
   2125c:	980d      	ldr	r0, [sp, #52]	@ 0x34
   2125e:	7160      	strb	r0, [r4, #5]
   21260:	9810      	ldr	r0, [sp, #64]	@ 0x40
   21262:	7120      	strb	r0, [r4, #4]
   21264:	9811      	ldr	r0, [sp, #68]	@ 0x44
   21266:	70e0      	strb	r0, [r4, #3]
   21268:	9848      	ldr	r0, [sp, #288]	@ 0x120
   2126a:	8020      	strh	r0, [r4, #0]
   2126c:	9816      	ldr	r0, [sp, #88]	@ 0x58
   2126e:	7880      	ldrb	r0, [r0, #2]
   21270:	70a0      	strb	r0, [r4, #2]
   21272:	484f      	ldr	r0, [pc, #316]	@ (213b0 <_start+0x12cc>)
   21274:	4468      	add	r0, sp
   21276:	2138      	movs	r1, #56	@ 0x38
   21278:	f004 fca2 	bl	25bc0 <__aeabi_memclr4>
   2127c:	4851      	ldr	r0, [pc, #324]	@ (213c4 <_start+0x12e0>)
   2127e:	2109      	movs	r1, #9
   21280:	232e      	movs	r3, #46	@ 0x2e
   21282:	4622      	mov	r2, r4
   21284:	df04      	svc	4
   21286:	9116      	str	r1, [sp, #88]	@ 0x58
   21288:	2802      	cmp	r0, #2
   2128a:	d010      	beq.n	212ae <_start+0x11ca>
   2128c:	484d      	ldr	r0, [pc, #308]	@ (213c4 <_start+0x12e0>)
   2128e:	2109      	movs	r1, #9
   21290:	4a47      	ldr	r2, [pc, #284]	@ (213b0 <_start+0x12cc>)
   21292:	446a      	add	r2, sp
   21294:	2338      	movs	r3, #56	@ 0x38
   21296:	df03      	svc	3
   21298:	9116      	str	r1, [sp, #88]	@ 0x58
   2129a:	2802      	cmp	r0, #2
   2129c:	d007      	beq.n	212ae <_start+0x11ca>
   2129e:	4849      	ldr	r0, [pc, #292]	@ (213c4 <_start+0x12e0>)
   212a0:	2109      	movs	r1, #9
   212a2:	2300      	movs	r3, #0
   212a4:	460a      	mov	r2, r1
   212a6:	df02      	svc	2
   212a8:	9116      	str	r1, [sp, #88]	@ 0x58
   212aa:	287f      	cmp	r0, #127	@ 0x7f
   212ac:	d80e      	bhi.n	212cc <_start+0x11e8>
   212ae:	4c45      	ldr	r4, [pc, #276]	@ (213c4 <_start+0x12e0>)
   212b0:	2509      	movs	r5, #9
   212b2:	2600      	movs	r6, #0
   212b4:	4620      	mov	r0, r4
   212b6:	4629      	mov	r1, r5
   212b8:	4632      	mov	r2, r6
   212ba:	4633      	mov	r3, r6
   212bc:	df03      	svc	3
   212be:	4620      	mov	r0, r4
   212c0:	4629      	mov	r1, r5
   212c2:	4632      	mov	r2, r6
   212c4:	4633      	mov	r3, r6
   212c6:	df04      	svc	4
   212c8:	f7fe ff5d 	bl	20186 <_start+0xa2>
   212cc:	4d3d      	ldr	r5, [pc, #244]	@ (213c4 <_start+0x12e0>)
   212ce:	2609      	movs	r6, #9
   212d0:	2400      	movs	r4, #0
   212d2:	4628      	mov	r0, r5
   212d4:	4631      	mov	r1, r6
   212d6:	4622      	mov	r2, r4
   212d8:	4623      	mov	r3, r4
   212da:	df03      	svc	3
   212dc:	4628      	mov	r0, r5
   212de:	4631      	mov	r1, r6
   212e0:	4622      	mov	r2, r4
   212e2:	4623      	mov	r3, r4
   212e4:	df03      	svc	3
   212e6:	aa49      	add	r2, sp, #292	@ 0x124
   212e8:	9216      	str	r2, [sp, #88]	@ 0x58
   212ea:	9815      	ldr	r0, [sp, #84]	@ 0x54
   212ec:	6e40      	ldr	r0, [r0, #100]	@ 0x64
   212ee:	8010      	strh	r0, [r2, #0]
   212f0:	482f      	ldr	r0, [pc, #188]	@ (213b0 <_start+0x12cc>)
   212f2:	4468      	add	r0, sp
   212f4:	7881      	ldrb	r1, [r0, #2]
   212f6:	7091      	strb	r1, [r2, #2]
   212f8:	78c1      	ldrb	r1, [r0, #3]
   212fa:	9111      	str	r1, [sp, #68]	@ 0x44
   212fc:	7901      	ldrb	r1, [r0, #4]
   212fe:	9110      	str	r1, [sp, #64]	@ 0x40
   21300:	7941      	ldrb	r1, [r0, #5]
   21302:	910d      	str	r1, [sp, #52]	@ 0x34
   21304:	7981      	ldrb	r1, [r0, #6]
   21306:	910c      	str	r1, [sp, #48]	@ 0x30
   21308:	1dc1      	adds	r1, r0, #7
   2130a:	482a      	ldr	r0, [pc, #168]	@ (213b4 <_start+0x12d0>)
   2130c:	4468      	add	r0, sp
   2130e:	900b      	str	r0, [sp, #44]	@ 0x2c
   21310:	2231      	movs	r2, #49	@ 0x31
   21312:	920a      	str	r2, [sp, #40]	@ 0x28
   21314:	f004 fca1 	bl	25c5a <__aeabi_memcpy>
   21318:	4628      	mov	r0, r5
   2131a:	4631      	mov	r1, r6
   2131c:	4622      	mov	r2, r4
   2131e:	4623      	mov	r3, r4
   21320:	df03      	svc	3
   21322:	4628      	mov	r0, r5
   21324:	4631      	mov	r1, r6
   21326:	4622      	mov	r2, r4
   21328:	4623      	mov	r3, r4
   2132a:	df04      	svc	4
   2132c:	4d20      	ldr	r5, [pc, #128]	@ (213b0 <_start+0x12cc>)
   2132e:	446d      	add	r5, sp
   21330:	1de8      	adds	r0, r5, #7
   21332:	990b      	ldr	r1, [sp, #44]	@ 0x2c
   21334:	9a0a      	ldr	r2, [sp, #40]	@ 0x28
   21336:	f004 fc90 	bl	25c5a <__aeabi_memcpy>
   2133a:	980c      	ldr	r0, [sp, #48]	@ 0x30
   2133c:	71a8      	strb	r0, [r5, #6]
   2133e:	980d      	ldr	r0, [sp, #52]	@ 0x34
   21340:	7168      	strb	r0, [r5, #5]
   21342:	9810      	ldr	r0, [sp, #64]	@ 0x40
   21344:	7128      	strb	r0, [r5, #4]
   21346:	9811      	ldr	r0, [sp, #68]	@ 0x44
   21348:	70e8      	strb	r0, [r5, #3]
   2134a:	9849      	ldr	r0, [sp, #292]	@ 0x124
   2134c:	8028      	strh	r0, [r5, #0]
   2134e:	9816      	ldr	r0, [sp, #88]	@ 0x58
   21350:	7880      	ldrb	r0, [r0, #2]
   21352:	70a8      	strb	r0, [r5, #2]
   21354:	4817      	ldr	r0, [pc, #92]	@ (213b4 <_start+0x12d0>)
   21356:	4468      	add	r0, sp
   21358:	2134      	movs	r1, #52	@ 0x34
   2135a:	f004 fc31 	bl	25bc0 <__aeabi_memclr4>
   2135e:	2097      	movs	r0, #151	@ 0x97
   21360:	0044      	lsls	r4, r0, #1
   21362:	2108      	movs	r1, #8
   21364:	2338      	movs	r3, #56	@ 0x38
   21366:	4620      	mov	r0, r4
   21368:	462a      	mov	r2, r5
   2136a:	df04      	svc	4
   2136c:	9116      	str	r1, [sp, #88]	@ 0x58
   2136e:	2802      	cmp	r0, #2
   21370:	d010      	beq.n	21394 <_start+0x12b0>
   21372:	2103      	movs	r1, #3
   21374:	4a0f      	ldr	r2, [pc, #60]	@ (213b4 <_start+0x12d0>)
   21376:	446a      	add	r2, sp
   21378:	2334      	movs	r3, #52	@ 0x34
   2137a:	4620      	mov	r0, r4
   2137c:	df03      	svc	3
   2137e:	9116      	str	r1, [sp, #88]	@ 0x58
   21380:	2802      	cmp	r0, #2
   21382:	d007      	beq.n	21394 <_start+0x12b0>
   21384:	2108      	movs	r1, #8
   21386:	2203      	movs	r2, #3
   21388:	2300      	movs	r3, #0
   2138a:	4620      	mov	r0, r4
   2138c:	df02      	svc	2
   2138e:	9116      	str	r1, [sp, #88]	@ 0x58
   21390:	287f      	cmp	r0, #127	@ 0x7f
   21392:	d819      	bhi.n	213c8 <_start+0x12e4>
   21394:	2103      	movs	r1, #3
   21396:	2500      	movs	r5, #0
   21398:	4620      	mov	r0, r4
   2139a:	462a      	mov	r2, r5
   2139c:	462b      	mov	r3, r5
   2139e:	df03      	svc	3
   213a0:	2108      	movs	r1, #8
   213a2:	4620      	mov	r0, r4
   213a4:	462a      	mov	r2, r5
   213a6:	462b      	mov	r3, r5
   213a8:	df04      	svc	4
   213aa:	f7fe feec 	bl	20186 <_start+0xa2>
   213ae:	46c0      	nop			@ (mov r8, r8)
   213b0:	000006e8 	.word	0x000006e8
   213b4:	00000684 	.word	0x00000684
   213b8:	000023c6 	.word	0x000023c6
   213bc:	000005b8 	.word	0x000005b8
   213c0:	00000209 	.word	0x00000209
   213c4:	00000a9d 	.word	0x00000a9d
   213c8:	2603      	movs	r6, #3
   213ca:	2500      	movs	r5, #0
   213cc:	4620      	mov	r0, r4
   213ce:	4631      	mov	r1, r6
   213d0:	462a      	mov	r2, r5
   213d2:	462b      	mov	r3, r5
   213d4:	df03      	svc	3
   213d6:	4620      	mov	r0, r4
   213d8:	4631      	mov	r1, r6
   213da:	462a      	mov	r2, r5
   213dc:	462b      	mov	r3, r5
   213de:	df03      	svc	3
   213e0:	aa4a      	add	r2, sp, #296	@ 0x128
   213e2:	9216      	str	r2, [sp, #88]	@ 0x58
   213e4:	9815      	ldr	r0, [sp, #84]	@ 0x54
   213e6:	6800      	ldr	r0, [r0, #0]
   213e8:	8010      	strh	r0, [r2, #0]
   213ea:	48d6      	ldr	r0, [pc, #856]	@ (21744 <_start+0x1660>)
   213ec:	4468      	add	r0, sp
   213ee:	7881      	ldrb	r1, [r0, #2]
   213f0:	7091      	strb	r1, [r2, #2]
   213f2:	78c1      	ldrb	r1, [r0, #3]
   213f4:	9111      	str	r1, [sp, #68]	@ 0x44
   213f6:	7901      	ldrb	r1, [r0, #4]
   213f8:	9110      	str	r1, [sp, #64]	@ 0x40
   213fa:	7941      	ldrb	r1, [r0, #5]
   213fc:	910d      	str	r1, [sp, #52]	@ 0x34
   213fe:	7981      	ldrb	r1, [r0, #6]
   21400:	910c      	str	r1, [sp, #48]	@ 0x30
   21402:	1dc1      	adds	r1, r0, #7
   21404:	48d0      	ldr	r0, [pc, #832]	@ (21748 <_start+0x1664>)
   21406:	4468      	add	r0, sp
   21408:	900b      	str	r0, [sp, #44]	@ 0x2c
   2140a:	222d      	movs	r2, #45	@ 0x2d
   2140c:	920a      	str	r2, [sp, #40]	@ 0x28
   2140e:	f004 fc24 	bl	25c5a <__aeabi_memcpy>
   21412:	4620      	mov	r0, r4
   21414:	4631      	mov	r1, r6
   21416:	462a      	mov	r2, r5
   21418:	462b      	mov	r3, r5
   2141a:	df03      	svc	3
   2141c:	2108      	movs	r1, #8
   2141e:	4620      	mov	r0, r4
   21420:	462a      	mov	r2, r5
   21422:	462b      	mov	r3, r5
   21424:	df04      	svc	4
   21426:	4cc9      	ldr	r4, [pc, #804]	@ (2174c <_start+0x1668>)
   21428:	446c      	add	r4, sp
   2142a:	1de0      	adds	r0, r4, #7
   2142c:	990b      	ldr	r1, [sp, #44]	@ 0x2c
   2142e:	9a0a      	ldr	r2, [sp, #40]	@ 0x28
   21430:	f004 fc13 	bl	25c5a <__aeabi_memcpy>
   21434:	980c      	ldr	r0, [sp, #48]	@ 0x30
   21436:	71a0      	strb	r0, [r4, #6]
   21438:	980d      	ldr	r0, [sp, #52]	@ 0x34
   2143a:	7160      	strb	r0, [r4, #5]
   2143c:	9810      	ldr	r0, [sp, #64]	@ 0x40
   2143e:	7120      	strb	r0, [r4, #4]
   21440:	9811      	ldr	r0, [sp, #68]	@ 0x44
   21442:	70e0      	strb	r0, [r4, #3]
   21444:	984a      	ldr	r0, [sp, #296]	@ 0x128
   21446:	8020      	strh	r0, [r4, #0]
   21448:	9816      	ldr	r0, [sp, #88]	@ 0x58
   2144a:	7880      	ldrb	r0, [r0, #2]
   2144c:	70a0      	strb	r0, [r4, #2]
   2144e:	48bd      	ldr	r0, [pc, #756]	@ (21744 <_start+0x1660>)
   21450:	4468      	add	r0, sp
   21452:	211a      	movs	r1, #26
   21454:	f004 fbb4 	bl	25bc0 <__aeabi_memclr4>
   21458:	48bd      	ldr	r0, [pc, #756]	@ (21750 <_start+0x166c>)
   2145a:	2334      	movs	r3, #52	@ 0x34
   2145c:	4629      	mov	r1, r5
   2145e:	4622      	mov	r2, r4
   21460:	df04      	svc	4
   21462:	9116      	str	r1, [sp, #88]	@ 0x58
   21464:	2802      	cmp	r0, #2
   21466:	d010      	beq.n	2148a <_start+0x13a6>
   21468:	48b9      	ldr	r0, [pc, #740]	@ (21750 <_start+0x166c>)
   2146a:	2105      	movs	r1, #5
   2146c:	4ab5      	ldr	r2, [pc, #724]	@ (21744 <_start+0x1660>)
   2146e:	446a      	add	r2, sp
   21470:	231a      	movs	r3, #26
   21472:	df03      	svc	3
   21474:	9116      	str	r1, [sp, #88]	@ 0x58
   21476:	2802      	cmp	r0, #2
   21478:	d007      	beq.n	2148a <_start+0x13a6>
   2147a:	48b5      	ldr	r0, [pc, #724]	@ (21750 <_start+0x166c>)
   2147c:	2205      	movs	r2, #5
   2147e:	2100      	movs	r1, #0
   21480:	460b      	mov	r3, r1
   21482:	df02      	svc	2
   21484:	9116      	str	r1, [sp, #88]	@ 0x58
   21486:	287f      	cmp	r0, #127	@ 0x7f
   21488:	d80d      	bhi.n	214a6 <_start+0x13c2>
   2148a:	4cb1      	ldr	r4, [pc, #708]	@ (21750 <_start+0x166c>)
   2148c:	2105      	movs	r1, #5
   2148e:	2500      	movs	r5, #0
   21490:	4620      	mov	r0, r4
   21492:	462a      	mov	r2, r5
   21494:	462b      	mov	r3, r5
   21496:	df03      	svc	3
   21498:	4620      	mov	r0, r4
   2149a:	4629      	mov	r1, r5
   2149c:	462a      	mov	r2, r5
   2149e:	462b      	mov	r3, r5
   214a0:	df04      	svc	4
   214a2:	f7fe fe70 	bl	20186 <_start+0xa2>
   214a6:	4daa      	ldr	r5, [pc, #680]	@ (21750 <_start+0x166c>)
   214a8:	2605      	movs	r6, #5
   214aa:	2400      	movs	r4, #0
   214ac:	4628      	mov	r0, r5
   214ae:	4631      	mov	r1, r6
   214b0:	4622      	mov	r2, r4
   214b2:	4623      	mov	r3, r4
   214b4:	df03      	svc	3
   214b6:	4628      	mov	r0, r5
   214b8:	4631      	mov	r1, r6
   214ba:	4622      	mov	r2, r4
   214bc:	4623      	mov	r3, r4
   214be:	df03      	svc	3
   214c0:	aa4b      	add	r2, sp, #300	@ 0x12c
   214c2:	9216      	str	r2, [sp, #88]	@ 0x58
   214c4:	9815      	ldr	r0, [sp, #84]	@ 0x54
   214c6:	6800      	ldr	r0, [r0, #0]
   214c8:	8010      	strh	r0, [r2, #0]
   214ca:	489e      	ldr	r0, [pc, #632]	@ (21744 <_start+0x1660>)
   214cc:	4468      	add	r0, sp
   214ce:	7881      	ldrb	r1, [r0, #2]
   214d0:	7091      	strb	r1, [r2, #2]
   214d2:	78c1      	ldrb	r1, [r0, #3]
   214d4:	9111      	str	r1, [sp, #68]	@ 0x44
   214d6:	7901      	ldrb	r1, [r0, #4]
   214d8:	9110      	str	r1, [sp, #64]	@ 0x40
   214da:	7941      	ldrb	r1, [r0, #5]
   214dc:	910d      	str	r1, [sp, #52]	@ 0x34
   214de:	7981      	ldrb	r1, [r0, #6]
   214e0:	910c      	str	r1, [sp, #48]	@ 0x30
   214e2:	1dc1      	adds	r1, r0, #7
   214e4:	adfa      	add	r5, sp, #1000	@ 0x3e8
   214e6:	2213      	movs	r2, #19
   214e8:	920b      	str	r2, [sp, #44]	@ 0x2c
   214ea:	4628      	mov	r0, r5
   214ec:	f004 fbb5 	bl	25c5a <__aeabi_memcpy>
   214f0:	4897      	ldr	r0, [pc, #604]	@ (21750 <_start+0x166c>)
   214f2:	4631      	mov	r1, r6
   214f4:	4622      	mov	r2, r4
   214f6:	4623      	mov	r3, r4
   214f8:	df03      	svc	3
   214fa:	4895      	ldr	r0, [pc, #596]	@ (21750 <_start+0x166c>)
   214fc:	4621      	mov	r1, r4
   214fe:	4622      	mov	r2, r4
   21500:	4623      	mov	r3, r4
   21502:	df04      	svc	4
   21504:	4c90      	ldr	r4, [pc, #576]	@ (21748 <_start+0x1664>)
   21506:	446c      	add	r4, sp
   21508:	1de0      	adds	r0, r4, #7
   2150a:	4629      	mov	r1, r5
   2150c:	9a0b      	ldr	r2, [sp, #44]	@ 0x2c
   2150e:	f004 fba4 	bl	25c5a <__aeabi_memcpy>
   21512:	980c      	ldr	r0, [sp, #48]	@ 0x30
   21514:	71a0      	strb	r0, [r4, #6]
   21516:	980d      	ldr	r0, [sp, #52]	@ 0x34
   21518:	7160      	strb	r0, [r4, #5]
   2151a:	9810      	ldr	r0, [sp, #64]	@ 0x40
   2151c:	7120      	strb	r0, [r4, #4]
   2151e:	9811      	ldr	r0, [sp, #68]	@ 0x44
   21520:	70e0      	strb	r0, [r4, #3]
   21522:	984b      	ldr	r0, [sp, #300]	@ 0x12c
   21524:	8020      	strh	r0, [r4, #0]
   21526:	9816      	ldr	r0, [sp, #88]	@ 0x58
   21528:	7880      	ldrb	r0, [r0, #2]
   2152a:	70a0      	strb	r0, [r4, #2]
   2152c:	4887      	ldr	r0, [pc, #540]	@ (2174c <_start+0x1668>)
   2152e:	4468      	add	r0, sp
   21530:	2150      	movs	r1, #80	@ 0x50
   21532:	f004 fb45 	bl	25bc0 <__aeabi_memclr4>
   21536:	4887      	ldr	r0, [pc, #540]	@ (21754 <_start+0x1670>)
   21538:	2107      	movs	r1, #7
   2153a:	231a      	movs	r3, #26
   2153c:	4622      	mov	r2, r4
   2153e:	df04      	svc	4
   21540:	9116      	str	r1, [sp, #88]	@ 0x58
   21542:	2802      	cmp	r0, #2
   21544:	d010      	beq.n	21568 <_start+0x1484>
   21546:	4883      	ldr	r0, [pc, #524]	@ (21754 <_start+0x1670>)
   21548:	2104      	movs	r1, #4
   2154a:	4a80      	ldr	r2, [pc, #512]	@ (2174c <_start+0x1668>)
   2154c:	446a      	add	r2, sp
   2154e:	2350      	movs	r3, #80	@ 0x50
   21550:	df03      	svc	3
   21552:	9116      	str	r1, [sp, #88]	@ 0x58
   21554:	2802      	cmp	r0, #2
   21556:	d007      	beq.n	21568 <_start+0x1484>
   21558:	487e      	ldr	r0, [pc, #504]	@ (21754 <_start+0x1670>)
   2155a:	2107      	movs	r1, #7
   2155c:	2204      	movs	r2, #4
   2155e:	2300      	movs	r3, #0
   21560:	df02      	svc	2
   21562:	9116      	str	r1, [sp, #88]	@ 0x58
   21564:	287f      	cmp	r0, #127	@ 0x7f
   21566:	d80d      	bhi.n	21584 <_start+0x14a0>
   21568:	4c7a      	ldr	r4, [pc, #488]	@ (21754 <_start+0x1670>)
   2156a:	2104      	movs	r1, #4
   2156c:	2500      	movs	r5, #0
   2156e:	4620      	mov	r0, r4
   21570:	462a      	mov	r2, r5
   21572:	462b      	mov	r3, r5
   21574:	df03      	svc	3
   21576:	2107      	movs	r1, #7
   21578:	4620      	mov	r0, r4
   2157a:	462a      	mov	r2, r5
   2157c:	462b      	mov	r3, r5
   2157e:	df04      	svc	4
   21580:	f7fe fe01 	bl	20186 <_start+0xa2>
   21584:	4d73      	ldr	r5, [pc, #460]	@ (21754 <_start+0x1670>)
   21586:	2604      	movs	r6, #4
   21588:	2400      	movs	r4, #0
   2158a:	4628      	mov	r0, r5
   2158c:	4631      	mov	r1, r6
   2158e:	4622      	mov	r2, r4
   21590:	4623      	mov	r3, r4
   21592:	df03      	svc	3
   21594:	4628      	mov	r0, r5
   21596:	4631      	mov	r1, r6
   21598:	4622      	mov	r2, r4
   2159a:	4623      	mov	r3, r4
   2159c:	df03      	svc	3
   2159e:	aa4c      	add	r2, sp, #304	@ 0x130
   215a0:	9216      	str	r2, [sp, #88]	@ 0x58
   215a2:	9815      	ldr	r0, [sp, #84]	@ 0x54
   215a4:	6e40      	ldr	r0, [r0, #100]	@ 0x64
   215a6:	8010      	strh	r0, [r2, #0]
   215a8:	4868      	ldr	r0, [pc, #416]	@ (2174c <_start+0x1668>)
   215aa:	4468      	add	r0, sp
   215ac:	7881      	ldrb	r1, [r0, #2]
   215ae:	7091      	strb	r1, [r2, #2]
   215b0:	78c1      	ldrb	r1, [r0, #3]
   215b2:	9111      	str	r1, [sp, #68]	@ 0x44
   215b4:	7901      	ldrb	r1, [r0, #4]
   215b6:	9110      	str	r1, [sp, #64]	@ 0x40
   215b8:	7941      	ldrb	r1, [r0, #5]
   215ba:	910d      	str	r1, [sp, #52]	@ 0x34
   215bc:	7981      	ldrb	r1, [r0, #6]
   215be:	910c      	str	r1, [sp, #48]	@ 0x30
   215c0:	1dc1      	adds	r1, r0, #7
   215c2:	4d60      	ldr	r5, [pc, #384]	@ (21744 <_start+0x1660>)
   215c4:	446d      	add	r5, sp
   215c6:	2249      	movs	r2, #73	@ 0x49
   215c8:	920b      	str	r2, [sp, #44]	@ 0x2c
   215ca:	4628      	mov	r0, r5
   215cc:	f004 fb45 	bl	25c5a <__aeabi_memcpy>
   215d0:	4860      	ldr	r0, [pc, #384]	@ (21754 <_start+0x1670>)
   215d2:	4631      	mov	r1, r6
   215d4:	4622      	mov	r2, r4
   215d6:	4623      	mov	r3, r4
   215d8:	df03      	svc	3
   215da:	2107      	movs	r1, #7
   215dc:	485d      	ldr	r0, [pc, #372]	@ (21754 <_start+0x1670>)
   215de:	4622      	mov	r2, r4
   215e0:	4623      	mov	r3, r4
   215e2:	df04      	svc	4
   215e4:	4c59      	ldr	r4, [pc, #356]	@ (2174c <_start+0x1668>)
   215e6:	446c      	add	r4, sp
   215e8:	1de0      	adds	r0, r4, #7
   215ea:	4629      	mov	r1, r5
   215ec:	9a0b      	ldr	r2, [sp, #44]	@ 0x2c
   215ee:	f004 fb34 	bl	25c5a <__aeabi_memcpy>
   215f2:	980c      	ldr	r0, [sp, #48]	@ 0x30
   215f4:	71a0      	strb	r0, [r4, #6]
   215f6:	980d      	ldr	r0, [sp, #52]	@ 0x34
   215f8:	7160      	strb	r0, [r4, #5]
   215fa:	9810      	ldr	r0, [sp, #64]	@ 0x40
   215fc:	7120      	strb	r0, [r4, #4]
   215fe:	9811      	ldr	r0, [sp, #68]	@ 0x44
   21600:	70e0      	strb	r0, [r4, #3]
   21602:	984c      	ldr	r0, [sp, #304]	@ 0x130
   21604:	8020      	strh	r0, [r4, #0]
   21606:	9816      	ldr	r0, [sp, #88]	@ 0x58
   21608:	7880      	ldrb	r0, [r0, #2]
   2160a:	70a0      	strb	r0, [r4, #2]
   2160c:	484d      	ldr	r0, [pc, #308]	@ (21744 <_start+0x1660>)
   2160e:	4468      	add	r0, sp
   21610:	213c      	movs	r1, #60	@ 0x3c
   21612:	f004 fad5 	bl	25bc0 <__aeabi_memclr4>
   21616:	4850      	ldr	r0, [pc, #320]	@ (21758 <_start+0x1674>)
   21618:	2103      	movs	r1, #3
   2161a:	2350      	movs	r3, #80	@ 0x50
   2161c:	4622      	mov	r2, r4
   2161e:	df04      	svc	4
   21620:	9116      	str	r1, [sp, #88]	@ 0x58
   21622:	2802      	cmp	r0, #2
   21624:	d010      	beq.n	21648 <_start+0x1564>
   21626:	484c      	ldr	r0, [pc, #304]	@ (21758 <_start+0x1674>)
   21628:	2109      	movs	r1, #9
   2162a:	4a46      	ldr	r2, [pc, #280]	@ (21744 <_start+0x1660>)
   2162c:	446a      	add	r2, sp
   2162e:	233c      	movs	r3, #60	@ 0x3c
   21630:	df03      	svc	3
   21632:	9116      	str	r1, [sp, #88]	@ 0x58
   21634:	2802      	cmp	r0, #2
   21636:	d007      	beq.n	21648 <_start+0x1564>
   21638:	4847      	ldr	r0, [pc, #284]	@ (21758 <_start+0x1674>)
   2163a:	2103      	movs	r1, #3
   2163c:	2209      	movs	r2, #9
   2163e:	2300      	movs	r3, #0
   21640:	df02      	svc	2
   21642:	9116      	str	r1, [sp, #88]	@ 0x58
   21644:	287f      	cmp	r0, #127	@ 0x7f
   21646:	d80d      	bhi.n	21664 <_start+0x1580>
   21648:	4c43      	ldr	r4, [pc, #268]	@ (21758 <_start+0x1674>)
   2164a:	2109      	movs	r1, #9
   2164c:	2500      	movs	r5, #0
   2164e:	4620      	mov	r0, r4
   21650:	462a      	mov	r2, r5
   21652:	462b      	mov	r3, r5
   21654:	df03      	svc	3
   21656:	2103      	movs	r1, #3
   21658:	4620      	mov	r0, r4
   2165a:	462a      	mov	r2, r5
   2165c:	462b      	mov	r3, r5
   2165e:	df04      	svc	4
   21660:	f7fe fd91 	bl	20186 <_start+0xa2>
   21664:	4d3c      	ldr	r5, [pc, #240]	@ (21758 <_start+0x1674>)
   21666:	2609      	movs	r6, #9
   21668:	2400      	movs	r4, #0
   2166a:	4628      	mov	r0, r5
   2166c:	4631      	mov	r1, r6
   2166e:	4622      	mov	r2, r4
   21670:	4623      	mov	r3, r4
   21672:	df03      	svc	3
   21674:	4628      	mov	r0, r5
   21676:	4631      	mov	r1, r6
   21678:	4622      	mov	r2, r4
   2167a:	4623      	mov	r3, r4
   2167c:	df03      	svc	3
   2167e:	aa4d      	add	r2, sp, #308	@ 0x134
   21680:	9216      	str	r2, [sp, #88]	@ 0x58
   21682:	9815      	ldr	r0, [sp, #84]	@ 0x54
   21684:	6800      	ldr	r0, [r0, #0]
   21686:	8010      	strh	r0, [r2, #0]
   21688:	482e      	ldr	r0, [pc, #184]	@ (21744 <_start+0x1660>)
   2168a:	4468      	add	r0, sp
   2168c:	7881      	ldrb	r1, [r0, #2]
   2168e:	7091      	strb	r1, [r2, #2]
   21690:	78c1      	ldrb	r1, [r0, #3]
   21692:	9111      	str	r1, [sp, #68]	@ 0x44
   21694:	7901      	ldrb	r1, [r0, #4]
   21696:	9110      	str	r1, [sp, #64]	@ 0x40
   21698:	7941      	ldrb	r1, [r0, #5]
   2169a:	910d      	str	r1, [sp, #52]	@ 0x34
   2169c:	7981      	ldrb	r1, [r0, #6]
   2169e:	910c      	str	r1, [sp, #48]	@ 0x30
   216a0:	1dc1      	adds	r1, r0, #7
   216a2:	4d29      	ldr	r5, [pc, #164]	@ (21748 <_start+0x1664>)
   216a4:	446d      	add	r5, sp
   216a6:	2235      	movs	r2, #53	@ 0x35
   216a8:	920b      	str	r2, [sp, #44]	@ 0x2c
   216aa:	4628      	mov	r0, r5
   216ac:	f004 fad5 	bl	25c5a <__aeabi_memcpy>
   216b0:	4829      	ldr	r0, [pc, #164]	@ (21758 <_start+0x1674>)
   216b2:	4631      	mov	r1, r6
   216b4:	4622      	mov	r2, r4
   216b6:	4623      	mov	r3, r4
   216b8:	df03      	svc	3
   216ba:	2103      	movs	r1, #3
   216bc:	4826      	ldr	r0, [pc, #152]	@ (21758 <_start+0x1674>)
   216be:	4622      	mov	r2, r4
   216c0:	4623      	mov	r3, r4
   216c2:	df04      	svc	4
   216c4:	4c21      	ldr	r4, [pc, #132]	@ (2174c <_start+0x1668>)
   216c6:	446c      	add	r4, sp
   216c8:	1de0      	adds	r0, r4, #7
   216ca:	4629      	mov	r1, r5
   216cc:	9a0b      	ldr	r2, [sp, #44]	@ 0x2c
   216ce:	f004 fac4 	bl	25c5a <__aeabi_memcpy>
   216d2:	980c      	ldr	r0, [sp, #48]	@ 0x30
   216d4:	71a0      	strb	r0, [r4, #6]
   216d6:	980d      	ldr	r0, [sp, #52]	@ 0x34
   216d8:	7160      	strb	r0, [r4, #5]
   216da:	9810      	ldr	r0, [sp, #64]	@ 0x40
   216dc:	7120      	strb	r0, [r4, #4]
   216de:	9811      	ldr	r0, [sp, #68]	@ 0x44
   216e0:	70e0      	strb	r0, [r4, #3]
   216e2:	984d      	ldr	r0, [sp, #308]	@ 0x134
   216e4:	8020      	strh	r0, [r4, #0]
   216e6:	9816      	ldr	r0, [sp, #88]	@ 0x58
   216e8:	7880      	ldrb	r0, [r0, #2]
   216ea:	70a0      	strb	r0, [r4, #2]
   216ec:	4815      	ldr	r0, [pc, #84]	@ (21744 <_start+0x1660>)
   216ee:	4468      	add	r0, sp
   216f0:	2132      	movs	r1, #50	@ 0x32
   216f2:	f004 fa65 	bl	25bc0 <__aeabi_memclr4>
   216f6:	4819      	ldr	r0, [pc, #100]	@ (2175c <_start+0x1678>)
   216f8:	2106      	movs	r1, #6
   216fa:	233c      	movs	r3, #60	@ 0x3c
   216fc:	4622      	mov	r2, r4
   216fe:	df04      	svc	4
   21700:	9116      	str	r1, [sp, #88]	@ 0x58
   21702:	2802      	cmp	r0, #2
   21704:	d010      	beq.n	21728 <_start+0x1644>
   21706:	4815      	ldr	r0, [pc, #84]	@ (2175c <_start+0x1678>)
   21708:	2108      	movs	r1, #8
   2170a:	4a0e      	ldr	r2, [pc, #56]	@ (21744 <_start+0x1660>)
   2170c:	446a      	add	r2, sp
   2170e:	2332      	movs	r3, #50	@ 0x32
   21710:	df03      	svc	3
   21712:	9116      	str	r1, [sp, #88]	@ 0x58
   21714:	2802      	cmp	r0, #2
   21716:	d007      	beq.n	21728 <_start+0x1644>
   21718:	4810      	ldr	r0, [pc, #64]	@ (2175c <_start+0x1678>)
   2171a:	2106      	movs	r1, #6
   2171c:	2208      	movs	r2, #8
   2171e:	2300      	movs	r3, #0
   21720:	df02      	svc	2
   21722:	9116      	str	r1, [sp, #88]	@ 0x58
   21724:	287f      	cmp	r0, #127	@ 0x7f
   21726:	d81b      	bhi.n	21760 <_start+0x167c>
   21728:	4c0c      	ldr	r4, [pc, #48]	@ (2175c <_start+0x1678>)
   2172a:	2108      	movs	r1, #8
   2172c:	2500      	movs	r5, #0
   2172e:	4620      	mov	r0, r4
   21730:	462a      	mov	r2, r5
   21732:	462b      	mov	r3, r5
   21734:	df03      	svc	3
   21736:	2106      	movs	r1, #6
   21738:	4620      	mov	r0, r4
   2173a:	462a      	mov	r2, r5
   2173c:	462b      	mov	r3, r5
   2173e:	df04      	svc	4
   21740:	f7fe fd21 	bl	20186 <_start+0xa2>
   21744:	00000684 	.word	0x00000684
   21748:	000005b8 	.word	0x000005b8
   2174c:	000006e8 	.word	0x000006e8
   21750:	000012cc 	.word	0x000012cc
   21754:	00000aee 	.word	0x00000aee
   21758:	00000d7a 	.word	0x00000d7a
   2175c:	00001b1e 	.word	0x00001b1e
   21760:	4da8      	ldr	r5, [pc, #672]	@ (21a04 <_start+0x1920>)
   21762:	2608      	movs	r6, #8
   21764:	2400      	movs	r4, #0
   21766:	4628      	mov	r0, r5
   21768:	4631      	mov	r1, r6
   2176a:	4622      	mov	r2, r4
   2176c:	4623      	mov	r3, r4
   2176e:	df03      	svc	3
   21770:	4628      	mov	r0, r5
   21772:	4631      	mov	r1, r6
   21774:	4622      	mov	r2, r4
   21776:	4623      	mov	r3, r4
   21778:	df03      	svc	3
   2177a:	aa4e      	add	r2, sp, #312	@ 0x138
   2177c:	9216      	str	r2, [sp, #88]	@ 0x58
   2177e:	9815      	ldr	r0, [sp, #84]	@ 0x54
   21780:	6800      	ldr	r0, [r0, #0]
   21782:	8010      	strh	r0, [r2, #0]
   21784:	48a0      	ldr	r0, [pc, #640]	@ (21a08 <_start+0x1924>)
   21786:	4468      	add	r0, sp
   21788:	7881      	ldrb	r1, [r0, #2]
   2178a:	7091      	strb	r1, [r2, #2]
   2178c:	78c1      	ldrb	r1, [r0, #3]
   2178e:	9111      	str	r1, [sp, #68]	@ 0x44
   21790:	7901      	ldrb	r1, [r0, #4]
   21792:	9110      	str	r1, [sp, #64]	@ 0x40
   21794:	7941      	ldrb	r1, [r0, #5]
   21796:	910d      	str	r1, [sp, #52]	@ 0x34
   21798:	7981      	ldrb	r1, [r0, #6]
   2179a:	910c      	str	r1, [sp, #48]	@ 0x30
   2179c:	1dc1      	adds	r1, r0, #7
   2179e:	4d9b      	ldr	r5, [pc, #620]	@ (21a0c <_start+0x1928>)
   217a0:	446d      	add	r5, sp
   217a2:	222b      	movs	r2, #43	@ 0x2b
   217a4:	920b      	str	r2, [sp, #44]	@ 0x2c
   217a6:	4628      	mov	r0, r5
   217a8:	f004 fa57 	bl	25c5a <__aeabi_memcpy>
   217ac:	4895      	ldr	r0, [pc, #596]	@ (21a04 <_start+0x1920>)
   217ae:	4631      	mov	r1, r6
   217b0:	4622      	mov	r2, r4
   217b2:	4623      	mov	r3, r4
   217b4:	df03      	svc	3
   217b6:	2106      	movs	r1, #6
   217b8:	4892      	ldr	r0, [pc, #584]	@ (21a04 <_start+0x1920>)
   217ba:	4622      	mov	r2, r4
   217bc:	4623      	mov	r3, r4
   217be:	df04      	svc	4
   217c0:	4c91      	ldr	r4, [pc, #580]	@ (21a08 <_start+0x1924>)
   217c2:	446c      	add	r4, sp
   217c4:	1de0      	adds	r0, r4, #7
   217c6:	4629      	mov	r1, r5
   217c8:	9a0b      	ldr	r2, [sp, #44]	@ 0x2c
   217ca:	f004 fa46 	bl	25c5a <__aeabi_memcpy>
   217ce:	980c      	ldr	r0, [sp, #48]	@ 0x30
   217d0:	71a0      	strb	r0, [r4, #6]
   217d2:	980d      	ldr	r0, [sp, #52]	@ 0x34
   217d4:	7160      	strb	r0, [r4, #5]
   217d6:	9810      	ldr	r0, [sp, #64]	@ 0x40
   217d8:	7120      	strb	r0, [r4, #4]
   217da:	9811      	ldr	r0, [sp, #68]	@ 0x44
   217dc:	70e0      	strb	r0, [r4, #3]
   217de:	984e      	ldr	r0, [sp, #312]	@ 0x138
   217e0:	8020      	strh	r0, [r4, #0]
   217e2:	9816      	ldr	r0, [sp, #88]	@ 0x58
   217e4:	7880      	ldrb	r0, [r0, #2]
   217e6:	70a0      	strb	r0, [r4, #2]
   217e8:	4889      	ldr	r0, [pc, #548]	@ (21a10 <_start+0x192c>)
   217ea:	4468      	add	r0, sp
   217ec:	2532      	movs	r5, #50	@ 0x32
   217ee:	4629      	mov	r1, r5
   217f0:	f004 f9e6 	bl	25bc0 <__aeabi_memclr4>
   217f4:	4887      	ldr	r0, [pc, #540]	@ (21a14 <_start+0x1930>)
   217f6:	2103      	movs	r1, #3
   217f8:	4622      	mov	r2, r4
   217fa:	462b      	mov	r3, r5
   217fc:	df04      	svc	4
   217fe:	9116      	str	r1, [sp, #88]	@ 0x58
   21800:	2802      	cmp	r0, #2
   21802:	d011      	beq.n	21828 <_start+0x1744>
   21804:	4883      	ldr	r0, [pc, #524]	@ (21a14 <_start+0x1930>)
   21806:	2101      	movs	r1, #1
   21808:	4a81      	ldr	r2, [pc, #516]	@ (21a10 <_start+0x192c>)
   2180a:	446a      	add	r2, sp
   2180c:	2332      	movs	r3, #50	@ 0x32
   2180e:	df03      	svc	3
   21810:	9116      	str	r1, [sp, #88]	@ 0x58
   21812:	2802      	cmp	r0, #2
   21814:	d008      	beq.n	21828 <_start+0x1744>
   21816:	487f      	ldr	r0, [pc, #508]	@ (21a14 <_start+0x1930>)
   21818:	2103      	movs	r1, #3
   2181a:	2201      	movs	r2, #1
   2181c:	2600      	movs	r6, #0
   2181e:	4633      	mov	r3, r6
   21820:	df02      	svc	2
   21822:	9116      	str	r1, [sp, #88]	@ 0x58
   21824:	287f      	cmp	r0, #127	@ 0x7f
   21826:	d80e      	bhi.n	21846 <_start+0x1762>
   21828:	4d7a      	ldr	r5, [pc, #488]	@ (21a14 <_start+0x1930>)
   2182a:	2401      	movs	r4, #1
   2182c:	2600      	movs	r6, #0
   2182e:	4628      	mov	r0, r5
   21830:	4621      	mov	r1, r4
   21832:	4632      	mov	r2, r6
   21834:	4633      	mov	r3, r6
   21836:	df03      	svc	3
   21838:	2103      	movs	r1, #3
   2183a:	4628      	mov	r0, r5
   2183c:	4632      	mov	r2, r6
   2183e:	4633      	mov	r3, r6
   21840:	df04      	svc	4
   21842:	f7fe fca1 	bl	20188 <_start+0xa4>
   21846:	4d73      	ldr	r5, [pc, #460]	@ (21a14 <_start+0x1930>)
   21848:	2401      	movs	r4, #1
   2184a:	4628      	mov	r0, r5
   2184c:	4621      	mov	r1, r4
   2184e:	4632      	mov	r2, r6
   21850:	4633      	mov	r3, r6
   21852:	df03      	svc	3
   21854:	4628      	mov	r0, r5
   21856:	4621      	mov	r1, r4
   21858:	4632      	mov	r2, r6
   2185a:	4633      	mov	r3, r6
   2185c:	df03      	svc	3
   2185e:	aa4f      	add	r2, sp, #316	@ 0x13c
   21860:	9216      	str	r2, [sp, #88]	@ 0x58
   21862:	9815      	ldr	r0, [sp, #84]	@ 0x54
   21864:	6e40      	ldr	r0, [r0, #100]	@ 0x64
   21866:	8010      	strh	r0, [r2, #0]
   21868:	4869      	ldr	r0, [pc, #420]	@ (21a10 <_start+0x192c>)
   2186a:	4468      	add	r0, sp
   2186c:	7881      	ldrb	r1, [r0, #2]
   2186e:	7091      	strb	r1, [r2, #2]
   21870:	78c1      	ldrb	r1, [r0, #3]
   21872:	9111      	str	r1, [sp, #68]	@ 0x44
   21874:	7901      	ldrb	r1, [r0, #4]
   21876:	9110      	str	r1, [sp, #64]	@ 0x40
   21878:	7941      	ldrb	r1, [r0, #5]
   2187a:	910d      	str	r1, [sp, #52]	@ 0x34
   2187c:	7981      	ldrb	r1, [r0, #6]
   2187e:	910c      	str	r1, [sp, #48]	@ 0x30
   21880:	1dc1      	adds	r1, r0, #7
   21882:	4862      	ldr	r0, [pc, #392]	@ (21a0c <_start+0x1928>)
   21884:	4468      	add	r0, sp
   21886:	900b      	str	r0, [sp, #44]	@ 0x2c
   21888:	222b      	movs	r2, #43	@ 0x2b
   2188a:	920a      	str	r2, [sp, #40]	@ 0x28
   2188c:	f004 f9e5 	bl	25c5a <__aeabi_memcpy>
   21890:	4628      	mov	r0, r5
   21892:	4621      	mov	r1, r4
   21894:	4632      	mov	r2, r6
   21896:	4633      	mov	r3, r6
   21898:	df03      	svc	3
   2189a:	2103      	movs	r1, #3
   2189c:	4628      	mov	r0, r5
   2189e:	4632      	mov	r2, r6
   218a0:	4633      	mov	r3, r6
   218a2:	df04      	svc	4
   218a4:	4d5a      	ldr	r5, [pc, #360]	@ (21a10 <_start+0x192c>)
   218a6:	446d      	add	r5, sp
   218a8:	1de8      	adds	r0, r5, #7
   218aa:	990b      	ldr	r1, [sp, #44]	@ 0x2c
   218ac:	9a0a      	ldr	r2, [sp, #40]	@ 0x28
   218ae:	f004 f9d4 	bl	25c5a <__aeabi_memcpy>
   218b2:	980c      	ldr	r0, [sp, #48]	@ 0x30
   218b4:	71a8      	strb	r0, [r5, #6]
   218b6:	980d      	ldr	r0, [sp, #52]	@ 0x34
   218b8:	7168      	strb	r0, [r5, #5]
   218ba:	9810      	ldr	r0, [sp, #64]	@ 0x40
   218bc:	7128      	strb	r0, [r5, #4]
   218be:	9811      	ldr	r0, [sp, #68]	@ 0x44
   218c0:	70e8      	strb	r0, [r5, #3]
   218c2:	984f      	ldr	r0, [sp, #316]	@ 0x13c
   218c4:	8028      	strh	r0, [r5, #0]
   218c6:	9816      	ldr	r0, [sp, #88]	@ 0x58
   218c8:	7880      	ldrb	r0, [r0, #2]
   218ca:	70a8      	strb	r0, [r5, #2]
   218cc:	9815      	ldr	r0, [sp, #84]	@ 0x54
   218ce:	6006      	str	r6, [r0, #0]
   218d0:	6046      	str	r6, [r0, #4]
   218d2:	6086      	str	r6, [r0, #8]
   218d4:	60c6      	str	r6, [r0, #12]
   218d6:	4850      	ldr	r0, [pc, #320]	@ (21a18 <_start+0x1934>)
   218d8:	2104      	movs	r1, #4
   218da:	2332      	movs	r3, #50	@ 0x32
   218dc:	462a      	mov	r2, r5
   218de:	df04      	svc	4
   218e0:	9116      	str	r1, [sp, #88]	@ 0x58
   218e2:	2802      	cmp	r0, #2
   218e4:	d010      	beq.n	21908 <_start+0x1824>
   218e6:	484c      	ldr	r0, [pc, #304]	@ (21a18 <_start+0x1934>)
   218e8:	2109      	movs	r1, #9
   218ea:	4a47      	ldr	r2, [pc, #284]	@ (21a08 <_start+0x1924>)
   218ec:	446a      	add	r2, sp
   218ee:	2310      	movs	r3, #16
   218f0:	df03      	svc	3
   218f2:	9116      	str	r1, [sp, #88]	@ 0x58
   218f4:	2802      	cmp	r0, #2
   218f6:	d007      	beq.n	21908 <_start+0x1824>
   218f8:	4847      	ldr	r0, [pc, #284]	@ (21a18 <_start+0x1934>)
   218fa:	2104      	movs	r1, #4
   218fc:	2209      	movs	r2, #9
   218fe:	2300      	movs	r3, #0
   21900:	df02      	svc	2
   21902:	9116      	str	r1, [sp, #88]	@ 0x58
   21904:	287f      	cmp	r0, #127	@ 0x7f
   21906:	d80d      	bhi.n	21924 <_start+0x1840>
   21908:	4d43      	ldr	r5, [pc, #268]	@ (21a18 <_start+0x1934>)
   2190a:	2109      	movs	r1, #9
   2190c:	2600      	movs	r6, #0
   2190e:	4628      	mov	r0, r5
   21910:	4632      	mov	r2, r6
   21912:	4633      	mov	r3, r6
   21914:	df03      	svc	3
   21916:	2104      	movs	r1, #4
   21918:	4628      	mov	r0, r5
   2191a:	4632      	mov	r2, r6
   2191c:	4633      	mov	r3, r6
   2191e:	df04      	svc	4
   21920:	f7fe fc32 	bl	20188 <_start+0xa4>
   21924:	4e3c      	ldr	r6, [pc, #240]	@ (21a18 <_start+0x1934>)
   21926:	2409      	movs	r4, #9
   21928:	2500      	movs	r5, #0
   2192a:	4630      	mov	r0, r6
   2192c:	4621      	mov	r1, r4
   2192e:	462a      	mov	r2, r5
   21930:	462b      	mov	r3, r5
   21932:	df03      	svc	3
   21934:	4630      	mov	r0, r6
   21936:	4621      	mov	r1, r4
   21938:	462a      	mov	r2, r5
   2193a:	462b      	mov	r3, r5
   2193c:	df03      	svc	3
   2193e:	aa50      	add	r2, sp, #320	@ 0x140
   21940:	9216      	str	r2, [sp, #88]	@ 0x58
   21942:	9815      	ldr	r0, [sp, #84]	@ 0x54
   21944:	6800      	ldr	r0, [r0, #0]
   21946:	8010      	strh	r0, [r2, #0]
   21948:	482f      	ldr	r0, [pc, #188]	@ (21a08 <_start+0x1924>)
   2194a:	4468      	add	r0, sp
   2194c:	7881      	ldrb	r1, [r0, #2]
   2194e:	7091      	strb	r1, [r2, #2]
   21950:	78c1      	ldrb	r1, [r0, #3]
   21952:	9111      	str	r1, [sp, #68]	@ 0x44
   21954:	7901      	ldrb	r1, [r0, #4]
   21956:	9110      	str	r1, [sp, #64]	@ 0x40
   21958:	7941      	ldrb	r1, [r0, #5]
   2195a:	910d      	str	r1, [sp, #52]	@ 0x34
   2195c:	7981      	ldrb	r1, [r0, #6]
   2195e:	910c      	str	r1, [sp, #48]	@ 0x30
   21960:	1dc1      	adds	r1, r0, #7
   21962:	aefa      	add	r6, sp, #1000	@ 0x3e8
   21964:	4630      	mov	r0, r6
   21966:	4622      	mov	r2, r4
   21968:	f004 f977 	bl	25c5a <__aeabi_memcpy>
   2196c:	482a      	ldr	r0, [pc, #168]	@ (21a18 <_start+0x1934>)
   2196e:	4621      	mov	r1, r4
   21970:	462a      	mov	r2, r5
   21972:	462b      	mov	r3, r5
   21974:	df03      	svc	3
   21976:	2104      	movs	r1, #4
   21978:	4827      	ldr	r0, [pc, #156]	@ (21a18 <_start+0x1934>)
   2197a:	462a      	mov	r2, r5
   2197c:	462b      	mov	r3, r5
   2197e:	df04      	svc	4
   21980:	4d22      	ldr	r5, [pc, #136]	@ (21a0c <_start+0x1928>)
   21982:	446d      	add	r5, sp
   21984:	1de8      	adds	r0, r5, #7
   21986:	4631      	mov	r1, r6
   21988:	4622      	mov	r2, r4
   2198a:	f004 f966 	bl	25c5a <__aeabi_memcpy>
   2198e:	980c      	ldr	r0, [sp, #48]	@ 0x30
   21990:	71a8      	strb	r0, [r5, #6]
   21992:	980d      	ldr	r0, [sp, #52]	@ 0x34
   21994:	7168      	strb	r0, [r5, #5]
   21996:	9810      	ldr	r0, [sp, #64]	@ 0x40
   21998:	7128      	strb	r0, [r5, #4]
   2199a:	9811      	ldr	r0, [sp, #68]	@ 0x44
   2199c:	70e8      	strb	r0, [r5, #3]
   2199e:	9850      	ldr	r0, [sp, #320]	@ 0x140
   219a0:	8028      	strh	r0, [r5, #0]
   219a2:	9816      	ldr	r0, [sp, #88]	@ 0x58
   219a4:	7880      	ldrb	r0, [r0, #2]
   219a6:	70a8      	strb	r0, [r5, #2]
   219a8:	4819      	ldr	r0, [pc, #100]	@ (21a10 <_start+0x192c>)
   219aa:	4468      	add	r0, sp
   219ac:	2136      	movs	r1, #54	@ 0x36
   219ae:	f004 f907 	bl	25bc0 <__aeabi_memclr4>
   219b2:	481a      	ldr	r0, [pc, #104]	@ (21a1c <_start+0x1938>)
   219b4:	2401      	movs	r4, #1
   219b6:	2310      	movs	r3, #16
   219b8:	4621      	mov	r1, r4
   219ba:	462a      	mov	r2, r5
   219bc:	df04      	svc	4
   219be:	9116      	str	r1, [sp, #88]	@ 0x58
   219c0:	2802      	cmp	r0, #2
   219c2:	d010      	beq.n	219e6 <_start+0x1902>
   219c4:	4815      	ldr	r0, [pc, #84]	@ (21a1c <_start+0x1938>)
   219c6:	2107      	movs	r1, #7
   219c8:	4a11      	ldr	r2, [pc, #68]	@ (21a10 <_start+0x192c>)
   219ca:	446a      	add	r2, sp
   219cc:	2336      	movs	r3, #54	@ 0x36
   219ce:	df03      	svc	3
   219d0:	9116      	str	r1, [sp, #88]	@ 0x58
   219d2:	2802      	cmp	r0, #2
   219d4:	d007      	beq.n	219e6 <_start+0x1902>
   219d6:	4811      	ldr	r0, [pc, #68]	@ (21a1c <_start+0x1938>)
   219d8:	2101      	movs	r1, #1
   219da:	2207      	movs	r2, #7
   219dc:	2300      	movs	r3, #0
   219de:	df02      	svc	2
   219e0:	9116      	str	r1, [sp, #88]	@ 0x58
   219e2:	287f      	cmp	r0, #127	@ 0x7f
   219e4:	d81c      	bhi.n	21a20 <_start+0x193c>
   219e6:	4d0d      	ldr	r5, [pc, #52]	@ (21a1c <_start+0x1938>)
   219e8:	2107      	movs	r1, #7
   219ea:	2600      	movs	r6, #0
   219ec:	4628      	mov	r0, r5
   219ee:	4632      	mov	r2, r6
   219f0:	4633      	mov	r3, r6
   219f2:	df03      	svc	3
   219f4:	4628      	mov	r0, r5
   219f6:	4621      	mov	r1, r4
   219f8:	4632      	mov	r2, r6
   219fa:	4633      	mov	r3, r6
   219fc:	df04      	svc	4
   219fe:	f7fe fbc3 	bl	20188 <_start+0xa4>
   21a02:	46c0      	nop			@ (mov r8, r8)
   21a04:	00001b1e 	.word	0x00001b1e
   21a08:	00000684 	.word	0x00000684
   21a0c:	000005b8 	.word	0x000005b8
   21a10:	000006e8 	.word	0x000006e8
   21a14:	00001f07 	.word	0x00001f07
   21a18:	000019d6 	.word	0x000019d6
   21a1c:	00001989 	.word	0x00001989
   21a20:	4eb1      	ldr	r6, [pc, #708]	@ (21ce8 <_start+0x1c04>)
   21a22:	2407      	movs	r4, #7
   21a24:	2500      	movs	r5, #0
   21a26:	4630      	mov	r0, r6
   21a28:	4621      	mov	r1, r4
   21a2a:	462a      	mov	r2, r5
   21a2c:	462b      	mov	r3, r5
   21a2e:	df03      	svc	3
   21a30:	4630      	mov	r0, r6
   21a32:	4621      	mov	r1, r4
   21a34:	462a      	mov	r2, r5
   21a36:	462b      	mov	r3, r5
   21a38:	df03      	svc	3
   21a3a:	aa51      	add	r2, sp, #324	@ 0x144
   21a3c:	9216      	str	r2, [sp, #88]	@ 0x58
   21a3e:	9815      	ldr	r0, [sp, #84]	@ 0x54
   21a40:	6e40      	ldr	r0, [r0, #100]	@ 0x64
   21a42:	8010      	strh	r0, [r2, #0]
   21a44:	48a9      	ldr	r0, [pc, #676]	@ (21cec <_start+0x1c08>)
   21a46:	4468      	add	r0, sp
   21a48:	7881      	ldrb	r1, [r0, #2]
   21a4a:	7091      	strb	r1, [r2, #2]
   21a4c:	78c1      	ldrb	r1, [r0, #3]
   21a4e:	9111      	str	r1, [sp, #68]	@ 0x44
   21a50:	7901      	ldrb	r1, [r0, #4]
   21a52:	9110      	str	r1, [sp, #64]	@ 0x40
   21a54:	7941      	ldrb	r1, [r0, #5]
   21a56:	910d      	str	r1, [sp, #52]	@ 0x34
   21a58:	7981      	ldrb	r1, [r0, #6]
   21a5a:	910c      	str	r1, [sp, #48]	@ 0x30
   21a5c:	1dc1      	adds	r1, r0, #7
   21a5e:	4ea4      	ldr	r6, [pc, #656]	@ (21cf0 <_start+0x1c0c>)
   21a60:	446e      	add	r6, sp
   21a62:	222f      	movs	r2, #47	@ 0x2f
   21a64:	920b      	str	r2, [sp, #44]	@ 0x2c
   21a66:	4630      	mov	r0, r6
   21a68:	f004 f8f7 	bl	25c5a <__aeabi_memcpy>
   21a6c:	489e      	ldr	r0, [pc, #632]	@ (21ce8 <_start+0x1c04>)
   21a6e:	4621      	mov	r1, r4
   21a70:	462a      	mov	r2, r5
   21a72:	462b      	mov	r3, r5
   21a74:	df03      	svc	3
   21a76:	2401      	movs	r4, #1
   21a78:	489b      	ldr	r0, [pc, #620]	@ (21ce8 <_start+0x1c04>)
   21a7a:	4621      	mov	r1, r4
   21a7c:	462a      	mov	r2, r5
   21a7e:	462b      	mov	r3, r5
   21a80:	df04      	svc	4
   21a82:	4d9a      	ldr	r5, [pc, #616]	@ (21cec <_start+0x1c08>)
   21a84:	446d      	add	r5, sp
   21a86:	1de8      	adds	r0, r5, #7
   21a88:	4631      	mov	r1, r6
   21a8a:	9a0b      	ldr	r2, [sp, #44]	@ 0x2c
   21a8c:	f004 f8e5 	bl	25c5a <__aeabi_memcpy>
   21a90:	980c      	ldr	r0, [sp, #48]	@ 0x30
   21a92:	71a8      	strb	r0, [r5, #6]
   21a94:	980d      	ldr	r0, [sp, #52]	@ 0x34
   21a96:	7168      	strb	r0, [r5, #5]
   21a98:	9810      	ldr	r0, [sp, #64]	@ 0x40
   21a9a:	7128      	strb	r0, [r5, #4]
   21a9c:	9811      	ldr	r0, [sp, #68]	@ 0x44
   21a9e:	70e8      	strb	r0, [r5, #3]
   21aa0:	9851      	ldr	r0, [sp, #324]	@ 0x144
   21aa2:	8028      	strh	r0, [r5, #0]
   21aa4:	9816      	ldr	r0, [sp, #88]	@ 0x58
   21aa6:	7880      	ldrb	r0, [r0, #2]
   21aa8:	70a8      	strb	r0, [r5, #2]
   21aaa:	4891      	ldr	r0, [pc, #580]	@ (21cf0 <_start+0x1c0c>)
   21aac:	4468      	add	r0, sp
   21aae:	210f      	movs	r1, #15
   21ab0:	f004 f886 	bl	25bc0 <__aeabi_memclr4>
   21ab4:	488f      	ldr	r0, [pc, #572]	@ (21cf4 <_start+0x1c10>)
   21ab6:	2105      	movs	r1, #5
   21ab8:	2336      	movs	r3, #54	@ 0x36
   21aba:	462a      	mov	r2, r5
   21abc:	df04      	svc	4
   21abe:	9116      	str	r1, [sp, #88]	@ 0x58
   21ac0:	2802      	cmp	r0, #2
   21ac2:	d010      	beq.n	21ae6 <_start+0x1a02>
   21ac4:	488b      	ldr	r0, [pc, #556]	@ (21cf4 <_start+0x1c10>)
   21ac6:	2103      	movs	r1, #3
   21ac8:	4a89      	ldr	r2, [pc, #548]	@ (21cf0 <_start+0x1c0c>)
   21aca:	446a      	add	r2, sp
   21acc:	230f      	movs	r3, #15
   21ace:	df03      	svc	3
   21ad0:	9116      	str	r1, [sp, #88]	@ 0x58
   21ad2:	2802      	cmp	r0, #2
   21ad4:	d007      	beq.n	21ae6 <_start+0x1a02>
   21ad6:	4887      	ldr	r0, [pc, #540]	@ (21cf4 <_start+0x1c10>)
   21ad8:	2105      	movs	r1, #5
   21ada:	2203      	movs	r2, #3
   21adc:	2300      	movs	r3, #0
   21ade:	df02      	svc	2
   21ae0:	9116      	str	r1, [sp, #88]	@ 0x58
   21ae2:	287f      	cmp	r0, #127	@ 0x7f
   21ae4:	d80d      	bhi.n	21b02 <_start+0x1a1e>
   21ae6:	4d83      	ldr	r5, [pc, #524]	@ (21cf4 <_start+0x1c10>)
   21ae8:	2103      	movs	r1, #3
   21aea:	2600      	movs	r6, #0
   21aec:	4628      	mov	r0, r5
   21aee:	4632      	mov	r2, r6
   21af0:	4633      	mov	r3, r6
   21af2:	df03      	svc	3
   21af4:	2105      	movs	r1, #5
   21af6:	4628      	mov	r0, r5
   21af8:	4632      	mov	r2, r6
   21afa:	4633      	mov	r3, r6
   21afc:	df04      	svc	4
   21afe:	f7fe fb43 	bl	20188 <_start+0xa4>
   21b02:	980f      	ldr	r0, [sp, #60]	@ 0x3c
   21b04:	1cc6      	adds	r6, r0, #3
   21b06:	980e      	ldr	r0, [sp, #56]	@ 0x38
   21b08:	1cc5      	adds	r5, r0, #3
   21b0a:	487a      	ldr	r0, [pc, #488]	@ (21cf4 <_start+0x1c10>)
   21b0c:	2103      	movs	r1, #3
   21b0e:	9111      	str	r1, [sp, #68]	@ 0x44
   21b10:	2200      	movs	r2, #0
   21b12:	9216      	str	r2, [sp, #88]	@ 0x58
   21b14:	9b16      	ldr	r3, [sp, #88]	@ 0x58
   21b16:	df03      	svc	3
   21b18:	4876      	ldr	r0, [pc, #472]	@ (21cf4 <_start+0x1c10>)
   21b1a:	9911      	ldr	r1, [sp, #68]	@ 0x44
   21b1c:	9a16      	ldr	r2, [sp, #88]	@ 0x58
   21b1e:	9b16      	ldr	r3, [sp, #88]	@ 0x58
   21b20:	df03      	svc	3
   21b22:	a952      	add	r1, sp, #328	@ 0x148
   21b24:	9110      	str	r1, [sp, #64]	@ 0x40
   21b26:	9815      	ldr	r0, [sp, #84]	@ 0x54
   21b28:	6800      	ldr	r0, [r0, #0]
   21b2a:	8008      	strh	r0, [r1, #0]
   21b2c:	4870      	ldr	r0, [pc, #448]	@ (21cf0 <_start+0x1c0c>)
   21b2e:	4468      	add	r0, sp
   21b30:	7880      	ldrb	r0, [r0, #2]
   21b32:	7088      	strb	r0, [r1, #2]
   21b34:	7830      	ldrb	r0, [r6, #0]
   21b36:	900f      	str	r0, [sp, #60]	@ 0x3c
   21b38:	7870      	ldrb	r0, [r6, #1]
   21b3a:	900e      	str	r0, [sp, #56]	@ 0x38
   21b3c:	78b0      	ldrb	r0, [r6, #2]
   21b3e:	900d      	str	r0, [sp, #52]	@ 0x34
   21b40:	78f0      	ldrb	r0, [r6, #3]
   21b42:	900c      	str	r0, [sp, #48]	@ 0x30
   21b44:	7930      	ldrb	r0, [r6, #4]
   21b46:	900b      	str	r0, [sp, #44]	@ 0x2c
   21b48:	7970      	ldrb	r0, [r6, #5]
   21b4a:	900a      	str	r0, [sp, #40]	@ 0x28
   21b4c:	79b0      	ldrb	r0, [r6, #6]
   21b4e:	9009      	str	r0, [sp, #36]	@ 0x24
   21b50:	79f0      	ldrb	r0, [r6, #7]
   21b52:	9005      	str	r0, [sp, #20]
   21b54:	7a30      	ldrb	r0, [r6, #8]
   21b56:	9004      	str	r0, [sp, #16]
   21b58:	7a70      	ldrb	r0, [r6, #9]
   21b5a:	9003      	str	r0, [sp, #12]
   21b5c:	7ab0      	ldrb	r0, [r6, #10]
   21b5e:	9002      	str	r0, [sp, #8]
   21b60:	7af0      	ldrb	r0, [r6, #11]
   21b62:	9001      	str	r0, [sp, #4]
   21b64:	4863      	ldr	r0, [pc, #396]	@ (21cf4 <_start+0x1c10>)
   21b66:	9911      	ldr	r1, [sp, #68]	@ 0x44
   21b68:	9e16      	ldr	r6, [sp, #88]	@ 0x58
   21b6a:	4632      	mov	r2, r6
   21b6c:	4633      	mov	r3, r6
   21b6e:	df03      	svc	3
   21b70:	2105      	movs	r1, #5
   21b72:	4860      	ldr	r0, [pc, #384]	@ (21cf4 <_start+0x1c10>)
   21b74:	4632      	mov	r2, r6
   21b76:	4633      	mov	r3, r6
   21b78:	df04      	svc	4
   21b7a:	9801      	ldr	r0, [sp, #4]
   21b7c:	72e8      	strb	r0, [r5, #11]
   21b7e:	9802      	ldr	r0, [sp, #8]
   21b80:	72a8      	strb	r0, [r5, #10]
   21b82:	9803      	ldr	r0, [sp, #12]
   21b84:	7268      	strb	r0, [r5, #9]
   21b86:	9804      	ldr	r0, [sp, #16]
   21b88:	7228      	strb	r0, [r5, #8]
   21b8a:	9805      	ldr	r0, [sp, #20]
   21b8c:	71e8      	strb	r0, [r5, #7]
   21b8e:	9809      	ldr	r0, [sp, #36]	@ 0x24
   21b90:	71a8      	strb	r0, [r5, #6]
   21b92:	980a      	ldr	r0, [sp, #40]	@ 0x28
   21b94:	7168      	strb	r0, [r5, #5]
   21b96:	980b      	ldr	r0, [sp, #44]	@ 0x2c
   21b98:	7128      	strb	r0, [r5, #4]
   21b9a:	980c      	ldr	r0, [sp, #48]	@ 0x30
   21b9c:	70e8      	strb	r0, [r5, #3]
   21b9e:	980d      	ldr	r0, [sp, #52]	@ 0x34
   21ba0:	70a8      	strb	r0, [r5, #2]
   21ba2:	980e      	ldr	r0, [sp, #56]	@ 0x38
   21ba4:	7068      	strb	r0, [r5, #1]
   21ba6:	980f      	ldr	r0, [sp, #60]	@ 0x3c
   21ba8:	7028      	strb	r0, [r5, #0]
   21baa:	9810      	ldr	r0, [sp, #64]	@ 0x40
   21bac:	7880      	ldrb	r0, [r0, #2]
   21bae:	4e50      	ldr	r6, [pc, #320]	@ (21cf0 <_start+0x1c0c>)
   21bb0:	446e      	add	r6, sp
   21bb2:	70b0      	strb	r0, [r6, #2]
   21bb4:	9852      	ldr	r0, [sp, #328]	@ 0x148
   21bb6:	8030      	strh	r0, [r6, #0]
   21bb8:	484c      	ldr	r0, [pc, #304]	@ (21cec <_start+0x1c08>)
   21bba:	4468      	add	r0, sp
   21bbc:	2113      	movs	r1, #19
   21bbe:	f003 ffff 	bl	25bc0 <__aeabi_memclr4>
   21bc2:	484d      	ldr	r0, [pc, #308]	@ (21cf8 <_start+0x1c14>)
   21bc4:	230f      	movs	r3, #15
   21bc6:	9911      	ldr	r1, [sp, #68]	@ 0x44
   21bc8:	4632      	mov	r2, r6
   21bca:	df04      	svc	4
   21bcc:	9116      	str	r1, [sp, #88]	@ 0x58
   21bce:	2802      	cmp	r0, #2
   21bd0:	d010      	beq.n	21bf4 <_start+0x1b10>
   21bd2:	4849      	ldr	r0, [pc, #292]	@ (21cf8 <_start+0x1c14>)
   21bd4:	2100      	movs	r1, #0
   21bd6:	4a45      	ldr	r2, [pc, #276]	@ (21cec <_start+0x1c08>)
   21bd8:	446a      	add	r2, sp
   21bda:	2313      	movs	r3, #19
   21bdc:	df03      	svc	3
   21bde:	9116      	str	r1, [sp, #88]	@ 0x58
   21be0:	2802      	cmp	r0, #2
   21be2:	d007      	beq.n	21bf4 <_start+0x1b10>
   21be4:	4844      	ldr	r0, [pc, #272]	@ (21cf8 <_start+0x1c14>)
   21be6:	2103      	movs	r1, #3
   21be8:	2200      	movs	r2, #0
   21bea:	4613      	mov	r3, r2
   21bec:	df02      	svc	2
   21bee:	9116      	str	r1, [sp, #88]	@ 0x58
   21bf0:	287f      	cmp	r0, #127	@ 0x7f
   21bf2:	d80d      	bhi.n	21c10 <_start+0x1b2c>
   21bf4:	4d40      	ldr	r5, [pc, #256]	@ (21cf8 <_start+0x1c14>)
   21bf6:	2600      	movs	r6, #0
   21bf8:	4628      	mov	r0, r5
   21bfa:	4631      	mov	r1, r6
   21bfc:	4632      	mov	r2, r6
   21bfe:	4633      	mov	r3, r6
   21c00:	df03      	svc	3
   21c02:	2103      	movs	r1, #3
   21c04:	4628      	mov	r0, r5
   21c06:	4632      	mov	r2, r6
   21c08:	4633      	mov	r3, r6
   21c0a:	df04      	svc	4
   21c0c:	f7fe fabc 	bl	20188 <_start+0xa4>
   21c10:	4e39      	ldr	r6, [pc, #228]	@ (21cf8 <_start+0x1c14>)
   21c12:	2500      	movs	r5, #0
   21c14:	4630      	mov	r0, r6
   21c16:	4629      	mov	r1, r5
   21c18:	462a      	mov	r2, r5
   21c1a:	462b      	mov	r3, r5
   21c1c:	df03      	svc	3
   21c1e:	4630      	mov	r0, r6
   21c20:	4629      	mov	r1, r5
   21c22:	462a      	mov	r2, r5
   21c24:	462b      	mov	r3, r5
   21c26:	df03      	svc	3
   21c28:	ae56      	add	r6, sp, #344	@ 0x158
   21c2a:	9815      	ldr	r0, [sp, #84]	@ 0x54
   21c2c:	6e40      	ldr	r0, [r0, #100]	@ 0x64
   21c2e:	8030      	strh	r0, [r6, #0]
   21c30:	482e      	ldr	r0, [pc, #184]	@ (21cec <_start+0x1c08>)
   21c32:	4468      	add	r0, sp
   21c34:	7881      	ldrb	r1, [r0, #2]
   21c36:	70b1      	strb	r1, [r6, #2]
   21c38:	78c1      	ldrb	r1, [r0, #3]
   21c3a:	9116      	str	r1, [sp, #88]	@ 0x58
   21c3c:	7901      	ldrb	r1, [r0, #4]
   21c3e:	910f      	str	r1, [sp, #60]	@ 0x3c
   21c40:	7941      	ldrb	r1, [r0, #5]
   21c42:	910e      	str	r1, [sp, #56]	@ 0x38
   21c44:	7981      	ldrb	r1, [r0, #6]
   21c46:	910d      	str	r1, [sp, #52]	@ 0x34
   21c48:	1dc1      	adds	r1, r0, #7
   21c4a:	a853      	add	r0, sp, #332	@ 0x14c
   21c4c:	9011      	str	r0, [sp, #68]	@ 0x44
   21c4e:	220c      	movs	r2, #12
   21c50:	9210      	str	r2, [sp, #64]	@ 0x40
   21c52:	f004 f802 	bl	25c5a <__aeabi_memcpy>
   21c56:	4828      	ldr	r0, [pc, #160]	@ (21cf8 <_start+0x1c14>)
   21c58:	4629      	mov	r1, r5
   21c5a:	462a      	mov	r2, r5
   21c5c:	462b      	mov	r3, r5
   21c5e:	df03      	svc	3
   21c60:	2103      	movs	r1, #3
   21c62:	4825      	ldr	r0, [pc, #148]	@ (21cf8 <_start+0x1c14>)
   21c64:	462a      	mov	r2, r5
   21c66:	462b      	mov	r3, r5
   21c68:	df04      	svc	4
   21c6a:	4d24      	ldr	r5, [pc, #144]	@ (21cfc <_start+0x1c18>)
   21c6c:	446d      	add	r5, sp
   21c6e:	980d      	ldr	r0, [sp, #52]	@ 0x34
   21c70:	71a8      	strb	r0, [r5, #6]
   21c72:	980e      	ldr	r0, [sp, #56]	@ 0x38
   21c74:	7168      	strb	r0, [r5, #5]
   21c76:	980f      	ldr	r0, [sp, #60]	@ 0x3c
   21c78:	7128      	strb	r0, [r5, #4]
   21c7a:	9816      	ldr	r0, [sp, #88]	@ 0x58
   21c7c:	70e8      	strb	r0, [r5, #3]
   21c7e:	78b0      	ldrb	r0, [r6, #2]
   21c80:	70a8      	strb	r0, [r5, #2]
   21c82:	9856      	ldr	r0, [sp, #344]	@ 0x158
   21c84:	8028      	strh	r0, [r5, #0]
   21c86:	1de8      	adds	r0, r5, #7
   21c88:	9911      	ldr	r1, [sp, #68]	@ 0x44
   21c8a:	9a10      	ldr	r2, [sp, #64]	@ 0x40
   21c8c:	f003 ffe5 	bl	25c5a <__aeabi_memcpy>
   21c90:	4816      	ldr	r0, [pc, #88]	@ (21cec <_start+0x1c08>)
   21c92:	4468      	add	r0, sp
   21c94:	2155      	movs	r1, #85	@ 0x55
   21c96:	f003 ff93 	bl	25bc0 <__aeabi_memclr4>
   21c9a:	4819      	ldr	r0, [pc, #100]	@ (21d00 <_start+0x1c1c>)
   21c9c:	2109      	movs	r1, #9
   21c9e:	2313      	movs	r3, #19
   21ca0:	462a      	mov	r2, r5
   21ca2:	df04      	svc	4
   21ca4:	9116      	str	r1, [sp, #88]	@ 0x58
   21ca6:	2802      	cmp	r0, #2
   21ca8:	d010      	beq.n	21ccc <_start+0x1be8>
   21caa:	4815      	ldr	r0, [pc, #84]	@ (21d00 <_start+0x1c1c>)
   21cac:	2107      	movs	r1, #7
   21cae:	4a0f      	ldr	r2, [pc, #60]	@ (21cec <_start+0x1c08>)
   21cb0:	446a      	add	r2, sp
   21cb2:	2355      	movs	r3, #85	@ 0x55
   21cb4:	df03      	svc	3
   21cb6:	9116      	str	r1, [sp, #88]	@ 0x58
   21cb8:	2802      	cmp	r0, #2
   21cba:	d007      	beq.n	21ccc <_start+0x1be8>
   21cbc:	4810      	ldr	r0, [pc, #64]	@ (21d00 <_start+0x1c1c>)
   21cbe:	2109      	movs	r1, #9
   21cc0:	2207      	movs	r2, #7
   21cc2:	2300      	movs	r3, #0
   21cc4:	df02      	svc	2
   21cc6:	9116      	str	r1, [sp, #88]	@ 0x58
   21cc8:	287f      	cmp	r0, #127	@ 0x7f
   21cca:	d81b      	bhi.n	21d04 <_start+0x1c20>
   21ccc:	4d0c      	ldr	r5, [pc, #48]	@ (21d00 <_start+0x1c1c>)
   21cce:	2107      	movs	r1, #7
   21cd0:	2600      	movs	r6, #0
   21cd2:	4628      	mov	r0, r5
   21cd4:	4632      	mov	r2, r6
   21cd6:	4633      	mov	r3, r6
   21cd8:	df03      	svc	3
   21cda:	2109      	movs	r1, #9
   21cdc:	4628      	mov	r0, r5
   21cde:	4632      	mov	r2, r6
   21ce0:	4633      	mov	r3, r6
   21ce2:	df04      	svc	4
   21ce4:	f7fe fa50 	bl	20188 <_start+0xa4>
   21ce8:	00001989 	.word	0x00001989
   21cec:	000006e8 	.word	0x000006e8
   21cf0:	00000684 	.word	0x00000684
   21cf4:	00000653 	.word	0x00000653
   21cf8:	00001e4b 	.word	0x00001e4b
   21cfc:	000005b8 	.word	0x000005b8
   21d00:	0000032e 	.word	0x0000032e
   21d04:	48a6      	ldr	r0, [pc, #664]	@ (21fa0 <_start+0x1ebc>)
   21d06:	2607      	movs	r6, #7
   21d08:	2500      	movs	r5, #0
   21d0a:	4631      	mov	r1, r6
   21d0c:	462a      	mov	r2, r5
   21d0e:	462b      	mov	r3, r5
   21d10:	df03      	svc	3
   21d12:	48a3      	ldr	r0, [pc, #652]	@ (21fa0 <_start+0x1ebc>)
   21d14:	4631      	mov	r1, r6
   21d16:	462a      	mov	r2, r5
   21d18:	462b      	mov	r3, r5
   21d1a:	df03      	svc	3
   21d1c:	aa57      	add	r2, sp, #348	@ 0x15c
   21d1e:	9216      	str	r2, [sp, #88]	@ 0x58
   21d20:	9815      	ldr	r0, [sp, #84]	@ 0x54
   21d22:	6e40      	ldr	r0, [r0, #100]	@ 0x64
   21d24:	8010      	strh	r0, [r2, #0]
   21d26:	489f      	ldr	r0, [pc, #636]	@ (21fa4 <_start+0x1ec0>)
   21d28:	4468      	add	r0, sp
   21d2a:	7881      	ldrb	r1, [r0, #2]
   21d2c:	7091      	strb	r1, [r2, #2]
   21d2e:	78c1      	ldrb	r1, [r0, #3]
   21d30:	9111      	str	r1, [sp, #68]	@ 0x44
   21d32:	7901      	ldrb	r1, [r0, #4]
   21d34:	9110      	str	r1, [sp, #64]	@ 0x40
   21d36:	7941      	ldrb	r1, [r0, #5]
   21d38:	910f      	str	r1, [sp, #60]	@ 0x3c
   21d3a:	7981      	ldrb	r1, [r0, #6]
   21d3c:	910e      	str	r1, [sp, #56]	@ 0x38
   21d3e:	1dc1      	adds	r1, r0, #7
   21d40:	4899      	ldr	r0, [pc, #612]	@ (21fa8 <_start+0x1ec4>)
   21d42:	4468      	add	r0, sp
   21d44:	900d      	str	r0, [sp, #52]	@ 0x34
   21d46:	224e      	movs	r2, #78	@ 0x4e
   21d48:	920c      	str	r2, [sp, #48]	@ 0x30
   21d4a:	f003 ff86 	bl	25c5a <__aeabi_memcpy>
   21d4e:	4894      	ldr	r0, [pc, #592]	@ (21fa0 <_start+0x1ebc>)
   21d50:	4631      	mov	r1, r6
   21d52:	462a      	mov	r2, r5
   21d54:	462b      	mov	r3, r5
   21d56:	df03      	svc	3
   21d58:	2109      	movs	r1, #9
   21d5a:	4891      	ldr	r0, [pc, #580]	@ (21fa0 <_start+0x1ebc>)
   21d5c:	462a      	mov	r2, r5
   21d5e:	462b      	mov	r3, r5
   21d60:	df04      	svc	4
   21d62:	4d90      	ldr	r5, [pc, #576]	@ (21fa4 <_start+0x1ec0>)
   21d64:	446d      	add	r5, sp
   21d66:	1de8      	adds	r0, r5, #7
   21d68:	990d      	ldr	r1, [sp, #52]	@ 0x34
   21d6a:	9a0c      	ldr	r2, [sp, #48]	@ 0x30
   21d6c:	f003 ff75 	bl	25c5a <__aeabi_memcpy>
   21d70:	980e      	ldr	r0, [sp, #56]	@ 0x38
   21d72:	71a8      	strb	r0, [r5, #6]
   21d74:	980f      	ldr	r0, [sp, #60]	@ 0x3c
   21d76:	7168      	strb	r0, [r5, #5]
   21d78:	9810      	ldr	r0, [sp, #64]	@ 0x40
   21d7a:	7128      	strb	r0, [r5, #4]
   21d7c:	9811      	ldr	r0, [sp, #68]	@ 0x44
   21d7e:	70e8      	strb	r0, [r5, #3]
   21d80:	9857      	ldr	r0, [sp, #348]	@ 0x15c
   21d82:	8028      	strh	r0, [r5, #0]
   21d84:	9816      	ldr	r0, [sp, #88]	@ 0x58
   21d86:	7880      	ldrb	r0, [r0, #2]
   21d88:	70a8      	strb	r0, [r5, #2]
   21d8a:	4887      	ldr	r0, [pc, #540]	@ (21fa8 <_start+0x1ec4>)
   21d8c:	4468      	add	r0, sp
   21d8e:	2132      	movs	r1, #50	@ 0x32
   21d90:	f003 ff16 	bl	25bc0 <__aeabi_memclr4>
   21d94:	4885      	ldr	r0, [pc, #532]	@ (21fac <_start+0x1ec8>)
   21d96:	2108      	movs	r1, #8
   21d98:	2355      	movs	r3, #85	@ 0x55
   21d9a:	462a      	mov	r2, r5
   21d9c:	df04      	svc	4
   21d9e:	9116      	str	r1, [sp, #88]	@ 0x58
   21da0:	2802      	cmp	r0, #2
   21da2:	d010      	beq.n	21dc6 <_start+0x1ce2>
   21da4:	4881      	ldr	r0, [pc, #516]	@ (21fac <_start+0x1ec8>)
   21da6:	2108      	movs	r1, #8
   21da8:	4a7f      	ldr	r2, [pc, #508]	@ (21fa8 <_start+0x1ec4>)
   21daa:	446a      	add	r2, sp
   21dac:	2332      	movs	r3, #50	@ 0x32
   21dae:	df03      	svc	3
   21db0:	9116      	str	r1, [sp, #88]	@ 0x58
   21db2:	2802      	cmp	r0, #2
   21db4:	d007      	beq.n	21dc6 <_start+0x1ce2>
   21db6:	487d      	ldr	r0, [pc, #500]	@ (21fac <_start+0x1ec8>)
   21db8:	2108      	movs	r1, #8
   21dba:	2300      	movs	r3, #0
   21dbc:	460a      	mov	r2, r1
   21dbe:	df02      	svc	2
   21dc0:	9116      	str	r1, [sp, #88]	@ 0x58
   21dc2:	287f      	cmp	r0, #127	@ 0x7f
   21dc4:	d80d      	bhi.n	21de2 <_start+0x1cfe>
   21dc6:	4879      	ldr	r0, [pc, #484]	@ (21fac <_start+0x1ec8>)
   21dc8:	2608      	movs	r6, #8
   21dca:	2500      	movs	r5, #0
   21dcc:	4631      	mov	r1, r6
   21dce:	462a      	mov	r2, r5
   21dd0:	462b      	mov	r3, r5
   21dd2:	df03      	svc	3
   21dd4:	4875      	ldr	r0, [pc, #468]	@ (21fac <_start+0x1ec8>)
   21dd6:	4631      	mov	r1, r6
   21dd8:	462a      	mov	r2, r5
   21dda:	462b      	mov	r3, r5
   21ddc:	df04      	svc	4
   21dde:	f7fe f9d3 	bl	20188 <_start+0xa4>
   21de2:	4872      	ldr	r0, [pc, #456]	@ (21fac <_start+0x1ec8>)
   21de4:	2608      	movs	r6, #8
   21de6:	2500      	movs	r5, #0
   21de8:	4631      	mov	r1, r6
   21dea:	462a      	mov	r2, r5
   21dec:	462b      	mov	r3, r5
   21dee:	df03      	svc	3
   21df0:	486e      	ldr	r0, [pc, #440]	@ (21fac <_start+0x1ec8>)
   21df2:	4631      	mov	r1, r6
   21df4:	462a      	mov	r2, r5
   21df6:	462b      	mov	r3, r5
   21df8:	df03      	svc	3
   21dfa:	aa58      	add	r2, sp, #352	@ 0x160
   21dfc:	9216      	str	r2, [sp, #88]	@ 0x58
   21dfe:	9815      	ldr	r0, [sp, #84]	@ 0x54
   21e00:	6800      	ldr	r0, [r0, #0]
   21e02:	8010      	strh	r0, [r2, #0]
   21e04:	4868      	ldr	r0, [pc, #416]	@ (21fa8 <_start+0x1ec4>)
   21e06:	4468      	add	r0, sp
   21e08:	7881      	ldrb	r1, [r0, #2]
   21e0a:	7091      	strb	r1, [r2, #2]
   21e0c:	78c1      	ldrb	r1, [r0, #3]
   21e0e:	9111      	str	r1, [sp, #68]	@ 0x44
   21e10:	7901      	ldrb	r1, [r0, #4]
   21e12:	9110      	str	r1, [sp, #64]	@ 0x40
   21e14:	7941      	ldrb	r1, [r0, #5]
   21e16:	910f      	str	r1, [sp, #60]	@ 0x3c
   21e18:	7981      	ldrb	r1, [r0, #6]
   21e1a:	910e      	str	r1, [sp, #56]	@ 0x38
   21e1c:	1dc1      	adds	r1, r0, #7
   21e1e:	a8fa      	add	r0, sp, #1000	@ 0x3e8
   21e20:	900d      	str	r0, [sp, #52]	@ 0x34
   21e22:	222b      	movs	r2, #43	@ 0x2b
   21e24:	920c      	str	r2, [sp, #48]	@ 0x30
   21e26:	f003 ff18 	bl	25c5a <__aeabi_memcpy>
   21e2a:	4860      	ldr	r0, [pc, #384]	@ (21fac <_start+0x1ec8>)
   21e2c:	4631      	mov	r1, r6
   21e2e:	462a      	mov	r2, r5
   21e30:	462b      	mov	r3, r5
   21e32:	df03      	svc	3
   21e34:	485d      	ldr	r0, [pc, #372]	@ (21fac <_start+0x1ec8>)
   21e36:	4631      	mov	r1, r6
   21e38:	462a      	mov	r2, r5
   21e3a:	462b      	mov	r3, r5
   21e3c:	df04      	svc	4
   21e3e:	4d5c      	ldr	r5, [pc, #368]	@ (21fb0 <_start+0x1ecc>)
   21e40:	446d      	add	r5, sp
   21e42:	1de8      	adds	r0, r5, #7
   21e44:	990d      	ldr	r1, [sp, #52]	@ 0x34
   21e46:	9a0c      	ldr	r2, [sp, #48]	@ 0x30
   21e48:	f003 ff07 	bl	25c5a <__aeabi_memcpy>
   21e4c:	980e      	ldr	r0, [sp, #56]	@ 0x38
   21e4e:	71a8      	strb	r0, [r5, #6]
   21e50:	980f      	ldr	r0, [sp, #60]	@ 0x3c
   21e52:	7168      	strb	r0, [r5, #5]
   21e54:	9810      	ldr	r0, [sp, #64]	@ 0x40
   21e56:	7128      	strb	r0, [r5, #4]
   21e58:	9811      	ldr	r0, [sp, #68]	@ 0x44
   21e5a:	70e8      	strb	r0, [r5, #3]
   21e5c:	9858      	ldr	r0, [sp, #352]	@ 0x160
   21e5e:	8028      	strh	r0, [r5, #0]
   21e60:	9816      	ldr	r0, [sp, #88]	@ 0x58
   21e62:	7880      	ldrb	r0, [r0, #2]
   21e64:	70a8      	strb	r0, [r5, #2]
   21e66:	484f      	ldr	r0, [pc, #316]	@ (21fa4 <_start+0x1ec0>)
   21e68:	4468      	add	r0, sp
   21e6a:	2141      	movs	r1, #65	@ 0x41
   21e6c:	f003 fea8 	bl	25bc0 <__aeabi_memclr4>
   21e70:	4850      	ldr	r0, [pc, #320]	@ (21fb4 <_start+0x1ed0>)
   21e72:	2107      	movs	r1, #7
   21e74:	2332      	movs	r3, #50	@ 0x32
   21e76:	462a      	mov	r2, r5
   21e78:	df04      	svc	4
   21e7a:	9116      	str	r1, [sp, #88]	@ 0x58
   21e7c:	2802      	cmp	r0, #2
   21e7e:	d010      	beq.n	21ea2 <_start+0x1dbe>
   21e80:	484c      	ldr	r0, [pc, #304]	@ (21fb4 <_start+0x1ed0>)
   21e82:	2105      	movs	r1, #5
   21e84:	4a47      	ldr	r2, [pc, #284]	@ (21fa4 <_start+0x1ec0>)
   21e86:	446a      	add	r2, sp
   21e88:	2341      	movs	r3, #65	@ 0x41
   21e8a:	df03      	svc	3
   21e8c:	9116      	str	r1, [sp, #88]	@ 0x58
   21e8e:	2802      	cmp	r0, #2
   21e90:	d007      	beq.n	21ea2 <_start+0x1dbe>
   21e92:	4848      	ldr	r0, [pc, #288]	@ (21fb4 <_start+0x1ed0>)
   21e94:	2107      	movs	r1, #7
   21e96:	2205      	movs	r2, #5
   21e98:	2300      	movs	r3, #0
   21e9a:	df02      	svc	2
   21e9c:	9116      	str	r1, [sp, #88]	@ 0x58
   21e9e:	287f      	cmp	r0, #127	@ 0x7f
   21ea0:	d80d      	bhi.n	21ebe <_start+0x1dda>
   21ea2:	4d44      	ldr	r5, [pc, #272]	@ (21fb4 <_start+0x1ed0>)
   21ea4:	2105      	movs	r1, #5
   21ea6:	2600      	movs	r6, #0
   21ea8:	4628      	mov	r0, r5
   21eaa:	4632      	mov	r2, r6
   21eac:	4633      	mov	r3, r6
   21eae:	df03      	svc	3
   21eb0:	2107      	movs	r1, #7
   21eb2:	4628      	mov	r0, r5
   21eb4:	4632      	mov	r2, r6
   21eb6:	4633      	mov	r3, r6
   21eb8:	df04      	svc	4
   21eba:	f7fe f965 	bl	20188 <_start+0xa4>
   21ebe:	4d3d      	ldr	r5, [pc, #244]	@ (21fb4 <_start+0x1ed0>)
   21ec0:	2605      	movs	r6, #5
   21ec2:	2400      	movs	r4, #0
   21ec4:	4628      	mov	r0, r5
   21ec6:	4631      	mov	r1, r6
   21ec8:	4622      	mov	r2, r4
   21eca:	4623      	mov	r3, r4
   21ecc:	df03      	svc	3
   21ece:	4628      	mov	r0, r5
   21ed0:	4631      	mov	r1, r6
   21ed2:	4622      	mov	r2, r4
   21ed4:	4623      	mov	r3, r4
   21ed6:	df03      	svc	3
   21ed8:	aa59      	add	r2, sp, #356	@ 0x164
   21eda:	9216      	str	r2, [sp, #88]	@ 0x58
   21edc:	9815      	ldr	r0, [sp, #84]	@ 0x54
   21ede:	6e40      	ldr	r0, [r0, #100]	@ 0x64
   21ee0:	8010      	strh	r0, [r2, #0]
   21ee2:	4830      	ldr	r0, [pc, #192]	@ (21fa4 <_start+0x1ec0>)
   21ee4:	4468      	add	r0, sp
   21ee6:	7881      	ldrb	r1, [r0, #2]
   21ee8:	7091      	strb	r1, [r2, #2]
   21eea:	78c1      	ldrb	r1, [r0, #3]
   21eec:	9111      	str	r1, [sp, #68]	@ 0x44
   21eee:	7901      	ldrb	r1, [r0, #4]
   21ef0:	9110      	str	r1, [sp, #64]	@ 0x40
   21ef2:	7941      	ldrb	r1, [r0, #5]
   21ef4:	910f      	str	r1, [sp, #60]	@ 0x3c
   21ef6:	7981      	ldrb	r1, [r0, #6]
   21ef8:	910e      	str	r1, [sp, #56]	@ 0x38
   21efa:	1dc1      	adds	r1, r0, #7
   21efc:	482a      	ldr	r0, [pc, #168]	@ (21fa8 <_start+0x1ec4>)
   21efe:	4468      	add	r0, sp
   21f00:	900d      	str	r0, [sp, #52]	@ 0x34
   21f02:	223a      	movs	r2, #58	@ 0x3a
   21f04:	920c      	str	r2, [sp, #48]	@ 0x30
   21f06:	f003 fea8 	bl	25c5a <__aeabi_memcpy>
   21f0a:	4628      	mov	r0, r5
   21f0c:	4631      	mov	r1, r6
   21f0e:	4622      	mov	r2, r4
   21f10:	4623      	mov	r3, r4
   21f12:	df03      	svc	3
   21f14:	2107      	movs	r1, #7
   21f16:	4628      	mov	r0, r5
   21f18:	4622      	mov	r2, r4
   21f1a:	4623      	mov	r3, r4
   21f1c:	df04      	svc	4
   21f1e:	4d21      	ldr	r5, [pc, #132]	@ (21fa4 <_start+0x1ec0>)
   21f20:	446d      	add	r5, sp
   21f22:	1de8      	adds	r0, r5, #7
   21f24:	990d      	ldr	r1, [sp, #52]	@ 0x34
   21f26:	9a0c      	ldr	r2, [sp, #48]	@ 0x30
   21f28:	f003 fe97 	bl	25c5a <__aeabi_memcpy>
   21f2c:	980e      	ldr	r0, [sp, #56]	@ 0x38
   21f2e:	71a8      	strb	r0, [r5, #6]
   21f30:	980f      	ldr	r0, [sp, #60]	@ 0x3c
   21f32:	7168      	strb	r0, [r5, #5]
   21f34:	9810      	ldr	r0, [sp, #64]	@ 0x40
   21f36:	7128      	strb	r0, [r5, #4]
   21f38:	9811      	ldr	r0, [sp, #68]	@ 0x44
   21f3a:	70e8      	strb	r0, [r5, #3]
   21f3c:	9859      	ldr	r0, [sp, #356]	@ 0x164
   21f3e:	8028      	strh	r0, [r5, #0]
   21f40:	9816      	ldr	r0, [sp, #88]	@ 0x58
   21f42:	7880      	ldrb	r0, [r0, #2]
   21f44:	70a8      	strb	r0, [r5, #2]
   21f46:	4818      	ldr	r0, [pc, #96]	@ (21fa8 <_start+0x1ec4>)
   21f48:	4468      	add	r0, sp
   21f4a:	2122      	movs	r1, #34	@ 0x22
   21f4c:	f003 fe38 	bl	25bc0 <__aeabi_memclr4>
   21f50:	4819      	ldr	r0, [pc, #100]	@ (21fb8 <_start+0x1ed4>)
   21f52:	2401      	movs	r4, #1
   21f54:	2341      	movs	r3, #65	@ 0x41
   21f56:	4621      	mov	r1, r4
   21f58:	462a      	mov	r2, r5
   21f5a:	df04      	svc	4
   21f5c:	9116      	str	r1, [sp, #88]	@ 0x58
   21f5e:	2802      	cmp	r0, #2
   21f60:	d010      	beq.n	21f84 <_start+0x1ea0>
   21f62:	4815      	ldr	r0, [pc, #84]	@ (21fb8 <_start+0x1ed4>)
   21f64:	2100      	movs	r1, #0
   21f66:	4a10      	ldr	r2, [pc, #64]	@ (21fa8 <_start+0x1ec4>)
   21f68:	446a      	add	r2, sp
   21f6a:	2322      	movs	r3, #34	@ 0x22
   21f6c:	df03      	svc	3
   21f6e:	9116      	str	r1, [sp, #88]	@ 0x58
   21f70:	2802      	cmp	r0, #2
   21f72:	d007      	beq.n	21f84 <_start+0x1ea0>
   21f74:	4810      	ldr	r0, [pc, #64]	@ (21fb8 <_start+0x1ed4>)
   21f76:	2101      	movs	r1, #1
   21f78:	2200      	movs	r2, #0
   21f7a:	4613      	mov	r3, r2
   21f7c:	df02      	svc	2
   21f7e:	9116      	str	r1, [sp, #88]	@ 0x58
   21f80:	287f      	cmp	r0, #127	@ 0x7f
   21f82:	d81b      	bhi.n	21fbc <_start+0x1ed8>
   21f84:	4d0c      	ldr	r5, [pc, #48]	@ (21fb8 <_start+0x1ed4>)
   21f86:	2600      	movs	r6, #0
   21f88:	4628      	mov	r0, r5
   21f8a:	4631      	mov	r1, r6
   21f8c:	4632      	mov	r2, r6
   21f8e:	4633      	mov	r3, r6
   21f90:	df03      	svc	3
   21f92:	4628      	mov	r0, r5
   21f94:	4621      	mov	r1, r4
   21f96:	4632      	mov	r2, r6
   21f98:	4633      	mov	r3, r6
   21f9a:	df04      	svc	4
   21f9c:	f7fe f8f4 	bl	20188 <_start+0xa4>
   21fa0:	0000032e 	.word	0x0000032e
   21fa4:	000006e8 	.word	0x000006e8
   21fa8:	00000684 	.word	0x00000684
   21fac:	00002095 	.word	0x00002095
   21fb0:	000005b8 	.word	0x000005b8
   21fb4:	0000091d 	.word	0x0000091d
   21fb8:	0000247c 	.word	0x0000247c
   21fbc:	4ca5      	ldr	r4, [pc, #660]	@ (22254 <_start+0x2170>)
   21fbe:	2500      	movs	r5, #0
   21fc0:	4620      	mov	r0, r4
   21fc2:	4629      	mov	r1, r5
   21fc4:	462a      	mov	r2, r5
   21fc6:	462b      	mov	r3, r5
   21fc8:	df03      	svc	3
   21fca:	4620      	mov	r0, r4
   21fcc:	4629      	mov	r1, r5
   21fce:	462a      	mov	r2, r5
   21fd0:	462b      	mov	r3, r5
   21fd2:	df03      	svc	3
   21fd4:	aa5a      	add	r2, sp, #360	@ 0x168
   21fd6:	9216      	str	r2, [sp, #88]	@ 0x58
   21fd8:	9815      	ldr	r0, [sp, #84]	@ 0x54
   21fda:	6800      	ldr	r0, [r0, #0]
   21fdc:	8010      	strh	r0, [r2, #0]
   21fde:	48d6      	ldr	r0, [pc, #856]	@ (22338 <_start+0x2254>)
   21fe0:	4468      	add	r0, sp
   21fe2:	7881      	ldrb	r1, [r0, #2]
   21fe4:	7091      	strb	r1, [r2, #2]
   21fe6:	78c1      	ldrb	r1, [r0, #3]
   21fe8:	9111      	str	r1, [sp, #68]	@ 0x44
   21fea:	7901      	ldrb	r1, [r0, #4]
   21fec:	9110      	str	r1, [sp, #64]	@ 0x40
   21fee:	7941      	ldrb	r1, [r0, #5]
   21ff0:	910f      	str	r1, [sp, #60]	@ 0x3c
   21ff2:	7981      	ldrb	r1, [r0, #6]
   21ff4:	910e      	str	r1, [sp, #56]	@ 0x38
   21ff6:	1dc1      	adds	r1, r0, #7
   21ff8:	aefa      	add	r6, sp, #1000	@ 0x3e8
   21ffa:	221b      	movs	r2, #27
   21ffc:	920d      	str	r2, [sp, #52]	@ 0x34
   21ffe:	4630      	mov	r0, r6
   22000:	f003 fe2b 	bl	25c5a <__aeabi_memcpy>
   22004:	4620      	mov	r0, r4
   22006:	4629      	mov	r1, r5
   22008:	462a      	mov	r2, r5
   2200a:	462b      	mov	r3, r5
   2200c:	df03      	svc	3
   2200e:	2401      	movs	r4, #1
   22010:	48c8      	ldr	r0, [pc, #800]	@ (22334 <_start+0x2250>)
   22012:	4621      	mov	r1, r4
   22014:	462a      	mov	r2, r5
   22016:	462b      	mov	r3, r5
   22018:	df04      	svc	4
   2201a:	4dc8      	ldr	r5, [pc, #800]	@ (2233c <_start+0x2258>)
   2201c:	446d      	add	r5, sp
   2201e:	1de8      	adds	r0, r5, #7
   22020:	4631      	mov	r1, r6
   22022:	9a0d      	ldr	r2, [sp, #52]	@ 0x34
   22024:	f003 fe19 	bl	25c5a <__aeabi_memcpy>
   22028:	980e      	ldr	r0, [sp, #56]	@ 0x38
   2202a:	71a8      	strb	r0, [r5, #6]
   2202c:	980f      	ldr	r0, [sp, #60]	@ 0x3c
   2202e:	7168      	strb	r0, [r5, #5]
   22030:	9810      	ldr	r0, [sp, #64]	@ 0x40
   22032:	7128      	strb	r0, [r5, #4]
   22034:	9811      	ldr	r0, [sp, #68]	@ 0x44
   22036:	70e8      	strb	r0, [r5, #3]
   22038:	985a      	ldr	r0, [sp, #360]	@ 0x168
   2203a:	8028      	strh	r0, [r5, #0]
   2203c:	9816      	ldr	r0, [sp, #88]	@ 0x58
   2203e:	7880      	ldrb	r0, [r0, #2]
   22040:	70a8      	strb	r0, [r5, #2]
   22042:	48bf      	ldr	r0, [pc, #764]	@ (22340 <_start+0x225c>)
   22044:	4468      	add	r0, sp
   22046:	2151      	movs	r1, #81	@ 0x51
   22048:	f003 fdba 	bl	25bc0 <__aeabi_memclr4>
   2204c:	48bd      	ldr	r0, [pc, #756]	@ (22344 <_start+0x2260>)
   2204e:	2109      	movs	r1, #9
   22050:	2322      	movs	r3, #34	@ 0x22
   22052:	462a      	mov	r2, r5
   22054:	df04      	svc	4
   22056:	9116      	str	r1, [sp, #88]	@ 0x58
   22058:	2802      	cmp	r0, #2
   2205a:	d010      	beq.n	2207e <_start+0x1f9a>
   2205c:	48b9      	ldr	r0, [pc, #740]	@ (22344 <_start+0x2260>)
   2205e:	2109      	movs	r1, #9
   22060:	4ab7      	ldr	r2, [pc, #732]	@ (22340 <_start+0x225c>)
   22062:	446a      	add	r2, sp
   22064:	2351      	movs	r3, #81	@ 0x51
   22066:	df03      	svc	3
   22068:	9116      	str	r1, [sp, #88]	@ 0x58
   2206a:	2802      	cmp	r0, #2
   2206c:	d007      	beq.n	2207e <_start+0x1f9a>
   2206e:	48b5      	ldr	r0, [pc, #724]	@ (22344 <_start+0x2260>)
   22070:	2109      	movs	r1, #9
   22072:	2300      	movs	r3, #0
   22074:	460a      	mov	r2, r1
   22076:	df02      	svc	2
   22078:	9116      	str	r1, [sp, #88]	@ 0x58
   2207a:	287f      	cmp	r0, #127	@ 0x7f
   2207c:	d80d      	bhi.n	2209a <_start+0x1fb6>
   2207e:	48b1      	ldr	r0, [pc, #708]	@ (22344 <_start+0x2260>)
   22080:	2609      	movs	r6, #9
   22082:	2500      	movs	r5, #0
   22084:	4631      	mov	r1, r6
   22086:	462a      	mov	r2, r5
   22088:	462b      	mov	r3, r5
   2208a:	df03      	svc	3
   2208c:	48ad      	ldr	r0, [pc, #692]	@ (22344 <_start+0x2260>)
   2208e:	4631      	mov	r1, r6
   22090:	462a      	mov	r2, r5
   22092:	462b      	mov	r3, r5
   22094:	df04      	svc	4
   22096:	f7fe f877 	bl	20188 <_start+0xa4>
   2209a:	48aa      	ldr	r0, [pc, #680]	@ (22344 <_start+0x2260>)
   2209c:	2609      	movs	r6, #9
   2209e:	2500      	movs	r5, #0
   220a0:	4631      	mov	r1, r6
   220a2:	462a      	mov	r2, r5
   220a4:	462b      	mov	r3, r5
   220a6:	df03      	svc	3
   220a8:	48a6      	ldr	r0, [pc, #664]	@ (22344 <_start+0x2260>)
   220aa:	4631      	mov	r1, r6
   220ac:	462a      	mov	r2, r5
   220ae:	462b      	mov	r3, r5
   220b0:	df03      	svc	3
   220b2:	aa5b      	add	r2, sp, #364	@ 0x16c
   220b4:	9216      	str	r2, [sp, #88]	@ 0x58
   220b6:	9815      	ldr	r0, [sp, #84]	@ 0x54
   220b8:	6e40      	ldr	r0, [r0, #100]	@ 0x64
   220ba:	8010      	strh	r0, [r2, #0]
   220bc:	48a0      	ldr	r0, [pc, #640]	@ (22340 <_start+0x225c>)
   220be:	4468      	add	r0, sp
   220c0:	7881      	ldrb	r1, [r0, #2]
   220c2:	7091      	strb	r1, [r2, #2]
   220c4:	78c1      	ldrb	r1, [r0, #3]
   220c6:	9111      	str	r1, [sp, #68]	@ 0x44
   220c8:	7901      	ldrb	r1, [r0, #4]
   220ca:	9110      	str	r1, [sp, #64]	@ 0x40
   220cc:	7941      	ldrb	r1, [r0, #5]
   220ce:	910f      	str	r1, [sp, #60]	@ 0x3c
   220d0:	7981      	ldrb	r1, [r0, #6]
   220d2:	910e      	str	r1, [sp, #56]	@ 0x38
   220d4:	1dc1      	adds	r1, r0, #7
   220d6:	4898      	ldr	r0, [pc, #608]	@ (22338 <_start+0x2254>)
   220d8:	4468      	add	r0, sp
   220da:	900d      	str	r0, [sp, #52]	@ 0x34
   220dc:	224a      	movs	r2, #74	@ 0x4a
   220de:	920c      	str	r2, [sp, #48]	@ 0x30
   220e0:	f003 fdbb 	bl	25c5a <__aeabi_memcpy>
   220e4:	4897      	ldr	r0, [pc, #604]	@ (22344 <_start+0x2260>)
   220e6:	4631      	mov	r1, r6
   220e8:	462a      	mov	r2, r5
   220ea:	462b      	mov	r3, r5
   220ec:	df03      	svc	3
   220ee:	4895      	ldr	r0, [pc, #596]	@ (22344 <_start+0x2260>)
   220f0:	4631      	mov	r1, r6
   220f2:	462a      	mov	r2, r5
   220f4:	462b      	mov	r3, r5
   220f6:	df04      	svc	4
   220f8:	4d91      	ldr	r5, [pc, #580]	@ (22340 <_start+0x225c>)
   220fa:	446d      	add	r5, sp
   220fc:	1de8      	adds	r0, r5, #7
   220fe:	990d      	ldr	r1, [sp, #52]	@ 0x34
   22100:	9a0c      	ldr	r2, [sp, #48]	@ 0x30
   22102:	f003 fdaa 	bl	25c5a <__aeabi_memcpy>
   22106:	980e      	ldr	r0, [sp, #56]	@ 0x38
   22108:	71a8      	strb	r0, [r5, #6]
   2210a:	980f      	ldr	r0, [sp, #60]	@ 0x3c
   2210c:	7168      	strb	r0, [r5, #5]
   2210e:	9810      	ldr	r0, [sp, #64]	@ 0x40
   22110:	7128      	strb	r0, [r5, #4]
   22112:	9811      	ldr	r0, [sp, #68]	@ 0x44
   22114:	70e8      	strb	r0, [r5, #3]
   22116:	985b      	ldr	r0, [sp, #364]	@ 0x16c
   22118:	8028      	strh	r0, [r5, #0]
   2211a:	9816      	ldr	r0, [sp, #88]	@ 0x58
   2211c:	7880      	ldrb	r0, [r0, #2]
   2211e:	70a8      	strb	r0, [r5, #2]
   22120:	4885      	ldr	r0, [pc, #532]	@ (22338 <_start+0x2254>)
   22122:	4468      	add	r0, sp
   22124:	214f      	movs	r1, #79	@ 0x4f
   22126:	f003 fd4b 	bl	25bc0 <__aeabi_memclr4>
   2212a:	4887      	ldr	r0, [pc, #540]	@ (22348 <_start+0x2264>)
   2212c:	2102      	movs	r1, #2
   2212e:	2351      	movs	r3, #81	@ 0x51
   22130:	462a      	mov	r2, r5
   22132:	df04      	svc	4
   22134:	9116      	str	r1, [sp, #88]	@ 0x58
   22136:	2802      	cmp	r0, #2
   22138:	d010      	beq.n	2215c <_start+0x2078>
   2213a:	4883      	ldr	r0, [pc, #524]	@ (22348 <_start+0x2264>)
   2213c:	2104      	movs	r1, #4
   2213e:	4a7e      	ldr	r2, [pc, #504]	@ (22338 <_start+0x2254>)
   22140:	446a      	add	r2, sp
   22142:	234f      	movs	r3, #79	@ 0x4f
   22144:	df03      	svc	3
   22146:	9116      	str	r1, [sp, #88]	@ 0x58
   22148:	2802      	cmp	r0, #2
   2214a:	d007      	beq.n	2215c <_start+0x2078>
   2214c:	487e      	ldr	r0, [pc, #504]	@ (22348 <_start+0x2264>)
   2214e:	2102      	movs	r1, #2
   22150:	2204      	movs	r2, #4
   22152:	2300      	movs	r3, #0
   22154:	df02      	svc	2
   22156:	9116      	str	r1, [sp, #88]	@ 0x58
   22158:	287f      	cmp	r0, #127	@ 0x7f
   2215a:	d80d      	bhi.n	22178 <_start+0x2094>
   2215c:	4d7a      	ldr	r5, [pc, #488]	@ (22348 <_start+0x2264>)
   2215e:	2104      	movs	r1, #4
   22160:	2600      	movs	r6, #0
   22162:	4628      	mov	r0, r5
   22164:	4632      	mov	r2, r6
   22166:	4633      	mov	r3, r6
   22168:	df03      	svc	3
   2216a:	2102      	movs	r1, #2
   2216c:	4628      	mov	r0, r5
   2216e:	4632      	mov	r2, r6
   22170:	4633      	mov	r3, r6
   22172:	df04      	svc	4
   22174:	f7fe f808 	bl	20188 <_start+0xa4>
   22178:	4873      	ldr	r0, [pc, #460]	@ (22348 <_start+0x2264>)
   2217a:	2604      	movs	r6, #4
   2217c:	2500      	movs	r5, #0
   2217e:	4631      	mov	r1, r6
   22180:	462a      	mov	r2, r5
   22182:	462b      	mov	r3, r5
   22184:	df03      	svc	3
   22186:	4870      	ldr	r0, [pc, #448]	@ (22348 <_start+0x2264>)
   22188:	4631      	mov	r1, r6
   2218a:	462a      	mov	r2, r5
   2218c:	462b      	mov	r3, r5
   2218e:	df03      	svc	3
   22190:	aa6e      	add	r2, sp, #440	@ 0x1b8
   22192:	9216      	str	r2, [sp, #88]	@ 0x58
   22194:	9815      	ldr	r0, [sp, #84]	@ 0x54
   22196:	6800      	ldr	r0, [r0, #0]
   22198:	8010      	strh	r0, [r2, #0]
   2219a:	4867      	ldr	r0, [pc, #412]	@ (22338 <_start+0x2254>)
   2219c:	4468      	add	r0, sp
   2219e:	7881      	ldrb	r1, [r0, #2]
   221a0:	7091      	strb	r1, [r2, #2]
   221a2:	78c1      	ldrb	r1, [r0, #3]
   221a4:	9111      	str	r1, [sp, #68]	@ 0x44
   221a6:	7901      	ldrb	r1, [r0, #4]
   221a8:	910e      	str	r1, [sp, #56]	@ 0x38
   221aa:	7941      	ldrb	r1, [r0, #5]
   221ac:	910d      	str	r1, [sp, #52]	@ 0x34
   221ae:	7981      	ldrb	r1, [r0, #6]
   221b0:	910c      	str	r1, [sp, #48]	@ 0x30
   221b2:	1dc1      	adds	r1, r0, #7
   221b4:	a85c      	add	r0, sp, #368	@ 0x170
   221b6:	9010      	str	r0, [sp, #64]	@ 0x40
   221b8:	2248      	movs	r2, #72	@ 0x48
   221ba:	920f      	str	r2, [sp, #60]	@ 0x3c
   221bc:	f003 fd4d 	bl	25c5a <__aeabi_memcpy>
   221c0:	4861      	ldr	r0, [pc, #388]	@ (22348 <_start+0x2264>)
   221c2:	4631      	mov	r1, r6
   221c4:	462a      	mov	r2, r5
   221c6:	462b      	mov	r3, r5
   221c8:	df03      	svc	3
   221ca:	2102      	movs	r1, #2
   221cc:	485e      	ldr	r0, [pc, #376]	@ (22348 <_start+0x2264>)
   221ce:	462a      	mov	r2, r5
   221d0:	462b      	mov	r3, r5
   221d2:	df04      	svc	4
   221d4:	4d5a      	ldr	r5, [pc, #360]	@ (22340 <_start+0x225c>)
   221d6:	446d      	add	r5, sp
   221d8:	980c      	ldr	r0, [sp, #48]	@ 0x30
   221da:	71a8      	strb	r0, [r5, #6]
   221dc:	980d      	ldr	r0, [sp, #52]	@ 0x34
   221de:	7168      	strb	r0, [r5, #5]
   221e0:	980e      	ldr	r0, [sp, #56]	@ 0x38
   221e2:	7128      	strb	r0, [r5, #4]
   221e4:	9811      	ldr	r0, [sp, #68]	@ 0x44
   221e6:	70e8      	strb	r0, [r5, #3]
   221e8:	9816      	ldr	r0, [sp, #88]	@ 0x58
   221ea:	7880      	ldrb	r0, [r0, #2]
   221ec:	70a8      	strb	r0, [r5, #2]
   221ee:	986e      	ldr	r0, [sp, #440]	@ 0x1b8
   221f0:	8028      	strh	r0, [r5, #0]
   221f2:	1de8      	adds	r0, r5, #7
   221f4:	9910      	ldr	r1, [sp, #64]	@ 0x40
   221f6:	9a0f      	ldr	r2, [sp, #60]	@ 0x3c
   221f8:	f003 fd2f 	bl	25c5a <__aeabi_memcpy>
   221fc:	484e      	ldr	r0, [pc, #312]	@ (22338 <_start+0x2254>)
   221fe:	4468      	add	r0, sp
   22200:	213b      	movs	r1, #59	@ 0x3b
   22202:	f003 fcdd 	bl	25bc0 <__aeabi_memclr4>
   22206:	4851      	ldr	r0, [pc, #324]	@ (2234c <_start+0x2268>)
   22208:	2108      	movs	r1, #8
   2220a:	234f      	movs	r3, #79	@ 0x4f
   2220c:	462a      	mov	r2, r5
   2220e:	df04      	svc	4
   22210:	9116      	str	r1, [sp, #88]	@ 0x58
   22212:	2802      	cmp	r0, #2
   22214:	d010      	beq.n	22238 <_start+0x2154>
   22216:	484d      	ldr	r0, [pc, #308]	@ (2234c <_start+0x2268>)
   22218:	2105      	movs	r1, #5
   2221a:	4a47      	ldr	r2, [pc, #284]	@ (22338 <_start+0x2254>)
   2221c:	446a      	add	r2, sp
   2221e:	233b      	movs	r3, #59	@ 0x3b
   22220:	df03      	svc	3
   22222:	9116      	str	r1, [sp, #88]	@ 0x58
   22224:	2802      	cmp	r0, #2
   22226:	d007      	beq.n	22238 <_start+0x2154>
   22228:	4848      	ldr	r0, [pc, #288]	@ (2234c <_start+0x2268>)
   2222a:	2108      	movs	r1, #8
   2222c:	2205      	movs	r2, #5
   2222e:	2300      	movs	r3, #0
   22230:	df02      	svc	2
   22232:	9116      	str	r1, [sp, #88]	@ 0x58
   22234:	287f      	cmp	r0, #127	@ 0x7f
   22236:	d80f      	bhi.n	22258 <_start+0x2174>
   22238:	4d44      	ldr	r5, [pc, #272]	@ (2234c <_start+0x2268>)
   2223a:	2105      	movs	r1, #5
   2223c:	2600      	movs	r6, #0
   2223e:	4628      	mov	r0, r5
   22240:	4632      	mov	r2, r6
   22242:	4633      	mov	r3, r6
   22244:	df03      	svc	3
   22246:	2108      	movs	r1, #8
   22248:	4628      	mov	r0, r5
   2224a:	4632      	mov	r2, r6
   2224c:	4633      	mov	r3, r6
   2224e:	df04      	svc	4
   22250:	f7fd ff9a 	bl	20188 <_start+0xa4>
   22254:	0000247c 	.word	0x0000247c
   22258:	483c      	ldr	r0, [pc, #240]	@ (2234c <_start+0x2268>)
   2225a:	2505      	movs	r5, #5
   2225c:	9516      	str	r5, [sp, #88]	@ 0x58
   2225e:	2600      	movs	r6, #0
   22260:	4629      	mov	r1, r5
   22262:	4632      	mov	r2, r6
   22264:	4633      	mov	r3, r6
   22266:	df03      	svc	3
   22268:	4838      	ldr	r0, [pc, #224]	@ (2234c <_start+0x2268>)
   2226a:	4629      	mov	r1, r5
   2226c:	4632      	mov	r2, r6
   2226e:	4633      	mov	r3, r6
   22270:	df03      	svc	3
   22272:	ad7c      	add	r5, sp, #496	@ 0x1f0
   22274:	9815      	ldr	r0, [sp, #84]	@ 0x54
   22276:	6800      	ldr	r0, [r0, #0]
   22278:	8028      	strh	r0, [r5, #0]
   2227a:	482f      	ldr	r0, [pc, #188]	@ (22338 <_start+0x2254>)
   2227c:	4468      	add	r0, sp
   2227e:	7881      	ldrb	r1, [r0, #2]
   22280:	70a9      	strb	r1, [r5, #2]
   22282:	78c1      	ldrb	r1, [r0, #3]
   22284:	9111      	str	r1, [sp, #68]	@ 0x44
   22286:	7901      	ldrb	r1, [r0, #4]
   22288:	910e      	str	r1, [sp, #56]	@ 0x38
   2228a:	7941      	ldrb	r1, [r0, #5]
   2228c:	910d      	str	r1, [sp, #52]	@ 0x34
   2228e:	7981      	ldrb	r1, [r0, #6]
   22290:	910c      	str	r1, [sp, #48]	@ 0x30
   22292:	1dc1      	adds	r1, r0, #7
   22294:	a86f      	add	r0, sp, #444	@ 0x1bc
   22296:	9010      	str	r0, [sp, #64]	@ 0x40
   22298:	2234      	movs	r2, #52	@ 0x34
   2229a:	920f      	str	r2, [sp, #60]	@ 0x3c
   2229c:	f003 fcdd 	bl	25c5a <__aeabi_memcpy>
   222a0:	482a      	ldr	r0, [pc, #168]	@ (2234c <_start+0x2268>)
   222a2:	9916      	ldr	r1, [sp, #88]	@ 0x58
   222a4:	4632      	mov	r2, r6
   222a6:	4633      	mov	r3, r6
   222a8:	df03      	svc	3
   222aa:	2108      	movs	r1, #8
   222ac:	4827      	ldr	r0, [pc, #156]	@ (2234c <_start+0x2268>)
   222ae:	4632      	mov	r2, r6
   222b0:	4633      	mov	r3, r6
   222b2:	df04      	svc	4
   222b4:	4e22      	ldr	r6, [pc, #136]	@ (22340 <_start+0x225c>)
   222b6:	446e      	add	r6, sp
   222b8:	980c      	ldr	r0, [sp, #48]	@ 0x30
   222ba:	71b0      	strb	r0, [r6, #6]
   222bc:	980d      	ldr	r0, [sp, #52]	@ 0x34
   222be:	7170      	strb	r0, [r6, #5]
   222c0:	980e      	ldr	r0, [sp, #56]	@ 0x38
   222c2:	7130      	strb	r0, [r6, #4]
   222c4:	9811      	ldr	r0, [sp, #68]	@ 0x44
   222c6:	70f0      	strb	r0, [r6, #3]
   222c8:	78a8      	ldrb	r0, [r5, #2]
   222ca:	70b0      	strb	r0, [r6, #2]
   222cc:	987c      	ldr	r0, [sp, #496]	@ 0x1f0
   222ce:	8030      	strh	r0, [r6, #0]
   222d0:	1df0      	adds	r0, r6, #7
   222d2:	9910      	ldr	r1, [sp, #64]	@ 0x40
   222d4:	9a0f      	ldr	r2, [sp, #60]	@ 0x3c
   222d6:	f003 fcc0 	bl	25c5a <__aeabi_memcpy>
   222da:	4817      	ldr	r0, [pc, #92]	@ (22338 <_start+0x2254>)
   222dc:	4468      	add	r0, sp
   222de:	2127      	movs	r1, #39	@ 0x27
   222e0:	f003 fc6e 	bl	25bc0 <__aeabi_memclr4>
   222e4:	481a      	ldr	r0, [pc, #104]	@ (22350 <_start+0x226c>)
   222e6:	233b      	movs	r3, #59	@ 0x3b
   222e8:	9916      	ldr	r1, [sp, #88]	@ 0x58
   222ea:	4632      	mov	r2, r6
   222ec:	df04      	svc	4
   222ee:	9116      	str	r1, [sp, #88]	@ 0x58
   222f0:	2802      	cmp	r0, #2
   222f2:	d010      	beq.n	22316 <_start+0x2232>
   222f4:	4816      	ldr	r0, [pc, #88]	@ (22350 <_start+0x226c>)
   222f6:	2103      	movs	r1, #3
   222f8:	4a0f      	ldr	r2, [pc, #60]	@ (22338 <_start+0x2254>)
   222fa:	446a      	add	r2, sp
   222fc:	2327      	movs	r3, #39	@ 0x27
   222fe:	df03      	svc	3
   22300:	9116      	str	r1, [sp, #88]	@ 0x58
   22302:	2802      	cmp	r0, #2
   22304:	d007      	beq.n	22316 <_start+0x2232>
   22306:	4812      	ldr	r0, [pc, #72]	@ (22350 <_start+0x226c>)
   22308:	2105      	movs	r1, #5
   2230a:	2203      	movs	r2, #3
   2230c:	2300      	movs	r3, #0
   2230e:	df02      	svc	2
   22310:	9116      	str	r1, [sp, #88]	@ 0x58
   22312:	287f      	cmp	r0, #127	@ 0x7f
   22314:	d81e      	bhi.n	22354 <_start+0x2270>
   22316:	4d0e      	ldr	r5, [pc, #56]	@ (22350 <_start+0x226c>)
   22318:	2103      	movs	r1, #3
   2231a:	2600      	movs	r6, #0
   2231c:	4628      	mov	r0, r5
   2231e:	4632      	mov	r2, r6
   22320:	4633      	mov	r3, r6
   22322:	df03      	svc	3
   22324:	2105      	movs	r1, #5
   22326:	4628      	mov	r0, r5
   22328:	4632      	mov	r2, r6
   2232a:	4633      	mov	r3, r6
   2232c:	df04      	svc	4
   2232e:	f7fd ff2b 	bl	20188 <_start+0xa4>
   22332:	46c0      	nop			@ (mov r8, r8)
   22334:	0000247c 	.word	0x0000247c
   22338:	00000684 	.word	0x00000684
   2233c:	000005b8 	.word	0x000005b8
   22340:	000006e8 	.word	0x000006e8
   22344:	0000055e 	.word	0x0000055e
   22348:	00000e16 	.word	0x00000e16
   2234c:	00000a06 	.word	0x00000a06
   22350:	00000bd3 	.word	0x00000bd3
   22354:	48a5      	ldr	r0, [pc, #660]	@ (225ec <_start+0x2508>)
   22356:	2603      	movs	r6, #3
   22358:	2500      	movs	r5, #0
   2235a:	4631      	mov	r1, r6
   2235c:	462a      	mov	r2, r5
   2235e:	462b      	mov	r3, r5
   22360:	df03      	svc	3
   22362:	48da      	ldr	r0, [pc, #872]	@ (226cc <_start+0x25e8>)
   22364:	4631      	mov	r1, r6
   22366:	462a      	mov	r2, r5
   22368:	462b      	mov	r3, r5
   2236a:	df03      	svc	3
   2236c:	aa85      	add	r2, sp, #532	@ 0x214
   2236e:	9216      	str	r2, [sp, #88]	@ 0x58
   22370:	9815      	ldr	r0, [sp, #84]	@ 0x54
   22372:	6800      	ldr	r0, [r0, #0]
   22374:	8010      	strh	r0, [r2, #0]
   22376:	48d6      	ldr	r0, [pc, #856]	@ (226d0 <_start+0x25ec>)
   22378:	4468      	add	r0, sp
   2237a:	7881      	ldrb	r1, [r0, #2]
   2237c:	7091      	strb	r1, [r2, #2]
   2237e:	78c1      	ldrb	r1, [r0, #3]
   22380:	9111      	str	r1, [sp, #68]	@ 0x44
   22382:	7901      	ldrb	r1, [r0, #4]
   22384:	910e      	str	r1, [sp, #56]	@ 0x38
   22386:	7941      	ldrb	r1, [r0, #5]
   22388:	910d      	str	r1, [sp, #52]	@ 0x34
   2238a:	7981      	ldrb	r1, [r0, #6]
   2238c:	910c      	str	r1, [sp, #48]	@ 0x30
   2238e:	1dc1      	adds	r1, r0, #7
   22390:	a87d      	add	r0, sp, #500	@ 0x1f4
   22392:	9010      	str	r0, [sp, #64]	@ 0x40
   22394:	2220      	movs	r2, #32
   22396:	920f      	str	r2, [sp, #60]	@ 0x3c
   22398:	f003 fc5f 	bl	25c5a <__aeabi_memcpy>
   2239c:	48cb      	ldr	r0, [pc, #812]	@ (226cc <_start+0x25e8>)
   2239e:	4631      	mov	r1, r6
   223a0:	462a      	mov	r2, r5
   223a2:	462b      	mov	r3, r5
   223a4:	df03      	svc	3
   223a6:	2105      	movs	r1, #5
   223a8:	48c8      	ldr	r0, [pc, #800]	@ (226cc <_start+0x25e8>)
   223aa:	462a      	mov	r2, r5
   223ac:	462b      	mov	r3, r5
   223ae:	df04      	svc	4
   223b0:	4dc8      	ldr	r5, [pc, #800]	@ (226d4 <_start+0x25f0>)
   223b2:	446d      	add	r5, sp
   223b4:	980c      	ldr	r0, [sp, #48]	@ 0x30
   223b6:	71a8      	strb	r0, [r5, #6]
   223b8:	980d      	ldr	r0, [sp, #52]	@ 0x34
   223ba:	7168      	strb	r0, [r5, #5]
   223bc:	980e      	ldr	r0, [sp, #56]	@ 0x38
   223be:	7128      	strb	r0, [r5, #4]
   223c0:	9811      	ldr	r0, [sp, #68]	@ 0x44
   223c2:	70e8      	strb	r0, [r5, #3]
   223c4:	9816      	ldr	r0, [sp, #88]	@ 0x58
   223c6:	7880      	ldrb	r0, [r0, #2]
   223c8:	70a8      	strb	r0, [r5, #2]
   223ca:	9885      	ldr	r0, [sp, #532]	@ 0x214
   223cc:	8028      	strh	r0, [r5, #0]
   223ce:	1de8      	adds	r0, r5, #7
   223d0:	9910      	ldr	r1, [sp, #64]	@ 0x40
   223d2:	9a0f      	ldr	r2, [sp, #60]	@ 0x3c
   223d4:	f003 fc41 	bl	25c5a <__aeabi_memcpy>
   223d8:	48bd      	ldr	r0, [pc, #756]	@ (226d0 <_start+0x25ec>)
   223da:	4468      	add	r0, sp
   223dc:	2114      	movs	r1, #20
   223de:	f003 fbef 	bl	25bc0 <__aeabi_memclr4>
   223e2:	48bd      	ldr	r0, [pc, #756]	@ (226d8 <_start+0x25f4>)
   223e4:	2106      	movs	r1, #6
   223e6:	2327      	movs	r3, #39	@ 0x27
   223e8:	462a      	mov	r2, r5
   223ea:	df04      	svc	4
   223ec:	9116      	str	r1, [sp, #88]	@ 0x58
   223ee:	2802      	cmp	r0, #2
   223f0:	d010      	beq.n	22414 <_start+0x2330>
   223f2:	48b9      	ldr	r0, [pc, #740]	@ (226d8 <_start+0x25f4>)
   223f4:	2105      	movs	r1, #5
   223f6:	4ab6      	ldr	r2, [pc, #728]	@ (226d0 <_start+0x25ec>)
   223f8:	446a      	add	r2, sp
   223fa:	2314      	movs	r3, #20
   223fc:	df03      	svc	3
   223fe:	9116      	str	r1, [sp, #88]	@ 0x58
   22400:	2802      	cmp	r0, #2
   22402:	d007      	beq.n	22414 <_start+0x2330>
   22404:	48b4      	ldr	r0, [pc, #720]	@ (226d8 <_start+0x25f4>)
   22406:	2106      	movs	r1, #6
   22408:	2205      	movs	r2, #5
   2240a:	2300      	movs	r3, #0
   2240c:	df02      	svc	2
   2240e:	9116      	str	r1, [sp, #88]	@ 0x58
   22410:	287f      	cmp	r0, #127	@ 0x7f
   22412:	d80d      	bhi.n	22430 <_start+0x234c>
   22414:	4db0      	ldr	r5, [pc, #704]	@ (226d8 <_start+0x25f4>)
   22416:	2105      	movs	r1, #5
   22418:	2600      	movs	r6, #0
   2241a:	4628      	mov	r0, r5
   2241c:	4632      	mov	r2, r6
   2241e:	4633      	mov	r3, r6
   22420:	df03      	svc	3
   22422:	2106      	movs	r1, #6
   22424:	4628      	mov	r0, r5
   22426:	4632      	mov	r2, r6
   22428:	4633      	mov	r3, r6
   2242a:	df04      	svc	4
   2242c:	f7fd feac 	bl	20188 <_start+0xa4>
   22430:	48a9      	ldr	r0, [pc, #676]	@ (226d8 <_start+0x25f4>)
   22432:	2605      	movs	r6, #5
   22434:	2500      	movs	r5, #0
   22436:	4631      	mov	r1, r6
   22438:	462a      	mov	r2, r5
   2243a:	462b      	mov	r3, r5
   2243c:	df03      	svc	3
   2243e:	48a6      	ldr	r0, [pc, #664]	@ (226d8 <_start+0x25f4>)
   22440:	4631      	mov	r1, r6
   22442:	462a      	mov	r2, r5
   22444:	462b      	mov	r3, r5
   22446:	df03      	svc	3
   22448:	aa86      	add	r2, sp, #536	@ 0x218
   2244a:	9216      	str	r2, [sp, #88]	@ 0x58
   2244c:	9815      	ldr	r0, [sp, #84]	@ 0x54
   2244e:	6800      	ldr	r0, [r0, #0]
   22450:	8010      	strh	r0, [r2, #0]
   22452:	489f      	ldr	r0, [pc, #636]	@ (226d0 <_start+0x25ec>)
   22454:	4468      	add	r0, sp
   22456:	7881      	ldrb	r1, [r0, #2]
   22458:	7091      	strb	r1, [r2, #2]
   2245a:	78c1      	ldrb	r1, [r0, #3]
   2245c:	9111      	str	r1, [sp, #68]	@ 0x44
   2245e:	7901      	ldrb	r1, [r0, #4]
   22460:	9110      	str	r1, [sp, #64]	@ 0x40
   22462:	7941      	ldrb	r1, [r0, #5]
   22464:	910f      	str	r1, [sp, #60]	@ 0x3c
   22466:	7981      	ldrb	r1, [r0, #6]
   22468:	910e      	str	r1, [sp, #56]	@ 0x38
   2246a:	1dc1      	adds	r1, r0, #7
   2246c:	489b      	ldr	r0, [pc, #620]	@ (226dc <_start+0x25f8>)
   2246e:	4468      	add	r0, sp
   22470:	900d      	str	r0, [sp, #52]	@ 0x34
   22472:	220d      	movs	r2, #13
   22474:	920c      	str	r2, [sp, #48]	@ 0x30
   22476:	f003 fbf0 	bl	25c5a <__aeabi_memcpy>
   2247a:	4897      	ldr	r0, [pc, #604]	@ (226d8 <_start+0x25f4>)
   2247c:	4631      	mov	r1, r6
   2247e:	462a      	mov	r2, r5
   22480:	462b      	mov	r3, r5
   22482:	df03      	svc	3
   22484:	2106      	movs	r1, #6
   22486:	4894      	ldr	r0, [pc, #592]	@ (226d8 <_start+0x25f4>)
   22488:	462a      	mov	r2, r5
   2248a:	462b      	mov	r3, r5
   2248c:	df04      	svc	4
   2248e:	4d90      	ldr	r5, [pc, #576]	@ (226d0 <_start+0x25ec>)
   22490:	446d      	add	r5, sp
   22492:	1de8      	adds	r0, r5, #7
   22494:	990d      	ldr	r1, [sp, #52]	@ 0x34
   22496:	9a0c      	ldr	r2, [sp, #48]	@ 0x30
   22498:	f003 fbdf 	bl	25c5a <__aeabi_memcpy>
   2249c:	980e      	ldr	r0, [sp, #56]	@ 0x38
   2249e:	71a8      	strb	r0, [r5, #6]
   224a0:	980f      	ldr	r0, [sp, #60]	@ 0x3c
   224a2:	7168      	strb	r0, [r5, #5]
   224a4:	9810      	ldr	r0, [sp, #64]	@ 0x40
   224a6:	7128      	strb	r0, [r5, #4]
   224a8:	9811      	ldr	r0, [sp, #68]	@ 0x44
   224aa:	70e8      	strb	r0, [r5, #3]
   224ac:	9886      	ldr	r0, [sp, #536]	@ 0x218
   224ae:	8028      	strh	r0, [r5, #0]
   224b0:	9816      	ldr	r0, [sp, #88]	@ 0x58
   224b2:	7880      	ldrb	r0, [r0, #2]
   224b4:	70a8      	strb	r0, [r5, #2]
   224b6:	4887      	ldr	r0, [pc, #540]	@ (226d4 <_start+0x25f0>)
   224b8:	4468      	add	r0, sp
   224ba:	212b      	movs	r1, #43	@ 0x2b
   224bc:	f003 fb80 	bl	25bc0 <__aeabi_memclr4>
   224c0:	4887      	ldr	r0, [pc, #540]	@ (226e0 <_start+0x25fc>)
   224c2:	2108      	movs	r1, #8
   224c4:	2314      	movs	r3, #20
   224c6:	462a      	mov	r2, r5
   224c8:	df04      	svc	4
   224ca:	9116      	str	r1, [sp, #88]	@ 0x58
   224cc:	2802      	cmp	r0, #2
   224ce:	d010      	beq.n	224f2 <_start+0x240e>
   224d0:	4883      	ldr	r0, [pc, #524]	@ (226e0 <_start+0x25fc>)
   224d2:	2104      	movs	r1, #4
   224d4:	4a7f      	ldr	r2, [pc, #508]	@ (226d4 <_start+0x25f0>)
   224d6:	446a      	add	r2, sp
   224d8:	232b      	movs	r3, #43	@ 0x2b
   224da:	df03      	svc	3
   224dc:	9116      	str	r1, [sp, #88]	@ 0x58
   224de:	2802      	cmp	r0, #2
   224e0:	d007      	beq.n	224f2 <_start+0x240e>
   224e2:	487f      	ldr	r0, [pc, #508]	@ (226e0 <_start+0x25fc>)
   224e4:	2108      	movs	r1, #8
   224e6:	2204      	movs	r2, #4
   224e8:	2300      	movs	r3, #0
   224ea:	df02      	svc	2
   224ec:	9116      	str	r1, [sp, #88]	@ 0x58
   224ee:	287f      	cmp	r0, #127	@ 0x7f
   224f0:	d80d      	bhi.n	2250e <_start+0x242a>
   224f2:	4d7b      	ldr	r5, [pc, #492]	@ (226e0 <_start+0x25fc>)
   224f4:	2104      	movs	r1, #4
   224f6:	2600      	movs	r6, #0
   224f8:	4628      	mov	r0, r5
   224fa:	4632      	mov	r2, r6
   224fc:	4633      	mov	r3, r6
   224fe:	df03      	svc	3
   22500:	2108      	movs	r1, #8
   22502:	4628      	mov	r0, r5
   22504:	4632      	mov	r2, r6
   22506:	4633      	mov	r3, r6
   22508:	df04      	svc	4
   2250a:	f7fd fe3d 	bl	20188 <_start+0xa4>
   2250e:	4874      	ldr	r0, [pc, #464]	@ (226e0 <_start+0x25fc>)
   22510:	2604      	movs	r6, #4
   22512:	2500      	movs	r5, #0
   22514:	4631      	mov	r1, r6
   22516:	462a      	mov	r2, r5
   22518:	462b      	mov	r3, r5
   2251a:	df03      	svc	3
   2251c:	4870      	ldr	r0, [pc, #448]	@ (226e0 <_start+0x25fc>)
   2251e:	4631      	mov	r1, r6
   22520:	462a      	mov	r2, r5
   22522:	462b      	mov	r3, r5
   22524:	df03      	svc	3
   22526:	aa90      	add	r2, sp, #576	@ 0x240
   22528:	9216      	str	r2, [sp, #88]	@ 0x58
   2252a:	9815      	ldr	r0, [sp, #84]	@ 0x54
   2252c:	6e40      	ldr	r0, [r0, #100]	@ 0x64
   2252e:	8010      	strh	r0, [r2, #0]
   22530:	4868      	ldr	r0, [pc, #416]	@ (226d4 <_start+0x25f0>)
   22532:	4468      	add	r0, sp
   22534:	7881      	ldrb	r1, [r0, #2]
   22536:	7091      	strb	r1, [r2, #2]
   22538:	78c1      	ldrb	r1, [r0, #3]
   2253a:	9111      	str	r1, [sp, #68]	@ 0x44
   2253c:	7901      	ldrb	r1, [r0, #4]
   2253e:	910e      	str	r1, [sp, #56]	@ 0x38
   22540:	7941      	ldrb	r1, [r0, #5]
   22542:	910d      	str	r1, [sp, #52]	@ 0x34
   22544:	7981      	ldrb	r1, [r0, #6]
   22546:	910c      	str	r1, [sp, #48]	@ 0x30
   22548:	1dc1      	adds	r1, r0, #7
   2254a:	a887      	add	r0, sp, #540	@ 0x21c
   2254c:	9010      	str	r0, [sp, #64]	@ 0x40
   2254e:	2224      	movs	r2, #36	@ 0x24
   22550:	920f      	str	r2, [sp, #60]	@ 0x3c
   22552:	f003 fb82 	bl	25c5a <__aeabi_memcpy>
   22556:	4862      	ldr	r0, [pc, #392]	@ (226e0 <_start+0x25fc>)
   22558:	4631      	mov	r1, r6
   2255a:	462a      	mov	r2, r5
   2255c:	462b      	mov	r3, r5
   2255e:	df03      	svc	3
   22560:	2108      	movs	r1, #8
   22562:	485f      	ldr	r0, [pc, #380]	@ (226e0 <_start+0x25fc>)
   22564:	462a      	mov	r2, r5
   22566:	462b      	mov	r3, r5
   22568:	df04      	svc	4
   2256a:	4d5a      	ldr	r5, [pc, #360]	@ (226d4 <_start+0x25f0>)
   2256c:	446d      	add	r5, sp
   2256e:	980c      	ldr	r0, [sp, #48]	@ 0x30
   22570:	71a8      	strb	r0, [r5, #6]
   22572:	980d      	ldr	r0, [sp, #52]	@ 0x34
   22574:	7168      	strb	r0, [r5, #5]
   22576:	980e      	ldr	r0, [sp, #56]	@ 0x38
   22578:	7128      	strb	r0, [r5, #4]
   2257a:	9811      	ldr	r0, [sp, #68]	@ 0x44
   2257c:	70e8      	strb	r0, [r5, #3]
   2257e:	9816      	ldr	r0, [sp, #88]	@ 0x58
   22580:	7880      	ldrb	r0, [r0, #2]
   22582:	70a8      	strb	r0, [r5, #2]
   22584:	9890      	ldr	r0, [sp, #576]	@ 0x240
   22586:	8028      	strh	r0, [r5, #0]
   22588:	1de8      	adds	r0, r5, #7
   2258a:	9910      	ldr	r1, [sp, #64]	@ 0x40
   2258c:	9a0f      	ldr	r2, [sp, #60]	@ 0x3c
   2258e:	f003 fb64 	bl	25c5a <__aeabi_memcpy>
   22592:	484f      	ldr	r0, [pc, #316]	@ (226d0 <_start+0x25ec>)
   22594:	4468      	add	r0, sp
   22596:	211e      	movs	r1, #30
   22598:	f003 fb12 	bl	25bc0 <__aeabi_memclr4>
   2259c:	4851      	ldr	r0, [pc, #324]	@ (226e4 <_start+0x2600>)
   2259e:	2107      	movs	r1, #7
   225a0:	232b      	movs	r3, #43	@ 0x2b
   225a2:	462a      	mov	r2, r5
   225a4:	df04      	svc	4
   225a6:	9116      	str	r1, [sp, #88]	@ 0x58
   225a8:	2802      	cmp	r0, #2
   225aa:	d010      	beq.n	225ce <_start+0x24ea>
   225ac:	484d      	ldr	r0, [pc, #308]	@ (226e4 <_start+0x2600>)
   225ae:	2108      	movs	r1, #8
   225b0:	4a47      	ldr	r2, [pc, #284]	@ (226d0 <_start+0x25ec>)
   225b2:	446a      	add	r2, sp
   225b4:	231e      	movs	r3, #30
   225b6:	df03      	svc	3
   225b8:	9116      	str	r1, [sp, #88]	@ 0x58
   225ba:	2802      	cmp	r0, #2
   225bc:	d007      	beq.n	225ce <_start+0x24ea>
   225be:	4849      	ldr	r0, [pc, #292]	@ (226e4 <_start+0x2600>)
   225c0:	2107      	movs	r1, #7
   225c2:	2208      	movs	r2, #8
   225c4:	2300      	movs	r3, #0
   225c6:	df02      	svc	2
   225c8:	9116      	str	r1, [sp, #88]	@ 0x58
   225ca:	287f      	cmp	r0, #127	@ 0x7f
   225cc:	d810      	bhi.n	225f0 <_start+0x250c>
   225ce:	4d45      	ldr	r5, [pc, #276]	@ (226e4 <_start+0x2600>)
   225d0:	2108      	movs	r1, #8
   225d2:	2600      	movs	r6, #0
   225d4:	4628      	mov	r0, r5
   225d6:	4632      	mov	r2, r6
   225d8:	4633      	mov	r3, r6
   225da:	df03      	svc	3
   225dc:	2107      	movs	r1, #7
   225de:	4628      	mov	r0, r5
   225e0:	4632      	mov	r2, r6
   225e2:	4633      	mov	r3, r6
   225e4:	df04      	svc	4
   225e6:	f7fd fdcf 	bl	20188 <_start+0xa4>
   225ea:	46c0      	nop			@ (mov r8, r8)
   225ec:	00000bd3 	.word	0x00000bd3
   225f0:	483c      	ldr	r0, [pc, #240]	@ (226e4 <_start+0x2600>)
   225f2:	2608      	movs	r6, #8
   225f4:	2500      	movs	r5, #0
   225f6:	4631      	mov	r1, r6
   225f8:	462a      	mov	r2, r5
   225fa:	462b      	mov	r3, r5
   225fc:	df03      	svc	3
   225fe:	4839      	ldr	r0, [pc, #228]	@ (226e4 <_start+0x2600>)
   22600:	4631      	mov	r1, r6
   22602:	462a      	mov	r2, r5
   22604:	462b      	mov	r3, r5
   22606:	df03      	svc	3
   22608:	aa91      	add	r2, sp, #580	@ 0x244
   2260a:	9216      	str	r2, [sp, #88]	@ 0x58
   2260c:	9815      	ldr	r0, [sp, #84]	@ 0x54
   2260e:	6800      	ldr	r0, [r0, #0]
   22610:	8010      	strh	r0, [r2, #0]
   22612:	482f      	ldr	r0, [pc, #188]	@ (226d0 <_start+0x25ec>)
   22614:	4468      	add	r0, sp
   22616:	7881      	ldrb	r1, [r0, #2]
   22618:	7091      	strb	r1, [r2, #2]
   2261a:	78c1      	ldrb	r1, [r0, #3]
   2261c:	9111      	str	r1, [sp, #68]	@ 0x44
   2261e:	7901      	ldrb	r1, [r0, #4]
   22620:	9110      	str	r1, [sp, #64]	@ 0x40
   22622:	7941      	ldrb	r1, [r0, #5]
   22624:	910f      	str	r1, [sp, #60]	@ 0x3c
   22626:	7981      	ldrb	r1, [r0, #6]
   22628:	910e      	str	r1, [sp, #56]	@ 0x38
   2262a:	1dc1      	adds	r1, r0, #7
   2262c:	a8fa      	add	r0, sp, #1000	@ 0x3e8
   2262e:	900d      	str	r0, [sp, #52]	@ 0x34
   22630:	2217      	movs	r2, #23
   22632:	920c      	str	r2, [sp, #48]	@ 0x30
   22634:	f003 fb11 	bl	25c5a <__aeabi_memcpy>
   22638:	482a      	ldr	r0, [pc, #168]	@ (226e4 <_start+0x2600>)
   2263a:	4631      	mov	r1, r6
   2263c:	462a      	mov	r2, r5
   2263e:	462b      	mov	r3, r5
   22640:	df03      	svc	3
   22642:	2107      	movs	r1, #7
   22644:	4827      	ldr	r0, [pc, #156]	@ (226e4 <_start+0x2600>)
   22646:	462a      	mov	r2, r5
   22648:	462b      	mov	r3, r5
   2264a:	df04      	svc	4
   2264c:	4d23      	ldr	r5, [pc, #140]	@ (226dc <_start+0x25f8>)
   2264e:	446d      	add	r5, sp
   22650:	1de8      	adds	r0, r5, #7
   22652:	990d      	ldr	r1, [sp, #52]	@ 0x34
   22654:	9a0c      	ldr	r2, [sp, #48]	@ 0x30
   22656:	f003 fb00 	bl	25c5a <__aeabi_memcpy>
   2265a:	980e      	ldr	r0, [sp, #56]	@ 0x38
   2265c:	71a8      	strb	r0, [r5, #6]
   2265e:	980f      	ldr	r0, [sp, #60]	@ 0x3c
   22660:	7168      	strb	r0, [r5, #5]
   22662:	9810      	ldr	r0, [sp, #64]	@ 0x40
   22664:	7128      	strb	r0, [r5, #4]
   22666:	9811      	ldr	r0, [sp, #68]	@ 0x44
   22668:	70e8      	strb	r0, [r5, #3]
   2266a:	9891      	ldr	r0, [sp, #580]	@ 0x244
   2266c:	8028      	strh	r0, [r5, #0]
   2266e:	9816      	ldr	r0, [sp, #88]	@ 0x58
   22670:	7880      	ldrb	r0, [r0, #2]
   22672:	70a8      	strb	r0, [r5, #2]
   22674:	4817      	ldr	r0, [pc, #92]	@ (226d4 <_start+0x25f0>)
   22676:	4468      	add	r0, sp
   22678:	2151      	movs	r1, #81	@ 0x51
   2267a:	f003 faa1 	bl	25bc0 <__aeabi_memclr4>
   2267e:	481a      	ldr	r0, [pc, #104]	@ (226e8 <_start+0x2604>)
   22680:	2102      	movs	r1, #2
   22682:	231e      	movs	r3, #30
   22684:	462a      	mov	r2, r5
   22686:	df04      	svc	4
   22688:	9116      	str	r1, [sp, #88]	@ 0x58
   2268a:	2802      	cmp	r0, #2
   2268c:	d010      	beq.n	226b0 <_start+0x25cc>
   2268e:	4816      	ldr	r0, [pc, #88]	@ (226e8 <_start+0x2604>)
   22690:	2100      	movs	r1, #0
   22692:	4a10      	ldr	r2, [pc, #64]	@ (226d4 <_start+0x25f0>)
   22694:	446a      	add	r2, sp
   22696:	2351      	movs	r3, #81	@ 0x51
   22698:	df03      	svc	3
   2269a:	9116      	str	r1, [sp, #88]	@ 0x58
   2269c:	2802      	cmp	r0, #2
   2269e:	d007      	beq.n	226b0 <_start+0x25cc>
   226a0:	4811      	ldr	r0, [pc, #68]	@ (226e8 <_start+0x2604>)
   226a2:	2102      	movs	r1, #2
   226a4:	2200      	movs	r2, #0
   226a6:	4613      	mov	r3, r2
   226a8:	df02      	svc	2
   226aa:	9116      	str	r1, [sp, #88]	@ 0x58
   226ac:	287f      	cmp	r0, #127	@ 0x7f
   226ae:	d81d      	bhi.n	226ec <_start+0x2608>
   226b0:	4d0d      	ldr	r5, [pc, #52]	@ (226e8 <_start+0x2604>)
   226b2:	2600      	movs	r6, #0
   226b4:	4628      	mov	r0, r5
   226b6:	4631      	mov	r1, r6
   226b8:	4632      	mov	r2, r6
   226ba:	4633      	mov	r3, r6
   226bc:	df03      	svc	3
   226be:	2102      	movs	r1, #2
   226c0:	4628      	mov	r0, r5
   226c2:	4632      	mov	r2, r6
   226c4:	4633      	mov	r3, r6
   226c6:	df04      	svc	4
   226c8:	f7fd fd5e 	bl	20188 <_start+0xa4>
   226cc:	00000bd3 	.word	0x00000bd3
   226d0:	00000684 	.word	0x00000684
   226d4:	000006e8 	.word	0x000006e8
   226d8:	000022c9 	.word	0x000022c9
   226dc:	000005b8 	.word	0x000005b8
   226e0:	0000239f 	.word	0x0000239f
   226e4:	000007e3 	.word	0x000007e3
   226e8:	0000196b 	.word	0x0000196b
   226ec:	4eb2      	ldr	r6, [pc, #712]	@ (229b8 <_start+0x28d4>)
   226ee:	2500      	movs	r5, #0
   226f0:	4630      	mov	r0, r6
   226f2:	4629      	mov	r1, r5
   226f4:	462a      	mov	r2, r5
   226f6:	462b      	mov	r3, r5
   226f8:	df03      	svc	3
   226fa:	4630      	mov	r0, r6
   226fc:	4629      	mov	r1, r5
   226fe:	462a      	mov	r2, r5
   22700:	462b      	mov	r3, r5
   22702:	df03      	svc	3
   22704:	aa92      	add	r2, sp, #584	@ 0x248
   22706:	9216      	str	r2, [sp, #88]	@ 0x58
   22708:	9815      	ldr	r0, [sp, #84]	@ 0x54
   2270a:	6e40      	ldr	r0, [r0, #100]	@ 0x64
   2270c:	8010      	strh	r0, [r2, #0]
   2270e:	48ab      	ldr	r0, [pc, #684]	@ (229bc <_start+0x28d8>)
   22710:	4468      	add	r0, sp
   22712:	7881      	ldrb	r1, [r0, #2]
   22714:	7091      	strb	r1, [r2, #2]
   22716:	78c1      	ldrb	r1, [r0, #3]
   22718:	9111      	str	r1, [sp, #68]	@ 0x44
   2271a:	7901      	ldrb	r1, [r0, #4]
   2271c:	9110      	str	r1, [sp, #64]	@ 0x40
   2271e:	7941      	ldrb	r1, [r0, #5]
   22720:	910f      	str	r1, [sp, #60]	@ 0x3c
   22722:	7981      	ldrb	r1, [r0, #6]
   22724:	910e      	str	r1, [sp, #56]	@ 0x38
   22726:	1dc1      	adds	r1, r0, #7
   22728:	48a5      	ldr	r0, [pc, #660]	@ (229c0 <_start+0x28dc>)
   2272a:	4468      	add	r0, sp
   2272c:	900d      	str	r0, [sp, #52]	@ 0x34
   2272e:	224a      	movs	r2, #74	@ 0x4a
   22730:	920c      	str	r2, [sp, #48]	@ 0x30
   22732:	f003 fa92 	bl	25c5a <__aeabi_memcpy>
   22736:	4630      	mov	r0, r6
   22738:	4629      	mov	r1, r5
   2273a:	462a      	mov	r2, r5
   2273c:	462b      	mov	r3, r5
   2273e:	df03      	svc	3
   22740:	2102      	movs	r1, #2
   22742:	4630      	mov	r0, r6
   22744:	462a      	mov	r2, r5
   22746:	462b      	mov	r3, r5
   22748:	df04      	svc	4
   2274a:	4e9c      	ldr	r6, [pc, #624]	@ (229bc <_start+0x28d8>)
   2274c:	446e      	add	r6, sp
   2274e:	1df0      	adds	r0, r6, #7
   22750:	990d      	ldr	r1, [sp, #52]	@ 0x34
   22752:	9a0c      	ldr	r2, [sp, #48]	@ 0x30
   22754:	f003 fa81 	bl	25c5a <__aeabi_memcpy>
   22758:	980e      	ldr	r0, [sp, #56]	@ 0x38
   2275a:	71b0      	strb	r0, [r6, #6]
   2275c:	980f      	ldr	r0, [sp, #60]	@ 0x3c
   2275e:	7170      	strb	r0, [r6, #5]
   22760:	9810      	ldr	r0, [sp, #64]	@ 0x40
   22762:	7130      	strb	r0, [r6, #4]
   22764:	9811      	ldr	r0, [sp, #68]	@ 0x44
   22766:	70f0      	strb	r0, [r6, #3]
   22768:	9892      	ldr	r0, [sp, #584]	@ 0x248
   2276a:	8030      	strh	r0, [r6, #0]
   2276c:	9816      	ldr	r0, [sp, #88]	@ 0x58
   2276e:	7880      	ldrb	r0, [r0, #2]
   22770:	70b0      	strb	r0, [r6, #2]
   22772:	4893      	ldr	r0, [pc, #588]	@ (229c0 <_start+0x28dc>)
   22774:	4468      	add	r0, sp
   22776:	210f      	movs	r1, #15
   22778:	f003 fa22 	bl	25bc0 <__aeabi_memclr4>
   2277c:	4891      	ldr	r0, [pc, #580]	@ (229c4 <_start+0x28e0>)
   2277e:	2351      	movs	r3, #81	@ 0x51
   22780:	4629      	mov	r1, r5
   22782:	4632      	mov	r2, r6
   22784:	df04      	svc	4
   22786:	9116      	str	r1, [sp, #88]	@ 0x58
   22788:	2802      	cmp	r0, #2
   2278a:	d010      	beq.n	227ae <_start+0x26ca>
   2278c:	488d      	ldr	r0, [pc, #564]	@ (229c4 <_start+0x28e0>)
   2278e:	2103      	movs	r1, #3
   22790:	4a8b      	ldr	r2, [pc, #556]	@ (229c0 <_start+0x28dc>)
   22792:	446a      	add	r2, sp
   22794:	230f      	movs	r3, #15
   22796:	df03      	svc	3
   22798:	9116      	str	r1, [sp, #88]	@ 0x58
   2279a:	2802      	cmp	r0, #2
   2279c:	d007      	beq.n	227ae <_start+0x26ca>
   2279e:	4889      	ldr	r0, [pc, #548]	@ (229c4 <_start+0x28e0>)
   227a0:	2203      	movs	r2, #3
   227a2:	2100      	movs	r1, #0
   227a4:	460b      	mov	r3, r1
   227a6:	df02      	svc	2
   227a8:	9116      	str	r1, [sp, #88]	@ 0x58
   227aa:	287f      	cmp	r0, #127	@ 0x7f
   227ac:	d80d      	bhi.n	227ca <_start+0x26e6>
   227ae:	4d85      	ldr	r5, [pc, #532]	@ (229c4 <_start+0x28e0>)
   227b0:	2103      	movs	r1, #3
   227b2:	2600      	movs	r6, #0
   227b4:	4628      	mov	r0, r5
   227b6:	4632      	mov	r2, r6
   227b8:	4633      	mov	r3, r6
   227ba:	df03      	svc	3
   227bc:	4628      	mov	r0, r5
   227be:	4631      	mov	r1, r6
   227c0:	4632      	mov	r2, r6
   227c2:	4633      	mov	r3, r6
   227c4:	df04      	svc	4
   227c6:	f7fd fcdf 	bl	20188 <_start+0xa4>
   227ca:	9807      	ldr	r0, [sp, #28]
   227cc:	1cc5      	adds	r5, r0, #3
   227ce:	9806      	ldr	r0, [sp, #24]
   227d0:	1cc6      	adds	r6, r0, #3
   227d2:	487c      	ldr	r0, [pc, #496]	@ (229c4 <_start+0x28e0>)
   227d4:	2103      	movs	r1, #3
   227d6:	9111      	str	r1, [sp, #68]	@ 0x44
   227d8:	2200      	movs	r2, #0
   227da:	9216      	str	r2, [sp, #88]	@ 0x58
   227dc:	9b16      	ldr	r3, [sp, #88]	@ 0x58
   227de:	df03      	svc	3
   227e0:	4878      	ldr	r0, [pc, #480]	@ (229c4 <_start+0x28e0>)
   227e2:	9911      	ldr	r1, [sp, #68]	@ 0x44
   227e4:	9a16      	ldr	r2, [sp, #88]	@ 0x58
   227e6:	9b16      	ldr	r3, [sp, #88]	@ 0x58
   227e8:	df03      	svc	3
   227ea:	a993      	add	r1, sp, #588	@ 0x24c
   227ec:	9110      	str	r1, [sp, #64]	@ 0x40
   227ee:	9815      	ldr	r0, [sp, #84]	@ 0x54
   227f0:	6800      	ldr	r0, [r0, #0]
   227f2:	8008      	strh	r0, [r1, #0]
   227f4:	4872      	ldr	r0, [pc, #456]	@ (229c0 <_start+0x28dc>)
   227f6:	4468      	add	r0, sp
   227f8:	7880      	ldrb	r0, [r0, #2]
   227fa:	7088      	strb	r0, [r1, #2]
   227fc:	7828      	ldrb	r0, [r5, #0]
   227fe:	900f      	str	r0, [sp, #60]	@ 0x3c
   22800:	7868      	ldrb	r0, [r5, #1]
   22802:	900e      	str	r0, [sp, #56]	@ 0x38
   22804:	78a8      	ldrb	r0, [r5, #2]
   22806:	900d      	str	r0, [sp, #52]	@ 0x34
   22808:	78e8      	ldrb	r0, [r5, #3]
   2280a:	900c      	str	r0, [sp, #48]	@ 0x30
   2280c:	7928      	ldrb	r0, [r5, #4]
   2280e:	900b      	str	r0, [sp, #44]	@ 0x2c
   22810:	7968      	ldrb	r0, [r5, #5]
   22812:	900a      	str	r0, [sp, #40]	@ 0x28
   22814:	79a8      	ldrb	r0, [r5, #6]
   22816:	9009      	str	r0, [sp, #36]	@ 0x24
   22818:	79e8      	ldrb	r0, [r5, #7]
   2281a:	9007      	str	r0, [sp, #28]
   2281c:	7a28      	ldrb	r0, [r5, #8]
   2281e:	9006      	str	r0, [sp, #24]
   22820:	7a68      	ldrb	r0, [r5, #9]
   22822:	9005      	str	r0, [sp, #20]
   22824:	7aa8      	ldrb	r0, [r5, #10]
   22826:	9004      	str	r0, [sp, #16]
   22828:	7ae8      	ldrb	r0, [r5, #11]
   2282a:	9003      	str	r0, [sp, #12]
   2282c:	4865      	ldr	r0, [pc, #404]	@ (229c4 <_start+0x28e0>)
   2282e:	9911      	ldr	r1, [sp, #68]	@ 0x44
   22830:	9d16      	ldr	r5, [sp, #88]	@ 0x58
   22832:	462a      	mov	r2, r5
   22834:	462b      	mov	r3, r5
   22836:	df03      	svc	3
   22838:	4862      	ldr	r0, [pc, #392]	@ (229c4 <_start+0x28e0>)
   2283a:	4629      	mov	r1, r5
   2283c:	462a      	mov	r2, r5
   2283e:	462b      	mov	r3, r5
   22840:	df04      	svc	4
   22842:	9803      	ldr	r0, [sp, #12]
   22844:	72f0      	strb	r0, [r6, #11]
   22846:	9804      	ldr	r0, [sp, #16]
   22848:	72b0      	strb	r0, [r6, #10]
   2284a:	9805      	ldr	r0, [sp, #20]
   2284c:	7270      	strb	r0, [r6, #9]
   2284e:	9806      	ldr	r0, [sp, #24]
   22850:	7230      	strb	r0, [r6, #8]
   22852:	9807      	ldr	r0, [sp, #28]
   22854:	71f0      	strb	r0, [r6, #7]
   22856:	9809      	ldr	r0, [sp, #36]	@ 0x24
   22858:	71b0      	strb	r0, [r6, #6]
   2285a:	980a      	ldr	r0, [sp, #40]	@ 0x28
   2285c:	7170      	strb	r0, [r6, #5]
   2285e:	980b      	ldr	r0, [sp, #44]	@ 0x2c
   22860:	7130      	strb	r0, [r6, #4]
   22862:	980c      	ldr	r0, [sp, #48]	@ 0x30
   22864:	70f0      	strb	r0, [r6, #3]
   22866:	980d      	ldr	r0, [sp, #52]	@ 0x34
   22868:	70b0      	strb	r0, [r6, #2]
   2286a:	980e      	ldr	r0, [sp, #56]	@ 0x38
   2286c:	7070      	strb	r0, [r6, #1]
   2286e:	980f      	ldr	r0, [sp, #60]	@ 0x3c
   22870:	7030      	strb	r0, [r6, #0]
   22872:	9810      	ldr	r0, [sp, #64]	@ 0x40
   22874:	7880      	ldrb	r0, [r0, #2]
   22876:	4d54      	ldr	r5, [pc, #336]	@ (229c8 <_start+0x28e4>)
   22878:	446d      	add	r5, sp
   2287a:	70a8      	strb	r0, [r5, #2]
   2287c:	9893      	ldr	r0, [sp, #588]	@ 0x24c
   2287e:	8028      	strh	r0, [r5, #0]
   22880:	484e      	ldr	r0, [pc, #312]	@ (229bc <_start+0x28d8>)
   22882:	4468      	add	r0, sp
   22884:	2146      	movs	r1, #70	@ 0x46
   22886:	f003 f99b 	bl	25bc0 <__aeabi_memclr4>
   2288a:	4850      	ldr	r0, [pc, #320]	@ (229cc <_start+0x28e8>)
   2288c:	2109      	movs	r1, #9
   2288e:	230f      	movs	r3, #15
   22890:	462a      	mov	r2, r5
   22892:	df04      	svc	4
   22894:	9116      	str	r1, [sp, #88]	@ 0x58
   22896:	2802      	cmp	r0, #2
   22898:	d010      	beq.n	228bc <_start+0x27d8>
   2289a:	484c      	ldr	r0, [pc, #304]	@ (229cc <_start+0x28e8>)
   2289c:	2102      	movs	r1, #2
   2289e:	4a47      	ldr	r2, [pc, #284]	@ (229bc <_start+0x28d8>)
   228a0:	446a      	add	r2, sp
   228a2:	2346      	movs	r3, #70	@ 0x46
   228a4:	df03      	svc	3
   228a6:	9116      	str	r1, [sp, #88]	@ 0x58
   228a8:	2802      	cmp	r0, #2
   228aa:	d007      	beq.n	228bc <_start+0x27d8>
   228ac:	4847      	ldr	r0, [pc, #284]	@ (229cc <_start+0x28e8>)
   228ae:	2109      	movs	r1, #9
   228b0:	2202      	movs	r2, #2
   228b2:	2300      	movs	r3, #0
   228b4:	df02      	svc	2
   228b6:	9116      	str	r1, [sp, #88]	@ 0x58
   228b8:	287f      	cmp	r0, #127	@ 0x7f
   228ba:	d80d      	bhi.n	228d8 <_start+0x27f4>
   228bc:	4d43      	ldr	r5, [pc, #268]	@ (229cc <_start+0x28e8>)
   228be:	2102      	movs	r1, #2
   228c0:	2600      	movs	r6, #0
   228c2:	4628      	mov	r0, r5
   228c4:	4632      	mov	r2, r6
   228c6:	4633      	mov	r3, r6
   228c8:	df03      	svc	3
   228ca:	2109      	movs	r1, #9
   228cc:	4628      	mov	r0, r5
   228ce:	4632      	mov	r2, r6
   228d0:	4633      	mov	r3, r6
   228d2:	df04      	svc	4
   228d4:	f7fd fc58 	bl	20188 <_start+0xa4>
   228d8:	483c      	ldr	r0, [pc, #240]	@ (229cc <_start+0x28e8>)
   228da:	2602      	movs	r6, #2
   228dc:	2500      	movs	r5, #0
   228de:	4631      	mov	r1, r6
   228e0:	462a      	mov	r2, r5
   228e2:	462b      	mov	r3, r5
   228e4:	df03      	svc	3
   228e6:	4839      	ldr	r0, [pc, #228]	@ (229cc <_start+0x28e8>)
   228e8:	4631      	mov	r1, r6
   228ea:	462a      	mov	r2, r5
   228ec:	462b      	mov	r3, r5
   228ee:	df03      	svc	3
   228f0:	aa94      	add	r2, sp, #592	@ 0x250
   228f2:	9216      	str	r2, [sp, #88]	@ 0x58
   228f4:	9815      	ldr	r0, [sp, #84]	@ 0x54
   228f6:	6e40      	ldr	r0, [r0, #100]	@ 0x64
   228f8:	8010      	strh	r0, [r2, #0]
   228fa:	4830      	ldr	r0, [pc, #192]	@ (229bc <_start+0x28d8>)
   228fc:	4468      	add	r0, sp
   228fe:	7881      	ldrb	r1, [r0, #2]
   22900:	7091      	strb	r1, [r2, #2]
   22902:	78c1      	ldrb	r1, [r0, #3]
   22904:	9111      	str	r1, [sp, #68]	@ 0x44
   22906:	7901      	ldrb	r1, [r0, #4]
   22908:	9110      	str	r1, [sp, #64]	@ 0x40
   2290a:	7941      	ldrb	r1, [r0, #5]
   2290c:	910f      	str	r1, [sp, #60]	@ 0x3c
   2290e:	7981      	ldrb	r1, [r0, #6]
   22910:	910e      	str	r1, [sp, #56]	@ 0x38
   22912:	1dc1      	adds	r1, r0, #7
   22914:	482a      	ldr	r0, [pc, #168]	@ (229c0 <_start+0x28dc>)
   22916:	4468      	add	r0, sp
   22918:	900d      	str	r0, [sp, #52]	@ 0x34
   2291a:	223f      	movs	r2, #63	@ 0x3f
   2291c:	920c      	str	r2, [sp, #48]	@ 0x30
   2291e:	f003 f99c 	bl	25c5a <__aeabi_memcpy>
   22922:	482a      	ldr	r0, [pc, #168]	@ (229cc <_start+0x28e8>)
   22924:	4631      	mov	r1, r6
   22926:	462a      	mov	r2, r5
   22928:	462b      	mov	r3, r5
   2292a:	df03      	svc	3
   2292c:	2109      	movs	r1, #9
   2292e:	4827      	ldr	r0, [pc, #156]	@ (229cc <_start+0x28e8>)
   22930:	462a      	mov	r2, r5
   22932:	462b      	mov	r3, r5
   22934:	df04      	svc	4
   22936:	4d24      	ldr	r5, [pc, #144]	@ (229c8 <_start+0x28e4>)
   22938:	446d      	add	r5, sp
   2293a:	1de8      	adds	r0, r5, #7
   2293c:	990d      	ldr	r1, [sp, #52]	@ 0x34
   2293e:	9a0c      	ldr	r2, [sp, #48]	@ 0x30
   22940:	f003 f98b 	bl	25c5a <__aeabi_memcpy>
   22944:	980e      	ldr	r0, [sp, #56]	@ 0x38
   22946:	71a8      	strb	r0, [r5, #6]
   22948:	980f      	ldr	r0, [sp, #60]	@ 0x3c
   2294a:	7168      	strb	r0, [r5, #5]
   2294c:	9810      	ldr	r0, [sp, #64]	@ 0x40
   2294e:	7128      	strb	r0, [r5, #4]
   22950:	9811      	ldr	r0, [sp, #68]	@ 0x44
   22952:	70e8      	strb	r0, [r5, #3]
   22954:	9894      	ldr	r0, [sp, #592]	@ 0x250
   22956:	8028      	strh	r0, [r5, #0]
   22958:	9816      	ldr	r0, [sp, #88]	@ 0x58
   2295a:	7880      	ldrb	r0, [r0, #2]
   2295c:	70a8      	strb	r0, [r5, #2]
   2295e:	4817      	ldr	r0, [pc, #92]	@ (229bc <_start+0x28d8>)
   22960:	4468      	add	r0, sp
   22962:	2156      	movs	r1, #86	@ 0x56
   22964:	f003 f92c 	bl	25bc0 <__aeabi_memclr4>
   22968:	4819      	ldr	r0, [pc, #100]	@ (229d0 <_start+0x28ec>)
   2296a:	2107      	movs	r1, #7
   2296c:	2346      	movs	r3, #70	@ 0x46
   2296e:	462a      	mov	r2, r5
   22970:	df04      	svc	4
   22972:	9116      	str	r1, [sp, #88]	@ 0x58
   22974:	2802      	cmp	r0, #2
   22976:	d010      	beq.n	2299a <_start+0x28b6>
   22978:	4815      	ldr	r0, [pc, #84]	@ (229d0 <_start+0x28ec>)
   2297a:	2103      	movs	r1, #3
   2297c:	4a0f      	ldr	r2, [pc, #60]	@ (229bc <_start+0x28d8>)
   2297e:	446a      	add	r2, sp
   22980:	2356      	movs	r3, #86	@ 0x56
   22982:	df03      	svc	3
   22984:	9116      	str	r1, [sp, #88]	@ 0x58
   22986:	2802      	cmp	r0, #2
   22988:	d007      	beq.n	2299a <_start+0x28b6>
   2298a:	4811      	ldr	r0, [pc, #68]	@ (229d0 <_start+0x28ec>)
   2298c:	2107      	movs	r1, #7
   2298e:	2203      	movs	r2, #3
   22990:	2300      	movs	r3, #0
   22992:	df02      	svc	2
   22994:	9116      	str	r1, [sp, #88]	@ 0x58
   22996:	287f      	cmp	r0, #127	@ 0x7f
   22998:	d81c      	bhi.n	229d4 <_start+0x28f0>
   2299a:	4d0d      	ldr	r5, [pc, #52]	@ (229d0 <_start+0x28ec>)
   2299c:	2103      	movs	r1, #3
   2299e:	2600      	movs	r6, #0
   229a0:	4628      	mov	r0, r5
   229a2:	4632      	mov	r2, r6
   229a4:	4633      	mov	r3, r6
   229a6:	df03      	svc	3
   229a8:	2107      	movs	r1, #7
   229aa:	4628      	mov	r0, r5
   229ac:	4632      	mov	r2, r6
   229ae:	4633      	mov	r3, r6
   229b0:	df04      	svc	4
   229b2:	f7fd fbe9 	bl	20188 <_start+0xa4>
   229b6:	46c0      	nop			@ (mov r8, r8)
   229b8:	0000196b 	.word	0x0000196b
   229bc:	000006e8 	.word	0x000006e8
   229c0:	00000684 	.word	0x00000684
   229c4:	000013bf 	.word	0x000013bf
   229c8:	000005b8 	.word	0x000005b8
   229cc:	00001d7e 	.word	0x00001d7e
   229d0:	00001e50 	.word	0x00001e50
   229d4:	48a5      	ldr	r0, [pc, #660]	@ (22c6c <_start+0x2b88>)
   229d6:	2603      	movs	r6, #3
   229d8:	2500      	movs	r5, #0
   229da:	4631      	mov	r1, r6
   229dc:	462a      	mov	r2, r5
   229de:	462b      	mov	r3, r5
   229e0:	df03      	svc	3
   229e2:	48a2      	ldr	r0, [pc, #648]	@ (22c6c <_start+0x2b88>)
   229e4:	4631      	mov	r1, r6
   229e6:	462a      	mov	r2, r5
   229e8:	462b      	mov	r3, r5
   229ea:	df03      	svc	3
   229ec:	aa95      	add	r2, sp, #596	@ 0x254
   229ee:	9216      	str	r2, [sp, #88]	@ 0x58
   229f0:	9815      	ldr	r0, [sp, #84]	@ 0x54
   229f2:	6e40      	ldr	r0, [r0, #100]	@ 0x64
   229f4:	8010      	strh	r0, [r2, #0]
   229f6:	489e      	ldr	r0, [pc, #632]	@ (22c70 <_start+0x2b8c>)
   229f8:	4468      	add	r0, sp
   229fa:	7881      	ldrb	r1, [r0, #2]
   229fc:	7091      	strb	r1, [r2, #2]
   229fe:	78c1      	ldrb	r1, [r0, #3]
   22a00:	9111      	str	r1, [sp, #68]	@ 0x44
   22a02:	7901      	ldrb	r1, [r0, #4]
   22a04:	9110      	str	r1, [sp, #64]	@ 0x40
   22a06:	7941      	ldrb	r1, [r0, #5]
   22a08:	910f      	str	r1, [sp, #60]	@ 0x3c
   22a0a:	7981      	ldrb	r1, [r0, #6]
   22a0c:	910e      	str	r1, [sp, #56]	@ 0x38
   22a0e:	1dc1      	adds	r1, r0, #7
   22a10:	4898      	ldr	r0, [pc, #608]	@ (22c74 <_start+0x2b90>)
   22a12:	4468      	add	r0, sp
   22a14:	900d      	str	r0, [sp, #52]	@ 0x34
   22a16:	224f      	movs	r2, #79	@ 0x4f
   22a18:	920c      	str	r2, [sp, #48]	@ 0x30
   22a1a:	f003 f91e 	bl	25c5a <__aeabi_memcpy>
   22a1e:	4893      	ldr	r0, [pc, #588]	@ (22c6c <_start+0x2b88>)
   22a20:	4631      	mov	r1, r6
   22a22:	462a      	mov	r2, r5
   22a24:	462b      	mov	r3, r5
   22a26:	df03      	svc	3
   22a28:	2107      	movs	r1, #7
   22a2a:	4890      	ldr	r0, [pc, #576]	@ (22c6c <_start+0x2b88>)
   22a2c:	462a      	mov	r2, r5
   22a2e:	462b      	mov	r3, r5
   22a30:	df04      	svc	4
   22a32:	4d8f      	ldr	r5, [pc, #572]	@ (22c70 <_start+0x2b8c>)
   22a34:	446d      	add	r5, sp
   22a36:	1de8      	adds	r0, r5, #7
   22a38:	990d      	ldr	r1, [sp, #52]	@ 0x34
   22a3a:	9a0c      	ldr	r2, [sp, #48]	@ 0x30
   22a3c:	f003 f90d 	bl	25c5a <__aeabi_memcpy>
   22a40:	980e      	ldr	r0, [sp, #56]	@ 0x38
   22a42:	71a8      	strb	r0, [r5, #6]
   22a44:	980f      	ldr	r0, [sp, #60]	@ 0x3c
   22a46:	7168      	strb	r0, [r5, #5]
   22a48:	9810      	ldr	r0, [sp, #64]	@ 0x40
   22a4a:	7128      	strb	r0, [r5, #4]
   22a4c:	9811      	ldr	r0, [sp, #68]	@ 0x44
   22a4e:	70e8      	strb	r0, [r5, #3]
   22a50:	9895      	ldr	r0, [sp, #596]	@ 0x254
   22a52:	8028      	strh	r0, [r5, #0]
   22a54:	9816      	ldr	r0, [sp, #88]	@ 0x58
   22a56:	7880      	ldrb	r0, [r0, #2]
   22a58:	70a8      	strb	r0, [r5, #2]
   22a5a:	4886      	ldr	r0, [pc, #536]	@ (22c74 <_start+0x2b90>)
   22a5c:	4468      	add	r0, sp
   22a5e:	2149      	movs	r1, #73	@ 0x49
   22a60:	f003 f8ae 	bl	25bc0 <__aeabi_memclr4>
   22a64:	4884      	ldr	r0, [pc, #528]	@ (22c78 <_start+0x2b94>)
   22a66:	2106      	movs	r1, #6
   22a68:	2356      	movs	r3, #86	@ 0x56
   22a6a:	462a      	mov	r2, r5
   22a6c:	df04      	svc	4
   22a6e:	9116      	str	r1, [sp, #88]	@ 0x58
   22a70:	2802      	cmp	r0, #2
   22a72:	d010      	beq.n	22a96 <_start+0x29b2>
   22a74:	4880      	ldr	r0, [pc, #512]	@ (22c78 <_start+0x2b94>)
   22a76:	2106      	movs	r1, #6
   22a78:	4a7e      	ldr	r2, [pc, #504]	@ (22c74 <_start+0x2b90>)
   22a7a:	446a      	add	r2, sp
   22a7c:	2349      	movs	r3, #73	@ 0x49
   22a7e:	df03      	svc	3
   22a80:	9116      	str	r1, [sp, #88]	@ 0x58
   22a82:	2802      	cmp	r0, #2
   22a84:	d007      	beq.n	22a96 <_start+0x29b2>
   22a86:	487c      	ldr	r0, [pc, #496]	@ (22c78 <_start+0x2b94>)
   22a88:	2106      	movs	r1, #6
   22a8a:	2300      	movs	r3, #0
   22a8c:	460a      	mov	r2, r1
   22a8e:	df02      	svc	2
   22a90:	9116      	str	r1, [sp, #88]	@ 0x58
   22a92:	287f      	cmp	r0, #127	@ 0x7f
   22a94:	d80d      	bhi.n	22ab2 <_start+0x29ce>
   22a96:	4878      	ldr	r0, [pc, #480]	@ (22c78 <_start+0x2b94>)
   22a98:	2606      	movs	r6, #6
   22a9a:	2500      	movs	r5, #0
   22a9c:	4631      	mov	r1, r6
   22a9e:	462a      	mov	r2, r5
   22aa0:	462b      	mov	r3, r5
   22aa2:	df03      	svc	3
   22aa4:	4874      	ldr	r0, [pc, #464]	@ (22c78 <_start+0x2b94>)
   22aa6:	4631      	mov	r1, r6
   22aa8:	462a      	mov	r2, r5
   22aaa:	462b      	mov	r3, r5
   22aac:	df04      	svc	4
   22aae:	f7fd fb6b 	bl	20188 <_start+0xa4>
   22ab2:	4871      	ldr	r0, [pc, #452]	@ (22c78 <_start+0x2b94>)
   22ab4:	2606      	movs	r6, #6
   22ab6:	2500      	movs	r5, #0
   22ab8:	4631      	mov	r1, r6
   22aba:	462a      	mov	r2, r5
   22abc:	462b      	mov	r3, r5
   22abe:	df03      	svc	3
   22ac0:	486d      	ldr	r0, [pc, #436]	@ (22c78 <_start+0x2b94>)
   22ac2:	4631      	mov	r1, r6
   22ac4:	462a      	mov	r2, r5
   22ac6:	462b      	mov	r3, r5
   22ac8:	df03      	svc	3
   22aca:	aa96      	add	r2, sp, #600	@ 0x258
   22acc:	9216      	str	r2, [sp, #88]	@ 0x58
   22ace:	9815      	ldr	r0, [sp, #84]	@ 0x54
   22ad0:	6800      	ldr	r0, [r0, #0]
   22ad2:	8010      	strh	r0, [r2, #0]
   22ad4:	4867      	ldr	r0, [pc, #412]	@ (22c74 <_start+0x2b90>)
   22ad6:	4468      	add	r0, sp
   22ad8:	7881      	ldrb	r1, [r0, #2]
   22ada:	7091      	strb	r1, [r2, #2]
   22adc:	78c1      	ldrb	r1, [r0, #3]
   22ade:	9111      	str	r1, [sp, #68]	@ 0x44
   22ae0:	7901      	ldrb	r1, [r0, #4]
   22ae2:	9110      	str	r1, [sp, #64]	@ 0x40
   22ae4:	7941      	ldrb	r1, [r0, #5]
   22ae6:	910f      	str	r1, [sp, #60]	@ 0x3c
   22ae8:	7981      	ldrb	r1, [r0, #6]
   22aea:	910e      	str	r1, [sp, #56]	@ 0x38
   22aec:	1dc1      	adds	r1, r0, #7
   22aee:	4863      	ldr	r0, [pc, #396]	@ (22c7c <_start+0x2b98>)
   22af0:	4468      	add	r0, sp
   22af2:	900d      	str	r0, [sp, #52]	@ 0x34
   22af4:	2242      	movs	r2, #66	@ 0x42
   22af6:	920c      	str	r2, [sp, #48]	@ 0x30
   22af8:	f003 f8af 	bl	25c5a <__aeabi_memcpy>
   22afc:	485e      	ldr	r0, [pc, #376]	@ (22c78 <_start+0x2b94>)
   22afe:	4631      	mov	r1, r6
   22b00:	462a      	mov	r2, r5
   22b02:	462b      	mov	r3, r5
   22b04:	df03      	svc	3
   22b06:	485c      	ldr	r0, [pc, #368]	@ (22c78 <_start+0x2b94>)
   22b08:	4631      	mov	r1, r6
   22b0a:	462a      	mov	r2, r5
   22b0c:	462b      	mov	r3, r5
   22b0e:	df04      	svc	4
   22b10:	4d57      	ldr	r5, [pc, #348]	@ (22c70 <_start+0x2b8c>)
   22b12:	446d      	add	r5, sp
   22b14:	1de8      	adds	r0, r5, #7
   22b16:	990d      	ldr	r1, [sp, #52]	@ 0x34
   22b18:	9a0c      	ldr	r2, [sp, #48]	@ 0x30
   22b1a:	f003 f89e 	bl	25c5a <__aeabi_memcpy>
   22b1e:	980e      	ldr	r0, [sp, #56]	@ 0x38
   22b20:	71a8      	strb	r0, [r5, #6]
   22b22:	980f      	ldr	r0, [sp, #60]	@ 0x3c
   22b24:	7168      	strb	r0, [r5, #5]
   22b26:	9810      	ldr	r0, [sp, #64]	@ 0x40
   22b28:	7128      	strb	r0, [r5, #4]
   22b2a:	9811      	ldr	r0, [sp, #68]	@ 0x44
   22b2c:	70e8      	strb	r0, [r5, #3]
   22b2e:	9896      	ldr	r0, [sp, #600]	@ 0x258
   22b30:	8028      	strh	r0, [r5, #0]
   22b32:	9816      	ldr	r0, [sp, #88]	@ 0x58
   22b34:	7880      	ldrb	r0, [r0, #2]
   22b36:	70a8      	strb	r0, [r5, #2]
   22b38:	484e      	ldr	r0, [pc, #312]	@ (22c74 <_start+0x2b90>)
   22b3a:	4468      	add	r0, sp
   22b3c:	2123      	movs	r1, #35	@ 0x23
   22b3e:	f003 f83f 	bl	25bc0 <__aeabi_memclr4>
   22b42:	484f      	ldr	r0, [pc, #316]	@ (22c80 <_start+0x2b9c>)
   22b44:	2107      	movs	r1, #7
   22b46:	2349      	movs	r3, #73	@ 0x49
   22b48:	462a      	mov	r2, r5
   22b4a:	df04      	svc	4
   22b4c:	9116      	str	r1, [sp, #88]	@ 0x58
   22b4e:	2802      	cmp	r0, #2
   22b50:	d010      	beq.n	22b74 <_start+0x2a90>
   22b52:	484b      	ldr	r0, [pc, #300]	@ (22c80 <_start+0x2b9c>)
   22b54:	2101      	movs	r1, #1
   22b56:	4a47      	ldr	r2, [pc, #284]	@ (22c74 <_start+0x2b90>)
   22b58:	446a      	add	r2, sp
   22b5a:	2323      	movs	r3, #35	@ 0x23
   22b5c:	df03      	svc	3
   22b5e:	9116      	str	r1, [sp, #88]	@ 0x58
   22b60:	2802      	cmp	r0, #2
   22b62:	d007      	beq.n	22b74 <_start+0x2a90>
   22b64:	4846      	ldr	r0, [pc, #280]	@ (22c80 <_start+0x2b9c>)
   22b66:	2107      	movs	r1, #7
   22b68:	2201      	movs	r2, #1
   22b6a:	2300      	movs	r3, #0
   22b6c:	df02      	svc	2
   22b6e:	9116      	str	r1, [sp, #88]	@ 0x58
   22b70:	287f      	cmp	r0, #127	@ 0x7f
   22b72:	d80d      	bhi.n	22b90 <_start+0x2aac>
   22b74:	4d42      	ldr	r5, [pc, #264]	@ (22c80 <_start+0x2b9c>)
   22b76:	2600      	movs	r6, #0
   22b78:	4628      	mov	r0, r5
   22b7a:	4621      	mov	r1, r4
   22b7c:	4632      	mov	r2, r6
   22b7e:	4633      	mov	r3, r6
   22b80:	df03      	svc	3
   22b82:	2107      	movs	r1, #7
   22b84:	4628      	mov	r0, r5
   22b86:	4632      	mov	r2, r6
   22b88:	4633      	mov	r3, r6
   22b8a:	df04      	svc	4
   22b8c:	f7fd fafc 	bl	20188 <_start+0xa4>
   22b90:	4e3b      	ldr	r6, [pc, #236]	@ (22c80 <_start+0x2b9c>)
   22b92:	2401      	movs	r4, #1
   22b94:	2500      	movs	r5, #0
   22b96:	4630      	mov	r0, r6
   22b98:	4621      	mov	r1, r4
   22b9a:	462a      	mov	r2, r5
   22b9c:	462b      	mov	r3, r5
   22b9e:	df03      	svc	3
   22ba0:	4630      	mov	r0, r6
   22ba2:	4621      	mov	r1, r4
   22ba4:	462a      	mov	r2, r5
   22ba6:	462b      	mov	r3, r5
   22ba8:	df03      	svc	3
   22baa:	ae9e      	add	r6, sp, #632	@ 0x278
   22bac:	9815      	ldr	r0, [sp, #84]	@ 0x54
   22bae:	6800      	ldr	r0, [r0, #0]
   22bb0:	8030      	strh	r0, [r6, #0]
   22bb2:	4830      	ldr	r0, [pc, #192]	@ (22c74 <_start+0x2b90>)
   22bb4:	4468      	add	r0, sp
   22bb6:	7881      	ldrb	r1, [r0, #2]
   22bb8:	70b1      	strb	r1, [r6, #2]
   22bba:	78c1      	ldrb	r1, [r0, #3]
   22bbc:	9116      	str	r1, [sp, #88]	@ 0x58
   22bbe:	7901      	ldrb	r1, [r0, #4]
   22bc0:	910f      	str	r1, [sp, #60]	@ 0x3c
   22bc2:	7941      	ldrb	r1, [r0, #5]
   22bc4:	910e      	str	r1, [sp, #56]	@ 0x38
   22bc6:	7981      	ldrb	r1, [r0, #6]
   22bc8:	910d      	str	r1, [sp, #52]	@ 0x34
   22bca:	1dc1      	adds	r1, r0, #7
   22bcc:	a897      	add	r0, sp, #604	@ 0x25c
   22bce:	9011      	str	r0, [sp, #68]	@ 0x44
   22bd0:	221c      	movs	r2, #28
   22bd2:	9210      	str	r2, [sp, #64]	@ 0x40
   22bd4:	f003 f841 	bl	25c5a <__aeabi_memcpy>
   22bd8:	4829      	ldr	r0, [pc, #164]	@ (22c80 <_start+0x2b9c>)
   22bda:	4621      	mov	r1, r4
   22bdc:	462a      	mov	r2, r5
   22bde:	462b      	mov	r3, r5
   22be0:	df03      	svc	3
   22be2:	2107      	movs	r1, #7
   22be4:	4826      	ldr	r0, [pc, #152]	@ (22c80 <_start+0x2b9c>)
   22be6:	462a      	mov	r2, r5
   22be8:	462b      	mov	r3, r5
   22bea:	df04      	svc	4
   22bec:	4d21      	ldr	r5, [pc, #132]	@ (22c74 <_start+0x2b90>)
   22bee:	446d      	add	r5, sp
   22bf0:	980d      	ldr	r0, [sp, #52]	@ 0x34
   22bf2:	71a8      	strb	r0, [r5, #6]
   22bf4:	980e      	ldr	r0, [sp, #56]	@ 0x38
   22bf6:	7168      	strb	r0, [r5, #5]
   22bf8:	980f      	ldr	r0, [sp, #60]	@ 0x3c
   22bfa:	7128      	strb	r0, [r5, #4]
   22bfc:	9816      	ldr	r0, [sp, #88]	@ 0x58
   22bfe:	70e8      	strb	r0, [r5, #3]
   22c00:	78b0      	ldrb	r0, [r6, #2]
   22c02:	70a8      	strb	r0, [r5, #2]
   22c04:	989e      	ldr	r0, [sp, #632]	@ 0x278
   22c06:	8028      	strh	r0, [r5, #0]
   22c08:	1de8      	adds	r0, r5, #7
   22c0a:	9911      	ldr	r1, [sp, #68]	@ 0x44
   22c0c:	9a10      	ldr	r2, [sp, #64]	@ 0x40
   22c0e:	f003 f824 	bl	25c5a <__aeabi_memcpy>
   22c12:	4817      	ldr	r0, [pc, #92]	@ (22c70 <_start+0x2b8c>)
   22c14:	4468      	add	r0, sp
   22c16:	212b      	movs	r1, #43	@ 0x2b
   22c18:	f002 ffd2 	bl	25bc0 <__aeabi_memclr4>
   22c1c:	4819      	ldr	r0, [pc, #100]	@ (22c84 <_start+0x2ba0>)
   22c1e:	2102      	movs	r1, #2
   22c20:	2323      	movs	r3, #35	@ 0x23
   22c22:	462a      	mov	r2, r5
   22c24:	df04      	svc	4
   22c26:	9116      	str	r1, [sp, #88]	@ 0x58
   22c28:	2802      	cmp	r0, #2
   22c2a:	d011      	beq.n	22c50 <_start+0x2b6c>
   22c2c:	4815      	ldr	r0, [pc, #84]	@ (22c84 <_start+0x2ba0>)
   22c2e:	2100      	movs	r1, #0
   22c30:	4a0f      	ldr	r2, [pc, #60]	@ (22c70 <_start+0x2b8c>)
   22c32:	446a      	add	r2, sp
   22c34:	232b      	movs	r3, #43	@ 0x2b
   22c36:	df03      	svc	3
   22c38:	9116      	str	r1, [sp, #88]	@ 0x58
   22c3a:	2802      	cmp	r0, #2
   22c3c:	d008      	beq.n	22c50 <_start+0x2b6c>
   22c3e:	4811      	ldr	r0, [pc, #68]	@ (22c84 <_start+0x2ba0>)
   22c40:	2102      	movs	r1, #2
   22c42:	2600      	movs	r6, #0
   22c44:	4632      	mov	r2, r6
   22c46:	4633      	mov	r3, r6
   22c48:	df02      	svc	2
   22c4a:	9116      	str	r1, [sp, #88]	@ 0x58
   22c4c:	287f      	cmp	r0, #127	@ 0x7f
   22c4e:	d81b      	bhi.n	22c88 <_start+0x2ba4>
   22c50:	4d0c      	ldr	r5, [pc, #48]	@ (22c84 <_start+0x2ba0>)
   22c52:	2600      	movs	r6, #0
   22c54:	4628      	mov	r0, r5
   22c56:	4631      	mov	r1, r6
   22c58:	4632      	mov	r2, r6
   22c5a:	4633      	mov	r3, r6
   22c5c:	df03      	svc	3
   22c5e:	2102      	movs	r1, #2
   22c60:	4628      	mov	r0, r5
   22c62:	4632      	mov	r2, r6
   22c64:	4633      	mov	r3, r6
   22c66:	df04      	svc	4
   22c68:	f7fd fa8e 	bl	20188 <_start+0xa4>
   22c6c:	00001e50 	.word	0x00001e50
   22c70:	000006e8 	.word	0x000006e8
   22c74:	00000684 	.word	0x00000684
   22c78:	00001c6b 	.word	0x00001c6b
   22c7c:	000005b8 	.word	0x000005b8
   22c80:	00001551 	.word	0x00001551
   22c84:	00000d5d 	.word	0x00000d5d
   22c88:	4dac      	ldr	r5, [pc, #688]	@ (22f3c <_start+0x2e58>)
   22c8a:	4628      	mov	r0, r5
   22c8c:	4631      	mov	r1, r6
   22c8e:	4632      	mov	r2, r6
   22c90:	4633      	mov	r3, r6
   22c92:	df03      	svc	3
   22c94:	4628      	mov	r0, r5
   22c96:	4631      	mov	r1, r6
   22c98:	4632      	mov	r2, r6
   22c9a:	4633      	mov	r3, r6
   22c9c:	df03      	svc	3
   22c9e:	aaa8      	add	r2, sp, #672	@ 0x2a0
   22ca0:	9216      	str	r2, [sp, #88]	@ 0x58
   22ca2:	9815      	ldr	r0, [sp, #84]	@ 0x54
   22ca4:	6e40      	ldr	r0, [r0, #100]	@ 0x64
   22ca6:	8010      	strh	r0, [r2, #0]
   22ca8:	48a5      	ldr	r0, [pc, #660]	@ (22f40 <_start+0x2e5c>)
   22caa:	4468      	add	r0, sp
   22cac:	7881      	ldrb	r1, [r0, #2]
   22cae:	7091      	strb	r1, [r2, #2]
   22cb0:	78c1      	ldrb	r1, [r0, #3]
   22cb2:	9111      	str	r1, [sp, #68]	@ 0x44
   22cb4:	7901      	ldrb	r1, [r0, #4]
   22cb6:	910e      	str	r1, [sp, #56]	@ 0x38
   22cb8:	7941      	ldrb	r1, [r0, #5]
   22cba:	910d      	str	r1, [sp, #52]	@ 0x34
   22cbc:	7981      	ldrb	r1, [r0, #6]
   22cbe:	910c      	str	r1, [sp, #48]	@ 0x30
   22cc0:	1dc1      	adds	r1, r0, #7
   22cc2:	a89f      	add	r0, sp, #636	@ 0x27c
   22cc4:	9010      	str	r0, [sp, #64]	@ 0x40
   22cc6:	2224      	movs	r2, #36	@ 0x24
   22cc8:	920f      	str	r2, [sp, #60]	@ 0x3c
   22cca:	f002 ffc6 	bl	25c5a <__aeabi_memcpy>
   22cce:	4628      	mov	r0, r5
   22cd0:	4631      	mov	r1, r6
   22cd2:	4632      	mov	r2, r6
   22cd4:	4633      	mov	r3, r6
   22cd6:	df03      	svc	3
   22cd8:	2102      	movs	r1, #2
   22cda:	4628      	mov	r0, r5
   22cdc:	4632      	mov	r2, r6
   22cde:	4633      	mov	r3, r6
   22ce0:	df04      	svc	4
   22ce2:	4d97      	ldr	r5, [pc, #604]	@ (22f40 <_start+0x2e5c>)
   22ce4:	446d      	add	r5, sp
   22ce6:	980c      	ldr	r0, [sp, #48]	@ 0x30
   22ce8:	71a8      	strb	r0, [r5, #6]
   22cea:	980d      	ldr	r0, [sp, #52]	@ 0x34
   22cec:	7168      	strb	r0, [r5, #5]
   22cee:	980e      	ldr	r0, [sp, #56]	@ 0x38
   22cf0:	7128      	strb	r0, [r5, #4]
   22cf2:	9811      	ldr	r0, [sp, #68]	@ 0x44
   22cf4:	70e8      	strb	r0, [r5, #3]
   22cf6:	9816      	ldr	r0, [sp, #88]	@ 0x58
   22cf8:	7880      	ldrb	r0, [r0, #2]
   22cfa:	70a8      	strb	r0, [r5, #2]
   22cfc:	98a8      	ldr	r0, [sp, #672]	@ 0x2a0
   22cfe:	8028      	strh	r0, [r5, #0]
   22d00:	1de8      	adds	r0, r5, #7
   22d02:	9910      	ldr	r1, [sp, #64]	@ 0x40
   22d04:	9a0f      	ldr	r2, [sp, #60]	@ 0x3c
   22d06:	f002 ffa8 	bl	25c5a <__aeabi_memcpy>
   22d0a:	488e      	ldr	r0, [pc, #568]	@ (22f44 <_start+0x2e60>)
   22d0c:	4468      	add	r0, sp
   22d0e:	7306      	strb	r6, [r0, #12]
   22d10:	9815      	ldr	r0, [sp, #84]	@ 0x54
   22d12:	6006      	str	r6, [r0, #0]
   22d14:	6046      	str	r6, [r0, #4]
   22d16:	6086      	str	r6, [r0, #8]
   22d18:	488b      	ldr	r0, [pc, #556]	@ (22f48 <_start+0x2e64>)
   22d1a:	2106      	movs	r1, #6
   22d1c:	232b      	movs	r3, #43	@ 0x2b
   22d1e:	462a      	mov	r2, r5
   22d20:	df04      	svc	4
   22d22:	9116      	str	r1, [sp, #88]	@ 0x58
   22d24:	2802      	cmp	r0, #2
   22d26:	d010      	beq.n	22d4a <_start+0x2c66>
   22d28:	4887      	ldr	r0, [pc, #540]	@ (22f48 <_start+0x2e64>)
   22d2a:	2100      	movs	r1, #0
   22d2c:	4a85      	ldr	r2, [pc, #532]	@ (22f44 <_start+0x2e60>)
   22d2e:	446a      	add	r2, sp
   22d30:	230d      	movs	r3, #13
   22d32:	df03      	svc	3
   22d34:	9116      	str	r1, [sp, #88]	@ 0x58
   22d36:	2802      	cmp	r0, #2
   22d38:	d007      	beq.n	22d4a <_start+0x2c66>
   22d3a:	4883      	ldr	r0, [pc, #524]	@ (22f48 <_start+0x2e64>)
   22d3c:	2106      	movs	r1, #6
   22d3e:	2200      	movs	r2, #0
   22d40:	4613      	mov	r3, r2
   22d42:	df02      	svc	2
   22d44:	9116      	str	r1, [sp, #88]	@ 0x58
   22d46:	287f      	cmp	r0, #127	@ 0x7f
   22d48:	d80d      	bhi.n	22d66 <_start+0x2c82>
   22d4a:	4d7f      	ldr	r5, [pc, #508]	@ (22f48 <_start+0x2e64>)
   22d4c:	2600      	movs	r6, #0
   22d4e:	4628      	mov	r0, r5
   22d50:	4631      	mov	r1, r6
   22d52:	4632      	mov	r2, r6
   22d54:	4633      	mov	r3, r6
   22d56:	df03      	svc	3
   22d58:	2106      	movs	r1, #6
   22d5a:	4628      	mov	r0, r5
   22d5c:	4632      	mov	r2, r6
   22d5e:	4633      	mov	r3, r6
   22d60:	df04      	svc	4
   22d62:	f7fd fa11 	bl	20188 <_start+0xa4>
   22d66:	4e78      	ldr	r6, [pc, #480]	@ (22f48 <_start+0x2e64>)
   22d68:	2500      	movs	r5, #0
   22d6a:	4630      	mov	r0, r6
   22d6c:	4629      	mov	r1, r5
   22d6e:	462a      	mov	r2, r5
   22d70:	462b      	mov	r3, r5
   22d72:	df03      	svc	3
   22d74:	4630      	mov	r0, r6
   22d76:	4629      	mov	r1, r5
   22d78:	462a      	mov	r2, r5
   22d7a:	462b      	mov	r3, r5
   22d7c:	df03      	svc	3
   22d7e:	aba9      	add	r3, sp, #676	@ 0x2a4
   22d80:	9316      	str	r3, [sp, #88]	@ 0x58
   22d82:	9a15      	ldr	r2, [sp, #84]	@ 0x54
   22d84:	6810      	ldr	r0, [r2, #0]
   22d86:	8018      	strh	r0, [r3, #0]
   22d88:	486e      	ldr	r0, [pc, #440]	@ (22f44 <_start+0x2e60>)
   22d8a:	4468      	add	r0, sp
   22d8c:	7881      	ldrb	r1, [r0, #2]
   22d8e:	7099      	strb	r1, [r3, #2]
   22d90:	7ac1      	ldrb	r1, [r0, #11]
   22d92:	68d2      	ldr	r2, [r2, #12]
   22d94:	0212      	lsls	r2, r2, #8
   22d96:	1851      	adds	r1, r2, r1
   22d98:	4a6c      	ldr	r2, [pc, #432]	@ (22f4c <_start+0x2e68>)
   22d9a:	446a      	add	r2, sp
   22d9c:	9211      	str	r2, [sp, #68]	@ 0x44
   22d9e:	8091      	strh	r1, [r2, #4]
   22da0:	79c1      	ldrb	r1, [r0, #7]
   22da2:	7a02      	ldrb	r2, [r0, #8]
   22da4:	0212      	lsls	r2, r2, #8
   22da6:	1851      	adds	r1, r2, r1
   22da8:	7a42      	ldrb	r2, [r0, #9]
   22daa:	0412      	lsls	r2, r2, #16
   22dac:	7a83      	ldrb	r3, [r0, #10]
   22dae:	061b      	lsls	r3, r3, #24
   22db0:	189a      	adds	r2, r3, r2
   22db2:	1851      	adds	r1, r2, r1
   22db4:	9a08      	ldr	r2, [sp, #32]
   22db6:	6091      	str	r1, [r2, #8]
   22db8:	78c1      	ldrb	r1, [r0, #3]
   22dba:	9110      	str	r1, [sp, #64]	@ 0x40
   22dbc:	7901      	ldrb	r1, [r0, #4]
   22dbe:	910f      	str	r1, [sp, #60]	@ 0x3c
   22dc0:	7941      	ldrb	r1, [r0, #5]
   22dc2:	910e      	str	r1, [sp, #56]	@ 0x38
   22dc4:	7980      	ldrb	r0, [r0, #6]
   22dc6:	900d      	str	r0, [sp, #52]	@ 0x34
   22dc8:	4630      	mov	r0, r6
   22dca:	4629      	mov	r1, r5
   22dcc:	462a      	mov	r2, r5
   22dce:	462b      	mov	r3, r5
   22dd0:	df03      	svc	3
   22dd2:	2106      	movs	r1, #6
   22dd4:	910c      	str	r1, [sp, #48]	@ 0x30
   22dd6:	4630      	mov	r0, r6
   22dd8:	462a      	mov	r2, r5
   22dda:	462b      	mov	r3, r5
   22ddc:	df04      	svc	4
   22dde:	4e59      	ldr	r6, [pc, #356]	@ (22f44 <_start+0x2e60>)
   22de0:	446e      	add	r6, sp
   22de2:	1df0      	adds	r0, r6, #7
   22de4:	9911      	ldr	r1, [sp, #68]	@ 0x44
   22de6:	9a0c      	ldr	r2, [sp, #48]	@ 0x30
   22de8:	f002 ff37 	bl	25c5a <__aeabi_memcpy>
   22dec:	980d      	ldr	r0, [sp, #52]	@ 0x34
   22dee:	71b0      	strb	r0, [r6, #6]
   22df0:	980e      	ldr	r0, [sp, #56]	@ 0x38
   22df2:	7170      	strb	r0, [r6, #5]
   22df4:	980f      	ldr	r0, [sp, #60]	@ 0x3c
   22df6:	7130      	strb	r0, [r6, #4]
   22df8:	9810      	ldr	r0, [sp, #64]	@ 0x40
   22dfa:	70f0      	strb	r0, [r6, #3]
   22dfc:	98a9      	ldr	r0, [sp, #676]	@ 0x2a4
   22dfe:	8030      	strh	r0, [r6, #0]
   22e00:	9816      	ldr	r0, [sp, #88]	@ 0x58
   22e02:	7880      	ldrb	r0, [r0, #2]
   22e04:	70b0      	strb	r0, [r6, #2]
   22e06:	484e      	ldr	r0, [pc, #312]	@ (22f40 <_start+0x2e5c>)
   22e08:	4468      	add	r0, sp
   22e0a:	2121      	movs	r1, #33	@ 0x21
   22e0c:	f002 fed8 	bl	25bc0 <__aeabi_memclr4>
   22e10:	484f      	ldr	r0, [pc, #316]	@ (22f50 <_start+0x2e6c>)
   22e12:	230d      	movs	r3, #13
   22e14:	4629      	mov	r1, r5
   22e16:	4632      	mov	r2, r6
   22e18:	df04      	svc	4
   22e1a:	9116      	str	r1, [sp, #88]	@ 0x58
   22e1c:	2802      	cmp	r0, #2
   22e1e:	d010      	beq.n	22e42 <_start+0x2d5e>
   22e20:	484b      	ldr	r0, [pc, #300]	@ (22f50 <_start+0x2e6c>)
   22e22:	2100      	movs	r1, #0
   22e24:	4a46      	ldr	r2, [pc, #280]	@ (22f40 <_start+0x2e5c>)
   22e26:	446a      	add	r2, sp
   22e28:	2321      	movs	r3, #33	@ 0x21
   22e2a:	df03      	svc	3
   22e2c:	9116      	str	r1, [sp, #88]	@ 0x58
   22e2e:	2802      	cmp	r0, #2
   22e30:	d007      	beq.n	22e42 <_start+0x2d5e>
   22e32:	4847      	ldr	r0, [pc, #284]	@ (22f50 <_start+0x2e6c>)
   22e34:	2100      	movs	r1, #0
   22e36:	460a      	mov	r2, r1
   22e38:	460b      	mov	r3, r1
   22e3a:	df02      	svc	2
   22e3c:	9116      	str	r1, [sp, #88]	@ 0x58
   22e3e:	287f      	cmp	r0, #127	@ 0x7f
   22e40:	d80d      	bhi.n	22e5e <_start+0x2d7a>
   22e42:	4d43      	ldr	r5, [pc, #268]	@ (22f50 <_start+0x2e6c>)
   22e44:	2600      	movs	r6, #0
   22e46:	4628      	mov	r0, r5
   22e48:	4631      	mov	r1, r6
   22e4a:	4632      	mov	r2, r6
   22e4c:	4633      	mov	r3, r6
   22e4e:	df03      	svc	3
   22e50:	4628      	mov	r0, r5
   22e52:	4631      	mov	r1, r6
   22e54:	4632      	mov	r2, r6
   22e56:	4633      	mov	r3, r6
   22e58:	df04      	svc	4
   22e5a:	f7fd f995 	bl	20188 <_start+0xa4>
   22e5e:	4e3c      	ldr	r6, [pc, #240]	@ (22f50 <_start+0x2e6c>)
   22e60:	2500      	movs	r5, #0
   22e62:	4630      	mov	r0, r6
   22e64:	4629      	mov	r1, r5
   22e66:	462a      	mov	r2, r5
   22e68:	462b      	mov	r3, r5
   22e6a:	df03      	svc	3
   22e6c:	4630      	mov	r0, r6
   22e6e:	4629      	mov	r1, r5
   22e70:	462a      	mov	r2, r5
   22e72:	462b      	mov	r3, r5
   22e74:	df03      	svc	3
   22e76:	aaaa      	add	r2, sp, #680	@ 0x2a8
   22e78:	9216      	str	r2, [sp, #88]	@ 0x58
   22e7a:	9815      	ldr	r0, [sp, #84]	@ 0x54
   22e7c:	6e40      	ldr	r0, [r0, #100]	@ 0x64
   22e7e:	8010      	strh	r0, [r2, #0]
   22e80:	482f      	ldr	r0, [pc, #188]	@ (22f40 <_start+0x2e5c>)
   22e82:	4468      	add	r0, sp
   22e84:	7881      	ldrb	r1, [r0, #2]
   22e86:	7091      	strb	r1, [r2, #2]
   22e88:	78c1      	ldrb	r1, [r0, #3]
   22e8a:	9111      	str	r1, [sp, #68]	@ 0x44
   22e8c:	7901      	ldrb	r1, [r0, #4]
   22e8e:	9110      	str	r1, [sp, #64]	@ 0x40
   22e90:	7941      	ldrb	r1, [r0, #5]
   22e92:	910f      	str	r1, [sp, #60]	@ 0x3c
   22e94:	7981      	ldrb	r1, [r0, #6]
   22e96:	910e      	str	r1, [sp, #56]	@ 0x38
   22e98:	1dc1      	adds	r1, r0, #7
   22e9a:	4e2c      	ldr	r6, [pc, #176]	@ (22f4c <_start+0x2e68>)
   22e9c:	446e      	add	r6, sp
   22e9e:	221a      	movs	r2, #26
   22ea0:	920d      	str	r2, [sp, #52]	@ 0x34
   22ea2:	4630      	mov	r0, r6
   22ea4:	f002 fed9 	bl	25c5a <__aeabi_memcpy>
   22ea8:	4829      	ldr	r0, [pc, #164]	@ (22f50 <_start+0x2e6c>)
   22eaa:	4629      	mov	r1, r5
   22eac:	462a      	mov	r2, r5
   22eae:	462b      	mov	r3, r5
   22eb0:	df03      	svc	3
   22eb2:	4827      	ldr	r0, [pc, #156]	@ (22f50 <_start+0x2e6c>)
   22eb4:	4629      	mov	r1, r5
   22eb6:	462a      	mov	r2, r5
   22eb8:	462b      	mov	r3, r5
   22eba:	df04      	svc	4
   22ebc:	4d21      	ldr	r5, [pc, #132]	@ (22f44 <_start+0x2e60>)
   22ebe:	446d      	add	r5, sp
   22ec0:	1de8      	adds	r0, r5, #7
   22ec2:	4631      	mov	r1, r6
   22ec4:	9a0d      	ldr	r2, [sp, #52]	@ 0x34
   22ec6:	f002 fec8 	bl	25c5a <__aeabi_memcpy>
   22eca:	980e      	ldr	r0, [sp, #56]	@ 0x38
   22ecc:	71a8      	strb	r0, [r5, #6]
   22ece:	980f      	ldr	r0, [sp, #60]	@ 0x3c
   22ed0:	7168      	strb	r0, [r5, #5]
   22ed2:	9810      	ldr	r0, [sp, #64]	@ 0x40
   22ed4:	7128      	strb	r0, [r5, #4]
   22ed6:	9811      	ldr	r0, [sp, #68]	@ 0x44
   22ed8:	70e8      	strb	r0, [r5, #3]
   22eda:	98aa      	ldr	r0, [sp, #680]	@ 0x2a8
   22edc:	8028      	strh	r0, [r5, #0]
   22ede:	9816      	ldr	r0, [sp, #88]	@ 0x58
   22ee0:	7880      	ldrb	r0, [r0, #2]
   22ee2:	70a8      	strb	r0, [r5, #2]
   22ee4:	4816      	ldr	r0, [pc, #88]	@ (22f40 <_start+0x2e5c>)
   22ee6:	4468      	add	r0, sp
   22ee8:	2153      	movs	r1, #83	@ 0x53
   22eea:	f002 fe69 	bl	25bc0 <__aeabi_memclr4>
   22eee:	4819      	ldr	r0, [pc, #100]	@ (22f54 <_start+0x2e70>)
   22ef0:	2102      	movs	r1, #2
   22ef2:	2321      	movs	r3, #33	@ 0x21
   22ef4:	462a      	mov	r2, r5
   22ef6:	df04      	svc	4
   22ef8:	9116      	str	r1, [sp, #88]	@ 0x58
   22efa:	2802      	cmp	r0, #2
   22efc:	d010      	beq.n	22f20 <_start+0x2e3c>
   22efe:	4815      	ldr	r0, [pc, #84]	@ (22f54 <_start+0x2e70>)
   22f00:	2108      	movs	r1, #8
   22f02:	4a0f      	ldr	r2, [pc, #60]	@ (22f40 <_start+0x2e5c>)
   22f04:	446a      	add	r2, sp
   22f06:	2353      	movs	r3, #83	@ 0x53
   22f08:	df03      	svc	3
   22f0a:	9116      	str	r1, [sp, #88]	@ 0x58
   22f0c:	2802      	cmp	r0, #2
   22f0e:	d007      	beq.n	22f20 <_start+0x2e3c>
   22f10:	4810      	ldr	r0, [pc, #64]	@ (22f54 <_start+0x2e70>)
   22f12:	2102      	movs	r1, #2
   22f14:	2208      	movs	r2, #8
   22f16:	2300      	movs	r3, #0
   22f18:	df02      	svc	2
   22f1a:	9116      	str	r1, [sp, #88]	@ 0x58
   22f1c:	287f      	cmp	r0, #127	@ 0x7f
   22f1e:	d81b      	bhi.n	22f58 <_start+0x2e74>
   22f20:	4d0c      	ldr	r5, [pc, #48]	@ (22f54 <_start+0x2e70>)
   22f22:	2108      	movs	r1, #8
   22f24:	2600      	movs	r6, #0
   22f26:	4628      	mov	r0, r5
   22f28:	4632      	mov	r2, r6
   22f2a:	4633      	mov	r3, r6
   22f2c:	df03      	svc	3
   22f2e:	2102      	movs	r1, #2
   22f30:	4628      	mov	r0, r5
   22f32:	4632      	mov	r2, r6
   22f34:	4633      	mov	r3, r6
   22f36:	df04      	svc	4
   22f38:	f7fd f926 	bl	20188 <_start+0xa4>
   22f3c:	00000d5d 	.word	0x00000d5d
   22f40:	000006e8 	.word	0x000006e8
   22f44:	00000684 	.word	0x00000684
   22f48:	00001465 	.word	0x00001465
   22f4c:	000005b8 	.word	0x000005b8
   22f50:	000016b0 	.word	0x000016b0
   22f54:	0000253e 	.word	0x0000253e
   22f58:	48a4      	ldr	r0, [pc, #656]	@ (231ec <_start+0x3108>)
   22f5a:	2608      	movs	r6, #8
   22f5c:	2500      	movs	r5, #0
   22f5e:	4631      	mov	r1, r6
   22f60:	462a      	mov	r2, r5
   22f62:	462b      	mov	r3, r5
   22f64:	df03      	svc	3
   22f66:	48d9      	ldr	r0, [pc, #868]	@ (232cc <_start+0x31e8>)
   22f68:	4631      	mov	r1, r6
   22f6a:	462a      	mov	r2, r5
   22f6c:	462b      	mov	r3, r5
   22f6e:	df03      	svc	3
   22f70:	aabe      	add	r2, sp, #760	@ 0x2f8
   22f72:	9216      	str	r2, [sp, #88]	@ 0x58
   22f74:	9815      	ldr	r0, [sp, #84]	@ 0x54
   22f76:	6e40      	ldr	r0, [r0, #100]	@ 0x64
   22f78:	8010      	strh	r0, [r2, #0]
   22f7a:	48d5      	ldr	r0, [pc, #852]	@ (232d0 <_start+0x31ec>)
   22f7c:	4468      	add	r0, sp
   22f7e:	7881      	ldrb	r1, [r0, #2]
   22f80:	7091      	strb	r1, [r2, #2]
   22f82:	78c1      	ldrb	r1, [r0, #3]
   22f84:	9111      	str	r1, [sp, #68]	@ 0x44
   22f86:	7901      	ldrb	r1, [r0, #4]
   22f88:	910e      	str	r1, [sp, #56]	@ 0x38
   22f8a:	7941      	ldrb	r1, [r0, #5]
   22f8c:	910d      	str	r1, [sp, #52]	@ 0x34
   22f8e:	7981      	ldrb	r1, [r0, #6]
   22f90:	910c      	str	r1, [sp, #48]	@ 0x30
   22f92:	1dc1      	adds	r1, r0, #7
   22f94:	a8ab      	add	r0, sp, #684	@ 0x2ac
   22f96:	9010      	str	r0, [sp, #64]	@ 0x40
   22f98:	224c      	movs	r2, #76	@ 0x4c
   22f9a:	920f      	str	r2, [sp, #60]	@ 0x3c
   22f9c:	f002 fe5d 	bl	25c5a <__aeabi_memcpy>
   22fa0:	48ca      	ldr	r0, [pc, #808]	@ (232cc <_start+0x31e8>)
   22fa2:	4631      	mov	r1, r6
   22fa4:	462a      	mov	r2, r5
   22fa6:	462b      	mov	r3, r5
   22fa8:	df03      	svc	3
   22faa:	2102      	movs	r1, #2
   22fac:	48c7      	ldr	r0, [pc, #796]	@ (232cc <_start+0x31e8>)
   22fae:	462a      	mov	r2, r5
   22fb0:	462b      	mov	r3, r5
   22fb2:	df04      	svc	4
   22fb4:	4dc6      	ldr	r5, [pc, #792]	@ (232d0 <_start+0x31ec>)
   22fb6:	446d      	add	r5, sp
   22fb8:	980c      	ldr	r0, [sp, #48]	@ 0x30
   22fba:	71a8      	strb	r0, [r5, #6]
   22fbc:	980d      	ldr	r0, [sp, #52]	@ 0x34
   22fbe:	7168      	strb	r0, [r5, #5]
   22fc0:	980e      	ldr	r0, [sp, #56]	@ 0x38
   22fc2:	7128      	strb	r0, [r5, #4]
   22fc4:	9811      	ldr	r0, [sp, #68]	@ 0x44
   22fc6:	70e8      	strb	r0, [r5, #3]
   22fc8:	9816      	ldr	r0, [sp, #88]	@ 0x58
   22fca:	7880      	ldrb	r0, [r0, #2]
   22fcc:	70a8      	strb	r0, [r5, #2]
   22fce:	98be      	ldr	r0, [sp, #760]	@ 0x2f8
   22fd0:	8028      	strh	r0, [r5, #0]
   22fd2:	1de8      	adds	r0, r5, #7
   22fd4:	9910      	ldr	r1, [sp, #64]	@ 0x40
   22fd6:	9a0f      	ldr	r2, [sp, #60]	@ 0x3c
   22fd8:	f002 fe3f 	bl	25c5a <__aeabi_memcpy>
   22fdc:	48bd      	ldr	r0, [pc, #756]	@ (232d4 <_start+0x31f0>)
   22fde:	4468      	add	r0, sp
   22fe0:	214d      	movs	r1, #77	@ 0x4d
   22fe2:	f002 fded 	bl	25bc0 <__aeabi_memclr4>
   22fe6:	48bc      	ldr	r0, [pc, #752]	@ (232d8 <_start+0x31f4>)
   22fe8:	2109      	movs	r1, #9
   22fea:	2353      	movs	r3, #83	@ 0x53
   22fec:	462a      	mov	r2, r5
   22fee:	df04      	svc	4
   22ff0:	9116      	str	r1, [sp, #88]	@ 0x58
   22ff2:	2802      	cmp	r0, #2
   22ff4:	d010      	beq.n	23018 <_start+0x2f34>
   22ff6:	48b8      	ldr	r0, [pc, #736]	@ (232d8 <_start+0x31f4>)
   22ff8:	2104      	movs	r1, #4
   22ffa:	4ab6      	ldr	r2, [pc, #728]	@ (232d4 <_start+0x31f0>)
   22ffc:	446a      	add	r2, sp
   22ffe:	234d      	movs	r3, #77	@ 0x4d
   23000:	df03      	svc	3
   23002:	9116      	str	r1, [sp, #88]	@ 0x58
   23004:	2802      	cmp	r0, #2
   23006:	d007      	beq.n	23018 <_start+0x2f34>
   23008:	48b3      	ldr	r0, [pc, #716]	@ (232d8 <_start+0x31f4>)
   2300a:	2109      	movs	r1, #9
   2300c:	2204      	movs	r2, #4
   2300e:	2300      	movs	r3, #0
   23010:	df02      	svc	2
   23012:	287f      	cmp	r0, #127	@ 0x7f
   23014:	d80e      	bhi.n	23034 <_start+0x2f50>
   23016:	9116      	str	r1, [sp, #88]	@ 0x58
   23018:	4daf      	ldr	r5, [pc, #700]	@ (232d8 <_start+0x31f4>)
   2301a:	2104      	movs	r1, #4
   2301c:	2600      	movs	r6, #0
   2301e:	4628      	mov	r0, r5
   23020:	4632      	mov	r2, r6
   23022:	4633      	mov	r3, r6
   23024:	df03      	svc	3
   23026:	2109      	movs	r1, #9
   23028:	4628      	mov	r0, r5
   2302a:	4632      	mov	r2, r6
   2302c:	4633      	mov	r3, r6
   2302e:	df04      	svc	4
   23030:	f7fd f8aa 	bl	20188 <_start+0xa4>
   23034:	48a8      	ldr	r0, [pc, #672]	@ (232d8 <_start+0x31f4>)
   23036:	2504      	movs	r5, #4
   23038:	9516      	str	r5, [sp, #88]	@ 0x58
   2303a:	2600      	movs	r6, #0
   2303c:	4629      	mov	r1, r5
   2303e:	4632      	mov	r2, r6
   23040:	4633      	mov	r3, r6
   23042:	df03      	svc	3
   23044:	48a4      	ldr	r0, [pc, #656]	@ (232d8 <_start+0x31f4>)
   23046:	4629      	mov	r1, r5
   23048:	4632      	mov	r2, r6
   2304a:	4633      	mov	r3, r6
   2304c:	df03      	svc	3
   2304e:	aabf      	add	r2, sp, #764	@ 0x2fc
   23050:	9211      	str	r2, [sp, #68]	@ 0x44
   23052:	9815      	ldr	r0, [sp, #84]	@ 0x54
   23054:	6800      	ldr	r0, [r0, #0]
   23056:	8010      	strh	r0, [r2, #0]
   23058:	489e      	ldr	r0, [pc, #632]	@ (232d4 <_start+0x31f0>)
   2305a:	4468      	add	r0, sp
   2305c:	7881      	ldrb	r1, [r0, #2]
   2305e:	7091      	strb	r1, [r2, #2]
   23060:	78c1      	ldrb	r1, [r0, #3]
   23062:	9110      	str	r1, [sp, #64]	@ 0x40
   23064:	7901      	ldrb	r1, [r0, #4]
   23066:	910f      	str	r1, [sp, #60]	@ 0x3c
   23068:	7941      	ldrb	r1, [r0, #5]
   2306a:	910e      	str	r1, [sp, #56]	@ 0x38
   2306c:	7981      	ldrb	r1, [r0, #6]
   2306e:	910d      	str	r1, [sp, #52]	@ 0x34
   23070:	1dc1      	adds	r1, r0, #7
   23072:	4d9a      	ldr	r5, [pc, #616]	@ (232dc <_start+0x31f8>)
   23074:	446d      	add	r5, sp
   23076:	2246      	movs	r2, #70	@ 0x46
   23078:	920c      	str	r2, [sp, #48]	@ 0x30
   2307a:	4628      	mov	r0, r5
   2307c:	f002 fded 	bl	25c5a <__aeabi_memcpy>
   23080:	4895      	ldr	r0, [pc, #596]	@ (232d8 <_start+0x31f4>)
   23082:	9916      	ldr	r1, [sp, #88]	@ 0x58
   23084:	4632      	mov	r2, r6
   23086:	4633      	mov	r3, r6
   23088:	df03      	svc	3
   2308a:	2109      	movs	r1, #9
   2308c:	4892      	ldr	r0, [pc, #584]	@ (232d8 <_start+0x31f4>)
   2308e:	4632      	mov	r2, r6
   23090:	4633      	mov	r3, r6
   23092:	df04      	svc	4
   23094:	4e8e      	ldr	r6, [pc, #568]	@ (232d0 <_start+0x31ec>)
   23096:	446e      	add	r6, sp
   23098:	1df0      	adds	r0, r6, #7
   2309a:	4629      	mov	r1, r5
   2309c:	9a0c      	ldr	r2, [sp, #48]	@ 0x30
   2309e:	f002 fddc 	bl	25c5a <__aeabi_memcpy>
   230a2:	980d      	ldr	r0, [sp, #52]	@ 0x34
   230a4:	71b0      	strb	r0, [r6, #6]
   230a6:	980e      	ldr	r0, [sp, #56]	@ 0x38
   230a8:	7170      	strb	r0, [r6, #5]
   230aa:	980f      	ldr	r0, [sp, #60]	@ 0x3c
   230ac:	7130      	strb	r0, [r6, #4]
   230ae:	9810      	ldr	r0, [sp, #64]	@ 0x40
   230b0:	70f0      	strb	r0, [r6, #3]
   230b2:	98bf      	ldr	r0, [sp, #764]	@ 0x2fc
   230b4:	8030      	strh	r0, [r6, #0]
   230b6:	9811      	ldr	r0, [sp, #68]	@ 0x44
   230b8:	7880      	ldrb	r0, [r0, #2]
   230ba:	70b0      	strb	r0, [r6, #2]
   230bc:	4885      	ldr	r0, [pc, #532]	@ (232d4 <_start+0x31f0>)
   230be:	4468      	add	r0, sp
   230c0:	213c      	movs	r1, #60	@ 0x3c
   230c2:	f002 fd7d 	bl	25bc0 <__aeabi_memclr4>
   230c6:	4886      	ldr	r0, [pc, #536]	@ (232e0 <_start+0x31fc>)
   230c8:	234d      	movs	r3, #77	@ 0x4d
   230ca:	9916      	ldr	r1, [sp, #88]	@ 0x58
   230cc:	4632      	mov	r2, r6
   230ce:	df04      	svc	4
   230d0:	2802      	cmp	r0, #2
   230d2:	d00e      	beq.n	230f2 <_start+0x300e>
   230d4:	4882      	ldr	r0, [pc, #520]	@ (232e0 <_start+0x31fc>)
   230d6:	2109      	movs	r1, #9
   230d8:	4a7e      	ldr	r2, [pc, #504]	@ (232d4 <_start+0x31f0>)
   230da:	446a      	add	r2, sp
   230dc:	233c      	movs	r3, #60	@ 0x3c
   230de:	df03      	svc	3
   230e0:	2802      	cmp	r0, #2
   230e2:	d006      	beq.n	230f2 <_start+0x300e>
   230e4:	487e      	ldr	r0, [pc, #504]	@ (232e0 <_start+0x31fc>)
   230e6:	2104      	movs	r1, #4
   230e8:	2209      	movs	r2, #9
   230ea:	2300      	movs	r3, #0
   230ec:	df02      	svc	2
   230ee:	287f      	cmp	r0, #127	@ 0x7f
   230f0:	d80e      	bhi.n	23110 <_start+0x302c>
   230f2:	9116      	str	r1, [sp, #88]	@ 0x58
   230f4:	4d7a      	ldr	r5, [pc, #488]	@ (232e0 <_start+0x31fc>)
   230f6:	2109      	movs	r1, #9
   230f8:	2600      	movs	r6, #0
   230fa:	4628      	mov	r0, r5
   230fc:	4632      	mov	r2, r6
   230fe:	4633      	mov	r3, r6
   23100:	df03      	svc	3
   23102:	2104      	movs	r1, #4
   23104:	4628      	mov	r0, r5
   23106:	4632      	mov	r2, r6
   23108:	4633      	mov	r3, r6
   2310a:	df04      	svc	4
   2310c:	f7fd f83c 	bl	20188 <_start+0xa4>
   23110:	4873      	ldr	r0, [pc, #460]	@ (232e0 <_start+0x31fc>)
   23112:	2609      	movs	r6, #9
   23114:	2500      	movs	r5, #0
   23116:	4631      	mov	r1, r6
   23118:	462a      	mov	r2, r5
   2311a:	462b      	mov	r3, r5
   2311c:	df03      	svc	3
   2311e:	4870      	ldr	r0, [pc, #448]	@ (232e0 <_start+0x31fc>)
   23120:	4631      	mov	r1, r6
   23122:	462a      	mov	r2, r5
   23124:	462b      	mov	r3, r5
   23126:	df03      	svc	3
   23128:	aac0      	add	r2, sp, #768	@ 0x300
   2312a:	9216      	str	r2, [sp, #88]	@ 0x58
   2312c:	9815      	ldr	r0, [sp, #84]	@ 0x54
   2312e:	6800      	ldr	r0, [r0, #0]
   23130:	8010      	strh	r0, [r2, #0]
   23132:	4868      	ldr	r0, [pc, #416]	@ (232d4 <_start+0x31f0>)
   23134:	4468      	add	r0, sp
   23136:	7881      	ldrb	r1, [r0, #2]
   23138:	7091      	strb	r1, [r2, #2]
   2313a:	78c1      	ldrb	r1, [r0, #3]
   2313c:	9111      	str	r1, [sp, #68]	@ 0x44
   2313e:	7901      	ldrb	r1, [r0, #4]
   23140:	9110      	str	r1, [sp, #64]	@ 0x40
   23142:	7941      	ldrb	r1, [r0, #5]
   23144:	910f      	str	r1, [sp, #60]	@ 0x3c
   23146:	7981      	ldrb	r1, [r0, #6]
   23148:	910e      	str	r1, [sp, #56]	@ 0x38
   2314a:	1dc1      	adds	r1, r0, #7
   2314c:	4863      	ldr	r0, [pc, #396]	@ (232dc <_start+0x31f8>)
   2314e:	4468      	add	r0, sp
   23150:	900d      	str	r0, [sp, #52]	@ 0x34
   23152:	2235      	movs	r2, #53	@ 0x35
   23154:	920c      	str	r2, [sp, #48]	@ 0x30
   23156:	f002 fd80 	bl	25c5a <__aeabi_memcpy>
   2315a:	4861      	ldr	r0, [pc, #388]	@ (232e0 <_start+0x31fc>)
   2315c:	4631      	mov	r1, r6
   2315e:	462a      	mov	r2, r5
   23160:	462b      	mov	r3, r5
   23162:	df03      	svc	3
   23164:	2104      	movs	r1, #4
   23166:	485e      	ldr	r0, [pc, #376]	@ (232e0 <_start+0x31fc>)
   23168:	462a      	mov	r2, r5
   2316a:	462b      	mov	r3, r5
   2316c:	df04      	svc	4
   2316e:	4d58      	ldr	r5, [pc, #352]	@ (232d0 <_start+0x31ec>)
   23170:	446d      	add	r5, sp
   23172:	1de8      	adds	r0, r5, #7
   23174:	990d      	ldr	r1, [sp, #52]	@ 0x34
   23176:	9a0c      	ldr	r2, [sp, #48]	@ 0x30
   23178:	f002 fd6f 	bl	25c5a <__aeabi_memcpy>
   2317c:	980e      	ldr	r0, [sp, #56]	@ 0x38
   2317e:	71a8      	strb	r0, [r5, #6]
   23180:	980f      	ldr	r0, [sp, #60]	@ 0x3c
   23182:	7168      	strb	r0, [r5, #5]
   23184:	9810      	ldr	r0, [sp, #64]	@ 0x40
   23186:	7128      	strb	r0, [r5, #4]
   23188:	9811      	ldr	r0, [sp, #68]	@ 0x44
   2318a:	70e8      	strb	r0, [r5, #3]
   2318c:	98c0      	ldr	r0, [sp, #768]	@ 0x300
   2318e:	8028      	strh	r0, [r5, #0]
   23190:	9816      	ldr	r0, [sp, #88]	@ 0x58
   23192:	7880      	ldrb	r0, [r0, #2]
   23194:	70a8      	strb	r0, [r5, #2]
   23196:	484f      	ldr	r0, [pc, #316]	@ (232d4 <_start+0x31f0>)
   23198:	4468      	add	r0, sp
   2319a:	2138      	movs	r1, #56	@ 0x38
   2319c:	f002 fd10 	bl	25bc0 <__aeabi_memclr4>
   231a0:	4850      	ldr	r0, [pc, #320]	@ (232e4 <_start+0x3200>)
   231a2:	2103      	movs	r1, #3
   231a4:	233c      	movs	r3, #60	@ 0x3c
   231a6:	462a      	mov	r2, r5
   231a8:	df04      	svc	4
   231aa:	2802      	cmp	r0, #2
   231ac:	d00e      	beq.n	231cc <_start+0x30e8>
   231ae:	484d      	ldr	r0, [pc, #308]	@ (232e4 <_start+0x3200>)
   231b0:	2103      	movs	r1, #3
   231b2:	4a48      	ldr	r2, [pc, #288]	@ (232d4 <_start+0x31f0>)
   231b4:	446a      	add	r2, sp
   231b6:	2338      	movs	r3, #56	@ 0x38
   231b8:	df03      	svc	3
   231ba:	2802      	cmp	r0, #2
   231bc:	d006      	beq.n	231cc <_start+0x30e8>
   231be:	4849      	ldr	r0, [pc, #292]	@ (232e4 <_start+0x3200>)
   231c0:	2103      	movs	r1, #3
   231c2:	2300      	movs	r3, #0
   231c4:	460a      	mov	r2, r1
   231c6:	df02      	svc	2
   231c8:	287f      	cmp	r0, #127	@ 0x7f
   231ca:	d811      	bhi.n	231f0 <_start+0x310c>
   231cc:	9116      	str	r1, [sp, #88]	@ 0x58
   231ce:	4845      	ldr	r0, [pc, #276]	@ (232e4 <_start+0x3200>)
   231d0:	2603      	movs	r6, #3
   231d2:	2500      	movs	r5, #0
   231d4:	4631      	mov	r1, r6
   231d6:	462a      	mov	r2, r5
   231d8:	462b      	mov	r3, r5
   231da:	df03      	svc	3
   231dc:	4841      	ldr	r0, [pc, #260]	@ (232e4 <_start+0x3200>)
   231de:	4631      	mov	r1, r6
   231e0:	462a      	mov	r2, r5
   231e2:	462b      	mov	r3, r5
   231e4:	df04      	svc	4
   231e6:	f7fc ffcf 	bl	20188 <_start+0xa4>
   231ea:	46c0      	nop			@ (mov r8, r8)
   231ec:	0000253e 	.word	0x0000253e
   231f0:	483c      	ldr	r0, [pc, #240]	@ (232e4 <_start+0x3200>)
   231f2:	2603      	movs	r6, #3
   231f4:	2500      	movs	r5, #0
   231f6:	4631      	mov	r1, r6
   231f8:	462a      	mov	r2, r5
   231fa:	462b      	mov	r3, r5
   231fc:	df03      	svc	3
   231fe:	4839      	ldr	r0, [pc, #228]	@ (232e4 <_start+0x3200>)
   23200:	4631      	mov	r1, r6
   23202:	462a      	mov	r2, r5
   23204:	462b      	mov	r3, r5
   23206:	df03      	svc	3
   23208:	aac1      	add	r2, sp, #772	@ 0x304
   2320a:	9211      	str	r2, [sp, #68]	@ 0x44
   2320c:	9815      	ldr	r0, [sp, #84]	@ 0x54
   2320e:	6800      	ldr	r0, [r0, #0]
   23210:	8010      	strh	r0, [r2, #0]
   23212:	4830      	ldr	r0, [pc, #192]	@ (232d4 <_start+0x31f0>)
   23214:	4468      	add	r0, sp
   23216:	7881      	ldrb	r1, [r0, #2]
   23218:	7091      	strb	r1, [r2, #2]
   2321a:	78c1      	ldrb	r1, [r0, #3]
   2321c:	9110      	str	r1, [sp, #64]	@ 0x40
   2321e:	7901      	ldrb	r1, [r0, #4]
   23220:	910f      	str	r1, [sp, #60]	@ 0x3c
   23222:	7941      	ldrb	r1, [r0, #5]
   23224:	910e      	str	r1, [sp, #56]	@ 0x38
   23226:	7981      	ldrb	r1, [r0, #6]
   23228:	910d      	str	r1, [sp, #52]	@ 0x34
   2322a:	1dc1      	adds	r1, r0, #7
   2322c:	482b      	ldr	r0, [pc, #172]	@ (232dc <_start+0x31f8>)
   2322e:	4468      	add	r0, sp
   23230:	900c      	str	r0, [sp, #48]	@ 0x30
   23232:	2231      	movs	r2, #49	@ 0x31
   23234:	9216      	str	r2, [sp, #88]	@ 0x58
   23236:	f002 fd10 	bl	25c5a <__aeabi_memcpy>
   2323a:	482a      	ldr	r0, [pc, #168]	@ (232e4 <_start+0x3200>)
   2323c:	4631      	mov	r1, r6
   2323e:	462a      	mov	r2, r5
   23240:	462b      	mov	r3, r5
   23242:	df03      	svc	3
   23244:	4827      	ldr	r0, [pc, #156]	@ (232e4 <_start+0x3200>)
   23246:	4631      	mov	r1, r6
   23248:	462a      	mov	r2, r5
   2324a:	462b      	mov	r3, r5
   2324c:	df04      	svc	4
   2324e:	4d20      	ldr	r5, [pc, #128]	@ (232d0 <_start+0x31ec>)
   23250:	446d      	add	r5, sp
   23252:	1de8      	adds	r0, r5, #7
   23254:	990c      	ldr	r1, [sp, #48]	@ 0x30
   23256:	9a16      	ldr	r2, [sp, #88]	@ 0x58
   23258:	f002 fcff 	bl	25c5a <__aeabi_memcpy>
   2325c:	980d      	ldr	r0, [sp, #52]	@ 0x34
   2325e:	71a8      	strb	r0, [r5, #6]
   23260:	980e      	ldr	r0, [sp, #56]	@ 0x38
   23262:	7168      	strb	r0, [r5, #5]
   23264:	980f      	ldr	r0, [sp, #60]	@ 0x3c
   23266:	7128      	strb	r0, [r5, #4]
   23268:	9810      	ldr	r0, [sp, #64]	@ 0x40
   2326a:	70e8      	strb	r0, [r5, #3]
   2326c:	98c1      	ldr	r0, [sp, #772]	@ 0x304
   2326e:	8028      	strh	r0, [r5, #0]
   23270:	9811      	ldr	r0, [sp, #68]	@ 0x44
   23272:	7880      	ldrb	r0, [r0, #2]
   23274:	70a8      	strb	r0, [r5, #2]
   23276:	4817      	ldr	r0, [pc, #92]	@ (232d4 <_start+0x31f0>)
   23278:	4468      	add	r0, sp
   2327a:	2127      	movs	r1, #39	@ 0x27
   2327c:	f002 fca0 	bl	25bc0 <__aeabi_memclr4>
   23280:	4819      	ldr	r0, [pc, #100]	@ (232e8 <_start+0x3204>)
   23282:	2102      	movs	r1, #2
   23284:	2338      	movs	r3, #56	@ 0x38
   23286:	462a      	mov	r2, r5
   23288:	df04      	svc	4
   2328a:	2802      	cmp	r0, #2
   2328c:	d00e      	beq.n	232ac <_start+0x31c8>
   2328e:	4816      	ldr	r0, [pc, #88]	@ (232e8 <_start+0x3204>)
   23290:	2108      	movs	r1, #8
   23292:	4a10      	ldr	r2, [pc, #64]	@ (232d4 <_start+0x31f0>)
   23294:	446a      	add	r2, sp
   23296:	2327      	movs	r3, #39	@ 0x27
   23298:	df03      	svc	3
   2329a:	2802      	cmp	r0, #2
   2329c:	d006      	beq.n	232ac <_start+0x31c8>
   2329e:	4812      	ldr	r0, [pc, #72]	@ (232e8 <_start+0x3204>)
   232a0:	2102      	movs	r1, #2
   232a2:	2208      	movs	r2, #8
   232a4:	2300      	movs	r3, #0
   232a6:	df02      	svc	2
   232a8:	287f      	cmp	r0, #127	@ 0x7f
   232aa:	d81f      	bhi.n	232ec <_start+0x3208>
   232ac:	9116      	str	r1, [sp, #88]	@ 0x58
   232ae:	4d0e      	ldr	r5, [pc, #56]	@ (232e8 <_start+0x3204>)
   232b0:	2108      	movs	r1, #8
   232b2:	2600      	movs	r6, #0
   232b4:	4628      	mov	r0, r5
   232b6:	4632      	mov	r2, r6
   232b8:	4633      	mov	r3, r6
   232ba:	df03      	svc	3
   232bc:	2102      	movs	r1, #2
   232be:	4628      	mov	r0, r5
   232c0:	4632      	mov	r2, r6
   232c2:	4633      	mov	r3, r6
   232c4:	df04      	svc	4
   232c6:	f7fc ff5f 	bl	20188 <_start+0xa4>
   232ca:	46c0      	nop			@ (mov r8, r8)
   232cc:	0000253e 	.word	0x0000253e
   232d0:	000006e8 	.word	0x000006e8
   232d4:	00000684 	.word	0x00000684
   232d8:	000016ba 	.word	0x000016ba
   232dc:	000005b8 	.word	0x000005b8
   232e0:	000021ab 	.word	0x000021ab
   232e4:	00001d19 	.word	0x00001d19
   232e8:	00000e2b 	.word	0x00000e2b
   232ec:	48a3      	ldr	r0, [pc, #652]	@ (2357c <_start+0x3498>)
   232ee:	2508      	movs	r5, #8
   232f0:	2600      	movs	r6, #0
   232f2:	4629      	mov	r1, r5
   232f4:	4632      	mov	r2, r6
   232f6:	4633      	mov	r3, r6
   232f8:	df03      	svc	3
   232fa:	48da      	ldr	r0, [pc, #872]	@ (23664 <_start+0x3580>)
   232fc:	4629      	mov	r1, r5
   232fe:	4632      	mov	r2, r6
   23300:	4633      	mov	r3, r6
   23302:	df03      	svc	3
   23304:	aaca      	add	r2, sp, #808	@ 0x328
   23306:	9211      	str	r2, [sp, #68]	@ 0x44
   23308:	9815      	ldr	r0, [sp, #84]	@ 0x54
   2330a:	6800      	ldr	r0, [r0, #0]
   2330c:	8010      	strh	r0, [r2, #0]
   2330e:	48d6      	ldr	r0, [pc, #856]	@ (23668 <_start+0x3584>)
   23310:	4468      	add	r0, sp
   23312:	7881      	ldrb	r1, [r0, #2]
   23314:	7091      	strb	r1, [r2, #2]
   23316:	78c1      	ldrb	r1, [r0, #3]
   23318:	9110      	str	r1, [sp, #64]	@ 0x40
   2331a:	7901      	ldrb	r1, [r0, #4]
   2331c:	910d      	str	r1, [sp, #52]	@ 0x34
   2331e:	7941      	ldrb	r1, [r0, #5]
   23320:	910c      	str	r1, [sp, #48]	@ 0x30
   23322:	7981      	ldrb	r1, [r0, #6]
   23324:	910b      	str	r1, [sp, #44]	@ 0x2c
   23326:	1dc1      	adds	r1, r0, #7
   23328:	a8c2      	add	r0, sp, #776	@ 0x308
   2332a:	900f      	str	r0, [sp, #60]	@ 0x3c
   2332c:	2220      	movs	r2, #32
   2332e:	920e      	str	r2, [sp, #56]	@ 0x38
   23330:	f002 fc93 	bl	25c5a <__aeabi_memcpy>
   23334:	48cb      	ldr	r0, [pc, #812]	@ (23664 <_start+0x3580>)
   23336:	4629      	mov	r1, r5
   23338:	4632      	mov	r2, r6
   2333a:	4633      	mov	r3, r6
   2333c:	df03      	svc	3
   2333e:	2102      	movs	r1, #2
   23340:	48c8      	ldr	r0, [pc, #800]	@ (23664 <_start+0x3580>)
   23342:	4632      	mov	r2, r6
   23344:	4633      	mov	r3, r6
   23346:	df04      	svc	4
   23348:	4dc8      	ldr	r5, [pc, #800]	@ (2366c <_start+0x3588>)
   2334a:	446d      	add	r5, sp
   2334c:	980b      	ldr	r0, [sp, #44]	@ 0x2c
   2334e:	71a8      	strb	r0, [r5, #6]
   23350:	980c      	ldr	r0, [sp, #48]	@ 0x30
   23352:	7168      	strb	r0, [r5, #5]
   23354:	980d      	ldr	r0, [sp, #52]	@ 0x34
   23356:	7128      	strb	r0, [r5, #4]
   23358:	9810      	ldr	r0, [sp, #64]	@ 0x40
   2335a:	70e8      	strb	r0, [r5, #3]
   2335c:	9811      	ldr	r0, [sp, #68]	@ 0x44
   2335e:	7880      	ldrb	r0, [r0, #2]
   23360:	70a8      	strb	r0, [r5, #2]
   23362:	98ca      	ldr	r0, [sp, #808]	@ 0x328
   23364:	8028      	strh	r0, [r5, #0]
   23366:	1de8      	adds	r0, r5, #7
   23368:	990f      	ldr	r1, [sp, #60]	@ 0x3c
   2336a:	9a0e      	ldr	r2, [sp, #56]	@ 0x38
   2336c:	f002 fc75 	bl	25c5a <__aeabi_memcpy>
   23370:	48bf      	ldr	r0, [pc, #764]	@ (23670 <_start+0x358c>)
   23372:	4468      	add	r0, sp
   23374:	2151      	movs	r1, #81	@ 0x51
   23376:	f002 fc23 	bl	25bc0 <__aeabi_memclr4>
   2337a:	48be      	ldr	r0, [pc, #760]	@ (23674 <_start+0x3590>)
   2337c:	2327      	movs	r3, #39	@ 0x27
   2337e:	4631      	mov	r1, r6
   23380:	462a      	mov	r2, r5
   23382:	df04      	svc	4
   23384:	2802      	cmp	r0, #2
   23386:	d00e      	beq.n	233a6 <_start+0x32c2>
   23388:	48ba      	ldr	r0, [pc, #744]	@ (23674 <_start+0x3590>)
   2338a:	2104      	movs	r1, #4
   2338c:	4ab8      	ldr	r2, [pc, #736]	@ (23670 <_start+0x358c>)
   2338e:	446a      	add	r2, sp
   23390:	2351      	movs	r3, #81	@ 0x51
   23392:	df03      	svc	3
   23394:	2802      	cmp	r0, #2
   23396:	d006      	beq.n	233a6 <_start+0x32c2>
   23398:	48b6      	ldr	r0, [pc, #728]	@ (23674 <_start+0x3590>)
   2339a:	2204      	movs	r2, #4
   2339c:	2100      	movs	r1, #0
   2339e:	460b      	mov	r3, r1
   233a0:	df02      	svc	2
   233a2:	287f      	cmp	r0, #127	@ 0x7f
   233a4:	d80e      	bhi.n	233c4 <_start+0x32e0>
   233a6:	9116      	str	r1, [sp, #88]	@ 0x58
   233a8:	4db2      	ldr	r5, [pc, #712]	@ (23674 <_start+0x3590>)
   233aa:	2104      	movs	r1, #4
   233ac:	2600      	movs	r6, #0
   233ae:	4628      	mov	r0, r5
   233b0:	4632      	mov	r2, r6
   233b2:	4633      	mov	r3, r6
   233b4:	df03      	svc	3
   233b6:	4628      	mov	r0, r5
   233b8:	4631      	mov	r1, r6
   233ba:	4632      	mov	r2, r6
   233bc:	4633      	mov	r3, r6
   233be:	df04      	svc	4
   233c0:	f7fc fee2 	bl	20188 <_start+0xa4>
   233c4:	48ab      	ldr	r0, [pc, #684]	@ (23674 <_start+0x3590>)
   233c6:	2604      	movs	r6, #4
   233c8:	9611      	str	r6, [sp, #68]	@ 0x44
   233ca:	2500      	movs	r5, #0
   233cc:	4631      	mov	r1, r6
   233ce:	462a      	mov	r2, r5
   233d0:	462b      	mov	r3, r5
   233d2:	df03      	svc	3
   233d4:	48a7      	ldr	r0, [pc, #668]	@ (23674 <_start+0x3590>)
   233d6:	4631      	mov	r1, r6
   233d8:	462a      	mov	r2, r5
   233da:	462b      	mov	r3, r5
   233dc:	df03      	svc	3
   233de:	aacb      	add	r2, sp, #812	@ 0x32c
   233e0:	9210      	str	r2, [sp, #64]	@ 0x40
   233e2:	9815      	ldr	r0, [sp, #84]	@ 0x54
   233e4:	6e40      	ldr	r0, [r0, #100]	@ 0x64
   233e6:	8010      	strh	r0, [r2, #0]
   233e8:	48a1      	ldr	r0, [pc, #644]	@ (23670 <_start+0x358c>)
   233ea:	4468      	add	r0, sp
   233ec:	7881      	ldrb	r1, [r0, #2]
   233ee:	7091      	strb	r1, [r2, #2]
   233f0:	78c1      	ldrb	r1, [r0, #3]
   233f2:	910f      	str	r1, [sp, #60]	@ 0x3c
   233f4:	7901      	ldrb	r1, [r0, #4]
   233f6:	910e      	str	r1, [sp, #56]	@ 0x38
   233f8:	7941      	ldrb	r1, [r0, #5]
   233fa:	910d      	str	r1, [sp, #52]	@ 0x34
   233fc:	7981      	ldrb	r1, [r0, #6]
   233fe:	910c      	str	r1, [sp, #48]	@ 0x30
   23400:	1dc1      	adds	r1, r0, #7
   23402:	4e99      	ldr	r6, [pc, #612]	@ (23668 <_start+0x3584>)
   23404:	446e      	add	r6, sp
   23406:	224a      	movs	r2, #74	@ 0x4a
   23408:	920b      	str	r2, [sp, #44]	@ 0x2c
   2340a:	4630      	mov	r0, r6
   2340c:	f002 fc25 	bl	25c5a <__aeabi_memcpy>
   23410:	4898      	ldr	r0, [pc, #608]	@ (23674 <_start+0x3590>)
   23412:	9911      	ldr	r1, [sp, #68]	@ 0x44
   23414:	462a      	mov	r2, r5
   23416:	462b      	mov	r3, r5
   23418:	df03      	svc	3
   2341a:	4896      	ldr	r0, [pc, #600]	@ (23674 <_start+0x3590>)
   2341c:	4629      	mov	r1, r5
   2341e:	462a      	mov	r2, r5
   23420:	462b      	mov	r3, r5
   23422:	df04      	svc	4
   23424:	4d92      	ldr	r5, [pc, #584]	@ (23670 <_start+0x358c>)
   23426:	446d      	add	r5, sp
   23428:	1de8      	adds	r0, r5, #7
   2342a:	4631      	mov	r1, r6
   2342c:	9a0b      	ldr	r2, [sp, #44]	@ 0x2c
   2342e:	f002 fc14 	bl	25c5a <__aeabi_memcpy>
   23432:	980c      	ldr	r0, [sp, #48]	@ 0x30
   23434:	71a8      	strb	r0, [r5, #6]
   23436:	980d      	ldr	r0, [sp, #52]	@ 0x34
   23438:	7168      	strb	r0, [r5, #5]
   2343a:	980e      	ldr	r0, [sp, #56]	@ 0x38
   2343c:	7128      	strb	r0, [r5, #4]
   2343e:	980f      	ldr	r0, [sp, #60]	@ 0x3c
   23440:	70e8      	strb	r0, [r5, #3]
   23442:	98cb      	ldr	r0, [sp, #812]	@ 0x32c
   23444:	8028      	strh	r0, [r5, #0]
   23446:	9810      	ldr	r0, [sp, #64]	@ 0x40
   23448:	7880      	ldrb	r0, [r0, #2]
   2344a:	70a8      	strb	r0, [r5, #2]
   2344c:	4886      	ldr	r0, [pc, #536]	@ (23668 <_start+0x3584>)
   2344e:	4468      	add	r0, sp
   23450:	214f      	movs	r1, #79	@ 0x4f
   23452:	f002 fbb5 	bl	25bc0 <__aeabi_memclr4>
   23456:	4888      	ldr	r0, [pc, #544]	@ (23678 <_start+0x3594>)
   23458:	2351      	movs	r3, #81	@ 0x51
   2345a:	9911      	ldr	r1, [sp, #68]	@ 0x44
   2345c:	462a      	mov	r2, r5
   2345e:	df04      	svc	4
   23460:	2802      	cmp	r0, #2
   23462:	d00e      	beq.n	23482 <_start+0x339e>
   23464:	4884      	ldr	r0, [pc, #528]	@ (23678 <_start+0x3594>)
   23466:	2109      	movs	r1, #9
   23468:	4a7f      	ldr	r2, [pc, #508]	@ (23668 <_start+0x3584>)
   2346a:	446a      	add	r2, sp
   2346c:	234f      	movs	r3, #79	@ 0x4f
   2346e:	df03      	svc	3
   23470:	2802      	cmp	r0, #2
   23472:	d006      	beq.n	23482 <_start+0x339e>
   23474:	4880      	ldr	r0, [pc, #512]	@ (23678 <_start+0x3594>)
   23476:	2104      	movs	r1, #4
   23478:	2209      	movs	r2, #9
   2347a:	2300      	movs	r3, #0
   2347c:	df02      	svc	2
   2347e:	287f      	cmp	r0, #127	@ 0x7f
   23480:	d80e      	bhi.n	234a0 <_start+0x33bc>
   23482:	9116      	str	r1, [sp, #88]	@ 0x58
   23484:	4d7c      	ldr	r5, [pc, #496]	@ (23678 <_start+0x3594>)
   23486:	2109      	movs	r1, #9
   23488:	2600      	movs	r6, #0
   2348a:	4628      	mov	r0, r5
   2348c:	4632      	mov	r2, r6
   2348e:	4633      	mov	r3, r6
   23490:	df03      	svc	3
   23492:	2104      	movs	r1, #4
   23494:	4628      	mov	r0, r5
   23496:	4632      	mov	r2, r6
   23498:	4633      	mov	r3, r6
   2349a:	df04      	svc	4
   2349c:	f7fc fe74 	bl	20188 <_start+0xa4>
   234a0:	4875      	ldr	r0, [pc, #468]	@ (23678 <_start+0x3594>)
   234a2:	2509      	movs	r5, #9
   234a4:	2600      	movs	r6, #0
   234a6:	4629      	mov	r1, r5
   234a8:	4632      	mov	r2, r6
   234aa:	4633      	mov	r3, r6
   234ac:	df03      	svc	3
   234ae:	4872      	ldr	r0, [pc, #456]	@ (23678 <_start+0x3594>)
   234b0:	4629      	mov	r1, r5
   234b2:	4632      	mov	r2, r6
   234b4:	4633      	mov	r3, r6
   234b6:	df03      	svc	3
   234b8:	aade      	add	r2, sp, #888	@ 0x378
   234ba:	9211      	str	r2, [sp, #68]	@ 0x44
   234bc:	9815      	ldr	r0, [sp, #84]	@ 0x54
   234be:	6800      	ldr	r0, [r0, #0]
   234c0:	8010      	strh	r0, [r2, #0]
   234c2:	4869      	ldr	r0, [pc, #420]	@ (23668 <_start+0x3584>)
   234c4:	4468      	add	r0, sp
   234c6:	7881      	ldrb	r1, [r0, #2]
   234c8:	7091      	strb	r1, [r2, #2]
   234ca:	78c1      	ldrb	r1, [r0, #3]
   234cc:	9110      	str	r1, [sp, #64]	@ 0x40
   234ce:	7901      	ldrb	r1, [r0, #4]
   234d0:	910d      	str	r1, [sp, #52]	@ 0x34
   234d2:	7941      	ldrb	r1, [r0, #5]
   234d4:	910c      	str	r1, [sp, #48]	@ 0x30
   234d6:	7981      	ldrb	r1, [r0, #6]
   234d8:	910b      	str	r1, [sp, #44]	@ 0x2c
   234da:	1dc1      	adds	r1, r0, #7
   234dc:	a8cc      	add	r0, sp, #816	@ 0x330
   234de:	900f      	str	r0, [sp, #60]	@ 0x3c
   234e0:	2248      	movs	r2, #72	@ 0x48
   234e2:	920e      	str	r2, [sp, #56]	@ 0x38
   234e4:	f002 fbb9 	bl	25c5a <__aeabi_memcpy>
   234e8:	4863      	ldr	r0, [pc, #396]	@ (23678 <_start+0x3594>)
   234ea:	4629      	mov	r1, r5
   234ec:	4632      	mov	r2, r6
   234ee:	4633      	mov	r3, r6
   234f0:	df03      	svc	3
   234f2:	2104      	movs	r1, #4
   234f4:	4860      	ldr	r0, [pc, #384]	@ (23678 <_start+0x3594>)
   234f6:	4632      	mov	r2, r6
   234f8:	4633      	mov	r3, r6
   234fa:	df04      	svc	4
   234fc:	4d5b      	ldr	r5, [pc, #364]	@ (2366c <_start+0x3588>)
   234fe:	446d      	add	r5, sp
   23500:	980b      	ldr	r0, [sp, #44]	@ 0x2c
   23502:	71a8      	strb	r0, [r5, #6]
   23504:	980c      	ldr	r0, [sp, #48]	@ 0x30
   23506:	7168      	strb	r0, [r5, #5]
   23508:	980d      	ldr	r0, [sp, #52]	@ 0x34
   2350a:	7128      	strb	r0, [r5, #4]
   2350c:	9810      	ldr	r0, [sp, #64]	@ 0x40
   2350e:	70e8      	strb	r0, [r5, #3]
   23510:	9811      	ldr	r0, [sp, #68]	@ 0x44
   23512:	7880      	ldrb	r0, [r0, #2]
   23514:	70a8      	strb	r0, [r5, #2]
   23516:	98de      	ldr	r0, [sp, #888]	@ 0x378
   23518:	8028      	strh	r0, [r5, #0]
   2351a:	1de8      	adds	r0, r5, #7
   2351c:	990f      	ldr	r1, [sp, #60]	@ 0x3c
   2351e:	9a0e      	ldr	r2, [sp, #56]	@ 0x38
   23520:	f002 fb9b 	bl	25c5a <__aeabi_memcpy>
   23524:	4852      	ldr	r0, [pc, #328]	@ (23670 <_start+0x358c>)
   23526:	4468      	add	r0, sp
   23528:	2161      	movs	r1, #97	@ 0x61
   2352a:	f002 fb49 	bl	25bc0 <__aeabi_memclr4>
   2352e:	20db      	movs	r0, #219	@ 0xdb
   23530:	0040      	lsls	r0, r0, #1
   23532:	2102      	movs	r1, #2
   23534:	234f      	movs	r3, #79	@ 0x4f
   23536:	4606      	mov	r6, r0
   23538:	462a      	mov	r2, r5
   2353a:	df04      	svc	4
   2353c:	2802      	cmp	r0, #2
   2353e:	d00e      	beq.n	2355e <_start+0x347a>
   23540:	2108      	movs	r1, #8
   23542:	4a4b      	ldr	r2, [pc, #300]	@ (23670 <_start+0x358c>)
   23544:	446a      	add	r2, sp
   23546:	2361      	movs	r3, #97	@ 0x61
   23548:	4630      	mov	r0, r6
   2354a:	df03      	svc	3
   2354c:	2802      	cmp	r0, #2
   2354e:	d006      	beq.n	2355e <_start+0x347a>
   23550:	2102      	movs	r1, #2
   23552:	2208      	movs	r2, #8
   23554:	2300      	movs	r3, #0
   23556:	4630      	mov	r0, r6
   23558:	df02      	svc	2
   2355a:	287f      	cmp	r0, #127	@ 0x7f
   2355c:	d810      	bhi.n	23580 <_start+0x349c>
   2355e:	9116      	str	r1, [sp, #88]	@ 0x58
   23560:	2108      	movs	r1, #8
   23562:	2500      	movs	r5, #0
   23564:	4630      	mov	r0, r6
   23566:	462a      	mov	r2, r5
   23568:	462b      	mov	r3, r5
   2356a:	df03      	svc	3
   2356c:	2102      	movs	r1, #2
   2356e:	4630      	mov	r0, r6
   23570:	462a      	mov	r2, r5
   23572:	462b      	mov	r3, r5
   23574:	df04      	svc	4
   23576:	f7fc fe07 	bl	20188 <_start+0xa4>
   2357a:	46c0      	nop			@ (mov r8, r8)
   2357c:	00000e2b 	.word	0x00000e2b
   23580:	2108      	movs	r1, #8
   23582:	2500      	movs	r5, #0
   23584:	9611      	str	r6, [sp, #68]	@ 0x44
   23586:	4630      	mov	r0, r6
   23588:	460e      	mov	r6, r1
   2358a:	910b      	str	r1, [sp, #44]	@ 0x2c
   2358c:	462a      	mov	r2, r5
   2358e:	462b      	mov	r3, r5
   23590:	df03      	svc	3
   23592:	9811      	ldr	r0, [sp, #68]	@ 0x44
   23594:	4631      	mov	r1, r6
   23596:	462a      	mov	r2, r5
   23598:	462b      	mov	r3, r5
   2359a:	df03      	svc	3
   2359c:	aadf      	add	r2, sp, #892	@ 0x37c
   2359e:	9210      	str	r2, [sp, #64]	@ 0x40
   235a0:	9815      	ldr	r0, [sp, #84]	@ 0x54
   235a2:	6e40      	ldr	r0, [r0, #100]	@ 0x64
   235a4:	8010      	strh	r0, [r2, #0]
   235a6:	4832      	ldr	r0, [pc, #200]	@ (23670 <_start+0x358c>)
   235a8:	4468      	add	r0, sp
   235aa:	7881      	ldrb	r1, [r0, #2]
   235ac:	7091      	strb	r1, [r2, #2]
   235ae:	78c1      	ldrb	r1, [r0, #3]
   235b0:	910f      	str	r1, [sp, #60]	@ 0x3c
   235b2:	7901      	ldrb	r1, [r0, #4]
   235b4:	910e      	str	r1, [sp, #56]	@ 0x38
   235b6:	7941      	ldrb	r1, [r0, #5]
   235b8:	910d      	str	r1, [sp, #52]	@ 0x34
   235ba:	7981      	ldrb	r1, [r0, #6]
   235bc:	910c      	str	r1, [sp, #48]	@ 0x30
   235be:	1dc1      	adds	r1, r0, #7
   235c0:	4829      	ldr	r0, [pc, #164]	@ (23668 <_start+0x3584>)
   235c2:	4468      	add	r0, sp
   235c4:	900a      	str	r0, [sp, #40]	@ 0x28
   235c6:	225a      	movs	r2, #90	@ 0x5a
   235c8:	9209      	str	r2, [sp, #36]	@ 0x24
   235ca:	f002 fb46 	bl	25c5a <__aeabi_memcpy>
   235ce:	9e11      	ldr	r6, [sp, #68]	@ 0x44
   235d0:	4630      	mov	r0, r6
   235d2:	990b      	ldr	r1, [sp, #44]	@ 0x2c
   235d4:	462a      	mov	r2, r5
   235d6:	462b      	mov	r3, r5
   235d8:	df03      	svc	3
   235da:	2102      	movs	r1, #2
   235dc:	4630      	mov	r0, r6
   235de:	462a      	mov	r2, r5
   235e0:	462b      	mov	r3, r5
   235e2:	df04      	svc	4
   235e4:	4d22      	ldr	r5, [pc, #136]	@ (23670 <_start+0x358c>)
   235e6:	446d      	add	r5, sp
   235e8:	1de8      	adds	r0, r5, #7
   235ea:	990a      	ldr	r1, [sp, #40]	@ 0x28
   235ec:	9a09      	ldr	r2, [sp, #36]	@ 0x24
   235ee:	f002 fb34 	bl	25c5a <__aeabi_memcpy>
   235f2:	980c      	ldr	r0, [sp, #48]	@ 0x30
   235f4:	71a8      	strb	r0, [r5, #6]
   235f6:	980d      	ldr	r0, [sp, #52]	@ 0x34
   235f8:	7168      	strb	r0, [r5, #5]
   235fa:	980e      	ldr	r0, [sp, #56]	@ 0x38
   235fc:	7128      	strb	r0, [r5, #4]
   235fe:	980f      	ldr	r0, [sp, #60]	@ 0x3c
   23600:	70e8      	strb	r0, [r5, #3]
   23602:	98df      	ldr	r0, [sp, #892]	@ 0x37c
   23604:	8028      	strh	r0, [r5, #0]
   23606:	9810      	ldr	r0, [sp, #64]	@ 0x40
   23608:	7880      	ldrb	r0, [r0, #2]
   2360a:	70a8      	strb	r0, [r5, #2]
   2360c:	4816      	ldr	r0, [pc, #88]	@ (23668 <_start+0x3584>)
   2360e:	4468      	add	r0, sp
   23610:	211e      	movs	r1, #30
   23612:	f002 fad5 	bl	25bc0 <__aeabi_memclr4>
   23616:	9816      	ldr	r0, [sp, #88]	@ 0x58
   23618:	00c0      	lsls	r0, r0, #3
   2361a:	2104      	movs	r1, #4
   2361c:	2361      	movs	r3, #97	@ 0x61
   2361e:	4606      	mov	r6, r0
   23620:	462a      	mov	r2, r5
   23622:	df04      	svc	4
   23624:	2802      	cmp	r0, #2
   23626:	d00e      	beq.n	23646 <_start+0x3562>
   23628:	2106      	movs	r1, #6
   2362a:	4a0f      	ldr	r2, [pc, #60]	@ (23668 <_start+0x3584>)
   2362c:	446a      	add	r2, sp
   2362e:	231e      	movs	r3, #30
   23630:	4630      	mov	r0, r6
   23632:	df03      	svc	3
   23634:	2802      	cmp	r0, #2
   23636:	d006      	beq.n	23646 <_start+0x3562>
   23638:	2104      	movs	r1, #4
   2363a:	2206      	movs	r2, #6
   2363c:	2300      	movs	r3, #0
   2363e:	4630      	mov	r0, r6
   23640:	df02      	svc	2
   23642:	287f      	cmp	r0, #127	@ 0x7f
   23644:	d81a      	bhi.n	2367c <_start+0x3598>
   23646:	9116      	str	r1, [sp, #88]	@ 0x58
   23648:	2106      	movs	r1, #6
   2364a:	2500      	movs	r5, #0
   2364c:	4630      	mov	r0, r6
   2364e:	462a      	mov	r2, r5
   23650:	462b      	mov	r3, r5
   23652:	df03      	svc	3
   23654:	2104      	movs	r1, #4
   23656:	4630      	mov	r0, r6
   23658:	462a      	mov	r2, r5
   2365a:	462b      	mov	r3, r5
   2365c:	df04      	svc	4
   2365e:	f7fc fd93 	bl	20188 <_start+0xa4>
   23662:	46c0      	nop			@ (mov r8, r8)
   23664:	00000e2b 	.word	0x00000e2b
   23668:	00000684 	.word	0x00000684
   2366c:	000005b8 	.word	0x000005b8
   23670:	000006e8 	.word	0x000006e8
   23674:	00000a36 	.word	0x00000a36
   23678:	000020ee 	.word	0x000020ee
   2367c:	2106      	movs	r1, #6
   2367e:	2500      	movs	r5, #0
   23680:	9611      	str	r6, [sp, #68]	@ 0x44
   23682:	4630      	mov	r0, r6
   23684:	460e      	mov	r6, r1
   23686:	9116      	str	r1, [sp, #88]	@ 0x58
   23688:	462a      	mov	r2, r5
   2368a:	462b      	mov	r3, r5
   2368c:	df03      	svc	3
   2368e:	9811      	ldr	r0, [sp, #68]	@ 0x44
   23690:	4631      	mov	r1, r6
   23692:	462a      	mov	r2, r5
   23694:	462b      	mov	r3, r5
   23696:	df03      	svc	3
   23698:	aae0      	add	r2, sp, #896	@ 0x380
   2369a:	9210      	str	r2, [sp, #64]	@ 0x40
   2369c:	9815      	ldr	r0, [sp, #84]	@ 0x54
   2369e:	6800      	ldr	r0, [r0, #0]
   236a0:	8010      	strh	r0, [r2, #0]
   236a2:	48d4      	ldr	r0, [pc, #848]	@ (239f4 <_start+0x3910>)
   236a4:	4468      	add	r0, sp
   236a6:	7881      	ldrb	r1, [r0, #2]
   236a8:	7091      	strb	r1, [r2, #2]
   236aa:	78c1      	ldrb	r1, [r0, #3]
   236ac:	910f      	str	r1, [sp, #60]	@ 0x3c
   236ae:	7901      	ldrb	r1, [r0, #4]
   236b0:	910e      	str	r1, [sp, #56]	@ 0x38
   236b2:	7941      	ldrb	r1, [r0, #5]
   236b4:	910d      	str	r1, [sp, #52]	@ 0x34
   236b6:	7981      	ldrb	r1, [r0, #6]
   236b8:	910c      	str	r1, [sp, #48]	@ 0x30
   236ba:	1dc1      	adds	r1, r0, #7
   236bc:	48ce      	ldr	r0, [pc, #824]	@ (239f8 <_start+0x3914>)
   236be:	4468      	add	r0, sp
   236c0:	900b      	str	r0, [sp, #44]	@ 0x2c
   236c2:	2217      	movs	r2, #23
   236c4:	920a      	str	r2, [sp, #40]	@ 0x28
   236c6:	f002 fac8 	bl	25c5a <__aeabi_memcpy>
   236ca:	9e11      	ldr	r6, [sp, #68]	@ 0x44
   236cc:	4630      	mov	r0, r6
   236ce:	9916      	ldr	r1, [sp, #88]	@ 0x58
   236d0:	462a      	mov	r2, r5
   236d2:	462b      	mov	r3, r5
   236d4:	df03      	svc	3
   236d6:	2104      	movs	r1, #4
   236d8:	4630      	mov	r0, r6
   236da:	462a      	mov	r2, r5
   236dc:	462b      	mov	r3, r5
   236de:	df04      	svc	4
   236e0:	4dc4      	ldr	r5, [pc, #784]	@ (239f4 <_start+0x3910>)
   236e2:	446d      	add	r5, sp
   236e4:	1de8      	adds	r0, r5, #7
   236e6:	990b      	ldr	r1, [sp, #44]	@ 0x2c
   236e8:	9a0a      	ldr	r2, [sp, #40]	@ 0x28
   236ea:	f002 fab6 	bl	25c5a <__aeabi_memcpy>
   236ee:	980c      	ldr	r0, [sp, #48]	@ 0x30
   236f0:	71a8      	strb	r0, [r5, #6]
   236f2:	980d      	ldr	r0, [sp, #52]	@ 0x34
   236f4:	7168      	strb	r0, [r5, #5]
   236f6:	980e      	ldr	r0, [sp, #56]	@ 0x38
   236f8:	7128      	strb	r0, [r5, #4]
   236fa:	980f      	ldr	r0, [sp, #60]	@ 0x3c
   236fc:	70e8      	strb	r0, [r5, #3]
   236fe:	98e0      	ldr	r0, [sp, #896]	@ 0x380
   23700:	8028      	strh	r0, [r5, #0]
   23702:	9810      	ldr	r0, [sp, #64]	@ 0x40
   23704:	7880      	ldrb	r0, [r0, #2]
   23706:	70a8      	strb	r0, [r5, #2]
   23708:	48bc      	ldr	r0, [pc, #752]	@ (239fc <_start+0x3918>)
   2370a:	4468      	add	r0, sp
   2370c:	2121      	movs	r1, #33	@ 0x21
   2370e:	f002 fa57 	bl	25bc0 <__aeabi_memclr4>
   23712:	48bb      	ldr	r0, [pc, #748]	@ (23a00 <_start+0x391c>)
   23714:	231e      	movs	r3, #30
   23716:	9916      	ldr	r1, [sp, #88]	@ 0x58
   23718:	462a      	mov	r2, r5
   2371a:	df04      	svc	4
   2371c:	2802      	cmp	r0, #2
   2371e:	d00e      	beq.n	2373e <_start+0x365a>
   23720:	48b7      	ldr	r0, [pc, #732]	@ (23a00 <_start+0x391c>)
   23722:	2109      	movs	r1, #9
   23724:	4ab5      	ldr	r2, [pc, #724]	@ (239fc <_start+0x3918>)
   23726:	446a      	add	r2, sp
   23728:	2321      	movs	r3, #33	@ 0x21
   2372a:	df03      	svc	3
   2372c:	2802      	cmp	r0, #2
   2372e:	d006      	beq.n	2373e <_start+0x365a>
   23730:	48b3      	ldr	r0, [pc, #716]	@ (23a00 <_start+0x391c>)
   23732:	2106      	movs	r1, #6
   23734:	2209      	movs	r2, #9
   23736:	2300      	movs	r3, #0
   23738:	df02      	svc	2
   2373a:	287f      	cmp	r0, #127	@ 0x7f
   2373c:	d80e      	bhi.n	2375c <_start+0x3678>
   2373e:	9116      	str	r1, [sp, #88]	@ 0x58
   23740:	4daf      	ldr	r5, [pc, #700]	@ (23a00 <_start+0x391c>)
   23742:	2109      	movs	r1, #9
   23744:	2600      	movs	r6, #0
   23746:	4628      	mov	r0, r5
   23748:	4632      	mov	r2, r6
   2374a:	4633      	mov	r3, r6
   2374c:	df03      	svc	3
   2374e:	2106      	movs	r1, #6
   23750:	4628      	mov	r0, r5
   23752:	4632      	mov	r2, r6
   23754:	4633      	mov	r3, r6
   23756:	df04      	svc	4
   23758:	f7fc fd16 	bl	20188 <_start+0xa4>
   2375c:	4da8      	ldr	r5, [pc, #672]	@ (23a00 <_start+0x391c>)
   2375e:	2609      	movs	r6, #9
   23760:	2400      	movs	r4, #0
   23762:	4628      	mov	r0, r5
   23764:	4631      	mov	r1, r6
   23766:	4622      	mov	r2, r4
   23768:	4623      	mov	r3, r4
   2376a:	df03      	svc	3
   2376c:	4628      	mov	r0, r5
   2376e:	4631      	mov	r1, r6
   23770:	4622      	mov	r2, r4
   23772:	4623      	mov	r3, r4
   23774:	df03      	svc	3
   23776:	aae1      	add	r2, sp, #900	@ 0x384
   23778:	9216      	str	r2, [sp, #88]	@ 0x58
   2377a:	9815      	ldr	r0, [sp, #84]	@ 0x54
   2377c:	6e40      	ldr	r0, [r0, #100]	@ 0x64
   2377e:	8010      	strh	r0, [r2, #0]
   23780:	489e      	ldr	r0, [pc, #632]	@ (239fc <_start+0x3918>)
   23782:	4468      	add	r0, sp
   23784:	7881      	ldrb	r1, [r0, #2]
   23786:	7091      	strb	r1, [r2, #2]
   23788:	78c1      	ldrb	r1, [r0, #3]
   2378a:	9111      	str	r1, [sp, #68]	@ 0x44
   2378c:	7901      	ldrb	r1, [r0, #4]
   2378e:	9110      	str	r1, [sp, #64]	@ 0x40
   23790:	7941      	ldrb	r1, [r0, #5]
   23792:	910f      	str	r1, [sp, #60]	@ 0x3c
   23794:	7981      	ldrb	r1, [r0, #6]
   23796:	910e      	str	r1, [sp, #56]	@ 0x38
   23798:	1dc1      	adds	r1, r0, #7
   2379a:	a8fa      	add	r0, sp, #1000	@ 0x3e8
   2379c:	900d      	str	r0, [sp, #52]	@ 0x34
   2379e:	221a      	movs	r2, #26
   237a0:	920c      	str	r2, [sp, #48]	@ 0x30
   237a2:	f002 fa5a 	bl	25c5a <__aeabi_memcpy>
   237a6:	4628      	mov	r0, r5
   237a8:	4631      	mov	r1, r6
   237aa:	4622      	mov	r2, r4
   237ac:	4623      	mov	r3, r4
   237ae:	df03      	svc	3
   237b0:	2106      	movs	r1, #6
   237b2:	4628      	mov	r0, r5
   237b4:	4622      	mov	r2, r4
   237b6:	4623      	mov	r3, r4
   237b8:	df04      	svc	4
   237ba:	4d8f      	ldr	r5, [pc, #572]	@ (239f8 <_start+0x3914>)
   237bc:	446d      	add	r5, sp
   237be:	1de8      	adds	r0, r5, #7
   237c0:	990d      	ldr	r1, [sp, #52]	@ 0x34
   237c2:	9a0c      	ldr	r2, [sp, #48]	@ 0x30
   237c4:	f002 fa49 	bl	25c5a <__aeabi_memcpy>
   237c8:	980e      	ldr	r0, [sp, #56]	@ 0x38
   237ca:	71a8      	strb	r0, [r5, #6]
   237cc:	980f      	ldr	r0, [sp, #60]	@ 0x3c
   237ce:	7168      	strb	r0, [r5, #5]
   237d0:	9810      	ldr	r0, [sp, #64]	@ 0x40
   237d2:	7128      	strb	r0, [r5, #4]
   237d4:	9811      	ldr	r0, [sp, #68]	@ 0x44
   237d6:	70e8      	strb	r0, [r5, #3]
   237d8:	98e1      	ldr	r0, [sp, #900]	@ 0x384
   237da:	8028      	strh	r0, [r5, #0]
   237dc:	9816      	ldr	r0, [sp, #88]	@ 0x58
   237de:	7880      	ldrb	r0, [r0, #2]
   237e0:	70a8      	strb	r0, [r5, #2]
   237e2:	4886      	ldr	r0, [pc, #536]	@ (239fc <_start+0x3918>)
   237e4:	4468      	add	r0, sp
   237e6:	212a      	movs	r1, #42	@ 0x2a
   237e8:	f002 f9ea 	bl	25bc0 <__aeabi_memclr4>
   237ec:	4885      	ldr	r0, [pc, #532]	@ (23a04 <_start+0x3920>)
   237ee:	2401      	movs	r4, #1
   237f0:	2321      	movs	r3, #33	@ 0x21
   237f2:	4621      	mov	r1, r4
   237f4:	462a      	mov	r2, r5
   237f6:	df04      	svc	4
   237f8:	2802      	cmp	r0, #2
   237fa:	d00e      	beq.n	2381a <_start+0x3736>
   237fc:	4881      	ldr	r0, [pc, #516]	@ (23a04 <_start+0x3920>)
   237fe:	2103      	movs	r1, #3
   23800:	4a7e      	ldr	r2, [pc, #504]	@ (239fc <_start+0x3918>)
   23802:	446a      	add	r2, sp
   23804:	232a      	movs	r3, #42	@ 0x2a
   23806:	df03      	svc	3
   23808:	2802      	cmp	r0, #2
   2380a:	d006      	beq.n	2381a <_start+0x3736>
   2380c:	487d      	ldr	r0, [pc, #500]	@ (23a04 <_start+0x3920>)
   2380e:	2101      	movs	r1, #1
   23810:	2203      	movs	r2, #3
   23812:	2300      	movs	r3, #0
   23814:	df02      	svc	2
   23816:	287f      	cmp	r0, #127	@ 0x7f
   23818:	d80e      	bhi.n	23838 <_start+0x3754>
   2381a:	9116      	str	r1, [sp, #88]	@ 0x58
   2381c:	4d79      	ldr	r5, [pc, #484]	@ (23a04 <_start+0x3920>)
   2381e:	2103      	movs	r1, #3
   23820:	2600      	movs	r6, #0
   23822:	4628      	mov	r0, r5
   23824:	4632      	mov	r2, r6
   23826:	4633      	mov	r3, r6
   23828:	df03      	svc	3
   2382a:	4628      	mov	r0, r5
   2382c:	4621      	mov	r1, r4
   2382e:	4632      	mov	r2, r6
   23830:	4633      	mov	r3, r6
   23832:	df04      	svc	4
   23834:	f7fc fca8 	bl	20188 <_start+0xa4>
   23838:	4e72      	ldr	r6, [pc, #456]	@ (23a04 <_start+0x3920>)
   2383a:	2403      	movs	r4, #3
   2383c:	2500      	movs	r5, #0
   2383e:	4630      	mov	r0, r6
   23840:	4621      	mov	r1, r4
   23842:	462a      	mov	r2, r5
   23844:	462b      	mov	r3, r5
   23846:	df03      	svc	3
   23848:	4630      	mov	r0, r6
   2384a:	4621      	mov	r1, r4
   2384c:	462a      	mov	r2, r5
   2384e:	462b      	mov	r3, r5
   23850:	df03      	svc	3
   23852:	aae2      	add	r2, sp, #904	@ 0x388
   23854:	9216      	str	r2, [sp, #88]	@ 0x58
   23856:	9815      	ldr	r0, [sp, #84]	@ 0x54
   23858:	6e40      	ldr	r0, [r0, #100]	@ 0x64
   2385a:	8010      	strh	r0, [r2, #0]
   2385c:	4867      	ldr	r0, [pc, #412]	@ (239fc <_start+0x3918>)
   2385e:	4468      	add	r0, sp
   23860:	7881      	ldrb	r1, [r0, #2]
   23862:	7091      	strb	r1, [r2, #2]
   23864:	78c1      	ldrb	r1, [r0, #3]
   23866:	9111      	str	r1, [sp, #68]	@ 0x44
   23868:	7901      	ldrb	r1, [r0, #4]
   2386a:	9110      	str	r1, [sp, #64]	@ 0x40
   2386c:	7941      	ldrb	r1, [r0, #5]
   2386e:	910f      	str	r1, [sp, #60]	@ 0x3c
   23870:	7981      	ldrb	r1, [r0, #6]
   23872:	910e      	str	r1, [sp, #56]	@ 0x38
   23874:	1dc1      	adds	r1, r0, #7
   23876:	4e5f      	ldr	r6, [pc, #380]	@ (239f4 <_start+0x3910>)
   23878:	446e      	add	r6, sp
   2387a:	2223      	movs	r2, #35	@ 0x23
   2387c:	920d      	str	r2, [sp, #52]	@ 0x34
   2387e:	4630      	mov	r0, r6
   23880:	f002 f9eb 	bl	25c5a <__aeabi_memcpy>
   23884:	485f      	ldr	r0, [pc, #380]	@ (23a04 <_start+0x3920>)
   23886:	4621      	mov	r1, r4
   23888:	462a      	mov	r2, r5
   2388a:	462b      	mov	r3, r5
   2388c:	df03      	svc	3
   2388e:	2401      	movs	r4, #1
   23890:	485c      	ldr	r0, [pc, #368]	@ (23a04 <_start+0x3920>)
   23892:	4621      	mov	r1, r4
   23894:	462a      	mov	r2, r5
   23896:	462b      	mov	r3, r5
   23898:	df04      	svc	4
   2389a:	4d57      	ldr	r5, [pc, #348]	@ (239f8 <_start+0x3914>)
   2389c:	446d      	add	r5, sp
   2389e:	1de8      	adds	r0, r5, #7
   238a0:	4631      	mov	r1, r6
   238a2:	9a0d      	ldr	r2, [sp, #52]	@ 0x34
   238a4:	f002 f9d9 	bl	25c5a <__aeabi_memcpy>
   238a8:	980e      	ldr	r0, [sp, #56]	@ 0x38
   238aa:	71a8      	strb	r0, [r5, #6]
   238ac:	980f      	ldr	r0, [sp, #60]	@ 0x3c
   238ae:	7168      	strb	r0, [r5, #5]
   238b0:	9810      	ldr	r0, [sp, #64]	@ 0x40
   238b2:	7128      	strb	r0, [r5, #4]
   238b4:	9811      	ldr	r0, [sp, #68]	@ 0x44
   238b6:	70e8      	strb	r0, [r5, #3]
   238b8:	98e2      	ldr	r0, [sp, #904]	@ 0x388
   238ba:	8028      	strh	r0, [r5, #0]
   238bc:	9816      	ldr	r0, [sp, #88]	@ 0x58
   238be:	7880      	ldrb	r0, [r0, #2]
   238c0:	70a8      	strb	r0, [r5, #2]
   238c2:	484e      	ldr	r0, [pc, #312]	@ (239fc <_start+0x3918>)
   238c4:	4468      	add	r0, sp
   238c6:	2159      	movs	r1, #89	@ 0x59
   238c8:	f002 f97a 	bl	25bc0 <__aeabi_memclr4>
   238cc:	484e      	ldr	r0, [pc, #312]	@ (23a08 <_start+0x3924>)
   238ce:	232a      	movs	r3, #42	@ 0x2a
   238d0:	4621      	mov	r1, r4
   238d2:	462a      	mov	r2, r5
   238d4:	df04      	svc	4
   238d6:	2802      	cmp	r0, #2
   238d8:	d00e      	beq.n	238f8 <_start+0x3814>
   238da:	484b      	ldr	r0, [pc, #300]	@ (23a08 <_start+0x3924>)
   238dc:	2103      	movs	r1, #3
   238de:	4a47      	ldr	r2, [pc, #284]	@ (239fc <_start+0x3918>)
   238e0:	446a      	add	r2, sp
   238e2:	2359      	movs	r3, #89	@ 0x59
   238e4:	df03      	svc	3
   238e6:	2802      	cmp	r0, #2
   238e8:	d006      	beq.n	238f8 <_start+0x3814>
   238ea:	4847      	ldr	r0, [pc, #284]	@ (23a08 <_start+0x3924>)
   238ec:	2101      	movs	r1, #1
   238ee:	2203      	movs	r2, #3
   238f0:	2300      	movs	r3, #0
   238f2:	df02      	svc	2
   238f4:	287f      	cmp	r0, #127	@ 0x7f
   238f6:	d80e      	bhi.n	23916 <_start+0x3832>
   238f8:	9116      	str	r1, [sp, #88]	@ 0x58
   238fa:	4d43      	ldr	r5, [pc, #268]	@ (23a08 <_start+0x3924>)
   238fc:	2103      	movs	r1, #3
   238fe:	2600      	movs	r6, #0
   23900:	4628      	mov	r0, r5
   23902:	4632      	mov	r2, r6
   23904:	4633      	mov	r3, r6
   23906:	df03      	svc	3
   23908:	4628      	mov	r0, r5
   2390a:	4621      	mov	r1, r4
   2390c:	4632      	mov	r2, r6
   2390e:	4633      	mov	r3, r6
   23910:	df04      	svc	4
   23912:	f7fc fc39 	bl	20188 <_start+0xa4>
   23916:	4e3c      	ldr	r6, [pc, #240]	@ (23a08 <_start+0x3924>)
   23918:	2403      	movs	r4, #3
   2391a:	2500      	movs	r5, #0
   2391c:	4630      	mov	r0, r6
   2391e:	4621      	mov	r1, r4
   23920:	462a      	mov	r2, r5
   23922:	462b      	mov	r3, r5
   23924:	df03      	svc	3
   23926:	4630      	mov	r0, r6
   23928:	4621      	mov	r1, r4
   2392a:	462a      	mov	r2, r5
   2392c:	462b      	mov	r3, r5
   2392e:	df03      	svc	3
   23930:	aae3      	add	r2, sp, #908	@ 0x38c
   23932:	9216      	str	r2, [sp, #88]	@ 0x58
   23934:	9815      	ldr	r0, [sp, #84]	@ 0x54
   23936:	6e40      	ldr	r0, [r0, #100]	@ 0x64
   23938:	8010      	strh	r0, [r2, #0]
   2393a:	4830      	ldr	r0, [pc, #192]	@ (239fc <_start+0x3918>)
   2393c:	4468      	add	r0, sp
   2393e:	7881      	ldrb	r1, [r0, #2]
   23940:	7091      	strb	r1, [r2, #2]
   23942:	78c1      	ldrb	r1, [r0, #3]
   23944:	9111      	str	r1, [sp, #68]	@ 0x44
   23946:	7901      	ldrb	r1, [r0, #4]
   23948:	9110      	str	r1, [sp, #64]	@ 0x40
   2394a:	7941      	ldrb	r1, [r0, #5]
   2394c:	910f      	str	r1, [sp, #60]	@ 0x3c
   2394e:	7981      	ldrb	r1, [r0, #6]
   23950:	910e      	str	r1, [sp, #56]	@ 0x38
   23952:	1dc1      	adds	r1, r0, #7
   23954:	4827      	ldr	r0, [pc, #156]	@ (239f4 <_start+0x3910>)
   23956:	4468      	add	r0, sp
   23958:	900d      	str	r0, [sp, #52]	@ 0x34
   2395a:	2252      	movs	r2, #82	@ 0x52
   2395c:	920c      	str	r2, [sp, #48]	@ 0x30
   2395e:	f002 f97c 	bl	25c5a <__aeabi_memcpy>
   23962:	4630      	mov	r0, r6
   23964:	4621      	mov	r1, r4
   23966:	462a      	mov	r2, r5
   23968:	462b      	mov	r3, r5
   2396a:	df03      	svc	3
   2396c:	2401      	movs	r4, #1
   2396e:	4630      	mov	r0, r6
   23970:	4621      	mov	r1, r4
   23972:	462a      	mov	r2, r5
   23974:	462b      	mov	r3, r5
   23976:	df04      	svc	4
   23978:	4e20      	ldr	r6, [pc, #128]	@ (239fc <_start+0x3918>)
   2397a:	446e      	add	r6, sp
   2397c:	1df0      	adds	r0, r6, #7
   2397e:	990d      	ldr	r1, [sp, #52]	@ 0x34
   23980:	9a0c      	ldr	r2, [sp, #48]	@ 0x30
   23982:	f002 f96a 	bl	25c5a <__aeabi_memcpy>
   23986:	980e      	ldr	r0, [sp, #56]	@ 0x38
   23988:	71b0      	strb	r0, [r6, #6]
   2398a:	980f      	ldr	r0, [sp, #60]	@ 0x3c
   2398c:	7170      	strb	r0, [r6, #5]
   2398e:	9810      	ldr	r0, [sp, #64]	@ 0x40
   23990:	7130      	strb	r0, [r6, #4]
   23992:	9811      	ldr	r0, [sp, #68]	@ 0x44
   23994:	70f0      	strb	r0, [r6, #3]
   23996:	98e3      	ldr	r0, [sp, #908]	@ 0x38c
   23998:	8030      	strh	r0, [r6, #0]
   2399a:	9816      	ldr	r0, [sp, #88]	@ 0x58
   2399c:	7880      	ldrb	r0, [r0, #2]
   2399e:	70b0      	strb	r0, [r6, #2]
   239a0:	4814      	ldr	r0, [pc, #80]	@ (239f4 <_start+0x3910>)
   239a2:	4468      	add	r0, sp
   239a4:	214a      	movs	r1, #74	@ 0x4a
   239a6:	f002 f90b 	bl	25bc0 <__aeabi_memclr4>
   239aa:	4818      	ldr	r0, [pc, #96]	@ (23a0c <_start+0x3928>)
   239ac:	2359      	movs	r3, #89	@ 0x59
   239ae:	4629      	mov	r1, r5
   239b0:	4632      	mov	r2, r6
   239b2:	df04      	svc	4
   239b4:	2802      	cmp	r0, #2
   239b6:	d00e      	beq.n	239d6 <_start+0x38f2>
   239b8:	4814      	ldr	r0, [pc, #80]	@ (23a0c <_start+0x3928>)
   239ba:	2104      	movs	r1, #4
   239bc:	4a0d      	ldr	r2, [pc, #52]	@ (239f4 <_start+0x3910>)
   239be:	446a      	add	r2, sp
   239c0:	234a      	movs	r3, #74	@ 0x4a
   239c2:	df03      	svc	3
   239c4:	2802      	cmp	r0, #2
   239c6:	d006      	beq.n	239d6 <_start+0x38f2>
   239c8:	4810      	ldr	r0, [pc, #64]	@ (23a0c <_start+0x3928>)
   239ca:	2204      	movs	r2, #4
   239cc:	2100      	movs	r1, #0
   239ce:	460b      	mov	r3, r1
   239d0:	df02      	svc	2
   239d2:	287f      	cmp	r0, #127	@ 0x7f
   239d4:	d81c      	bhi.n	23a10 <_start+0x392c>
   239d6:	9116      	str	r1, [sp, #88]	@ 0x58
   239d8:	4d0c      	ldr	r5, [pc, #48]	@ (23a0c <_start+0x3928>)
   239da:	2104      	movs	r1, #4
   239dc:	2600      	movs	r6, #0
   239de:	4628      	mov	r0, r5
   239e0:	4632      	mov	r2, r6
   239e2:	4633      	mov	r3, r6
   239e4:	df03      	svc	3
   239e6:	4628      	mov	r0, r5
   239e8:	4631      	mov	r1, r6
   239ea:	4632      	mov	r2, r6
   239ec:	4633      	mov	r3, r6
   239ee:	df04      	svc	4
   239f0:	f7fc fbca 	bl	20188 <_start+0xa4>
   239f4:	00000684 	.word	0x00000684
   239f8:	000005b8 	.word	0x000005b8
   239fc:	000006e8 	.word	0x000006e8
   23a00:	000019b5 	.word	0x000019b5
   23a04:	000015f3 	.word	0x000015f3
   23a08:	00000ed2 	.word	0x00000ed2
   23a0c:	00001484 	.word	0x00001484
   23a10:	48a3      	ldr	r0, [pc, #652]	@ (23ca0 <_start+0x3bbc>)
   23a12:	2604      	movs	r6, #4
   23a14:	2500      	movs	r5, #0
   23a16:	4631      	mov	r1, r6
   23a18:	462a      	mov	r2, r5
   23a1a:	462b      	mov	r3, r5
   23a1c:	df03      	svc	3
   23a1e:	48d8      	ldr	r0, [pc, #864]	@ (23d80 <_start+0x3c9c>)
   23a20:	4631      	mov	r1, r6
   23a22:	462a      	mov	r2, r5
   23a24:	462b      	mov	r3, r5
   23a26:	df03      	svc	3
   23a28:	aae4      	add	r2, sp, #912	@ 0x390
   23a2a:	9216      	str	r2, [sp, #88]	@ 0x58
   23a2c:	9815      	ldr	r0, [sp, #84]	@ 0x54
   23a2e:	6800      	ldr	r0, [r0, #0]
   23a30:	8010      	strh	r0, [r2, #0]
   23a32:	48d4      	ldr	r0, [pc, #848]	@ (23d84 <_start+0x3ca0>)
   23a34:	4468      	add	r0, sp
   23a36:	7881      	ldrb	r1, [r0, #2]
   23a38:	7091      	strb	r1, [r2, #2]
   23a3a:	78c1      	ldrb	r1, [r0, #3]
   23a3c:	9111      	str	r1, [sp, #68]	@ 0x44
   23a3e:	7901      	ldrb	r1, [r0, #4]
   23a40:	9110      	str	r1, [sp, #64]	@ 0x40
   23a42:	7941      	ldrb	r1, [r0, #5]
   23a44:	910f      	str	r1, [sp, #60]	@ 0x3c
   23a46:	7981      	ldrb	r1, [r0, #6]
   23a48:	910e      	str	r1, [sp, #56]	@ 0x38
   23a4a:	1dc1      	adds	r1, r0, #7
   23a4c:	48ce      	ldr	r0, [pc, #824]	@ (23d88 <_start+0x3ca4>)
   23a4e:	4468      	add	r0, sp
   23a50:	900d      	str	r0, [sp, #52]	@ 0x34
   23a52:	2243      	movs	r2, #67	@ 0x43
   23a54:	920c      	str	r2, [sp, #48]	@ 0x30
   23a56:	f002 f900 	bl	25c5a <__aeabi_memcpy>
   23a5a:	48c9      	ldr	r0, [pc, #804]	@ (23d80 <_start+0x3c9c>)
   23a5c:	4631      	mov	r1, r6
   23a5e:	462a      	mov	r2, r5
   23a60:	462b      	mov	r3, r5
   23a62:	df03      	svc	3
   23a64:	48c6      	ldr	r0, [pc, #792]	@ (23d80 <_start+0x3c9c>)
   23a66:	4629      	mov	r1, r5
   23a68:	462a      	mov	r2, r5
   23a6a:	462b      	mov	r3, r5
   23a6c:	df04      	svc	4
   23a6e:	4dc7      	ldr	r5, [pc, #796]	@ (23d8c <_start+0x3ca8>)
   23a70:	446d      	add	r5, sp
   23a72:	1de8      	adds	r0, r5, #7
   23a74:	990d      	ldr	r1, [sp, #52]	@ 0x34
   23a76:	9a0c      	ldr	r2, [sp, #48]	@ 0x30
   23a78:	f002 f8ef 	bl	25c5a <__aeabi_memcpy>
   23a7c:	980e      	ldr	r0, [sp, #56]	@ 0x38
   23a7e:	71a8      	strb	r0, [r5, #6]
   23a80:	980f      	ldr	r0, [sp, #60]	@ 0x3c
   23a82:	7168      	strb	r0, [r5, #5]
   23a84:	9810      	ldr	r0, [sp, #64]	@ 0x40
   23a86:	7128      	strb	r0, [r5, #4]
   23a88:	9811      	ldr	r0, [sp, #68]	@ 0x44
   23a8a:	70e8      	strb	r0, [r5, #3]
   23a8c:	98e4      	ldr	r0, [sp, #912]	@ 0x390
   23a8e:	8028      	strh	r0, [r5, #0]
   23a90:	9816      	ldr	r0, [sp, #88]	@ 0x58
   23a92:	7880      	ldrb	r0, [r0, #2]
   23a94:	70a8      	strb	r0, [r5, #2]
   23a96:	48bb      	ldr	r0, [pc, #748]	@ (23d84 <_start+0x3ca0>)
   23a98:	4468      	add	r0, sp
   23a9a:	212d      	movs	r1, #45	@ 0x2d
   23a9c:	f002 f890 	bl	25bc0 <__aeabi_memclr4>
   23aa0:	48bb      	ldr	r0, [pc, #748]	@ (23d90 <_start+0x3cac>)
   23aa2:	2102      	movs	r1, #2
   23aa4:	234a      	movs	r3, #74	@ 0x4a
   23aa6:	462a      	mov	r2, r5
   23aa8:	df04      	svc	4
   23aaa:	2802      	cmp	r0, #2
   23aac:	d00e      	beq.n	23acc <_start+0x39e8>
   23aae:	48b8      	ldr	r0, [pc, #736]	@ (23d90 <_start+0x3cac>)
   23ab0:	2103      	movs	r1, #3
   23ab2:	4ab4      	ldr	r2, [pc, #720]	@ (23d84 <_start+0x3ca0>)
   23ab4:	446a      	add	r2, sp
   23ab6:	232d      	movs	r3, #45	@ 0x2d
   23ab8:	df03      	svc	3
   23aba:	2802      	cmp	r0, #2
   23abc:	d006      	beq.n	23acc <_start+0x39e8>
   23abe:	48b4      	ldr	r0, [pc, #720]	@ (23d90 <_start+0x3cac>)
   23ac0:	2102      	movs	r1, #2
   23ac2:	2203      	movs	r2, #3
   23ac4:	2300      	movs	r3, #0
   23ac6:	df02      	svc	2
   23ac8:	287f      	cmp	r0, #127	@ 0x7f
   23aca:	d80e      	bhi.n	23aea <_start+0x3a06>
   23acc:	9116      	str	r1, [sp, #88]	@ 0x58
   23ace:	4db0      	ldr	r5, [pc, #704]	@ (23d90 <_start+0x3cac>)
   23ad0:	2103      	movs	r1, #3
   23ad2:	2600      	movs	r6, #0
   23ad4:	4628      	mov	r0, r5
   23ad6:	4632      	mov	r2, r6
   23ad8:	4633      	mov	r3, r6
   23ada:	df03      	svc	3
   23adc:	2102      	movs	r1, #2
   23ade:	4628      	mov	r0, r5
   23ae0:	4632      	mov	r2, r6
   23ae2:	4633      	mov	r3, r6
   23ae4:	df04      	svc	4
   23ae6:	f7fc fb4f 	bl	20188 <_start+0xa4>
   23aea:	48a9      	ldr	r0, [pc, #676]	@ (23d90 <_start+0x3cac>)
   23aec:	2603      	movs	r6, #3
   23aee:	2500      	movs	r5, #0
   23af0:	4631      	mov	r1, r6
   23af2:	462a      	mov	r2, r5
   23af4:	462b      	mov	r3, r5
   23af6:	df03      	svc	3
   23af8:	48a5      	ldr	r0, [pc, #660]	@ (23d90 <_start+0x3cac>)
   23afa:	4631      	mov	r1, r6
   23afc:	462a      	mov	r2, r5
   23afe:	462b      	mov	r3, r5
   23b00:	df03      	svc	3
   23b02:	aae5      	add	r2, sp, #916	@ 0x394
   23b04:	9216      	str	r2, [sp, #88]	@ 0x58
   23b06:	9815      	ldr	r0, [sp, #84]	@ 0x54
   23b08:	6800      	ldr	r0, [r0, #0]
   23b0a:	8010      	strh	r0, [r2, #0]
   23b0c:	489d      	ldr	r0, [pc, #628]	@ (23d84 <_start+0x3ca0>)
   23b0e:	4468      	add	r0, sp
   23b10:	7881      	ldrb	r1, [r0, #2]
   23b12:	7091      	strb	r1, [r2, #2]
   23b14:	78c1      	ldrb	r1, [r0, #3]
   23b16:	9111      	str	r1, [sp, #68]	@ 0x44
   23b18:	7901      	ldrb	r1, [r0, #4]
   23b1a:	9110      	str	r1, [sp, #64]	@ 0x40
   23b1c:	7941      	ldrb	r1, [r0, #5]
   23b1e:	910f      	str	r1, [sp, #60]	@ 0x3c
   23b20:	7981      	ldrb	r1, [r0, #6]
   23b22:	910e      	str	r1, [sp, #56]	@ 0x38
   23b24:	1dc1      	adds	r1, r0, #7
   23b26:	4898      	ldr	r0, [pc, #608]	@ (23d88 <_start+0x3ca4>)
   23b28:	4468      	add	r0, sp
   23b2a:	900d      	str	r0, [sp, #52]	@ 0x34
   23b2c:	2226      	movs	r2, #38	@ 0x26
   23b2e:	920c      	str	r2, [sp, #48]	@ 0x30
   23b30:	f002 f893 	bl	25c5a <__aeabi_memcpy>
   23b34:	4896      	ldr	r0, [pc, #600]	@ (23d90 <_start+0x3cac>)
   23b36:	4631      	mov	r1, r6
   23b38:	462a      	mov	r2, r5
   23b3a:	462b      	mov	r3, r5
   23b3c:	df03      	svc	3
   23b3e:	2602      	movs	r6, #2
   23b40:	4893      	ldr	r0, [pc, #588]	@ (23d90 <_start+0x3cac>)
   23b42:	4631      	mov	r1, r6
   23b44:	462a      	mov	r2, r5
   23b46:	462b      	mov	r3, r5
   23b48:	df04      	svc	4
   23b4a:	4d8e      	ldr	r5, [pc, #568]	@ (23d84 <_start+0x3ca0>)
   23b4c:	446d      	add	r5, sp
   23b4e:	1de8      	adds	r0, r5, #7
   23b50:	990d      	ldr	r1, [sp, #52]	@ 0x34
   23b52:	9a0c      	ldr	r2, [sp, #48]	@ 0x30
   23b54:	f002 f881 	bl	25c5a <__aeabi_memcpy>
   23b58:	980e      	ldr	r0, [sp, #56]	@ 0x38
   23b5a:	71a8      	strb	r0, [r5, #6]
   23b5c:	980f      	ldr	r0, [sp, #60]	@ 0x3c
   23b5e:	7168      	strb	r0, [r5, #5]
   23b60:	9810      	ldr	r0, [sp, #64]	@ 0x40
   23b62:	7128      	strb	r0, [r5, #4]
   23b64:	9811      	ldr	r0, [sp, #68]	@ 0x44
   23b66:	70e8      	strb	r0, [r5, #3]
   23b68:	98e5      	ldr	r0, [sp, #916]	@ 0x394
   23b6a:	8028      	strh	r0, [r5, #0]
   23b6c:	9816      	ldr	r0, [sp, #88]	@ 0x58
   23b6e:	7880      	ldrb	r0, [r0, #2]
   23b70:	70a8      	strb	r0, [r5, #2]
   23b72:	4886      	ldr	r0, [pc, #536]	@ (23d8c <_start+0x3ca8>)
   23b74:	4468      	add	r0, sp
   23b76:	2153      	movs	r1, #83	@ 0x53
   23b78:	f002 f822 	bl	25bc0 <__aeabi_memclr4>
   23b7c:	4885      	ldr	r0, [pc, #532]	@ (23d94 <_start+0x3cb0>)
   23b7e:	232d      	movs	r3, #45	@ 0x2d
   23b80:	4631      	mov	r1, r6
   23b82:	462a      	mov	r2, r5
   23b84:	df04      	svc	4
   23b86:	2802      	cmp	r0, #2
   23b88:	d00e      	beq.n	23ba8 <_start+0x3ac4>
   23b8a:	4882      	ldr	r0, [pc, #520]	@ (23d94 <_start+0x3cb0>)
   23b8c:	2107      	movs	r1, #7
   23b8e:	4a7f      	ldr	r2, [pc, #508]	@ (23d8c <_start+0x3ca8>)
   23b90:	446a      	add	r2, sp
   23b92:	2353      	movs	r3, #83	@ 0x53
   23b94:	df03      	svc	3
   23b96:	2802      	cmp	r0, #2
   23b98:	d006      	beq.n	23ba8 <_start+0x3ac4>
   23b9a:	487e      	ldr	r0, [pc, #504]	@ (23d94 <_start+0x3cb0>)
   23b9c:	2102      	movs	r1, #2
   23b9e:	2207      	movs	r2, #7
   23ba0:	2300      	movs	r3, #0
   23ba2:	df02      	svc	2
   23ba4:	287f      	cmp	r0, #127	@ 0x7f
   23ba6:	d80e      	bhi.n	23bc6 <_start+0x3ae2>
   23ba8:	9116      	str	r1, [sp, #88]	@ 0x58
   23baa:	4d7a      	ldr	r5, [pc, #488]	@ (23d94 <_start+0x3cb0>)
   23bac:	2107      	movs	r1, #7
   23bae:	2600      	movs	r6, #0
   23bb0:	4628      	mov	r0, r5
   23bb2:	4632      	mov	r2, r6
   23bb4:	4633      	mov	r3, r6
   23bb6:	df03      	svc	3
   23bb8:	2102      	movs	r1, #2
   23bba:	4628      	mov	r0, r5
   23bbc:	4632      	mov	r2, r6
   23bbe:	4633      	mov	r3, r6
   23bc0:	df04      	svc	4
   23bc2:	f7fc fae1 	bl	20188 <_start+0xa4>
   23bc6:	4873      	ldr	r0, [pc, #460]	@ (23d94 <_start+0x3cb0>)
   23bc8:	2607      	movs	r6, #7
   23bca:	2500      	movs	r5, #0
   23bcc:	4631      	mov	r1, r6
   23bce:	462a      	mov	r2, r5
   23bd0:	462b      	mov	r3, r5
   23bd2:	df03      	svc	3
   23bd4:	486f      	ldr	r0, [pc, #444]	@ (23d94 <_start+0x3cb0>)
   23bd6:	4631      	mov	r1, r6
   23bd8:	462a      	mov	r2, r5
   23bda:	462b      	mov	r3, r5
   23bdc:	df03      	svc	3
   23bde:	aaf9      	add	r2, sp, #996	@ 0x3e4
   23be0:	9216      	str	r2, [sp, #88]	@ 0x58
   23be2:	9815      	ldr	r0, [sp, #84]	@ 0x54
   23be4:	6e40      	ldr	r0, [r0, #100]	@ 0x64
   23be6:	8010      	strh	r0, [r2, #0]
   23be8:	4868      	ldr	r0, [pc, #416]	@ (23d8c <_start+0x3ca8>)
   23bea:	4468      	add	r0, sp
   23bec:	7881      	ldrb	r1, [r0, #2]
   23bee:	7091      	strb	r1, [r2, #2]
   23bf0:	78c1      	ldrb	r1, [r0, #3]
   23bf2:	9111      	str	r1, [sp, #68]	@ 0x44
   23bf4:	7901      	ldrb	r1, [r0, #4]
   23bf6:	910e      	str	r1, [sp, #56]	@ 0x38
   23bf8:	7941      	ldrb	r1, [r0, #5]
   23bfa:	910d      	str	r1, [sp, #52]	@ 0x34
   23bfc:	7981      	ldrb	r1, [r0, #6]
   23bfe:	910c      	str	r1, [sp, #48]	@ 0x30
   23c00:	1dc1      	adds	r1, r0, #7
   23c02:	a8e6      	add	r0, sp, #920	@ 0x398
   23c04:	9010      	str	r0, [sp, #64]	@ 0x40
   23c06:	224c      	movs	r2, #76	@ 0x4c
   23c08:	920f      	str	r2, [sp, #60]	@ 0x3c
   23c0a:	f002 f826 	bl	25c5a <__aeabi_memcpy>
   23c0e:	4861      	ldr	r0, [pc, #388]	@ (23d94 <_start+0x3cb0>)
   23c10:	4631      	mov	r1, r6
   23c12:	462a      	mov	r2, r5
   23c14:	462b      	mov	r3, r5
   23c16:	df03      	svc	3
   23c18:	2102      	movs	r1, #2
   23c1a:	485e      	ldr	r0, [pc, #376]	@ (23d94 <_start+0x3cb0>)
   23c1c:	462a      	mov	r2, r5
   23c1e:	462b      	mov	r3, r5
   23c20:	df04      	svc	4
   23c22:	4d5a      	ldr	r5, [pc, #360]	@ (23d8c <_start+0x3ca8>)
   23c24:	446d      	add	r5, sp
   23c26:	980c      	ldr	r0, [sp, #48]	@ 0x30
   23c28:	71a8      	strb	r0, [r5, #6]
   23c2a:	980d      	ldr	r0, [sp, #52]	@ 0x34
   23c2c:	7168      	strb	r0, [r5, #5]
   23c2e:	980e      	ldr	r0, [sp, #56]	@ 0x38
   23c30:	7128      	strb	r0, [r5, #4]
   23c32:	9811      	ldr	r0, [sp, #68]	@ 0x44
   23c34:	70e8      	strb	r0, [r5, #3]
   23c36:	9816      	ldr	r0, [sp, #88]	@ 0x58
   23c38:	7880      	ldrb	r0, [r0, #2]
   23c3a:	70a8      	strb	r0, [r5, #2]
   23c3c:	9812      	ldr	r0, [sp, #72]	@ 0x48
   23c3e:	6800      	ldr	r0, [r0, #0]
   23c40:	8028      	strh	r0, [r5, #0]
   23c42:	1de8      	adds	r0, r5, #7
   23c44:	9910      	ldr	r1, [sp, #64]	@ 0x40
   23c46:	9a0f      	ldr	r2, [sp, #60]	@ 0x3c
   23c48:	f002 f807 	bl	25c5a <__aeabi_memcpy>
   23c4c:	484d      	ldr	r0, [pc, #308]	@ (23d84 <_start+0x3ca0>)
   23c4e:	4468      	add	r0, sp
   23c50:	213a      	movs	r1, #58	@ 0x3a
   23c52:	f001 ffb5 	bl	25bc0 <__aeabi_memclr4>
   23c56:	4850      	ldr	r0, [pc, #320]	@ (23d98 <_start+0x3cb4>)
   23c58:	2106      	movs	r1, #6
   23c5a:	2353      	movs	r3, #83	@ 0x53
   23c5c:	462a      	mov	r2, r5
   23c5e:	df04      	svc	4
   23c60:	2802      	cmp	r0, #2
   23c62:	d00e      	beq.n	23c82 <_start+0x3b9e>
   23c64:	484c      	ldr	r0, [pc, #304]	@ (23d98 <_start+0x3cb4>)
   23c66:	2107      	movs	r1, #7
   23c68:	4a46      	ldr	r2, [pc, #280]	@ (23d84 <_start+0x3ca0>)
   23c6a:	446a      	add	r2, sp
   23c6c:	233a      	movs	r3, #58	@ 0x3a
   23c6e:	df03      	svc	3
   23c70:	2802      	cmp	r0, #2
   23c72:	d006      	beq.n	23c82 <_start+0x3b9e>
   23c74:	4848      	ldr	r0, [pc, #288]	@ (23d98 <_start+0x3cb4>)
   23c76:	2106      	movs	r1, #6
   23c78:	2207      	movs	r2, #7
   23c7a:	2300      	movs	r3, #0
   23c7c:	df02      	svc	2
   23c7e:	287f      	cmp	r0, #127	@ 0x7f
   23c80:	d810      	bhi.n	23ca4 <_start+0x3bc0>
   23c82:	9116      	str	r1, [sp, #88]	@ 0x58
   23c84:	4d44      	ldr	r5, [pc, #272]	@ (23d98 <_start+0x3cb4>)
   23c86:	2107      	movs	r1, #7
   23c88:	2600      	movs	r6, #0
   23c8a:	4628      	mov	r0, r5
   23c8c:	4632      	mov	r2, r6
   23c8e:	4633      	mov	r3, r6
   23c90:	df03      	svc	3
   23c92:	2106      	movs	r1, #6
   23c94:	4628      	mov	r0, r5
   23c96:	4632      	mov	r2, r6
   23c98:	4633      	mov	r3, r6
   23c9a:	df04      	svc	4
   23c9c:	f7fc fa74 	bl	20188 <_start+0xa4>
   23ca0:	00001484 	.word	0x00001484
   23ca4:	483c      	ldr	r0, [pc, #240]	@ (23d98 <_start+0x3cb4>)
   23ca6:	2607      	movs	r6, #7
   23ca8:	2500      	movs	r5, #0
   23caa:	4631      	mov	r1, r6
   23cac:	462a      	mov	r2, r5
   23cae:	462b      	mov	r3, r5
   23cb0:	df03      	svc	3
   23cb2:	4839      	ldr	r0, [pc, #228]	@ (23d98 <_start+0x3cb4>)
   23cb4:	4631      	mov	r1, r6
   23cb6:	462a      	mov	r2, r5
   23cb8:	462b      	mov	r3, r5
   23cba:	df03      	svc	3
   23cbc:	aaff      	add	r2, sp, #1020	@ 0x3fc
   23cbe:	3220      	adds	r2, #32
   23cc0:	9216      	str	r2, [sp, #88]	@ 0x58
   23cc2:	9815      	ldr	r0, [sp, #84]	@ 0x54
   23cc4:	6800      	ldr	r0, [r0, #0]
   23cc6:	8010      	strh	r0, [r2, #0]
   23cc8:	482e      	ldr	r0, [pc, #184]	@ (23d84 <_start+0x3ca0>)
   23cca:	4468      	add	r0, sp
   23ccc:	7881      	ldrb	r1, [r0, #2]
   23cce:	7091      	strb	r1, [r2, #2]
   23cd0:	78c1      	ldrb	r1, [r0, #3]
   23cd2:	9111      	str	r1, [sp, #68]	@ 0x44
   23cd4:	7901      	ldrb	r1, [r0, #4]
   23cd6:	9110      	str	r1, [sp, #64]	@ 0x40
   23cd8:	7941      	ldrb	r1, [r0, #5]
   23cda:	910f      	str	r1, [sp, #60]	@ 0x3c
   23cdc:	7981      	ldrb	r1, [r0, #6]
   23cde:	910e      	str	r1, [sp, #56]	@ 0x38
   23ce0:	1dc1      	adds	r1, r0, #7
   23ce2:	a8fa      	add	r0, sp, #1000	@ 0x3e8
   23ce4:	900d      	str	r0, [sp, #52]	@ 0x34
   23ce6:	2233      	movs	r2, #51	@ 0x33
   23ce8:	920c      	str	r2, [sp, #48]	@ 0x30
   23cea:	f001 ffb6 	bl	25c5a <__aeabi_memcpy>
   23cee:	482a      	ldr	r0, [pc, #168]	@ (23d98 <_start+0x3cb4>)
   23cf0:	4631      	mov	r1, r6
   23cf2:	462a      	mov	r2, r5
   23cf4:	462b      	mov	r3, r5
   23cf6:	df03      	svc	3
   23cf8:	2106      	movs	r1, #6
   23cfa:	4827      	ldr	r0, [pc, #156]	@ (23d98 <_start+0x3cb4>)
   23cfc:	462a      	mov	r2, r5
   23cfe:	462b      	mov	r3, r5
   23d00:	df04      	svc	4
   23d02:	4e21      	ldr	r6, [pc, #132]	@ (23d88 <_start+0x3ca4>)
   23d04:	446e      	add	r6, sp
   23d06:	1df0      	adds	r0, r6, #7
   23d08:	990d      	ldr	r1, [sp, #52]	@ 0x34
   23d0a:	9a0c      	ldr	r2, [sp, #48]	@ 0x30
   23d0c:	f001 ffa5 	bl	25c5a <__aeabi_memcpy>
   23d10:	980e      	ldr	r0, [sp, #56]	@ 0x38
   23d12:	71b0      	strb	r0, [r6, #6]
   23d14:	980f      	ldr	r0, [sp, #60]	@ 0x3c
   23d16:	7170      	strb	r0, [r6, #5]
   23d18:	9810      	ldr	r0, [sp, #64]	@ 0x40
   23d1a:	7130      	strb	r0, [r6, #4]
   23d1c:	9811      	ldr	r0, [sp, #68]	@ 0x44
   23d1e:	70f0      	strb	r0, [r6, #3]
   23d20:	9812      	ldr	r0, [sp, #72]	@ 0x48
   23d22:	6b80      	ldr	r0, [r0, #56]	@ 0x38
   23d24:	8030      	strh	r0, [r6, #0]
   23d26:	9816      	ldr	r0, [sp, #88]	@ 0x58
   23d28:	7880      	ldrb	r0, [r0, #2]
   23d2a:	70b0      	strb	r0, [r6, #2]
   23d2c:	4817      	ldr	r0, [pc, #92]	@ (23d8c <_start+0x3ca8>)
   23d2e:	4468      	add	r0, sp
   23d30:	215d      	movs	r1, #93	@ 0x5d
   23d32:	f001 ff45 	bl	25bc0 <__aeabi_memclr4>
   23d36:	4819      	ldr	r0, [pc, #100]	@ (23d9c <_start+0x3cb8>)
   23d38:	233a      	movs	r3, #58	@ 0x3a
   23d3a:	4629      	mov	r1, r5
   23d3c:	4632      	mov	r2, r6
   23d3e:	df04      	svc	4
   23d40:	2802      	cmp	r0, #2
   23d42:	d00e      	beq.n	23d62 <_start+0x3c7e>
   23d44:	4815      	ldr	r0, [pc, #84]	@ (23d9c <_start+0x3cb8>)
   23d46:	2105      	movs	r1, #5
   23d48:	4a10      	ldr	r2, [pc, #64]	@ (23d8c <_start+0x3ca8>)
   23d4a:	446a      	add	r2, sp
   23d4c:	235d      	movs	r3, #93	@ 0x5d
   23d4e:	df03      	svc	3
   23d50:	2802      	cmp	r0, #2
   23d52:	d006      	beq.n	23d62 <_start+0x3c7e>
   23d54:	4811      	ldr	r0, [pc, #68]	@ (23d9c <_start+0x3cb8>)
   23d56:	2205      	movs	r2, #5
   23d58:	2100      	movs	r1, #0
   23d5a:	460b      	mov	r3, r1
   23d5c:	df02      	svc	2
   23d5e:	287f      	cmp	r0, #127	@ 0x7f
   23d60:	d81e      	bhi.n	23da0 <_start+0x3cbc>
   23d62:	9116      	str	r1, [sp, #88]	@ 0x58
   23d64:	4d0d      	ldr	r5, [pc, #52]	@ (23d9c <_start+0x3cb8>)
   23d66:	2105      	movs	r1, #5
   23d68:	2600      	movs	r6, #0
   23d6a:	4628      	mov	r0, r5
   23d6c:	4632      	mov	r2, r6
   23d6e:	4633      	mov	r3, r6
   23d70:	df03      	svc	3
   23d72:	4628      	mov	r0, r5
   23d74:	4631      	mov	r1, r6
   23d76:	4632      	mov	r2, r6
   23d78:	4633      	mov	r3, r6
   23d7a:	df04      	svc	4
   23d7c:	f7fc fa04 	bl	20188 <_start+0xa4>
   23d80:	00001484 	.word	0x00001484
   23d84:	00000684 	.word	0x00000684
   23d88:	000005b8 	.word	0x000005b8
   23d8c:	000006e8 	.word	0x000006e8
   23d90:	00000e3d 	.word	0x00000e3d
   23d94:	00000ec3 	.word	0x00000ec3
   23d98:	00002645 	.word	0x00002645
   23d9c:	000014a4 	.word	0x000014a4
   23da0:	48a6      	ldr	r0, [pc, #664]	@ (2403c <_start+0x3f58>)
   23da2:	2605      	movs	r6, #5
   23da4:	2500      	movs	r5, #0
   23da6:	4631      	mov	r1, r6
   23da8:	462a      	mov	r2, r5
   23daa:	462b      	mov	r3, r5
   23dac:	df03      	svc	3
   23dae:	48a3      	ldr	r0, [pc, #652]	@ (2403c <_start+0x3f58>)
   23db0:	4631      	mov	r1, r6
   23db2:	462a      	mov	r2, r5
   23db4:	462b      	mov	r3, r5
   23db6:	df03      	svc	3
   23db8:	aaff      	add	r2, sp, #1020	@ 0x3fc
   23dba:	3224      	adds	r2, #36	@ 0x24
   23dbc:	9216      	str	r2, [sp, #88]	@ 0x58
   23dbe:	9815      	ldr	r0, [sp, #84]	@ 0x54
   23dc0:	6e40      	ldr	r0, [r0, #100]	@ 0x64
   23dc2:	8010      	strh	r0, [r2, #0]
   23dc4:	489e      	ldr	r0, [pc, #632]	@ (24040 <_start+0x3f5c>)
   23dc6:	4468      	add	r0, sp
   23dc8:	7881      	ldrb	r1, [r0, #2]
   23dca:	7091      	strb	r1, [r2, #2]
   23dcc:	78c1      	ldrb	r1, [r0, #3]
   23dce:	9111      	str	r1, [sp, #68]	@ 0x44
   23dd0:	7901      	ldrb	r1, [r0, #4]
   23dd2:	9110      	str	r1, [sp, #64]	@ 0x40
   23dd4:	7941      	ldrb	r1, [r0, #5]
   23dd6:	910f      	str	r1, [sp, #60]	@ 0x3c
   23dd8:	7981      	ldrb	r1, [r0, #6]
   23dda:	910e      	str	r1, [sp, #56]	@ 0x38
   23ddc:	1dc1      	adds	r1, r0, #7
   23dde:	4899      	ldr	r0, [pc, #612]	@ (24044 <_start+0x3f60>)
   23de0:	4468      	add	r0, sp
   23de2:	900d      	str	r0, [sp, #52]	@ 0x34
   23de4:	2256      	movs	r2, #86	@ 0x56
   23de6:	920c      	str	r2, [sp, #48]	@ 0x30
   23de8:	f001 ff37 	bl	25c5a <__aeabi_memcpy>
   23dec:	4893      	ldr	r0, [pc, #588]	@ (2403c <_start+0x3f58>)
   23dee:	4631      	mov	r1, r6
   23df0:	462a      	mov	r2, r5
   23df2:	462b      	mov	r3, r5
   23df4:	df03      	svc	3
   23df6:	4891      	ldr	r0, [pc, #580]	@ (2403c <_start+0x3f58>)
   23df8:	4629      	mov	r1, r5
   23dfa:	462a      	mov	r2, r5
   23dfc:	462b      	mov	r3, r5
   23dfe:	df04      	svc	4
   23e00:	4d8f      	ldr	r5, [pc, #572]	@ (24040 <_start+0x3f5c>)
   23e02:	446d      	add	r5, sp
   23e04:	1de8      	adds	r0, r5, #7
   23e06:	990d      	ldr	r1, [sp, #52]	@ 0x34
   23e08:	9a0c      	ldr	r2, [sp, #48]	@ 0x30
   23e0a:	f001 ff26 	bl	25c5a <__aeabi_memcpy>
   23e0e:	980e      	ldr	r0, [sp, #56]	@ 0x38
   23e10:	71a8      	strb	r0, [r5, #6]
   23e12:	980f      	ldr	r0, [sp, #60]	@ 0x3c
   23e14:	7168      	strb	r0, [r5, #5]
   23e16:	9810      	ldr	r0, [sp, #64]	@ 0x40
   23e18:	7128      	strb	r0, [r5, #4]
   23e1a:	9811      	ldr	r0, [sp, #68]	@ 0x44
   23e1c:	70e8      	strb	r0, [r5, #3]
   23e1e:	9812      	ldr	r0, [sp, #72]	@ 0x48
   23e20:	6bc0      	ldr	r0, [r0, #60]	@ 0x3c
   23e22:	8028      	strh	r0, [r5, #0]
   23e24:	9816      	ldr	r0, [sp, #88]	@ 0x58
   23e26:	7880      	ldrb	r0, [r0, #2]
   23e28:	70a8      	strb	r0, [r5, #2]
   23e2a:	4886      	ldr	r0, [pc, #536]	@ (24044 <_start+0x3f60>)
   23e2c:	4468      	add	r0, sp
   23e2e:	2140      	movs	r1, #64	@ 0x40
   23e30:	f001 fec6 	bl	25bc0 <__aeabi_memclr4>
   23e34:	4884      	ldr	r0, [pc, #528]	@ (24048 <_start+0x3f64>)
   23e36:	2108      	movs	r1, #8
   23e38:	235d      	movs	r3, #93	@ 0x5d
   23e3a:	462a      	mov	r2, r5
   23e3c:	df04      	svc	4
   23e3e:	2802      	cmp	r0, #2
   23e40:	d00e      	beq.n	23e60 <_start+0x3d7c>
   23e42:	4881      	ldr	r0, [pc, #516]	@ (24048 <_start+0x3f64>)
   23e44:	2104      	movs	r1, #4
   23e46:	4a7f      	ldr	r2, [pc, #508]	@ (24044 <_start+0x3f60>)
   23e48:	446a      	add	r2, sp
   23e4a:	2340      	movs	r3, #64	@ 0x40
   23e4c:	df03      	svc	3
   23e4e:	2802      	cmp	r0, #2
   23e50:	d006      	beq.n	23e60 <_start+0x3d7c>
   23e52:	487d      	ldr	r0, [pc, #500]	@ (24048 <_start+0x3f64>)
   23e54:	2108      	movs	r1, #8
   23e56:	2204      	movs	r2, #4
   23e58:	2300      	movs	r3, #0
   23e5a:	df02      	svc	2
   23e5c:	287f      	cmp	r0, #127	@ 0x7f
   23e5e:	d80e      	bhi.n	23e7e <_start+0x3d9a>
   23e60:	9116      	str	r1, [sp, #88]	@ 0x58
   23e62:	4d79      	ldr	r5, [pc, #484]	@ (24048 <_start+0x3f64>)
   23e64:	2104      	movs	r1, #4
   23e66:	2600      	movs	r6, #0
   23e68:	4628      	mov	r0, r5
   23e6a:	4632      	mov	r2, r6
   23e6c:	4633      	mov	r3, r6
   23e6e:	df03      	svc	3
   23e70:	2108      	movs	r1, #8
   23e72:	4628      	mov	r0, r5
   23e74:	4632      	mov	r2, r6
   23e76:	4633      	mov	r3, r6
   23e78:	df04      	svc	4
   23e7a:	f7fc f985 	bl	20188 <_start+0xa4>
   23e7e:	4872      	ldr	r0, [pc, #456]	@ (24048 <_start+0x3f64>)
   23e80:	2604      	movs	r6, #4
   23e82:	2500      	movs	r5, #0
   23e84:	4631      	mov	r1, r6
   23e86:	462a      	mov	r2, r5
   23e88:	462b      	mov	r3, r5
   23e8a:	df03      	svc	3
   23e8c:	486e      	ldr	r0, [pc, #440]	@ (24048 <_start+0x3f64>)
   23e8e:	4631      	mov	r1, r6
   23e90:	462a      	mov	r2, r5
   23e92:	462b      	mov	r3, r5
   23e94:	df03      	svc	3
   23e96:	aaff      	add	r2, sp, #1020	@ 0x3fc
   23e98:	3228      	adds	r2, #40	@ 0x28
   23e9a:	9216      	str	r2, [sp, #88]	@ 0x58
   23e9c:	9815      	ldr	r0, [sp, #84]	@ 0x54
   23e9e:	6800      	ldr	r0, [r0, #0]
   23ea0:	8010      	strh	r0, [r2, #0]
   23ea2:	4868      	ldr	r0, [pc, #416]	@ (24044 <_start+0x3f60>)
   23ea4:	4468      	add	r0, sp
   23ea6:	7881      	ldrb	r1, [r0, #2]
   23ea8:	7091      	strb	r1, [r2, #2]
   23eaa:	78c1      	ldrb	r1, [r0, #3]
   23eac:	9111      	str	r1, [sp, #68]	@ 0x44
   23eae:	7901      	ldrb	r1, [r0, #4]
   23eb0:	9110      	str	r1, [sp, #64]	@ 0x40
   23eb2:	7941      	ldrb	r1, [r0, #5]
   23eb4:	910f      	str	r1, [sp, #60]	@ 0x3c
   23eb6:	7981      	ldrb	r1, [r0, #6]
   23eb8:	910e      	str	r1, [sp, #56]	@ 0x38
   23eba:	1dc1      	adds	r1, r0, #7
   23ebc:	4863      	ldr	r0, [pc, #396]	@ (2404c <_start+0x3f68>)
   23ebe:	4468      	add	r0, sp
   23ec0:	900d      	str	r0, [sp, #52]	@ 0x34
   23ec2:	2239      	movs	r2, #57	@ 0x39
   23ec4:	920c      	str	r2, [sp, #48]	@ 0x30
   23ec6:	f001 fec8 	bl	25c5a <__aeabi_memcpy>
   23eca:	485f      	ldr	r0, [pc, #380]	@ (24048 <_start+0x3f64>)
   23ecc:	4631      	mov	r1, r6
   23ece:	462a      	mov	r2, r5
   23ed0:	462b      	mov	r3, r5
   23ed2:	df03      	svc	3
   23ed4:	2608      	movs	r6, #8
   23ed6:	485c      	ldr	r0, [pc, #368]	@ (24048 <_start+0x3f64>)
   23ed8:	4631      	mov	r1, r6
   23eda:	462a      	mov	r2, r5
   23edc:	462b      	mov	r3, r5
   23ede:	df04      	svc	4
   23ee0:	4d57      	ldr	r5, [pc, #348]	@ (24040 <_start+0x3f5c>)
   23ee2:	446d      	add	r5, sp
   23ee4:	1de8      	adds	r0, r5, #7
   23ee6:	990d      	ldr	r1, [sp, #52]	@ 0x34
   23ee8:	9a0c      	ldr	r2, [sp, #48]	@ 0x30
   23eea:	f001 feb6 	bl	25c5a <__aeabi_memcpy>
   23eee:	980e      	ldr	r0, [sp, #56]	@ 0x38
   23ef0:	71a8      	strb	r0, [r5, #6]
   23ef2:	980f      	ldr	r0, [sp, #60]	@ 0x3c
   23ef4:	7168      	strb	r0, [r5, #5]
   23ef6:	9810      	ldr	r0, [sp, #64]	@ 0x40
   23ef8:	7128      	strb	r0, [r5, #4]
   23efa:	9811      	ldr	r0, [sp, #68]	@ 0x44
   23efc:	70e8      	strb	r0, [r5, #3]
   23efe:	9812      	ldr	r0, [sp, #72]	@ 0x48
   23f00:	6c00      	ldr	r0, [r0, #64]	@ 0x40
   23f02:	8028      	strh	r0, [r5, #0]
   23f04:	9816      	ldr	r0, [sp, #88]	@ 0x58
   23f06:	7880      	ldrb	r0, [r0, #2]
   23f08:	70a8      	strb	r0, [r5, #2]
   23f0a:	484e      	ldr	r0, [pc, #312]	@ (24044 <_start+0x3f60>)
   23f0c:	4468      	add	r0, sp
   23f0e:	2131      	movs	r1, #49	@ 0x31
   23f10:	f001 fe56 	bl	25bc0 <__aeabi_memclr4>
   23f14:	484e      	ldr	r0, [pc, #312]	@ (24050 <_start+0x3f6c>)
   23f16:	2340      	movs	r3, #64	@ 0x40
   23f18:	4631      	mov	r1, r6
   23f1a:	462a      	mov	r2, r5
   23f1c:	df04      	svc	4
   23f1e:	2802      	cmp	r0, #2
   23f20:	d00e      	beq.n	23f40 <_start+0x3e5c>
   23f22:	484b      	ldr	r0, [pc, #300]	@ (24050 <_start+0x3f6c>)
   23f24:	2105      	movs	r1, #5
   23f26:	4a47      	ldr	r2, [pc, #284]	@ (24044 <_start+0x3f60>)
   23f28:	446a      	add	r2, sp
   23f2a:	2331      	movs	r3, #49	@ 0x31
   23f2c:	df03      	svc	3
   23f2e:	2802      	cmp	r0, #2
   23f30:	d006      	beq.n	23f40 <_start+0x3e5c>
   23f32:	4847      	ldr	r0, [pc, #284]	@ (24050 <_start+0x3f6c>)
   23f34:	2108      	movs	r1, #8
   23f36:	2205      	movs	r2, #5
   23f38:	2300      	movs	r3, #0
   23f3a:	df02      	svc	2
   23f3c:	287f      	cmp	r0, #127	@ 0x7f
   23f3e:	d80e      	bhi.n	23f5e <_start+0x3e7a>
   23f40:	9116      	str	r1, [sp, #88]	@ 0x58
   23f42:	4d43      	ldr	r5, [pc, #268]	@ (24050 <_start+0x3f6c>)
   23f44:	2105      	movs	r1, #5
   23f46:	2600      	movs	r6, #0
   23f48:	4628      	mov	r0, r5
   23f4a:	4632      	mov	r2, r6
   23f4c:	4633      	mov	r3, r6
   23f4e:	df03      	svc	3
   23f50:	2108      	movs	r1, #8
   23f52:	4628      	mov	r0, r5
   23f54:	4632      	mov	r2, r6
   23f56:	4633      	mov	r3, r6
   23f58:	df04      	svc	4
   23f5a:	f7fc f915 	bl	20188 <_start+0xa4>
   23f5e:	483c      	ldr	r0, [pc, #240]	@ (24050 <_start+0x3f6c>)
   23f60:	2605      	movs	r6, #5
   23f62:	2500      	movs	r5, #0
   23f64:	4631      	mov	r1, r6
   23f66:	462a      	mov	r2, r5
   23f68:	462b      	mov	r3, r5
   23f6a:	df03      	svc	3
   23f6c:	4838      	ldr	r0, [pc, #224]	@ (24050 <_start+0x3f6c>)
   23f6e:	4631      	mov	r1, r6
   23f70:	462a      	mov	r2, r5
   23f72:	462b      	mov	r3, r5
   23f74:	df03      	svc	3
   23f76:	aaff      	add	r2, sp, #1020	@ 0x3fc
   23f78:	322c      	adds	r2, #44	@ 0x2c
   23f7a:	9216      	str	r2, [sp, #88]	@ 0x58
   23f7c:	9815      	ldr	r0, [sp, #84]	@ 0x54
   23f7e:	6800      	ldr	r0, [r0, #0]
   23f80:	8010      	strh	r0, [r2, #0]
   23f82:	4830      	ldr	r0, [pc, #192]	@ (24044 <_start+0x3f60>)
   23f84:	4468      	add	r0, sp
   23f86:	7881      	ldrb	r1, [r0, #2]
   23f88:	7091      	strb	r1, [r2, #2]
   23f8a:	78c1      	ldrb	r1, [r0, #3]
   23f8c:	9111      	str	r1, [sp, #68]	@ 0x44
   23f8e:	7901      	ldrb	r1, [r0, #4]
   23f90:	9110      	str	r1, [sp, #64]	@ 0x40
   23f92:	7941      	ldrb	r1, [r0, #5]
   23f94:	910f      	str	r1, [sp, #60]	@ 0x3c
   23f96:	7981      	ldrb	r1, [r0, #6]
   23f98:	910e      	str	r1, [sp, #56]	@ 0x38
   23f9a:	1dc1      	adds	r1, r0, #7
   23f9c:	a8fa      	add	r0, sp, #1000	@ 0x3e8
   23f9e:	900d      	str	r0, [sp, #52]	@ 0x34
   23fa0:	222a      	movs	r2, #42	@ 0x2a
   23fa2:	920c      	str	r2, [sp, #48]	@ 0x30
   23fa4:	f001 fe59 	bl	25c5a <__aeabi_memcpy>
   23fa8:	4829      	ldr	r0, [pc, #164]	@ (24050 <_start+0x3f6c>)
   23faa:	4631      	mov	r1, r6
   23fac:	462a      	mov	r2, r5
   23fae:	462b      	mov	r3, r5
   23fb0:	df03      	svc	3
   23fb2:	2108      	movs	r1, #8
   23fb4:	4826      	ldr	r0, [pc, #152]	@ (24050 <_start+0x3f6c>)
   23fb6:	462a      	mov	r2, r5
   23fb8:	462b      	mov	r3, r5
   23fba:	df04      	svc	4
   23fbc:	4d23      	ldr	r5, [pc, #140]	@ (2404c <_start+0x3f68>)
   23fbe:	446d      	add	r5, sp
   23fc0:	1de8      	adds	r0, r5, #7
   23fc2:	990d      	ldr	r1, [sp, #52]	@ 0x34
   23fc4:	9a0c      	ldr	r2, [sp, #48]	@ 0x30
   23fc6:	f001 fe48 	bl	25c5a <__aeabi_memcpy>
   23fca:	980e      	ldr	r0, [sp, #56]	@ 0x38
   23fcc:	71a8      	strb	r0, [r5, #6]
   23fce:	980f      	ldr	r0, [sp, #60]	@ 0x3c
   23fd0:	7168      	strb	r0, [r5, #5]
   23fd2:	9810      	ldr	r0, [sp, #64]	@ 0x40
   23fd4:	7128      	strb	r0, [r5, #4]
   23fd6:	9811      	ldr	r0, [sp, #68]	@ 0x44
   23fd8:	70e8      	strb	r0, [r5, #3]
   23fda:	9812      	ldr	r0, [sp, #72]	@ 0x48
   23fdc:	6c40      	ldr	r0, [r0, #68]	@ 0x44
   23fde:	8028      	strh	r0, [r5, #0]
   23fe0:	9816      	ldr	r0, [sp, #88]	@ 0x58
   23fe2:	7880      	ldrb	r0, [r0, #2]
   23fe4:	70a8      	strb	r0, [r5, #2]
   23fe6:	4816      	ldr	r0, [pc, #88]	@ (24040 <_start+0x3f5c>)
   23fe8:	4468      	add	r0, sp
   23fea:	2148      	movs	r1, #72	@ 0x48
   23fec:	f001 fde8 	bl	25bc0 <__aeabi_memclr4>
   23ff0:	4818      	ldr	r0, [pc, #96]	@ (24054 <_start+0x3f70>)
   23ff2:	2104      	movs	r1, #4
   23ff4:	2331      	movs	r3, #49	@ 0x31
   23ff6:	462a      	mov	r2, r5
   23ff8:	df04      	svc	4
   23ffa:	2802      	cmp	r0, #2
   23ffc:	d00e      	beq.n	2401c <_start+0x3f38>
   23ffe:	4815      	ldr	r0, [pc, #84]	@ (24054 <_start+0x3f70>)
   24000:	2103      	movs	r1, #3
   24002:	4a0f      	ldr	r2, [pc, #60]	@ (24040 <_start+0x3f5c>)
   24004:	446a      	add	r2, sp
   24006:	2348      	movs	r3, #72	@ 0x48
   24008:	df03      	svc	3
   2400a:	2802      	cmp	r0, #2
   2400c:	d006      	beq.n	2401c <_start+0x3f38>
   2400e:	4811      	ldr	r0, [pc, #68]	@ (24054 <_start+0x3f70>)
   24010:	2104      	movs	r1, #4
   24012:	2203      	movs	r2, #3
   24014:	2300      	movs	r3, #0
   24016:	df02      	svc	2
   24018:	287f      	cmp	r0, #127	@ 0x7f
   2401a:	d81d      	bhi.n	24058 <_start+0x3f74>
   2401c:	9116      	str	r1, [sp, #88]	@ 0x58
   2401e:	4d0d      	ldr	r5, [pc, #52]	@ (24054 <_start+0x3f70>)
   24020:	2103      	movs	r1, #3
   24022:	2600      	movs	r6, #0
   24024:	4628      	mov	r0, r5
   24026:	4632      	mov	r2, r6
   24028:	4633      	mov	r3, r6
   2402a:	df03      	svc	3
   2402c:	2104      	movs	r1, #4
   2402e:	4628      	mov	r0, r5
   24030:	4632      	mov	r2, r6
   24032:	4633      	mov	r3, r6
   24034:	df04      	svc	4
   24036:	f7fc f8a7 	bl	20188 <_start+0xa4>
   2403a:	46c0      	nop			@ (mov r8, r8)
   2403c:	000014a4 	.word	0x000014a4
   24040:	000006e8 	.word	0x000006e8
   24044:	00000684 	.word	0x00000684
   24048:	00001028 	.word	0x00001028
   2404c:	000005b8 	.word	0x000005b8
   24050:	00000fce 	.word	0x00000fce
   24054:	0000180e 	.word	0x0000180e
   24058:	48a7      	ldr	r0, [pc, #668]	@ (242f8 <_start+0x4214>)
   2405a:	2503      	movs	r5, #3
   2405c:	9516      	str	r5, [sp, #88]	@ 0x58
   2405e:	2600      	movs	r6, #0
   24060:	4629      	mov	r1, r5
   24062:	4632      	mov	r2, r6
   24064:	4633      	mov	r3, r6
   24066:	df03      	svc	3
   24068:	48a3      	ldr	r0, [pc, #652]	@ (242f8 <_start+0x4214>)
   2406a:	4629      	mov	r1, r5
   2406c:	4632      	mov	r2, r6
   2406e:	4633      	mov	r3, r6
   24070:	df03      	svc	3
   24072:	aaff      	add	r2, sp, #1020	@ 0x3fc
   24074:	3230      	adds	r2, #48	@ 0x30
   24076:	9211      	str	r2, [sp, #68]	@ 0x44
   24078:	9815      	ldr	r0, [sp, #84]	@ 0x54
   2407a:	6e40      	ldr	r0, [r0, #100]	@ 0x64
   2407c:	8010      	strh	r0, [r2, #0]
   2407e:	489f      	ldr	r0, [pc, #636]	@ (242fc <_start+0x4218>)
   24080:	4468      	add	r0, sp
   24082:	7881      	ldrb	r1, [r0, #2]
   24084:	7091      	strb	r1, [r2, #2]
   24086:	78c1      	ldrb	r1, [r0, #3]
   24088:	9110      	str	r1, [sp, #64]	@ 0x40
   2408a:	7901      	ldrb	r1, [r0, #4]
   2408c:	910f      	str	r1, [sp, #60]	@ 0x3c
   2408e:	7941      	ldrb	r1, [r0, #5]
   24090:	910e      	str	r1, [sp, #56]	@ 0x38
   24092:	7981      	ldrb	r1, [r0, #6]
   24094:	910d      	str	r1, [sp, #52]	@ 0x34
   24096:	1dc1      	adds	r1, r0, #7
   24098:	4d99      	ldr	r5, [pc, #612]	@ (24300 <_start+0x421c>)
   2409a:	446d      	add	r5, sp
   2409c:	2241      	movs	r2, #65	@ 0x41
   2409e:	920c      	str	r2, [sp, #48]	@ 0x30
   240a0:	4628      	mov	r0, r5
   240a2:	f001 fdda 	bl	25c5a <__aeabi_memcpy>
   240a6:	4894      	ldr	r0, [pc, #592]	@ (242f8 <_start+0x4214>)
   240a8:	9916      	ldr	r1, [sp, #88]	@ 0x58
   240aa:	4632      	mov	r2, r6
   240ac:	4633      	mov	r3, r6
   240ae:	df03      	svc	3
   240b0:	2104      	movs	r1, #4
   240b2:	4891      	ldr	r0, [pc, #580]	@ (242f8 <_start+0x4214>)
   240b4:	4632      	mov	r2, r6
   240b6:	4633      	mov	r3, r6
   240b8:	df04      	svc	4
   240ba:	4e90      	ldr	r6, [pc, #576]	@ (242fc <_start+0x4218>)
   240bc:	446e      	add	r6, sp
   240be:	1df0      	adds	r0, r6, #7
   240c0:	4629      	mov	r1, r5
   240c2:	9a0c      	ldr	r2, [sp, #48]	@ 0x30
   240c4:	f001 fdc9 	bl	25c5a <__aeabi_memcpy>
   240c8:	980d      	ldr	r0, [sp, #52]	@ 0x34
   240ca:	71b0      	strb	r0, [r6, #6]
   240cc:	980e      	ldr	r0, [sp, #56]	@ 0x38
   240ce:	7170      	strb	r0, [r6, #5]
   240d0:	980f      	ldr	r0, [sp, #60]	@ 0x3c
   240d2:	7130      	strb	r0, [r6, #4]
   240d4:	9810      	ldr	r0, [sp, #64]	@ 0x40
   240d6:	70f0      	strb	r0, [r6, #3]
   240d8:	9812      	ldr	r0, [sp, #72]	@ 0x48
   240da:	6c80      	ldr	r0, [r0, #72]	@ 0x48
   240dc:	8030      	strh	r0, [r6, #0]
   240de:	9811      	ldr	r0, [sp, #68]	@ 0x44
   240e0:	7880      	ldrb	r0, [r0, #2]
   240e2:	70b0      	strb	r0, [r6, #2]
   240e4:	4886      	ldr	r0, [pc, #536]	@ (24300 <_start+0x421c>)
   240e6:	4468      	add	r0, sp
   240e8:	2129      	movs	r1, #41	@ 0x29
   240ea:	f001 fd69 	bl	25bc0 <__aeabi_memclr4>
   240ee:	4885      	ldr	r0, [pc, #532]	@ (24304 <_start+0x4220>)
   240f0:	2348      	movs	r3, #72	@ 0x48
   240f2:	9916      	ldr	r1, [sp, #88]	@ 0x58
   240f4:	4632      	mov	r2, r6
   240f6:	df04      	svc	4
   240f8:	2802      	cmp	r0, #2
   240fa:	d00e      	beq.n	2411a <_start+0x4036>
   240fc:	4881      	ldr	r0, [pc, #516]	@ (24304 <_start+0x4220>)
   240fe:	2104      	movs	r1, #4
   24100:	4a7f      	ldr	r2, [pc, #508]	@ (24300 <_start+0x421c>)
   24102:	446a      	add	r2, sp
   24104:	2329      	movs	r3, #41	@ 0x29
   24106:	df03      	svc	3
   24108:	2802      	cmp	r0, #2
   2410a:	d006      	beq.n	2411a <_start+0x4036>
   2410c:	487d      	ldr	r0, [pc, #500]	@ (24304 <_start+0x4220>)
   2410e:	2103      	movs	r1, #3
   24110:	2204      	movs	r2, #4
   24112:	2300      	movs	r3, #0
   24114:	df02      	svc	2
   24116:	287f      	cmp	r0, #127	@ 0x7f
   24118:	d80e      	bhi.n	24138 <_start+0x4054>
   2411a:	9116      	str	r1, [sp, #88]	@ 0x58
   2411c:	4d79      	ldr	r5, [pc, #484]	@ (24304 <_start+0x4220>)
   2411e:	2104      	movs	r1, #4
   24120:	2600      	movs	r6, #0
   24122:	4628      	mov	r0, r5
   24124:	4632      	mov	r2, r6
   24126:	4633      	mov	r3, r6
   24128:	df03      	svc	3
   2412a:	2103      	movs	r1, #3
   2412c:	4628      	mov	r0, r5
   2412e:	4632      	mov	r2, r6
   24130:	4633      	mov	r3, r6
   24132:	df04      	svc	4
   24134:	f7fc f828 	bl	20188 <_start+0xa4>
   24138:	4872      	ldr	r0, [pc, #456]	@ (24304 <_start+0x4220>)
   2413a:	2604      	movs	r6, #4
   2413c:	2500      	movs	r5, #0
   2413e:	4631      	mov	r1, r6
   24140:	462a      	mov	r2, r5
   24142:	462b      	mov	r3, r5
   24144:	df03      	svc	3
   24146:	486f      	ldr	r0, [pc, #444]	@ (24304 <_start+0x4220>)
   24148:	4631      	mov	r1, r6
   2414a:	462a      	mov	r2, r5
   2414c:	462b      	mov	r3, r5
   2414e:	df03      	svc	3
   24150:	aaff      	add	r2, sp, #1020	@ 0x3fc
   24152:	3234      	adds	r2, #52	@ 0x34
   24154:	9216      	str	r2, [sp, #88]	@ 0x58
   24156:	9815      	ldr	r0, [sp, #84]	@ 0x54
   24158:	6800      	ldr	r0, [r0, #0]
   2415a:	8010      	strh	r0, [r2, #0]
   2415c:	4868      	ldr	r0, [pc, #416]	@ (24300 <_start+0x421c>)
   2415e:	4468      	add	r0, sp
   24160:	7881      	ldrb	r1, [r0, #2]
   24162:	7091      	strb	r1, [r2, #2]
   24164:	78c1      	ldrb	r1, [r0, #3]
   24166:	9111      	str	r1, [sp, #68]	@ 0x44
   24168:	7901      	ldrb	r1, [r0, #4]
   2416a:	9110      	str	r1, [sp, #64]	@ 0x40
   2416c:	7941      	ldrb	r1, [r0, #5]
   2416e:	910f      	str	r1, [sp, #60]	@ 0x3c
   24170:	7981      	ldrb	r1, [r0, #6]
   24172:	910e      	str	r1, [sp, #56]	@ 0x38
   24174:	1dc1      	adds	r1, r0, #7
   24176:	4864      	ldr	r0, [pc, #400]	@ (24308 <_start+0x4224>)
   24178:	4468      	add	r0, sp
   2417a:	900d      	str	r0, [sp, #52]	@ 0x34
   2417c:	2222      	movs	r2, #34	@ 0x22
   2417e:	920c      	str	r2, [sp, #48]	@ 0x30
   24180:	f001 fd6b 	bl	25c5a <__aeabi_memcpy>
   24184:	485f      	ldr	r0, [pc, #380]	@ (24304 <_start+0x4220>)
   24186:	4631      	mov	r1, r6
   24188:	462a      	mov	r2, r5
   2418a:	462b      	mov	r3, r5
   2418c:	df03      	svc	3
   2418e:	2103      	movs	r1, #3
   24190:	485c      	ldr	r0, [pc, #368]	@ (24304 <_start+0x4220>)
   24192:	462a      	mov	r2, r5
   24194:	462b      	mov	r3, r5
   24196:	df04      	svc	4
   24198:	4d58      	ldr	r5, [pc, #352]	@ (242fc <_start+0x4218>)
   2419a:	446d      	add	r5, sp
   2419c:	1de8      	adds	r0, r5, #7
   2419e:	990d      	ldr	r1, [sp, #52]	@ 0x34
   241a0:	9a0c      	ldr	r2, [sp, #48]	@ 0x30
   241a2:	f001 fd5a 	bl	25c5a <__aeabi_memcpy>
   241a6:	980e      	ldr	r0, [sp, #56]	@ 0x38
   241a8:	71a8      	strb	r0, [r5, #6]
   241aa:	980f      	ldr	r0, [sp, #60]	@ 0x3c
   241ac:	7168      	strb	r0, [r5, #5]
   241ae:	9810      	ldr	r0, [sp, #64]	@ 0x40
   241b0:	7128      	strb	r0, [r5, #4]
   241b2:	9811      	ldr	r0, [sp, #68]	@ 0x44
   241b4:	70e8      	strb	r0, [r5, #3]
   241b6:	9812      	ldr	r0, [sp, #72]	@ 0x48
   241b8:	6cc0      	ldr	r0, [r0, #76]	@ 0x4c
   241ba:	8028      	strh	r0, [r5, #0]
   241bc:	9816      	ldr	r0, [sp, #88]	@ 0x58
   241be:	7880      	ldrb	r0, [r0, #2]
   241c0:	70a8      	strb	r0, [r5, #2]
   241c2:	484f      	ldr	r0, [pc, #316]	@ (24300 <_start+0x421c>)
   241c4:	4468      	add	r0, sp
   241c6:	211a      	movs	r1, #26
   241c8:	f001 fcfa 	bl	25bc0 <__aeabi_memclr4>
   241cc:	484f      	ldr	r0, [pc, #316]	@ (2430c <_start+0x4228>)
   241ce:	2105      	movs	r1, #5
   241d0:	2329      	movs	r3, #41	@ 0x29
   241d2:	462a      	mov	r2, r5
   241d4:	df04      	svc	4
   241d6:	2802      	cmp	r0, #2
   241d8:	d00e      	beq.n	241f8 <_start+0x4114>
   241da:	484c      	ldr	r0, [pc, #304]	@ (2430c <_start+0x4228>)
   241dc:	2103      	movs	r1, #3
   241de:	4a48      	ldr	r2, [pc, #288]	@ (24300 <_start+0x421c>)
   241e0:	446a      	add	r2, sp
   241e2:	231a      	movs	r3, #26
   241e4:	df03      	svc	3
   241e6:	2802      	cmp	r0, #2
   241e8:	d006      	beq.n	241f8 <_start+0x4114>
   241ea:	4848      	ldr	r0, [pc, #288]	@ (2430c <_start+0x4228>)
   241ec:	2105      	movs	r1, #5
   241ee:	2203      	movs	r2, #3
   241f0:	2300      	movs	r3, #0
   241f2:	df02      	svc	2
   241f4:	287f      	cmp	r0, #127	@ 0x7f
   241f6:	d80e      	bhi.n	24216 <_start+0x4132>
   241f8:	9116      	str	r1, [sp, #88]	@ 0x58
   241fa:	4d44      	ldr	r5, [pc, #272]	@ (2430c <_start+0x4228>)
   241fc:	2103      	movs	r1, #3
   241fe:	2600      	movs	r6, #0
   24200:	4628      	mov	r0, r5
   24202:	4632      	mov	r2, r6
   24204:	4633      	mov	r3, r6
   24206:	df03      	svc	3
   24208:	2105      	movs	r1, #5
   2420a:	4628      	mov	r0, r5
   2420c:	4632      	mov	r2, r6
   2420e:	4633      	mov	r3, r6
   24210:	df04      	svc	4
   24212:	f7fb ffb9 	bl	20188 <_start+0xa4>
   24216:	483d      	ldr	r0, [pc, #244]	@ (2430c <_start+0x4228>)
   24218:	2603      	movs	r6, #3
   2421a:	2500      	movs	r5, #0
   2421c:	4631      	mov	r1, r6
   2421e:	462a      	mov	r2, r5
   24220:	462b      	mov	r3, r5
   24222:	df03      	svc	3
   24224:	4839      	ldr	r0, [pc, #228]	@ (2430c <_start+0x4228>)
   24226:	4631      	mov	r1, r6
   24228:	462a      	mov	r2, r5
   2422a:	462b      	mov	r3, r5
   2422c:	df03      	svc	3
   2422e:	aaff      	add	r2, sp, #1020	@ 0x3fc
   24230:	3238      	adds	r2, #56	@ 0x38
   24232:	9216      	str	r2, [sp, #88]	@ 0x58
   24234:	9815      	ldr	r0, [sp, #84]	@ 0x54
   24236:	6800      	ldr	r0, [r0, #0]
   24238:	8010      	strh	r0, [r2, #0]
   2423a:	4831      	ldr	r0, [pc, #196]	@ (24300 <_start+0x421c>)
   2423c:	4468      	add	r0, sp
   2423e:	7881      	ldrb	r1, [r0, #2]
   24240:	7091      	strb	r1, [r2, #2]
   24242:	78c1      	ldrb	r1, [r0, #3]
   24244:	9111      	str	r1, [sp, #68]	@ 0x44
   24246:	7901      	ldrb	r1, [r0, #4]
   24248:	9110      	str	r1, [sp, #64]	@ 0x40
   2424a:	7941      	ldrb	r1, [r0, #5]
   2424c:	910f      	str	r1, [sp, #60]	@ 0x3c
   2424e:	7981      	ldrb	r1, [r0, #6]
   24250:	910e      	str	r1, [sp, #56]	@ 0x38
   24252:	1dc1      	adds	r1, r0, #7
   24254:	482c      	ldr	r0, [pc, #176]	@ (24308 <_start+0x4224>)
   24256:	4468      	add	r0, sp
   24258:	900d      	str	r0, [sp, #52]	@ 0x34
   2425a:	2213      	movs	r2, #19
   2425c:	920c      	str	r2, [sp, #48]	@ 0x30
   2425e:	f001 fcfc 	bl	25c5a <__aeabi_memcpy>
   24262:	482a      	ldr	r0, [pc, #168]	@ (2430c <_start+0x4228>)
   24264:	4631      	mov	r1, r6
   24266:	462a      	mov	r2, r5
   24268:	462b      	mov	r3, r5
   2426a:	df03      	svc	3
   2426c:	2605      	movs	r6, #5
   2426e:	4827      	ldr	r0, [pc, #156]	@ (2430c <_start+0x4228>)
   24270:	4631      	mov	r1, r6
   24272:	462a      	mov	r2, r5
   24274:	462b      	mov	r3, r5
   24276:	df04      	svc	4
   24278:	4d21      	ldr	r5, [pc, #132]	@ (24300 <_start+0x421c>)
   2427a:	446d      	add	r5, sp
   2427c:	1de8      	adds	r0, r5, #7
   2427e:	990d      	ldr	r1, [sp, #52]	@ 0x34
   24280:	9a0c      	ldr	r2, [sp, #48]	@ 0x30
   24282:	f001 fcea 	bl	25c5a <__aeabi_memcpy>
   24286:	980e      	ldr	r0, [sp, #56]	@ 0x38
   24288:	71a8      	strb	r0, [r5, #6]
   2428a:	980f      	ldr	r0, [sp, #60]	@ 0x3c
   2428c:	7168      	strb	r0, [r5, #5]
   2428e:	9810      	ldr	r0, [sp, #64]	@ 0x40
   24290:	7128      	strb	r0, [r5, #4]
   24292:	9811      	ldr	r0, [sp, #68]	@ 0x44
   24294:	70e8      	strb	r0, [r5, #3]
   24296:	9812      	ldr	r0, [sp, #72]	@ 0x48
   24298:	6d00      	ldr	r0, [r0, #80]	@ 0x50
   2429a:	8028      	strh	r0, [r5, #0]
   2429c:	9816      	ldr	r0, [sp, #88]	@ 0x58
   2429e:	7880      	ldrb	r0, [r0, #2]
   242a0:	70a8      	strb	r0, [r5, #2]
   242a2:	4816      	ldr	r0, [pc, #88]	@ (242fc <_start+0x4218>)
   242a4:	4468      	add	r0, sp
   242a6:	211b      	movs	r1, #27
   242a8:	f001 fc8a 	bl	25bc0 <__aeabi_memclr4>
   242ac:	4818      	ldr	r0, [pc, #96]	@ (24310 <_start+0x422c>)
   242ae:	231a      	movs	r3, #26
   242b0:	4631      	mov	r1, r6
   242b2:	462a      	mov	r2, r5
   242b4:	df04      	svc	4
   242b6:	2802      	cmp	r0, #2
   242b8:	d00f      	beq.n	242da <_start+0x41f6>
   242ba:	4815      	ldr	r0, [pc, #84]	@ (24310 <_start+0x422c>)
   242bc:	2102      	movs	r1, #2
   242be:	4a0f      	ldr	r2, [pc, #60]	@ (242fc <_start+0x4218>)
   242c0:	446a      	add	r2, sp
   242c2:	231b      	movs	r3, #27
   242c4:	df03      	svc	3
   242c6:	2802      	cmp	r0, #2
   242c8:	d007      	beq.n	242da <_start+0x41f6>
   242ca:	4811      	ldr	r0, [pc, #68]	@ (24310 <_start+0x422c>)
   242cc:	2105      	movs	r1, #5
   242ce:	2202      	movs	r2, #2
   242d0:	2300      	movs	r3, #0
   242d2:	9116      	str	r1, [sp, #88]	@ 0x58
   242d4:	df02      	svc	2
   242d6:	287f      	cmp	r0, #127	@ 0x7f
   242d8:	d81c      	bhi.n	24314 <_start+0x4230>
   242da:	9116      	str	r1, [sp, #88]	@ 0x58
   242dc:	4d0c      	ldr	r5, [pc, #48]	@ (24310 <_start+0x422c>)
   242de:	2102      	movs	r1, #2
   242e0:	2600      	movs	r6, #0
   242e2:	4628      	mov	r0, r5
   242e4:	4632      	mov	r2, r6
   242e6:	4633      	mov	r3, r6
   242e8:	df03      	svc	3
   242ea:	2105      	movs	r1, #5
   242ec:	4628      	mov	r0, r5
   242ee:	4632      	mov	r2, r6
   242f0:	4633      	mov	r3, r6
   242f2:	df04      	svc	4
   242f4:	f7fb ff48 	bl	20188 <_start+0xa4>
   242f8:	0000180e 	.word	0x0000180e
   242fc:	000006e8 	.word	0x000006e8
   24300:	00000684 	.word	0x00000684
   24304:	000026a4 	.word	0x000026a4
   24308:	000005b8 	.word	0x000005b8
   2430c:	00002048 	.word	0x00002048
   24310:	00001cce 	.word	0x00001cce
   24314:	48a8      	ldr	r0, [pc, #672]	@ (245b8 <_start+0x44d4>)
   24316:	2502      	movs	r5, #2
   24318:	2600      	movs	r6, #0
   2431a:	4629      	mov	r1, r5
   2431c:	4632      	mov	r2, r6
   2431e:	4633      	mov	r3, r6
   24320:	df03      	svc	3
   24322:	48a5      	ldr	r0, [pc, #660]	@ (245b8 <_start+0x44d4>)
   24324:	4629      	mov	r1, r5
   24326:	4632      	mov	r2, r6
   24328:	4633      	mov	r3, r6
   2432a:	df03      	svc	3
   2432c:	aaff      	add	r2, sp, #1020	@ 0x3fc
   2432e:	3250      	adds	r2, #80	@ 0x50
   24330:	9211      	str	r2, [sp, #68]	@ 0x44
   24332:	9815      	ldr	r0, [sp, #84]	@ 0x54
   24334:	6e40      	ldr	r0, [r0, #100]	@ 0x64
   24336:	8010      	strh	r0, [r2, #0]
   24338:	48a0      	ldr	r0, [pc, #640]	@ (245bc <_start+0x44d8>)
   2433a:	4468      	add	r0, sp
   2433c:	7881      	ldrb	r1, [r0, #2]
   2433e:	7091      	strb	r1, [r2, #2]
   24340:	78c1      	ldrb	r1, [r0, #3]
   24342:	9110      	str	r1, [sp, #64]	@ 0x40
   24344:	7901      	ldrb	r1, [r0, #4]
   24346:	910d      	str	r1, [sp, #52]	@ 0x34
   24348:	7941      	ldrb	r1, [r0, #5]
   2434a:	910c      	str	r1, [sp, #48]	@ 0x30
   2434c:	7981      	ldrb	r1, [r0, #6]
   2434e:	910b      	str	r1, [sp, #44]	@ 0x2c
   24350:	1dc1      	adds	r1, r0, #7
   24352:	a8ff      	add	r0, sp, #1020	@ 0x3fc
   24354:	303c      	adds	r0, #60	@ 0x3c
   24356:	900f      	str	r0, [sp, #60]	@ 0x3c
   24358:	2214      	movs	r2, #20
   2435a:	920e      	str	r2, [sp, #56]	@ 0x38
   2435c:	f001 fc7d 	bl	25c5a <__aeabi_memcpy>
   24360:	4895      	ldr	r0, [pc, #596]	@ (245b8 <_start+0x44d4>)
   24362:	4629      	mov	r1, r5
   24364:	4632      	mov	r2, r6
   24366:	4633      	mov	r3, r6
   24368:	df03      	svc	3
   2436a:	4893      	ldr	r0, [pc, #588]	@ (245b8 <_start+0x44d4>)
   2436c:	9916      	ldr	r1, [sp, #88]	@ 0x58
   2436e:	4632      	mov	r2, r6
   24370:	4633      	mov	r3, r6
   24372:	df04      	svc	4
   24374:	4d92      	ldr	r5, [pc, #584]	@ (245c0 <_start+0x44dc>)
   24376:	446d      	add	r5, sp
   24378:	980b      	ldr	r0, [sp, #44]	@ 0x2c
   2437a:	71a8      	strb	r0, [r5, #6]
   2437c:	980c      	ldr	r0, [sp, #48]	@ 0x30
   2437e:	7168      	strb	r0, [r5, #5]
   24380:	980d      	ldr	r0, [sp, #52]	@ 0x34
   24382:	7128      	strb	r0, [r5, #4]
   24384:	9810      	ldr	r0, [sp, #64]	@ 0x40
   24386:	70e8      	strb	r0, [r5, #3]
   24388:	9811      	ldr	r0, [sp, #68]	@ 0x44
   2438a:	7880      	ldrb	r0, [r0, #2]
   2438c:	70a8      	strb	r0, [r5, #2]
   2438e:	9812      	ldr	r0, [sp, #72]	@ 0x48
   24390:	6e80      	ldr	r0, [r0, #104]	@ 0x68
   24392:	8028      	strh	r0, [r5, #0]
   24394:	1de8      	adds	r0, r5, #7
   24396:	990f      	ldr	r1, [sp, #60]	@ 0x3c
   24398:	9a0e      	ldr	r2, [sp, #56]	@ 0x38
   2439a:	f001 fc5e 	bl	25c5a <__aeabi_memcpy>
   2439e:	4887      	ldr	r0, [pc, #540]	@ (245bc <_start+0x44d8>)
   243a0:	4468      	add	r0, sp
   243a2:	2141      	movs	r1, #65	@ 0x41
   243a4:	f001 fc0c 	bl	25bc0 <__aeabi_memclr4>
   243a8:	9816      	ldr	r0, [sp, #88]	@ 0x58
   243aa:	0186      	lsls	r6, r0, #6
   243ac:	2108      	movs	r1, #8
   243ae:	231b      	movs	r3, #27
   243b0:	4630      	mov	r0, r6
   243b2:	462a      	mov	r2, r5
   243b4:	df04      	svc	4
   243b6:	2802      	cmp	r0, #2
   243b8:	d00e      	beq.n	243d8 <_start+0x42f4>
   243ba:	2109      	movs	r1, #9
   243bc:	4a7f      	ldr	r2, [pc, #508]	@ (245bc <_start+0x44d8>)
   243be:	446a      	add	r2, sp
   243c0:	2341      	movs	r3, #65	@ 0x41
   243c2:	4630      	mov	r0, r6
   243c4:	df03      	svc	3
   243c6:	2802      	cmp	r0, #2
   243c8:	d006      	beq.n	243d8 <_start+0x42f4>
   243ca:	2108      	movs	r1, #8
   243cc:	2209      	movs	r2, #9
   243ce:	2300      	movs	r3, #0
   243d0:	4630      	mov	r0, r6
   243d2:	df02      	svc	2
   243d4:	287f      	cmp	r0, #127	@ 0x7f
   243d6:	d80d      	bhi.n	243f4 <_start+0x4310>
   243d8:	9116      	str	r1, [sp, #88]	@ 0x58
   243da:	2109      	movs	r1, #9
   243dc:	2500      	movs	r5, #0
   243de:	4630      	mov	r0, r6
   243e0:	462a      	mov	r2, r5
   243e2:	462b      	mov	r3, r5
   243e4:	df03      	svc	3
   243e6:	2108      	movs	r1, #8
   243e8:	4630      	mov	r0, r6
   243ea:	462a      	mov	r2, r5
   243ec:	462b      	mov	r3, r5
   243ee:	df04      	svc	4
   243f0:	f7fb feca 	bl	20188 <_start+0xa4>
   243f4:	2509      	movs	r5, #9
   243f6:	2400      	movs	r4, #0
   243f8:	4630      	mov	r0, r6
   243fa:	4629      	mov	r1, r5
   243fc:	4622      	mov	r2, r4
   243fe:	4623      	mov	r3, r4
   24400:	df03      	svc	3
   24402:	4630      	mov	r0, r6
   24404:	4629      	mov	r1, r5
   24406:	4622      	mov	r2, r4
   24408:	4623      	mov	r3, r4
   2440a:	df03      	svc	3
   2440c:	aaff      	add	r2, sp, #1020	@ 0x3fc
   2440e:	3254      	adds	r2, #84	@ 0x54
   24410:	9216      	str	r2, [sp, #88]	@ 0x58
   24412:	9815      	ldr	r0, [sp, #84]	@ 0x54
   24414:	6e40      	ldr	r0, [r0, #100]	@ 0x64
   24416:	8010      	strh	r0, [r2, #0]
   24418:	4868      	ldr	r0, [pc, #416]	@ (245bc <_start+0x44d8>)
   2441a:	4468      	add	r0, sp
   2441c:	7881      	ldrb	r1, [r0, #2]
   2441e:	7091      	strb	r1, [r2, #2]
   24420:	78c1      	ldrb	r1, [r0, #3]
   24422:	9111      	str	r1, [sp, #68]	@ 0x44
   24424:	7901      	ldrb	r1, [r0, #4]
   24426:	9110      	str	r1, [sp, #64]	@ 0x40
   24428:	7941      	ldrb	r1, [r0, #5]
   2442a:	910f      	str	r1, [sp, #60]	@ 0x3c
   2442c:	7981      	ldrb	r1, [r0, #6]
   2442e:	910e      	str	r1, [sp, #56]	@ 0x38
   24430:	1dc1      	adds	r1, r0, #7
   24432:	4864      	ldr	r0, [pc, #400]	@ (245c4 <_start+0x44e0>)
   24434:	4468      	add	r0, sp
   24436:	900d      	str	r0, [sp, #52]	@ 0x34
   24438:	223a      	movs	r2, #58	@ 0x3a
   2443a:	920c      	str	r2, [sp, #48]	@ 0x30
   2443c:	f001 fc0d 	bl	25c5a <__aeabi_memcpy>
   24440:	4630      	mov	r0, r6
   24442:	4629      	mov	r1, r5
   24444:	4622      	mov	r2, r4
   24446:	4623      	mov	r3, r4
   24448:	df03      	svc	3
   2444a:	2108      	movs	r1, #8
   2444c:	4630      	mov	r0, r6
   2444e:	4622      	mov	r2, r4
   24450:	4623      	mov	r3, r4
   24452:	df04      	svc	4
   24454:	4d59      	ldr	r5, [pc, #356]	@ (245bc <_start+0x44d8>)
   24456:	446d      	add	r5, sp
   24458:	1de8      	adds	r0, r5, #7
   2445a:	990d      	ldr	r1, [sp, #52]	@ 0x34
   2445c:	9a0c      	ldr	r2, [sp, #48]	@ 0x30
   2445e:	f001 fbfc 	bl	25c5a <__aeabi_memcpy>
   24462:	980e      	ldr	r0, [sp, #56]	@ 0x38
   24464:	71a8      	strb	r0, [r5, #6]
   24466:	980f      	ldr	r0, [sp, #60]	@ 0x3c
   24468:	7168      	strb	r0, [r5, #5]
   2446a:	9810      	ldr	r0, [sp, #64]	@ 0x40
   2446c:	7128      	strb	r0, [r5, #4]
   2446e:	9811      	ldr	r0, [sp, #68]	@ 0x44
   24470:	70e8      	strb	r0, [r5, #3]
   24472:	9812      	ldr	r0, [sp, #72]	@ 0x48
   24474:	6ec0      	ldr	r0, [r0, #108]	@ 0x6c
   24476:	8028      	strh	r0, [r5, #0]
   24478:	9816      	ldr	r0, [sp, #88]	@ 0x58
   2447a:	7880      	ldrb	r0, [r0, #2]
   2447c:	70a8      	strb	r0, [r5, #2]
   2447e:	4851      	ldr	r0, [pc, #324]	@ (245c4 <_start+0x44e0>)
   24480:	4468      	add	r0, sp
   24482:	2118      	movs	r1, #24
   24484:	f001 fb9c 	bl	25bc0 <__aeabi_memclr4>
   24488:	484f      	ldr	r0, [pc, #316]	@ (245c8 <_start+0x44e4>)
   2448a:	2401      	movs	r4, #1
   2448c:	2341      	movs	r3, #65	@ 0x41
   2448e:	4621      	mov	r1, r4
   24490:	462a      	mov	r2, r5
   24492:	df04      	svc	4
   24494:	2802      	cmp	r0, #2
   24496:	d00e      	beq.n	244b6 <_start+0x43d2>
   24498:	484b      	ldr	r0, [pc, #300]	@ (245c8 <_start+0x44e4>)
   2449a:	2109      	movs	r1, #9
   2449c:	4a49      	ldr	r2, [pc, #292]	@ (245c4 <_start+0x44e0>)
   2449e:	446a      	add	r2, sp
   244a0:	2318      	movs	r3, #24
   244a2:	df03      	svc	3
   244a4:	2802      	cmp	r0, #2
   244a6:	d006      	beq.n	244b6 <_start+0x43d2>
   244a8:	4847      	ldr	r0, [pc, #284]	@ (245c8 <_start+0x44e4>)
   244aa:	2101      	movs	r1, #1
   244ac:	2209      	movs	r2, #9
   244ae:	2300      	movs	r3, #0
   244b0:	df02      	svc	2
   244b2:	287f      	cmp	r0, #127	@ 0x7f
   244b4:	d80e      	bhi.n	244d4 <_start+0x43f0>
   244b6:	9116      	str	r1, [sp, #88]	@ 0x58
   244b8:	4d43      	ldr	r5, [pc, #268]	@ (245c8 <_start+0x44e4>)
   244ba:	2109      	movs	r1, #9
   244bc:	2600      	movs	r6, #0
   244be:	4628      	mov	r0, r5
   244c0:	4632      	mov	r2, r6
   244c2:	4633      	mov	r3, r6
   244c4:	df03      	svc	3
   244c6:	4628      	mov	r0, r5
   244c8:	4621      	mov	r1, r4
   244ca:	4632      	mov	r2, r6
   244cc:	4633      	mov	r3, r6
   244ce:	df04      	svc	4
   244d0:	f7fb fe5a 	bl	20188 <_start+0xa4>
   244d4:	4d3c      	ldr	r5, [pc, #240]	@ (245c8 <_start+0x44e4>)
   244d6:	2409      	movs	r4, #9
   244d8:	2600      	movs	r6, #0
   244da:	4628      	mov	r0, r5
   244dc:	4621      	mov	r1, r4
   244de:	4632      	mov	r2, r6
   244e0:	4633      	mov	r3, r6
   244e2:	df03      	svc	3
   244e4:	4628      	mov	r0, r5
   244e6:	4621      	mov	r1, r4
   244e8:	9411      	str	r4, [sp, #68]	@ 0x44
   244ea:	4632      	mov	r2, r6
   244ec:	4633      	mov	r3, r6
   244ee:	df03      	svc	3
   244f0:	aaff      	add	r2, sp, #1020	@ 0x3fc
   244f2:	3258      	adds	r2, #88	@ 0x58
   244f4:	9216      	str	r2, [sp, #88]	@ 0x58
   244f6:	9815      	ldr	r0, [sp, #84]	@ 0x54
   244f8:	6800      	ldr	r0, [r0, #0]
   244fa:	8010      	strh	r0, [r2, #0]
   244fc:	4831      	ldr	r0, [pc, #196]	@ (245c4 <_start+0x44e0>)
   244fe:	4468      	add	r0, sp
   24500:	7881      	ldrb	r1, [r0, #2]
   24502:	7091      	strb	r1, [r2, #2]
   24504:	78c1      	ldrb	r1, [r0, #3]
   24506:	9110      	str	r1, [sp, #64]	@ 0x40
   24508:	7901      	ldrb	r1, [r0, #4]
   2450a:	910f      	str	r1, [sp, #60]	@ 0x3c
   2450c:	7941      	ldrb	r1, [r0, #5]
   2450e:	910e      	str	r1, [sp, #56]	@ 0x38
   24510:	7981      	ldrb	r1, [r0, #6]
   24512:	910d      	str	r1, [sp, #52]	@ 0x34
   24514:	1dc1      	adds	r1, r0, #7
   24516:	4d2a      	ldr	r5, [pc, #168]	@ (245c0 <_start+0x44dc>)
   24518:	446d      	add	r5, sp
   2451a:	2211      	movs	r2, #17
   2451c:	920c      	str	r2, [sp, #48]	@ 0x30
   2451e:	4628      	mov	r0, r5
   24520:	f001 fb9b 	bl	25c5a <__aeabi_memcpy>
   24524:	4828      	ldr	r0, [pc, #160]	@ (245c8 <_start+0x44e4>)
   24526:	4621      	mov	r1, r4
   24528:	4632      	mov	r2, r6
   2452a:	4633      	mov	r3, r6
   2452c:	df03      	svc	3
   2452e:	2401      	movs	r4, #1
   24530:	4825      	ldr	r0, [pc, #148]	@ (245c8 <_start+0x44e4>)
   24532:	4621      	mov	r1, r4
   24534:	4632      	mov	r2, r6
   24536:	4633      	mov	r3, r6
   24538:	df04      	svc	4
   2453a:	4e22      	ldr	r6, [pc, #136]	@ (245c4 <_start+0x44e0>)
   2453c:	446e      	add	r6, sp
   2453e:	1df0      	adds	r0, r6, #7
   24540:	4629      	mov	r1, r5
   24542:	9a0c      	ldr	r2, [sp, #48]	@ 0x30
   24544:	f001 fb89 	bl	25c5a <__aeabi_memcpy>
   24548:	980d      	ldr	r0, [sp, #52]	@ 0x34
   2454a:	71b0      	strb	r0, [r6, #6]
   2454c:	980e      	ldr	r0, [sp, #56]	@ 0x38
   2454e:	7170      	strb	r0, [r6, #5]
   24550:	980f      	ldr	r0, [sp, #60]	@ 0x3c
   24552:	7130      	strb	r0, [r6, #4]
   24554:	9810      	ldr	r0, [sp, #64]	@ 0x40
   24556:	70f0      	strb	r0, [r6, #3]
   24558:	9812      	ldr	r0, [sp, #72]	@ 0x48
   2455a:	6f00      	ldr	r0, [r0, #112]	@ 0x70
   2455c:	8030      	strh	r0, [r6, #0]
   2455e:	9816      	ldr	r0, [sp, #88]	@ 0x58
   24560:	7880      	ldrb	r0, [r0, #2]
   24562:	70b0      	strb	r0, [r6, #2]
   24564:	4815      	ldr	r0, [pc, #84]	@ (245bc <_start+0x44d8>)
   24566:	4468      	add	r0, sp
   24568:	211e      	movs	r1, #30
   2456a:	f001 fb29 	bl	25bc0 <__aeabi_memclr4>
   2456e:	4817      	ldr	r0, [pc, #92]	@ (245cc <_start+0x44e8>)
   24570:	2318      	movs	r3, #24
   24572:	9911      	ldr	r1, [sp, #68]	@ 0x44
   24574:	4632      	mov	r2, r6
   24576:	df04      	svc	4
   24578:	2802      	cmp	r0, #2
   2457a:	d00e      	beq.n	2459a <_start+0x44b6>
   2457c:	4813      	ldr	r0, [pc, #76]	@ (245cc <_start+0x44e8>)
   2457e:	2105      	movs	r1, #5
   24580:	4a0e      	ldr	r2, [pc, #56]	@ (245bc <_start+0x44d8>)
   24582:	446a      	add	r2, sp
   24584:	231e      	movs	r3, #30
   24586:	df03      	svc	3
   24588:	2802      	cmp	r0, #2
   2458a:	d006      	beq.n	2459a <_start+0x44b6>
   2458c:	480f      	ldr	r0, [pc, #60]	@ (245cc <_start+0x44e8>)
   2458e:	2109      	movs	r1, #9
   24590:	2205      	movs	r2, #5
   24592:	2300      	movs	r3, #0
   24594:	df02      	svc	2
   24596:	287f      	cmp	r0, #127	@ 0x7f
   24598:	d81a      	bhi.n	245d0 <_start+0x44ec>
   2459a:	9116      	str	r1, [sp, #88]	@ 0x58
   2459c:	4d0b      	ldr	r5, [pc, #44]	@ (245cc <_start+0x44e8>)
   2459e:	2105      	movs	r1, #5
   245a0:	2600      	movs	r6, #0
   245a2:	4628      	mov	r0, r5
   245a4:	4632      	mov	r2, r6
   245a6:	4633      	mov	r3, r6
   245a8:	df03      	svc	3
   245aa:	2109      	movs	r1, #9
   245ac:	4628      	mov	r0, r5
   245ae:	4632      	mov	r2, r6
   245b0:	4633      	mov	r3, r6
   245b2:	df04      	svc	4
   245b4:	f7fb fde8 	bl	20188 <_start+0xa4>
   245b8:	00001cce 	.word	0x00001cce
   245bc:	000006e8 	.word	0x000006e8
   245c0:	000005b8 	.word	0x000005b8
   245c4:	00000684 	.word	0x00000684
   245c8:	00002156 	.word	0x00002156
   245cc:	00000cbb 	.word	0x00000cbb
   245d0:	48a5      	ldr	r0, [pc, #660]	@ (24868 <_start+0x4784>)
   245d2:	2605      	movs	r6, #5
   245d4:	2500      	movs	r5, #0
   245d6:	4631      	mov	r1, r6
   245d8:	462a      	mov	r2, r5
   245da:	462b      	mov	r3, r5
   245dc:	df03      	svc	3
   245de:	48a2      	ldr	r0, [pc, #648]	@ (24868 <_start+0x4784>)
   245e0:	4631      	mov	r1, r6
   245e2:	462a      	mov	r2, r5
   245e4:	462b      	mov	r3, r5
   245e6:	df03      	svc	3
   245e8:	aaff      	add	r2, sp, #1020	@ 0x3fc
   245ea:	325c      	adds	r2, #92	@ 0x5c
   245ec:	9216      	str	r2, [sp, #88]	@ 0x58
   245ee:	9815      	ldr	r0, [sp, #84]	@ 0x54
   245f0:	6e40      	ldr	r0, [r0, #100]	@ 0x64
   245f2:	8010      	strh	r0, [r2, #0]
   245f4:	489d      	ldr	r0, [pc, #628]	@ (2486c <_start+0x4788>)
   245f6:	4468      	add	r0, sp
   245f8:	7881      	ldrb	r1, [r0, #2]
   245fa:	7091      	strb	r1, [r2, #2]
   245fc:	78c1      	ldrb	r1, [r0, #3]
   245fe:	9111      	str	r1, [sp, #68]	@ 0x44
   24600:	7901      	ldrb	r1, [r0, #4]
   24602:	9110      	str	r1, [sp, #64]	@ 0x40
   24604:	7941      	ldrb	r1, [r0, #5]
   24606:	910f      	str	r1, [sp, #60]	@ 0x3c
   24608:	7981      	ldrb	r1, [r0, #6]
   2460a:	910e      	str	r1, [sp, #56]	@ 0x38
   2460c:	1dc1      	adds	r1, r0, #7
   2460e:	a8fa      	add	r0, sp, #1000	@ 0x3e8
   24610:	900d      	str	r0, [sp, #52]	@ 0x34
   24612:	2217      	movs	r2, #23
   24614:	920c      	str	r2, [sp, #48]	@ 0x30
   24616:	f001 fb20 	bl	25c5a <__aeabi_memcpy>
   2461a:	4893      	ldr	r0, [pc, #588]	@ (24868 <_start+0x4784>)
   2461c:	4631      	mov	r1, r6
   2461e:	462a      	mov	r2, r5
   24620:	462b      	mov	r3, r5
   24622:	df03      	svc	3
   24624:	2109      	movs	r1, #9
   24626:	4890      	ldr	r0, [pc, #576]	@ (24868 <_start+0x4784>)
   24628:	462a      	mov	r2, r5
   2462a:	462b      	mov	r3, r5
   2462c:	df04      	svc	4
   2462e:	4d90      	ldr	r5, [pc, #576]	@ (24870 <_start+0x478c>)
   24630:	446d      	add	r5, sp
   24632:	1de8      	adds	r0, r5, #7
   24634:	990d      	ldr	r1, [sp, #52]	@ 0x34
   24636:	9a0c      	ldr	r2, [sp, #48]	@ 0x30
   24638:	f001 fb0f 	bl	25c5a <__aeabi_memcpy>
   2463c:	980e      	ldr	r0, [sp, #56]	@ 0x38
   2463e:	71a8      	strb	r0, [r5, #6]
   24640:	980f      	ldr	r0, [sp, #60]	@ 0x3c
   24642:	7168      	strb	r0, [r5, #5]
   24644:	9810      	ldr	r0, [sp, #64]	@ 0x40
   24646:	7128      	strb	r0, [r5, #4]
   24648:	9811      	ldr	r0, [sp, #68]	@ 0x44
   2464a:	70e8      	strb	r0, [r5, #3]
   2464c:	9812      	ldr	r0, [sp, #72]	@ 0x48
   2464e:	6f40      	ldr	r0, [r0, #116]	@ 0x74
   24650:	8028      	strh	r0, [r5, #0]
   24652:	9816      	ldr	r0, [sp, #88]	@ 0x58
   24654:	7880      	ldrb	r0, [r0, #2]
   24656:	70a8      	strb	r0, [r5, #2]
   24658:	4884      	ldr	r0, [pc, #528]	@ (2486c <_start+0x4788>)
   2465a:	4468      	add	r0, sp
   2465c:	213c      	movs	r1, #60	@ 0x3c
   2465e:	f001 faaf 	bl	25bc0 <__aeabi_memclr4>
   24662:	4884      	ldr	r0, [pc, #528]	@ (24874 <_start+0x4790>)
   24664:	2102      	movs	r1, #2
   24666:	231e      	movs	r3, #30
   24668:	462a      	mov	r2, r5
   2466a:	df04      	svc	4
   2466c:	2802      	cmp	r0, #2
   2466e:	d00e      	beq.n	2468e <_start+0x45aa>
   24670:	4880      	ldr	r0, [pc, #512]	@ (24874 <_start+0x4790>)
   24672:	2103      	movs	r1, #3
   24674:	4a7d      	ldr	r2, [pc, #500]	@ (2486c <_start+0x4788>)
   24676:	446a      	add	r2, sp
   24678:	233c      	movs	r3, #60	@ 0x3c
   2467a:	df03      	svc	3
   2467c:	2802      	cmp	r0, #2
   2467e:	d006      	beq.n	2468e <_start+0x45aa>
   24680:	487c      	ldr	r0, [pc, #496]	@ (24874 <_start+0x4790>)
   24682:	2102      	movs	r1, #2
   24684:	2203      	movs	r2, #3
   24686:	2300      	movs	r3, #0
   24688:	df02      	svc	2
   2468a:	287f      	cmp	r0, #127	@ 0x7f
   2468c:	d80e      	bhi.n	246ac <_start+0x45c8>
   2468e:	9116      	str	r1, [sp, #88]	@ 0x58
   24690:	4d78      	ldr	r5, [pc, #480]	@ (24874 <_start+0x4790>)
   24692:	2103      	movs	r1, #3
   24694:	2600      	movs	r6, #0
   24696:	4628      	mov	r0, r5
   24698:	4632      	mov	r2, r6
   2469a:	4633      	mov	r3, r6
   2469c:	df03      	svc	3
   2469e:	2102      	movs	r1, #2
   246a0:	4628      	mov	r0, r5
   246a2:	4632      	mov	r2, r6
   246a4:	4633      	mov	r3, r6
   246a6:	df04      	svc	4
   246a8:	f7fb fd6e 	bl	20188 <_start+0xa4>
   246ac:	4871      	ldr	r0, [pc, #452]	@ (24874 <_start+0x4790>)
   246ae:	2603      	movs	r6, #3
   246b0:	2500      	movs	r5, #0
   246b2:	4631      	mov	r1, r6
   246b4:	462a      	mov	r2, r5
   246b6:	462b      	mov	r3, r5
   246b8:	df03      	svc	3
   246ba:	486e      	ldr	r0, [pc, #440]	@ (24874 <_start+0x4790>)
   246bc:	4631      	mov	r1, r6
   246be:	462a      	mov	r2, r5
   246c0:	462b      	mov	r3, r5
   246c2:	df03      	svc	3
   246c4:	aaff      	add	r2, sp, #1020	@ 0x3fc
   246c6:	3260      	adds	r2, #96	@ 0x60
   246c8:	9216      	str	r2, [sp, #88]	@ 0x58
   246ca:	9815      	ldr	r0, [sp, #84]	@ 0x54
   246cc:	6e40      	ldr	r0, [r0, #100]	@ 0x64
   246ce:	8010      	strh	r0, [r2, #0]
   246d0:	4866      	ldr	r0, [pc, #408]	@ (2486c <_start+0x4788>)
   246d2:	4468      	add	r0, sp
   246d4:	7881      	ldrb	r1, [r0, #2]
   246d6:	7091      	strb	r1, [r2, #2]
   246d8:	78c1      	ldrb	r1, [r0, #3]
   246da:	9111      	str	r1, [sp, #68]	@ 0x44
   246dc:	7901      	ldrb	r1, [r0, #4]
   246de:	9110      	str	r1, [sp, #64]	@ 0x40
   246e0:	7941      	ldrb	r1, [r0, #5]
   246e2:	910f      	str	r1, [sp, #60]	@ 0x3c
   246e4:	7981      	ldrb	r1, [r0, #6]
   246e6:	910e      	str	r1, [sp, #56]	@ 0x38
   246e8:	1dc1      	adds	r1, r0, #7
   246ea:	4863      	ldr	r0, [pc, #396]	@ (24878 <_start+0x4794>)
   246ec:	4468      	add	r0, sp
   246ee:	900d      	str	r0, [sp, #52]	@ 0x34
   246f0:	2235      	movs	r2, #53	@ 0x35
   246f2:	920c      	str	r2, [sp, #48]	@ 0x30
   246f4:	f001 fab1 	bl	25c5a <__aeabi_memcpy>
   246f8:	485e      	ldr	r0, [pc, #376]	@ (24874 <_start+0x4790>)
   246fa:	4631      	mov	r1, r6
   246fc:	462a      	mov	r2, r5
   246fe:	462b      	mov	r3, r5
   24700:	df03      	svc	3
   24702:	2102      	movs	r1, #2
   24704:	485b      	ldr	r0, [pc, #364]	@ (24874 <_start+0x4790>)
   24706:	462a      	mov	r2, r5
   24708:	462b      	mov	r3, r5
   2470a:	df04      	svc	4
   2470c:	4d57      	ldr	r5, [pc, #348]	@ (2486c <_start+0x4788>)
   2470e:	446d      	add	r5, sp
   24710:	1de8      	adds	r0, r5, #7
   24712:	990d      	ldr	r1, [sp, #52]	@ 0x34
   24714:	9a0c      	ldr	r2, [sp, #48]	@ 0x30
   24716:	f001 faa0 	bl	25c5a <__aeabi_memcpy>
   2471a:	980e      	ldr	r0, [sp, #56]	@ 0x38
   2471c:	71a8      	strb	r0, [r5, #6]
   2471e:	980f      	ldr	r0, [sp, #60]	@ 0x3c
   24720:	7168      	strb	r0, [r5, #5]
   24722:	9810      	ldr	r0, [sp, #64]	@ 0x40
   24724:	7128      	strb	r0, [r5, #4]
   24726:	9811      	ldr	r0, [sp, #68]	@ 0x44
   24728:	70e8      	strb	r0, [r5, #3]
   2472a:	9812      	ldr	r0, [sp, #72]	@ 0x48
   2472c:	6f80      	ldr	r0, [r0, #120]	@ 0x78
   2472e:	8028      	strh	r0, [r5, #0]
   24730:	9816      	ldr	r0, [sp, #88]	@ 0x58
   24732:	7880      	ldrb	r0, [r0, #2]
   24734:	70a8      	strb	r0, [r5, #2]
   24736:	4850      	ldr	r0, [pc, #320]	@ (24878 <_start+0x4794>)
   24738:	4468      	add	r0, sp
   2473a:	212c      	movs	r1, #44	@ 0x2c
   2473c:	f001 fa40 	bl	25bc0 <__aeabi_memclr4>
   24740:	484e      	ldr	r0, [pc, #312]	@ (2487c <_start+0x4798>)
   24742:	2105      	movs	r1, #5
   24744:	233c      	movs	r3, #60	@ 0x3c
   24746:	462a      	mov	r2, r5
   24748:	df04      	svc	4
   2474a:	2802      	cmp	r0, #2
   2474c:	d00e      	beq.n	2476c <_start+0x4688>
   2474e:	484b      	ldr	r0, [pc, #300]	@ (2487c <_start+0x4798>)
   24750:	2107      	movs	r1, #7
   24752:	4a49      	ldr	r2, [pc, #292]	@ (24878 <_start+0x4794>)
   24754:	446a      	add	r2, sp
   24756:	232c      	movs	r3, #44	@ 0x2c
   24758:	df03      	svc	3
   2475a:	2802      	cmp	r0, #2
   2475c:	d006      	beq.n	2476c <_start+0x4688>
   2475e:	4847      	ldr	r0, [pc, #284]	@ (2487c <_start+0x4798>)
   24760:	2105      	movs	r1, #5
   24762:	2207      	movs	r2, #7
   24764:	2300      	movs	r3, #0
   24766:	df02      	svc	2
   24768:	287f      	cmp	r0, #127	@ 0x7f
   2476a:	d80e      	bhi.n	2478a <_start+0x46a6>
   2476c:	9116      	str	r1, [sp, #88]	@ 0x58
   2476e:	4d43      	ldr	r5, [pc, #268]	@ (2487c <_start+0x4798>)
   24770:	2107      	movs	r1, #7
   24772:	2600      	movs	r6, #0
   24774:	4628      	mov	r0, r5
   24776:	4632      	mov	r2, r6
   24778:	4633      	mov	r3, r6
   2477a:	df03      	svc	3
   2477c:	2105      	movs	r1, #5
   2477e:	4628      	mov	r0, r5
   24780:	4632      	mov	r2, r6
   24782:	4633      	mov	r3, r6
   24784:	df04      	svc	4
   24786:	f7fb fcff 	bl	20188 <_start+0xa4>
   2478a:	483c      	ldr	r0, [pc, #240]	@ (2487c <_start+0x4798>)
   2478c:	2607      	movs	r6, #7
   2478e:	2500      	movs	r5, #0
   24790:	4631      	mov	r1, r6
   24792:	462a      	mov	r2, r5
   24794:	462b      	mov	r3, r5
   24796:	df03      	svc	3
   24798:	4838      	ldr	r0, [pc, #224]	@ (2487c <_start+0x4798>)
   2479a:	4631      	mov	r1, r6
   2479c:	462a      	mov	r2, r5
   2479e:	462b      	mov	r3, r5
   247a0:	df03      	svc	3
   247a2:	aaff      	add	r2, sp, #1020	@ 0x3fc
   247a4:	3264      	adds	r2, #100	@ 0x64
   247a6:	9216      	str	r2, [sp, #88]	@ 0x58
   247a8:	9815      	ldr	r0, [sp, #84]	@ 0x54
   247aa:	6800      	ldr	r0, [r0, #0]
   247ac:	8010      	strh	r0, [r2, #0]
   247ae:	4832      	ldr	r0, [pc, #200]	@ (24878 <_start+0x4794>)
   247b0:	4468      	add	r0, sp
   247b2:	7881      	ldrb	r1, [r0, #2]
   247b4:	7091      	strb	r1, [r2, #2]
   247b6:	78c1      	ldrb	r1, [r0, #3]
   247b8:	9111      	str	r1, [sp, #68]	@ 0x44
   247ba:	7901      	ldrb	r1, [r0, #4]
   247bc:	9110      	str	r1, [sp, #64]	@ 0x40
   247be:	7941      	ldrb	r1, [r0, #5]
   247c0:	910f      	str	r1, [sp, #60]	@ 0x3c
   247c2:	7981      	ldrb	r1, [r0, #6]
   247c4:	910e      	str	r1, [sp, #56]	@ 0x38
   247c6:	1dc1      	adds	r1, r0, #7
   247c8:	4829      	ldr	r0, [pc, #164]	@ (24870 <_start+0x478c>)
   247ca:	4468      	add	r0, sp
   247cc:	900d      	str	r0, [sp, #52]	@ 0x34
   247ce:	2225      	movs	r2, #37	@ 0x25
   247d0:	920c      	str	r2, [sp, #48]	@ 0x30
   247d2:	f001 fa42 	bl	25c5a <__aeabi_memcpy>
   247d6:	4829      	ldr	r0, [pc, #164]	@ (2487c <_start+0x4798>)
   247d8:	4631      	mov	r1, r6
   247da:	462a      	mov	r2, r5
   247dc:	462b      	mov	r3, r5
   247de:	df03      	svc	3
   247e0:	2105      	movs	r1, #5
   247e2:	4826      	ldr	r0, [pc, #152]	@ (2487c <_start+0x4798>)
   247e4:	462a      	mov	r2, r5
   247e6:	462b      	mov	r3, r5
   247e8:	df04      	svc	4
   247ea:	4d20      	ldr	r5, [pc, #128]	@ (2486c <_start+0x4788>)
   247ec:	446d      	add	r5, sp
   247ee:	1de8      	adds	r0, r5, #7
   247f0:	990d      	ldr	r1, [sp, #52]	@ 0x34
   247f2:	9a0c      	ldr	r2, [sp, #48]	@ 0x30
   247f4:	f001 fa31 	bl	25c5a <__aeabi_memcpy>
   247f8:	980e      	ldr	r0, [sp, #56]	@ 0x38
   247fa:	71a8      	strb	r0, [r5, #6]
   247fc:	980f      	ldr	r0, [sp, #60]	@ 0x3c
   247fe:	7168      	strb	r0, [r5, #5]
   24800:	9810      	ldr	r0, [sp, #64]	@ 0x40
   24802:	7128      	strb	r0, [r5, #4]
   24804:	9811      	ldr	r0, [sp, #68]	@ 0x44
   24806:	70e8      	strb	r0, [r5, #3]
   24808:	9812      	ldr	r0, [sp, #72]	@ 0x48
   2480a:	6fc0      	ldr	r0, [r0, #124]	@ 0x7c
   2480c:	8028      	strh	r0, [r5, #0]
   2480e:	9816      	ldr	r0, [sp, #88]	@ 0x58
   24810:	7880      	ldrb	r0, [r0, #2]
   24812:	70a8      	strb	r0, [r5, #2]
   24814:	4818      	ldr	r0, [pc, #96]	@ (24878 <_start+0x4794>)
   24816:	4468      	add	r0, sp
   24818:	2127      	movs	r1, #39	@ 0x27
   2481a:	f001 f9d1 	bl	25bc0 <__aeabi_memclr4>
   2481e:	4818      	ldr	r0, [pc, #96]	@ (24880 <_start+0x479c>)
   24820:	2104      	movs	r1, #4
   24822:	232c      	movs	r3, #44	@ 0x2c
   24824:	462a      	mov	r2, r5
   24826:	df04      	svc	4
   24828:	2802      	cmp	r0, #2
   2482a:	d00e      	beq.n	2484a <_start+0x4766>
   2482c:	4814      	ldr	r0, [pc, #80]	@ (24880 <_start+0x479c>)
   2482e:	2103      	movs	r1, #3
   24830:	4a11      	ldr	r2, [pc, #68]	@ (24878 <_start+0x4794>)
   24832:	446a      	add	r2, sp
   24834:	2327      	movs	r3, #39	@ 0x27
   24836:	df03      	svc	3
   24838:	2802      	cmp	r0, #2
   2483a:	d006      	beq.n	2484a <_start+0x4766>
   2483c:	4810      	ldr	r0, [pc, #64]	@ (24880 <_start+0x479c>)
   2483e:	2104      	movs	r1, #4
   24840:	2203      	movs	r2, #3
   24842:	2300      	movs	r3, #0
   24844:	df02      	svc	2
   24846:	287f      	cmp	r0, #127	@ 0x7f
   24848:	d81c      	bhi.n	24884 <_start+0x47a0>
   2484a:	9116      	str	r1, [sp, #88]	@ 0x58
   2484c:	4d0c      	ldr	r5, [pc, #48]	@ (24880 <_start+0x479c>)
   2484e:	2103      	movs	r1, #3
   24850:	2600      	movs	r6, #0
   24852:	4628      	mov	r0, r5
   24854:	4632      	mov	r2, r6
   24856:	4633      	mov	r3, r6
   24858:	df03      	svc	3
   2485a:	2104      	movs	r1, #4
   2485c:	4628      	mov	r0, r5
   2485e:	4632      	mov	r2, r6
   24860:	4633      	mov	r3, r6
   24862:	df04      	svc	4
   24864:	f7fb fc90 	bl	20188 <_start+0xa4>
   24868:	00000cbb 	.word	0x00000cbb
   2486c:	000006e8 	.word	0x000006e8
   24870:	000005b8 	.word	0x000005b8
   24874:	00000b3c 	.word	0x00000b3c
   24878:	00000684 	.word	0x00000684
   2487c:	00001eac 	.word	0x00001eac
   24880:	000011b5 	.word	0x000011b5
   24884:	48a5      	ldr	r0, [pc, #660]	@ (24b1c <_start+0x4a38>)
   24886:	2603      	movs	r6, #3
   24888:	2500      	movs	r5, #0
   2488a:	4631      	mov	r1, r6
   2488c:	462a      	mov	r2, r5
   2488e:	462b      	mov	r3, r5
   24890:	df03      	svc	3
   24892:	48a2      	ldr	r0, [pc, #648]	@ (24b1c <_start+0x4a38>)
   24894:	4631      	mov	r1, r6
   24896:	462a      	mov	r2, r5
   24898:	462b      	mov	r3, r5
   2489a:	df03      	svc	3
   2489c:	aaff      	add	r2, sp, #1020	@ 0x3fc
   2489e:	3288      	adds	r2, #136	@ 0x88
   248a0:	9216      	str	r2, [sp, #88]	@ 0x58
   248a2:	9815      	ldr	r0, [sp, #84]	@ 0x54
   248a4:	6800      	ldr	r0, [r0, #0]
   248a6:	8010      	strh	r0, [r2, #0]
   248a8:	489d      	ldr	r0, [pc, #628]	@ (24b20 <_start+0x4a3c>)
   248aa:	4468      	add	r0, sp
   248ac:	7881      	ldrb	r1, [r0, #2]
   248ae:	7091      	strb	r1, [r2, #2]
   248b0:	78c1      	ldrb	r1, [r0, #3]
   248b2:	9112      	str	r1, [sp, #72]	@ 0x48
   248b4:	7901      	ldrb	r1, [r0, #4]
   248b6:	910f      	str	r1, [sp, #60]	@ 0x3c
   248b8:	7941      	ldrb	r1, [r0, #5]
   248ba:	910e      	str	r1, [sp, #56]	@ 0x38
   248bc:	7981      	ldrb	r1, [r0, #6]
   248be:	910d      	str	r1, [sp, #52]	@ 0x34
   248c0:	1dc1      	adds	r1, r0, #7
   248c2:	a8ff      	add	r0, sp, #1020	@ 0x3fc
   248c4:	3068      	adds	r0, #104	@ 0x68
   248c6:	9011      	str	r0, [sp, #68]	@ 0x44
   248c8:	2220      	movs	r2, #32
   248ca:	9210      	str	r2, [sp, #64]	@ 0x40
   248cc:	f001 f9c5 	bl	25c5a <__aeabi_memcpy>
   248d0:	4892      	ldr	r0, [pc, #584]	@ (24b1c <_start+0x4a38>)
   248d2:	4631      	mov	r1, r6
   248d4:	462a      	mov	r2, r5
   248d6:	462b      	mov	r3, r5
   248d8:	df03      	svc	3
   248da:	2104      	movs	r1, #4
   248dc:	488f      	ldr	r0, [pc, #572]	@ (24b1c <_start+0x4a38>)
   248de:	462a      	mov	r2, r5
   248e0:	462b      	mov	r3, r5
   248e2:	df04      	svc	4
   248e4:	4d8e      	ldr	r5, [pc, #568]	@ (24b20 <_start+0x4a3c>)
   248e6:	446d      	add	r5, sp
   248e8:	980d      	ldr	r0, [sp, #52]	@ 0x34
   248ea:	71a8      	strb	r0, [r5, #6]
   248ec:	980e      	ldr	r0, [sp, #56]	@ 0x38
   248ee:	7168      	strb	r0, [r5, #5]
   248f0:	980f      	ldr	r0, [sp, #60]	@ 0x3c
   248f2:	7128      	strb	r0, [r5, #4]
   248f4:	9812      	ldr	r0, [sp, #72]	@ 0x48
   248f6:	70e8      	strb	r0, [r5, #3]
   248f8:	9816      	ldr	r0, [sp, #88]	@ 0x58
   248fa:	7880      	ldrb	r0, [r0, #2]
   248fc:	70a8      	strb	r0, [r5, #2]
   248fe:	9813      	ldr	r0, [sp, #76]	@ 0x4c
   24900:	6800      	ldr	r0, [r0, #0]
   24902:	8028      	strh	r0, [r5, #0]
   24904:	1de8      	adds	r0, r5, #7
   24906:	9911      	ldr	r1, [sp, #68]	@ 0x44
   24908:	9a10      	ldr	r2, [sp, #64]	@ 0x40
   2490a:	f001 f9a6 	bl	25c5a <__aeabi_memcpy>
   2490e:	4885      	ldr	r0, [pc, #532]	@ (24b24 <_start+0x4a40>)
   24910:	4468      	add	r0, sp
   24912:	214f      	movs	r1, #79	@ 0x4f
   24914:	f001 f954 	bl	25bc0 <__aeabi_memclr4>
   24918:	4883      	ldr	r0, [pc, #524]	@ (24b28 <_start+0x4a44>)
   2491a:	2109      	movs	r1, #9
   2491c:	2327      	movs	r3, #39	@ 0x27
   2491e:	462a      	mov	r2, r5
   24920:	df04      	svc	4
   24922:	2802      	cmp	r0, #2
   24924:	d00e      	beq.n	24944 <_start+0x4860>
   24926:	4880      	ldr	r0, [pc, #512]	@ (24b28 <_start+0x4a44>)
   24928:	2100      	movs	r1, #0
   2492a:	4a7e      	ldr	r2, [pc, #504]	@ (24b24 <_start+0x4a40>)
   2492c:	446a      	add	r2, sp
   2492e:	234f      	movs	r3, #79	@ 0x4f
   24930:	df03      	svc	3
   24932:	2802      	cmp	r0, #2
   24934:	d006      	beq.n	24944 <_start+0x4860>
   24936:	487c      	ldr	r0, [pc, #496]	@ (24b28 <_start+0x4a44>)
   24938:	2109      	movs	r1, #9
   2493a:	2200      	movs	r2, #0
   2493c:	4613      	mov	r3, r2
   2493e:	df02      	svc	2
   24940:	287f      	cmp	r0, #127	@ 0x7f
   24942:	d80e      	bhi.n	24962 <_start+0x487e>
   24944:	9116      	str	r1, [sp, #88]	@ 0x58
   24946:	4d78      	ldr	r5, [pc, #480]	@ (24b28 <_start+0x4a44>)
   24948:	2600      	movs	r6, #0
   2494a:	4628      	mov	r0, r5
   2494c:	4631      	mov	r1, r6
   2494e:	4632      	mov	r2, r6
   24950:	4633      	mov	r3, r6
   24952:	df03      	svc	3
   24954:	2109      	movs	r1, #9
   24956:	4628      	mov	r0, r5
   24958:	4632      	mov	r2, r6
   2495a:	4633      	mov	r3, r6
   2495c:	df04      	svc	4
   2495e:	f7fb fc13 	bl	20188 <_start+0xa4>
   24962:	4e71      	ldr	r6, [pc, #452]	@ (24b28 <_start+0x4a44>)
   24964:	2500      	movs	r5, #0
   24966:	4630      	mov	r0, r6
   24968:	4629      	mov	r1, r5
   2496a:	462a      	mov	r2, r5
   2496c:	462b      	mov	r3, r5
   2496e:	df03      	svc	3
   24970:	4630      	mov	r0, r6
   24972:	4629      	mov	r1, r5
   24974:	462a      	mov	r2, r5
   24976:	462b      	mov	r3, r5
   24978:	df03      	svc	3
   2497a:	aeff      	add	r6, sp, #1020	@ 0x3fc
   2497c:	36d4      	adds	r6, #212	@ 0xd4
   2497e:	9815      	ldr	r0, [sp, #84]	@ 0x54
   24980:	6e40      	ldr	r0, [r0, #100]	@ 0x64
   24982:	8030      	strh	r0, [r6, #0]
   24984:	4867      	ldr	r0, [pc, #412]	@ (24b24 <_start+0x4a40>)
   24986:	4468      	add	r0, sp
   24988:	7881      	ldrb	r1, [r0, #2]
   2498a:	70b1      	strb	r1, [r6, #2]
   2498c:	78c1      	ldrb	r1, [r0, #3]
   2498e:	9116      	str	r1, [sp, #88]	@ 0x58
   24990:	7901      	ldrb	r1, [r0, #4]
   24992:	9110      	str	r1, [sp, #64]	@ 0x40
   24994:	7941      	ldrb	r1, [r0, #5]
   24996:	910f      	str	r1, [sp, #60]	@ 0x3c
   24998:	7981      	ldrb	r1, [r0, #6]
   2499a:	910e      	str	r1, [sp, #56]	@ 0x38
   2499c:	1dc1      	adds	r1, r0, #7
   2499e:	a8ff      	add	r0, sp, #1020	@ 0x3fc
   249a0:	308c      	adds	r0, #140	@ 0x8c
   249a2:	9012      	str	r0, [sp, #72]	@ 0x48
   249a4:	2248      	movs	r2, #72	@ 0x48
   249a6:	9211      	str	r2, [sp, #68]	@ 0x44
   249a8:	f001 f957 	bl	25c5a <__aeabi_memcpy>
   249ac:	485e      	ldr	r0, [pc, #376]	@ (24b28 <_start+0x4a44>)
   249ae:	4629      	mov	r1, r5
   249b0:	462a      	mov	r2, r5
   249b2:	462b      	mov	r3, r5
   249b4:	df03      	svc	3
   249b6:	2109      	movs	r1, #9
   249b8:	485b      	ldr	r0, [pc, #364]	@ (24b28 <_start+0x4a44>)
   249ba:	462a      	mov	r2, r5
   249bc:	462b      	mov	r3, r5
   249be:	df04      	svc	4
   249c0:	4d58      	ldr	r5, [pc, #352]	@ (24b24 <_start+0x4a40>)
   249c2:	446d      	add	r5, sp
   249c4:	980e      	ldr	r0, [sp, #56]	@ 0x38
   249c6:	71a8      	strb	r0, [r5, #6]
   249c8:	980f      	ldr	r0, [sp, #60]	@ 0x3c
   249ca:	7168      	strb	r0, [r5, #5]
   249cc:	9810      	ldr	r0, [sp, #64]	@ 0x40
   249ce:	7128      	strb	r0, [r5, #4]
   249d0:	9816      	ldr	r0, [sp, #88]	@ 0x58
   249d2:	70e8      	strb	r0, [r5, #3]
   249d4:	78b0      	ldrb	r0, [r6, #2]
   249d6:	70a8      	strb	r0, [r5, #2]
   249d8:	9813      	ldr	r0, [sp, #76]	@ 0x4c
   249da:	6cc0      	ldr	r0, [r0, #76]	@ 0x4c
   249dc:	8028      	strh	r0, [r5, #0]
   249de:	1de8      	adds	r0, r5, #7
   249e0:	9912      	ldr	r1, [sp, #72]	@ 0x48
   249e2:	9a11      	ldr	r2, [sp, #68]	@ 0x44
   249e4:	f001 f939 	bl	25c5a <__aeabi_memcpy>
   249e8:	484d      	ldr	r0, [pc, #308]	@ (24b20 <_start+0x4a3c>)
   249ea:	4468      	add	r0, sp
   249ec:	2135      	movs	r1, #53	@ 0x35
   249ee:	f001 f8e7 	bl	25bc0 <__aeabi_memclr4>
   249f2:	484e      	ldr	r0, [pc, #312]	@ (24b2c <_start+0x4a48>)
   249f4:	2107      	movs	r1, #7
   249f6:	234f      	movs	r3, #79	@ 0x4f
   249f8:	462a      	mov	r2, r5
   249fa:	df04      	svc	4
   249fc:	2802      	cmp	r0, #2
   249fe:	d00e      	beq.n	24a1e <_start+0x493a>
   24a00:	484a      	ldr	r0, [pc, #296]	@ (24b2c <_start+0x4a48>)
   24a02:	2101      	movs	r1, #1
   24a04:	4a46      	ldr	r2, [pc, #280]	@ (24b20 <_start+0x4a3c>)
   24a06:	446a      	add	r2, sp
   24a08:	2335      	movs	r3, #53	@ 0x35
   24a0a:	df03      	svc	3
   24a0c:	2802      	cmp	r0, #2
   24a0e:	d006      	beq.n	24a1e <_start+0x493a>
   24a10:	4846      	ldr	r0, [pc, #280]	@ (24b2c <_start+0x4a48>)
   24a12:	2107      	movs	r1, #7
   24a14:	2201      	movs	r2, #1
   24a16:	2300      	movs	r3, #0
   24a18:	df02      	svc	2
   24a1a:	287f      	cmp	r0, #127	@ 0x7f
   24a1c:	d80e      	bhi.n	24a3c <_start+0x4958>
   24a1e:	9116      	str	r1, [sp, #88]	@ 0x58
   24a20:	4d42      	ldr	r5, [pc, #264]	@ (24b2c <_start+0x4a48>)
   24a22:	2600      	movs	r6, #0
   24a24:	4628      	mov	r0, r5
   24a26:	4621      	mov	r1, r4
   24a28:	4632      	mov	r2, r6
   24a2a:	4633      	mov	r3, r6
   24a2c:	df03      	svc	3
   24a2e:	2107      	movs	r1, #7
   24a30:	4628      	mov	r0, r5
   24a32:	4632      	mov	r2, r6
   24a34:	4633      	mov	r3, r6
   24a36:	df04      	svc	4
   24a38:	f7fb fba6 	bl	20188 <_start+0xa4>
   24a3c:	4e3b      	ldr	r6, [pc, #236]	@ (24b2c <_start+0x4a48>)
   24a3e:	2401      	movs	r4, #1
   24a40:	2500      	movs	r5, #0
   24a42:	4630      	mov	r0, r6
   24a44:	4621      	mov	r1, r4
   24a46:	462a      	mov	r2, r5
   24a48:	462b      	mov	r3, r5
   24a4a:	df03      	svc	3
   24a4c:	4630      	mov	r0, r6
   24a4e:	4621      	mov	r1, r4
   24a50:	462a      	mov	r2, r5
   24a52:	462b      	mov	r3, r5
   24a54:	df03      	svc	3
   24a56:	aaff      	add	r2, sp, #1020	@ 0x3fc
   24a58:	32d8      	adds	r2, #216	@ 0xd8
   24a5a:	9216      	str	r2, [sp, #88]	@ 0x58
   24a5c:	9815      	ldr	r0, [sp, #84]	@ 0x54
   24a5e:	6800      	ldr	r0, [r0, #0]
   24a60:	8010      	strh	r0, [r2, #0]
   24a62:	482f      	ldr	r0, [pc, #188]	@ (24b20 <_start+0x4a3c>)
   24a64:	4468      	add	r0, sp
   24a66:	7881      	ldrb	r1, [r0, #2]
   24a68:	7091      	strb	r1, [r2, #2]
   24a6a:	78c1      	ldrb	r1, [r0, #3]
   24a6c:	9112      	str	r1, [sp, #72]	@ 0x48
   24a6e:	7901      	ldrb	r1, [r0, #4]
   24a70:	9111      	str	r1, [sp, #68]	@ 0x44
   24a72:	7941      	ldrb	r1, [r0, #5]
   24a74:	9110      	str	r1, [sp, #64]	@ 0x40
   24a76:	7981      	ldrb	r1, [r0, #6]
   24a78:	910f      	str	r1, [sp, #60]	@ 0x3c
   24a7a:	1dc1      	adds	r1, r0, #7
   24a7c:	482c      	ldr	r0, [pc, #176]	@ (24b30 <_start+0x4a4c>)
   24a7e:	4468      	add	r0, sp
   24a80:	900e      	str	r0, [sp, #56]	@ 0x38
   24a82:	222e      	movs	r2, #46	@ 0x2e
   24a84:	920d      	str	r2, [sp, #52]	@ 0x34
   24a86:	f001 f8e8 	bl	25c5a <__aeabi_memcpy>
   24a8a:	4630      	mov	r0, r6
   24a8c:	4621      	mov	r1, r4
   24a8e:	462a      	mov	r2, r5
   24a90:	462b      	mov	r3, r5
   24a92:	df03      	svc	3
   24a94:	2107      	movs	r1, #7
   24a96:	4630      	mov	r0, r6
   24a98:	462a      	mov	r2, r5
   24a9a:	462b      	mov	r3, r5
   24a9c:	df04      	svc	4
   24a9e:	4e20      	ldr	r6, [pc, #128]	@ (24b20 <_start+0x4a3c>)
   24aa0:	446e      	add	r6, sp
   24aa2:	1df0      	adds	r0, r6, #7
   24aa4:	990e      	ldr	r1, [sp, #56]	@ 0x38
   24aa6:	9a0d      	ldr	r2, [sp, #52]	@ 0x34
   24aa8:	f001 f8d7 	bl	25c5a <__aeabi_memcpy>
   24aac:	980f      	ldr	r0, [sp, #60]	@ 0x3c
   24aae:	71b0      	strb	r0, [r6, #6]
   24ab0:	9810      	ldr	r0, [sp, #64]	@ 0x40
   24ab2:	7170      	strb	r0, [r6, #5]
   24ab4:	9811      	ldr	r0, [sp, #68]	@ 0x44
   24ab6:	7130      	strb	r0, [r6, #4]
   24ab8:	9812      	ldr	r0, [sp, #72]	@ 0x48
   24aba:	70f0      	strb	r0, [r6, #3]
   24abc:	9813      	ldr	r0, [sp, #76]	@ 0x4c
   24abe:	6d00      	ldr	r0, [r0, #80]	@ 0x50
   24ac0:	8030      	strh	r0, [r6, #0]
   24ac2:	9816      	ldr	r0, [sp, #88]	@ 0x58
   24ac4:	7880      	ldrb	r0, [r0, #2]
   24ac6:	70b0      	strb	r0, [r6, #2]
   24ac8:	4816      	ldr	r0, [pc, #88]	@ (24b24 <_start+0x4a40>)
   24aca:	4468      	add	r0, sp
   24acc:	213f      	movs	r1, #63	@ 0x3f
   24ace:	f001 f877 	bl	25bc0 <__aeabi_memclr4>
   24ad2:	4818      	ldr	r0, [pc, #96]	@ (24b34 <_start+0x4a50>)
   24ad4:	2335      	movs	r3, #53	@ 0x35
   24ad6:	4629      	mov	r1, r5
   24ad8:	4632      	mov	r2, r6
   24ada:	df04      	svc	4
   24adc:	2802      	cmp	r0, #2
   24ade:	d00e      	beq.n	24afe <_start+0x4a1a>
   24ae0:	4814      	ldr	r0, [pc, #80]	@ (24b34 <_start+0x4a50>)
   24ae2:	2103      	movs	r1, #3
   24ae4:	4a0f      	ldr	r2, [pc, #60]	@ (24b24 <_start+0x4a40>)
   24ae6:	446a      	add	r2, sp
   24ae8:	233f      	movs	r3, #63	@ 0x3f
   24aea:	df03      	svc	3
   24aec:	2802      	cmp	r0, #2
   24aee:	d006      	beq.n	24afe <_start+0x4a1a>
   24af0:	4810      	ldr	r0, [pc, #64]	@ (24b34 <_start+0x4a50>)
   24af2:	2203      	movs	r2, #3
   24af4:	2100      	movs	r1, #0
   24af6:	460b      	mov	r3, r1
   24af8:	df02      	svc	2
   24afa:	287f      	cmp	r0, #127	@ 0x7f
   24afc:	d81c      	bhi.n	24b38 <_start+0x4a54>
   24afe:	9116      	str	r1, [sp, #88]	@ 0x58
   24b00:	4d0c      	ldr	r5, [pc, #48]	@ (24b34 <_start+0x4a50>)
   24b02:	2103      	movs	r1, #3
   24b04:	2600      	movs	r6, #0
   24b06:	4628      	mov	r0, r5
   24b08:	4632      	mov	r2, r6
   24b0a:	4633      	mov	r3, r6
   24b0c:	df03      	svc	3
   24b0e:	4628      	mov	r0, r5
   24b10:	4631      	mov	r1, r6
   24b12:	4632      	mov	r2, r6
   24b14:	4633      	mov	r3, r6
   24b16:	df04      	svc	4
   24b18:	f7fb fb36 	bl	20188 <_start+0xa4>
   24b1c:	000011b5 	.word	0x000011b5
   24b20:	00000684 	.word	0x00000684
   24b24:	000006e8 	.word	0x000006e8
   24b28:	00000b4c 	.word	0x00000b4c
   24b2c:	000016d7 	.word	0x000016d7
   24b30:	000005b8 	.word	0x000005b8
   24b34:	00000e57 	.word	0x00000e57
   24b38:	48a8      	ldr	r0, [pc, #672]	@ (24ddc <_start+0x4cf8>)
   24b3a:	2603      	movs	r6, #3
   24b3c:	2500      	movs	r5, #0
   24b3e:	4631      	mov	r1, r6
   24b40:	462a      	mov	r2, r5
   24b42:	462b      	mov	r3, r5
   24b44:	df03      	svc	3
   24b46:	48a5      	ldr	r0, [pc, #660]	@ (24ddc <_start+0x4cf8>)
   24b48:	4631      	mov	r1, r6
   24b4a:	462a      	mov	r2, r5
   24b4c:	462b      	mov	r3, r5
   24b4e:	df03      	svc	3
   24b50:	4aa3      	ldr	r2, [pc, #652]	@ (24de0 <_start+0x4cfc>)
   24b52:	446a      	add	r2, sp
   24b54:	9216      	str	r2, [sp, #88]	@ 0x58
   24b56:	9815      	ldr	r0, [sp, #84]	@ 0x54
   24b58:	6e40      	ldr	r0, [r0, #100]	@ 0x64
   24b5a:	8010      	strh	r0, [r2, #0]
   24b5c:	48a1      	ldr	r0, [pc, #644]	@ (24de4 <_start+0x4d00>)
   24b5e:	4468      	add	r0, sp
   24b60:	7881      	ldrb	r1, [r0, #2]
   24b62:	7091      	strb	r1, [r2, #2]
   24b64:	78c1      	ldrb	r1, [r0, #3]
   24b66:	9113      	str	r1, [sp, #76]	@ 0x4c
   24b68:	7901      	ldrb	r1, [r0, #4]
   24b6a:	9110      	str	r1, [sp, #64]	@ 0x40
   24b6c:	7941      	ldrb	r1, [r0, #5]
   24b6e:	910f      	str	r1, [sp, #60]	@ 0x3c
   24b70:	7981      	ldrb	r1, [r0, #6]
   24b72:	910e      	str	r1, [sp, #56]	@ 0x38
   24b74:	1dc1      	adds	r1, r0, #7
   24b76:	a8ff      	add	r0, sp, #1020	@ 0x3fc
   24b78:	30dc      	adds	r0, #220	@ 0xdc
   24b7a:	9012      	str	r0, [sp, #72]	@ 0x48
   24b7c:	2238      	movs	r2, #56	@ 0x38
   24b7e:	9211      	str	r2, [sp, #68]	@ 0x44
   24b80:	f001 f86b 	bl	25c5a <__aeabi_memcpy>
   24b84:	4895      	ldr	r0, [pc, #596]	@ (24ddc <_start+0x4cf8>)
   24b86:	4631      	mov	r1, r6
   24b88:	462a      	mov	r2, r5
   24b8a:	462b      	mov	r3, r5
   24b8c:	df03      	svc	3
   24b8e:	4893      	ldr	r0, [pc, #588]	@ (24ddc <_start+0x4cf8>)
   24b90:	4629      	mov	r1, r5
   24b92:	462a      	mov	r2, r5
   24b94:	462b      	mov	r3, r5
   24b96:	df04      	svc	4
   24b98:	4d92      	ldr	r5, [pc, #584]	@ (24de4 <_start+0x4d00>)
   24b9a:	446d      	add	r5, sp
   24b9c:	980e      	ldr	r0, [sp, #56]	@ 0x38
   24b9e:	71a8      	strb	r0, [r5, #6]
   24ba0:	980f      	ldr	r0, [sp, #60]	@ 0x3c
   24ba2:	7168      	strb	r0, [r5, #5]
   24ba4:	9810      	ldr	r0, [sp, #64]	@ 0x40
   24ba6:	7128      	strb	r0, [r5, #4]
   24ba8:	9813      	ldr	r0, [sp, #76]	@ 0x4c
   24baa:	70e8      	strb	r0, [r5, #3]
   24bac:	9816      	ldr	r0, [sp, #88]	@ 0x58
   24bae:	7880      	ldrb	r0, [r0, #2]
   24bb0:	70a8      	strb	r0, [r5, #2]
   24bb2:	9814      	ldr	r0, [sp, #80]	@ 0x50
   24bb4:	6800      	ldr	r0, [r0, #0]
   24bb6:	8028      	strh	r0, [r5, #0]
   24bb8:	1de8      	adds	r0, r5, #7
   24bba:	9912      	ldr	r1, [sp, #72]	@ 0x48
   24bbc:	9a11      	ldr	r2, [sp, #68]	@ 0x44
   24bbe:	f001 f84c 	bl	25c5a <__aeabi_memcpy>
   24bc2:	4889      	ldr	r0, [pc, #548]	@ (24de8 <_start+0x4d04>)
   24bc4:	4468      	add	r0, sp
   24bc6:	2111      	movs	r1, #17
   24bc8:	f000 fffa 	bl	25bc0 <__aeabi_memclr4>
   24bcc:	4887      	ldr	r0, [pc, #540]	@ (24dec <_start+0x4d08>)
   24bce:	2104      	movs	r1, #4
   24bd0:	233f      	movs	r3, #63	@ 0x3f
   24bd2:	462a      	mov	r2, r5
   24bd4:	df04      	svc	4
   24bd6:	2802      	cmp	r0, #2
   24bd8:	d00e      	beq.n	24bf8 <_start+0x4b14>
   24bda:	4884      	ldr	r0, [pc, #528]	@ (24dec <_start+0x4d08>)
   24bdc:	2103      	movs	r1, #3
   24bde:	4a82      	ldr	r2, [pc, #520]	@ (24de8 <_start+0x4d04>)
   24be0:	446a      	add	r2, sp
   24be2:	2311      	movs	r3, #17
   24be4:	df03      	svc	3
   24be6:	2802      	cmp	r0, #2
   24be8:	d006      	beq.n	24bf8 <_start+0x4b14>
   24bea:	4880      	ldr	r0, [pc, #512]	@ (24dec <_start+0x4d08>)
   24bec:	2104      	movs	r1, #4
   24bee:	2203      	movs	r2, #3
   24bf0:	2300      	movs	r3, #0
   24bf2:	df02      	svc	2
   24bf4:	287f      	cmp	r0, #127	@ 0x7f
   24bf6:	d80e      	bhi.n	24c16 <_start+0x4b32>
   24bf8:	9116      	str	r1, [sp, #88]	@ 0x58
   24bfa:	4d7c      	ldr	r5, [pc, #496]	@ (24dec <_start+0x4d08>)
   24bfc:	2103      	movs	r1, #3
   24bfe:	2600      	movs	r6, #0
   24c00:	4628      	mov	r0, r5
   24c02:	4632      	mov	r2, r6
   24c04:	4633      	mov	r3, r6
   24c06:	df03      	svc	3
   24c08:	2104      	movs	r1, #4
   24c0a:	4628      	mov	r0, r5
   24c0c:	4632      	mov	r2, r6
   24c0e:	4633      	mov	r3, r6
   24c10:	df04      	svc	4
   24c12:	f7fb fab9 	bl	20188 <_start+0xa4>
   24c16:	4875      	ldr	r0, [pc, #468]	@ (24dec <_start+0x4d08>)
   24c18:	2603      	movs	r6, #3
   24c1a:	2500      	movs	r5, #0
   24c1c:	4631      	mov	r1, r6
   24c1e:	462a      	mov	r2, r5
   24c20:	462b      	mov	r3, r5
   24c22:	df03      	svc	3
   24c24:	4871      	ldr	r0, [pc, #452]	@ (24dec <_start+0x4d08>)
   24c26:	4631      	mov	r1, r6
   24c28:	462a      	mov	r2, r5
   24c2a:	462b      	mov	r3, r5
   24c2c:	df03      	svc	3
   24c2e:	4a70      	ldr	r2, [pc, #448]	@ (24df0 <_start+0x4d0c>)
   24c30:	446a      	add	r2, sp
   24c32:	9216      	str	r2, [sp, #88]	@ 0x58
   24c34:	9815      	ldr	r0, [sp, #84]	@ 0x54
   24c36:	6800      	ldr	r0, [r0, #0]
   24c38:	8010      	strh	r0, [r2, #0]
   24c3a:	486b      	ldr	r0, [pc, #428]	@ (24de8 <_start+0x4d04>)
   24c3c:	4468      	add	r0, sp
   24c3e:	7881      	ldrb	r1, [r0, #2]
   24c40:	7091      	strb	r1, [r2, #2]
   24c42:	78c1      	ldrb	r1, [r0, #3]
   24c44:	9113      	str	r1, [sp, #76]	@ 0x4c
   24c46:	7901      	ldrb	r1, [r0, #4]
   24c48:	9112      	str	r1, [sp, #72]	@ 0x48
   24c4a:	7941      	ldrb	r1, [r0, #5]
   24c4c:	9111      	str	r1, [sp, #68]	@ 0x44
   24c4e:	7981      	ldrb	r1, [r0, #6]
   24c50:	9110      	str	r1, [sp, #64]	@ 0x40
   24c52:	1dc1      	adds	r1, r0, #7
   24c54:	4867      	ldr	r0, [pc, #412]	@ (24df4 <_start+0x4d10>)
   24c56:	4468      	add	r0, sp
   24c58:	900f      	str	r0, [sp, #60]	@ 0x3c
   24c5a:	220a      	movs	r2, #10
   24c5c:	920e      	str	r2, [sp, #56]	@ 0x38
   24c5e:	f000 fffc 	bl	25c5a <__aeabi_memcpy>
   24c62:	4862      	ldr	r0, [pc, #392]	@ (24dec <_start+0x4d08>)
   24c64:	4631      	mov	r1, r6
   24c66:	462a      	mov	r2, r5
   24c68:	462b      	mov	r3, r5
   24c6a:	df03      	svc	3
   24c6c:	2104      	movs	r1, #4
   24c6e:	485f      	ldr	r0, [pc, #380]	@ (24dec <_start+0x4d08>)
   24c70:	462a      	mov	r2, r5
   24c72:	462b      	mov	r3, r5
   24c74:	df04      	svc	4
   24c76:	4d5c      	ldr	r5, [pc, #368]	@ (24de8 <_start+0x4d04>)
   24c78:	446d      	add	r5, sp
   24c7a:	1de8      	adds	r0, r5, #7
   24c7c:	990f      	ldr	r1, [sp, #60]	@ 0x3c
   24c7e:	9a0e      	ldr	r2, [sp, #56]	@ 0x38
   24c80:	f000 ffeb 	bl	25c5a <__aeabi_memcpy>
   24c84:	9810      	ldr	r0, [sp, #64]	@ 0x40
   24c86:	71a8      	strb	r0, [r5, #6]
   24c88:	9811      	ldr	r0, [sp, #68]	@ 0x44
   24c8a:	7168      	strb	r0, [r5, #5]
   24c8c:	9812      	ldr	r0, [sp, #72]	@ 0x48
   24c8e:	7128      	strb	r0, [r5, #4]
   24c90:	9813      	ldr	r0, [sp, #76]	@ 0x4c
   24c92:	70e8      	strb	r0, [r5, #3]
   24c94:	9814      	ldr	r0, [sp, #80]	@ 0x50
   24c96:	6840      	ldr	r0, [r0, #4]
   24c98:	8028      	strh	r0, [r5, #0]
   24c9a:	9816      	ldr	r0, [sp, #88]	@ 0x58
   24c9c:	7880      	ldrb	r0, [r0, #2]
   24c9e:	70a8      	strb	r0, [r5, #2]
   24ca0:	4850      	ldr	r0, [pc, #320]	@ (24de4 <_start+0x4d00>)
   24ca2:	4468      	add	r0, sp
   24ca4:	213f      	movs	r1, #63	@ 0x3f
   24ca6:	f000 ff8b 	bl	25bc0 <__aeabi_memclr4>
   24caa:	20cb      	movs	r0, #203	@ 0xcb
   24cac:	0100      	lsls	r0, r0, #4
   24cae:	2107      	movs	r1, #7
   24cb0:	2311      	movs	r3, #17
   24cb2:	4606      	mov	r6, r0
   24cb4:	462a      	mov	r2, r5
   24cb6:	df04      	svc	4
   24cb8:	2802      	cmp	r0, #2
   24cba:	d00e      	beq.n	24cda <_start+0x4bf6>
   24cbc:	2104      	movs	r1, #4
   24cbe:	4a49      	ldr	r2, [pc, #292]	@ (24de4 <_start+0x4d00>)
   24cc0:	446a      	add	r2, sp
   24cc2:	233f      	movs	r3, #63	@ 0x3f
   24cc4:	4630      	mov	r0, r6
   24cc6:	df03      	svc	3
   24cc8:	2802      	cmp	r0, #2
   24cca:	d006      	beq.n	24cda <_start+0x4bf6>
   24ccc:	2107      	movs	r1, #7
   24cce:	2204      	movs	r2, #4
   24cd0:	2300      	movs	r3, #0
   24cd2:	4630      	mov	r0, r6
   24cd4:	df02      	svc	2
   24cd6:	287f      	cmp	r0, #127	@ 0x7f
   24cd8:	d80d      	bhi.n	24cf6 <_start+0x4c12>
   24cda:	9116      	str	r1, [sp, #88]	@ 0x58
   24cdc:	2104      	movs	r1, #4
   24cde:	2500      	movs	r5, #0
   24ce0:	4630      	mov	r0, r6
   24ce2:	462a      	mov	r2, r5
   24ce4:	462b      	mov	r3, r5
   24ce6:	df03      	svc	3
   24ce8:	2107      	movs	r1, #7
   24cea:	4630      	mov	r0, r6
   24cec:	462a      	mov	r2, r5
   24cee:	462b      	mov	r3, r5
   24cf0:	df04      	svc	4
   24cf2:	f7fb fa49 	bl	20188 <_start+0xa4>
   24cf6:	2104      	movs	r1, #4
   24cf8:	2500      	movs	r5, #0
   24cfa:	9613      	str	r6, [sp, #76]	@ 0x4c
   24cfc:	4630      	mov	r0, r6
   24cfe:	460e      	mov	r6, r1
   24d00:	910d      	str	r1, [sp, #52]	@ 0x34
   24d02:	462a      	mov	r2, r5
   24d04:	462b      	mov	r3, r5
   24d06:	df03      	svc	3
   24d08:	9813      	ldr	r0, [sp, #76]	@ 0x4c
   24d0a:	4631      	mov	r1, r6
   24d0c:	462a      	mov	r2, r5
   24d0e:	462b      	mov	r3, r5
   24d10:	df03      	svc	3
   24d12:	4a39      	ldr	r2, [pc, #228]	@ (24df8 <_start+0x4d14>)
   24d14:	446a      	add	r2, sp
   24d16:	9216      	str	r2, [sp, #88]	@ 0x58
   24d18:	9815      	ldr	r0, [sp, #84]	@ 0x54
   24d1a:	6e40      	ldr	r0, [r0, #100]	@ 0x64
   24d1c:	8010      	strh	r0, [r2, #0]
   24d1e:	4831      	ldr	r0, [pc, #196]	@ (24de4 <_start+0x4d00>)
   24d20:	4468      	add	r0, sp
   24d22:	7881      	ldrb	r1, [r0, #2]
   24d24:	7091      	strb	r1, [r2, #2]
   24d26:	78c1      	ldrb	r1, [r0, #3]
   24d28:	9112      	str	r1, [sp, #72]	@ 0x48
   24d2a:	7901      	ldrb	r1, [r0, #4]
   24d2c:	910f      	str	r1, [sp, #60]	@ 0x3c
   24d2e:	7941      	ldrb	r1, [r0, #5]
   24d30:	910e      	str	r1, [sp, #56]	@ 0x38
   24d32:	7981      	ldrb	r1, [r0, #6]
   24d34:	910c      	str	r1, [sp, #48]	@ 0x30
   24d36:	1dc1      	adds	r1, r0, #7
   24d38:	4830      	ldr	r0, [pc, #192]	@ (24dfc <_start+0x4d18>)
   24d3a:	4468      	add	r0, sp
   24d3c:	9011      	str	r0, [sp, #68]	@ 0x44
   24d3e:	2238      	movs	r2, #56	@ 0x38
   24d40:	9210      	str	r2, [sp, #64]	@ 0x40
   24d42:	f000 ff8a 	bl	25c5a <__aeabi_memcpy>
   24d46:	9e13      	ldr	r6, [sp, #76]	@ 0x4c
   24d48:	4630      	mov	r0, r6
   24d4a:	990d      	ldr	r1, [sp, #52]	@ 0x34
   24d4c:	462a      	mov	r2, r5
   24d4e:	462b      	mov	r3, r5
   24d50:	df03      	svc	3
   24d52:	2107      	movs	r1, #7
   24d54:	4630      	mov	r0, r6
   24d56:	462a      	mov	r2, r5
   24d58:	462b      	mov	r3, r5
   24d5a:	df04      	svc	4
   24d5c:	4d21      	ldr	r5, [pc, #132]	@ (24de4 <_start+0x4d00>)
   24d5e:	446d      	add	r5, sp
   24d60:	980c      	ldr	r0, [sp, #48]	@ 0x30
   24d62:	71a8      	strb	r0, [r5, #6]
   24d64:	980e      	ldr	r0, [sp, #56]	@ 0x38
   24d66:	7168      	strb	r0, [r5, #5]
   24d68:	980f      	ldr	r0, [sp, #60]	@ 0x3c
   24d6a:	7128      	strb	r0, [r5, #4]
   24d6c:	9812      	ldr	r0, [sp, #72]	@ 0x48
   24d6e:	70e8      	strb	r0, [r5, #3]
   24d70:	9816      	ldr	r0, [sp, #88]	@ 0x58
   24d72:	7880      	ldrb	r0, [r0, #2]
   24d74:	70a8      	strb	r0, [r5, #2]
   24d76:	9814      	ldr	r0, [sp, #80]	@ 0x50
   24d78:	6c00      	ldr	r0, [r0, #64]	@ 0x40
   24d7a:	8028      	strh	r0, [r5, #0]
   24d7c:	1de8      	adds	r0, r5, #7
   24d7e:	9911      	ldr	r1, [sp, #68]	@ 0x44
   24d80:	9a10      	ldr	r2, [sp, #64]	@ 0x40
   24d82:	f000 ff6a 	bl	25c5a <__aeabi_memcpy>
   24d86:	4818      	ldr	r0, [pc, #96]	@ (24de8 <_start+0x4d04>)
   24d88:	4468      	add	r0, sp
   24d8a:	211c      	movs	r1, #28
   24d8c:	f000 ff18 	bl	25bc0 <__aeabi_memclr4>
   24d90:	481b      	ldr	r0, [pc, #108]	@ (24e00 <_start+0x4d1c>)
   24d92:	2105      	movs	r1, #5
   24d94:	233f      	movs	r3, #63	@ 0x3f
   24d96:	462a      	mov	r2, r5
   24d98:	df04      	svc	4
   24d9a:	2802      	cmp	r0, #2
   24d9c:	d00e      	beq.n	24dbc <_start+0x4cd8>
   24d9e:	4818      	ldr	r0, [pc, #96]	@ (24e00 <_start+0x4d1c>)
   24da0:	2109      	movs	r1, #9
   24da2:	4a11      	ldr	r2, [pc, #68]	@ (24de8 <_start+0x4d04>)
   24da4:	446a      	add	r2, sp
   24da6:	231c      	movs	r3, #28
   24da8:	df03      	svc	3
   24daa:	2802      	cmp	r0, #2
   24dac:	d006      	beq.n	24dbc <_start+0x4cd8>
   24dae:	4814      	ldr	r0, [pc, #80]	@ (24e00 <_start+0x4d1c>)
   24db0:	2105      	movs	r1, #5
   24db2:	2209      	movs	r2, #9
   24db4:	2300      	movs	r3, #0
   24db6:	df02      	svc	2
   24db8:	287f      	cmp	r0, #127	@ 0x7f
   24dba:	d823      	bhi.n	24e04 <_start+0x4d20>
   24dbc:	9116      	str	r1, [sp, #88]	@ 0x58
   24dbe:	4d10      	ldr	r5, [pc, #64]	@ (24e00 <_start+0x4d1c>)
   24dc0:	2109      	movs	r1, #9
   24dc2:	2600      	movs	r6, #0
   24dc4:	4628      	mov	r0, r5
   24dc6:	4632      	mov	r2, r6
   24dc8:	4633      	mov	r3, r6
   24dca:	df03      	svc	3
   24dcc:	2105      	movs	r1, #5
   24dce:	4628      	mov	r0, r5
   24dd0:	4632      	mov	r2, r6
   24dd2:	4633      	mov	r3, r6
   24dd4:	df04      	svc	4
   24dd6:	f7fb f9d7 	bl	20188 <_start+0xa4>
   24dda:	46c0      	nop			@ (mov r8, r8)
   24ddc:	00000e57 	.word	0x00000e57
   24de0:	00000510 	.word	0x00000510
   24de4:	000006e8 	.word	0x000006e8
   24de8:	00000684 	.word	0x00000684
   24dec:	000014d7 	.word	0x000014d7
   24df0:	00000514 	.word	0x00000514
   24df4:	000005b8 	.word	0x000005b8
   24df8:	00000550 	.word	0x00000550
   24dfc:	00000518 	.word	0x00000518
   24e00:	00001694 	.word	0x00001694
   24e04:	48a5      	ldr	r0, [pc, #660]	@ (2509c <_start+0x4fb8>)
   24e06:	2609      	movs	r6, #9
   24e08:	2500      	movs	r5, #0
   24e0a:	4631      	mov	r1, r6
   24e0c:	462a      	mov	r2, r5
   24e0e:	462b      	mov	r3, r5
   24e10:	df03      	svc	3
   24e12:	48a2      	ldr	r0, [pc, #648]	@ (2509c <_start+0x4fb8>)
   24e14:	4631      	mov	r1, r6
   24e16:	462a      	mov	r2, r5
   24e18:	462b      	mov	r3, r5
   24e1a:	df03      	svc	3
   24e1c:	4aa0      	ldr	r2, [pc, #640]	@ (250a0 <_start+0x4fbc>)
   24e1e:	446a      	add	r2, sp
   24e20:	9216      	str	r2, [sp, #88]	@ 0x58
   24e22:	9815      	ldr	r0, [sp, #84]	@ 0x54
   24e24:	6800      	ldr	r0, [r0, #0]
   24e26:	8010      	strh	r0, [r2, #0]
   24e28:	489e      	ldr	r0, [pc, #632]	@ (250a4 <_start+0x4fc0>)
   24e2a:	4468      	add	r0, sp
   24e2c:	7881      	ldrb	r1, [r0, #2]
   24e2e:	7091      	strb	r1, [r2, #2]
   24e30:	78c1      	ldrb	r1, [r0, #3]
   24e32:	9113      	str	r1, [sp, #76]	@ 0x4c
   24e34:	7901      	ldrb	r1, [r0, #4]
   24e36:	9112      	str	r1, [sp, #72]	@ 0x48
   24e38:	7941      	ldrb	r1, [r0, #5]
   24e3a:	9111      	str	r1, [sp, #68]	@ 0x44
   24e3c:	7981      	ldrb	r1, [r0, #6]
   24e3e:	9110      	str	r1, [sp, #64]	@ 0x40
   24e40:	1dc1      	adds	r1, r0, #7
   24e42:	a8fa      	add	r0, sp, #1000	@ 0x3e8
   24e44:	900f      	str	r0, [sp, #60]	@ 0x3c
   24e46:	2215      	movs	r2, #21
   24e48:	920e      	str	r2, [sp, #56]	@ 0x38
   24e4a:	f000 ff06 	bl	25c5a <__aeabi_memcpy>
   24e4e:	4893      	ldr	r0, [pc, #588]	@ (2509c <_start+0x4fb8>)
   24e50:	4631      	mov	r1, r6
   24e52:	462a      	mov	r2, r5
   24e54:	462b      	mov	r3, r5
   24e56:	df03      	svc	3
   24e58:	2105      	movs	r1, #5
   24e5a:	4890      	ldr	r0, [pc, #576]	@ (2509c <_start+0x4fb8>)
   24e5c:	462a      	mov	r2, r5
   24e5e:	462b      	mov	r3, r5
   24e60:	df04      	svc	4
   24e62:	4d91      	ldr	r5, [pc, #580]	@ (250a8 <_start+0x4fc4>)
   24e64:	446d      	add	r5, sp
   24e66:	1de8      	adds	r0, r5, #7
   24e68:	990f      	ldr	r1, [sp, #60]	@ 0x3c
   24e6a:	9a0e      	ldr	r2, [sp, #56]	@ 0x38
   24e6c:	f000 fef5 	bl	25c5a <__aeabi_memcpy>
   24e70:	9810      	ldr	r0, [sp, #64]	@ 0x40
   24e72:	71a8      	strb	r0, [r5, #6]
   24e74:	9811      	ldr	r0, [sp, #68]	@ 0x44
   24e76:	7168      	strb	r0, [r5, #5]
   24e78:	9812      	ldr	r0, [sp, #72]	@ 0x48
   24e7a:	7128      	strb	r0, [r5, #4]
   24e7c:	9813      	ldr	r0, [sp, #76]	@ 0x4c
   24e7e:	70e8      	strb	r0, [r5, #3]
   24e80:	9814      	ldr	r0, [sp, #80]	@ 0x50
   24e82:	6c40      	ldr	r0, [r0, #68]	@ 0x44
   24e84:	8028      	strh	r0, [r5, #0]
   24e86:	9816      	ldr	r0, [sp, #88]	@ 0x58
   24e88:	7880      	ldrb	r0, [r0, #2]
   24e8a:	70a8      	strb	r0, [r5, #2]
   24e8c:	4887      	ldr	r0, [pc, #540]	@ (250ac <_start+0x4fc8>)
   24e8e:	4468      	add	r0, sp
   24e90:	215d      	movs	r1, #93	@ 0x5d
   24e92:	f000 fe95 	bl	25bc0 <__aeabi_memclr4>
   24e96:	4886      	ldr	r0, [pc, #536]	@ (250b0 <_start+0x4fcc>)
   24e98:	2108      	movs	r1, #8
   24e9a:	231c      	movs	r3, #28
   24e9c:	462a      	mov	r2, r5
   24e9e:	df04      	svc	4
   24ea0:	2802      	cmp	r0, #2
   24ea2:	d00e      	beq.n	24ec2 <_start+0x4dde>
   24ea4:	4882      	ldr	r0, [pc, #520]	@ (250b0 <_start+0x4fcc>)
   24ea6:	2105      	movs	r1, #5
   24ea8:	4a80      	ldr	r2, [pc, #512]	@ (250ac <_start+0x4fc8>)
   24eaa:	446a      	add	r2, sp
   24eac:	235d      	movs	r3, #93	@ 0x5d
   24eae:	df03      	svc	3
   24eb0:	2802      	cmp	r0, #2
   24eb2:	d006      	beq.n	24ec2 <_start+0x4dde>
   24eb4:	487e      	ldr	r0, [pc, #504]	@ (250b0 <_start+0x4fcc>)
   24eb6:	2108      	movs	r1, #8
   24eb8:	2205      	movs	r2, #5
   24eba:	2300      	movs	r3, #0
   24ebc:	df02      	svc	2
   24ebe:	287f      	cmp	r0, #127	@ 0x7f
   24ec0:	d80e      	bhi.n	24ee0 <_start+0x4dfc>
   24ec2:	9116      	str	r1, [sp, #88]	@ 0x58
   24ec4:	4d7a      	ldr	r5, [pc, #488]	@ (250b0 <_start+0x4fcc>)
   24ec6:	2105      	movs	r1, #5
   24ec8:	2600      	movs	r6, #0
   24eca:	4628      	mov	r0, r5
   24ecc:	4632      	mov	r2, r6
   24ece:	4633      	mov	r3, r6
   24ed0:	df03      	svc	3
   24ed2:	2108      	movs	r1, #8
   24ed4:	4628      	mov	r0, r5
   24ed6:	4632      	mov	r2, r6
   24ed8:	4633      	mov	r3, r6
   24eda:	df04      	svc	4
   24edc:	f7fb f954 	bl	20188 <_start+0xa4>
   24ee0:	4873      	ldr	r0, [pc, #460]	@ (250b0 <_start+0x4fcc>)
   24ee2:	2605      	movs	r6, #5
   24ee4:	2500      	movs	r5, #0
   24ee6:	4631      	mov	r1, r6
   24ee8:	462a      	mov	r2, r5
   24eea:	462b      	mov	r3, r5
   24eec:	df03      	svc	3
   24eee:	4870      	ldr	r0, [pc, #448]	@ (250b0 <_start+0x4fcc>)
   24ef0:	4631      	mov	r1, r6
   24ef2:	462a      	mov	r2, r5
   24ef4:	462b      	mov	r3, r5
   24ef6:	df03      	svc	3
   24ef8:	4a6e      	ldr	r2, [pc, #440]	@ (250b4 <_start+0x4fd0>)
   24efa:	446a      	add	r2, sp
   24efc:	9216      	str	r2, [sp, #88]	@ 0x58
   24efe:	9815      	ldr	r0, [sp, #84]	@ 0x54
   24f00:	6e40      	ldr	r0, [r0, #100]	@ 0x64
   24f02:	8010      	strh	r0, [r2, #0]
   24f04:	4869      	ldr	r0, [pc, #420]	@ (250ac <_start+0x4fc8>)
   24f06:	4468      	add	r0, sp
   24f08:	7881      	ldrb	r1, [r0, #2]
   24f0a:	7091      	strb	r1, [r2, #2]
   24f0c:	78c1      	ldrb	r1, [r0, #3]
   24f0e:	9113      	str	r1, [sp, #76]	@ 0x4c
   24f10:	7901      	ldrb	r1, [r0, #4]
   24f12:	9112      	str	r1, [sp, #72]	@ 0x48
   24f14:	7941      	ldrb	r1, [r0, #5]
   24f16:	9111      	str	r1, [sp, #68]	@ 0x44
   24f18:	7981      	ldrb	r1, [r0, #6]
   24f1a:	9110      	str	r1, [sp, #64]	@ 0x40
   24f1c:	1dc1      	adds	r1, r0, #7
   24f1e:	4861      	ldr	r0, [pc, #388]	@ (250a4 <_start+0x4fc0>)
   24f20:	4468      	add	r0, sp
   24f22:	900f      	str	r0, [sp, #60]	@ 0x3c
   24f24:	2256      	movs	r2, #86	@ 0x56
   24f26:	920e      	str	r2, [sp, #56]	@ 0x38
   24f28:	f000 fe97 	bl	25c5a <__aeabi_memcpy>
   24f2c:	4860      	ldr	r0, [pc, #384]	@ (250b0 <_start+0x4fcc>)
   24f2e:	4631      	mov	r1, r6
   24f30:	462a      	mov	r2, r5
   24f32:	462b      	mov	r3, r5
   24f34:	df03      	svc	3
   24f36:	2108      	movs	r1, #8
   24f38:	485d      	ldr	r0, [pc, #372]	@ (250b0 <_start+0x4fcc>)
   24f3a:	462a      	mov	r2, r5
   24f3c:	462b      	mov	r3, r5
   24f3e:	df04      	svc	4
   24f40:	4e5a      	ldr	r6, [pc, #360]	@ (250ac <_start+0x4fc8>)
   24f42:	446e      	add	r6, sp
   24f44:	1df0      	adds	r0, r6, #7
   24f46:	990f      	ldr	r1, [sp, #60]	@ 0x3c
   24f48:	9a0e      	ldr	r2, [sp, #56]	@ 0x38
   24f4a:	f000 fe86 	bl	25c5a <__aeabi_memcpy>
   24f4e:	9810      	ldr	r0, [sp, #64]	@ 0x40
   24f50:	71b0      	strb	r0, [r6, #6]
   24f52:	9811      	ldr	r0, [sp, #68]	@ 0x44
   24f54:	7170      	strb	r0, [r6, #5]
   24f56:	9812      	ldr	r0, [sp, #72]	@ 0x48
   24f58:	7130      	strb	r0, [r6, #4]
   24f5a:	9813      	ldr	r0, [sp, #76]	@ 0x4c
   24f5c:	70f0      	strb	r0, [r6, #3]
   24f5e:	9814      	ldr	r0, [sp, #80]	@ 0x50
   24f60:	6c80      	ldr	r0, [r0, #72]	@ 0x48
   24f62:	8030      	strh	r0, [r6, #0]
   24f64:	9816      	ldr	r0, [sp, #88]	@ 0x58
   24f66:	7880      	ldrb	r0, [r0, #2]
   24f68:	70b0      	strb	r0, [r6, #2]
   24f6a:	484e      	ldr	r0, [pc, #312]	@ (250a4 <_start+0x4fc0>)
   24f6c:	4468      	add	r0, sp
   24f6e:	2112      	movs	r1, #18
   24f70:	f000 fe26 	bl	25bc0 <__aeabi_memclr4>
   24f74:	4850      	ldr	r0, [pc, #320]	@ (250b8 <_start+0x4fd4>)
   24f76:	235d      	movs	r3, #93	@ 0x5d
   24f78:	4629      	mov	r1, r5
   24f7a:	4632      	mov	r2, r6
   24f7c:	df04      	svc	4
   24f7e:	2802      	cmp	r0, #2
   24f80:	d00e      	beq.n	24fa0 <_start+0x4ebc>
   24f82:	484d      	ldr	r0, [pc, #308]	@ (250b8 <_start+0x4fd4>)
   24f84:	2102      	movs	r1, #2
   24f86:	4a47      	ldr	r2, [pc, #284]	@ (250a4 <_start+0x4fc0>)
   24f88:	446a      	add	r2, sp
   24f8a:	2312      	movs	r3, #18
   24f8c:	df03      	svc	3
   24f8e:	2802      	cmp	r0, #2
   24f90:	d006      	beq.n	24fa0 <_start+0x4ebc>
   24f92:	4849      	ldr	r0, [pc, #292]	@ (250b8 <_start+0x4fd4>)
   24f94:	2202      	movs	r2, #2
   24f96:	2100      	movs	r1, #0
   24f98:	460b      	mov	r3, r1
   24f9a:	df02      	svc	2
   24f9c:	287f      	cmp	r0, #127	@ 0x7f
   24f9e:	d80e      	bhi.n	24fbe <_start+0x4eda>
   24fa0:	9116      	str	r1, [sp, #88]	@ 0x58
   24fa2:	4d45      	ldr	r5, [pc, #276]	@ (250b8 <_start+0x4fd4>)
   24fa4:	2102      	movs	r1, #2
   24fa6:	2600      	movs	r6, #0
   24fa8:	4628      	mov	r0, r5
   24faa:	4632      	mov	r2, r6
   24fac:	4633      	mov	r3, r6
   24fae:	df03      	svc	3
   24fb0:	4628      	mov	r0, r5
   24fb2:	4631      	mov	r1, r6
   24fb4:	4632      	mov	r2, r6
   24fb6:	4633      	mov	r3, r6
   24fb8:	df04      	svc	4
   24fba:	f7fb f8e5 	bl	20188 <_start+0xa4>
   24fbe:	483e      	ldr	r0, [pc, #248]	@ (250b8 <_start+0x4fd4>)
   24fc0:	2502      	movs	r5, #2
   24fc2:	9516      	str	r5, [sp, #88]	@ 0x58
   24fc4:	2600      	movs	r6, #0
   24fc6:	4629      	mov	r1, r5
   24fc8:	4632      	mov	r2, r6
   24fca:	4633      	mov	r3, r6
   24fcc:	df03      	svc	3
   24fce:	483a      	ldr	r0, [pc, #232]	@ (250b8 <_start+0x4fd4>)
   24fd0:	4629      	mov	r1, r5
   24fd2:	4632      	mov	r2, r6
   24fd4:	4633      	mov	r3, r6
   24fd6:	df03      	svc	3
   24fd8:	4a38      	ldr	r2, [pc, #224]	@ (250bc <_start+0x4fd8>)
   24fda:	446a      	add	r2, sp
   24fdc:	9213      	str	r2, [sp, #76]	@ 0x4c
   24fde:	9815      	ldr	r0, [sp, #84]	@ 0x54
   24fe0:	6800      	ldr	r0, [r0, #0]
   24fe2:	8010      	strh	r0, [r2, #0]
   24fe4:	482f      	ldr	r0, [pc, #188]	@ (250a4 <_start+0x4fc0>)
   24fe6:	4468      	add	r0, sp
   24fe8:	7881      	ldrb	r1, [r0, #2]
   24fea:	7091      	strb	r1, [r2, #2]
   24fec:	78c1      	ldrb	r1, [r0, #3]
   24fee:	9112      	str	r1, [sp, #72]	@ 0x48
   24ff0:	7901      	ldrb	r1, [r0, #4]
   24ff2:	9111      	str	r1, [sp, #68]	@ 0x44
   24ff4:	7941      	ldrb	r1, [r0, #5]
   24ff6:	9110      	str	r1, [sp, #64]	@ 0x40
   24ff8:	7981      	ldrb	r1, [r0, #6]
   24ffa:	910f      	str	r1, [sp, #60]	@ 0x3c
   24ffc:	1dc1      	adds	r1, r0, #7
   24ffe:	adfa      	add	r5, sp, #1000	@ 0x3e8
   25000:	220b      	movs	r2, #11
   25002:	920e      	str	r2, [sp, #56]	@ 0x38
   25004:	4628      	mov	r0, r5
   25006:	f000 fe28 	bl	25c5a <__aeabi_memcpy>
   2500a:	482b      	ldr	r0, [pc, #172]	@ (250b8 <_start+0x4fd4>)
   2500c:	9916      	ldr	r1, [sp, #88]	@ 0x58
   2500e:	4632      	mov	r2, r6
   25010:	4633      	mov	r3, r6
   25012:	df03      	svc	3
   25014:	4828      	ldr	r0, [pc, #160]	@ (250b8 <_start+0x4fd4>)
   25016:	4631      	mov	r1, r6
   25018:	4632      	mov	r2, r6
   2501a:	4633      	mov	r3, r6
   2501c:	df04      	svc	4
   2501e:	4e22      	ldr	r6, [pc, #136]	@ (250a8 <_start+0x4fc4>)
   25020:	446e      	add	r6, sp
   25022:	1df0      	adds	r0, r6, #7
   25024:	4629      	mov	r1, r5
   25026:	9a0e      	ldr	r2, [sp, #56]	@ 0x38
   25028:	f000 fe17 	bl	25c5a <__aeabi_memcpy>
   2502c:	980f      	ldr	r0, [sp, #60]	@ 0x3c
   2502e:	71b0      	strb	r0, [r6, #6]
   25030:	9810      	ldr	r0, [sp, #64]	@ 0x40
   25032:	7170      	strb	r0, [r6, #5]
   25034:	9811      	ldr	r0, [sp, #68]	@ 0x44
   25036:	7130      	strb	r0, [r6, #4]
   25038:	9812      	ldr	r0, [sp, #72]	@ 0x48
   2503a:	70f0      	strb	r0, [r6, #3]
   2503c:	9814      	ldr	r0, [sp, #80]	@ 0x50
   2503e:	6cc0      	ldr	r0, [r0, #76]	@ 0x4c
   25040:	8030      	strh	r0, [r6, #0]
   25042:	9813      	ldr	r0, [sp, #76]	@ 0x4c
   25044:	7880      	ldrb	r0, [r0, #2]
   25046:	70b0      	strb	r0, [r6, #2]
   25048:	4818      	ldr	r0, [pc, #96]	@ (250ac <_start+0x4fc8>)
   2504a:	4468      	add	r0, sp
   2504c:	2144      	movs	r1, #68	@ 0x44
   2504e:	f000 fdb7 	bl	25bc0 <__aeabi_memclr4>
   25052:	481b      	ldr	r0, [pc, #108]	@ (250c0 <_start+0x4fdc>)
   25054:	2312      	movs	r3, #18
   25056:	9916      	ldr	r1, [sp, #88]	@ 0x58
   25058:	4632      	mov	r2, r6
   2505a:	df04      	svc	4
   2505c:	2802      	cmp	r0, #2
   2505e:	d00e      	beq.n	2507e <_start+0x4f9a>
   25060:	4817      	ldr	r0, [pc, #92]	@ (250c0 <_start+0x4fdc>)
   25062:	2109      	movs	r1, #9
   25064:	4a11      	ldr	r2, [pc, #68]	@ (250ac <_start+0x4fc8>)
   25066:	446a      	add	r2, sp
   25068:	2344      	movs	r3, #68	@ 0x44
   2506a:	df03      	svc	3
   2506c:	2802      	cmp	r0, #2
   2506e:	d006      	beq.n	2507e <_start+0x4f9a>
   25070:	4813      	ldr	r0, [pc, #76]	@ (250c0 <_start+0x4fdc>)
   25072:	2102      	movs	r1, #2
   25074:	2209      	movs	r2, #9
   25076:	2300      	movs	r3, #0
   25078:	df02      	svc	2
   2507a:	287f      	cmp	r0, #127	@ 0x7f
   2507c:	d822      	bhi.n	250c4 <_start+0x4fe0>
   2507e:	9116      	str	r1, [sp, #88]	@ 0x58
   25080:	4d0f      	ldr	r5, [pc, #60]	@ (250c0 <_start+0x4fdc>)
   25082:	2109      	movs	r1, #9
   25084:	2600      	movs	r6, #0
   25086:	4628      	mov	r0, r5
   25088:	4632      	mov	r2, r6
   2508a:	4633      	mov	r3, r6
   2508c:	df03      	svc	3
   2508e:	2102      	movs	r1, #2
   25090:	4628      	mov	r0, r5
   25092:	4632      	mov	r2, r6
   25094:	4633      	mov	r3, r6
   25096:	df04      	svc	4
   25098:	f7fb f876 	bl	20188 <_start+0xa4>
   2509c:	00001694 	.word	0x00001694
   250a0:	00000554 	.word	0x00000554
   250a4:	00000684 	.word	0x00000684
   250a8:	000005b8 	.word	0x000005b8
   250ac:	000006e8 	.word	0x000006e8
   250b0:	00000c3e 	.word	0x00000c3e
   250b4:	00000558 	.word	0x00000558
   250b8:	000015f1 	.word	0x000015f1
   250bc:	0000055c 	.word	0x0000055c
   250c0:	00002432 	.word	0x00002432
   250c4:	48a6      	ldr	r0, [pc, #664]	@ (25360 <_start+0x527c>)
   250c6:	2609      	movs	r6, #9
   250c8:	2500      	movs	r5, #0
   250ca:	4631      	mov	r1, r6
   250cc:	462a      	mov	r2, r5
   250ce:	462b      	mov	r3, r5
   250d0:	df03      	svc	3
   250d2:	48a3      	ldr	r0, [pc, #652]	@ (25360 <_start+0x527c>)
   250d4:	4631      	mov	r1, r6
   250d6:	462a      	mov	r2, r5
   250d8:	462b      	mov	r3, r5
   250da:	df03      	svc	3
   250dc:	4aa1      	ldr	r2, [pc, #644]	@ (25364 <_start+0x5280>)
   250de:	446a      	add	r2, sp
   250e0:	9216      	str	r2, [sp, #88]	@ 0x58
   250e2:	9815      	ldr	r0, [sp, #84]	@ 0x54
   250e4:	6e40      	ldr	r0, [r0, #100]	@ 0x64
   250e6:	8010      	strh	r0, [r2, #0]
   250e8:	489f      	ldr	r0, [pc, #636]	@ (25368 <_start+0x5284>)
   250ea:	4468      	add	r0, sp
   250ec:	7881      	ldrb	r1, [r0, #2]
   250ee:	7091      	strb	r1, [r2, #2]
   250f0:	78c1      	ldrb	r1, [r0, #3]
   250f2:	9113      	str	r1, [sp, #76]	@ 0x4c
   250f4:	7901      	ldrb	r1, [r0, #4]
   250f6:	9112      	str	r1, [sp, #72]	@ 0x48
   250f8:	7941      	ldrb	r1, [r0, #5]
   250fa:	9111      	str	r1, [sp, #68]	@ 0x44
   250fc:	7981      	ldrb	r1, [r0, #6]
   250fe:	9110      	str	r1, [sp, #64]	@ 0x40
   25100:	1dc1      	adds	r1, r0, #7
   25102:	489a      	ldr	r0, [pc, #616]	@ (2536c <_start+0x5288>)
   25104:	4468      	add	r0, sp
   25106:	900f      	str	r0, [sp, #60]	@ 0x3c
   25108:	223d      	movs	r2, #61	@ 0x3d
   2510a:	920e      	str	r2, [sp, #56]	@ 0x38
   2510c:	f000 fda5 	bl	25c5a <__aeabi_memcpy>
   25110:	4893      	ldr	r0, [pc, #588]	@ (25360 <_start+0x527c>)
   25112:	4631      	mov	r1, r6
   25114:	462a      	mov	r2, r5
   25116:	462b      	mov	r3, r5
   25118:	df03      	svc	3
   2511a:	2102      	movs	r1, #2
   2511c:	4890      	ldr	r0, [pc, #576]	@ (25360 <_start+0x527c>)
   2511e:	462a      	mov	r2, r5
   25120:	462b      	mov	r3, r5
   25122:	df04      	svc	4
   25124:	4d90      	ldr	r5, [pc, #576]	@ (25368 <_start+0x5284>)
   25126:	446d      	add	r5, sp
   25128:	1de8      	adds	r0, r5, #7
   2512a:	990f      	ldr	r1, [sp, #60]	@ 0x3c
   2512c:	9a0e      	ldr	r2, [sp, #56]	@ 0x38
   2512e:	f000 fd94 	bl	25c5a <__aeabi_memcpy>
   25132:	9810      	ldr	r0, [sp, #64]	@ 0x40
   25134:	71a8      	strb	r0, [r5, #6]
   25136:	9811      	ldr	r0, [sp, #68]	@ 0x44
   25138:	7168      	strb	r0, [r5, #5]
   2513a:	9812      	ldr	r0, [sp, #72]	@ 0x48
   2513c:	7128      	strb	r0, [r5, #4]
   2513e:	9813      	ldr	r0, [sp, #76]	@ 0x4c
   25140:	70e8      	strb	r0, [r5, #3]
   25142:	9814      	ldr	r0, [sp, #80]	@ 0x50
   25144:	6d00      	ldr	r0, [r0, #80]	@ 0x50
   25146:	8028      	strh	r0, [r5, #0]
   25148:	9816      	ldr	r0, [sp, #88]	@ 0x58
   2514a:	7880      	ldrb	r0, [r0, #2]
   2514c:	70a8      	strb	r0, [r5, #2]
   2514e:	4887      	ldr	r0, [pc, #540]	@ (2536c <_start+0x5288>)
   25150:	4468      	add	r0, sp
   25152:	2123      	movs	r1, #35	@ 0x23
   25154:	f000 fd34 	bl	25bc0 <__aeabi_memclr4>
   25158:	4885      	ldr	r0, [pc, #532]	@ (25370 <_start+0x528c>)
   2515a:	2106      	movs	r1, #6
   2515c:	2344      	movs	r3, #68	@ 0x44
   2515e:	462a      	mov	r2, r5
   25160:	df04      	svc	4
   25162:	2802      	cmp	r0, #2
   25164:	d00e      	beq.n	25184 <_start+0x50a0>
   25166:	4882      	ldr	r0, [pc, #520]	@ (25370 <_start+0x528c>)
   25168:	2103      	movs	r1, #3
   2516a:	4a80      	ldr	r2, [pc, #512]	@ (2536c <_start+0x5288>)
   2516c:	446a      	add	r2, sp
   2516e:	2323      	movs	r3, #35	@ 0x23
   25170:	df03      	svc	3
   25172:	2802      	cmp	r0, #2
   25174:	d006      	beq.n	25184 <_start+0x50a0>
   25176:	487e      	ldr	r0, [pc, #504]	@ (25370 <_start+0x528c>)
   25178:	2106      	movs	r1, #6
   2517a:	2203      	movs	r2, #3
   2517c:	2300      	movs	r3, #0
   2517e:	df02      	svc	2
   25180:	287f      	cmp	r0, #127	@ 0x7f
   25182:	d80e      	bhi.n	251a2 <_start+0x50be>
   25184:	9116      	str	r1, [sp, #88]	@ 0x58
   25186:	4d7a      	ldr	r5, [pc, #488]	@ (25370 <_start+0x528c>)
   25188:	2103      	movs	r1, #3
   2518a:	2600      	movs	r6, #0
   2518c:	4628      	mov	r0, r5
   2518e:	4632      	mov	r2, r6
   25190:	4633      	mov	r3, r6
   25192:	df03      	svc	3
   25194:	2106      	movs	r1, #6
   25196:	4628      	mov	r0, r5
   25198:	4632      	mov	r2, r6
   2519a:	4633      	mov	r3, r6
   2519c:	df04      	svc	4
   2519e:	f7fa fff3 	bl	20188 <_start+0xa4>
   251a2:	4873      	ldr	r0, [pc, #460]	@ (25370 <_start+0x528c>)
   251a4:	2603      	movs	r6, #3
   251a6:	2500      	movs	r5, #0
   251a8:	4631      	mov	r1, r6
   251aa:	462a      	mov	r2, r5
   251ac:	462b      	mov	r3, r5
   251ae:	df03      	svc	3
   251b0:	486f      	ldr	r0, [pc, #444]	@ (25370 <_start+0x528c>)
   251b2:	4631      	mov	r1, r6
   251b4:	462a      	mov	r2, r5
   251b6:	462b      	mov	r3, r5
   251b8:	df03      	svc	3
   251ba:	4a6e      	ldr	r2, [pc, #440]	@ (25374 <_start+0x5290>)
   251bc:	446a      	add	r2, sp
   251be:	9216      	str	r2, [sp, #88]	@ 0x58
   251c0:	9815      	ldr	r0, [sp, #84]	@ 0x54
   251c2:	6800      	ldr	r0, [r0, #0]
   251c4:	8010      	strh	r0, [r2, #0]
   251c6:	4869      	ldr	r0, [pc, #420]	@ (2536c <_start+0x5288>)
   251c8:	4468      	add	r0, sp
   251ca:	7881      	ldrb	r1, [r0, #2]
   251cc:	7091      	strb	r1, [r2, #2]
   251ce:	78c1      	ldrb	r1, [r0, #3]
   251d0:	9113      	str	r1, [sp, #76]	@ 0x4c
   251d2:	7901      	ldrb	r1, [r0, #4]
   251d4:	9110      	str	r1, [sp, #64]	@ 0x40
   251d6:	7941      	ldrb	r1, [r0, #5]
   251d8:	910f      	str	r1, [sp, #60]	@ 0x3c
   251da:	7981      	ldrb	r1, [r0, #6]
   251dc:	910e      	str	r1, [sp, #56]	@ 0x38
   251de:	1dc1      	adds	r1, r0, #7
   251e0:	4865      	ldr	r0, [pc, #404]	@ (25378 <_start+0x5294>)
   251e2:	4468      	add	r0, sp
   251e4:	9012      	str	r0, [sp, #72]	@ 0x48
   251e6:	221c      	movs	r2, #28
   251e8:	9211      	str	r2, [sp, #68]	@ 0x44
   251ea:	f000 fd36 	bl	25c5a <__aeabi_memcpy>
   251ee:	4860      	ldr	r0, [pc, #384]	@ (25370 <_start+0x528c>)
   251f0:	4631      	mov	r1, r6
   251f2:	462a      	mov	r2, r5
   251f4:	462b      	mov	r3, r5
   251f6:	df03      	svc	3
   251f8:	2106      	movs	r1, #6
   251fa:	485d      	ldr	r0, [pc, #372]	@ (25370 <_start+0x528c>)
   251fc:	462a      	mov	r2, r5
   251fe:	462b      	mov	r3, r5
   25200:	df04      	svc	4
   25202:	4d5a      	ldr	r5, [pc, #360]	@ (2536c <_start+0x5288>)
   25204:	446d      	add	r5, sp
   25206:	980e      	ldr	r0, [sp, #56]	@ 0x38
   25208:	71a8      	strb	r0, [r5, #6]
   2520a:	980f      	ldr	r0, [sp, #60]	@ 0x3c
   2520c:	7168      	strb	r0, [r5, #5]
   2520e:	9810      	ldr	r0, [sp, #64]	@ 0x40
   25210:	7128      	strb	r0, [r5, #4]
   25212:	9813      	ldr	r0, [sp, #76]	@ 0x4c
   25214:	70e8      	strb	r0, [r5, #3]
   25216:	9816      	ldr	r0, [sp, #88]	@ 0x58
   25218:	7880      	ldrb	r0, [r0, #2]
   2521a:	70a8      	strb	r0, [r5, #2]
   2521c:	9814      	ldr	r0, [sp, #80]	@ 0x50
   2521e:	6f00      	ldr	r0, [r0, #112]	@ 0x70
   25220:	8028      	strh	r0, [r5, #0]
   25222:	1de8      	adds	r0, r5, #7
   25224:	9912      	ldr	r1, [sp, #72]	@ 0x48
   25226:	9a11      	ldr	r2, [sp, #68]	@ 0x44
   25228:	f000 fd17 	bl	25c5a <__aeabi_memcpy>
   2522c:	484e      	ldr	r0, [pc, #312]	@ (25368 <_start+0x5284>)
   2522e:	4468      	add	r0, sp
   25230:	2124      	movs	r1, #36	@ 0x24
   25232:	f000 fcc5 	bl	25bc0 <__aeabi_memclr4>
   25236:	4851      	ldr	r0, [pc, #324]	@ (2537c <_start+0x5298>)
   25238:	2104      	movs	r1, #4
   2523a:	2323      	movs	r3, #35	@ 0x23
   2523c:	462a      	mov	r2, r5
   2523e:	df04      	svc	4
   25240:	2802      	cmp	r0, #2
   25242:	d00e      	beq.n	25262 <_start+0x517e>
   25244:	484d      	ldr	r0, [pc, #308]	@ (2537c <_start+0x5298>)
   25246:	2108      	movs	r1, #8
   25248:	4a47      	ldr	r2, [pc, #284]	@ (25368 <_start+0x5284>)
   2524a:	446a      	add	r2, sp
   2524c:	2324      	movs	r3, #36	@ 0x24
   2524e:	df03      	svc	3
   25250:	2802      	cmp	r0, #2
   25252:	d006      	beq.n	25262 <_start+0x517e>
   25254:	4849      	ldr	r0, [pc, #292]	@ (2537c <_start+0x5298>)
   25256:	2104      	movs	r1, #4
   25258:	2208      	movs	r2, #8
   2525a:	2300      	movs	r3, #0
   2525c:	df02      	svc	2
   2525e:	287f      	cmp	r0, #127	@ 0x7f
   25260:	d80e      	bhi.n	25280 <_start+0x519c>
   25262:	9116      	str	r1, [sp, #88]	@ 0x58
   25264:	4d45      	ldr	r5, [pc, #276]	@ (2537c <_start+0x5298>)
   25266:	2108      	movs	r1, #8
   25268:	2600      	movs	r6, #0
   2526a:	4628      	mov	r0, r5
   2526c:	4632      	mov	r2, r6
   2526e:	4633      	mov	r3, r6
   25270:	df03      	svc	3
   25272:	2104      	movs	r1, #4
   25274:	4628      	mov	r0, r5
   25276:	4632      	mov	r2, r6
   25278:	4633      	mov	r3, r6
   2527a:	df04      	svc	4
   2527c:	f7fa ff84 	bl	20188 <_start+0xa4>
   25280:	483e      	ldr	r0, [pc, #248]	@ (2537c <_start+0x5298>)
   25282:	2608      	movs	r6, #8
   25284:	2500      	movs	r5, #0
   25286:	4631      	mov	r1, r6
   25288:	462a      	mov	r2, r5
   2528a:	462b      	mov	r3, r5
   2528c:	df03      	svc	3
   2528e:	483b      	ldr	r0, [pc, #236]	@ (2537c <_start+0x5298>)
   25290:	4631      	mov	r1, r6
   25292:	462a      	mov	r2, r5
   25294:	462b      	mov	r3, r5
   25296:	df03      	svc	3
   25298:	4a39      	ldr	r2, [pc, #228]	@ (25380 <_start+0x529c>)
   2529a:	446a      	add	r2, sp
   2529c:	9216      	str	r2, [sp, #88]	@ 0x58
   2529e:	9815      	ldr	r0, [sp, #84]	@ 0x54
   252a0:	6e40      	ldr	r0, [r0, #100]	@ 0x64
   252a2:	8010      	strh	r0, [r2, #0]
   252a4:	4830      	ldr	r0, [pc, #192]	@ (25368 <_start+0x5284>)
   252a6:	4468      	add	r0, sp
   252a8:	7881      	ldrb	r1, [r0, #2]
   252aa:	7091      	strb	r1, [r2, #2]
   252ac:	78c1      	ldrb	r1, [r0, #3]
   252ae:	9113      	str	r1, [sp, #76]	@ 0x4c
   252b0:	7901      	ldrb	r1, [r0, #4]
   252b2:	9112      	str	r1, [sp, #72]	@ 0x48
   252b4:	7941      	ldrb	r1, [r0, #5]
   252b6:	9111      	str	r1, [sp, #68]	@ 0x44
   252b8:	7981      	ldrb	r1, [r0, #6]
   252ba:	9110      	str	r1, [sp, #64]	@ 0x40
   252bc:	1dc1      	adds	r1, r0, #7
   252be:	4831      	ldr	r0, [pc, #196]	@ (25384 <_start+0x52a0>)
   252c0:	4468      	add	r0, sp
   252c2:	900f      	str	r0, [sp, #60]	@ 0x3c
   252c4:	221d      	movs	r2, #29
   252c6:	920e      	str	r2, [sp, #56]	@ 0x38
   252c8:	f000 fcc7 	bl	25c5a <__aeabi_memcpy>
   252cc:	482b      	ldr	r0, [pc, #172]	@ (2537c <_start+0x5298>)
   252ce:	4631      	mov	r1, r6
   252d0:	462a      	mov	r2, r5
   252d2:	462b      	mov	r3, r5
   252d4:	df03      	svc	3
   252d6:	2104      	movs	r1, #4
   252d8:	4828      	ldr	r0, [pc, #160]	@ (2537c <_start+0x5298>)
   252da:	462a      	mov	r2, r5
   252dc:	462b      	mov	r3, r5
   252de:	df04      	svc	4
   252e0:	4d22      	ldr	r5, [pc, #136]	@ (2536c <_start+0x5288>)
   252e2:	446d      	add	r5, sp
   252e4:	1de8      	adds	r0, r5, #7
   252e6:	990f      	ldr	r1, [sp, #60]	@ 0x3c
   252e8:	9a0e      	ldr	r2, [sp, #56]	@ 0x38
   252ea:	f000 fcb6 	bl	25c5a <__aeabi_memcpy>
   252ee:	9810      	ldr	r0, [sp, #64]	@ 0x40
   252f0:	71a8      	strb	r0, [r5, #6]
   252f2:	9811      	ldr	r0, [sp, #68]	@ 0x44
   252f4:	7168      	strb	r0, [r5, #5]
   252f6:	9812      	ldr	r0, [sp, #72]	@ 0x48
   252f8:	7128      	strb	r0, [r5, #4]
   252fa:	9813      	ldr	r0, [sp, #76]	@ 0x4c
   252fc:	70e8      	strb	r0, [r5, #3]
   252fe:	9814      	ldr	r0, [sp, #80]	@ 0x50
   25300:	6f40      	ldr	r0, [r0, #116]	@ 0x74
   25302:	8028      	strh	r0, [r5, #0]
   25304:	9816      	ldr	r0, [sp, #88]	@ 0x58
   25306:	7880      	ldrb	r0, [r0, #2]
   25308:	70a8      	strb	r0, [r5, #2]
   2530a:	4817      	ldr	r0, [pc, #92]	@ (25368 <_start+0x5284>)
   2530c:	4468      	add	r0, sp
   2530e:	212f      	movs	r1, #47	@ 0x2f
   25310:	f000 fc56 	bl	25bc0 <__aeabi_memclr4>
   25314:	481c      	ldr	r0, [pc, #112]	@ (25388 <_start+0x52a4>)
   25316:	2106      	movs	r1, #6
   25318:	2324      	movs	r3, #36	@ 0x24
   2531a:	462a      	mov	r2, r5
   2531c:	df04      	svc	4
   2531e:	2802      	cmp	r0, #2
   25320:	d00e      	beq.n	25340 <_start+0x525c>
   25322:	4819      	ldr	r0, [pc, #100]	@ (25388 <_start+0x52a4>)
   25324:	2109      	movs	r1, #9
   25326:	4a10      	ldr	r2, [pc, #64]	@ (25368 <_start+0x5284>)
   25328:	446a      	add	r2, sp
   2532a:	232f      	movs	r3, #47	@ 0x2f
   2532c:	df03      	svc	3
   2532e:	2802      	cmp	r0, #2
   25330:	d006      	beq.n	25340 <_start+0x525c>
   25332:	4815      	ldr	r0, [pc, #84]	@ (25388 <_start+0x52a4>)
   25334:	2106      	movs	r1, #6
   25336:	2209      	movs	r2, #9
   25338:	2300      	movs	r3, #0
   2533a:	df02      	svc	2
   2533c:	287f      	cmp	r0, #127	@ 0x7f
   2533e:	d825      	bhi.n	2538c <_start+0x52a8>
   25340:	9116      	str	r1, [sp, #88]	@ 0x58
   25342:	4d11      	ldr	r5, [pc, #68]	@ (25388 <_start+0x52a4>)
   25344:	2109      	movs	r1, #9
   25346:	2600      	movs	r6, #0
   25348:	4628      	mov	r0, r5
   2534a:	4632      	mov	r2, r6
   2534c:	4633      	mov	r3, r6
   2534e:	df03      	svc	3
   25350:	2106      	movs	r1, #6
   25352:	4628      	mov	r0, r5
   25354:	4632      	mov	r2, r6
   25356:	4633      	mov	r3, r6
   25358:	df04      	svc	4
   2535a:	f7fa ff15 	bl	20188 <_start+0xa4>
   2535e:	46c0      	nop			@ (mov r8, r8)
   25360:	00002432 	.word	0x00002432
   25364:	00000560 	.word	0x00000560
   25368:	000006e8 	.word	0x000006e8
   2536c:	00000684 	.word	0x00000684
   25370:	000009bf 	.word	0x000009bf
   25374:	00000580 	.word	0x00000580
   25378:	00000564 	.word	0x00000564
   2537c:	00001bd6 	.word	0x00001bd6
   25380:	00000584 	.word	0x00000584
   25384:	000005b8 	.word	0x000005b8
   25388:	00001273 	.word	0x00001273
   2538c:	48a6      	ldr	r0, [pc, #664]	@ (25628 <_start+0x5544>)
   2538e:	2609      	movs	r6, #9
   25390:	2500      	movs	r5, #0
   25392:	4631      	mov	r1, r6
   25394:	462a      	mov	r2, r5
   25396:	462b      	mov	r3, r5
   25398:	df03      	svc	3
   2539a:	48a3      	ldr	r0, [pc, #652]	@ (25628 <_start+0x5544>)
   2539c:	4631      	mov	r1, r6
   2539e:	462a      	mov	r2, r5
   253a0:	462b      	mov	r3, r5
   253a2:	df03      	svc	3
   253a4:	4aa1      	ldr	r2, [pc, #644]	@ (2562c <_start+0x5548>)
   253a6:	446a      	add	r2, sp
   253a8:	9216      	str	r2, [sp, #88]	@ 0x58
   253aa:	9815      	ldr	r0, [sp, #84]	@ 0x54
   253ac:	6e40      	ldr	r0, [r0, #100]	@ 0x64
   253ae:	8010      	strh	r0, [r2, #0]
   253b0:	489f      	ldr	r0, [pc, #636]	@ (25630 <_start+0x554c>)
   253b2:	4468      	add	r0, sp
   253b4:	7881      	ldrb	r1, [r0, #2]
   253b6:	7091      	strb	r1, [r2, #2]
   253b8:	78c1      	ldrb	r1, [r0, #3]
   253ba:	9114      	str	r1, [sp, #80]	@ 0x50
   253bc:	7901      	ldrb	r1, [r0, #4]
   253be:	9111      	str	r1, [sp, #68]	@ 0x44
   253c0:	7941      	ldrb	r1, [r0, #5]
   253c2:	9110      	str	r1, [sp, #64]	@ 0x40
   253c4:	7981      	ldrb	r1, [r0, #6]
   253c6:	910f      	str	r1, [sp, #60]	@ 0x3c
   253c8:	1dc1      	adds	r1, r0, #7
   253ca:	489a      	ldr	r0, [pc, #616]	@ (25634 <_start+0x5550>)
   253cc:	4468      	add	r0, sp
   253ce:	9013      	str	r0, [sp, #76]	@ 0x4c
   253d0:	2228      	movs	r2, #40	@ 0x28
   253d2:	9212      	str	r2, [sp, #72]	@ 0x48
   253d4:	f000 fc41 	bl	25c5a <__aeabi_memcpy>
   253d8:	4893      	ldr	r0, [pc, #588]	@ (25628 <_start+0x5544>)
   253da:	4631      	mov	r1, r6
   253dc:	462a      	mov	r2, r5
   253de:	462b      	mov	r3, r5
   253e0:	df03      	svc	3
   253e2:	2106      	movs	r1, #6
   253e4:	4890      	ldr	r0, [pc, #576]	@ (25628 <_start+0x5544>)
   253e6:	462a      	mov	r2, r5
   253e8:	462b      	mov	r3, r5
   253ea:	df04      	svc	4
   253ec:	4d92      	ldr	r5, [pc, #584]	@ (25638 <_start+0x5554>)
   253ee:	446d      	add	r5, sp
   253f0:	980f      	ldr	r0, [sp, #60]	@ 0x3c
   253f2:	71a8      	strb	r0, [r5, #6]
   253f4:	9810      	ldr	r0, [sp, #64]	@ 0x40
   253f6:	7168      	strb	r0, [r5, #5]
   253f8:	9811      	ldr	r0, [sp, #68]	@ 0x44
   253fa:	7128      	strb	r0, [r5, #4]
   253fc:	9814      	ldr	r0, [sp, #80]	@ 0x50
   253fe:	70e8      	strb	r0, [r5, #3]
   25400:	9816      	ldr	r0, [sp, #88]	@ 0x58
   25402:	7880      	ldrb	r0, [r0, #2]
   25404:	70a8      	strb	r0, [r5, #2]
   25406:	9808      	ldr	r0, [sp, #32]
   25408:	6800      	ldr	r0, [r0, #0]
   2540a:	8028      	strh	r0, [r5, #0]
   2540c:	1de8      	adds	r0, r5, #7
   2540e:	9913      	ldr	r1, [sp, #76]	@ 0x4c
   25410:	9a12      	ldr	r2, [sp, #72]	@ 0x48
   25412:	f000 fc22 	bl	25c5a <__aeabi_memcpy>
   25416:	4886      	ldr	r0, [pc, #536]	@ (25630 <_start+0x554c>)
   25418:	4468      	add	r0, sp
   2541a:	215e      	movs	r1, #94	@ 0x5e
   2541c:	f000 fbd0 	bl	25bc0 <__aeabi_memclr4>
   25420:	4886      	ldr	r0, [pc, #536]	@ (2563c <_start+0x5558>)
   25422:	2105      	movs	r1, #5
   25424:	232f      	movs	r3, #47	@ 0x2f
   25426:	462a      	mov	r2, r5
   25428:	df04      	svc	4
   2542a:	2802      	cmp	r0, #2
   2542c:	d00e      	beq.n	2544c <_start+0x5368>
   2542e:	4883      	ldr	r0, [pc, #524]	@ (2563c <_start+0x5558>)
   25430:	2102      	movs	r1, #2
   25432:	4a7f      	ldr	r2, [pc, #508]	@ (25630 <_start+0x554c>)
   25434:	446a      	add	r2, sp
   25436:	235e      	movs	r3, #94	@ 0x5e
   25438:	df03      	svc	3
   2543a:	2802      	cmp	r0, #2
   2543c:	d006      	beq.n	2544c <_start+0x5368>
   2543e:	487f      	ldr	r0, [pc, #508]	@ (2563c <_start+0x5558>)
   25440:	2105      	movs	r1, #5
   25442:	2202      	movs	r2, #2
   25444:	2300      	movs	r3, #0
   25446:	df02      	svc	2
   25448:	287f      	cmp	r0, #127	@ 0x7f
   2544a:	d80e      	bhi.n	2546a <_start+0x5386>
   2544c:	9116      	str	r1, [sp, #88]	@ 0x58
   2544e:	4d7b      	ldr	r5, [pc, #492]	@ (2563c <_start+0x5558>)
   25450:	2102      	movs	r1, #2
   25452:	2600      	movs	r6, #0
   25454:	4628      	mov	r0, r5
   25456:	4632      	mov	r2, r6
   25458:	4633      	mov	r3, r6
   2545a:	df03      	svc	3
   2545c:	2105      	movs	r1, #5
   2545e:	4628      	mov	r0, r5
   25460:	4632      	mov	r2, r6
   25462:	4633      	mov	r3, r6
   25464:	df04      	svc	4
   25466:	f7fa fe8f 	bl	20188 <_start+0xa4>
   2546a:	4874      	ldr	r0, [pc, #464]	@ (2563c <_start+0x5558>)
   2546c:	2602      	movs	r6, #2
   2546e:	2500      	movs	r5, #0
   25470:	4631      	mov	r1, r6
   25472:	462a      	mov	r2, r5
   25474:	462b      	mov	r3, r5
   25476:	df03      	svc	3
   25478:	4870      	ldr	r0, [pc, #448]	@ (2563c <_start+0x5558>)
   2547a:	4631      	mov	r1, r6
   2547c:	462a      	mov	r2, r5
   2547e:	462b      	mov	r3, r5
   25480:	df03      	svc	3
   25482:	4a6f      	ldr	r2, [pc, #444]	@ (25640 <_start+0x555c>)
   25484:	446a      	add	r2, sp
   25486:	9216      	str	r2, [sp, #88]	@ 0x58
   25488:	9815      	ldr	r0, [sp, #84]	@ 0x54
   2548a:	6e40      	ldr	r0, [r0, #100]	@ 0x64
   2548c:	8010      	strh	r0, [r2, #0]
   2548e:	4868      	ldr	r0, [pc, #416]	@ (25630 <_start+0x554c>)
   25490:	4468      	add	r0, sp
   25492:	7881      	ldrb	r1, [r0, #2]
   25494:	7091      	strb	r1, [r2, #2]
   25496:	78c1      	ldrb	r1, [r0, #3]
   25498:	9114      	str	r1, [sp, #80]	@ 0x50
   2549a:	7901      	ldrb	r1, [r0, #4]
   2549c:	9113      	str	r1, [sp, #76]	@ 0x4c
   2549e:	7941      	ldrb	r1, [r0, #5]
   254a0:	9112      	str	r1, [sp, #72]	@ 0x48
   254a2:	7981      	ldrb	r1, [r0, #6]
   254a4:	9111      	str	r1, [sp, #68]	@ 0x44
   254a6:	1dc1      	adds	r1, r0, #7
   254a8:	4866      	ldr	r0, [pc, #408]	@ (25644 <_start+0x5560>)
   254aa:	4468      	add	r0, sp
   254ac:	9010      	str	r0, [sp, #64]	@ 0x40
   254ae:	2257      	movs	r2, #87	@ 0x57
   254b0:	920f      	str	r2, [sp, #60]	@ 0x3c
   254b2:	f000 fbd2 	bl	25c5a <__aeabi_memcpy>
   254b6:	4861      	ldr	r0, [pc, #388]	@ (2563c <_start+0x5558>)
   254b8:	4631      	mov	r1, r6
   254ba:	462a      	mov	r2, r5
   254bc:	462b      	mov	r3, r5
   254be:	df03      	svc	3
   254c0:	2105      	movs	r1, #5
   254c2:	485e      	ldr	r0, [pc, #376]	@ (2563c <_start+0x5558>)
   254c4:	462a      	mov	r2, r5
   254c6:	462b      	mov	r3, r5
   254c8:	df04      	svc	4
   254ca:	4d59      	ldr	r5, [pc, #356]	@ (25630 <_start+0x554c>)
   254cc:	446d      	add	r5, sp
   254ce:	1de8      	adds	r0, r5, #7
   254d0:	9910      	ldr	r1, [sp, #64]	@ 0x40
   254d2:	9a0f      	ldr	r2, [sp, #60]	@ 0x3c
   254d4:	f000 fbc1 	bl	25c5a <__aeabi_memcpy>
   254d8:	9811      	ldr	r0, [sp, #68]	@ 0x44
   254da:	71a8      	strb	r0, [r5, #6]
   254dc:	9812      	ldr	r0, [sp, #72]	@ 0x48
   254de:	7168      	strb	r0, [r5, #5]
   254e0:	9813      	ldr	r0, [sp, #76]	@ 0x4c
   254e2:	7128      	strb	r0, [r5, #4]
   254e4:	9814      	ldr	r0, [sp, #80]	@ 0x50
   254e6:	70e8      	strb	r0, [r5, #3]
   254e8:	9808      	ldr	r0, [sp, #32]
   254ea:	6840      	ldr	r0, [r0, #4]
   254ec:	8028      	strh	r0, [r5, #0]
   254ee:	9816      	ldr	r0, [sp, #88]	@ 0x58
   254f0:	7880      	ldrb	r0, [r0, #2]
   254f2:	70a8      	strb	r0, [r5, #2]
   254f4:	4853      	ldr	r0, [pc, #332]	@ (25644 <_start+0x5560>)
   254f6:	4468      	add	r0, sp
   254f8:	2155      	movs	r1, #85	@ 0x55
   254fa:	f000 fb61 	bl	25bc0 <__aeabi_memclr4>
   254fe:	4852      	ldr	r0, [pc, #328]	@ (25648 <_start+0x5564>)
   25500:	2107      	movs	r1, #7
   25502:	235e      	movs	r3, #94	@ 0x5e
   25504:	462a      	mov	r2, r5
   25506:	df04      	svc	4
   25508:	2802      	cmp	r0, #2
   2550a:	d00e      	beq.n	2552a <_start+0x5446>
   2550c:	484e      	ldr	r0, [pc, #312]	@ (25648 <_start+0x5564>)
   2550e:	2103      	movs	r1, #3
   25510:	4a4c      	ldr	r2, [pc, #304]	@ (25644 <_start+0x5560>)
   25512:	446a      	add	r2, sp
   25514:	2355      	movs	r3, #85	@ 0x55
   25516:	df03      	svc	3
   25518:	2802      	cmp	r0, #2
   2551a:	d006      	beq.n	2552a <_start+0x5446>
   2551c:	484a      	ldr	r0, [pc, #296]	@ (25648 <_start+0x5564>)
   2551e:	2107      	movs	r1, #7
   25520:	2203      	movs	r2, #3
   25522:	2300      	movs	r3, #0
   25524:	df02      	svc	2
   25526:	287f      	cmp	r0, #127	@ 0x7f
   25528:	d80e      	bhi.n	25548 <_start+0x5464>
   2552a:	9116      	str	r1, [sp, #88]	@ 0x58
   2552c:	4d46      	ldr	r5, [pc, #280]	@ (25648 <_start+0x5564>)
   2552e:	2103      	movs	r1, #3
   25530:	2600      	movs	r6, #0
   25532:	4628      	mov	r0, r5
   25534:	4632      	mov	r2, r6
   25536:	4633      	mov	r3, r6
   25538:	df03      	svc	3
   2553a:	2107      	movs	r1, #7
   2553c:	4628      	mov	r0, r5
   2553e:	4632      	mov	r2, r6
   25540:	4633      	mov	r3, r6
   25542:	df04      	svc	4
   25544:	f7fa fe20 	bl	20188 <_start+0xa4>
   25548:	483f      	ldr	r0, [pc, #252]	@ (25648 <_start+0x5564>)
   2554a:	2603      	movs	r6, #3
   2554c:	2500      	movs	r5, #0
   2554e:	4631      	mov	r1, r6
   25550:	462a      	mov	r2, r5
   25552:	462b      	mov	r3, r5
   25554:	df03      	svc	3
   25556:	483c      	ldr	r0, [pc, #240]	@ (25648 <_start+0x5564>)
   25558:	4631      	mov	r1, r6
   2555a:	462a      	mov	r2, r5
   2555c:	462b      	mov	r3, r5
   2555e:	df03      	svc	3
   25560:	4a3a      	ldr	r2, [pc, #232]	@ (2564c <_start+0x5568>)
   25562:	446a      	add	r2, sp
   25564:	9216      	str	r2, [sp, #88]	@ 0x58
   25566:	9815      	ldr	r0, [sp, #84]	@ 0x54
   25568:	6800      	ldr	r0, [r0, #0]
   2556a:	8010      	strh	r0, [r2, #0]
   2556c:	4835      	ldr	r0, [pc, #212]	@ (25644 <_start+0x5560>)
   2556e:	4468      	add	r0, sp
   25570:	7881      	ldrb	r1, [r0, #2]
   25572:	7091      	strb	r1, [r2, #2]
   25574:	78c1      	ldrb	r1, [r0, #3]
   25576:	9114      	str	r1, [sp, #80]	@ 0x50
   25578:	7901      	ldrb	r1, [r0, #4]
   2557a:	9113      	str	r1, [sp, #76]	@ 0x4c
   2557c:	7941      	ldrb	r1, [r0, #5]
   2557e:	9112      	str	r1, [sp, #72]	@ 0x48
   25580:	7981      	ldrb	r1, [r0, #6]
   25582:	9111      	str	r1, [sp, #68]	@ 0x44
   25584:	1dc1      	adds	r1, r0, #7
   25586:	482c      	ldr	r0, [pc, #176]	@ (25638 <_start+0x5554>)
   25588:	4468      	add	r0, sp
   2558a:	9010      	str	r0, [sp, #64]	@ 0x40
   2558c:	224e      	movs	r2, #78	@ 0x4e
   2558e:	920f      	str	r2, [sp, #60]	@ 0x3c
   25590:	f000 fb63 	bl	25c5a <__aeabi_memcpy>
   25594:	482c      	ldr	r0, [pc, #176]	@ (25648 <_start+0x5564>)
   25596:	4631      	mov	r1, r6
   25598:	462a      	mov	r2, r5
   2559a:	462b      	mov	r3, r5
   2559c:	df03      	svc	3
   2559e:	2107      	movs	r1, #7
   255a0:	4829      	ldr	r0, [pc, #164]	@ (25648 <_start+0x5564>)
   255a2:	462a      	mov	r2, r5
   255a4:	462b      	mov	r3, r5
   255a6:	df04      	svc	4
   255a8:	4d21      	ldr	r5, [pc, #132]	@ (25630 <_start+0x554c>)
   255aa:	446d      	add	r5, sp
   255ac:	1de8      	adds	r0, r5, #7
   255ae:	9910      	ldr	r1, [sp, #64]	@ 0x40
   255b0:	9a0f      	ldr	r2, [sp, #60]	@ 0x3c
   255b2:	f000 fb52 	bl	25c5a <__aeabi_memcpy>
   255b6:	9811      	ldr	r0, [sp, #68]	@ 0x44
   255b8:	71a8      	strb	r0, [r5, #6]
   255ba:	9812      	ldr	r0, [sp, #72]	@ 0x48
   255bc:	7168      	strb	r0, [r5, #5]
   255be:	9813      	ldr	r0, [sp, #76]	@ 0x4c
   255c0:	7128      	strb	r0, [r5, #4]
   255c2:	9814      	ldr	r0, [sp, #80]	@ 0x50
   255c4:	70e8      	strb	r0, [r5, #3]
   255c6:	9808      	ldr	r0, [sp, #32]
   255c8:	6d80      	ldr	r0, [r0, #88]	@ 0x58
   255ca:	8028      	strh	r0, [r5, #0]
   255cc:	9816      	ldr	r0, [sp, #88]	@ 0x58
   255ce:	7880      	ldrb	r0, [r0, #2]
   255d0:	70a8      	strb	r0, [r5, #2]
   255d2:	481c      	ldr	r0, [pc, #112]	@ (25644 <_start+0x5560>)
   255d4:	4468      	add	r0, sp
   255d6:	2111      	movs	r1, #17
   255d8:	f000 faf2 	bl	25bc0 <__aeabi_memclr4>
   255dc:	481c      	ldr	r0, [pc, #112]	@ (25650 <_start+0x556c>)
   255de:	2102      	movs	r1, #2
   255e0:	2355      	movs	r3, #85	@ 0x55
   255e2:	462a      	mov	r2, r5
   255e4:	df04      	svc	4
   255e6:	2802      	cmp	r0, #2
   255e8:	d00e      	beq.n	25608 <_start+0x5524>
   255ea:	4819      	ldr	r0, [pc, #100]	@ (25650 <_start+0x556c>)
   255ec:	2102      	movs	r1, #2
   255ee:	4a15      	ldr	r2, [pc, #84]	@ (25644 <_start+0x5560>)
   255f0:	446a      	add	r2, sp
   255f2:	2311      	movs	r3, #17
   255f4:	df03      	svc	3
   255f6:	2802      	cmp	r0, #2
   255f8:	d006      	beq.n	25608 <_start+0x5524>
   255fa:	4815      	ldr	r0, [pc, #84]	@ (25650 <_start+0x556c>)
   255fc:	2102      	movs	r1, #2
   255fe:	2300      	movs	r3, #0
   25600:	460a      	mov	r2, r1
   25602:	df02      	svc	2
   25604:	287f      	cmp	r0, #127	@ 0x7f
   25606:	d825      	bhi.n	25654 <_start+0x5570>
   25608:	9116      	str	r1, [sp, #88]	@ 0x58
   2560a:	4811      	ldr	r0, [pc, #68]	@ (25650 <_start+0x556c>)
   2560c:	2602      	movs	r6, #2
   2560e:	2500      	movs	r5, #0
   25610:	4631      	mov	r1, r6
   25612:	462a      	mov	r2, r5
   25614:	462b      	mov	r3, r5
   25616:	df03      	svc	3
   25618:	480d      	ldr	r0, [pc, #52]	@ (25650 <_start+0x556c>)
   2561a:	4631      	mov	r1, r6
   2561c:	462a      	mov	r2, r5
   2561e:	462b      	mov	r3, r5
   25620:	df04      	svc	4
   25622:	f7fa fdb1 	bl	20188 <_start+0xa4>
   25626:	46c0      	nop			@ (mov r8, r8)
   25628:	00001273 	.word	0x00001273
   2562c:	000005b0 	.word	0x000005b0
   25630:	000006e8 	.word	0x000006e8
   25634:	00000588 	.word	0x00000588
   25638:	000005b8 	.word	0x000005b8
   2563c:	0000022b 	.word	0x0000022b
   25640:	000005b4 	.word	0x000005b4
   25644:	00000684 	.word	0x00000684
   25648:	0000178a 	.word	0x0000178a
   2564c:	00000608 	.word	0x00000608
   25650:	00000c89 	.word	0x00000c89
   25654:	48d6      	ldr	r0, [pc, #856]	@ (259b0 <_start+0x58cc>)
   25656:	2602      	movs	r6, #2
   25658:	2500      	movs	r5, #0
   2565a:	4631      	mov	r1, r6
   2565c:	462a      	mov	r2, r5
   2565e:	462b      	mov	r3, r5
   25660:	df03      	svc	3
   25662:	48d3      	ldr	r0, [pc, #844]	@ (259b0 <_start+0x58cc>)
   25664:	4631      	mov	r1, r6
   25666:	462a      	mov	r2, r5
   25668:	462b      	mov	r3, r5
   2566a:	df03      	svc	3
   2566c:	4ad1      	ldr	r2, [pc, #836]	@ (259b4 <_start+0x58d0>)
   2566e:	446a      	add	r2, sp
   25670:	9216      	str	r2, [sp, #88]	@ 0x58
   25672:	9815      	ldr	r0, [sp, #84]	@ 0x54
   25674:	6800      	ldr	r0, [r0, #0]
   25676:	8010      	strh	r0, [r2, #0]
   25678:	48cf      	ldr	r0, [pc, #828]	@ (259b8 <_start+0x58d4>)
   2567a:	4468      	add	r0, sp
   2567c:	7881      	ldrb	r1, [r0, #2]
   2567e:	7091      	strb	r1, [r2, #2]
   25680:	78c1      	ldrb	r1, [r0, #3]
   25682:	9114      	str	r1, [sp, #80]	@ 0x50
   25684:	7901      	ldrb	r1, [r0, #4]
   25686:	9113      	str	r1, [sp, #76]	@ 0x4c
   25688:	7941      	ldrb	r1, [r0, #5]
   2568a:	9112      	str	r1, [sp, #72]	@ 0x48
   2568c:	7981      	ldrb	r1, [r0, #6]
   2568e:	9111      	str	r1, [sp, #68]	@ 0x44
   25690:	1dc1      	adds	r1, r0, #7
   25692:	a8fa      	add	r0, sp, #1000	@ 0x3e8
   25694:	9010      	str	r0, [sp, #64]	@ 0x40
   25696:	220a      	movs	r2, #10
   25698:	920f      	str	r2, [sp, #60]	@ 0x3c
   2569a:	f000 fade 	bl	25c5a <__aeabi_memcpy>
   2569e:	48c4      	ldr	r0, [pc, #784]	@ (259b0 <_start+0x58cc>)
   256a0:	4631      	mov	r1, r6
   256a2:	462a      	mov	r2, r5
   256a4:	462b      	mov	r3, r5
   256a6:	df03      	svc	3
   256a8:	48c1      	ldr	r0, [pc, #772]	@ (259b0 <_start+0x58cc>)
   256aa:	4631      	mov	r1, r6
   256ac:	462a      	mov	r2, r5
   256ae:	462b      	mov	r3, r5
   256b0:	df04      	svc	4
   256b2:	4dc2      	ldr	r5, [pc, #776]	@ (259bc <_start+0x58d8>)
   256b4:	446d      	add	r5, sp
   256b6:	1de8      	adds	r0, r5, #7
   256b8:	9910      	ldr	r1, [sp, #64]	@ 0x40
   256ba:	9a0f      	ldr	r2, [sp, #60]	@ 0x3c
   256bc:	f000 facd 	bl	25c5a <__aeabi_memcpy>
   256c0:	9811      	ldr	r0, [sp, #68]	@ 0x44
   256c2:	71a8      	strb	r0, [r5, #6]
   256c4:	9812      	ldr	r0, [sp, #72]	@ 0x48
   256c6:	7168      	strb	r0, [r5, #5]
   256c8:	9813      	ldr	r0, [sp, #76]	@ 0x4c
   256ca:	7128      	strb	r0, [r5, #4]
   256cc:	9814      	ldr	r0, [sp, #80]	@ 0x50
   256ce:	70e8      	strb	r0, [r5, #3]
   256d0:	9808      	ldr	r0, [sp, #32]
   256d2:	6dc0      	ldr	r0, [r0, #92]	@ 0x5c
   256d4:	8028      	strh	r0, [r5, #0]
   256d6:	9816      	ldr	r0, [sp, #88]	@ 0x58
   256d8:	7880      	ldrb	r0, [r0, #2]
   256da:	70a8      	strb	r0, [r5, #2]
   256dc:	48b8      	ldr	r0, [pc, #736]	@ (259c0 <_start+0x58dc>)
   256de:	4468      	add	r0, sp
   256e0:	2150      	movs	r1, #80	@ 0x50
   256e2:	f000 fa6d 	bl	25bc0 <__aeabi_memclr4>
   256e6:	48b7      	ldr	r0, [pc, #732]	@ (259c4 <_start+0x58e0>)
   256e8:	2106      	movs	r1, #6
   256ea:	2311      	movs	r3, #17
   256ec:	462a      	mov	r2, r5
   256ee:	df04      	svc	4
   256f0:	2802      	cmp	r0, #2
   256f2:	d00e      	beq.n	25712 <_start+0x562e>
   256f4:	48b3      	ldr	r0, [pc, #716]	@ (259c4 <_start+0x58e0>)
   256f6:	2105      	movs	r1, #5
   256f8:	4ab1      	ldr	r2, [pc, #708]	@ (259c0 <_start+0x58dc>)
   256fa:	446a      	add	r2, sp
   256fc:	2350      	movs	r3, #80	@ 0x50
   256fe:	df03      	svc	3
   25700:	2802      	cmp	r0, #2
   25702:	d006      	beq.n	25712 <_start+0x562e>
   25704:	48af      	ldr	r0, [pc, #700]	@ (259c4 <_start+0x58e0>)
   25706:	2106      	movs	r1, #6
   25708:	2205      	movs	r2, #5
   2570a:	2300      	movs	r3, #0
   2570c:	df02      	svc	2
   2570e:	287f      	cmp	r0, #127	@ 0x7f
   25710:	d80e      	bhi.n	25730 <_start+0x564c>
   25712:	9116      	str	r1, [sp, #88]	@ 0x58
   25714:	4dab      	ldr	r5, [pc, #684]	@ (259c4 <_start+0x58e0>)
   25716:	2105      	movs	r1, #5
   25718:	2600      	movs	r6, #0
   2571a:	4628      	mov	r0, r5
   2571c:	4632      	mov	r2, r6
   2571e:	4633      	mov	r3, r6
   25720:	df03      	svc	3
   25722:	2106      	movs	r1, #6
   25724:	4628      	mov	r0, r5
   25726:	4632      	mov	r2, r6
   25728:	4633      	mov	r3, r6
   2572a:	df04      	svc	4
   2572c:	f7fa fd2c 	bl	20188 <_start+0xa4>
   25730:	4da4      	ldr	r5, [pc, #656]	@ (259c4 <_start+0x58e0>)
   25732:	2605      	movs	r6, #5
   25734:	2400      	movs	r4, #0
   25736:	4628      	mov	r0, r5
   25738:	4631      	mov	r1, r6
   2573a:	4622      	mov	r2, r4
   2573c:	4623      	mov	r3, r4
   2573e:	df03      	svc	3
   25740:	4628      	mov	r0, r5
   25742:	4631      	mov	r1, r6
   25744:	4622      	mov	r2, r4
   25746:	4623      	mov	r3, r4
   25748:	df03      	svc	3
   2574a:	4a9f      	ldr	r2, [pc, #636]	@ (259c8 <_start+0x58e4>)
   2574c:	446a      	add	r2, sp
   2574e:	9216      	str	r2, [sp, #88]	@ 0x58
   25750:	9815      	ldr	r0, [sp, #84]	@ 0x54
   25752:	6e40      	ldr	r0, [r0, #100]	@ 0x64
   25754:	8010      	strh	r0, [r2, #0]
   25756:	489a      	ldr	r0, [pc, #616]	@ (259c0 <_start+0x58dc>)
   25758:	4468      	add	r0, sp
   2575a:	7881      	ldrb	r1, [r0, #2]
   2575c:	7091      	strb	r1, [r2, #2]
   2575e:	78c1      	ldrb	r1, [r0, #3]
   25760:	9114      	str	r1, [sp, #80]	@ 0x50
   25762:	7901      	ldrb	r1, [r0, #4]
   25764:	9113      	str	r1, [sp, #76]	@ 0x4c
   25766:	7941      	ldrb	r1, [r0, #5]
   25768:	9112      	str	r1, [sp, #72]	@ 0x48
   2576a:	7981      	ldrb	r1, [r0, #6]
   2576c:	9111      	str	r1, [sp, #68]	@ 0x44
   2576e:	1dc1      	adds	r1, r0, #7
   25770:	4891      	ldr	r0, [pc, #580]	@ (259b8 <_start+0x58d4>)
   25772:	4468      	add	r0, sp
   25774:	9010      	str	r0, [sp, #64]	@ 0x40
   25776:	2249      	movs	r2, #73	@ 0x49
   25778:	920f      	str	r2, [sp, #60]	@ 0x3c
   2577a:	f000 fa6e 	bl	25c5a <__aeabi_memcpy>
   2577e:	4628      	mov	r0, r5
   25780:	4631      	mov	r1, r6
   25782:	4622      	mov	r2, r4
   25784:	4623      	mov	r3, r4
   25786:	df03      	svc	3
   25788:	2106      	movs	r1, #6
   2578a:	4628      	mov	r0, r5
   2578c:	4622      	mov	r2, r4
   2578e:	4623      	mov	r3, r4
   25790:	df04      	svc	4
   25792:	4d8b      	ldr	r5, [pc, #556]	@ (259c0 <_start+0x58dc>)
   25794:	446d      	add	r5, sp
   25796:	1de8      	adds	r0, r5, #7
   25798:	9910      	ldr	r1, [sp, #64]	@ 0x40
   2579a:	9a0f      	ldr	r2, [sp, #60]	@ 0x3c
   2579c:	f000 fa5d 	bl	25c5a <__aeabi_memcpy>
   257a0:	9811      	ldr	r0, [sp, #68]	@ 0x44
   257a2:	71a8      	strb	r0, [r5, #6]
   257a4:	9812      	ldr	r0, [sp, #72]	@ 0x48
   257a6:	7168      	strb	r0, [r5, #5]
   257a8:	9813      	ldr	r0, [sp, #76]	@ 0x4c
   257aa:	7128      	strb	r0, [r5, #4]
   257ac:	9814      	ldr	r0, [sp, #80]	@ 0x50
   257ae:	70e8      	strb	r0, [r5, #3]
   257b0:	9808      	ldr	r0, [sp, #32]
   257b2:	6e00      	ldr	r0, [r0, #96]	@ 0x60
   257b4:	8028      	strh	r0, [r5, #0]
   257b6:	9816      	ldr	r0, [sp, #88]	@ 0x58
   257b8:	7880      	ldrb	r0, [r0, #2]
   257ba:	70a8      	strb	r0, [r5, #2]
   257bc:	487e      	ldr	r0, [pc, #504]	@ (259b8 <_start+0x58d4>)
   257be:	4468      	add	r0, sp
   257c0:	211b      	movs	r1, #27
   257c2:	f000 f9fd 	bl	25bc0 <__aeabi_memclr4>
   257c6:	4881      	ldr	r0, [pc, #516]	@ (259cc <_start+0x58e8>)
   257c8:	2401      	movs	r4, #1
   257ca:	2350      	movs	r3, #80	@ 0x50
   257cc:	4621      	mov	r1, r4
   257ce:	462a      	mov	r2, r5
   257d0:	df04      	svc	4
   257d2:	2802      	cmp	r0, #2
   257d4:	d00e      	beq.n	257f4 <_start+0x5710>
   257d6:	487d      	ldr	r0, [pc, #500]	@ (259cc <_start+0x58e8>)
   257d8:	2102      	movs	r1, #2
   257da:	4a77      	ldr	r2, [pc, #476]	@ (259b8 <_start+0x58d4>)
   257dc:	446a      	add	r2, sp
   257de:	231b      	movs	r3, #27
   257e0:	df03      	svc	3
   257e2:	2802      	cmp	r0, #2
   257e4:	d006      	beq.n	257f4 <_start+0x5710>
   257e6:	4879      	ldr	r0, [pc, #484]	@ (259cc <_start+0x58e8>)
   257e8:	2101      	movs	r1, #1
   257ea:	2202      	movs	r2, #2
   257ec:	2300      	movs	r3, #0
   257ee:	df02      	svc	2
   257f0:	287f      	cmp	r0, #127	@ 0x7f
   257f2:	d80e      	bhi.n	25812 <_start+0x572e>
   257f4:	9116      	str	r1, [sp, #88]	@ 0x58
   257f6:	4d75      	ldr	r5, [pc, #468]	@ (259cc <_start+0x58e8>)
   257f8:	2102      	movs	r1, #2
   257fa:	2600      	movs	r6, #0
   257fc:	4628      	mov	r0, r5
   257fe:	4632      	mov	r2, r6
   25800:	4633      	mov	r3, r6
   25802:	df03      	svc	3
   25804:	4628      	mov	r0, r5
   25806:	4621      	mov	r1, r4
   25808:	4632      	mov	r2, r6
   2580a:	4633      	mov	r3, r6
   2580c:	df04      	svc	4
   2580e:	f7fa fcbb 	bl	20188 <_start+0xa4>
   25812:	4d6e      	ldr	r5, [pc, #440]	@ (259cc <_start+0x58e8>)
   25814:	2402      	movs	r4, #2
   25816:	2600      	movs	r6, #0
   25818:	4628      	mov	r0, r5
   2581a:	4621      	mov	r1, r4
   2581c:	4632      	mov	r2, r6
   2581e:	4633      	mov	r3, r6
   25820:	df03      	svc	3
   25822:	4628      	mov	r0, r5
   25824:	4621      	mov	r1, r4
   25826:	4632      	mov	r2, r6
   25828:	4633      	mov	r3, r6
   2582a:	df03      	svc	3
   2582c:	4862      	ldr	r0, [pc, #392]	@ (259b8 <_start+0x58d4>)
   2582e:	4468      	add	r0, sp
   25830:	7881      	ldrb	r1, [r0, #2]
   25832:	4d62      	ldr	r5, [pc, #392]	@ (259bc <_start+0x58d8>)
   25834:	446d      	add	r5, sp
   25836:	70a9      	strb	r1, [r5, #2]
   25838:	9915      	ldr	r1, [sp, #84]	@ 0x54
   2583a:	6809      	ldr	r1, [r1, #0]
   2583c:	8029      	strh	r1, [r5, #0]
   2583e:	78c1      	ldrb	r1, [r0, #3]
   25840:	9116      	str	r1, [sp, #88]	@ 0x58
   25842:	7901      	ldrb	r1, [r0, #4]
   25844:	9114      	str	r1, [sp, #80]	@ 0x50
   25846:	7941      	ldrb	r1, [r0, #5]
   25848:	9113      	str	r1, [sp, #76]	@ 0x4c
   2584a:	7981      	ldrb	r1, [r0, #6]
   2584c:	9110      	str	r1, [sp, #64]	@ 0x40
   2584e:	1dc1      	adds	r1, r0, #7
   25850:	485f      	ldr	r0, [pc, #380]	@ (259d0 <_start+0x58ec>)
   25852:	4468      	add	r0, sp
   25854:	9012      	str	r0, [sp, #72]	@ 0x48
   25856:	2214      	movs	r2, #20
   25858:	9211      	str	r2, [sp, #68]	@ 0x44
   2585a:	f000 f9fe 	bl	25c5a <__aeabi_memcpy>
   2585e:	48d0      	ldr	r0, [pc, #832]	@ (25ba0 <_start+0x5abc>)
   25860:	4621      	mov	r1, r4
   25862:	4632      	mov	r2, r6
   25864:	4633      	mov	r3, r6
   25866:	df03      	svc	3
   25868:	2401      	movs	r4, #1
   2586a:	48cd      	ldr	r0, [pc, #820]	@ (25ba0 <_start+0x5abc>)
   2586c:	4621      	mov	r1, r4
   2586e:	4632      	mov	r2, r6
   25870:	4633      	mov	r3, r6
   25872:	df04      	svc	4
   25874:	9810      	ldr	r0, [sp, #64]	@ 0x40
   25876:	71a8      	strb	r0, [r5, #6]
   25878:	9813      	ldr	r0, [sp, #76]	@ 0x4c
   2587a:	7168      	strb	r0, [r5, #5]
   2587c:	9814      	ldr	r0, [sp, #80]	@ 0x50
   2587e:	7128      	strb	r0, [r5, #4]
   25880:	9816      	ldr	r0, [sp, #88]	@ 0x58
   25882:	70e8      	strb	r0, [r5, #3]
   25884:	1de8      	adds	r0, r5, #7
   25886:	9912      	ldr	r1, [sp, #72]	@ 0x48
   25888:	9a11      	ldr	r2, [sp, #68]	@ 0x44
   2588a:	f000 f9e6 	bl	25c5a <__aeabi_memcpy>
   2588e:	48c9      	ldr	r0, [pc, #804]	@ (25bb4 <_start+0x5ad0>)
   25890:	4468      	add	r0, sp
   25892:	2163      	movs	r1, #99	@ 0x63
   25894:	f000 f994 	bl	25bc0 <__aeabi_memclr4>
   25898:	48c2      	ldr	r0, [pc, #776]	@ (25ba4 <_start+0x5ac0>)
   2589a:	2103      	movs	r1, #3
   2589c:	231b      	movs	r3, #27
   2589e:	462a      	mov	r2, r5
   258a0:	df04      	svc	4
   258a2:	2802      	cmp	r0, #2
   258a4:	d00e      	beq.n	258c4 <_start+0x57e0>
   258a6:	48bf      	ldr	r0, [pc, #764]	@ (25ba4 <_start+0x5ac0>)
   258a8:	2103      	movs	r1, #3
   258aa:	4ac2      	ldr	r2, [pc, #776]	@ (25bb4 <_start+0x5ad0>)
   258ac:	446a      	add	r2, sp
   258ae:	2363      	movs	r3, #99	@ 0x63
   258b0:	df03      	svc	3
   258b2:	2802      	cmp	r0, #2
   258b4:	d006      	beq.n	258c4 <_start+0x57e0>
   258b6:	48bb      	ldr	r0, [pc, #748]	@ (25ba4 <_start+0x5ac0>)
   258b8:	2103      	movs	r1, #3
   258ba:	2300      	movs	r3, #0
   258bc:	460a      	mov	r2, r1
   258be:	df02      	svc	2
   258c0:	287f      	cmp	r0, #127	@ 0x7f
   258c2:	d80e      	bhi.n	258e2 <_start+0x57fe>
   258c4:	9116      	str	r1, [sp, #88]	@ 0x58
   258c6:	48b7      	ldr	r0, [pc, #732]	@ (25ba4 <_start+0x5ac0>)
   258c8:	2603      	movs	r6, #3
   258ca:	2500      	movs	r5, #0
   258cc:	4631      	mov	r1, r6
   258ce:	462a      	mov	r2, r5
   258d0:	462b      	mov	r3, r5
   258d2:	df03      	svc	3
   258d4:	48b3      	ldr	r0, [pc, #716]	@ (25ba4 <_start+0x5ac0>)
   258d6:	4631      	mov	r1, r6
   258d8:	462a      	mov	r2, r5
   258da:	462b      	mov	r3, r5
   258dc:	df04      	svc	4
   258de:	f7fa fc53 	bl	20188 <_start+0xa4>
   258e2:	48b0      	ldr	r0, [pc, #704]	@ (25ba4 <_start+0x5ac0>)
   258e4:	2503      	movs	r5, #3
   258e6:	2600      	movs	r6, #0
   258e8:	4629      	mov	r1, r5
   258ea:	9516      	str	r5, [sp, #88]	@ 0x58
   258ec:	4632      	mov	r2, r6
   258ee:	4633      	mov	r3, r6
   258f0:	df03      	svc	3
   258f2:	48ac      	ldr	r0, [pc, #688]	@ (25ba4 <_start+0x5ac0>)
   258f4:	4629      	mov	r1, r5
   258f6:	4632      	mov	r2, r6
   258f8:	4633      	mov	r3, r6
   258fa:	df03      	svc	3
   258fc:	48ad      	ldr	r0, [pc, #692]	@ (25bb4 <_start+0x5ad0>)
   258fe:	4468      	add	r0, sp
   25900:	7881      	ldrb	r1, [r0, #2]
   25902:	4dad      	ldr	r5, [pc, #692]	@ (25bb8 <_start+0x5ad4>)
   25904:	446d      	add	r5, sp
   25906:	70a9      	strb	r1, [r5, #2]
   25908:	9915      	ldr	r1, [sp, #84]	@ 0x54
   2590a:	6809      	ldr	r1, [r1, #0]
   2590c:	8029      	strh	r1, [r5, #0]
   2590e:	78c1      	ldrb	r1, [r0, #3]
   25910:	9115      	str	r1, [sp, #84]	@ 0x54
   25912:	7901      	ldrb	r1, [r0, #4]
   25914:	9114      	str	r1, [sp, #80]	@ 0x50
   25916:	7941      	ldrb	r1, [r0, #5]
   25918:	9113      	str	r1, [sp, #76]	@ 0x4c
   2591a:	7981      	ldrb	r1, [r0, #6]
   2591c:	9110      	str	r1, [sp, #64]	@ 0x40
   2591e:	1dc1      	adds	r1, r0, #7
   25920:	48a6      	ldr	r0, [pc, #664]	@ (25bbc <_start+0x5ad8>)
   25922:	4468      	add	r0, sp
   25924:	9012      	str	r0, [sp, #72]	@ 0x48
   25926:	225c      	movs	r2, #92	@ 0x5c
   25928:	9211      	str	r2, [sp, #68]	@ 0x44
   2592a:	f000 f996 	bl	25c5a <__aeabi_memcpy>
   2592e:	489d      	ldr	r0, [pc, #628]	@ (25ba4 <_start+0x5ac0>)
   25930:	9916      	ldr	r1, [sp, #88]	@ 0x58
   25932:	4632      	mov	r2, r6
   25934:	4633      	mov	r3, r6
   25936:	df03      	svc	3
   25938:	489a      	ldr	r0, [pc, #616]	@ (25ba4 <_start+0x5ac0>)
   2593a:	9916      	ldr	r1, [sp, #88]	@ 0x58
   2593c:	4632      	mov	r2, r6
   2593e:	4633      	mov	r3, r6
   25940:	df04      	svc	4
   25942:	9810      	ldr	r0, [sp, #64]	@ 0x40
   25944:	71a8      	strb	r0, [r5, #6]
   25946:	9813      	ldr	r0, [sp, #76]	@ 0x4c
   25948:	7168      	strb	r0, [r5, #5]
   2594a:	9814      	ldr	r0, [sp, #80]	@ 0x50
   2594c:	7128      	strb	r0, [r5, #4]
   2594e:	9815      	ldr	r0, [sp, #84]	@ 0x54
   25950:	70e8      	strb	r0, [r5, #3]
   25952:	1de8      	adds	r0, r5, #7
   25954:	9912      	ldr	r1, [sp, #72]	@ 0x48
   25956:	9a11      	ldr	r2, [sp, #68]	@ 0x44
   25958:	f000 f97f 	bl	25c5a <__aeabi_memcpy>
   2595c:	4894      	ldr	r0, [pc, #592]	@ (25bb0 <_start+0x5acc>)
   2595e:	4468      	add	r0, sp
   25960:	212c      	movs	r1, #44	@ 0x2c
   25962:	f000 f92d 	bl	25bc0 <__aeabi_memclr4>
   25966:	2018      	movs	r0, #24
   25968:	2105      	movs	r1, #5
   2596a:	2363      	movs	r3, #99	@ 0x63
   2596c:	462a      	mov	r2, r5
   2596e:	df04      	svc	4
   25970:	2802      	cmp	r0, #2
   25972:	d00e      	beq.n	25992 <_start+0x58ae>
   25974:	2018      	movs	r0, #24
   25976:	2103      	movs	r1, #3
   25978:	4a8d      	ldr	r2, [pc, #564]	@ (25bb0 <_start+0x5acc>)
   2597a:	446a      	add	r2, sp
   2597c:	232c      	movs	r3, #44	@ 0x2c
   2597e:	df03      	svc	3
   25980:	2802      	cmp	r0, #2
   25982:	d006      	beq.n	25992 <_start+0x58ae>
   25984:	2018      	movs	r0, #24
   25986:	2105      	movs	r1, #5
   25988:	2203      	movs	r2, #3
   2598a:	2300      	movs	r3, #0
   2598c:	df02      	svc	2
   2598e:	287f      	cmp	r0, #127	@ 0x7f
   25990:	d820      	bhi.n	259d4 <_start+0x58f0>
   25992:	9116      	str	r1, [sp, #88]	@ 0x58
   25994:	2518      	movs	r5, #24
   25996:	2103      	movs	r1, #3
   25998:	2600      	movs	r6, #0
   2599a:	4628      	mov	r0, r5
   2599c:	4632      	mov	r2, r6
   2599e:	4633      	mov	r3, r6
   259a0:	df03      	svc	3
   259a2:	2105      	movs	r1, #5
   259a4:	4628      	mov	r0, r5
   259a6:	4632      	mov	r2, r6
   259a8:	4633      	mov	r3, r6
   259aa:	df04      	svc	4
   259ac:	f7fa fbec 	bl	20188 <_start+0xa4>
   259b0:	00000c89 	.word	0x00000c89
   259b4:	0000060c 	.word	0x0000060c
   259b8:	00000684 	.word	0x00000684
   259bc:	000005b8 	.word	0x000005b8
   259c0:	000006e8 	.word	0x000006e8
   259c4:	00001aa9 	.word	0x00001aa9
   259c8:	00000610 	.word	0x00000610
   259cc:	000003d9 	.word	0x000003d9
   259d0:	00000614 	.word	0x00000614
   259d4:	2018      	movs	r0, #24
   259d6:	9016      	str	r0, [sp, #88]	@ 0x58
   259d8:	2603      	movs	r6, #3
   259da:	9615      	str	r6, [sp, #84]	@ 0x54
   259dc:	2500      	movs	r5, #0
   259de:	4631      	mov	r1, r6
   259e0:	462a      	mov	r2, r5
   259e2:	462b      	mov	r3, r5
   259e4:	df03      	svc	3
   259e6:	9816      	ldr	r0, [sp, #88]	@ 0x58
   259e8:	4631      	mov	r1, r6
   259ea:	462a      	mov	r2, r5
   259ec:	462b      	mov	r3, r5
   259ee:	df03      	svc	3
   259f0:	486f      	ldr	r0, [pc, #444]	@ (25bb0 <_start+0x5acc>)
   259f2:	4468      	add	r0, sp
   259f4:	7881      	ldrb	r1, [r0, #2]
   259f6:	4e6f      	ldr	r6, [pc, #444]	@ (25bb4 <_start+0x5ad0>)
   259f8:	446e      	add	r6, sp
   259fa:	70b1      	strb	r1, [r6, #2]
   259fc:	9908      	ldr	r1, [sp, #32]
   259fe:	6889      	ldr	r1, [r1, #8]
   25a00:	8031      	strh	r1, [r6, #0]
   25a02:	78c1      	ldrb	r1, [r0, #3]
   25a04:	9114      	str	r1, [sp, #80]	@ 0x50
   25a06:	7901      	ldrb	r1, [r0, #4]
   25a08:	9113      	str	r1, [sp, #76]	@ 0x4c
   25a0a:	7941      	ldrb	r1, [r0, #5]
   25a0c:	9112      	str	r1, [sp, #72]	@ 0x48
   25a0e:	7981      	ldrb	r1, [r0, #6]
   25a10:	9111      	str	r1, [sp, #68]	@ 0x44
   25a12:	1dc1      	adds	r1, r0, #7
   25a14:	a8fa      	add	r0, sp, #1000	@ 0x3e8
   25a16:	9010      	str	r0, [sp, #64]	@ 0x40
   25a18:	2225      	movs	r2, #37	@ 0x25
   25a1a:	920f      	str	r2, [sp, #60]	@ 0x3c
   25a1c:	f000 f91d 	bl	25c5a <__aeabi_memcpy>
   25a20:	9816      	ldr	r0, [sp, #88]	@ 0x58
   25a22:	9915      	ldr	r1, [sp, #84]	@ 0x54
   25a24:	462a      	mov	r2, r5
   25a26:	462b      	mov	r3, r5
   25a28:	df03      	svc	3
   25a2a:	2105      	movs	r1, #5
   25a2c:	9816      	ldr	r0, [sp, #88]	@ 0x58
   25a2e:	462a      	mov	r2, r5
   25a30:	462b      	mov	r3, r5
   25a32:	df04      	svc	4
   25a34:	1df0      	adds	r0, r6, #7
   25a36:	9910      	ldr	r1, [sp, #64]	@ 0x40
   25a38:	9a0f      	ldr	r2, [sp, #60]	@ 0x3c
   25a3a:	f000 f90e 	bl	25c5a <__aeabi_memcpy>
   25a3e:	9811      	ldr	r0, [sp, #68]	@ 0x44
   25a40:	71b0      	strb	r0, [r6, #6]
   25a42:	9812      	ldr	r0, [sp, #72]	@ 0x48
   25a44:	7170      	strb	r0, [r6, #5]
   25a46:	9813      	ldr	r0, [sp, #76]	@ 0x4c
   25a48:	7130      	strb	r0, [r6, #4]
   25a4a:	9814      	ldr	r0, [sp, #80]	@ 0x50
   25a4c:	70f0      	strb	r0, [r6, #3]
   25a4e:	4858      	ldr	r0, [pc, #352]	@ (25bb0 <_start+0x5acc>)
   25a50:	4468      	add	r0, sp
   25a52:	212a      	movs	r1, #42	@ 0x2a
   25a54:	f000 f8b4 	bl	25bc0 <__aeabi_memclr4>
   25a58:	4853      	ldr	r0, [pc, #332]	@ (25ba8 <_start+0x5ac4>)
   25a5a:	232c      	movs	r3, #44	@ 0x2c
   25a5c:	9915      	ldr	r1, [sp, #84]	@ 0x54
   25a5e:	4632      	mov	r2, r6
   25a60:	df04      	svc	4
   25a62:	2802      	cmp	r0, #2
   25a64:	d00e      	beq.n	25a84 <_start+0x59a0>
   25a66:	4850      	ldr	r0, [pc, #320]	@ (25ba8 <_start+0x5ac4>)
   25a68:	2100      	movs	r1, #0
   25a6a:	4a51      	ldr	r2, [pc, #324]	@ (25bb0 <_start+0x5acc>)
   25a6c:	446a      	add	r2, sp
   25a6e:	232a      	movs	r3, #42	@ 0x2a
   25a70:	df03      	svc	3
   25a72:	2802      	cmp	r0, #2
   25a74:	d006      	beq.n	25a84 <_start+0x59a0>
   25a76:	484c      	ldr	r0, [pc, #304]	@ (25ba8 <_start+0x5ac4>)
   25a78:	2103      	movs	r1, #3
   25a7a:	2200      	movs	r2, #0
   25a7c:	4613      	mov	r3, r2
   25a7e:	df02      	svc	2
   25a80:	287f      	cmp	r0, #127	@ 0x7f
   25a82:	d80e      	bhi.n	25aa2 <_start+0x59be>
   25a84:	9116      	str	r1, [sp, #88]	@ 0x58
   25a86:	4d48      	ldr	r5, [pc, #288]	@ (25ba8 <_start+0x5ac4>)
   25a88:	2600      	movs	r6, #0
   25a8a:	4628      	mov	r0, r5
   25a8c:	4631      	mov	r1, r6
   25a8e:	4632      	mov	r2, r6
   25a90:	4633      	mov	r3, r6
   25a92:	df03      	svc	3
   25a94:	2103      	movs	r1, #3
   25a96:	4628      	mov	r0, r5
   25a98:	4632      	mov	r2, r6
   25a9a:	4633      	mov	r3, r6
   25a9c:	df04      	svc	4
   25a9e:	f7fa fb73 	bl	20188 <_start+0xa4>
   25aa2:	4d41      	ldr	r5, [pc, #260]	@ (25ba8 <_start+0x5ac4>)
   25aa4:	2600      	movs	r6, #0
   25aa6:	4628      	mov	r0, r5
   25aa8:	4631      	mov	r1, r6
   25aaa:	4632      	mov	r2, r6
   25aac:	4633      	mov	r3, r6
   25aae:	df03      	svc	3
   25ab0:	4628      	mov	r0, r5
   25ab2:	4631      	mov	r1, r6
   25ab4:	4632      	mov	r2, r6
   25ab6:	4633      	mov	r3, r6
   25ab8:	df03      	svc	3
   25aba:	483d      	ldr	r0, [pc, #244]	@ (25bb0 <_start+0x5acc>)
   25abc:	4468      	add	r0, sp
   25abe:	7881      	ldrb	r1, [r0, #2]
   25ac0:	4d3d      	ldr	r5, [pc, #244]	@ (25bb8 <_start+0x5ad4>)
   25ac2:	446d      	add	r5, sp
   25ac4:	70a9      	strb	r1, [r5, #2]
   25ac6:	9908      	ldr	r1, [sp, #32]
   25ac8:	6889      	ldr	r1, [r1, #8]
   25aca:	8029      	strh	r1, [r5, #0]
   25acc:	78c1      	ldrb	r1, [r0, #3]
   25ace:	9116      	str	r1, [sp, #88]	@ 0x58
   25ad0:	7901      	ldrb	r1, [r0, #4]
   25ad2:	9115      	str	r1, [sp, #84]	@ 0x54
   25ad4:	7941      	ldrb	r1, [r0, #5]
   25ad6:	9114      	str	r1, [sp, #80]	@ 0x50
   25ad8:	7981      	ldrb	r1, [r0, #6]
   25ada:	9113      	str	r1, [sp, #76]	@ 0x4c
   25adc:	1dc1      	adds	r1, r0, #7
   25ade:	a8fa      	add	r0, sp, #1000	@ 0x3e8
   25ae0:	9012      	str	r0, [sp, #72]	@ 0x48
   25ae2:	2223      	movs	r2, #35	@ 0x23
   25ae4:	9211      	str	r2, [sp, #68]	@ 0x44
   25ae6:	f000 f8b8 	bl	25c5a <__aeabi_memcpy>
   25aea:	482f      	ldr	r0, [pc, #188]	@ (25ba8 <_start+0x5ac4>)
   25aec:	4631      	mov	r1, r6
   25aee:	4632      	mov	r2, r6
   25af0:	4633      	mov	r3, r6
   25af2:	df03      	svc	3
   25af4:	2103      	movs	r1, #3
   25af6:	482c      	ldr	r0, [pc, #176]	@ (25ba8 <_start+0x5ac4>)
   25af8:	4632      	mov	r2, r6
   25afa:	4633      	mov	r3, r6
   25afc:	df04      	svc	4
   25afe:	1de8      	adds	r0, r5, #7
   25b00:	9912      	ldr	r1, [sp, #72]	@ 0x48
   25b02:	9a11      	ldr	r2, [sp, #68]	@ 0x44
   25b04:	f000 f8a9 	bl	25c5a <__aeabi_memcpy>
   25b08:	9813      	ldr	r0, [sp, #76]	@ 0x4c
   25b0a:	71a8      	strb	r0, [r5, #6]
   25b0c:	9814      	ldr	r0, [sp, #80]	@ 0x50
   25b0e:	7168      	strb	r0, [r5, #5]
   25b10:	9815      	ldr	r0, [sp, #84]	@ 0x54
   25b12:	7128      	strb	r0, [r5, #4]
   25b14:	9816      	ldr	r0, [sp, #88]	@ 0x58
   25b16:	70e8      	strb	r0, [r5, #3]
   25b18:	4826      	ldr	r0, [pc, #152]	@ (25bb4 <_start+0x5ad0>)
   25b1a:	4468      	add	r0, sp
   25b1c:	2128      	movs	r1, #40	@ 0x28
   25b1e:	f000 f84f 	bl	25bc0 <__aeabi_memclr4>
   25b22:	4822      	ldr	r0, [pc, #136]	@ (25bac <_start+0x5ac8>)
   25b24:	2104      	movs	r1, #4
   25b26:	232a      	movs	r3, #42	@ 0x2a
   25b28:	462a      	mov	r2, r5
   25b2a:	df04      	svc	4
   25b2c:	2802      	cmp	r0, #2
   25b2e:	d00f      	beq.n	25b50 <_start+0x5a6c>
   25b30:	481e      	ldr	r0, [pc, #120]	@ (25bac <_start+0x5ac8>)
   25b32:	2108      	movs	r1, #8
   25b34:	4a1f      	ldr	r2, [pc, #124]	@ (25bb4 <_start+0x5ad0>)
   25b36:	446a      	add	r2, sp
   25b38:	2328      	movs	r3, #40	@ 0x28
   25b3a:	df03      	svc	3
   25b3c:	2802      	cmp	r0, #2
   25b3e:	d007      	beq.n	25b50 <_start+0x5a6c>
   25b40:	481a      	ldr	r0, [pc, #104]	@ (25bac <_start+0x5ac8>)
   25b42:	2104      	movs	r1, #4
   25b44:	2208      	movs	r2, #8
   25b46:	2600      	movs	r6, #0
   25b48:	4633      	mov	r3, r6
   25b4a:	df02      	svc	2
   25b4c:	287f      	cmp	r0, #127	@ 0x7f
   25b4e:	d80e      	bhi.n	25b6e <_start+0x5a8a>
   25b50:	9116      	str	r1, [sp, #88]	@ 0x58
   25b52:	4d16      	ldr	r5, [pc, #88]	@ (25bac <_start+0x5ac8>)
   25b54:	2108      	movs	r1, #8
   25b56:	2600      	movs	r6, #0
   25b58:	4628      	mov	r0, r5
   25b5a:	4632      	mov	r2, r6
   25b5c:	4633      	mov	r3, r6
   25b5e:	df03      	svc	3
   25b60:	2104      	movs	r1, #4
   25b62:	4628      	mov	r0, r5
   25b64:	4632      	mov	r2, r6
   25b66:	4633      	mov	r3, r6
   25b68:	df04      	svc	4
   25b6a:	f7fa fb0d 	bl	20188 <_start+0xa4>
   25b6e:	4c0f      	ldr	r4, [pc, #60]	@ (25bac <_start+0x5ac8>)
   25b70:	2508      	movs	r5, #8
   25b72:	4620      	mov	r0, r4
   25b74:	4629      	mov	r1, r5
   25b76:	4632      	mov	r2, r6
   25b78:	4633      	mov	r3, r6
   25b7a:	df03      	svc	3
   25b7c:	4620      	mov	r0, r4
   25b7e:	4629      	mov	r1, r5
   25b80:	4632      	mov	r2, r6
   25b82:	4633      	mov	r3, r6
   25b84:	df03      	svc	3
   25b86:	4620      	mov	r0, r4
   25b88:	4629      	mov	r1, r5
   25b8a:	4632      	mov	r2, r6
   25b8c:	4633      	mov	r3, r6
   25b8e:	df03      	svc	3
   25b90:	2104      	movs	r1, #4
   25b92:	4620      	mov	r0, r4
   25b94:	4632      	mov	r2, r6
   25b96:	4633      	mov	r3, r6
   25b98:	df04      	svc	4
   25b9a:	4634      	mov	r4, r6
   25b9c:	f7fa faf4 	bl	20188 <_start+0xa4>
   25ba0:	000003d9 	.word	0x000003d9
   25ba4:	00002548 	.word	0x00002548
   25ba8:	000024f0 	.word	0x000024f0
   25bac:	00001efa 	.word	0x00001efa
   25bb0:	000005b8 	.word	0x000005b8
   25bb4:	00000684 	.word	0x00000684
   25bb8:	000006e8 	.word	0x000006e8
   25bbc:	00000628 	.word	0x00000628

00025bc0 <__aeabi_memclr4>:
   25bc0:	b5f0      	push	{r4, r5, r6, r7, lr}
   25bc2:	af03      	add	r7, sp, #12
   25bc4:	2904      	cmp	r1, #4
   25bc6:	d311      	bcc.n	25bec <__aeabi_memclr4+0x2c>
   25bc8:	1f0c      	subs	r4, r1, #4
   25bca:	250c      	movs	r5, #12
   25bcc:	4025      	ands	r5, r4
   25bce:	2d0c      	cmp	r5, #12
   25bd0:	d012      	beq.n	25bf8 <__aeabi_memclr4+0x38>
   25bd2:	2600      	movs	r6, #0
   25bd4:	4602      	mov	r2, r0
   25bd6:	c240      	stmia	r2!, {r6}
   25bd8:	0723      	lsls	r3, r4, #28
   25bda:	0f9b      	lsrs	r3, r3, #30
   25bdc:	4623      	mov	r3, r4
   25bde:	d00d      	beq.n	25bfc <__aeabi_memclr4+0x3c>
   25be0:	6046      	str	r6, [r0, #4]
   25be2:	2d04      	cmp	r5, #4
   25be4:	d105      	bne.n	25bf2 <__aeabi_memclr4+0x32>
   25be6:	3908      	subs	r1, #8
   25be8:	3008      	adds	r0, #8
   25bea:	e005      	b.n	25bf8 <__aeabi_memclr4+0x38>
   25bec:	460b      	mov	r3, r1
   25bee:	4602      	mov	r2, r0
   25bf0:	e00f      	b.n	25c12 <__aeabi_memclr4+0x52>
   25bf2:	6086      	str	r6, [r0, #8]
   25bf4:	390c      	subs	r1, #12
   25bf6:	300c      	adds	r0, #12
   25bf8:	4602      	mov	r2, r0
   25bfa:	460b      	mov	r3, r1
   25bfc:	2c0c      	cmp	r4, #12
   25bfe:	d308      	bcc.n	25c12 <__aeabi_memclr4+0x52>
   25c00:	2000      	movs	r0, #0
   25c02:	6010      	str	r0, [r2, #0]
   25c04:	6050      	str	r0, [r2, #4]
   25c06:	6090      	str	r0, [r2, #8]
   25c08:	60d0      	str	r0, [r2, #12]
   25c0a:	3210      	adds	r2, #16
   25c0c:	3b10      	subs	r3, #16
   25c0e:	2b03      	cmp	r3, #3
   25c10:	d8f6      	bhi.n	25c00 <__aeabi_memclr4+0x40>
   25c12:	18d0      	adds	r0, r2, r3
   25c14:	4282      	cmp	r2, r0
   25c16:	d21a      	bcs.n	25c4e <__aeabi_memclr4+0x8e>
   25c18:	2403      	movs	r4, #3
   25c1a:	401c      	ands	r4, r3
   25c1c:	1e59      	subs	r1, r3, #1
   25c1e:	2c00      	cmp	r4, #0
   25c20:	d00b      	beq.n	25c3a <__aeabi_memclr4+0x7a>
   25c22:	2300      	movs	r3, #0
   25c24:	7013      	strb	r3, [r2, #0]
   25c26:	2c01      	cmp	r4, #1
   25c28:	d103      	bne.n	25c32 <__aeabi_memclr4+0x72>
   25c2a:	1c52      	adds	r2, r2, #1
   25c2c:	2903      	cmp	r1, #3
   25c2e:	d206      	bcs.n	25c3e <__aeabi_memclr4+0x7e>
   25c30:	e00d      	b.n	25c4e <__aeabi_memclr4+0x8e>
   25c32:	7053      	strb	r3, [r2, #1]
   25c34:	2c02      	cmp	r4, #2
   25c36:	d10b      	bne.n	25c50 <__aeabi_memclr4+0x90>
   25c38:	1c92      	adds	r2, r2, #2
   25c3a:	2903      	cmp	r1, #3
   25c3c:	d307      	bcc.n	25c4e <__aeabi_memclr4+0x8e>
   25c3e:	2100      	movs	r1, #0
   25c40:	70d1      	strb	r1, [r2, #3]
   25c42:	7091      	strb	r1, [r2, #2]
   25c44:	7051      	strb	r1, [r2, #1]
   25c46:	7011      	strb	r1, [r2, #0]
   25c48:	1d12      	adds	r2, r2, #4
   25c4a:	4282      	cmp	r2, r0
   25c4c:	d1f7      	bne.n	25c3e <__aeabi_memclr4+0x7e>
   25c4e:	bdf0      	pop	{r4, r5, r6, r7, pc}
   25c50:	7093      	strb	r3, [r2, #2]
   25c52:	1cd2      	adds	r2, r2, #3
   25c54:	2903      	cmp	r1, #3
   25c56:	d2f2      	bcs.n	25c3e <__aeabi_memclr4+0x7e>
   25c58:	e7f9      	b.n	25c4e <__aeabi_memclr4+0x8e>

00025c5a <__aeabi_memcpy>:
   25c5a:	b580      	push	{r7, lr}
   25c5c:	af00      	add	r7, sp, #0
   25c5e:	f000 f801 	bl	25c64 <_ZN17compiler_builtins3mem6memcpy17h1f9dbb1c3fd18e2fE>
   25c62:	bd80      	pop	{r7, pc}

00025c64 <_ZN17compiler_builtins3mem6memcpy17h1f9dbb1c3fd18e2fE>:
   25c64:	b5f0      	push	{r4, r5, r6, r7, lr}
   25c66:	af03      	add	r7, sp, #12
   25c68:	b08f      	sub	sp, #60	@ 0x3c
   25c6a:	2a10      	cmp	r2, #16
   25c6c:	d315      	bcc.n	25c9a <_ZN17compiler_builtins3mem6memcpy17h1f9dbb1c3fd18e2fE+0x36>
   25c6e:	920b      	str	r2, [sp, #44]	@ 0x2c
   25c70:	4242      	negs	r2, r0
   25c72:	2303      	movs	r3, #3
   25c74:	9308      	str	r3, [sp, #32]
   25c76:	401a      	ands	r2, r3
   25c78:	1885      	adds	r5, r0, r2
   25c7a:	900a      	str	r0, [sp, #40]	@ 0x28
   25c7c:	42a8      	cmp	r0, r5
   25c7e:	d22a      	bcs.n	25cd6 <_ZN17compiler_builtins3mem6memcpy17h1f9dbb1c3fd18e2fE+0x72>
   25c80:	1e54      	subs	r4, r2, #1
   25c82:	2a00      	cmp	r2, #0
   25c84:	980a      	ldr	r0, [sp, #40]	@ 0x28
   25c86:	4606      	mov	r6, r0
   25c88:	460b      	mov	r3, r1
   25c8a:	d016      	beq.n	25cba <_ZN17compiler_builtins3mem6memcpy17h1f9dbb1c3fd18e2fE+0x56>
   25c8c:	780b      	ldrb	r3, [r1, #0]
   25c8e:	7003      	strb	r3, [r0, #0]
   25c90:	2a01      	cmp	r2, #1
   25c92:	d107      	bne.n	25ca4 <_ZN17compiler_builtins3mem6memcpy17h1f9dbb1c3fd18e2fE+0x40>
   25c94:	1c4b      	adds	r3, r1, #1
   25c96:	1c46      	adds	r6, r0, #1
   25c98:	e00f      	b.n	25cba <_ZN17compiler_builtins3mem6memcpy17h1f9dbb1c3fd18e2fE+0x56>
   25c9a:	4603      	mov	r3, r0
   25c9c:	189c      	adds	r4, r3, r2
   25c9e:	42a3      	cmp	r3, r4
   25ca0:	d341      	bcc.n	25d26 <_ZN17compiler_builtins3mem6memcpy17h1f9dbb1c3fd18e2fE+0xc2>
   25ca2:	e062      	b.n	25d6a <_ZN17compiler_builtins3mem6memcpy17h1f9dbb1c3fd18e2fE+0x106>
   25ca4:	784b      	ldrb	r3, [r1, #1]
   25ca6:	7043      	strb	r3, [r0, #1]
   25ca8:	2a02      	cmp	r2, #2
   25caa:	d102      	bne.n	25cb2 <_ZN17compiler_builtins3mem6memcpy17h1f9dbb1c3fd18e2fE+0x4e>
   25cac:	1c8b      	adds	r3, r1, #2
   25cae:	1c86      	adds	r6, r0, #2
   25cb0:	e003      	b.n	25cba <_ZN17compiler_builtins3mem6memcpy17h1f9dbb1c3fd18e2fE+0x56>
   25cb2:	788b      	ldrb	r3, [r1, #2]
   25cb4:	7083      	strb	r3, [r0, #2]
   25cb6:	1ccb      	adds	r3, r1, #3
   25cb8:	1cc6      	adds	r6, r0, #3
   25cba:	2c03      	cmp	r4, #3
   25cbc:	d30b      	bcc.n	25cd6 <_ZN17compiler_builtins3mem6memcpy17h1f9dbb1c3fd18e2fE+0x72>
   25cbe:	781c      	ldrb	r4, [r3, #0]
   25cc0:	7034      	strb	r4, [r6, #0]
   25cc2:	785c      	ldrb	r4, [r3, #1]
   25cc4:	7074      	strb	r4, [r6, #1]
   25cc6:	789c      	ldrb	r4, [r3, #2]
   25cc8:	70b4      	strb	r4, [r6, #2]
   25cca:	78dc      	ldrb	r4, [r3, #3]
   25ccc:	70f4      	strb	r4, [r6, #3]
   25cce:	1d1b      	adds	r3, r3, #4
   25cd0:	1d36      	adds	r6, r6, #4
   25cd2:	42ae      	cmp	r6, r5
   25cd4:	d1f3      	bne.n	25cbe <_ZN17compiler_builtins3mem6memcpy17h1f9dbb1c3fd18e2fE+0x5a>
   25cd6:	980b      	ldr	r0, [sp, #44]	@ 0x2c
   25cd8:	1a80      	subs	r0, r0, r2
   25cda:	900b      	str	r0, [sp, #44]	@ 0x2c
   25cdc:	9c08      	ldr	r4, [sp, #32]
   25cde:	43a0      	bics	r0, r4
   25ce0:	182b      	adds	r3, r5, r0
   25ce2:	188e      	adds	r6, r1, r2
   25ce4:	9609      	str	r6, [sp, #36]	@ 0x24
   25ce6:	4026      	ands	r6, r4
   25ce8:	9007      	str	r0, [sp, #28]
   25cea:	d147      	bne.n	25d7c <_ZN17compiler_builtins3mem6memcpy17h1f9dbb1c3fd18e2fE+0x118>
   25cec:	429d      	cmp	r5, r3
   25cee:	9a0b      	ldr	r2, [sp, #44]	@ 0x2c
   25cf0:	9e09      	ldr	r6, [sp, #36]	@ 0x24
   25cf2:	d211      	bcs.n	25d18 <_ZN17compiler_builtins3mem6memcpy17h1f9dbb1c3fd18e2fE+0xb4>
   25cf4:	4631      	mov	r1, r6
   25cf6:	6808      	ldr	r0, [r1, #0]
   25cf8:	c501      	stmia	r5!, {r0}
   25cfa:	429d      	cmp	r5, r3
   25cfc:	d20c      	bcs.n	25d18 <_ZN17compiler_builtins3mem6memcpy17h1f9dbb1c3fd18e2fE+0xb4>
   25cfe:	6848      	ldr	r0, [r1, #4]
   25d00:	c501      	stmia	r5!, {r0}
   25d02:	429d      	cmp	r5, r3
   25d04:	d208      	bcs.n	25d18 <_ZN17compiler_builtins3mem6memcpy17h1f9dbb1c3fd18e2fE+0xb4>
   25d06:	6888      	ldr	r0, [r1, #8]
   25d08:	c501      	stmia	r5!, {r0}
   25d0a:	429d      	cmp	r5, r3
   25d0c:	d204      	bcs.n	25d18 <_ZN17compiler_builtins3mem6memcpy17h1f9dbb1c3fd18e2fE+0xb4>
   25d0e:	68c8      	ldr	r0, [r1, #12]
   25d10:	c501      	stmia	r5!, {r0}
   25d12:	3110      	adds	r1, #16
   25d14:	429d      	cmp	r5, r3
   25d16:	d3ee      	bcc.n	25cf6 <_ZN17compiler_builtins3mem6memcpy17h1f9dbb1c3fd18e2fE+0x92>
   25d18:	4022      	ands	r2, r4
   25d1a:	9807      	ldr	r0, [sp, #28]
   25d1c:	1831      	adds	r1, r6, r0
   25d1e:	980a      	ldr	r0, [sp, #40]	@ 0x28
   25d20:	189c      	adds	r4, r3, r2
   25d22:	42a3      	cmp	r3, r4
   25d24:	d221      	bcs.n	25d6a <_ZN17compiler_builtins3mem6memcpy17h1f9dbb1c3fd18e2fE+0x106>
   25d26:	2503      	movs	r5, #3
   25d28:	4015      	ands	r5, r2
   25d2a:	1e52      	subs	r2, r2, #1
   25d2c:	2d00      	cmp	r5, #0
   25d2e:	d00e      	beq.n	25d4e <_ZN17compiler_builtins3mem6memcpy17h1f9dbb1c3fd18e2fE+0xea>
   25d30:	780e      	ldrb	r6, [r1, #0]
   25d32:	701e      	strb	r6, [r3, #0]
   25d34:	2d01      	cmp	r5, #1
   25d36:	d104      	bne.n	25d42 <_ZN17compiler_builtins3mem6memcpy17h1f9dbb1c3fd18e2fE+0xde>
   25d38:	1c49      	adds	r1, r1, #1
   25d3a:	1c5b      	adds	r3, r3, #1
   25d3c:	2a03      	cmp	r2, #3
   25d3e:	d208      	bcs.n	25d52 <_ZN17compiler_builtins3mem6memcpy17h1f9dbb1c3fd18e2fE+0xee>
   25d40:	e013      	b.n	25d6a <_ZN17compiler_builtins3mem6memcpy17h1f9dbb1c3fd18e2fE+0x106>
   25d42:	784e      	ldrb	r6, [r1, #1]
   25d44:	705e      	strb	r6, [r3, #1]
   25d46:	2d02      	cmp	r5, #2
   25d48:	d111      	bne.n	25d6e <_ZN17compiler_builtins3mem6memcpy17h1f9dbb1c3fd18e2fE+0x10a>
   25d4a:	1c89      	adds	r1, r1, #2
   25d4c:	1c9b      	adds	r3, r3, #2
   25d4e:	2a03      	cmp	r2, #3
   25d50:	d30b      	bcc.n	25d6a <_ZN17compiler_builtins3mem6memcpy17h1f9dbb1c3fd18e2fE+0x106>
   25d52:	780a      	ldrb	r2, [r1, #0]
   25d54:	701a      	strb	r2, [r3, #0]
   25d56:	784a      	ldrb	r2, [r1, #1]
   25d58:	705a      	strb	r2, [r3, #1]
   25d5a:	788a      	ldrb	r2, [r1, #2]
   25d5c:	709a      	strb	r2, [r3, #2]
   25d5e:	78ca      	ldrb	r2, [r1, #3]
   25d60:	70da      	strb	r2, [r3, #3]
   25d62:	1d09      	adds	r1, r1, #4
   25d64:	1d1b      	adds	r3, r3, #4
   25d66:	42a3      	cmp	r3, r4
   25d68:	d1f3      	bne.n	25d52 <_ZN17compiler_builtins3mem6memcpy17h1f9dbb1c3fd18e2fE+0xee>
   25d6a:	b00f      	add	sp, #60	@ 0x3c
   25d6c:	bdf0      	pop	{r4, r5, r6, r7, pc}
   25d6e:	788d      	ldrb	r5, [r1, #2]
   25d70:	709d      	strb	r5, [r3, #2]
   25d72:	1cc9      	adds	r1, r1, #3
   25d74:	1cdb      	adds	r3, r3, #3
   25d76:	2a03      	cmp	r2, #3
   25d78:	d2eb      	bcs.n	25d52 <_ZN17compiler_builtins3mem6memcpy17h1f9dbb1c3fd18e2fE+0xee>
   25d7a:	e7f6      	b.n	25d6a <_ZN17compiler_builtins3mem6memcpy17h1f9dbb1c3fd18e2fE+0x106>
   25d7c:	2400      	movs	r4, #0
   25d7e:	9406      	str	r4, [sp, #24]
   25d80:	940e      	str	r4, [sp, #56]	@ 0x38
   25d82:	ac0e      	add	r4, sp, #56	@ 0x38
   25d84:	19a4      	adds	r4, r4, r6
   25d86:	9405      	str	r4, [sp, #20]
   25d88:	2404      	movs	r4, #4
   25d8a:	1ba4      	subs	r4, r4, r6
   25d8c:	9404      	str	r4, [sp, #16]
   25d8e:	07e4      	lsls	r4, r4, #31
   25d90:	9600      	str	r6, [sp, #0]
   25d92:	d006      	beq.n	25da2 <_ZN17compiler_builtins3mem6memcpy17h1f9dbb1c3fd18e2fE+0x13e>
   25d94:	9c09      	ldr	r4, [sp, #36]	@ 0x24
   25d96:	7824      	ldrb	r4, [r4, #0]
   25d98:	9e05      	ldr	r6, [sp, #20]
   25d9a:	7034      	strb	r4, [r6, #0]
   25d9c:	9e00      	ldr	r6, [sp, #0]
   25d9e:	2401      	movs	r4, #1
   25da0:	9406      	str	r4, [sp, #24]
   25da2:	9c04      	ldr	r4, [sp, #16]
   25da4:	07a4      	lsls	r4, r4, #30
   25da6:	d508      	bpl.n	25dba <_ZN17compiler_builtins3mem6memcpy17h1f9dbb1c3fd18e2fE+0x156>
   25da8:	9c09      	ldr	r4, [sp, #36]	@ 0x24
   25daa:	9204      	str	r2, [sp, #16]
   25dac:	9a06      	ldr	r2, [sp, #24]
   25dae:	5aa4      	ldrh	r4, [r4, r2]
   25db0:	9e05      	ldr	r6, [sp, #20]
   25db2:	9a06      	ldr	r2, [sp, #24]
   25db4:	52b4      	strh	r4, [r6, r2]
   25db6:	9a04      	ldr	r2, [sp, #16]
   25db8:	9e00      	ldr	r6, [sp, #0]
   25dba:	00f4      	lsls	r4, r6, #3
   25dbc:	9403      	str	r4, [sp, #12]
   25dbe:	9c0e      	ldr	r4, [sp, #56]	@ 0x38
   25dc0:	9406      	str	r4, [sp, #24]
   25dc2:	1d2c      	adds	r4, r5, #4
   25dc4:	429c      	cmp	r4, r3
   25dc6:	d236      	bcs.n	25e36 <_ZN17compiler_builtins3mem6memcpy17h1f9dbb1c3fd18e2fE+0x1d2>
   25dc8:	4274      	negs	r4, r6
   25dca:	1909      	adds	r1, r1, r4
   25dcc:	9105      	str	r1, [sp, #20]
   25dce:	9d03      	ldr	r5, [sp, #12]
   25dd0:	4269      	negs	r1, r5
   25dd2:	2418      	movs	r4, #24
   25dd4:	400c      	ands	r4, r1
   25dd6:	9402      	str	r4, [sp, #8]
   25dd8:	990a      	ldr	r1, [sp, #40]	@ 0x28
   25dda:	9104      	str	r1, [sp, #16]
   25ddc:	4629      	mov	r1, r5
   25dde:	9c06      	ldr	r4, [sp, #24]
   25de0:	40cc      	lsrs	r4, r1
   25de2:	9406      	str	r4, [sp, #24]
   25de4:	9905      	ldr	r1, [sp, #20]
   25de6:	1889      	adds	r1, r1, r2
   25de8:	9101      	str	r1, [sp, #4]
   25dea:	6849      	ldr	r1, [r1, #4]
   25dec:	460c      	mov	r4, r1
   25dee:	9d02      	ldr	r5, [sp, #8]
   25df0:	40ac      	lsls	r4, r5
   25df2:	9d06      	ldr	r5, [sp, #24]
   25df4:	432c      	orrs	r4, r5
   25df6:	9d04      	ldr	r5, [sp, #16]
   25df8:	50ac      	str	r4, [r5, r2]
   25dfa:	18ad      	adds	r5, r5, r2
   25dfc:	462c      	mov	r4, r5
   25dfe:	3408      	adds	r4, #8
   25e00:	429c      	cmp	r4, r3
   25e02:	d21c      	bcs.n	25e3e <_ZN17compiler_builtins3mem6memcpy17h1f9dbb1c3fd18e2fE+0x1da>
   25e04:	9c03      	ldr	r4, [sp, #12]
   25e06:	40e1      	lsrs	r1, r4
   25e08:	9c01      	ldr	r4, [sp, #4]
   25e0a:	68a4      	ldr	r4, [r4, #8]
   25e0c:	9406      	str	r4, [sp, #24]
   25e0e:	9501      	str	r5, [sp, #4]
   25e10:	9d02      	ldr	r5, [sp, #8]
   25e12:	40ac      	lsls	r4, r5
   25e14:	430c      	orrs	r4, r1
   25e16:	9901      	ldr	r1, [sp, #4]
   25e18:	604c      	str	r4, [r1, #4]
   25e1a:	9904      	ldr	r1, [sp, #16]
   25e1c:	3108      	adds	r1, #8
   25e1e:	9104      	str	r1, [sp, #16]
   25e20:	188d      	adds	r5, r1, r2
   25e22:	1d29      	adds	r1, r5, #4
   25e24:	9c05      	ldr	r4, [sp, #20]
   25e26:	3408      	adds	r4, #8
   25e28:	9405      	str	r4, [sp, #20]
   25e2a:	4299      	cmp	r1, r3
   25e2c:	9903      	ldr	r1, [sp, #12]
   25e2e:	d3d6      	bcc.n	25dde <_ZN17compiler_builtins3mem6memcpy17h1f9dbb1c3fd18e2fE+0x17a>
   25e30:	9805      	ldr	r0, [sp, #20]
   25e32:	1880      	adds	r0, r0, r2
   25e34:	e001      	b.n	25e3a <_ZN17compiler_builtins3mem6memcpy17h1f9dbb1c3fd18e2fE+0x1d6>
   25e36:	9809      	ldr	r0, [sp, #36]	@ 0x24
   25e38:	1b80      	subs	r0, r0, r6
   25e3a:	9005      	str	r0, [sp, #20]
   25e3c:	e004      	b.n	25e48 <_ZN17compiler_builtins3mem6memcpy17h1f9dbb1c3fd18e2fE+0x1e4>
   25e3e:	9801      	ldr	r0, [sp, #4]
   25e40:	1d00      	adds	r0, r0, #4
   25e42:	9005      	str	r0, [sp, #20]
   25e44:	1d2d      	adds	r5, r5, #4
   25e46:	9106      	str	r1, [sp, #24]
   25e48:	a80d      	add	r0, sp, #52	@ 0x34
   25e4a:	2100      	movs	r1, #0
   25e4c:	9004      	str	r0, [sp, #16]
   25e4e:	7001      	strb	r1, [r0, #0]
   25e50:	a80c      	add	r0, sp, #48	@ 0x30
   25e52:	7001      	strb	r1, [r0, #0]
   25e54:	2e01      	cmp	r6, #1
   25e56:	460e      	mov	r6, r1
   25e58:	460c      	mov	r4, r1
   25e5a:	9102      	str	r1, [sp, #8]
   25e5c:	9a0b      	ldr	r2, [sp, #44]	@ 0x2c
   25e5e:	d009      	beq.n	25e74 <_ZN17compiler_builtins3mem6memcpy17h1f9dbb1c3fd18e2fE+0x210>
   25e60:	9c05      	ldr	r4, [sp, #20]
   25e62:	7960      	ldrb	r0, [r4, #5]
   25e64:	7926      	ldrb	r6, [r4, #4]
   25e66:	ac0d      	add	r4, sp, #52	@ 0x34
   25e68:	7026      	strb	r6, [r4, #0]
   25e6a:	0204      	lsls	r4, r0, #8
   25e6c:	2002      	movs	r0, #2
   25e6e:	9002      	str	r0, [sp, #8]
   25e70:	a80c      	add	r0, sp, #48	@ 0x30
   25e72:	9004      	str	r0, [sp, #16]
   25e74:	9809      	ldr	r0, [sp, #36]	@ 0x24
   25e76:	07c0      	lsls	r0, r0, #31
   25e78:	d00a      	beq.n	25e90 <_ZN17compiler_builtins3mem6memcpy17h1f9dbb1c3fd18e2fE+0x22c>
   25e7a:	9805      	ldr	r0, [sp, #20]
   25e7c:	1d00      	adds	r0, r0, #4
   25e7e:	9902      	ldr	r1, [sp, #8]
   25e80:	5c40      	ldrb	r0, [r0, r1]
   25e82:	9904      	ldr	r1, [sp, #16]
   25e84:	7008      	strb	r0, [r1, #0]
   25e86:	a80d      	add	r0, sp, #52	@ 0x34
   25e88:	7806      	ldrb	r6, [r0, #0]
   25e8a:	a80c      	add	r0, sp, #48	@ 0x30
   25e8c:	7800      	ldrb	r0, [r0, #0]
   25e8e:	0401      	lsls	r1, r0, #16
   25e90:	9605      	str	r6, [sp, #20]
   25e92:	9803      	ldr	r0, [sp, #12]
   25e94:	4240      	negs	r0, r0
   25e96:	9004      	str	r0, [sp, #16]
   25e98:	2618      	movs	r6, #24
   25e9a:	9804      	ldr	r0, [sp, #16]
   25e9c:	4006      	ands	r6, r0
   25e9e:	430c      	orrs	r4, r1
   25ea0:	9905      	ldr	r1, [sp, #20]
   25ea2:	430c      	orrs	r4, r1
   25ea4:	40b4      	lsls	r4, r6
   25ea6:	9906      	ldr	r1, [sp, #24]
   25ea8:	9803      	ldr	r0, [sp, #12]
   25eaa:	40c1      	lsrs	r1, r0
   25eac:	4321      	orrs	r1, r4
   25eae:	6029      	str	r1, [r5, #0]
   25eb0:	9c08      	ldr	r4, [sp, #32]
   25eb2:	9e09      	ldr	r6, [sp, #36]	@ 0x24
   25eb4:	e730      	b.n	25d18 <_ZN17compiler_builtins3mem6memcpy17h1f9dbb1c3fd18e2fE+0xb4>
