
target/riscv32imc-unknown-none-elf/opt-1/examples/complex_full_dynamic:     file format elf32-littleriscv

Sections:
Idx Name          Size      VMA       LMA       File off  Algn
  0 .eh_frame     00000060  000100d4  000100d4  000000d4  2**2
                  CONTENTS, ALLOC, LOAD, READONLY, DATA
  1 .text         0000bb8e  00011134  00011134  00000134  2**1
                  CONTENTS, ALLOC, LOAD, READONLY, CODE
  2 .comment      0000008b  00000000  00000000  0000bcc2  2**0
                  CONTENTS, READONLY
  3 .riscv.attributes 0000002f  00000000  00000000  0000bd4d  2**0
                  CONTENTS, READONLY

Disassembly of section .text:

00011134 <_ZN20complex_full_dynamic3app17h004510df495828deE>:
   11134:	7131                	addi	sp,sp,-192
   11136:	df06                	sw	ra,188(sp)
   11138:	dd22                	sw	s0,184(sp)
   1113a:	db26                	sw	s1,180(sp)
   1113c:	d94a                	sw	s2,176(sp)
   1113e:	d74e                	sw	s3,172(sp)
   11140:	89aa                	mv	s3,a0
   11142:	4409                	li	s0,2
   11144:	00810823          	sb	s0,16(sp)
   11148:	0844                	addi	s1,sp,20
   1114a:	05500613          	li	a2,85
   1114e:	8526                	mv	a0,s1
   11150:	0000c097          	auipc	ra,0xc
   11154:	9cc080e7          	jalr	-1588(ra) # 1cb1c <memcpy>
   11158:	07810913          	addi	s2,sp,120
   1115c:	03200613          	li	a2,50
   11160:	854a                	mv	a0,s2
   11162:	4581                	li	a1,0
   11164:	0000c097          	auipc	ra,0xc
   11168:	94c080e7          	jalr	-1716(ra) # 1cab0 <memset>
   1116c:	8626                	mv	a2,s1
   1116e:	06810a23          	sb	s0,116(sp)
   11172:	6509                	lui	a0,0x2
   11174:	44a1                	li	s1,8
   11176:	4811                	li	a6,4
   11178:	45a1                	li	a1,8
   1117a:	09550793          	addi	a5,a0,149 # 2095 <.Lline_table_start1+0x1e6a>
   1117e:	05500693          	li	a3,85
   11182:	4711                	li	a4,4
   11184:	853e                	mv	a0,a5
   11186:	00000073          	ecall
   1118a:	00850663          	beq	a0,s0,11196 <_ZN20complex_full_dynamic3app17h004510df495828deE+0x62>
   1118e:	c43e                	sw	a5,8(sp)
   11190:	c626                	sw	s1,12(sp)
   11192:	01010823          	sb	a6,16(sp)
   11196:	4609                	li	a2,2
   11198:	00c51463          	bne	a0,a2,111a0 <_ZN20complex_full_dynamic3app17h004510df495828deE+0x6c>
   1119c:	4485                	li	s1,1
   1119e:	a89d                	j	11214 <_ZN20complex_full_dynamic3app17h004510df495828deE+0xe0>
   111a0:	07414503          	lbu	a0,116(sp)
   111a4:	4485                	li	s1,1
   111a6:	02c51563          	bne	a0,a2,111d0 <_ZN20complex_full_dynamic3app17h004510df495828deE+0x9c>
   111aa:	864a                	mv	a2,s2
   111ac:	6509                	lui	a0,0x2
   111ae:	4821                	li	a6,8
   111b0:	45a1                	li	a1,8
   111b2:	03200693          	li	a3,50
   111b6:	470d                	li	a4,3
   111b8:	09550793          	addi	a5,a0,149 # 2095 <.Lline_table_start1+0x1e6a>
   111bc:	4409                	li	s0,2
   111be:	853e                	mv	a0,a5
   111c0:	00000073          	ecall
   111c4:	460d                	li	a2,3
   111c6:	00851963          	bne	a0,s0,111d8 <_ZN20complex_full_dynamic3app17h004510df495828deE+0xa4>
   111ca:	4505                	li	a0,1
   111cc:	cd01                	beqz	a0,111e4 <_ZN20complex_full_dynamic3app17h004510df495828deE+0xb0>
   111ce:	a099                	j	11214 <_ZN20complex_full_dynamic3app17h004510df495828deE+0xe0>
   111d0:	458d                	li	a1,3
   111d2:	4505                	li	a0,1
   111d4:	c901                	beqz	a0,111e4 <_ZN20complex_full_dynamic3app17h004510df495828deE+0xb0>
   111d6:	a83d                	j	11214 <_ZN20complex_full_dynamic3app17h004510df495828deE+0xe0>
   111d8:	4501                	li	a0,0
   111da:	d6be                	sw	a5,108(sp)
   111dc:	d8c2                	sw	a6,112(sp)
   111de:	06c10a23          	sb	a2,116(sp)
   111e2:	e90d                	bnez	a0,11214 <_ZN20complex_full_dynamic3app17h004510df495828deE+0xe0>
   111e4:	6509                	lui	a0,0x2
   111e6:	45a1                	li	a1,8
   111e8:	4621                	li	a2,8
   111ea:	09550513          	addi	a0,a0,149 # 2095 <.Lline_table_start1+0x1e6a>
   111ee:	4709                	li	a4,2
   111f0:	07f00793          	li	a5,127
   111f4:	4681                	li	a3,0
   111f6:	00000073          	ecall
   111fa:	00a7fd63          	bgeu	a5,a0,11214 <_ZN20complex_full_dynamic3app17h004510df495828deE+0xe0>
   111fe:	0028                	addi	a0,sp,8
   11200:	0000c097          	auipc	ra,0xc
   11204:	890080e7          	jalr	-1904(ra) # 1ca90 <_ZN9allow_pin12full_dynamic17unshare_if_shared17h4e6b4433fd7c2282E>
   11208:	10e8                	addi	a0,sp,108
   1120a:	0000c097          	auipc	ra,0xc
   1120e:	886080e7          	jalr	-1914(ra) # 1ca90 <_ZN9allow_pin12full_dynamic17unshare_if_shared17h4e6b4433fd7c2282E>
   11212:	4481                	li	s1,0
   11214:	c489                	beqz	s1,1121e <_ZN20complex_full_dynamic3app17h004510df495828deE+0xea>
   11216:	00b9a223          	sw	a1,4(s3)
   1121a:	4505                	li	a0,1
   1121c:	a005                	j	1123c <_ZN20complex_full_dynamic3app17h004510df495828deE+0x108>
   1121e:	10e8                	addi	a0,sp,108
   11220:	0000c097          	auipc	ra,0xc
   11224:	870080e7          	jalr	-1936(ra) # 1ca90 <_ZN9allow_pin12full_dynamic17unshare_if_shared17h4e6b4433fd7c2282E>
   11228:	00198513          	addi	a0,s3,1
   1122c:	03200613          	li	a2,50
   11230:	85ca                	mv	a1,s2
   11232:	0000c097          	auipc	ra,0xc
   11236:	8ea080e7          	jalr	-1814(ra) # 1cb1c <memcpy>
   1123a:	4501                	li	a0,0
   1123c:	00a98023          	sb	a0,0(s3)
   11240:	10e8                	addi	a0,sp,108
   11242:	0000c097          	auipc	ra,0xc
   11246:	84e080e7          	jalr	-1970(ra) # 1ca90 <_ZN9allow_pin12full_dynamic17unshare_if_shared17h4e6b4433fd7c2282E>
   1124a:	0028                	addi	a0,sp,8
   1124c:	0000c097          	auipc	ra,0xc
   11250:	844080e7          	jalr	-1980(ra) # 1ca90 <_ZN9allow_pin12full_dynamic17unshare_if_shared17h4e6b4433fd7c2282E>
   11254:	50fa                	lw	ra,188(sp)
   11256:	546a                	lw	s0,184(sp)
   11258:	54da                	lw	s1,180(sp)
   1125a:	594a                	lw	s2,176(sp)
   1125c:	59ba                	lw	s3,172(sp)
   1125e:	6129                	addi	sp,sp,192
   11260:	8082                	ret

00011262 <_ZN20complex_full_dynamic3app17h061b56519d4ea497E>:
   11262:	7119                	addi	sp,sp,-128
   11264:	de86                	sw	ra,124(sp)
   11266:	dca2                	sw	s0,120(sp)
   11268:	daa6                	sw	s1,116(sp)
   1126a:	d8ca                	sw	s2,112(sp)
   1126c:	d6ce                	sw	s3,108(sp)
   1126e:	89aa                	mv	s3,a0
   11270:	4409                	li	s0,2
   11272:	00810423          	sb	s0,8(sp)
   11276:	0064                	addi	s1,sp,12
   11278:	02a00613          	li	a2,42
   1127c:	8526                	mv	a0,s1
   1127e:	0000c097          	auipc	ra,0xc
   11282:	89e080e7          	jalr	-1890(ra) # 1cb1c <memcpy>
   11286:	04410913          	addi	s2,sp,68
   1128a:	02800613          	li	a2,40
   1128e:	854a                	mv	a0,s2
   11290:	4581                	li	a1,0
   11292:	0000c097          	auipc	ra,0xc
   11296:	81e080e7          	jalr	-2018(ra) # 1cab0 <memset>
   1129a:	8626                	mv	a2,s1
   1129c:	04810023          	sb	s0,64(sp)
   112a0:	6509                	lui	a0,0x2
   112a2:	4491                	li	s1,4
   112a4:	4591                	li	a1,4
   112a6:	efa50793          	addi	a5,a0,-262 # 1efa <.Lline_table_start1+0x1ccf>
   112aa:	02a00693          	li	a3,42
   112ae:	4711                	li	a4,4
   112b0:	853e                	mv	a0,a5
   112b2:	00000073          	ecall
   112b6:	00850663          	beq	a0,s0,112c2 <_ZN20complex_full_dynamic3app17h061b56519d4ea497E+0x60>
   112ba:	c03e                	sw	a5,0(sp)
   112bc:	c226                	sw	s1,4(sp)
   112be:	00910423          	sb	s1,8(sp)
   112c2:	4609                	li	a2,2
   112c4:	00c51463          	bne	a0,a2,112cc <_ZN20complex_full_dynamic3app17h061b56519d4ea497E+0x6a>
   112c8:	4485                	li	s1,1
   112ca:	a89d                	j	11340 <_ZN20complex_full_dynamic3app17h061b56519d4ea497E+0xde>
   112cc:	04014503          	lbu	a0,64(sp)
   112d0:	4485                	li	s1,1
   112d2:	02c51563          	bne	a0,a2,112fc <_ZN20complex_full_dynamic3app17h061b56519d4ea497E+0x9a>
   112d6:	864a                	mv	a2,s2
   112d8:	6509                	lui	a0,0x2
   112da:	4821                	li	a6,8
   112dc:	45a1                	li	a1,8
   112de:	02800693          	li	a3,40
   112e2:	470d                	li	a4,3
   112e4:	efa50793          	addi	a5,a0,-262 # 1efa <.Lline_table_start1+0x1ccf>
   112e8:	4409                	li	s0,2
   112ea:	853e                	mv	a0,a5
   112ec:	00000073          	ecall
   112f0:	460d                	li	a2,3
   112f2:	00851963          	bne	a0,s0,11304 <_ZN20complex_full_dynamic3app17h061b56519d4ea497E+0xa2>
   112f6:	4505                	li	a0,1
   112f8:	cd01                	beqz	a0,11310 <_ZN20complex_full_dynamic3app17h061b56519d4ea497E+0xae>
   112fa:	a099                	j	11340 <_ZN20complex_full_dynamic3app17h061b56519d4ea497E+0xde>
   112fc:	458d                	li	a1,3
   112fe:	4505                	li	a0,1
   11300:	c901                	beqz	a0,11310 <_ZN20complex_full_dynamic3app17h061b56519d4ea497E+0xae>
   11302:	a83d                	j	11340 <_ZN20complex_full_dynamic3app17h061b56519d4ea497E+0xde>
   11304:	4501                	li	a0,0
   11306:	dc3e                	sw	a5,56(sp)
   11308:	de42                	sw	a6,60(sp)
   1130a:	04c10023          	sb	a2,64(sp)
   1130e:	e90d                	bnez	a0,11340 <_ZN20complex_full_dynamic3app17h061b56519d4ea497E+0xde>
   11310:	6509                	lui	a0,0x2
   11312:	4591                	li	a1,4
   11314:	4621                	li	a2,8
   11316:	efa50513          	addi	a0,a0,-262 # 1efa <.Lline_table_start1+0x1ccf>
   1131a:	4709                	li	a4,2
   1131c:	07f00793          	li	a5,127
   11320:	4681                	li	a3,0
   11322:	00000073          	ecall
   11326:	00a7fd63          	bgeu	a5,a0,11340 <_ZN20complex_full_dynamic3app17h061b56519d4ea497E+0xde>
   1132a:	850a                	mv	a0,sp
   1132c:	0000b097          	auipc	ra,0xb
   11330:	764080e7          	jalr	1892(ra) # 1ca90 <_ZN9allow_pin12full_dynamic17unshare_if_shared17h4e6b4433fd7c2282E>
   11334:	1828                	addi	a0,sp,56
   11336:	0000b097          	auipc	ra,0xb
   1133a:	75a080e7          	jalr	1882(ra) # 1ca90 <_ZN9allow_pin12full_dynamic17unshare_if_shared17h4e6b4433fd7c2282E>
   1133e:	4481                	li	s1,0
   11340:	c489                	beqz	s1,1134a <_ZN20complex_full_dynamic3app17h061b56519d4ea497E+0xe8>
   11342:	00b9a223          	sw	a1,4(s3)
   11346:	4505                	li	a0,1
   11348:	a005                	j	11368 <_ZN20complex_full_dynamic3app17h061b56519d4ea497E+0x106>
   1134a:	1828                	addi	a0,sp,56
   1134c:	0000b097          	auipc	ra,0xb
   11350:	744080e7          	jalr	1860(ra) # 1ca90 <_ZN9allow_pin12full_dynamic17unshare_if_shared17h4e6b4433fd7c2282E>
   11354:	00198513          	addi	a0,s3,1
   11358:	02800613          	li	a2,40
   1135c:	85ca                	mv	a1,s2
   1135e:	0000b097          	auipc	ra,0xb
   11362:	7be080e7          	jalr	1982(ra) # 1cb1c <memcpy>
   11366:	4501                	li	a0,0
   11368:	00a98023          	sb	a0,0(s3)
   1136c:	1828                	addi	a0,sp,56
   1136e:	0000b097          	auipc	ra,0xb
   11372:	722080e7          	jalr	1826(ra) # 1ca90 <_ZN9allow_pin12full_dynamic17unshare_if_shared17h4e6b4433fd7c2282E>
   11376:	850a                	mv	a0,sp
   11378:	0000b097          	auipc	ra,0xb
   1137c:	718080e7          	jalr	1816(ra) # 1ca90 <_ZN9allow_pin12full_dynamic17unshare_if_shared17h4e6b4433fd7c2282E>
   11380:	50f6                	lw	ra,124(sp)
   11382:	5466                	lw	s0,120(sp)
   11384:	54d6                	lw	s1,116(sp)
   11386:	5946                	lw	s2,112(sp)
   11388:	59b6                	lw	s3,108(sp)
   1138a:	6109                	addi	sp,sp,128
   1138c:	8082                	ret

0001138e <_ZN20complex_full_dynamic3app17h1181a95da0b5bef9E>:
   1138e:	7135                	addi	sp,sp,-160
   11390:	cf06                	sw	ra,156(sp)
   11392:	cd22                	sw	s0,152(sp)
   11394:	cb26                	sw	s1,148(sp)
   11396:	c94a                	sw	s2,144(sp)
   11398:	c74e                	sw	s3,140(sp)
   1139a:	89aa                	mv	s3,a0
   1139c:	4409                	li	s0,2
   1139e:	00810423          	sb	s0,8(sp)
   113a2:	0064                	addi	s1,sp,12
   113a4:	4679                	li	a2,30
   113a6:	8526                	mv	a0,s1
   113a8:	0000b097          	auipc	ra,0xb
   113ac:	774080e7          	jalr	1908(ra) # 1cb1c <memcpy>
   113b0:	03810913          	addi	s2,sp,56
   113b4:	05100613          	li	a2,81
   113b8:	854a                	mv	a0,s2
   113ba:	4581                	li	a1,0
   113bc:	0000b097          	auipc	ra,0xb
   113c0:	6f4080e7          	jalr	1780(ra) # 1cab0 <memset>
   113c4:	8626                	mv	a2,s1
   113c6:	02810a23          	sb	s0,52(sp)
   113ca:	6509                	lui	a0,0x2
   113cc:	4491                	li	s1,4
   113ce:	4589                	li	a1,2
   113d0:	96b50793          	addi	a5,a0,-1685 # 196b <.Lline_table_start1+0x1740>
   113d4:	46f9                	li	a3,30
   113d6:	4711                	li	a4,4
   113d8:	853e                	mv	a0,a5
   113da:	00000073          	ecall
   113de:	00850663          	beq	a0,s0,113ea <_ZN20complex_full_dynamic3app17h1181a95da0b5bef9E+0x5c>
   113e2:	c03e                	sw	a5,0(sp)
   113e4:	c222                	sw	s0,4(sp)
   113e6:	00910423          	sb	s1,8(sp)
   113ea:	4609                	li	a2,2
   113ec:	00c51463          	bne	a0,a2,113f4 <_ZN20complex_full_dynamic3app17h1181a95da0b5bef9E+0x66>
   113f0:	4485                	li	s1,1
   113f2:	a895                	j	11466 <_ZN20complex_full_dynamic3app17h1181a95da0b5bef9E+0xd8>
   113f4:	03414503          	lbu	a0,52(sp)
   113f8:	4485                	li	s1,1
   113fa:	02c51463          	bne	a0,a2,11422 <_ZN20complex_full_dynamic3app17h1181a95da0b5bef9E+0x94>
   113fe:	4581                	li	a1,0
   11400:	864a                	mv	a2,s2
   11402:	6509                	lui	a0,0x2
   11404:	05100693          	li	a3,81
   11408:	470d                	li	a4,3
   1140a:	96b50793          	addi	a5,a0,-1685 # 196b <.Lline_table_start1+0x1740>
   1140e:	4409                	li	s0,2
   11410:	853e                	mv	a0,a5
   11412:	00000073          	ecall
   11416:	460d                	li	a2,3
   11418:	00851963          	bne	a0,s0,1142a <_ZN20complex_full_dynamic3app17h1181a95da0b5bef9E+0x9c>
   1141c:	4505                	li	a0,1
   1141e:	cd01                	beqz	a0,11436 <_ZN20complex_full_dynamic3app17h1181a95da0b5bef9E+0xa8>
   11420:	a099                	j	11466 <_ZN20complex_full_dynamic3app17h1181a95da0b5bef9E+0xd8>
   11422:	458d                	li	a1,3
   11424:	4505                	li	a0,1
   11426:	c901                	beqz	a0,11436 <_ZN20complex_full_dynamic3app17h1181a95da0b5bef9E+0xa8>
   11428:	a83d                	j	11466 <_ZN20complex_full_dynamic3app17h1181a95da0b5bef9E+0xd8>
   1142a:	4501                	li	a0,0
   1142c:	d63e                	sw	a5,44(sp)
   1142e:	d802                	sw	zero,48(sp)
   11430:	02c10a23          	sb	a2,52(sp)
   11434:	e90d                	bnez	a0,11466 <_ZN20complex_full_dynamic3app17h1181a95da0b5bef9E+0xd8>
   11436:	6509                	lui	a0,0x2
   11438:	4589                	li	a1,2
   1143a:	96b50513          	addi	a0,a0,-1685 # 196b <.Lline_table_start1+0x1740>
   1143e:	4709                	li	a4,2
   11440:	07f00793          	li	a5,127
   11444:	4601                	li	a2,0
   11446:	4681                	li	a3,0
   11448:	00000073          	ecall
   1144c:	00a7fd63          	bgeu	a5,a0,11466 <_ZN20complex_full_dynamic3app17h1181a95da0b5bef9E+0xd8>
   11450:	850a                	mv	a0,sp
   11452:	0000b097          	auipc	ra,0xb
   11456:	63e080e7          	jalr	1598(ra) # 1ca90 <_ZN9allow_pin12full_dynamic17unshare_if_shared17h4e6b4433fd7c2282E>
   1145a:	1068                	addi	a0,sp,44
   1145c:	0000b097          	auipc	ra,0xb
   11460:	634080e7          	jalr	1588(ra) # 1ca90 <_ZN9allow_pin12full_dynamic17unshare_if_shared17h4e6b4433fd7c2282E>
   11464:	4481                	li	s1,0
   11466:	c489                	beqz	s1,11470 <_ZN20complex_full_dynamic3app17h1181a95da0b5bef9E+0xe2>
   11468:	00b9a223          	sw	a1,4(s3)
   1146c:	4505                	li	a0,1
   1146e:	a005                	j	1148e <_ZN20complex_full_dynamic3app17h1181a95da0b5bef9E+0x100>
   11470:	1068                	addi	a0,sp,44
   11472:	0000b097          	auipc	ra,0xb
   11476:	61e080e7          	jalr	1566(ra) # 1ca90 <_ZN9allow_pin12full_dynamic17unshare_if_shared17h4e6b4433fd7c2282E>
   1147a:	00198513          	addi	a0,s3,1
   1147e:	05100613          	li	a2,81
   11482:	85ca                	mv	a1,s2
   11484:	0000b097          	auipc	ra,0xb
   11488:	698080e7          	jalr	1688(ra) # 1cb1c <memcpy>
   1148c:	4501                	li	a0,0
   1148e:	00a98023          	sb	a0,0(s3)
   11492:	1068                	addi	a0,sp,44
   11494:	0000b097          	auipc	ra,0xb
   11498:	5fc080e7          	jalr	1532(ra) # 1ca90 <_ZN9allow_pin12full_dynamic17unshare_if_shared17h4e6b4433fd7c2282E>
   1149c:	850a                	mv	a0,sp
   1149e:	0000b097          	auipc	ra,0xb
   114a2:	5f2080e7          	jalr	1522(ra) # 1ca90 <_ZN9allow_pin12full_dynamic17unshare_if_shared17h4e6b4433fd7c2282E>
   114a6:	40fa                	lw	ra,156(sp)
   114a8:	446a                	lw	s0,152(sp)
   114aa:	44da                	lw	s1,148(sp)
   114ac:	494a                	lw	s2,144(sp)
   114ae:	49ba                	lw	s3,140(sp)
   114b0:	610d                	addi	sp,sp,160
   114b2:	8082                	ret

000114b4 <_ZN20complex_full_dynamic3app17h13de8ece03e70641E>:
   114b4:	7119                	addi	sp,sp,-128
   114b6:	de86                	sw	ra,124(sp)
   114b8:	dca2                	sw	s0,120(sp)
   114ba:	daa6                	sw	s1,116(sp)
   114bc:	d8ca                	sw	s2,112(sp)
   114be:	d6ce                	sw	s3,108(sp)
   114c0:	89aa                	mv	s3,a0
   114c2:	4409                	li	s0,2
   114c4:	00810623          	sb	s0,12(sp)
   114c8:	0804                	addi	s1,sp,16
   114ca:	03400613          	li	a2,52
   114ce:	8526                	mv	a0,s1
   114d0:	0000b097          	auipc	ra,0xb
   114d4:	64c080e7          	jalr	1612(ra) # 1cb1c <memcpy>
   114d8:	4581                	li	a1,0
   114da:	8626                	mv	a2,s1
   114dc:	ce82                	sw	zero,92(sp)
   114de:	d082                	sw	zero,96(sp)
   114e0:	d282                	sw	zero,100(sp)
   114e2:	06011423          	sh	zero,104(sp)
   114e6:	04810623          	sb	s0,76(sp)
   114ea:	c882                	sw	zero,80(sp)
   114ec:	ca82                	sw	zero,84(sp)
   114ee:	cc82                	sw	zero,88(sp)
   114f0:	6505                	lui	a0,0x1
   114f2:	4491                	li	s1,4
   114f4:	2cc50793          	addi	a5,a0,716 # 12cc <.Lline_table_start1+0x10a1>
   114f8:	03400693          	li	a3,52
   114fc:	4711                	li	a4,4
   114fe:	853e                	mv	a0,a5
   11500:	00000073          	ecall
   11504:	00850663          	beq	a0,s0,11510 <_ZN20complex_full_dynamic3app17h13de8ece03e70641E+0x5c>
   11508:	c23e                	sw	a5,4(sp)
   1150a:	c402                	sw	zero,8(sp)
   1150c:	00910623          	sb	s1,12(sp)
   11510:	4609                	li	a2,2
   11512:	05010913          	addi	s2,sp,80
   11516:	00c51463          	bne	a0,a2,1151e <_ZN20complex_full_dynamic3app17h13de8ece03e70641E+0x6a>
   1151a:	4485                	li	s1,1
   1151c:	a895                	j	11590 <_ZN20complex_full_dynamic3app17h13de8ece03e70641E+0xdc>
   1151e:	04c14503          	lbu	a0,76(sp)
   11522:	4485                	li	s1,1
   11524:	02c51463          	bne	a0,a2,1154c <_ZN20complex_full_dynamic3app17h13de8ece03e70641E+0x98>
   11528:	864a                	mv	a2,s2
   1152a:	6505                	lui	a0,0x1
   1152c:	4815                	li	a6,5
   1152e:	4595                	li	a1,5
   11530:	46e9                	li	a3,26
   11532:	470d                	li	a4,3
   11534:	2cc50793          	addi	a5,a0,716 # 12cc <.Lline_table_start1+0x10a1>
   11538:	4409                	li	s0,2
   1153a:	853e                	mv	a0,a5
   1153c:	00000073          	ecall
   11540:	460d                	li	a2,3
   11542:	00851963          	bne	a0,s0,11554 <_ZN20complex_full_dynamic3app17h13de8ece03e70641E+0xa0>
   11546:	4505                	li	a0,1
   11548:	cd01                	beqz	a0,11560 <_ZN20complex_full_dynamic3app17h13de8ece03e70641E+0xac>
   1154a:	a099                	j	11590 <_ZN20complex_full_dynamic3app17h13de8ece03e70641E+0xdc>
   1154c:	458d                	li	a1,3
   1154e:	4505                	li	a0,1
   11550:	c901                	beqz	a0,11560 <_ZN20complex_full_dynamic3app17h13de8ece03e70641E+0xac>
   11552:	a83d                	j	11590 <_ZN20complex_full_dynamic3app17h13de8ece03e70641E+0xdc>
   11554:	4501                	li	a0,0
   11556:	c2be                	sw	a5,68(sp)
   11558:	c4c2                	sw	a6,72(sp)
   1155a:	04c10623          	sb	a2,76(sp)
   1155e:	e90d                	bnez	a0,11590 <_ZN20complex_full_dynamic3app17h13de8ece03e70641E+0xdc>
   11560:	6505                	lui	a0,0x1
   11562:	4615                	li	a2,5
   11564:	2cc50513          	addi	a0,a0,716 # 12cc <.Lline_table_start1+0x10a1>
   11568:	4709                	li	a4,2
   1156a:	07f00793          	li	a5,127
   1156e:	4581                	li	a1,0
   11570:	4681                	li	a3,0
   11572:	00000073          	ecall
   11576:	00a7fd63          	bgeu	a5,a0,11590 <_ZN20complex_full_dynamic3app17h13de8ece03e70641E+0xdc>
   1157a:	0048                	addi	a0,sp,4
   1157c:	0000b097          	auipc	ra,0xb
   11580:	514080e7          	jalr	1300(ra) # 1ca90 <_ZN9allow_pin12full_dynamic17unshare_if_shared17h4e6b4433fd7c2282E>
   11584:	00c8                	addi	a0,sp,68
   11586:	0000b097          	auipc	ra,0xb
   1158a:	50a080e7          	jalr	1290(ra) # 1ca90 <_ZN9allow_pin12full_dynamic17unshare_if_shared17h4e6b4433fd7c2282E>
   1158e:	4481                	li	s1,0
   11590:	c489                	beqz	s1,1159a <_ZN20complex_full_dynamic3app17h13de8ece03e70641E+0xe6>
   11592:	00b9a223          	sw	a1,4(s3)
   11596:	4505                	li	a0,1
   11598:	a839                	j	115b6 <_ZN20complex_full_dynamic3app17h13de8ece03e70641E+0x102>
   1159a:	00c8                	addi	a0,sp,68
   1159c:	0000b097          	auipc	ra,0xb
   115a0:	4f4080e7          	jalr	1268(ra) # 1ca90 <_ZN9allow_pin12full_dynamic17unshare_if_shared17h4e6b4433fd7c2282E>
   115a4:	00198513          	addi	a0,s3,1
   115a8:	4669                	li	a2,26
   115aa:	85ca                	mv	a1,s2
   115ac:	0000b097          	auipc	ra,0xb
   115b0:	570080e7          	jalr	1392(ra) # 1cb1c <memcpy>
   115b4:	4501                	li	a0,0
   115b6:	00a98023          	sb	a0,0(s3)
   115ba:	00c8                	addi	a0,sp,68
   115bc:	0000b097          	auipc	ra,0xb
   115c0:	4d4080e7          	jalr	1236(ra) # 1ca90 <_ZN9allow_pin12full_dynamic17unshare_if_shared17h4e6b4433fd7c2282E>
   115c4:	0048                	addi	a0,sp,4
   115c6:	0000b097          	auipc	ra,0xb
   115ca:	4ca080e7          	jalr	1226(ra) # 1ca90 <_ZN9allow_pin12full_dynamic17unshare_if_shared17h4e6b4433fd7c2282E>
   115ce:	50f6                	lw	ra,124(sp)
   115d0:	5466                	lw	s0,120(sp)
   115d2:	54d6                	lw	s1,116(sp)
   115d4:	5946                	lw	s2,112(sp)
   115d6:	59b6                	lw	s3,108(sp)
   115d8:	6109                	addi	sp,sp,128
   115da:	8082                	ret

000115dc <_ZN20complex_full_dynamic3app17h1a19ae7dba3b68caE>:
   115dc:	7135                	addi	sp,sp,-160
   115de:	cf06                	sw	ra,156(sp)
   115e0:	cd22                	sw	s0,152(sp)
   115e2:	cb26                	sw	s1,148(sp)
   115e4:	c94a                	sw	s2,144(sp)
   115e6:	c74e                	sw	s3,140(sp)
   115e8:	89aa                	mv	s3,a0
   115ea:	4409                	li	s0,2
   115ec:	00810623          	sb	s0,12(sp)
   115f0:	0804                	addi	s1,sp,16
   115f2:	04900613          	li	a2,73
   115f6:	8526                	mv	a0,s1
   115f8:	0000b097          	auipc	ra,0xb
   115fc:	524080e7          	jalr	1316(ra) # 1cb1c <memcpy>
   11600:	06810913          	addi	s2,sp,104
   11604:	02300613          	li	a2,35
   11608:	854a                	mv	a0,s2
   1160a:	4581                	li	a1,0
   1160c:	0000b097          	auipc	ra,0xb
   11610:	4a4080e7          	jalr	1188(ra) # 1cab0 <memset>
   11614:	8626                	mv	a2,s1
   11616:	06810223          	sb	s0,100(sp)
   1161a:	6505                	lui	a0,0x1
   1161c:	449d                	li	s1,7
   1161e:	4811                	li	a6,4
   11620:	459d                	li	a1,7
   11622:	55150793          	addi	a5,a0,1361 # 1551 <.Lline_table_start1+0x1326>
   11626:	04900693          	li	a3,73
   1162a:	4711                	li	a4,4
   1162c:	853e                	mv	a0,a5
   1162e:	00000073          	ecall
   11632:	00850663          	beq	a0,s0,1163e <_ZN20complex_full_dynamic3app17h1a19ae7dba3b68caE+0x62>
   11636:	c23e                	sw	a5,4(sp)
   11638:	c426                	sw	s1,8(sp)
   1163a:	01010623          	sb	a6,12(sp)
   1163e:	4609                	li	a2,2
   11640:	00c51463          	bne	a0,a2,11648 <_ZN20complex_full_dynamic3app17h1a19ae7dba3b68caE+0x6c>
   11644:	4485                	li	s1,1
   11646:	a885                	j	116b6 <_ZN20complex_full_dynamic3app17h1a19ae7dba3b68caE+0xda>
   11648:	06414503          	lbu	a0,100(sp)
   1164c:	4485                	li	s1,1
   1164e:	02c51863          	bne	a0,a2,1167e <_ZN20complex_full_dynamic3app17h1a19ae7dba3b68caE+0xa2>
   11652:	864a                	mv	a2,s2
   11654:	6505                	lui	a0,0x1
   11656:	4405                	li	s0,1
   11658:	4585                	li	a1,1
   1165a:	02300693          	li	a3,35
   1165e:	470d                	li	a4,3
   11660:	55150793          	addi	a5,a0,1361 # 1551 <.Lline_table_start1+0x1326>
   11664:	4809                	li	a6,2
   11666:	853e                	mv	a0,a5
   11668:	00000073          	ecall
   1166c:	460d                	li	a2,3
   1166e:	01050a63          	beq	a0,a6,11682 <_ZN20complex_full_dynamic3app17h1a19ae7dba3b68caE+0xa6>
   11672:	cebe                	sw	a5,92(sp)
   11674:	d0a2                	sw	s0,96(sp)
   11676:	06c10223          	sb	a2,100(sp)
   1167a:	4401                	li	s0,0
   1167c:	a019                	j	11682 <_ZN20complex_full_dynamic3app17h1a19ae7dba3b68caE+0xa6>
   1167e:	458d                	li	a1,3
   11680:	4405                	li	s0,1
   11682:	e815                	bnez	s0,116b6 <_ZN20complex_full_dynamic3app17h1a19ae7dba3b68caE+0xda>
   11684:	4681                	li	a3,0
   11686:	6505                	lui	a0,0x1
   11688:	459d                	li	a1,7
   1168a:	4605                	li	a2,1
   1168c:	4709                	li	a4,2
   1168e:	55150513          	addi	a0,a0,1361 # 1551 <.Lline_table_start1+0x1326>
   11692:	07f00793          	li	a5,127
   11696:	00000073          	ecall
   1169a:	4485                	li	s1,1
   1169c:	00a7fd63          	bgeu	a5,a0,116b6 <_ZN20complex_full_dynamic3app17h1a19ae7dba3b68caE+0xda>
   116a0:	0048                	addi	a0,sp,4
   116a2:	0000b097          	auipc	ra,0xb
   116a6:	3ee080e7          	jalr	1006(ra) # 1ca90 <_ZN9allow_pin12full_dynamic17unshare_if_shared17h4e6b4433fd7c2282E>
   116aa:	08e8                	addi	a0,sp,92
   116ac:	0000b097          	auipc	ra,0xb
   116b0:	3e4080e7          	jalr	996(ra) # 1ca90 <_ZN9allow_pin12full_dynamic17unshare_if_shared17h4e6b4433fd7c2282E>
   116b4:	4481                	li	s1,0
   116b6:	c489                	beqz	s1,116c0 <_ZN20complex_full_dynamic3app17h1a19ae7dba3b68caE+0xe4>
   116b8:	00b9a223          	sw	a1,4(s3)
   116bc:	4505                	li	a0,1
   116be:	a005                	j	116de <_ZN20complex_full_dynamic3app17h1a19ae7dba3b68caE+0x102>
   116c0:	08e8                	addi	a0,sp,92
   116c2:	0000b097          	auipc	ra,0xb
   116c6:	3ce080e7          	jalr	974(ra) # 1ca90 <_ZN9allow_pin12full_dynamic17unshare_if_shared17h4e6b4433fd7c2282E>
   116ca:	00198513          	addi	a0,s3,1
   116ce:	02300613          	li	a2,35
   116d2:	85ca                	mv	a1,s2
   116d4:	0000b097          	auipc	ra,0xb
   116d8:	448080e7          	jalr	1096(ra) # 1cb1c <memcpy>
   116dc:	4501                	li	a0,0
   116de:	00a98023          	sb	a0,0(s3)
   116e2:	08e8                	addi	a0,sp,92
   116e4:	0000b097          	auipc	ra,0xb
   116e8:	3ac080e7          	jalr	940(ra) # 1ca90 <_ZN9allow_pin12full_dynamic17unshare_if_shared17h4e6b4433fd7c2282E>
   116ec:	0048                	addi	a0,sp,4
   116ee:	0000b097          	auipc	ra,0xb
   116f2:	3a2080e7          	jalr	930(ra) # 1ca90 <_ZN9allow_pin12full_dynamic17unshare_if_shared17h4e6b4433fd7c2282E>
   116f6:	40fa                	lw	ra,156(sp)
   116f8:	446a                	lw	s0,152(sp)
   116fa:	44da                	lw	s1,148(sp)
   116fc:	494a                	lw	s2,144(sp)
   116fe:	49ba                	lw	s3,140(sp)
   11700:	610d                	addi	sp,sp,160
   11702:	8082                	ret

00011704 <_ZN20complex_full_dynamic3app17h1d61062c0d7e304bE>:
   11704:	715d                	addi	sp,sp,-80
   11706:	c686                	sw	ra,76(sp)
   11708:	c4a2                	sw	s0,72(sp)
   1170a:	c2a6                	sw	s1,68(sp)
   1170c:	c0ca                	sw	s2,64(sp)
   1170e:	de4e                	sw	s3,60(sp)
   11710:	89aa                	mv	s3,a0
   11712:	4409                	li	s0,2
   11714:	00810423          	sb	s0,8(sp)
   11718:	0064                	addi	s1,sp,12
   1171a:	463d                	li	a2,15
   1171c:	8526                	mv	a0,s1
   1171e:	0000b097          	auipc	ra,0xb
   11722:	3fe080e7          	jalr	1022(ra) # 1cb1c <memcpy>
   11726:	8626                	mv	a2,s1
   11728:	da02                	sw	zero,52(sp)
   1172a:	02011c23          	sh	zero,56(sp)
   1172e:	02010d23          	sb	zero,58(sp)
   11732:	02810223          	sb	s0,36(sp)
   11736:	d402                	sw	zero,40(sp)
   11738:	d602                	sw	zero,44(sp)
   1173a:	d802                	sw	zero,48(sp)
   1173c:	6509                	lui	a0,0x2
   1173e:	448d                	li	s1,3
   11740:	4811                	li	a6,4
   11742:	458d                	li	a1,3
   11744:	e4b50793          	addi	a5,a0,-437 # 1e4b <.Lline_table_start1+0x1c20>
   11748:	46bd                	li	a3,15
   1174a:	4711                	li	a4,4
   1174c:	853e                	mv	a0,a5
   1174e:	00000073          	ecall
   11752:	00850663          	beq	a0,s0,1175e <_ZN20complex_full_dynamic3app17h1d61062c0d7e304bE+0x5a>
   11756:	c03e                	sw	a5,0(sp)
   11758:	c226                	sw	s1,4(sp)
   1175a:	01010423          	sb	a6,8(sp)
   1175e:	4609                	li	a2,2
   11760:	02810913          	addi	s2,sp,40
   11764:	00c51463          	bne	a0,a2,1176c <_ZN20complex_full_dynamic3app17h1d61062c0d7e304bE+0x68>
   11768:	4485                	li	s1,1
   1176a:	a88d                	j	117dc <_ZN20complex_full_dynamic3app17h1d61062c0d7e304bE+0xd8>
   1176c:	02414503          	lbu	a0,36(sp)
   11770:	4485                	li	s1,1
   11772:	02c51363          	bne	a0,a2,11798 <_ZN20complex_full_dynamic3app17h1d61062c0d7e304bE+0x94>
   11776:	4581                	li	a1,0
   11778:	864a                	mv	a2,s2
   1177a:	6509                	lui	a0,0x2
   1177c:	46cd                	li	a3,19
   1177e:	470d                	li	a4,3
   11780:	e4b50793          	addi	a5,a0,-437 # 1e4b <.Lline_table_start1+0x1c20>
   11784:	4409                	li	s0,2
   11786:	853e                	mv	a0,a5
   11788:	00000073          	ecall
   1178c:	460d                	li	a2,3
   1178e:	00851963          	bne	a0,s0,117a0 <_ZN20complex_full_dynamic3app17h1d61062c0d7e304bE+0x9c>
   11792:	4505                	li	a0,1
   11794:	cd01                	beqz	a0,117ac <_ZN20complex_full_dynamic3app17h1d61062c0d7e304bE+0xa8>
   11796:	a099                	j	117dc <_ZN20complex_full_dynamic3app17h1d61062c0d7e304bE+0xd8>
   11798:	458d                	li	a1,3
   1179a:	4505                	li	a0,1
   1179c:	c901                	beqz	a0,117ac <_ZN20complex_full_dynamic3app17h1d61062c0d7e304bE+0xa8>
   1179e:	a83d                	j	117dc <_ZN20complex_full_dynamic3app17h1d61062c0d7e304bE+0xd8>
   117a0:	4501                	li	a0,0
   117a2:	ce3e                	sw	a5,28(sp)
   117a4:	d002                	sw	zero,32(sp)
   117a6:	02c10223          	sb	a2,36(sp)
   117aa:	e90d                	bnez	a0,117dc <_ZN20complex_full_dynamic3app17h1d61062c0d7e304bE+0xd8>
   117ac:	6509                	lui	a0,0x2
   117ae:	458d                	li	a1,3
   117b0:	e4b50513          	addi	a0,a0,-437 # 1e4b <.Lline_table_start1+0x1c20>
   117b4:	4709                	li	a4,2
   117b6:	07f00793          	li	a5,127
   117ba:	4601                	li	a2,0
   117bc:	4681                	li	a3,0
   117be:	00000073          	ecall
   117c2:	00a7fd63          	bgeu	a5,a0,117dc <_ZN20complex_full_dynamic3app17h1d61062c0d7e304bE+0xd8>
   117c6:	850a                	mv	a0,sp
   117c8:	0000b097          	auipc	ra,0xb
   117cc:	2c8080e7          	jalr	712(ra) # 1ca90 <_ZN9allow_pin12full_dynamic17unshare_if_shared17h4e6b4433fd7c2282E>
   117d0:	0868                	addi	a0,sp,28
   117d2:	0000b097          	auipc	ra,0xb
   117d6:	2be080e7          	jalr	702(ra) # 1ca90 <_ZN9allow_pin12full_dynamic17unshare_if_shared17h4e6b4433fd7c2282E>
   117da:	4481                	li	s1,0
   117dc:	c489                	beqz	s1,117e6 <_ZN20complex_full_dynamic3app17h1d61062c0d7e304bE+0xe2>
   117de:	00b9a223          	sw	a1,4(s3)
   117e2:	4505                	li	a0,1
   117e4:	a839                	j	11802 <_ZN20complex_full_dynamic3app17h1d61062c0d7e304bE+0xfe>
   117e6:	0868                	addi	a0,sp,28
   117e8:	0000b097          	auipc	ra,0xb
   117ec:	2a8080e7          	jalr	680(ra) # 1ca90 <_ZN9allow_pin12full_dynamic17unshare_if_shared17h4e6b4433fd7c2282E>
   117f0:	00198513          	addi	a0,s3,1
   117f4:	464d                	li	a2,19
   117f6:	85ca                	mv	a1,s2
   117f8:	0000b097          	auipc	ra,0xb
   117fc:	324080e7          	jalr	804(ra) # 1cb1c <memcpy>
   11800:	4501                	li	a0,0
   11802:	00a98023          	sb	a0,0(s3)
   11806:	0868                	addi	a0,sp,28
   11808:	0000b097          	auipc	ra,0xb
   1180c:	288080e7          	jalr	648(ra) # 1ca90 <_ZN9allow_pin12full_dynamic17unshare_if_shared17h4e6b4433fd7c2282E>
   11810:	850a                	mv	a0,sp
   11812:	0000b097          	auipc	ra,0xb
   11816:	27e080e7          	jalr	638(ra) # 1ca90 <_ZN9allow_pin12full_dynamic17unshare_if_shared17h4e6b4433fd7c2282E>
   1181a:	40b6                	lw	ra,76(sp)
   1181c:	4426                	lw	s0,72(sp)
   1181e:	4496                	lw	s1,68(sp)
   11820:	4906                	lw	s2,64(sp)
   11822:	59f2                	lw	s3,60(sp)
   11824:	6161                	addi	sp,sp,80
   11826:	8082                	ret

00011828 <_ZN20complex_full_dynamic3app17h1e07db22082dde76E>:
   11828:	7175                	addi	sp,sp,-144
   1182a:	c706                	sw	ra,140(sp)
   1182c:	c522                	sw	s0,136(sp)
   1182e:	c326                	sw	s1,132(sp)
   11830:	c14a                	sw	s2,128(sp)
   11832:	dece                	sw	s3,124(sp)
   11834:	89aa                	mv	s3,a0
   11836:	4409                	li	s0,2
   11838:	00810623          	sb	s0,12(sp)
   1183c:	0804                	addi	s1,sp,16
   1183e:	03800613          	li	a2,56
   11842:	8526                	mv	a0,s1
   11844:	0000b097          	auipc	ra,0xb
   11848:	2d8080e7          	jalr	728(ra) # 1cb1c <memcpy>
   1184c:	05410913          	addi	s2,sp,84
   11850:	02700613          	li	a2,39
   11854:	854a                	mv	a0,s2
   11856:	4581                	li	a1,0
   11858:	0000b097          	auipc	ra,0xb
   1185c:	258080e7          	jalr	600(ra) # 1cab0 <memset>
   11860:	8626                	mv	a2,s1
   11862:	04810823          	sb	s0,80(sp)
   11866:	6505                	lui	a0,0x1
   11868:	4491                	li	s1,4
   1186a:	4589                	li	a1,2
   1186c:	e2b50793          	addi	a5,a0,-469 # e2b <.Lline_table_start1+0xc00>
   11870:	03800693          	li	a3,56
   11874:	4711                	li	a4,4
   11876:	853e                	mv	a0,a5
   11878:	00000073          	ecall
   1187c:	00850663          	beq	a0,s0,11888 <_ZN20complex_full_dynamic3app17h1e07db22082dde76E+0x60>
   11880:	c23e                	sw	a5,4(sp)
   11882:	c422                	sw	s0,8(sp)
   11884:	00910623          	sb	s1,12(sp)
   11888:	4609                	li	a2,2
   1188a:	00c51463          	bne	a0,a2,11892 <_ZN20complex_full_dynamic3app17h1e07db22082dde76E+0x6a>
   1188e:	4485                	li	s1,1
   11890:	a89d                	j	11906 <_ZN20complex_full_dynamic3app17h1e07db22082dde76E+0xde>
   11892:	05014503          	lbu	a0,80(sp)
   11896:	4485                	li	s1,1
   11898:	02c51563          	bne	a0,a2,118c2 <_ZN20complex_full_dynamic3app17h1e07db22082dde76E+0x9a>
   1189c:	864a                	mv	a2,s2
   1189e:	6505                	lui	a0,0x1
   118a0:	4821                	li	a6,8
   118a2:	45a1                	li	a1,8
   118a4:	02700693          	li	a3,39
   118a8:	470d                	li	a4,3
   118aa:	e2b50793          	addi	a5,a0,-469 # e2b <.Lline_table_start1+0xc00>
   118ae:	4409                	li	s0,2
   118b0:	853e                	mv	a0,a5
   118b2:	00000073          	ecall
   118b6:	460d                	li	a2,3
   118b8:	00851963          	bne	a0,s0,118ca <_ZN20complex_full_dynamic3app17h1e07db22082dde76E+0xa2>
   118bc:	4505                	li	a0,1
   118be:	cd01                	beqz	a0,118d6 <_ZN20complex_full_dynamic3app17h1e07db22082dde76E+0xae>
   118c0:	a099                	j	11906 <_ZN20complex_full_dynamic3app17h1e07db22082dde76E+0xde>
   118c2:	458d                	li	a1,3
   118c4:	4505                	li	a0,1
   118c6:	c901                	beqz	a0,118d6 <_ZN20complex_full_dynamic3app17h1e07db22082dde76E+0xae>
   118c8:	a83d                	j	11906 <_ZN20complex_full_dynamic3app17h1e07db22082dde76E+0xde>
   118ca:	4501                	li	a0,0
   118cc:	c4be                	sw	a5,72(sp)
   118ce:	c6c2                	sw	a6,76(sp)
   118d0:	04c10823          	sb	a2,80(sp)
   118d4:	e90d                	bnez	a0,11906 <_ZN20complex_full_dynamic3app17h1e07db22082dde76E+0xde>
   118d6:	6505                	lui	a0,0x1
   118d8:	4589                	li	a1,2
   118da:	4621                	li	a2,8
   118dc:	e2b50513          	addi	a0,a0,-469 # e2b <.Lline_table_start1+0xc00>
   118e0:	4709                	li	a4,2
   118e2:	07f00793          	li	a5,127
   118e6:	4681                	li	a3,0
   118e8:	00000073          	ecall
   118ec:	00a7fd63          	bgeu	a5,a0,11906 <_ZN20complex_full_dynamic3app17h1e07db22082dde76E+0xde>
   118f0:	0048                	addi	a0,sp,4
   118f2:	0000b097          	auipc	ra,0xb
   118f6:	19e080e7          	jalr	414(ra) # 1ca90 <_ZN9allow_pin12full_dynamic17unshare_if_shared17h4e6b4433fd7c2282E>
   118fa:	00a8                	addi	a0,sp,72
   118fc:	0000b097          	auipc	ra,0xb
   11900:	194080e7          	jalr	404(ra) # 1ca90 <_ZN9allow_pin12full_dynamic17unshare_if_shared17h4e6b4433fd7c2282E>
   11904:	4481                	li	s1,0
   11906:	c489                	beqz	s1,11910 <_ZN20complex_full_dynamic3app17h1e07db22082dde76E+0xe8>
   11908:	00b9a223          	sw	a1,4(s3)
   1190c:	4505                	li	a0,1
   1190e:	a005                	j	1192e <_ZN20complex_full_dynamic3app17h1e07db22082dde76E+0x106>
   11910:	00a8                	addi	a0,sp,72
   11912:	0000b097          	auipc	ra,0xb
   11916:	17e080e7          	jalr	382(ra) # 1ca90 <_ZN9allow_pin12full_dynamic17unshare_if_shared17h4e6b4433fd7c2282E>
   1191a:	00198513          	addi	a0,s3,1
   1191e:	02700613          	li	a2,39
   11922:	85ca                	mv	a1,s2
   11924:	0000b097          	auipc	ra,0xb
   11928:	1f8080e7          	jalr	504(ra) # 1cb1c <memcpy>
   1192c:	4501                	li	a0,0
   1192e:	00a98023          	sb	a0,0(s3)
   11932:	00a8                	addi	a0,sp,72
   11934:	0000b097          	auipc	ra,0xb
   11938:	15c080e7          	jalr	348(ra) # 1ca90 <_ZN9allow_pin12full_dynamic17unshare_if_shared17h4e6b4433fd7c2282E>
   1193c:	0048                	addi	a0,sp,4
   1193e:	0000b097          	auipc	ra,0xb
   11942:	152080e7          	jalr	338(ra) # 1ca90 <_ZN9allow_pin12full_dynamic17unshare_if_shared17h4e6b4433fd7c2282E>
   11946:	40ba                	lw	ra,140(sp)
   11948:	442a                	lw	s0,136(sp)
   1194a:	449a                	lw	s1,132(sp)
   1194c:	490a                	lw	s2,128(sp)
   1194e:	59f6                	lw	s3,124(sp)
   11950:	6149                	addi	sp,sp,144
   11952:	8082                	ret

00011954 <_ZN20complex_full_dynamic3app17h212324a46ddee4c9E>:
   11954:	7119                	addi	sp,sp,-128
   11956:	de86                	sw	ra,124(sp)
   11958:	dca2                	sw	s0,120(sp)
   1195a:	daa6                	sw	s1,116(sp)
   1195c:	d8ca                	sw	s2,112(sp)
   1195e:	d6ce                	sw	s3,108(sp)
   11960:	89aa                	mv	s3,a0
   11962:	4409                	li	s0,2
   11964:	00810423          	sb	s0,8(sp)
   11968:	0064                	addi	s1,sp,12
   1196a:	02500613          	li	a2,37
   1196e:	8526                	mv	a0,s1
   11970:	0000b097          	auipc	ra,0xb
   11974:	1ac080e7          	jalr	428(ra) # 1cb1c <memcpy>
   11978:	04010913          	addi	s2,sp,64
   1197c:	02a00613          	li	a2,42
   11980:	854a                	mv	a0,s2
   11982:	4581                	li	a1,0
   11984:	0000b097          	auipc	ra,0xb
   11988:	12c080e7          	jalr	300(ra) # 1cab0 <memset>
   1198c:	4581                	li	a1,0
   1198e:	8626                	mv	a2,s1
   11990:	02810e23          	sb	s0,60(sp)
   11994:	6505                	lui	a0,0x1
   11996:	4491                	li	s1,4
   11998:	93c50793          	addi	a5,a0,-1732 # 93c <.Lline_table_start1+0x711>
   1199c:	02500693          	li	a3,37
   119a0:	4711                	li	a4,4
   119a2:	853e                	mv	a0,a5
   119a4:	00000073          	ecall
   119a8:	00850663          	beq	a0,s0,119b4 <_ZN20complex_full_dynamic3app17h212324a46ddee4c9E+0x60>
   119ac:	c03e                	sw	a5,0(sp)
   119ae:	c202                	sw	zero,4(sp)
   119b0:	00910423          	sb	s1,8(sp)
   119b4:	4609                	li	a2,2
   119b6:	00c51463          	bne	a0,a2,119be <_ZN20complex_full_dynamic3app17h212324a46ddee4c9E+0x6a>
   119ba:	4485                	li	s1,1
   119bc:	a895                	j	11a30 <_ZN20complex_full_dynamic3app17h212324a46ddee4c9E+0xdc>
   119be:	03c14503          	lbu	a0,60(sp)
   119c2:	4485                	li	s1,1
   119c4:	02c51463          	bne	a0,a2,119ec <_ZN20complex_full_dynamic3app17h212324a46ddee4c9E+0x98>
   119c8:	864a                	mv	a2,s2
   119ca:	6505                	lui	a0,0x1
   119cc:	458d                	li	a1,3
   119ce:	02a00693          	li	a3,42
   119d2:	470d                	li	a4,3
   119d4:	93c50793          	addi	a5,a0,-1732 # 93c <.Lline_table_start1+0x711>
   119d8:	4409                	li	s0,2
   119da:	853e                	mv	a0,a5
   119dc:	00000073          	ecall
   119e0:	460d                	li	a2,3
   119e2:	00851963          	bne	a0,s0,119f4 <_ZN20complex_full_dynamic3app17h212324a46ddee4c9E+0xa0>
   119e6:	4505                	li	a0,1
   119e8:	cd01                	beqz	a0,11a00 <_ZN20complex_full_dynamic3app17h212324a46ddee4c9E+0xac>
   119ea:	a099                	j	11a30 <_ZN20complex_full_dynamic3app17h212324a46ddee4c9E+0xdc>
   119ec:	458d                	li	a1,3
   119ee:	4505                	li	a0,1
   119f0:	c901                	beqz	a0,11a00 <_ZN20complex_full_dynamic3app17h212324a46ddee4c9E+0xac>
   119f2:	a83d                	j	11a30 <_ZN20complex_full_dynamic3app17h212324a46ddee4c9E+0xdc>
   119f4:	4501                	li	a0,0
   119f6:	da3e                	sw	a5,52(sp)
   119f8:	dc32                	sw	a2,56(sp)
   119fa:	02c10e23          	sb	a2,60(sp)
   119fe:	e90d                	bnez	a0,11a30 <_ZN20complex_full_dynamic3app17h212324a46ddee4c9E+0xdc>
   11a00:	6505                	lui	a0,0x1
   11a02:	460d                	li	a2,3
   11a04:	93c50513          	addi	a0,a0,-1732 # 93c <.Lline_table_start1+0x711>
   11a08:	4709                	li	a4,2
   11a0a:	07f00793          	li	a5,127
   11a0e:	4581                	li	a1,0
   11a10:	4681                	li	a3,0
   11a12:	00000073          	ecall
   11a16:	00a7fd63          	bgeu	a5,a0,11a30 <_ZN20complex_full_dynamic3app17h212324a46ddee4c9E+0xdc>
   11a1a:	850a                	mv	a0,sp
   11a1c:	0000b097          	auipc	ra,0xb
   11a20:	074080e7          	jalr	116(ra) # 1ca90 <_ZN9allow_pin12full_dynamic17unshare_if_shared17h4e6b4433fd7c2282E>
   11a24:	1848                	addi	a0,sp,52
   11a26:	0000b097          	auipc	ra,0xb
   11a2a:	06a080e7          	jalr	106(ra) # 1ca90 <_ZN9allow_pin12full_dynamic17unshare_if_shared17h4e6b4433fd7c2282E>
   11a2e:	4481                	li	s1,0
   11a30:	c489                	beqz	s1,11a3a <_ZN20complex_full_dynamic3app17h212324a46ddee4c9E+0xe6>
   11a32:	00b9a223          	sw	a1,4(s3)
   11a36:	4505                	li	a0,1
   11a38:	a005                	j	11a58 <_ZN20complex_full_dynamic3app17h212324a46ddee4c9E+0x104>
   11a3a:	1848                	addi	a0,sp,52
   11a3c:	0000b097          	auipc	ra,0xb
   11a40:	054080e7          	jalr	84(ra) # 1ca90 <_ZN9allow_pin12full_dynamic17unshare_if_shared17h4e6b4433fd7c2282E>
   11a44:	00198513          	addi	a0,s3,1
   11a48:	02a00613          	li	a2,42
   11a4c:	85ca                	mv	a1,s2
   11a4e:	0000b097          	auipc	ra,0xb
   11a52:	0ce080e7          	jalr	206(ra) # 1cb1c <memcpy>
   11a56:	4501                	li	a0,0
   11a58:	00a98023          	sb	a0,0(s3)
   11a5c:	1848                	addi	a0,sp,52
   11a5e:	0000b097          	auipc	ra,0xb
   11a62:	032080e7          	jalr	50(ra) # 1ca90 <_ZN9allow_pin12full_dynamic17unshare_if_shared17h4e6b4433fd7c2282E>
   11a66:	850a                	mv	a0,sp
   11a68:	0000b097          	auipc	ra,0xb
   11a6c:	028080e7          	jalr	40(ra) # 1ca90 <_ZN9allow_pin12full_dynamic17unshare_if_shared17h4e6b4433fd7c2282E>
   11a70:	50f6                	lw	ra,124(sp)
   11a72:	5466                	lw	s0,120(sp)
   11a74:	54d6                	lw	s1,116(sp)
   11a76:	5946                	lw	s2,112(sp)
   11a78:	59b6                	lw	s3,108(sp)
   11a7a:	6109                	addi	sp,sp,128
   11a7c:	8082                	ret

00011a7e <_ZN20complex_full_dynamic3app17h232ec4f7685b1dcaE>:
   11a7e:	7159                	addi	sp,sp,-112
   11a80:	d686                	sw	ra,108(sp)
   11a82:	d4a2                	sw	s0,104(sp)
   11a84:	d2a6                	sw	s1,100(sp)
   11a86:	d0ca                	sw	s2,96(sp)
   11a88:	cece                	sw	s3,92(sp)
   11a8a:	89aa                	mv	s3,a0
   11a8c:	4409                	li	s0,2
   11a8e:	00810823          	sb	s0,16(sp)
   11a92:	0844                	addi	s1,sp,20
   11a94:	02700613          	li	a2,39
   11a98:	8526                	mv	a0,s1
   11a9a:	0000b097          	auipc	ra,0xb
   11a9e:	082080e7          	jalr	130(ra) # 1cb1c <memcpy>
   11aa2:	8626                	mv	a2,s1
   11aa4:	ca82                	sw	zero,84(sp)
   11aa6:	cc82                	sw	zero,88(sp)
   11aa8:	04810223          	sb	s0,68(sp)
   11aac:	c482                	sw	zero,72(sp)
   11aae:	c682                	sw	zero,76(sp)
   11ab0:	c882                	sw	zero,80(sp)
   11ab2:	6509                	lui	a0,0x2
   11ab4:	4499                	li	s1,6
   11ab6:	4811                	li	a6,4
   11ab8:	4599                	li	a1,6
   11aba:	2c950793          	addi	a5,a0,713 # 22c9 <.Lline_table_start1+0x209e>
   11abe:	02700693          	li	a3,39
   11ac2:	4711                	li	a4,4
   11ac4:	853e                	mv	a0,a5
   11ac6:	00000073          	ecall
   11aca:	00850663          	beq	a0,s0,11ad6 <_ZN20complex_full_dynamic3app17h232ec4f7685b1dcaE+0x58>
   11ace:	c43e                	sw	a5,8(sp)
   11ad0:	c626                	sw	s1,12(sp)
   11ad2:	01010823          	sb	a6,16(sp)
   11ad6:	4609                	li	a2,2
   11ad8:	04810913          	addi	s2,sp,72
   11adc:	00c51463          	bne	a0,a2,11ae4 <_ZN20complex_full_dynamic3app17h232ec4f7685b1dcaE+0x66>
   11ae0:	4485                	li	s1,1
   11ae2:	a895                	j	11b56 <_ZN20complex_full_dynamic3app17h232ec4f7685b1dcaE+0xd8>
   11ae4:	04414503          	lbu	a0,68(sp)
   11ae8:	4485                	li	s1,1
   11aea:	02c51463          	bne	a0,a2,11b12 <_ZN20complex_full_dynamic3app17h232ec4f7685b1dcaE+0x94>
   11aee:	864a                	mv	a2,s2
   11af0:	6509                	lui	a0,0x2
   11af2:	4815                	li	a6,5
   11af4:	4595                	li	a1,5
   11af6:	46d1                	li	a3,20
   11af8:	470d                	li	a4,3
   11afa:	2c950793          	addi	a5,a0,713 # 22c9 <.Lline_table_start1+0x209e>
   11afe:	4409                	li	s0,2
   11b00:	853e                	mv	a0,a5
   11b02:	00000073          	ecall
   11b06:	460d                	li	a2,3
   11b08:	00851963          	bne	a0,s0,11b1a <_ZN20complex_full_dynamic3app17h232ec4f7685b1dcaE+0x9c>
   11b0c:	4505                	li	a0,1
   11b0e:	cd01                	beqz	a0,11b26 <_ZN20complex_full_dynamic3app17h232ec4f7685b1dcaE+0xa8>
   11b10:	a099                	j	11b56 <_ZN20complex_full_dynamic3app17h232ec4f7685b1dcaE+0xd8>
   11b12:	458d                	li	a1,3
   11b14:	4505                	li	a0,1
   11b16:	c901                	beqz	a0,11b26 <_ZN20complex_full_dynamic3app17h232ec4f7685b1dcaE+0xa8>
   11b18:	a83d                	j	11b56 <_ZN20complex_full_dynamic3app17h232ec4f7685b1dcaE+0xd8>
   11b1a:	4501                	li	a0,0
   11b1c:	de3e                	sw	a5,60(sp)
   11b1e:	c0c2                	sw	a6,64(sp)
   11b20:	04c10223          	sb	a2,68(sp)
   11b24:	e90d                	bnez	a0,11b56 <_ZN20complex_full_dynamic3app17h232ec4f7685b1dcaE+0xd8>
   11b26:	6509                	lui	a0,0x2
   11b28:	4599                	li	a1,6
   11b2a:	4615                	li	a2,5
   11b2c:	2c950513          	addi	a0,a0,713 # 22c9 <.Lline_table_start1+0x209e>
   11b30:	4709                	li	a4,2
   11b32:	07f00793          	li	a5,127
   11b36:	4681                	li	a3,0
   11b38:	00000073          	ecall
   11b3c:	00a7fd63          	bgeu	a5,a0,11b56 <_ZN20complex_full_dynamic3app17h232ec4f7685b1dcaE+0xd8>
   11b40:	0028                	addi	a0,sp,8
   11b42:	0000b097          	auipc	ra,0xb
   11b46:	f4e080e7          	jalr	-178(ra) # 1ca90 <_ZN9allow_pin12full_dynamic17unshare_if_shared17h4e6b4433fd7c2282E>
   11b4a:	1868                	addi	a0,sp,60
   11b4c:	0000b097          	auipc	ra,0xb
   11b50:	f44080e7          	jalr	-188(ra) # 1ca90 <_ZN9allow_pin12full_dynamic17unshare_if_shared17h4e6b4433fd7c2282E>
   11b54:	4481                	li	s1,0
   11b56:	c489                	beqz	s1,11b60 <_ZN20complex_full_dynamic3app17h232ec4f7685b1dcaE+0xe2>
   11b58:	00b9a223          	sw	a1,4(s3)
   11b5c:	4505                	li	a0,1
   11b5e:	a839                	j	11b7c <_ZN20complex_full_dynamic3app17h232ec4f7685b1dcaE+0xfe>
   11b60:	1868                	addi	a0,sp,60
   11b62:	0000b097          	auipc	ra,0xb
   11b66:	f2e080e7          	jalr	-210(ra) # 1ca90 <_ZN9allow_pin12full_dynamic17unshare_if_shared17h4e6b4433fd7c2282E>
   11b6a:	00198513          	addi	a0,s3,1
   11b6e:	4651                	li	a2,20
   11b70:	85ca                	mv	a1,s2
   11b72:	0000b097          	auipc	ra,0xb
   11b76:	faa080e7          	jalr	-86(ra) # 1cb1c <memcpy>
   11b7a:	4501                	li	a0,0
   11b7c:	00a98023          	sb	a0,0(s3)
   11b80:	1868                	addi	a0,sp,60
   11b82:	0000b097          	auipc	ra,0xb
   11b86:	f0e080e7          	jalr	-242(ra) # 1ca90 <_ZN9allow_pin12full_dynamic17unshare_if_shared17h4e6b4433fd7c2282E>
   11b8a:	0028                	addi	a0,sp,8
   11b8c:	0000b097          	auipc	ra,0xb
   11b90:	f04080e7          	jalr	-252(ra) # 1ca90 <_ZN9allow_pin12full_dynamic17unshare_if_shared17h4e6b4433fd7c2282E>
   11b94:	50b6                	lw	ra,108(sp)
   11b96:	5426                	lw	s0,104(sp)
   11b98:	5496                	lw	s1,100(sp)
   11b9a:	5906                	lw	s2,96(sp)
   11b9c:	49f6                	lw	s3,92(sp)
   11b9e:	6165                	addi	sp,sp,112
   11ba0:	8082                	ret

00011ba2 <_ZN20complex_full_dynamic3app17h2667bf0494d82fd0E>:
   11ba2:	7115                	addi	sp,sp,-224
   11ba4:	cf86                	sw	ra,220(sp)
   11ba6:	cda2                	sw	s0,216(sp)
   11ba8:	cba6                	sw	s1,212(sp)
   11baa:	c9ca                	sw	s2,208(sp)
   11bac:	c7ce                	sw	s3,204(sp)
   11bae:	89aa                	mv	s3,a0
   11bb0:	4409                	li	s0,2
   11bb2:	00810423          	sb	s0,8(sp)
   11bb6:	0064                	addi	s1,sp,12
   11bb8:	04f00613          	li	a2,79
   11bbc:	8526                	mv	a0,s1
   11bbe:	0000b097          	auipc	ra,0xb
   11bc2:	f5e080e7          	jalr	-162(ra) # 1cb1c <memcpy>
   11bc6:	06810913          	addi	s2,sp,104
   11bca:	06100613          	li	a2,97
   11bce:	854a                	mv	a0,s2
   11bd0:	4581                	li	a1,0
   11bd2:	0000b097          	auipc	ra,0xb
   11bd6:	ede080e7          	jalr	-290(ra) # 1cab0 <memset>
   11bda:	8626                	mv	a2,s1
   11bdc:	06810223          	sb	s0,100(sp)
   11be0:	1b600493          	li	s1,438
   11be4:	4791                	li	a5,4
   11be6:	1b600513          	li	a0,438
   11bea:	4589                	li	a1,2
   11bec:	04f00693          	li	a3,79
   11bf0:	4711                	li	a4,4
   11bf2:	00000073          	ecall
   11bf6:	00850663          	beq	a0,s0,11c02 <_ZN20complex_full_dynamic3app17h2667bf0494d82fd0E+0x60>
   11bfa:	c026                	sw	s1,0(sp)
   11bfc:	c222                	sw	s0,4(sp)
   11bfe:	00f10423          	sb	a5,8(sp)
   11c02:	4609                	li	a2,2
   11c04:	00c51463          	bne	a0,a2,11c0c <_ZN20complex_full_dynamic3app17h2667bf0494d82fd0E+0x6a>
   11c08:	4785                	li	a5,1
   11c0a:	a895                	j	11c7e <_ZN20complex_full_dynamic3app17h2667bf0494d82fd0E+0xdc>
   11c0c:	06414503          	lbu	a0,100(sp)
   11c10:	4785                	li	a5,1
   11c12:	02c51563          	bne	a0,a2,11c3c <_ZN20complex_full_dynamic3app17h2667bf0494d82fd0E+0x9a>
   11c16:	864a                	mv	a2,s2
   11c18:	1b600493          	li	s1,438
   11c1c:	4821                	li	a6,8
   11c1e:	1b600513          	li	a0,438
   11c22:	45a1                	li	a1,8
   11c24:	06100693          	li	a3,97
   11c28:	470d                	li	a4,3
   11c2a:	4409                	li	s0,2
   11c2c:	00000073          	ecall
   11c30:	460d                	li	a2,3
   11c32:	00851963          	bne	a0,s0,11c44 <_ZN20complex_full_dynamic3app17h2667bf0494d82fd0E+0xa2>
   11c36:	4505                	li	a0,1
   11c38:	cd01                	beqz	a0,11c50 <_ZN20complex_full_dynamic3app17h2667bf0494d82fd0E+0xae>
   11c3a:	a091                	j	11c7e <_ZN20complex_full_dynamic3app17h2667bf0494d82fd0E+0xdc>
   11c3c:	458d                	li	a1,3
   11c3e:	4505                	li	a0,1
   11c40:	c901                	beqz	a0,11c50 <_ZN20complex_full_dynamic3app17h2667bf0494d82fd0E+0xae>
   11c42:	a835                	j	11c7e <_ZN20complex_full_dynamic3app17h2667bf0494d82fd0E+0xdc>
   11c44:	4501                	li	a0,0
   11c46:	cea6                	sw	s1,92(sp)
   11c48:	d0c2                	sw	a6,96(sp)
   11c4a:	06c10223          	sb	a2,100(sp)
   11c4e:	e905                	bnez	a0,11c7e <_ZN20complex_full_dynamic3app17h2667bf0494d82fd0E+0xdc>
   11c50:	1b600513          	li	a0,438
   11c54:	4589                	li	a1,2
   11c56:	4621                	li	a2,8
   11c58:	4709                	li	a4,2
   11c5a:	07f00493          	li	s1,127
   11c5e:	4681                	li	a3,0
   11c60:	00000073          	ecall
   11c64:	00a4fd63          	bgeu	s1,a0,11c7e <_ZN20complex_full_dynamic3app17h2667bf0494d82fd0E+0xdc>
   11c68:	850a                	mv	a0,sp
   11c6a:	0000b097          	auipc	ra,0xb
   11c6e:	e26080e7          	jalr	-474(ra) # 1ca90 <_ZN9allow_pin12full_dynamic17unshare_if_shared17h4e6b4433fd7c2282E>
   11c72:	08e8                	addi	a0,sp,92
   11c74:	0000b097          	auipc	ra,0xb
   11c78:	e1c080e7          	jalr	-484(ra) # 1ca90 <_ZN9allow_pin12full_dynamic17unshare_if_shared17h4e6b4433fd7c2282E>
   11c7c:	4781                	li	a5,0
   11c7e:	c789                	beqz	a5,11c88 <_ZN20complex_full_dynamic3app17h2667bf0494d82fd0E+0xe6>
   11c80:	00b9a223          	sw	a1,4(s3)
   11c84:	4505                	li	a0,1
   11c86:	a005                	j	11ca6 <_ZN20complex_full_dynamic3app17h2667bf0494d82fd0E+0x104>
   11c88:	08e8                	addi	a0,sp,92
   11c8a:	0000b097          	auipc	ra,0xb
   11c8e:	e06080e7          	jalr	-506(ra) # 1ca90 <_ZN9allow_pin12full_dynamic17unshare_if_shared17h4e6b4433fd7c2282E>
   11c92:	00198513          	addi	a0,s3,1
   11c96:	06100613          	li	a2,97
   11c9a:	85ca                	mv	a1,s2
   11c9c:	0000b097          	auipc	ra,0xb
   11ca0:	e80080e7          	jalr	-384(ra) # 1cb1c <memcpy>
   11ca4:	4501                	li	a0,0
   11ca6:	00a98023          	sb	a0,0(s3)
   11caa:	08e8                	addi	a0,sp,92
   11cac:	0000b097          	auipc	ra,0xb
   11cb0:	de4080e7          	jalr	-540(ra) # 1ca90 <_ZN9allow_pin12full_dynamic17unshare_if_shared17h4e6b4433fd7c2282E>
   11cb4:	850a                	mv	a0,sp
   11cb6:	0000b097          	auipc	ra,0xb
   11cba:	dda080e7          	jalr	-550(ra) # 1ca90 <_ZN9allow_pin12full_dynamic17unshare_if_shared17h4e6b4433fd7c2282E>
   11cbe:	40fe                	lw	ra,220(sp)
   11cc0:	446e                	lw	s0,216(sp)
   11cc2:	44de                	lw	s1,212(sp)
   11cc4:	494e                	lw	s2,208(sp)
   11cc6:	49be                	lw	s3,204(sp)
   11cc8:	612d                	addi	sp,sp,224
   11cca:	8082                	ret

00011ccc <_ZN20complex_full_dynamic3app17h267703671b32fda5E>:
   11ccc:	7171                	addi	sp,sp,-176
   11cce:	d706                	sw	ra,172(sp)
   11cd0:	d522                	sw	s0,168(sp)
   11cd2:	d326                	sw	s1,164(sp)
   11cd4:	d14a                	sw	s2,160(sp)
   11cd6:	cf4e                	sw	s3,156(sp)
   11cd8:	89aa                	mv	s3,a0
   11cda:	4409                	li	s0,2
   11cdc:	00810a23          	sb	s0,20(sp)
   11ce0:	0824                	addi	s1,sp,24
   11ce2:	03200613          	li	a2,50
   11ce6:	8526                	mv	a0,s1
   11ce8:	0000b097          	auipc	ra,0xb
   11cec:	e34080e7          	jalr	-460(ra) # 1cb1c <memcpy>
   11cf0:	05810913          	addi	s2,sp,88
   11cf4:	04100613          	li	a2,65
   11cf8:	854a                	mv	a0,s2
   11cfa:	4581                	li	a1,0
   11cfc:	0000b097          	auipc	ra,0xb
   11d00:	db4080e7          	jalr	-588(ra) # 1cab0 <memset>
   11d04:	8626                	mv	a2,s1
   11d06:	04810a23          	sb	s0,84(sp)
   11d0a:	6505                	lui	a0,0x1
   11d0c:	449d                	li	s1,7
   11d0e:	4811                	li	a6,4
   11d10:	459d                	li	a1,7
   11d12:	91d50793          	addi	a5,a0,-1763 # 91d <.Lline_table_start1+0x6f2>
   11d16:	03200693          	li	a3,50
   11d1a:	4711                	li	a4,4
   11d1c:	853e                	mv	a0,a5
   11d1e:	00000073          	ecall
   11d22:	00850663          	beq	a0,s0,11d2e <_ZN20complex_full_dynamic3app17h267703671b32fda5E+0x62>
   11d26:	c63e                	sw	a5,12(sp)
   11d28:	c826                	sw	s1,16(sp)
   11d2a:	01010a23          	sb	a6,20(sp)
   11d2e:	4609                	li	a2,2
   11d30:	00c51463          	bne	a0,a2,11d38 <_ZN20complex_full_dynamic3app17h267703671b32fda5E+0x6c>
   11d34:	4485                	li	s1,1
   11d36:	a89d                	j	11dac <_ZN20complex_full_dynamic3app17h267703671b32fda5E+0xe0>
   11d38:	05414503          	lbu	a0,84(sp)
   11d3c:	4485                	li	s1,1
   11d3e:	02c51563          	bne	a0,a2,11d68 <_ZN20complex_full_dynamic3app17h267703671b32fda5E+0x9c>
   11d42:	864a                	mv	a2,s2
   11d44:	6505                	lui	a0,0x1
   11d46:	4815                	li	a6,5
   11d48:	4595                	li	a1,5
   11d4a:	04100693          	li	a3,65
   11d4e:	470d                	li	a4,3
   11d50:	91d50793          	addi	a5,a0,-1763 # 91d <.Lline_table_start1+0x6f2>
   11d54:	4409                	li	s0,2
   11d56:	853e                	mv	a0,a5
   11d58:	00000073          	ecall
   11d5c:	460d                	li	a2,3
   11d5e:	00851963          	bne	a0,s0,11d70 <_ZN20complex_full_dynamic3app17h267703671b32fda5E+0xa4>
   11d62:	4505                	li	a0,1
   11d64:	cd01                	beqz	a0,11d7c <_ZN20complex_full_dynamic3app17h267703671b32fda5E+0xb0>
   11d66:	a099                	j	11dac <_ZN20complex_full_dynamic3app17h267703671b32fda5E+0xe0>
   11d68:	458d                	li	a1,3
   11d6a:	4505                	li	a0,1
   11d6c:	c901                	beqz	a0,11d7c <_ZN20complex_full_dynamic3app17h267703671b32fda5E+0xb0>
   11d6e:	a83d                	j	11dac <_ZN20complex_full_dynamic3app17h267703671b32fda5E+0xe0>
   11d70:	4501                	li	a0,0
   11d72:	c6be                	sw	a5,76(sp)
   11d74:	c8c2                	sw	a6,80(sp)
   11d76:	04c10a23          	sb	a2,84(sp)
   11d7a:	e90d                	bnez	a0,11dac <_ZN20complex_full_dynamic3app17h267703671b32fda5E+0xe0>
   11d7c:	6505                	lui	a0,0x1
   11d7e:	459d                	li	a1,7
   11d80:	4615                	li	a2,5
   11d82:	91d50513          	addi	a0,a0,-1763 # 91d <.Lline_table_start1+0x6f2>
   11d86:	4709                	li	a4,2
   11d88:	07f00793          	li	a5,127
   11d8c:	4681                	li	a3,0
   11d8e:	00000073          	ecall
   11d92:	00a7fd63          	bgeu	a5,a0,11dac <_ZN20complex_full_dynamic3app17h267703671b32fda5E+0xe0>
   11d96:	0068                	addi	a0,sp,12
   11d98:	0000b097          	auipc	ra,0xb
   11d9c:	cf8080e7          	jalr	-776(ra) # 1ca90 <_ZN9allow_pin12full_dynamic17unshare_if_shared17h4e6b4433fd7c2282E>
   11da0:	00e8                	addi	a0,sp,76
   11da2:	0000b097          	auipc	ra,0xb
   11da6:	cee080e7          	jalr	-786(ra) # 1ca90 <_ZN9allow_pin12full_dynamic17unshare_if_shared17h4e6b4433fd7c2282E>
   11daa:	4481                	li	s1,0
   11dac:	c489                	beqz	s1,11db6 <_ZN20complex_full_dynamic3app17h267703671b32fda5E+0xea>
   11dae:	00b9a223          	sw	a1,4(s3)
   11db2:	4505                	li	a0,1
   11db4:	a005                	j	11dd4 <_ZN20complex_full_dynamic3app17h267703671b32fda5E+0x108>
   11db6:	00e8                	addi	a0,sp,76
   11db8:	0000b097          	auipc	ra,0xb
   11dbc:	cd8080e7          	jalr	-808(ra) # 1ca90 <_ZN9allow_pin12full_dynamic17unshare_if_shared17h4e6b4433fd7c2282E>
   11dc0:	00198513          	addi	a0,s3,1
   11dc4:	04100613          	li	a2,65
   11dc8:	85ca                	mv	a1,s2
   11dca:	0000b097          	auipc	ra,0xb
   11dce:	d52080e7          	jalr	-686(ra) # 1cb1c <memcpy>
   11dd2:	4501                	li	a0,0
   11dd4:	00a98023          	sb	a0,0(s3)
   11dd8:	00e8                	addi	a0,sp,76
   11dda:	0000b097          	auipc	ra,0xb
   11dde:	cb6080e7          	jalr	-842(ra) # 1ca90 <_ZN9allow_pin12full_dynamic17unshare_if_shared17h4e6b4433fd7c2282E>
   11de2:	0068                	addi	a0,sp,12
   11de4:	0000b097          	auipc	ra,0xb
   11de8:	cac080e7          	jalr	-852(ra) # 1ca90 <_ZN9allow_pin12full_dynamic17unshare_if_shared17h4e6b4433fd7c2282E>
   11dec:	50ba                	lw	ra,172(sp)
   11dee:	542a                	lw	s0,168(sp)
   11df0:	549a                	lw	s1,164(sp)
   11df2:	590a                	lw	s2,160(sp)
   11df4:	49fa                	lw	s3,156(sp)
   11df6:	614d                	addi	sp,sp,176
   11df8:	8082                	ret

00011dfa <_ZN20complex_full_dynamic3app17h2696192ecca80739E>:
   11dfa:	7135                	addi	sp,sp,-160
   11dfc:	cf06                	sw	ra,156(sp)
   11dfe:	cd22                	sw	s0,152(sp)
   11e00:	cb26                	sw	s1,148(sp)
   11e02:	c94a                	sw	s2,144(sp)
   11e04:	c74e                	sw	s3,140(sp)
   11e06:	89aa                	mv	s3,a0
   11e08:	4409                	li	s0,2
   11e0a:	00810a23          	sb	s0,20(sp)
   11e0e:	0824                	addi	s1,sp,24
   11e10:	03c00613          	li	a2,60
   11e14:	8526                	mv	a0,s1
   11e16:	0000b097          	auipc	ra,0xb
   11e1a:	d06080e7          	jalr	-762(ra) # 1cb1c <memcpy>
   11e1e:	06010913          	addi	s2,sp,96
   11e22:	02c00613          	li	a2,44
   11e26:	854a                	mv	a0,s2
   11e28:	4581                	li	a1,0
   11e2a:	0000b097          	auipc	ra,0xb
   11e2e:	c86080e7          	jalr	-890(ra) # 1cab0 <memset>
   11e32:	8626                	mv	a2,s1
   11e34:	04810e23          	sb	s0,92(sp)
   11e38:	6509                	lui	a0,0x2
   11e3a:	4495                	li	s1,5
   11e3c:	4811                	li	a6,4
   11e3e:	4595                	li	a1,5
   11e40:	eac50793          	addi	a5,a0,-340 # 1eac <.Lline_table_start1+0x1c81>
   11e44:	03c00693          	li	a3,60
   11e48:	4711                	li	a4,4
   11e4a:	853e                	mv	a0,a5
   11e4c:	00000073          	ecall
   11e50:	00850663          	beq	a0,s0,11e5c <_ZN20complex_full_dynamic3app17h2696192ecca80739E+0x62>
   11e54:	c63e                	sw	a5,12(sp)
   11e56:	c826                	sw	s1,16(sp)
   11e58:	01010a23          	sb	a6,20(sp)
   11e5c:	4609                	li	a2,2
   11e5e:	00c51463          	bne	a0,a2,11e66 <_ZN20complex_full_dynamic3app17h2696192ecca80739E+0x6c>
   11e62:	4485                	li	s1,1
   11e64:	a89d                	j	11eda <_ZN20complex_full_dynamic3app17h2696192ecca80739E+0xe0>
   11e66:	05c14503          	lbu	a0,92(sp)
   11e6a:	4485                	li	s1,1
   11e6c:	02c51563          	bne	a0,a2,11e96 <_ZN20complex_full_dynamic3app17h2696192ecca80739E+0x9c>
   11e70:	864a                	mv	a2,s2
   11e72:	6509                	lui	a0,0x2
   11e74:	481d                	li	a6,7
   11e76:	459d                	li	a1,7
   11e78:	02c00693          	li	a3,44
   11e7c:	470d                	li	a4,3
   11e7e:	eac50793          	addi	a5,a0,-340 # 1eac <.Lline_table_start1+0x1c81>
   11e82:	4409                	li	s0,2
   11e84:	853e                	mv	a0,a5
   11e86:	00000073          	ecall
   11e8a:	460d                	li	a2,3
   11e8c:	00851963          	bne	a0,s0,11e9e <_ZN20complex_full_dynamic3app17h2696192ecca80739E+0xa4>
   11e90:	4505                	li	a0,1
   11e92:	cd01                	beqz	a0,11eaa <_ZN20complex_full_dynamic3app17h2696192ecca80739E+0xb0>
   11e94:	a099                	j	11eda <_ZN20complex_full_dynamic3app17h2696192ecca80739E+0xe0>
   11e96:	458d                	li	a1,3
   11e98:	4505                	li	a0,1
   11e9a:	c901                	beqz	a0,11eaa <_ZN20complex_full_dynamic3app17h2696192ecca80739E+0xb0>
   11e9c:	a83d                	j	11eda <_ZN20complex_full_dynamic3app17h2696192ecca80739E+0xe0>
   11e9e:	4501                	li	a0,0
   11ea0:	cabe                	sw	a5,84(sp)
   11ea2:	ccc2                	sw	a6,88(sp)
   11ea4:	04c10e23          	sb	a2,92(sp)
   11ea8:	e90d                	bnez	a0,11eda <_ZN20complex_full_dynamic3app17h2696192ecca80739E+0xe0>
   11eaa:	6509                	lui	a0,0x2
   11eac:	4595                	li	a1,5
   11eae:	461d                	li	a2,7
   11eb0:	eac50513          	addi	a0,a0,-340 # 1eac <.Lline_table_start1+0x1c81>
   11eb4:	4709                	li	a4,2
   11eb6:	07f00793          	li	a5,127
   11eba:	4681                	li	a3,0
   11ebc:	00000073          	ecall
   11ec0:	00a7fd63          	bgeu	a5,a0,11eda <_ZN20complex_full_dynamic3app17h2696192ecca80739E+0xe0>
   11ec4:	0068                	addi	a0,sp,12
   11ec6:	0000b097          	auipc	ra,0xb
   11eca:	bca080e7          	jalr	-1078(ra) # 1ca90 <_ZN9allow_pin12full_dynamic17unshare_if_shared17h4e6b4433fd7c2282E>
   11ece:	08c8                	addi	a0,sp,84
   11ed0:	0000b097          	auipc	ra,0xb
   11ed4:	bc0080e7          	jalr	-1088(ra) # 1ca90 <_ZN9allow_pin12full_dynamic17unshare_if_shared17h4e6b4433fd7c2282E>
   11ed8:	4481                	li	s1,0
   11eda:	c489                	beqz	s1,11ee4 <_ZN20complex_full_dynamic3app17h2696192ecca80739E+0xea>
   11edc:	00b9a223          	sw	a1,4(s3)
   11ee0:	4505                	li	a0,1
   11ee2:	a005                	j	11f02 <_ZN20complex_full_dynamic3app17h2696192ecca80739E+0x108>
   11ee4:	08c8                	addi	a0,sp,84
   11ee6:	0000b097          	auipc	ra,0xb
   11eea:	baa080e7          	jalr	-1110(ra) # 1ca90 <_ZN9allow_pin12full_dynamic17unshare_if_shared17h4e6b4433fd7c2282E>
   11eee:	00198513          	addi	a0,s3,1
   11ef2:	02c00613          	li	a2,44
   11ef6:	85ca                	mv	a1,s2
   11ef8:	0000b097          	auipc	ra,0xb
   11efc:	c24080e7          	jalr	-988(ra) # 1cb1c <memcpy>
   11f00:	4501                	li	a0,0
   11f02:	00a98023          	sb	a0,0(s3)
   11f06:	08c8                	addi	a0,sp,84
   11f08:	0000b097          	auipc	ra,0xb
   11f0c:	b88080e7          	jalr	-1144(ra) # 1ca90 <_ZN9allow_pin12full_dynamic17unshare_if_shared17h4e6b4433fd7c2282E>
   11f10:	0068                	addi	a0,sp,12
   11f12:	0000b097          	auipc	ra,0xb
   11f16:	b7e080e7          	jalr	-1154(ra) # 1ca90 <_ZN9allow_pin12full_dynamic17unshare_if_shared17h4e6b4433fd7c2282E>
   11f1a:	40fa                	lw	ra,156(sp)
   11f1c:	446a                	lw	s0,152(sp)
   11f1e:	44da                	lw	s1,148(sp)
   11f20:	494a                	lw	s2,144(sp)
   11f22:	49ba                	lw	s3,140(sp)
   11f24:	610d                	addi	sp,sp,160
   11f26:	8082                	ret

00011f28 <_ZN20complex_full_dynamic3app17h2b231f3e2ccaee01E>:
   11f28:	7119                	addi	sp,sp,-128
   11f2a:	de86                	sw	ra,124(sp)
   11f2c:	dca2                	sw	s0,120(sp)
   11f2e:	daa6                	sw	s1,116(sp)
   11f30:	d8ca                	sw	s2,112(sp)
   11f32:	892a                	mv	s2,a0
   11f34:	4409                	li	s0,2
   11f36:	00810a23          	sb	s0,20(sp)
   11f3a:	0824                	addi	s1,sp,24
   11f3c:	02b00613          	li	a2,43
   11f40:	8526                	mv	a0,s1
   11f42:	0000b097          	auipc	ra,0xb
   11f46:	bda080e7          	jalr	-1062(ra) # 1cb1c <memcpy>
   11f4a:	8626                	mv	a2,s1
   11f4c:	06011623          	sh	zero,108(sp)
   11f50:	ce82                	sw	zero,92(sp)
   11f52:	d082                	sw	zero,96(sp)
   11f54:	d282                	sw	zero,100(sp)
   11f56:	d482                	sw	zero,104(sp)
   11f58:	04810623          	sb	s0,76(sp)
   11f5c:	c882                	sw	zero,80(sp)
   11f5e:	ca82                	sw	zero,84(sp)
   11f60:	cc82                	sw	zero,88(sp)
   11f62:	7e300793          	li	a5,2019
   11f66:	449d                	li	s1,7
   11f68:	4811                	li	a6,4
   11f6a:	7e300513          	li	a0,2019
   11f6e:	459d                	li	a1,7
   11f70:	02b00693          	li	a3,43
   11f74:	4711                	li	a4,4
   11f76:	00000073          	ecall
   11f7a:	00850663          	beq	a0,s0,11f86 <_ZN20complex_full_dynamic3app17h2b231f3e2ccaee01E+0x5e>
   11f7e:	c63e                	sw	a5,12(sp)
   11f80:	c826                	sw	s1,16(sp)
   11f82:	01010a23          	sb	a6,20(sp)
   11f86:	4609                	li	a2,2
   11f88:	0884                	addi	s1,sp,80
   11f8a:	00c51463          	bne	a0,a2,11f92 <_ZN20complex_full_dynamic3app17h2b231f3e2ccaee01E+0x6a>
   11f8e:	4785                	li	a5,1
   11f90:	a88d                	j	12002 <_ZN20complex_full_dynamic3app17h2b231f3e2ccaee01E+0xda>
   11f92:	04c14503          	lbu	a0,76(sp)
   11f96:	4785                	li	a5,1
   11f98:	02c51463          	bne	a0,a2,11fc0 <_ZN20complex_full_dynamic3app17h2b231f3e2ccaee01E+0x98>
   11f9c:	8626                	mv	a2,s1
   11f9e:	7e300813          	li	a6,2019
   11fa2:	48a1                	li	a7,8
   11fa4:	7e300513          	li	a0,2019
   11fa8:	45a1                	li	a1,8
   11faa:	46f9                	li	a3,30
   11fac:	470d                	li	a4,3
   11fae:	4409                	li	s0,2
   11fb0:	00000073          	ecall
   11fb4:	460d                	li	a2,3
   11fb6:	00851963          	bne	a0,s0,11fc8 <_ZN20complex_full_dynamic3app17h2b231f3e2ccaee01E+0xa0>
   11fba:	4505                	li	a0,1
   11fbc:	cd01                	beqz	a0,11fd4 <_ZN20complex_full_dynamic3app17h2b231f3e2ccaee01E+0xac>
   11fbe:	a091                	j	12002 <_ZN20complex_full_dynamic3app17h2b231f3e2ccaee01E+0xda>
   11fc0:	458d                	li	a1,3
   11fc2:	4505                	li	a0,1
   11fc4:	c901                	beqz	a0,11fd4 <_ZN20complex_full_dynamic3app17h2b231f3e2ccaee01E+0xac>
   11fc6:	a835                	j	12002 <_ZN20complex_full_dynamic3app17h2b231f3e2ccaee01E+0xda>
   11fc8:	4501                	li	a0,0
   11fca:	c2c2                	sw	a6,68(sp)
   11fcc:	c4c6                	sw	a7,72(sp)
   11fce:	04c10623          	sb	a2,76(sp)
   11fd2:	e905                	bnez	a0,12002 <_ZN20complex_full_dynamic3app17h2b231f3e2ccaee01E+0xda>
   11fd4:	7e300513          	li	a0,2019
   11fd8:	459d                	li	a1,7
   11fda:	4621                	li	a2,8
   11fdc:	4709                	li	a4,2
   11fde:	07f00413          	li	s0,127
   11fe2:	4681                	li	a3,0
   11fe4:	00000073          	ecall
   11fe8:	00a47d63          	bgeu	s0,a0,12002 <_ZN20complex_full_dynamic3app17h2b231f3e2ccaee01E+0xda>
   11fec:	0068                	addi	a0,sp,12
   11fee:	0000b097          	auipc	ra,0xb
   11ff2:	aa2080e7          	jalr	-1374(ra) # 1ca90 <_ZN9allow_pin12full_dynamic17unshare_if_shared17h4e6b4433fd7c2282E>
   11ff6:	00c8                	addi	a0,sp,68
   11ff8:	0000b097          	auipc	ra,0xb
   11ffc:	a98080e7          	jalr	-1384(ra) # 1ca90 <_ZN9allow_pin12full_dynamic17unshare_if_shared17h4e6b4433fd7c2282E>
   12000:	4781                	li	a5,0
   12002:	c789                	beqz	a5,1200c <_ZN20complex_full_dynamic3app17h2b231f3e2ccaee01E+0xe4>
   12004:	00b92223          	sw	a1,4(s2)
   12008:	4505                	li	a0,1
   1200a:	a839                	j	12028 <_ZN20complex_full_dynamic3app17h2b231f3e2ccaee01E+0x100>
   1200c:	00c8                	addi	a0,sp,68
   1200e:	0000b097          	auipc	ra,0xb
   12012:	a82080e7          	jalr	-1406(ra) # 1ca90 <_ZN9allow_pin12full_dynamic17unshare_if_shared17h4e6b4433fd7c2282E>
   12016:	00190513          	addi	a0,s2,1
   1201a:	4679                	li	a2,30
   1201c:	85a6                	mv	a1,s1
   1201e:	0000b097          	auipc	ra,0xb
   12022:	afe080e7          	jalr	-1282(ra) # 1cb1c <memcpy>
   12026:	4501                	li	a0,0
   12028:	00a90023          	sb	a0,0(s2)
   1202c:	00c8                	addi	a0,sp,68
   1202e:	0000b097          	auipc	ra,0xb
   12032:	a62080e7          	jalr	-1438(ra) # 1ca90 <_ZN9allow_pin12full_dynamic17unshare_if_shared17h4e6b4433fd7c2282E>
   12036:	0068                	addi	a0,sp,12
   12038:	0000b097          	auipc	ra,0xb
   1203c:	a58080e7          	jalr	-1448(ra) # 1ca90 <_ZN9allow_pin12full_dynamic17unshare_if_shared17h4e6b4433fd7c2282E>
   12040:	50f6                	lw	ra,124(sp)
   12042:	5466                	lw	s0,120(sp)
   12044:	54d6                	lw	s1,116(sp)
   12046:	5946                	lw	s2,112(sp)
   12048:	6109                	addi	sp,sp,128
   1204a:	8082                	ret

0001204c <_ZN20complex_full_dynamic3app17h2c5c2a4c906a6648E>:
   1204c:	7175                	addi	sp,sp,-144
   1204e:	c706                	sw	ra,140(sp)
   12050:	c522                	sw	s0,136(sp)
   12052:	c326                	sw	s1,132(sp)
   12054:	c14a                	sw	s2,128(sp)
   12056:	dece                	sw	s3,124(sp)
   12058:	89aa                	mv	s3,a0
   1205a:	4409                	li	s0,2
   1205c:	00810a23          	sb	s0,20(sp)
   12060:	0824                	addi	s1,sp,24
   12062:	04800613          	li	a2,72
   12066:	8526                	mv	a0,s1
   12068:	0000b097          	auipc	ra,0xb
   1206c:	ab4080e7          	jalr	-1356(ra) # 1cb1c <memcpy>
   12070:	8626                	mv	a2,s1
   12072:	06011c23          	sh	zero,120(sp)
   12076:	06010d23          	sb	zero,122(sp)
   1207a:	06810423          	sb	s0,104(sp)
   1207e:	d682                	sw	zero,108(sp)
   12080:	d882                	sw	zero,112(sp)
   12082:	da82                	sw	zero,116(sp)
   12084:	6505                	lui	a0,0x1
   12086:	44a1                	li	s1,8
   12088:	4811                	li	a6,4
   1208a:	45a1                	li	a1,8
   1208c:	11d50793          	addi	a5,a0,285 # 111d <.Lline_table_start1+0xef2>
   12090:	04800693          	li	a3,72
   12094:	4711                	li	a4,4
   12096:	853e                	mv	a0,a5
   12098:	00000073          	ecall
   1209c:	00850663          	beq	a0,s0,120a8 <_ZN20complex_full_dynamic3app17h2c5c2a4c906a6648E+0x5c>
   120a0:	c63e                	sw	a5,12(sp)
   120a2:	c826                	sw	s1,16(sp)
   120a4:	01010a23          	sb	a6,20(sp)
   120a8:	4609                	li	a2,2
   120aa:	06c10913          	addi	s2,sp,108
   120ae:	00c51463          	bne	a0,a2,120b6 <_ZN20complex_full_dynamic3app17h2c5c2a4c906a6648E+0x6a>
   120b2:	4485                	li	s1,1
   120b4:	a895                	j	12128 <_ZN20complex_full_dynamic3app17h2c5c2a4c906a6648E+0xdc>
   120b6:	06814503          	lbu	a0,104(sp)
   120ba:	4485                	li	s1,1
   120bc:	02c51463          	bne	a0,a2,120e4 <_ZN20complex_full_dynamic3app17h2c5c2a4c906a6648E+0x98>
   120c0:	864a                	mv	a2,s2
   120c2:	6505                	lui	a0,0x1
   120c4:	4825                	li	a6,9
   120c6:	45a5                	li	a1,9
   120c8:	46bd                	li	a3,15
   120ca:	470d                	li	a4,3
   120cc:	11d50793          	addi	a5,a0,285 # 111d <.Lline_table_start1+0xef2>
   120d0:	4409                	li	s0,2
   120d2:	853e                	mv	a0,a5
   120d4:	00000073          	ecall
   120d8:	460d                	li	a2,3
   120da:	00851963          	bne	a0,s0,120ec <_ZN20complex_full_dynamic3app17h2c5c2a4c906a6648E+0xa0>
   120de:	4505                	li	a0,1
   120e0:	cd01                	beqz	a0,120f8 <_ZN20complex_full_dynamic3app17h2c5c2a4c906a6648E+0xac>
   120e2:	a099                	j	12128 <_ZN20complex_full_dynamic3app17h2c5c2a4c906a6648E+0xdc>
   120e4:	458d                	li	a1,3
   120e6:	4505                	li	a0,1
   120e8:	c901                	beqz	a0,120f8 <_ZN20complex_full_dynamic3app17h2c5c2a4c906a6648E+0xac>
   120ea:	a83d                	j	12128 <_ZN20complex_full_dynamic3app17h2c5c2a4c906a6648E+0xdc>
   120ec:	4501                	li	a0,0
   120ee:	d0be                	sw	a5,96(sp)
   120f0:	d2c2                	sw	a6,100(sp)
   120f2:	06c10423          	sb	a2,104(sp)
   120f6:	e90d                	bnez	a0,12128 <_ZN20complex_full_dynamic3app17h2c5c2a4c906a6648E+0xdc>
   120f8:	6505                	lui	a0,0x1
   120fa:	45a1                	li	a1,8
   120fc:	4625                	li	a2,9
   120fe:	11d50513          	addi	a0,a0,285 # 111d <.Lline_table_start1+0xef2>
   12102:	4709                	li	a4,2
   12104:	07f00793          	li	a5,127
   12108:	4681                	li	a3,0
   1210a:	00000073          	ecall
   1210e:	00a7fd63          	bgeu	a5,a0,12128 <_ZN20complex_full_dynamic3app17h2c5c2a4c906a6648E+0xdc>
   12112:	0068                	addi	a0,sp,12
   12114:	0000b097          	auipc	ra,0xb
   12118:	97c080e7          	jalr	-1668(ra) # 1ca90 <_ZN9allow_pin12full_dynamic17unshare_if_shared17h4e6b4433fd7c2282E>
   1211c:	1088                	addi	a0,sp,96
   1211e:	0000b097          	auipc	ra,0xb
   12122:	972080e7          	jalr	-1678(ra) # 1ca90 <_ZN9allow_pin12full_dynamic17unshare_if_shared17h4e6b4433fd7c2282E>
   12126:	4481                	li	s1,0
   12128:	c489                	beqz	s1,12132 <_ZN20complex_full_dynamic3app17h2c5c2a4c906a6648E+0xe6>
   1212a:	00b9a223          	sw	a1,4(s3)
   1212e:	4505                	li	a0,1
   12130:	a839                	j	1214e <_ZN20complex_full_dynamic3app17h2c5c2a4c906a6648E+0x102>
   12132:	1088                	addi	a0,sp,96
   12134:	0000b097          	auipc	ra,0xb
   12138:	95c080e7          	jalr	-1700(ra) # 1ca90 <_ZN9allow_pin12full_dynamic17unshare_if_shared17h4e6b4433fd7c2282E>
   1213c:	00198513          	addi	a0,s3,1
   12140:	463d                	li	a2,15
   12142:	85ca                	mv	a1,s2
   12144:	0000b097          	auipc	ra,0xb
   12148:	9d8080e7          	jalr	-1576(ra) # 1cb1c <memcpy>
   1214c:	4501                	li	a0,0
   1214e:	00a98023          	sb	a0,0(s3)
   12152:	1088                	addi	a0,sp,96
   12154:	0000b097          	auipc	ra,0xb
   12158:	93c080e7          	jalr	-1732(ra) # 1ca90 <_ZN9allow_pin12full_dynamic17unshare_if_shared17h4e6b4433fd7c2282E>
   1215c:	0068                	addi	a0,sp,12
   1215e:	0000b097          	auipc	ra,0xb
   12162:	932080e7          	jalr	-1742(ra) # 1ca90 <_ZN9allow_pin12full_dynamic17unshare_if_shared17h4e6b4433fd7c2282E>
   12166:	40ba                	lw	ra,140(sp)
   12168:	442a                	lw	s0,136(sp)
   1216a:	449a                	lw	s1,132(sp)
   1216c:	490a                	lw	s2,128(sp)
   1216e:	59f6                	lw	s3,124(sp)
   12170:	6149                	addi	sp,sp,144
   12172:	8082                	ret

00012174 <_ZN20complex_full_dynamic3app17h2e076edd5797b4ecE>:
   12174:	7171                	addi	sp,sp,-176
   12176:	d706                	sw	ra,172(sp)
   12178:	d522                	sw	s0,168(sp)
   1217a:	d326                	sw	s1,164(sp)
   1217c:	d14a                	sw	s2,160(sp)
   1217e:	cf4e                	sw	s3,156(sp)
   12180:	89aa                	mv	s3,a0
   12182:	4409                	li	s0,2
   12184:	00810a23          	sb	s0,20(sp)
   12188:	0824                	addi	s1,sp,24
   1218a:	02100613          	li	a2,33
   1218e:	8526                	mv	a0,s1
   12190:	0000b097          	auipc	ra,0xb
   12194:	98c080e7          	jalr	-1652(ra) # 1cb1c <memcpy>
   12198:	04810913          	addi	s2,sp,72
   1219c:	05300613          	li	a2,83
   121a0:	854a                	mv	a0,s2
   121a2:	4581                	li	a1,0
   121a4:	0000b097          	auipc	ra,0xb
   121a8:	90c080e7          	jalr	-1780(ra) # 1cab0 <memset>
   121ac:	8626                	mv	a2,s1
   121ae:	04810223          	sb	s0,68(sp)
   121b2:	6509                	lui	a0,0x2
   121b4:	4491                	li	s1,4
   121b6:	4589                	li	a1,2
   121b8:	53e50793          	addi	a5,a0,1342 # 253e <.Lline_table_start1+0x2313>
   121bc:	02100693          	li	a3,33
   121c0:	4711                	li	a4,4
   121c2:	853e                	mv	a0,a5
   121c4:	00000073          	ecall
   121c8:	00850663          	beq	a0,s0,121d4 <_ZN20complex_full_dynamic3app17h2e076edd5797b4ecE+0x60>
   121cc:	c63e                	sw	a5,12(sp)
   121ce:	c822                	sw	s0,16(sp)
   121d0:	00910a23          	sb	s1,20(sp)
   121d4:	4609                	li	a2,2
   121d6:	00c51463          	bne	a0,a2,121de <_ZN20complex_full_dynamic3app17h2e076edd5797b4ecE+0x6a>
   121da:	4485                	li	s1,1
   121dc:	a89d                	j	12252 <_ZN20complex_full_dynamic3app17h2e076edd5797b4ecE+0xde>
   121de:	04414503          	lbu	a0,68(sp)
   121e2:	4485                	li	s1,1
   121e4:	02c51563          	bne	a0,a2,1220e <_ZN20complex_full_dynamic3app17h2e076edd5797b4ecE+0x9a>
   121e8:	864a                	mv	a2,s2
   121ea:	6509                	lui	a0,0x2
   121ec:	4821                	li	a6,8
   121ee:	45a1                	li	a1,8
   121f0:	05300693          	li	a3,83
   121f4:	470d                	li	a4,3
   121f6:	53e50793          	addi	a5,a0,1342 # 253e <.Lline_table_start1+0x2313>
   121fa:	4409                	li	s0,2
   121fc:	853e                	mv	a0,a5
   121fe:	00000073          	ecall
   12202:	460d                	li	a2,3
   12204:	00851963          	bne	a0,s0,12216 <_ZN20complex_full_dynamic3app17h2e076edd5797b4ecE+0xa2>
   12208:	4505                	li	a0,1
   1220a:	cd01                	beqz	a0,12222 <_ZN20complex_full_dynamic3app17h2e076edd5797b4ecE+0xae>
   1220c:	a099                	j	12252 <_ZN20complex_full_dynamic3app17h2e076edd5797b4ecE+0xde>
   1220e:	458d                	li	a1,3
   12210:	4505                	li	a0,1
   12212:	c901                	beqz	a0,12222 <_ZN20complex_full_dynamic3app17h2e076edd5797b4ecE+0xae>
   12214:	a83d                	j	12252 <_ZN20complex_full_dynamic3app17h2e076edd5797b4ecE+0xde>
   12216:	4501                	li	a0,0
   12218:	de3e                	sw	a5,60(sp)
   1221a:	c0c2                	sw	a6,64(sp)
   1221c:	04c10223          	sb	a2,68(sp)
   12220:	e90d                	bnez	a0,12252 <_ZN20complex_full_dynamic3app17h2e076edd5797b4ecE+0xde>
   12222:	6509                	lui	a0,0x2
   12224:	4589                	li	a1,2
   12226:	4621                	li	a2,8
   12228:	53e50513          	addi	a0,a0,1342 # 253e <.Lline_table_start1+0x2313>
   1222c:	4709                	li	a4,2
   1222e:	07f00793          	li	a5,127
   12232:	4681                	li	a3,0
   12234:	00000073          	ecall
   12238:	00a7fd63          	bgeu	a5,a0,12252 <_ZN20complex_full_dynamic3app17h2e076edd5797b4ecE+0xde>
   1223c:	0068                	addi	a0,sp,12
   1223e:	0000b097          	auipc	ra,0xb
   12242:	852080e7          	jalr	-1966(ra) # 1ca90 <_ZN9allow_pin12full_dynamic17unshare_if_shared17h4e6b4433fd7c2282E>
   12246:	1868                	addi	a0,sp,60
   12248:	0000b097          	auipc	ra,0xb
   1224c:	848080e7          	jalr	-1976(ra) # 1ca90 <_ZN9allow_pin12full_dynamic17unshare_if_shared17h4e6b4433fd7c2282E>
   12250:	4481                	li	s1,0
   12252:	c489                	beqz	s1,1225c <_ZN20complex_full_dynamic3app17h2e076edd5797b4ecE+0xe8>
   12254:	00b9a223          	sw	a1,4(s3)
   12258:	4505                	li	a0,1
   1225a:	a005                	j	1227a <_ZN20complex_full_dynamic3app17h2e076edd5797b4ecE+0x106>
   1225c:	1868                	addi	a0,sp,60
   1225e:	0000b097          	auipc	ra,0xb
   12262:	832080e7          	jalr	-1998(ra) # 1ca90 <_ZN9allow_pin12full_dynamic17unshare_if_shared17h4e6b4433fd7c2282E>
   12266:	00198513          	addi	a0,s3,1
   1226a:	05300613          	li	a2,83
   1226e:	85ca                	mv	a1,s2
   12270:	0000b097          	auipc	ra,0xb
   12274:	8ac080e7          	jalr	-1876(ra) # 1cb1c <memcpy>
   12278:	4501                	li	a0,0
   1227a:	00a98023          	sb	a0,0(s3)
   1227e:	1868                	addi	a0,sp,60
   12280:	0000b097          	auipc	ra,0xb
   12284:	810080e7          	jalr	-2032(ra) # 1ca90 <_ZN9allow_pin12full_dynamic17unshare_if_shared17h4e6b4433fd7c2282E>
   12288:	0068                	addi	a0,sp,12
   1228a:	0000b097          	auipc	ra,0xb
   1228e:	806080e7          	jalr	-2042(ra) # 1ca90 <_ZN9allow_pin12full_dynamic17unshare_if_shared17h4e6b4433fd7c2282E>
   12292:	50ba                	lw	ra,172(sp)
   12294:	542a                	lw	s0,168(sp)
   12296:	549a                	lw	s1,164(sp)
   12298:	590a                	lw	s2,160(sp)
   1229a:	49fa                	lw	s3,156(sp)
   1229c:	614d                	addi	sp,sp,176
   1229e:	8082                	ret

000122a0 <_ZN20complex_full_dynamic3app17h3465558d725a6166E>:
   122a0:	7155                	addi	sp,sp,-208
   122a2:	c786                	sw	ra,204(sp)
   122a4:	c5a2                	sw	s0,200(sp)
   122a6:	c3a6                	sw	s1,196(sp)
   122a8:	c1ca                	sw	s2,192(sp)
   122aa:	df4e                	sw	s3,188(sp)
   122ac:	89aa                	mv	s3,a0
   122ae:	4409                	li	s0,2
   122b0:	00810623          	sb	s0,12(sp)
   122b4:	0804                	addi	s1,sp,16
   122b6:	04600613          	li	a2,70
   122ba:	8526                	mv	a0,s1
   122bc:	0000b097          	auipc	ra,0xb
   122c0:	860080e7          	jalr	-1952(ra) # 1cb1c <memcpy>
   122c4:	06410913          	addi	s2,sp,100
   122c8:	05600613          	li	a2,86
   122cc:	854a                	mv	a0,s2
   122ce:	4581                	li	a1,0
   122d0:	0000a097          	auipc	ra,0xa
   122d4:	7e0080e7          	jalr	2016(ra) # 1cab0 <memset>
   122d8:	8626                	mv	a2,s1
   122da:	06810023          	sb	s0,96(sp)
   122de:	6509                	lui	a0,0x2
   122e0:	449d                	li	s1,7
   122e2:	4811                	li	a6,4
   122e4:	459d                	li	a1,7
   122e6:	e5050793          	addi	a5,a0,-432 # 1e50 <.Lline_table_start1+0x1c25>
   122ea:	04600693          	li	a3,70
   122ee:	4711                	li	a4,4
   122f0:	853e                	mv	a0,a5
   122f2:	00000073          	ecall
   122f6:	00850663          	beq	a0,s0,12302 <_ZN20complex_full_dynamic3app17h3465558d725a6166E+0x62>
   122fa:	c23e                	sw	a5,4(sp)
   122fc:	c426                	sw	s1,8(sp)
   122fe:	01010623          	sb	a6,12(sp)
   12302:	4609                	li	a2,2
   12304:	00c51463          	bne	a0,a2,1230c <_ZN20complex_full_dynamic3app17h3465558d725a6166E+0x6c>
   12308:	4485                	li	s1,1
   1230a:	a895                	j	1237e <_ZN20complex_full_dynamic3app17h3465558d725a6166E+0xde>
   1230c:	06014503          	lbu	a0,96(sp)
   12310:	4485                	li	s1,1
   12312:	02c51463          	bne	a0,a2,1233a <_ZN20complex_full_dynamic3app17h3465558d725a6166E+0x9a>
   12316:	864a                	mv	a2,s2
   12318:	6509                	lui	a0,0x2
   1231a:	458d                	li	a1,3
   1231c:	05600693          	li	a3,86
   12320:	470d                	li	a4,3
   12322:	e5050793          	addi	a5,a0,-432 # 1e50 <.Lline_table_start1+0x1c25>
   12326:	4409                	li	s0,2
   12328:	853e                	mv	a0,a5
   1232a:	00000073          	ecall
   1232e:	460d                	li	a2,3
   12330:	00851963          	bne	a0,s0,12342 <_ZN20complex_full_dynamic3app17h3465558d725a6166E+0xa2>
   12334:	4505                	li	a0,1
   12336:	cd01                	beqz	a0,1234e <_ZN20complex_full_dynamic3app17h3465558d725a6166E+0xae>
   12338:	a099                	j	1237e <_ZN20complex_full_dynamic3app17h3465558d725a6166E+0xde>
   1233a:	458d                	li	a1,3
   1233c:	4505                	li	a0,1
   1233e:	c901                	beqz	a0,1234e <_ZN20complex_full_dynamic3app17h3465558d725a6166E+0xae>
   12340:	a83d                	j	1237e <_ZN20complex_full_dynamic3app17h3465558d725a6166E+0xde>
   12342:	4501                	li	a0,0
   12344:	ccbe                	sw	a5,88(sp)
   12346:	ceb2                	sw	a2,92(sp)
   12348:	06c10023          	sb	a2,96(sp)
   1234c:	e90d                	bnez	a0,1237e <_ZN20complex_full_dynamic3app17h3465558d725a6166E+0xde>
   1234e:	6509                	lui	a0,0x2
   12350:	459d                	li	a1,7
   12352:	460d                	li	a2,3
   12354:	e5050513          	addi	a0,a0,-432 # 1e50 <.Lline_table_start1+0x1c25>
   12358:	4709                	li	a4,2
   1235a:	07f00793          	li	a5,127
   1235e:	4681                	li	a3,0
   12360:	00000073          	ecall
   12364:	00a7fd63          	bgeu	a5,a0,1237e <_ZN20complex_full_dynamic3app17h3465558d725a6166E+0xde>
   12368:	0048                	addi	a0,sp,4
   1236a:	0000a097          	auipc	ra,0xa
   1236e:	726080e7          	jalr	1830(ra) # 1ca90 <_ZN9allow_pin12full_dynamic17unshare_if_shared17h4e6b4433fd7c2282E>
   12372:	08a8                	addi	a0,sp,88
   12374:	0000a097          	auipc	ra,0xa
   12378:	71c080e7          	jalr	1820(ra) # 1ca90 <_ZN9allow_pin12full_dynamic17unshare_if_shared17h4e6b4433fd7c2282E>
   1237c:	4481                	li	s1,0
   1237e:	c489                	beqz	s1,12388 <_ZN20complex_full_dynamic3app17h3465558d725a6166E+0xe8>
   12380:	00b9a223          	sw	a1,4(s3)
   12384:	4505                	li	a0,1
   12386:	a005                	j	123a6 <_ZN20complex_full_dynamic3app17h3465558d725a6166E+0x106>
   12388:	08a8                	addi	a0,sp,88
   1238a:	0000a097          	auipc	ra,0xa
   1238e:	706080e7          	jalr	1798(ra) # 1ca90 <_ZN9allow_pin12full_dynamic17unshare_if_shared17h4e6b4433fd7c2282E>
   12392:	00198513          	addi	a0,s3,1
   12396:	05600613          	li	a2,86
   1239a:	85ca                	mv	a1,s2
   1239c:	0000a097          	auipc	ra,0xa
   123a0:	780080e7          	jalr	1920(ra) # 1cb1c <memcpy>
   123a4:	4501                	li	a0,0
   123a6:	00a98023          	sb	a0,0(s3)
   123aa:	08a8                	addi	a0,sp,88
   123ac:	0000a097          	auipc	ra,0xa
   123b0:	6e4080e7          	jalr	1764(ra) # 1ca90 <_ZN9allow_pin12full_dynamic17unshare_if_shared17h4e6b4433fd7c2282E>
   123b4:	0048                	addi	a0,sp,4
   123b6:	0000a097          	auipc	ra,0xa
   123ba:	6da080e7          	jalr	1754(ra) # 1ca90 <_ZN9allow_pin12full_dynamic17unshare_if_shared17h4e6b4433fd7c2282E>
   123be:	40be                	lw	ra,204(sp)
   123c0:	442e                	lw	s0,200(sp)
   123c2:	449e                	lw	s1,196(sp)
   123c4:	490e                	lw	s2,192(sp)
   123c6:	59fa                	lw	s3,188(sp)
   123c8:	6169                	addi	sp,sp,208
   123ca:	8082                	ret

000123cc <_ZN20complex_full_dynamic3app17h348bb5e6721f1007E>:
   123cc:	7155                	addi	sp,sp,-208
   123ce:	c786                	sw	ra,204(sp)
   123d0:	c5a2                	sw	s0,200(sp)
   123d2:	c3a6                	sw	s1,196(sp)
   123d4:	c1ca                	sw	s2,192(sp)
   123d6:	df4e                	sw	s3,188(sp)
   123d8:	89aa                	mv	s3,a0
   123da:	4409                	li	s0,2
   123dc:	00810423          	sb	s0,8(sp)
   123e0:	0064                	addi	s1,sp,12
   123e2:	05100613          	li	a2,81
   123e6:	8526                	mv	a0,s1
   123e8:	0000a097          	auipc	ra,0xa
   123ec:	734080e7          	jalr	1844(ra) # 1cb1c <memcpy>
   123f0:	06c10913          	addi	s2,sp,108
   123f4:	04f00613          	li	a2,79
   123f8:	854a                	mv	a0,s2
   123fa:	4581                	li	a1,0
   123fc:	0000a097          	auipc	ra,0xa
   12400:	6b4080e7          	jalr	1716(ra) # 1cab0 <memset>
   12404:	8626                	mv	a2,s1
   12406:	06810423          	sb	s0,104(sp)
   1240a:	6509                	lui	a0,0x2
   1240c:	4491                	li	s1,4
   1240e:	4591                	li	a1,4
   12410:	0ee50793          	addi	a5,a0,238 # 20ee <.Lline_table_start1+0x1ec3>
   12414:	05100693          	li	a3,81
   12418:	4711                	li	a4,4
   1241a:	853e                	mv	a0,a5
   1241c:	00000073          	ecall
   12420:	00850663          	beq	a0,s0,1242c <_ZN20complex_full_dynamic3app17h348bb5e6721f1007E+0x60>
   12424:	c03e                	sw	a5,0(sp)
   12426:	c226                	sw	s1,4(sp)
   12428:	00910423          	sb	s1,8(sp)
   1242c:	4609                	li	a2,2
   1242e:	00c51463          	bne	a0,a2,12436 <_ZN20complex_full_dynamic3app17h348bb5e6721f1007E+0x6a>
   12432:	4485                	li	s1,1
   12434:	a89d                	j	124aa <_ZN20complex_full_dynamic3app17h348bb5e6721f1007E+0xde>
   12436:	06814503          	lbu	a0,104(sp)
   1243a:	4485                	li	s1,1
   1243c:	02c51563          	bne	a0,a2,12466 <_ZN20complex_full_dynamic3app17h348bb5e6721f1007E+0x9a>
   12440:	864a                	mv	a2,s2
   12442:	6509                	lui	a0,0x2
   12444:	4825                	li	a6,9
   12446:	45a5                	li	a1,9
   12448:	04f00693          	li	a3,79
   1244c:	470d                	li	a4,3
   1244e:	0ee50793          	addi	a5,a0,238 # 20ee <.Lline_table_start1+0x1ec3>
   12452:	4409                	li	s0,2
   12454:	853e                	mv	a0,a5
   12456:	00000073          	ecall
   1245a:	460d                	li	a2,3
   1245c:	00851963          	bne	a0,s0,1246e <_ZN20complex_full_dynamic3app17h348bb5e6721f1007E+0xa2>
   12460:	4505                	li	a0,1
   12462:	cd01                	beqz	a0,1247a <_ZN20complex_full_dynamic3app17h348bb5e6721f1007E+0xae>
   12464:	a099                	j	124aa <_ZN20complex_full_dynamic3app17h348bb5e6721f1007E+0xde>
   12466:	458d                	li	a1,3
   12468:	4505                	li	a0,1
   1246a:	c901                	beqz	a0,1247a <_ZN20complex_full_dynamic3app17h348bb5e6721f1007E+0xae>
   1246c:	a83d                	j	124aa <_ZN20complex_full_dynamic3app17h348bb5e6721f1007E+0xde>
   1246e:	4501                	li	a0,0
   12470:	d0be                	sw	a5,96(sp)
   12472:	d2c2                	sw	a6,100(sp)
   12474:	06c10423          	sb	a2,104(sp)
   12478:	e90d                	bnez	a0,124aa <_ZN20complex_full_dynamic3app17h348bb5e6721f1007E+0xde>
   1247a:	6509                	lui	a0,0x2
   1247c:	4591                	li	a1,4
   1247e:	4625                	li	a2,9
   12480:	0ee50513          	addi	a0,a0,238 # 20ee <.Lline_table_start1+0x1ec3>
   12484:	4709                	li	a4,2
   12486:	07f00793          	li	a5,127
   1248a:	4681                	li	a3,0
   1248c:	00000073          	ecall
   12490:	00a7fd63          	bgeu	a5,a0,124aa <_ZN20complex_full_dynamic3app17h348bb5e6721f1007E+0xde>
   12494:	850a                	mv	a0,sp
   12496:	0000a097          	auipc	ra,0xa
   1249a:	5fa080e7          	jalr	1530(ra) # 1ca90 <_ZN9allow_pin12full_dynamic17unshare_if_shared17h4e6b4433fd7c2282E>
   1249e:	1088                	addi	a0,sp,96
   124a0:	0000a097          	auipc	ra,0xa
   124a4:	5f0080e7          	jalr	1520(ra) # 1ca90 <_ZN9allow_pin12full_dynamic17unshare_if_shared17h4e6b4433fd7c2282E>
   124a8:	4481                	li	s1,0
   124aa:	c489                	beqz	s1,124b4 <_ZN20complex_full_dynamic3app17h348bb5e6721f1007E+0xe8>
   124ac:	00b9a223          	sw	a1,4(s3)
   124b0:	4505                	li	a0,1
   124b2:	a005                	j	124d2 <_ZN20complex_full_dynamic3app17h348bb5e6721f1007E+0x106>
   124b4:	1088                	addi	a0,sp,96
   124b6:	0000a097          	auipc	ra,0xa
   124ba:	5da080e7          	jalr	1498(ra) # 1ca90 <_ZN9allow_pin12full_dynamic17unshare_if_shared17h4e6b4433fd7c2282E>
   124be:	00198513          	addi	a0,s3,1
   124c2:	04f00613          	li	a2,79
   124c6:	85ca                	mv	a1,s2
   124c8:	0000a097          	auipc	ra,0xa
   124cc:	654080e7          	jalr	1620(ra) # 1cb1c <memcpy>
   124d0:	4501                	li	a0,0
   124d2:	00a98023          	sb	a0,0(s3)
   124d6:	1088                	addi	a0,sp,96
   124d8:	0000a097          	auipc	ra,0xa
   124dc:	5b8080e7          	jalr	1464(ra) # 1ca90 <_ZN9allow_pin12full_dynamic17unshare_if_shared17h4e6b4433fd7c2282E>
   124e0:	850a                	mv	a0,sp
   124e2:	0000a097          	auipc	ra,0xa
   124e6:	5ae080e7          	jalr	1454(ra) # 1ca90 <_ZN9allow_pin12full_dynamic17unshare_if_shared17h4e6b4433fd7c2282E>
   124ea:	40be                	lw	ra,204(sp)
   124ec:	442e                	lw	s0,200(sp)
   124ee:	449e                	lw	s1,196(sp)
   124f0:	490e                	lw	s2,192(sp)
   124f2:	59fa                	lw	s3,188(sp)
   124f4:	6169                	addi	sp,sp,208
   124f6:	8082                	ret

000124f8 <_ZN20complex_full_dynamic3app17h3838febc7e9b05abE>:
   124f8:	7119                	addi	sp,sp,-128
   124fa:	de86                	sw	ra,124(sp)
   124fc:	dca2                	sw	s0,120(sp)
   124fe:	daa6                	sw	s1,116(sp)
   12500:	d8ca                	sw	s2,112(sp)
   12502:	d6ce                	sw	s3,108(sp)
   12504:	89aa                	mv	s3,a0
   12506:	4409                	li	s0,2
   12508:	00810423          	sb	s0,8(sp)
   1250c:	0064                	addi	s1,sp,12
   1250e:	02c00613          	li	a2,44
   12512:	8526                	mv	a0,s1
   12514:	0000a097          	auipc	ra,0xa
   12518:	608080e7          	jalr	1544(ra) # 1cb1c <memcpy>
   1251c:	04410913          	addi	s2,sp,68
   12520:	02700613          	li	a2,39
   12524:	854a                	mv	a0,s2
   12526:	4581                	li	a1,0
   12528:	0000a097          	auipc	ra,0xa
   1252c:	588080e7          	jalr	1416(ra) # 1cab0 <memset>
   12530:	8626                	mv	a2,s1
   12532:	04810023          	sb	s0,64(sp)
   12536:	6505                	lui	a0,0x1
   12538:	4491                	li	s1,4
   1253a:	4591                	li	a1,4
   1253c:	1b550793          	addi	a5,a0,437 # 11b5 <.Lline_table_start1+0xf8a>
   12540:	02c00693          	li	a3,44
   12544:	4711                	li	a4,4
   12546:	853e                	mv	a0,a5
   12548:	00000073          	ecall
   1254c:	00850663          	beq	a0,s0,12558 <_ZN20complex_full_dynamic3app17h3838febc7e9b05abE+0x60>
   12550:	c03e                	sw	a5,0(sp)
   12552:	c226                	sw	s1,4(sp)
   12554:	00910423          	sb	s1,8(sp)
   12558:	4609                	li	a2,2
   1255a:	00c51463          	bne	a0,a2,12562 <_ZN20complex_full_dynamic3app17h3838febc7e9b05abE+0x6a>
   1255e:	4485                	li	s1,1
   12560:	a895                	j	125d4 <_ZN20complex_full_dynamic3app17h3838febc7e9b05abE+0xdc>
   12562:	04014503          	lbu	a0,64(sp)
   12566:	4485                	li	s1,1
   12568:	02c51463          	bne	a0,a2,12590 <_ZN20complex_full_dynamic3app17h3838febc7e9b05abE+0x98>
   1256c:	864a                	mv	a2,s2
   1256e:	6505                	lui	a0,0x1
   12570:	458d                	li	a1,3
   12572:	02700693          	li	a3,39
   12576:	470d                	li	a4,3
   12578:	1b550793          	addi	a5,a0,437 # 11b5 <.Lline_table_start1+0xf8a>
   1257c:	4409                	li	s0,2
   1257e:	853e                	mv	a0,a5
   12580:	00000073          	ecall
   12584:	460d                	li	a2,3
   12586:	00851963          	bne	a0,s0,12598 <_ZN20complex_full_dynamic3app17h3838febc7e9b05abE+0xa0>
   1258a:	4505                	li	a0,1
   1258c:	cd01                	beqz	a0,125a4 <_ZN20complex_full_dynamic3app17h3838febc7e9b05abE+0xac>
   1258e:	a099                	j	125d4 <_ZN20complex_full_dynamic3app17h3838febc7e9b05abE+0xdc>
   12590:	458d                	li	a1,3
   12592:	4505                	li	a0,1
   12594:	c901                	beqz	a0,125a4 <_ZN20complex_full_dynamic3app17h3838febc7e9b05abE+0xac>
   12596:	a83d                	j	125d4 <_ZN20complex_full_dynamic3app17h3838febc7e9b05abE+0xdc>
   12598:	4501                	li	a0,0
   1259a:	dc3e                	sw	a5,56(sp)
   1259c:	de32                	sw	a2,60(sp)
   1259e:	04c10023          	sb	a2,64(sp)
   125a2:	e90d                	bnez	a0,125d4 <_ZN20complex_full_dynamic3app17h3838febc7e9b05abE+0xdc>
   125a4:	6505                	lui	a0,0x1
   125a6:	4591                	li	a1,4
   125a8:	460d                	li	a2,3
   125aa:	1b550513          	addi	a0,a0,437 # 11b5 <.Lline_table_start1+0xf8a>
   125ae:	4709                	li	a4,2
   125b0:	07f00793          	li	a5,127
   125b4:	4681                	li	a3,0
   125b6:	00000073          	ecall
   125ba:	00a7fd63          	bgeu	a5,a0,125d4 <_ZN20complex_full_dynamic3app17h3838febc7e9b05abE+0xdc>
   125be:	850a                	mv	a0,sp
   125c0:	0000a097          	auipc	ra,0xa
   125c4:	4d0080e7          	jalr	1232(ra) # 1ca90 <_ZN9allow_pin12full_dynamic17unshare_if_shared17h4e6b4433fd7c2282E>
   125c8:	1828                	addi	a0,sp,56
   125ca:	0000a097          	auipc	ra,0xa
   125ce:	4c6080e7          	jalr	1222(ra) # 1ca90 <_ZN9allow_pin12full_dynamic17unshare_if_shared17h4e6b4433fd7c2282E>
   125d2:	4481                	li	s1,0
   125d4:	c489                	beqz	s1,125de <_ZN20complex_full_dynamic3app17h3838febc7e9b05abE+0xe6>
   125d6:	00b9a223          	sw	a1,4(s3)
   125da:	4505                	li	a0,1
   125dc:	a005                	j	125fc <_ZN20complex_full_dynamic3app17h3838febc7e9b05abE+0x104>
   125de:	1828                	addi	a0,sp,56
   125e0:	0000a097          	auipc	ra,0xa
   125e4:	4b0080e7          	jalr	1200(ra) # 1ca90 <_ZN9allow_pin12full_dynamic17unshare_if_shared17h4e6b4433fd7c2282E>
   125e8:	00198513          	addi	a0,s3,1
   125ec:	02700613          	li	a2,39
   125f0:	85ca                	mv	a1,s2
   125f2:	0000a097          	auipc	ra,0xa
   125f6:	52a080e7          	jalr	1322(ra) # 1cb1c <memcpy>
   125fa:	4501                	li	a0,0
   125fc:	00a98023          	sb	a0,0(s3)
   12600:	1828                	addi	a0,sp,56
   12602:	0000a097          	auipc	ra,0xa
   12606:	48e080e7          	jalr	1166(ra) # 1ca90 <_ZN9allow_pin12full_dynamic17unshare_if_shared17h4e6b4433fd7c2282E>
   1260a:	850a                	mv	a0,sp
   1260c:	0000a097          	auipc	ra,0xa
   12610:	484080e7          	jalr	1156(ra) # 1ca90 <_ZN9allow_pin12full_dynamic17unshare_if_shared17h4e6b4433fd7c2282E>
   12614:	50f6                	lw	ra,124(sp)
   12616:	5466                	lw	s0,120(sp)
   12618:	54d6                	lw	s1,116(sp)
   1261a:	5946                	lw	s2,112(sp)
   1261c:	59b6                	lw	s3,108(sp)
   1261e:	6109                	addi	sp,sp,128
   12620:	8082                	ret

00012622 <_ZN20complex_full_dynamic3app17h39ff7f3d8f248040E>:
   12622:	7131                	addi	sp,sp,-192
   12624:	df06                	sw	ra,188(sp)
   12626:	dd22                	sw	s0,184(sp)
   12628:	db26                	sw	s1,180(sp)
   1262a:	d94a                	sw	s2,176(sp)
   1262c:	d74e                	sw	s3,172(sp)
   1262e:	89aa                	mv	s3,a0
   12630:	4409                	li	s0,2
   12632:	00810823          	sb	s0,16(sp)
   12636:	0844                	addi	s1,sp,20
   12638:	06300613          	li	a2,99
   1263c:	8526                	mv	a0,s1
   1263e:	0000a097          	auipc	ra,0xa
   12642:	4de080e7          	jalr	1246(ra) # 1cb1c <memcpy>
   12646:	08410913          	addi	s2,sp,132
   1264a:	02700613          	li	a2,39
   1264e:	854a                	mv	a0,s2
   12650:	4581                	li	a1,0
   12652:	0000a097          	auipc	ra,0xa
   12656:	45e080e7          	jalr	1118(ra) # 1cab0 <memset>
   1265a:	8626                	mv	a2,s1
   1265c:	08810023          	sb	s0,128(sp)
   12660:	6509                	lui	a0,0x2
   12662:	449d                	li	s1,7
   12664:	4811                	li	a6,4
   12666:	459d                	li	a1,7
   12668:	e5450793          	addi	a5,a0,-428 # 1e54 <.Lline_table_start1+0x1c29>
   1266c:	06300693          	li	a3,99
   12670:	4711                	li	a4,4
   12672:	853e                	mv	a0,a5
   12674:	00000073          	ecall
   12678:	00850663          	beq	a0,s0,12684 <_ZN20complex_full_dynamic3app17h39ff7f3d8f248040E+0x62>
   1267c:	c43e                	sw	a5,8(sp)
   1267e:	c626                	sw	s1,12(sp)
   12680:	01010823          	sb	a6,16(sp)
   12684:	4609                	li	a2,2
   12686:	00c51463          	bne	a0,a2,1268e <_ZN20complex_full_dynamic3app17h39ff7f3d8f248040E+0x6c>
   1268a:	4485                	li	s1,1
   1268c:	a895                	j	12700 <_ZN20complex_full_dynamic3app17h39ff7f3d8f248040E+0xde>
   1268e:	08014503          	lbu	a0,128(sp)
   12692:	4485                	li	s1,1
   12694:	02c51463          	bne	a0,a2,126bc <_ZN20complex_full_dynamic3app17h39ff7f3d8f248040E+0x9a>
   12698:	4581                	li	a1,0
   1269a:	864a                	mv	a2,s2
   1269c:	6509                	lui	a0,0x2
   1269e:	02700693          	li	a3,39
   126a2:	470d                	li	a4,3
   126a4:	e5450793          	addi	a5,a0,-428 # 1e54 <.Lline_table_start1+0x1c29>
   126a8:	4409                	li	s0,2
   126aa:	853e                	mv	a0,a5
   126ac:	00000073          	ecall
   126b0:	460d                	li	a2,3
   126b2:	00851963          	bne	a0,s0,126c4 <_ZN20complex_full_dynamic3app17h39ff7f3d8f248040E+0xa2>
   126b6:	4505                	li	a0,1
   126b8:	cd01                	beqz	a0,126d0 <_ZN20complex_full_dynamic3app17h39ff7f3d8f248040E+0xae>
   126ba:	a099                	j	12700 <_ZN20complex_full_dynamic3app17h39ff7f3d8f248040E+0xde>
   126bc:	458d                	li	a1,3
   126be:	4505                	li	a0,1
   126c0:	c901                	beqz	a0,126d0 <_ZN20complex_full_dynamic3app17h39ff7f3d8f248040E+0xae>
   126c2:	a83d                	j	12700 <_ZN20complex_full_dynamic3app17h39ff7f3d8f248040E+0xde>
   126c4:	4501                	li	a0,0
   126c6:	dcbe                	sw	a5,120(sp)
   126c8:	de82                	sw	zero,124(sp)
   126ca:	08c10023          	sb	a2,128(sp)
   126ce:	e90d                	bnez	a0,12700 <_ZN20complex_full_dynamic3app17h39ff7f3d8f248040E+0xde>
   126d0:	6509                	lui	a0,0x2
   126d2:	459d                	li	a1,7
   126d4:	e5450513          	addi	a0,a0,-428 # 1e54 <.Lline_table_start1+0x1c29>
   126d8:	4709                	li	a4,2
   126da:	07f00793          	li	a5,127
   126de:	4601                	li	a2,0
   126e0:	4681                	li	a3,0
   126e2:	00000073          	ecall
   126e6:	00a7fd63          	bgeu	a5,a0,12700 <_ZN20complex_full_dynamic3app17h39ff7f3d8f248040E+0xde>
   126ea:	0028                	addi	a0,sp,8
   126ec:	0000a097          	auipc	ra,0xa
   126f0:	3a4080e7          	jalr	932(ra) # 1ca90 <_ZN9allow_pin12full_dynamic17unshare_if_shared17h4e6b4433fd7c2282E>
   126f4:	18a8                	addi	a0,sp,120
   126f6:	0000a097          	auipc	ra,0xa
   126fa:	39a080e7          	jalr	922(ra) # 1ca90 <_ZN9allow_pin12full_dynamic17unshare_if_shared17h4e6b4433fd7c2282E>
   126fe:	4481                	li	s1,0
   12700:	c489                	beqz	s1,1270a <_ZN20complex_full_dynamic3app17h39ff7f3d8f248040E+0xe8>
   12702:	00b9a223          	sw	a1,4(s3)
   12706:	4505                	li	a0,1
   12708:	a005                	j	12728 <_ZN20complex_full_dynamic3app17h39ff7f3d8f248040E+0x106>
   1270a:	18a8                	addi	a0,sp,120
   1270c:	0000a097          	auipc	ra,0xa
   12710:	384080e7          	jalr	900(ra) # 1ca90 <_ZN9allow_pin12full_dynamic17unshare_if_shared17h4e6b4433fd7c2282E>
   12714:	00198513          	addi	a0,s3,1
   12718:	02700613          	li	a2,39
   1271c:	85ca                	mv	a1,s2
   1271e:	0000a097          	auipc	ra,0xa
   12722:	3fe080e7          	jalr	1022(ra) # 1cb1c <memcpy>
   12726:	4501                	li	a0,0
   12728:	00a98023          	sb	a0,0(s3)
   1272c:	18a8                	addi	a0,sp,120
   1272e:	0000a097          	auipc	ra,0xa
   12732:	362080e7          	jalr	866(ra) # 1ca90 <_ZN9allow_pin12full_dynamic17unshare_if_shared17h4e6b4433fd7c2282E>
   12736:	0028                	addi	a0,sp,8
   12738:	0000a097          	auipc	ra,0xa
   1273c:	358080e7          	jalr	856(ra) # 1ca90 <_ZN9allow_pin12full_dynamic17unshare_if_shared17h4e6b4433fd7c2282E>
   12740:	50fa                	lw	ra,188(sp)
   12742:	546a                	lw	s0,184(sp)
   12744:	54da                	lw	s1,180(sp)
   12746:	594a                	lw	s2,176(sp)
   12748:	59ba                	lw	s3,172(sp)
   1274a:	6129                	addi	sp,sp,192
   1274c:	8082                	ret

0001274e <_ZN20complex_full_dynamic3app17h3aec85823b1483faE>:
   1274e:	7171                	addi	sp,sp,-176
   12750:	d706                	sw	ra,172(sp)
   12752:	d522                	sw	s0,168(sp)
   12754:	d326                	sw	s1,164(sp)
   12756:	d14a                	sw	s2,160(sp)
   12758:	cf4e                	sw	s3,156(sp)
   1275a:	89aa                	mv	s3,a0
   1275c:	4409                	li	s0,2
   1275e:	00810823          	sb	s0,16(sp)
   12762:	0844                	addi	s1,sp,20
   12764:	02700613          	li	a2,39
   12768:	8526                	mv	a0,s1
   1276a:	0000a097          	auipc	ra,0xa
   1276e:	3b2080e7          	jalr	946(ra) # 1cb1c <memcpy>
   12772:	04810913          	addi	s2,sp,72
   12776:	05100613          	li	a2,81
   1277a:	854a                	mv	a0,s2
   1277c:	4581                	li	a1,0
   1277e:	0000a097          	auipc	ra,0xa
   12782:	332080e7          	jalr	818(ra) # 1cab0 <memset>
   12786:	4581                	li	a1,0
   12788:	8626                	mv	a2,s1
   1278a:	04810223          	sb	s0,68(sp)
   1278e:	6505                	lui	a0,0x1
   12790:	4491                	li	s1,4
   12792:	a3650793          	addi	a5,a0,-1482 # a36 <.Lline_table_start1+0x80b>
   12796:	02700693          	li	a3,39
   1279a:	4711                	li	a4,4
   1279c:	853e                	mv	a0,a5
   1279e:	00000073          	ecall
   127a2:	00850663          	beq	a0,s0,127ae <_ZN20complex_full_dynamic3app17h3aec85823b1483faE+0x60>
   127a6:	c43e                	sw	a5,8(sp)
   127a8:	c602                	sw	zero,12(sp)
   127aa:	00910823          	sb	s1,16(sp)
   127ae:	4609                	li	a2,2
   127b0:	00c51463          	bne	a0,a2,127b8 <_ZN20complex_full_dynamic3app17h3aec85823b1483faE+0x6a>
   127b4:	4485                	li	s1,1
   127b6:	a89d                	j	1282c <_ZN20complex_full_dynamic3app17h3aec85823b1483faE+0xde>
   127b8:	04414503          	lbu	a0,68(sp)
   127bc:	4485                	li	s1,1
   127be:	02c51563          	bne	a0,a2,127e8 <_ZN20complex_full_dynamic3app17h3aec85823b1483faE+0x9a>
   127c2:	864a                	mv	a2,s2
   127c4:	6505                	lui	a0,0x1
   127c6:	4811                	li	a6,4
   127c8:	4591                	li	a1,4
   127ca:	05100693          	li	a3,81
   127ce:	470d                	li	a4,3
   127d0:	a3650793          	addi	a5,a0,-1482 # a36 <.Lline_table_start1+0x80b>
   127d4:	4409                	li	s0,2
   127d6:	853e                	mv	a0,a5
   127d8:	00000073          	ecall
   127dc:	460d                	li	a2,3
   127de:	00851963          	bne	a0,s0,127f0 <_ZN20complex_full_dynamic3app17h3aec85823b1483faE+0xa2>
   127e2:	4505                	li	a0,1
   127e4:	cd01                	beqz	a0,127fc <_ZN20complex_full_dynamic3app17h3aec85823b1483faE+0xae>
   127e6:	a099                	j	1282c <_ZN20complex_full_dynamic3app17h3aec85823b1483faE+0xde>
   127e8:	458d                	li	a1,3
   127ea:	4505                	li	a0,1
   127ec:	c901                	beqz	a0,127fc <_ZN20complex_full_dynamic3app17h3aec85823b1483faE+0xae>
   127ee:	a83d                	j	1282c <_ZN20complex_full_dynamic3app17h3aec85823b1483faE+0xde>
   127f0:	4501                	li	a0,0
   127f2:	de3e                	sw	a5,60(sp)
   127f4:	c0c2                	sw	a6,64(sp)
   127f6:	04c10223          	sb	a2,68(sp)
   127fa:	e90d                	bnez	a0,1282c <_ZN20complex_full_dynamic3app17h3aec85823b1483faE+0xde>
   127fc:	6505                	lui	a0,0x1
   127fe:	4611                	li	a2,4
   12800:	a3650513          	addi	a0,a0,-1482 # a36 <.Lline_table_start1+0x80b>
   12804:	4709                	li	a4,2
   12806:	07f00793          	li	a5,127
   1280a:	4581                	li	a1,0
   1280c:	4681                	li	a3,0
   1280e:	00000073          	ecall
   12812:	00a7fd63          	bgeu	a5,a0,1282c <_ZN20complex_full_dynamic3app17h3aec85823b1483faE+0xde>
   12816:	0028                	addi	a0,sp,8
   12818:	0000a097          	auipc	ra,0xa
   1281c:	278080e7          	jalr	632(ra) # 1ca90 <_ZN9allow_pin12full_dynamic17unshare_if_shared17h4e6b4433fd7c2282E>
   12820:	1868                	addi	a0,sp,60
   12822:	0000a097          	auipc	ra,0xa
   12826:	26e080e7          	jalr	622(ra) # 1ca90 <_ZN9allow_pin12full_dynamic17unshare_if_shared17h4e6b4433fd7c2282E>
   1282a:	4481                	li	s1,0
   1282c:	c489                	beqz	s1,12836 <_ZN20complex_full_dynamic3app17h3aec85823b1483faE+0xe8>
   1282e:	00b9a223          	sw	a1,4(s3)
   12832:	4505                	li	a0,1
   12834:	a005                	j	12854 <_ZN20complex_full_dynamic3app17h3aec85823b1483faE+0x106>
   12836:	1868                	addi	a0,sp,60
   12838:	0000a097          	auipc	ra,0xa
   1283c:	258080e7          	jalr	600(ra) # 1ca90 <_ZN9allow_pin12full_dynamic17unshare_if_shared17h4e6b4433fd7c2282E>
   12840:	00198513          	addi	a0,s3,1
   12844:	05100613          	li	a2,81
   12848:	85ca                	mv	a1,s2
   1284a:	0000a097          	auipc	ra,0xa
   1284e:	2d2080e7          	jalr	722(ra) # 1cb1c <memcpy>
   12852:	4501                	li	a0,0
   12854:	00a98023          	sb	a0,0(s3)
   12858:	1868                	addi	a0,sp,60
   1285a:	0000a097          	auipc	ra,0xa
   1285e:	236080e7          	jalr	566(ra) # 1ca90 <_ZN9allow_pin12full_dynamic17unshare_if_shared17h4e6b4433fd7c2282E>
   12862:	0028                	addi	a0,sp,8
   12864:	0000a097          	auipc	ra,0xa
   12868:	22c080e7          	jalr	556(ra) # 1ca90 <_ZN9allow_pin12full_dynamic17unshare_if_shared17h4e6b4433fd7c2282E>
   1286c:	50ba                	lw	ra,172(sp)
   1286e:	542a                	lw	s0,168(sp)
   12870:	549a                	lw	s1,164(sp)
   12872:	590a                	lw	s2,160(sp)
   12874:	49fa                	lw	s3,156(sp)
   12876:	614d                	addi	sp,sp,176
   12878:	8082                	ret

0001287a <_ZN20complex_full_dynamic3app17h3d45905544e8e8f2E>:
   1287a:	7131                	addi	sp,sp,-192
   1287c:	df06                	sw	ra,188(sp)
   1287e:	dd22                	sw	s0,184(sp)
   12880:	db26                	sw	s1,180(sp)
   12882:	d94a                	sw	s2,176(sp)
   12884:	d74e                	sw	s3,172(sp)
   12886:	89aa                	mv	s3,a0
   12888:	4409                	li	s0,2
   1288a:	00810823          	sb	s0,16(sp)
   1288e:	0844                	addi	s1,sp,20
   12890:	04f00613          	li	a2,79
   12894:	8526                	mv	a0,s1
   12896:	0000a097          	auipc	ra,0xa
   1289a:	286080e7          	jalr	646(ra) # 1cb1c <memcpy>
   1289e:	07010913          	addi	s2,sp,112
   128a2:	03b00613          	li	a2,59
   128a6:	854a                	mv	a0,s2
   128a8:	4581                	li	a1,0
   128aa:	0000a097          	auipc	ra,0xa
   128ae:	206080e7          	jalr	518(ra) # 1cab0 <memset>
   128b2:	8626                	mv	a2,s1
   128b4:	06810623          	sb	s0,108(sp)
   128b8:	6505                	lui	a0,0x1
   128ba:	44a1                	li	s1,8
   128bc:	4811                	li	a6,4
   128be:	45a1                	li	a1,8
   128c0:	a0650793          	addi	a5,a0,-1530 # a06 <.Lline_table_start1+0x7db>
   128c4:	04f00693          	li	a3,79
   128c8:	4711                	li	a4,4
   128ca:	853e                	mv	a0,a5
   128cc:	00000073          	ecall
   128d0:	00850663          	beq	a0,s0,128dc <_ZN20complex_full_dynamic3app17h3d45905544e8e8f2E+0x62>
   128d4:	c43e                	sw	a5,8(sp)
   128d6:	c626                	sw	s1,12(sp)
   128d8:	01010823          	sb	a6,16(sp)
   128dc:	4609                	li	a2,2
   128de:	00c51463          	bne	a0,a2,128e6 <_ZN20complex_full_dynamic3app17h3d45905544e8e8f2E+0x6c>
   128e2:	4485                	li	s1,1
   128e4:	a89d                	j	1295a <_ZN20complex_full_dynamic3app17h3d45905544e8e8f2E+0xe0>
   128e6:	06c14503          	lbu	a0,108(sp)
   128ea:	4485                	li	s1,1
   128ec:	02c51563          	bne	a0,a2,12916 <_ZN20complex_full_dynamic3app17h3d45905544e8e8f2E+0x9c>
   128f0:	864a                	mv	a2,s2
   128f2:	6505                	lui	a0,0x1
   128f4:	4815                	li	a6,5
   128f6:	4595                	li	a1,5
   128f8:	03b00693          	li	a3,59
   128fc:	470d                	li	a4,3
   128fe:	a0650793          	addi	a5,a0,-1530 # a06 <.Lline_table_start1+0x7db>
   12902:	4409                	li	s0,2
   12904:	853e                	mv	a0,a5
   12906:	00000073          	ecall
   1290a:	460d                	li	a2,3
   1290c:	00851963          	bne	a0,s0,1291e <_ZN20complex_full_dynamic3app17h3d45905544e8e8f2E+0xa4>
   12910:	4505                	li	a0,1
   12912:	cd01                	beqz	a0,1292a <_ZN20complex_full_dynamic3app17h3d45905544e8e8f2E+0xb0>
   12914:	a099                	j	1295a <_ZN20complex_full_dynamic3app17h3d45905544e8e8f2E+0xe0>
   12916:	458d                	li	a1,3
   12918:	4505                	li	a0,1
   1291a:	c901                	beqz	a0,1292a <_ZN20complex_full_dynamic3app17h3d45905544e8e8f2E+0xb0>
   1291c:	a83d                	j	1295a <_ZN20complex_full_dynamic3app17h3d45905544e8e8f2E+0xe0>
   1291e:	4501                	li	a0,0
   12920:	d2be                	sw	a5,100(sp)
   12922:	d4c2                	sw	a6,104(sp)
   12924:	06c10623          	sb	a2,108(sp)
   12928:	e90d                	bnez	a0,1295a <_ZN20complex_full_dynamic3app17h3d45905544e8e8f2E+0xe0>
   1292a:	6505                	lui	a0,0x1
   1292c:	45a1                	li	a1,8
   1292e:	4615                	li	a2,5
   12930:	a0650513          	addi	a0,a0,-1530 # a06 <.Lline_table_start1+0x7db>
   12934:	4709                	li	a4,2
   12936:	07f00793          	li	a5,127
   1293a:	4681                	li	a3,0
   1293c:	00000073          	ecall
   12940:	00a7fd63          	bgeu	a5,a0,1295a <_ZN20complex_full_dynamic3app17h3d45905544e8e8f2E+0xe0>
   12944:	0028                	addi	a0,sp,8
   12946:	0000a097          	auipc	ra,0xa
   1294a:	14a080e7          	jalr	330(ra) # 1ca90 <_ZN9allow_pin12full_dynamic17unshare_if_shared17h4e6b4433fd7c2282E>
   1294e:	10c8                	addi	a0,sp,100
   12950:	0000a097          	auipc	ra,0xa
   12954:	140080e7          	jalr	320(ra) # 1ca90 <_ZN9allow_pin12full_dynamic17unshare_if_shared17h4e6b4433fd7c2282E>
   12958:	4481                	li	s1,0
   1295a:	c489                	beqz	s1,12964 <_ZN20complex_full_dynamic3app17h3d45905544e8e8f2E+0xea>
   1295c:	00b9a223          	sw	a1,4(s3)
   12960:	4505                	li	a0,1
   12962:	a005                	j	12982 <_ZN20complex_full_dynamic3app17h3d45905544e8e8f2E+0x108>
   12964:	10c8                	addi	a0,sp,100
   12966:	0000a097          	auipc	ra,0xa
   1296a:	12a080e7          	jalr	298(ra) # 1ca90 <_ZN9allow_pin12full_dynamic17unshare_if_shared17h4e6b4433fd7c2282E>
   1296e:	00198513          	addi	a0,s3,1
   12972:	03b00613          	li	a2,59
   12976:	85ca                	mv	a1,s2
   12978:	0000a097          	auipc	ra,0xa
   1297c:	1a4080e7          	jalr	420(ra) # 1cb1c <memcpy>
   12980:	4501                	li	a0,0
   12982:	00a98023          	sb	a0,0(s3)
   12986:	10c8                	addi	a0,sp,100
   12988:	0000a097          	auipc	ra,0xa
   1298c:	108080e7          	jalr	264(ra) # 1ca90 <_ZN9allow_pin12full_dynamic17unshare_if_shared17h4e6b4433fd7c2282E>
   12990:	0028                	addi	a0,sp,8
   12992:	0000a097          	auipc	ra,0xa
   12996:	0fe080e7          	jalr	254(ra) # 1ca90 <_ZN9allow_pin12full_dynamic17unshare_if_shared17h4e6b4433fd7c2282E>
   1299a:	50fa                	lw	ra,188(sp)
   1299c:	546a                	lw	s0,184(sp)
   1299e:	54da                	lw	s1,180(sp)
   129a0:	594a                	lw	s2,176(sp)
   129a2:	59ba                	lw	s3,172(sp)
   129a4:	6129                	addi	sp,sp,192
   129a6:	8082                	ret

000129a8 <_ZN20complex_full_dynamic3app17h3e08a91cc5019f9dE>:
   129a8:	7155                	addi	sp,sp,-208
   129aa:	c786                	sw	ra,204(sp)
   129ac:	c5a2                	sw	s0,200(sp)
   129ae:	c3a6                	sw	s1,196(sp)
   129b0:	c1ca                	sw	s2,192(sp)
   129b2:	df4e                	sw	s3,188(sp)
   129b4:	89aa                	mv	s3,a0
   129b6:	4409                	li	s0,2
   129b8:	00810623          	sb	s0,12(sp)
   129bc:	0804                	addi	s1,sp,16
   129be:	05d00613          	li	a2,93
   129c2:	8526                	mv	a0,s1
   129c4:	0000a097          	auipc	ra,0xa
   129c8:	158080e7          	jalr	344(ra) # 1cb1c <memcpy>
   129cc:	07c10913          	addi	s2,sp,124
   129d0:	04000613          	li	a2,64
   129d4:	854a                	mv	a0,s2
   129d6:	4581                	li	a1,0
   129d8:	0000a097          	auipc	ra,0xa
   129dc:	0d8080e7          	jalr	216(ra) # 1cab0 <memset>
   129e0:	8626                	mv	a2,s1
   129e2:	06810c23          	sb	s0,120(sp)
   129e6:	6505                	lui	a0,0x1
   129e8:	44a1                	li	s1,8
   129ea:	4811                	li	a6,4
   129ec:	45a1                	li	a1,8
   129ee:	02850793          	addi	a5,a0,40 # 1028 <.Lline_table_start1+0xdfd>
   129f2:	05d00693          	li	a3,93
   129f6:	4711                	li	a4,4
   129f8:	853e                	mv	a0,a5
   129fa:	00000073          	ecall
   129fe:	00850663          	beq	a0,s0,12a0a <_ZN20complex_full_dynamic3app17h3e08a91cc5019f9dE+0x62>
   12a02:	c23e                	sw	a5,4(sp)
   12a04:	c426                	sw	s1,8(sp)
   12a06:	01010623          	sb	a6,12(sp)
   12a0a:	4609                	li	a2,2
   12a0c:	00c51463          	bne	a0,a2,12a14 <_ZN20complex_full_dynamic3app17h3e08a91cc5019f9dE+0x6c>
   12a10:	4485                	li	s1,1
   12a12:	a89d                	j	12a88 <_ZN20complex_full_dynamic3app17h3e08a91cc5019f9dE+0xe0>
   12a14:	07814503          	lbu	a0,120(sp)
   12a18:	4485                	li	s1,1
   12a1a:	02c51563          	bne	a0,a2,12a44 <_ZN20complex_full_dynamic3app17h3e08a91cc5019f9dE+0x9c>
   12a1e:	864a                	mv	a2,s2
   12a20:	6505                	lui	a0,0x1
   12a22:	4811                	li	a6,4
   12a24:	4591                	li	a1,4
   12a26:	04000693          	li	a3,64
   12a2a:	470d                	li	a4,3
   12a2c:	02850793          	addi	a5,a0,40 # 1028 <.Lline_table_start1+0xdfd>
   12a30:	4409                	li	s0,2
   12a32:	853e                	mv	a0,a5
   12a34:	00000073          	ecall
   12a38:	460d                	li	a2,3
   12a3a:	00851963          	bne	a0,s0,12a4c <_ZN20complex_full_dynamic3app17h3e08a91cc5019f9dE+0xa4>
   12a3e:	4505                	li	a0,1
   12a40:	cd01                	beqz	a0,12a58 <_ZN20complex_full_dynamic3app17h3e08a91cc5019f9dE+0xb0>
   12a42:	a099                	j	12a88 <_ZN20complex_full_dynamic3app17h3e08a91cc5019f9dE+0xe0>
   12a44:	458d                	li	a1,3
   12a46:	4505                	li	a0,1
   12a48:	c901                	beqz	a0,12a58 <_ZN20complex_full_dynamic3app17h3e08a91cc5019f9dE+0xb0>
   12a4a:	a83d                	j	12a88 <_ZN20complex_full_dynamic3app17h3e08a91cc5019f9dE+0xe0>
   12a4c:	4501                	li	a0,0
   12a4e:	d8be                	sw	a5,112(sp)
   12a50:	dac2                	sw	a6,116(sp)
   12a52:	06c10c23          	sb	a2,120(sp)
   12a56:	e90d                	bnez	a0,12a88 <_ZN20complex_full_dynamic3app17h3e08a91cc5019f9dE+0xe0>
   12a58:	6505                	lui	a0,0x1
   12a5a:	45a1                	li	a1,8
   12a5c:	4611                	li	a2,4
   12a5e:	02850513          	addi	a0,a0,40 # 1028 <.Lline_table_start1+0xdfd>
   12a62:	4709                	li	a4,2
   12a64:	07f00793          	li	a5,127
   12a68:	4681                	li	a3,0
   12a6a:	00000073          	ecall
   12a6e:	00a7fd63          	bgeu	a5,a0,12a88 <_ZN20complex_full_dynamic3app17h3e08a91cc5019f9dE+0xe0>
   12a72:	0048                	addi	a0,sp,4
   12a74:	0000a097          	auipc	ra,0xa
   12a78:	01c080e7          	jalr	28(ra) # 1ca90 <_ZN9allow_pin12full_dynamic17unshare_if_shared17h4e6b4433fd7c2282E>
   12a7c:	1888                	addi	a0,sp,112
   12a7e:	0000a097          	auipc	ra,0xa
   12a82:	012080e7          	jalr	18(ra) # 1ca90 <_ZN9allow_pin12full_dynamic17unshare_if_shared17h4e6b4433fd7c2282E>
   12a86:	4481                	li	s1,0
   12a88:	c489                	beqz	s1,12a92 <_ZN20complex_full_dynamic3app17h3e08a91cc5019f9dE+0xea>
   12a8a:	00b9a223          	sw	a1,4(s3)
   12a8e:	4505                	li	a0,1
   12a90:	a005                	j	12ab0 <_ZN20complex_full_dynamic3app17h3e08a91cc5019f9dE+0x108>
   12a92:	1888                	addi	a0,sp,112
   12a94:	0000a097          	auipc	ra,0xa
   12a98:	ffc080e7          	jalr	-4(ra) # 1ca90 <_ZN9allow_pin12full_dynamic17unshare_if_shared17h4e6b4433fd7c2282E>
   12a9c:	00198513          	addi	a0,s3,1
   12aa0:	04000613          	li	a2,64
   12aa4:	85ca                	mv	a1,s2
   12aa6:	0000a097          	auipc	ra,0xa
   12aaa:	076080e7          	jalr	118(ra) # 1cb1c <memcpy>
   12aae:	4501                	li	a0,0
   12ab0:	00a98023          	sb	a0,0(s3)
   12ab4:	1888                	addi	a0,sp,112
   12ab6:	0000a097          	auipc	ra,0xa
   12aba:	fda080e7          	jalr	-38(ra) # 1ca90 <_ZN9allow_pin12full_dynamic17unshare_if_shared17h4e6b4433fd7c2282E>
   12abe:	0048                	addi	a0,sp,4
   12ac0:	0000a097          	auipc	ra,0xa
   12ac4:	fd0080e7          	jalr	-48(ra) # 1ca90 <_ZN9allow_pin12full_dynamic17unshare_if_shared17h4e6b4433fd7c2282E>
   12ac8:	40be                	lw	ra,204(sp)
   12aca:	442e                	lw	s0,200(sp)
   12acc:	449e                	lw	s1,196(sp)
   12ace:	490e                	lw	s2,192(sp)
   12ad0:	59fa                	lw	s3,188(sp)
   12ad2:	6169                	addi	sp,sp,208
   12ad4:	8082                	ret

00012ad6 <_ZN20complex_full_dynamic3app17h4631962ff7cb3a41E>:
   12ad6:	7175                	addi	sp,sp,-144
   12ad8:	c706                	sw	ra,140(sp)
   12ada:	c522                	sw	s0,136(sp)
   12adc:	c326                	sw	s1,132(sp)
   12ade:	c14a                	sw	s2,128(sp)
   12ae0:	dece                	sw	s3,124(sp)
   12ae2:	89aa                	mv	s3,a0
   12ae4:	4409                	li	s0,2
   12ae6:	00810623          	sb	s0,12(sp)
   12aea:	0804                	addi	s1,sp,16
   12aec:	466d                	li	a2,27
   12aee:	8526                	mv	a0,s1
   12af0:	0000a097          	auipc	ra,0xa
   12af4:	02c080e7          	jalr	44(ra) # 1cb1c <memcpy>
   12af8:	03810913          	addi	s2,sp,56
   12afc:	04100613          	li	a2,65
   12b00:	854a                	mv	a0,s2
   12b02:	4581                	li	a1,0
   12b04:	0000a097          	auipc	ra,0xa
   12b08:	fac080e7          	jalr	-84(ra) # 1cab0 <memset>
   12b0c:	8626                	mv	a2,s1
   12b0e:	02810a23          	sb	s0,52(sp)
   12b12:	14000793          	li	a5,320
   12b16:	44a1                	li	s1,8
   12b18:	4811                	li	a6,4
   12b1a:	14000513          	li	a0,320
   12b1e:	45a1                	li	a1,8
   12b20:	46ed                	li	a3,27
   12b22:	4711                	li	a4,4
   12b24:	00000073          	ecall
   12b28:	00850663          	beq	a0,s0,12b34 <_ZN20complex_full_dynamic3app17h4631962ff7cb3a41E+0x5e>
   12b2c:	c23e                	sw	a5,4(sp)
   12b2e:	c426                	sw	s1,8(sp)
   12b30:	01010623          	sb	a6,12(sp)
   12b34:	4609                	li	a2,2
   12b36:	00c51463          	bne	a0,a2,12b3e <_ZN20complex_full_dynamic3app17h4631962ff7cb3a41E+0x68>
   12b3a:	4785                	li	a5,1
   12b3c:	a895                	j	12bb0 <_ZN20complex_full_dynamic3app17h4631962ff7cb3a41E+0xda>
   12b3e:	03414503          	lbu	a0,52(sp)
   12b42:	4785                	li	a5,1
   12b44:	02c51563          	bne	a0,a2,12b6e <_ZN20complex_full_dynamic3app17h4631962ff7cb3a41E+0x98>
   12b48:	864a                	mv	a2,s2
   12b4a:	14000493          	li	s1,320
   12b4e:	4825                	li	a6,9
   12b50:	14000513          	li	a0,320
   12b54:	45a5                	li	a1,9
   12b56:	04100693          	li	a3,65
   12b5a:	470d                	li	a4,3
   12b5c:	4409                	li	s0,2
   12b5e:	00000073          	ecall
   12b62:	460d                	li	a2,3
   12b64:	00851963          	bne	a0,s0,12b76 <_ZN20complex_full_dynamic3app17h4631962ff7cb3a41E+0xa0>
   12b68:	4505                	li	a0,1
   12b6a:	cd01                	beqz	a0,12b82 <_ZN20complex_full_dynamic3app17h4631962ff7cb3a41E+0xac>
   12b6c:	a091                	j	12bb0 <_ZN20complex_full_dynamic3app17h4631962ff7cb3a41E+0xda>
   12b6e:	458d                	li	a1,3
   12b70:	4505                	li	a0,1
   12b72:	c901                	beqz	a0,12b82 <_ZN20complex_full_dynamic3app17h4631962ff7cb3a41E+0xac>
   12b74:	a835                	j	12bb0 <_ZN20complex_full_dynamic3app17h4631962ff7cb3a41E+0xda>
   12b76:	4501                	li	a0,0
   12b78:	d626                	sw	s1,44(sp)
   12b7a:	d842                	sw	a6,48(sp)
   12b7c:	02c10a23          	sb	a2,52(sp)
   12b80:	e905                	bnez	a0,12bb0 <_ZN20complex_full_dynamic3app17h4631962ff7cb3a41E+0xda>
   12b82:	14000513          	li	a0,320
   12b86:	45a1                	li	a1,8
   12b88:	4625                	li	a2,9
   12b8a:	4709                	li	a4,2
   12b8c:	07f00493          	li	s1,127
   12b90:	4681                	li	a3,0
   12b92:	00000073          	ecall
   12b96:	00a4fd63          	bgeu	s1,a0,12bb0 <_ZN20complex_full_dynamic3app17h4631962ff7cb3a41E+0xda>
   12b9a:	0048                	addi	a0,sp,4
   12b9c:	0000a097          	auipc	ra,0xa
   12ba0:	ef4080e7          	jalr	-268(ra) # 1ca90 <_ZN9allow_pin12full_dynamic17unshare_if_shared17h4e6b4433fd7c2282E>
   12ba4:	1068                	addi	a0,sp,44
   12ba6:	0000a097          	auipc	ra,0xa
   12baa:	eea080e7          	jalr	-278(ra) # 1ca90 <_ZN9allow_pin12full_dynamic17unshare_if_shared17h4e6b4433fd7c2282E>
   12bae:	4781                	li	a5,0
   12bb0:	c789                	beqz	a5,12bba <_ZN20complex_full_dynamic3app17h4631962ff7cb3a41E+0xe4>
   12bb2:	00b9a223          	sw	a1,4(s3)
   12bb6:	4505                	li	a0,1
   12bb8:	a005                	j	12bd8 <_ZN20complex_full_dynamic3app17h4631962ff7cb3a41E+0x102>
   12bba:	1068                	addi	a0,sp,44
   12bbc:	0000a097          	auipc	ra,0xa
   12bc0:	ed4080e7          	jalr	-300(ra) # 1ca90 <_ZN9allow_pin12full_dynamic17unshare_if_shared17h4e6b4433fd7c2282E>
   12bc4:	00198513          	addi	a0,s3,1
   12bc8:	04100613          	li	a2,65
   12bcc:	85ca                	mv	a1,s2
   12bce:	0000a097          	auipc	ra,0xa
   12bd2:	f4e080e7          	jalr	-178(ra) # 1cb1c <memcpy>
   12bd6:	4501                	li	a0,0
   12bd8:	00a98023          	sb	a0,0(s3)
   12bdc:	1068                	addi	a0,sp,44
   12bde:	0000a097          	auipc	ra,0xa
   12be2:	eb2080e7          	jalr	-334(ra) # 1ca90 <_ZN9allow_pin12full_dynamic17unshare_if_shared17h4e6b4433fd7c2282E>
   12be6:	0048                	addi	a0,sp,4
   12be8:	0000a097          	auipc	ra,0xa
   12bec:	ea8080e7          	jalr	-344(ra) # 1ca90 <_ZN9allow_pin12full_dynamic17unshare_if_shared17h4e6b4433fd7c2282E>
   12bf0:	40ba                	lw	ra,140(sp)
   12bf2:	442a                	lw	s0,136(sp)
   12bf4:	449a                	lw	s1,132(sp)
   12bf6:	490a                	lw	s2,128(sp)
   12bf8:	59f6                	lw	s3,124(sp)
   12bfa:	6149                	addi	sp,sp,144
   12bfc:	8082                	ret

00012bfe <_ZN20complex_full_dynamic3app17h474baa857a7faab4E>:
   12bfe:	7119                	addi	sp,sp,-128
   12c00:	de86                	sw	ra,124(sp)
   12c02:	dca2                	sw	s0,120(sp)
   12c04:	daa6                	sw	s1,116(sp)
   12c06:	d8ca                	sw	s2,112(sp)
   12c08:	d6ce                	sw	s3,108(sp)
   12c0a:	89aa                	mv	s3,a0
   12c0c:	4409                	li	s0,2
   12c0e:	00810423          	sb	s0,8(sp)
   12c12:	0064                	addi	s1,sp,12
   12c14:	03f00613          	li	a2,63
   12c18:	8526                	mv	a0,s1
   12c1a:	0000a097          	auipc	ra,0xa
   12c1e:	f02080e7          	jalr	-254(ra) # 1cb1c <memcpy>
   12c22:	8626                	mv	a2,s1
   12c24:	d282                	sw	zero,100(sp)
   12c26:	06010423          	sb	zero,104(sp)
   12c2a:	04810a23          	sb	s0,84(sp)
   12c2e:	cc82                	sw	zero,88(sp)
   12c30:	ce82                	sw	zero,92(sp)
   12c32:	d082                	sw	zero,96(sp)
   12c34:	6505                	lui	a0,0x1
   12c36:	4491                	li	s1,4
   12c38:	4591                	li	a1,4
   12c3a:	4d750793          	addi	a5,a0,1239 # 14d7 <.Lline_table_start1+0x12ac>
   12c3e:	03f00693          	li	a3,63
   12c42:	4711                	li	a4,4
   12c44:	853e                	mv	a0,a5
   12c46:	00000073          	ecall
   12c4a:	00850663          	beq	a0,s0,12c56 <_ZN20complex_full_dynamic3app17h474baa857a7faab4E+0x58>
   12c4e:	c03e                	sw	a5,0(sp)
   12c50:	c226                	sw	s1,4(sp)
   12c52:	00910423          	sb	s1,8(sp)
   12c56:	4609                	li	a2,2
   12c58:	05810913          	addi	s2,sp,88
   12c5c:	00c51463          	bne	a0,a2,12c64 <_ZN20complex_full_dynamic3app17h474baa857a7faab4E+0x66>
   12c60:	4485                	li	s1,1
   12c62:	a88d                	j	12cd4 <_ZN20complex_full_dynamic3app17h474baa857a7faab4E+0xd6>
   12c64:	05414503          	lbu	a0,84(sp)
   12c68:	4485                	li	s1,1
   12c6a:	02c51363          	bne	a0,a2,12c90 <_ZN20complex_full_dynamic3app17h474baa857a7faab4E+0x92>
   12c6e:	864a                	mv	a2,s2
   12c70:	6505                	lui	a0,0x1
   12c72:	458d                	li	a1,3
   12c74:	46c5                	li	a3,17
   12c76:	470d                	li	a4,3
   12c78:	4d750793          	addi	a5,a0,1239 # 14d7 <.Lline_table_start1+0x12ac>
   12c7c:	4409                	li	s0,2
   12c7e:	853e                	mv	a0,a5
   12c80:	00000073          	ecall
   12c84:	460d                	li	a2,3
   12c86:	00851963          	bne	a0,s0,12c98 <_ZN20complex_full_dynamic3app17h474baa857a7faab4E+0x9a>
   12c8a:	4505                	li	a0,1
   12c8c:	cd01                	beqz	a0,12ca4 <_ZN20complex_full_dynamic3app17h474baa857a7faab4E+0xa6>
   12c8e:	a099                	j	12cd4 <_ZN20complex_full_dynamic3app17h474baa857a7faab4E+0xd6>
   12c90:	458d                	li	a1,3
   12c92:	4505                	li	a0,1
   12c94:	c901                	beqz	a0,12ca4 <_ZN20complex_full_dynamic3app17h474baa857a7faab4E+0xa6>
   12c96:	a83d                	j	12cd4 <_ZN20complex_full_dynamic3app17h474baa857a7faab4E+0xd6>
   12c98:	4501                	li	a0,0
   12c9a:	c6be                	sw	a5,76(sp)
   12c9c:	c8b2                	sw	a2,80(sp)
   12c9e:	04c10a23          	sb	a2,84(sp)
   12ca2:	e90d                	bnez	a0,12cd4 <_ZN20complex_full_dynamic3app17h474baa857a7faab4E+0xd6>
   12ca4:	6505                	lui	a0,0x1
   12ca6:	4591                	li	a1,4
   12ca8:	460d                	li	a2,3
   12caa:	4d750513          	addi	a0,a0,1239 # 14d7 <.Lline_table_start1+0x12ac>
   12cae:	4709                	li	a4,2
   12cb0:	07f00793          	li	a5,127
   12cb4:	4681                	li	a3,0
   12cb6:	00000073          	ecall
   12cba:	00a7fd63          	bgeu	a5,a0,12cd4 <_ZN20complex_full_dynamic3app17h474baa857a7faab4E+0xd6>
   12cbe:	850a                	mv	a0,sp
   12cc0:	0000a097          	auipc	ra,0xa
   12cc4:	dd0080e7          	jalr	-560(ra) # 1ca90 <_ZN9allow_pin12full_dynamic17unshare_if_shared17h4e6b4433fd7c2282E>
   12cc8:	00e8                	addi	a0,sp,76
   12cca:	0000a097          	auipc	ra,0xa
   12cce:	dc6080e7          	jalr	-570(ra) # 1ca90 <_ZN9allow_pin12full_dynamic17unshare_if_shared17h4e6b4433fd7c2282E>
   12cd2:	4481                	li	s1,0
   12cd4:	c489                	beqz	s1,12cde <_ZN20complex_full_dynamic3app17h474baa857a7faab4E+0xe0>
   12cd6:	00b9a223          	sw	a1,4(s3)
   12cda:	4505                	li	a0,1
   12cdc:	a839                	j	12cfa <_ZN20complex_full_dynamic3app17h474baa857a7faab4E+0xfc>
   12cde:	00e8                	addi	a0,sp,76
   12ce0:	0000a097          	auipc	ra,0xa
   12ce4:	db0080e7          	jalr	-592(ra) # 1ca90 <_ZN9allow_pin12full_dynamic17unshare_if_shared17h4e6b4433fd7c2282E>
   12ce8:	00198513          	addi	a0,s3,1
   12cec:	4645                	li	a2,17
   12cee:	85ca                	mv	a1,s2
   12cf0:	0000a097          	auipc	ra,0xa
   12cf4:	e2c080e7          	jalr	-468(ra) # 1cb1c <memcpy>
   12cf8:	4501                	li	a0,0
   12cfa:	00a98023          	sb	a0,0(s3)
   12cfe:	00e8                	addi	a0,sp,76
   12d00:	0000a097          	auipc	ra,0xa
   12d04:	d90080e7          	jalr	-624(ra) # 1ca90 <_ZN9allow_pin12full_dynamic17unshare_if_shared17h4e6b4433fd7c2282E>
   12d08:	850a                	mv	a0,sp
   12d0a:	0000a097          	auipc	ra,0xa
   12d0e:	d86080e7          	jalr	-634(ra) # 1ca90 <_ZN9allow_pin12full_dynamic17unshare_if_shared17h4e6b4433fd7c2282E>
   12d12:	50f6                	lw	ra,124(sp)
   12d14:	5466                	lw	s0,120(sp)
   12d16:	54d6                	lw	s1,116(sp)
   12d18:	5946                	lw	s2,112(sp)
   12d1a:	59b6                	lw	s3,108(sp)
   12d1c:	6109                	addi	sp,sp,128
   12d1e:	8082                	ret

00012d20 <_ZN20complex_full_dynamic3app17h4a838cd0ccf006afE>:
   12d20:	7175                	addi	sp,sp,-144
   12d22:	c706                	sw	ra,140(sp)
   12d24:	c522                	sw	s0,136(sp)
   12d26:	c326                	sw	s1,132(sp)
   12d28:	c14a                	sw	s2,128(sp)
   12d2a:	dece                	sw	s3,124(sp)
   12d2c:	89aa                	mv	s3,a0
   12d2e:	4409                	li	s0,2
   12d30:	00810823          	sb	s0,16(sp)
   12d34:	0844                	addi	s1,sp,20
   12d36:	03f00613          	li	a2,63
   12d3a:	8526                	mv	a0,s1
   12d3c:	0000a097          	auipc	ra,0xa
   12d40:	de0080e7          	jalr	-544(ra) # 1cb1c <memcpy>
   12d44:	8626                	mv	a2,s1
   12d46:	d682                	sw	zero,108(sp)
   12d48:	d882                	sw	zero,112(sp)
   12d4a:	da82                	sw	zero,116(sp)
   12d4c:	dc82                	sw	zero,120(sp)
   12d4e:	04810e23          	sb	s0,92(sp)
   12d52:	d082                	sw	zero,96(sp)
   12d54:	d282                	sw	zero,100(sp)
   12d56:	d482                	sw	zero,104(sp)
   12d58:	6505                	lui	a0,0x1
   12d5a:	4495                	li	s1,5
   12d5c:	4811                	li	a6,4
   12d5e:	4595                	li	a1,5
   12d60:	69450793          	addi	a5,a0,1684 # 1694 <.Lline_table_start1+0x1469>
   12d64:	03f00693          	li	a3,63
   12d68:	4711                	li	a4,4
   12d6a:	853e                	mv	a0,a5
   12d6c:	00000073          	ecall
   12d70:	00850663          	beq	a0,s0,12d7c <_ZN20complex_full_dynamic3app17h4a838cd0ccf006afE+0x5c>
   12d74:	c43e                	sw	a5,8(sp)
   12d76:	c626                	sw	s1,12(sp)
   12d78:	01010823          	sb	a6,16(sp)
   12d7c:	4609                	li	a2,2
   12d7e:	06010913          	addi	s2,sp,96
   12d82:	00c51463          	bne	a0,a2,12d8a <_ZN20complex_full_dynamic3app17h4a838cd0ccf006afE+0x6a>
   12d86:	4485                	li	s1,1
   12d88:	a895                	j	12dfc <_ZN20complex_full_dynamic3app17h4a838cd0ccf006afE+0xdc>
   12d8a:	05c14503          	lbu	a0,92(sp)
   12d8e:	4485                	li	s1,1
   12d90:	02c51463          	bne	a0,a2,12db8 <_ZN20complex_full_dynamic3app17h4a838cd0ccf006afE+0x98>
   12d94:	864a                	mv	a2,s2
   12d96:	6505                	lui	a0,0x1
   12d98:	4825                	li	a6,9
   12d9a:	45a5                	li	a1,9
   12d9c:	46f1                	li	a3,28
   12d9e:	470d                	li	a4,3
   12da0:	69450793          	addi	a5,a0,1684 # 1694 <.Lline_table_start1+0x1469>
   12da4:	4409                	li	s0,2
   12da6:	853e                	mv	a0,a5
   12da8:	00000073          	ecall
   12dac:	460d                	li	a2,3
   12dae:	00851963          	bne	a0,s0,12dc0 <_ZN20complex_full_dynamic3app17h4a838cd0ccf006afE+0xa0>
   12db2:	4505                	li	a0,1
   12db4:	cd01                	beqz	a0,12dcc <_ZN20complex_full_dynamic3app17h4a838cd0ccf006afE+0xac>
   12db6:	a099                	j	12dfc <_ZN20complex_full_dynamic3app17h4a838cd0ccf006afE+0xdc>
   12db8:	458d                	li	a1,3
   12dba:	4505                	li	a0,1
   12dbc:	c901                	beqz	a0,12dcc <_ZN20complex_full_dynamic3app17h4a838cd0ccf006afE+0xac>
   12dbe:	a83d                	j	12dfc <_ZN20complex_full_dynamic3app17h4a838cd0ccf006afE+0xdc>
   12dc0:	4501                	li	a0,0
   12dc2:	cabe                	sw	a5,84(sp)
   12dc4:	ccc2                	sw	a6,88(sp)
   12dc6:	04c10e23          	sb	a2,92(sp)
   12dca:	e90d                	bnez	a0,12dfc <_ZN20complex_full_dynamic3app17h4a838cd0ccf006afE+0xdc>
   12dcc:	6505                	lui	a0,0x1
   12dce:	4595                	li	a1,5
   12dd0:	4625                	li	a2,9
   12dd2:	69450513          	addi	a0,a0,1684 # 1694 <.Lline_table_start1+0x1469>
   12dd6:	4709                	li	a4,2
   12dd8:	07f00793          	li	a5,127
   12ddc:	4681                	li	a3,0
   12dde:	00000073          	ecall
   12de2:	00a7fd63          	bgeu	a5,a0,12dfc <_ZN20complex_full_dynamic3app17h4a838cd0ccf006afE+0xdc>
   12de6:	0028                	addi	a0,sp,8
   12de8:	0000a097          	auipc	ra,0xa
   12dec:	ca8080e7          	jalr	-856(ra) # 1ca90 <_ZN9allow_pin12full_dynamic17unshare_if_shared17h4e6b4433fd7c2282E>
   12df0:	08c8                	addi	a0,sp,84
   12df2:	0000a097          	auipc	ra,0xa
   12df6:	c9e080e7          	jalr	-866(ra) # 1ca90 <_ZN9allow_pin12full_dynamic17unshare_if_shared17h4e6b4433fd7c2282E>
   12dfa:	4481                	li	s1,0
   12dfc:	c489                	beqz	s1,12e06 <_ZN20complex_full_dynamic3app17h4a838cd0ccf006afE+0xe6>
   12dfe:	00b9a223          	sw	a1,4(s3)
   12e02:	4505                	li	a0,1
   12e04:	a839                	j	12e22 <_ZN20complex_full_dynamic3app17h4a838cd0ccf006afE+0x102>
   12e06:	08c8                	addi	a0,sp,84
   12e08:	0000a097          	auipc	ra,0xa
   12e0c:	c88080e7          	jalr	-888(ra) # 1ca90 <_ZN9allow_pin12full_dynamic17unshare_if_shared17h4e6b4433fd7c2282E>
   12e10:	00198513          	addi	a0,s3,1
   12e14:	4671                	li	a2,28
   12e16:	85ca                	mv	a1,s2
   12e18:	0000a097          	auipc	ra,0xa
   12e1c:	d04080e7          	jalr	-764(ra) # 1cb1c <memcpy>
   12e20:	4501                	li	a0,0
   12e22:	00a98023          	sb	a0,0(s3)
   12e26:	08c8                	addi	a0,sp,84
   12e28:	0000a097          	auipc	ra,0xa
   12e2c:	c68080e7          	jalr	-920(ra) # 1ca90 <_ZN9allow_pin12full_dynamic17unshare_if_shared17h4e6b4433fd7c2282E>
   12e30:	0028                	addi	a0,sp,8
   12e32:	0000a097          	auipc	ra,0xa
   12e36:	c5e080e7          	jalr	-930(ra) # 1ca90 <_ZN9allow_pin12full_dynamic17unshare_if_shared17h4e6b4433fd7c2282E>
   12e3a:	40ba                	lw	ra,140(sp)
   12e3c:	442a                	lw	s0,136(sp)
   12e3e:	449a                	lw	s1,132(sp)
   12e40:	490a                	lw	s2,128(sp)
   12e42:	59f6                	lw	s3,124(sp)
   12e44:	6149                	addi	sp,sp,144
   12e46:	8082                	ret

00012e48 <_ZN20complex_full_dynamic3app17h4d0dd7f521ce118bE>:
   12e48:	7171                	addi	sp,sp,-176
   12e4a:	d706                	sw	ra,172(sp)
   12e4c:	d522                	sw	s0,168(sp)
   12e4e:	d326                	sw	s1,164(sp)
   12e50:	d14a                	sw	s2,160(sp)
   12e52:	cf4e                	sw	s3,156(sp)
   12e54:	89aa                	mv	s3,a0
   12e56:	4409                	li	s0,2
   12e58:	00810a23          	sb	s0,20(sp)
   12e5c:	0824                	addi	s1,sp,24
   12e5e:	02200613          	li	a2,34
   12e62:	8526                	mv	a0,s1
   12e64:	0000a097          	auipc	ra,0xa
   12e68:	cb8080e7          	jalr	-840(ra) # 1cb1c <memcpy>
   12e6c:	04810913          	addi	s2,sp,72
   12e70:	05100613          	li	a2,81
   12e74:	854a                	mv	a0,s2
   12e76:	4581                	li	a1,0
   12e78:	0000a097          	auipc	ra,0xa
   12e7c:	c38080e7          	jalr	-968(ra) # 1cab0 <memset>
   12e80:	8626                	mv	a2,s1
   12e82:	04810223          	sb	s0,68(sp)
   12e86:	55e00793          	li	a5,1374
   12e8a:	44a5                	li	s1,9
   12e8c:	4811                	li	a6,4
   12e8e:	55e00513          	li	a0,1374
   12e92:	45a5                	li	a1,9
   12e94:	02200693          	li	a3,34
   12e98:	4711                	li	a4,4
   12e9a:	00000073          	ecall
   12e9e:	00850663          	beq	a0,s0,12eaa <_ZN20complex_full_dynamic3app17h4d0dd7f521ce118bE+0x62>
   12ea2:	c63e                	sw	a5,12(sp)
   12ea4:	c826                	sw	s1,16(sp)
   12ea6:	01010a23          	sb	a6,20(sp)
   12eaa:	4609                	li	a2,2
   12eac:	00c51463          	bne	a0,a2,12eb4 <_ZN20complex_full_dynamic3app17h4d0dd7f521ce118bE+0x6c>
   12eb0:	4785                	li	a5,1
   12eb2:	a895                	j	12f26 <_ZN20complex_full_dynamic3app17h4d0dd7f521ce118bE+0xde>
   12eb4:	04414503          	lbu	a0,68(sp)
   12eb8:	4785                	li	a5,1
   12eba:	02c51563          	bne	a0,a2,12ee4 <_ZN20complex_full_dynamic3app17h4d0dd7f521ce118bE+0x9c>
   12ebe:	864a                	mv	a2,s2
   12ec0:	55e00493          	li	s1,1374
   12ec4:	4825                	li	a6,9
   12ec6:	55e00513          	li	a0,1374
   12eca:	45a5                	li	a1,9
   12ecc:	05100693          	li	a3,81
   12ed0:	470d                	li	a4,3
   12ed2:	4409                	li	s0,2
   12ed4:	00000073          	ecall
   12ed8:	460d                	li	a2,3
   12eda:	00851963          	bne	a0,s0,12eec <_ZN20complex_full_dynamic3app17h4d0dd7f521ce118bE+0xa4>
   12ede:	4505                	li	a0,1
   12ee0:	cd01                	beqz	a0,12ef8 <_ZN20complex_full_dynamic3app17h4d0dd7f521ce118bE+0xb0>
   12ee2:	a091                	j	12f26 <_ZN20complex_full_dynamic3app17h4d0dd7f521ce118bE+0xde>
   12ee4:	458d                	li	a1,3
   12ee6:	4505                	li	a0,1
   12ee8:	c901                	beqz	a0,12ef8 <_ZN20complex_full_dynamic3app17h4d0dd7f521ce118bE+0xb0>
   12eea:	a835                	j	12f26 <_ZN20complex_full_dynamic3app17h4d0dd7f521ce118bE+0xde>
   12eec:	4501                	li	a0,0
   12eee:	de26                	sw	s1,60(sp)
   12ef0:	c0c2                	sw	a6,64(sp)
   12ef2:	04c10223          	sb	a2,68(sp)
   12ef6:	e905                	bnez	a0,12f26 <_ZN20complex_full_dynamic3app17h4d0dd7f521ce118bE+0xde>
   12ef8:	55e00513          	li	a0,1374
   12efc:	45a5                	li	a1,9
   12efe:	4625                	li	a2,9
   12f00:	4709                	li	a4,2
   12f02:	07f00493          	li	s1,127
   12f06:	4681                	li	a3,0
   12f08:	00000073          	ecall
   12f0c:	00a4fd63          	bgeu	s1,a0,12f26 <_ZN20complex_full_dynamic3app17h4d0dd7f521ce118bE+0xde>
   12f10:	0068                	addi	a0,sp,12
   12f12:	0000a097          	auipc	ra,0xa
   12f16:	b7e080e7          	jalr	-1154(ra) # 1ca90 <_ZN9allow_pin12full_dynamic17unshare_if_shared17h4e6b4433fd7c2282E>
   12f1a:	1868                	addi	a0,sp,60
   12f1c:	0000a097          	auipc	ra,0xa
   12f20:	b74080e7          	jalr	-1164(ra) # 1ca90 <_ZN9allow_pin12full_dynamic17unshare_if_shared17h4e6b4433fd7c2282E>
   12f24:	4781                	li	a5,0
   12f26:	c789                	beqz	a5,12f30 <_ZN20complex_full_dynamic3app17h4d0dd7f521ce118bE+0xe8>
   12f28:	00b9a223          	sw	a1,4(s3)
   12f2c:	4505                	li	a0,1
   12f2e:	a005                	j	12f4e <_ZN20complex_full_dynamic3app17h4d0dd7f521ce118bE+0x106>
   12f30:	1868                	addi	a0,sp,60
   12f32:	0000a097          	auipc	ra,0xa
   12f36:	b5e080e7          	jalr	-1186(ra) # 1ca90 <_ZN9allow_pin12full_dynamic17unshare_if_shared17h4e6b4433fd7c2282E>
   12f3a:	00198513          	addi	a0,s3,1
   12f3e:	05100613          	li	a2,81
   12f42:	85ca                	mv	a1,s2
   12f44:	0000a097          	auipc	ra,0xa
   12f48:	bd8080e7          	jalr	-1064(ra) # 1cb1c <memcpy>
   12f4c:	4501                	li	a0,0
   12f4e:	00a98023          	sb	a0,0(s3)
   12f52:	1868                	addi	a0,sp,60
   12f54:	0000a097          	auipc	ra,0xa
   12f58:	b3c080e7          	jalr	-1220(ra) # 1ca90 <_ZN9allow_pin12full_dynamic17unshare_if_shared17h4e6b4433fd7c2282E>
   12f5c:	0068                	addi	a0,sp,12
   12f5e:	0000a097          	auipc	ra,0xa
   12f62:	b32080e7          	jalr	-1230(ra) # 1ca90 <_ZN9allow_pin12full_dynamic17unshare_if_shared17h4e6b4433fd7c2282E>
   12f66:	50ba                	lw	ra,172(sp)
   12f68:	542a                	lw	s0,168(sp)
   12f6a:	549a                	lw	s1,164(sp)
   12f6c:	590a                	lw	s2,160(sp)
   12f6e:	49fa                	lw	s3,156(sp)
   12f70:	614d                	addi	sp,sp,176
   12f72:	8082                	ret

00012f74 <_ZN20complex_full_dynamic3app17h5107db1c109640adE>:
   12f74:	7135                	addi	sp,sp,-160
   12f76:	cf06                	sw	ra,156(sp)
   12f78:	cd22                	sw	s0,152(sp)
   12f7a:	cb26                	sw	s1,148(sp)
   12f7c:	c94a                	sw	s2,144(sp)
   12f7e:	c74e                	sw	s3,140(sp)
   12f80:	89aa                	mv	s3,a0
   12f82:	4409                	li	s0,2
   12f84:	00810a23          	sb	s0,20(sp)
   12f88:	0824                	addi	s1,sp,24
   12f8a:	04400613          	li	a2,68
   12f8e:	8526                	mv	a0,s1
   12f90:	0000a097          	auipc	ra,0xa
   12f94:	b8c080e7          	jalr	-1140(ra) # 1cb1c <memcpy>
   12f98:	06810913          	addi	s2,sp,104
   12f9c:	02300613          	li	a2,35
   12fa0:	854a                	mv	a0,s2
   12fa2:	4581                	li	a1,0
   12fa4:	0000a097          	auipc	ra,0xa
   12fa8:	b0c080e7          	jalr	-1268(ra) # 1cab0 <memset>
   12fac:	8626                	mv	a2,s1
   12fae:	06810223          	sb	s0,100(sp)
   12fb2:	6505                	lui	a0,0x1
   12fb4:	4499                	li	s1,6
   12fb6:	4811                	li	a6,4
   12fb8:	4599                	li	a1,6
   12fba:	9bf50793          	addi	a5,a0,-1601 # 9bf <.Lline_table_start1+0x794>
   12fbe:	04400693          	li	a3,68
   12fc2:	4711                	li	a4,4
   12fc4:	853e                	mv	a0,a5
   12fc6:	00000073          	ecall
   12fca:	00850663          	beq	a0,s0,12fd6 <_ZN20complex_full_dynamic3app17h5107db1c109640adE+0x62>
   12fce:	c63e                	sw	a5,12(sp)
   12fd0:	c826                	sw	s1,16(sp)
   12fd2:	01010a23          	sb	a6,20(sp)
   12fd6:	4609                	li	a2,2
   12fd8:	00c51463          	bne	a0,a2,12fe0 <_ZN20complex_full_dynamic3app17h5107db1c109640adE+0x6c>
   12fdc:	4485                	li	s1,1
   12fde:	a895                	j	13052 <_ZN20complex_full_dynamic3app17h5107db1c109640adE+0xde>
   12fe0:	06414503          	lbu	a0,100(sp)
   12fe4:	4485                	li	s1,1
   12fe6:	02c51463          	bne	a0,a2,1300e <_ZN20complex_full_dynamic3app17h5107db1c109640adE+0x9a>
   12fea:	864a                	mv	a2,s2
   12fec:	6505                	lui	a0,0x1
   12fee:	458d                	li	a1,3
   12ff0:	02300693          	li	a3,35
   12ff4:	470d                	li	a4,3
   12ff6:	9bf50793          	addi	a5,a0,-1601 # 9bf <.Lline_table_start1+0x794>
   12ffa:	4409                	li	s0,2
   12ffc:	853e                	mv	a0,a5
   12ffe:	00000073          	ecall
   13002:	460d                	li	a2,3
   13004:	00851963          	bne	a0,s0,13016 <_ZN20complex_full_dynamic3app17h5107db1c109640adE+0xa2>
   13008:	4505                	li	a0,1
   1300a:	cd01                	beqz	a0,13022 <_ZN20complex_full_dynamic3app17h5107db1c109640adE+0xae>
   1300c:	a099                	j	13052 <_ZN20complex_full_dynamic3app17h5107db1c109640adE+0xde>
   1300e:	458d                	li	a1,3
   13010:	4505                	li	a0,1
   13012:	c901                	beqz	a0,13022 <_ZN20complex_full_dynamic3app17h5107db1c109640adE+0xae>
   13014:	a83d                	j	13052 <_ZN20complex_full_dynamic3app17h5107db1c109640adE+0xde>
   13016:	4501                	li	a0,0
   13018:	cebe                	sw	a5,92(sp)
   1301a:	d0b2                	sw	a2,96(sp)
   1301c:	06c10223          	sb	a2,100(sp)
   13020:	e90d                	bnez	a0,13052 <_ZN20complex_full_dynamic3app17h5107db1c109640adE+0xde>
   13022:	6505                	lui	a0,0x1
   13024:	4599                	li	a1,6
   13026:	460d                	li	a2,3
   13028:	9bf50513          	addi	a0,a0,-1601 # 9bf <.Lline_table_start1+0x794>
   1302c:	4709                	li	a4,2
   1302e:	07f00793          	li	a5,127
   13032:	4681                	li	a3,0
   13034:	00000073          	ecall
   13038:	00a7fd63          	bgeu	a5,a0,13052 <_ZN20complex_full_dynamic3app17h5107db1c109640adE+0xde>
   1303c:	0068                	addi	a0,sp,12
   1303e:	0000a097          	auipc	ra,0xa
   13042:	a52080e7          	jalr	-1454(ra) # 1ca90 <_ZN9allow_pin12full_dynamic17unshare_if_shared17h4e6b4433fd7c2282E>
   13046:	08e8                	addi	a0,sp,92
   13048:	0000a097          	auipc	ra,0xa
   1304c:	a48080e7          	jalr	-1464(ra) # 1ca90 <_ZN9allow_pin12full_dynamic17unshare_if_shared17h4e6b4433fd7c2282E>
   13050:	4481                	li	s1,0
   13052:	c489                	beqz	s1,1305c <_ZN20complex_full_dynamic3app17h5107db1c109640adE+0xe8>
   13054:	00b9a223          	sw	a1,4(s3)
   13058:	4505                	li	a0,1
   1305a:	a005                	j	1307a <_ZN20complex_full_dynamic3app17h5107db1c109640adE+0x106>
   1305c:	08e8                	addi	a0,sp,92
   1305e:	0000a097          	auipc	ra,0xa
   13062:	a32080e7          	jalr	-1486(ra) # 1ca90 <_ZN9allow_pin12full_dynamic17unshare_if_shared17h4e6b4433fd7c2282E>
   13066:	00198513          	addi	a0,s3,1
   1306a:	02300613          	li	a2,35
   1306e:	85ca                	mv	a1,s2
   13070:	0000a097          	auipc	ra,0xa
   13074:	aac080e7          	jalr	-1364(ra) # 1cb1c <memcpy>
   13078:	4501                	li	a0,0
   1307a:	00a98023          	sb	a0,0(s3)
   1307e:	08e8                	addi	a0,sp,92
   13080:	0000a097          	auipc	ra,0xa
   13084:	a10080e7          	jalr	-1520(ra) # 1ca90 <_ZN9allow_pin12full_dynamic17unshare_if_shared17h4e6b4433fd7c2282E>
   13088:	0068                	addi	a0,sp,12
   1308a:	0000a097          	auipc	ra,0xa
   1308e:	a06080e7          	jalr	-1530(ra) # 1ca90 <_ZN9allow_pin12full_dynamic17unshare_if_shared17h4e6b4433fd7c2282E>
   13092:	40fa                	lw	ra,156(sp)
   13094:	446a                	lw	s0,152(sp)
   13096:	44da                	lw	s1,148(sp)
   13098:	494a                	lw	s2,144(sp)
   1309a:	49ba                	lw	s3,140(sp)
   1309c:	610d                	addi	sp,sp,160
   1309e:	8082                	ret

000130a0 <_ZN20complex_full_dynamic3app17h515fe7be6882b4efE>:
   130a0:	7159                	addi	sp,sp,-112
   130a2:	d686                	sw	ra,108(sp)
   130a4:	d4a2                	sw	s0,104(sp)
   130a6:	d2a6                	sw	s1,100(sp)
   130a8:	d0ca                	sw	s2,96(sp)
   130aa:	892a                	mv	s2,a0
   130ac:	4409                	li	s0,2
   130ae:	00810423          	sb	s0,8(sp)
   130b2:	0064                	addi	s1,sp,12
   130b4:	03600613          	li	a2,54
   130b8:	8526                	mv	a0,s1
   130ba:	0000a097          	auipc	ra,0xa
   130be:	a62080e7          	jalr	-1438(ra) # 1cb1c <memcpy>
   130c2:	8626                	mv	a2,s1
   130c4:	04011e23          	sh	zero,92(sp)
   130c8:	04010f23          	sb	zero,94(sp)
   130cc:	04810623          	sb	s0,76(sp)
   130d0:	c882                	sw	zero,80(sp)
   130d2:	ca82                	sw	zero,84(sp)
   130d4:	cc82                	sw	zero,88(sp)
   130d6:	65300793          	li	a5,1619
   130da:	4495                	li	s1,5
   130dc:	4811                	li	a6,4
   130de:	65300513          	li	a0,1619
   130e2:	4595                	li	a1,5
   130e4:	03600693          	li	a3,54
   130e8:	4711                	li	a4,4
   130ea:	00000073          	ecall
   130ee:	00850663          	beq	a0,s0,130fa <_ZN20complex_full_dynamic3app17h515fe7be6882b4efE+0x5a>
   130f2:	c03e                	sw	a5,0(sp)
   130f4:	c226                	sw	s1,4(sp)
   130f6:	01010423          	sb	a6,8(sp)
   130fa:	4609                	li	a2,2
   130fc:	0884                	addi	s1,sp,80
   130fe:	00c51463          	bne	a0,a2,13106 <_ZN20complex_full_dynamic3app17h515fe7be6882b4efE+0x66>
   13102:	4785                	li	a5,1
   13104:	a885                	j	13174 <_ZN20complex_full_dynamic3app17h515fe7be6882b4efE+0xd4>
   13106:	04c14503          	lbu	a0,76(sp)
   1310a:	4785                	li	a5,1
   1310c:	02c51363          	bne	a0,a2,13132 <_ZN20complex_full_dynamic3app17h515fe7be6882b4efE+0x92>
   13110:	8626                	mv	a2,s1
   13112:	65300813          	li	a6,1619
   13116:	65300513          	li	a0,1619
   1311a:	458d                	li	a1,3
   1311c:	46bd                	li	a3,15
   1311e:	470d                	li	a4,3
   13120:	4409                	li	s0,2
   13122:	00000073          	ecall
   13126:	460d                	li	a2,3
   13128:	00851963          	bne	a0,s0,1313a <_ZN20complex_full_dynamic3app17h515fe7be6882b4efE+0x9a>
   1312c:	4505                	li	a0,1
   1312e:	cd01                	beqz	a0,13146 <_ZN20complex_full_dynamic3app17h515fe7be6882b4efE+0xa6>
   13130:	a091                	j	13174 <_ZN20complex_full_dynamic3app17h515fe7be6882b4efE+0xd4>
   13132:	458d                	li	a1,3
   13134:	4505                	li	a0,1
   13136:	c901                	beqz	a0,13146 <_ZN20complex_full_dynamic3app17h515fe7be6882b4efE+0xa6>
   13138:	a835                	j	13174 <_ZN20complex_full_dynamic3app17h515fe7be6882b4efE+0xd4>
   1313a:	4501                	li	a0,0
   1313c:	c2c2                	sw	a6,68(sp)
   1313e:	c4b2                	sw	a2,72(sp)
   13140:	04c10623          	sb	a2,76(sp)
   13144:	e905                	bnez	a0,13174 <_ZN20complex_full_dynamic3app17h515fe7be6882b4efE+0xd4>
   13146:	65300513          	li	a0,1619
   1314a:	4595                	li	a1,5
   1314c:	460d                	li	a2,3
   1314e:	4709                	li	a4,2
   13150:	07f00413          	li	s0,127
   13154:	4681                	li	a3,0
   13156:	00000073          	ecall
   1315a:	00a47d63          	bgeu	s0,a0,13174 <_ZN20complex_full_dynamic3app17h515fe7be6882b4efE+0xd4>
   1315e:	850a                	mv	a0,sp
   13160:	0000a097          	auipc	ra,0xa
   13164:	930080e7          	jalr	-1744(ra) # 1ca90 <_ZN9allow_pin12full_dynamic17unshare_if_shared17h4e6b4433fd7c2282E>
   13168:	00c8                	addi	a0,sp,68
   1316a:	0000a097          	auipc	ra,0xa
   1316e:	926080e7          	jalr	-1754(ra) # 1ca90 <_ZN9allow_pin12full_dynamic17unshare_if_shared17h4e6b4433fd7c2282E>
   13172:	4781                	li	a5,0
   13174:	c789                	beqz	a5,1317e <_ZN20complex_full_dynamic3app17h515fe7be6882b4efE+0xde>
   13176:	00b92223          	sw	a1,4(s2)
   1317a:	4505                	li	a0,1
   1317c:	a839                	j	1319a <_ZN20complex_full_dynamic3app17h515fe7be6882b4efE+0xfa>
   1317e:	00c8                	addi	a0,sp,68
   13180:	0000a097          	auipc	ra,0xa
   13184:	910080e7          	jalr	-1776(ra) # 1ca90 <_ZN9allow_pin12full_dynamic17unshare_if_shared17h4e6b4433fd7c2282E>
   13188:	00190513          	addi	a0,s2,1
   1318c:	463d                	li	a2,15
   1318e:	85a6                	mv	a1,s1
   13190:	0000a097          	auipc	ra,0xa
   13194:	98c080e7          	jalr	-1652(ra) # 1cb1c <memcpy>
   13198:	4501                	li	a0,0
   1319a:	00a90023          	sb	a0,0(s2)
   1319e:	00c8                	addi	a0,sp,68
   131a0:	0000a097          	auipc	ra,0xa
   131a4:	8f0080e7          	jalr	-1808(ra) # 1ca90 <_ZN9allow_pin12full_dynamic17unshare_if_shared17h4e6b4433fd7c2282E>
   131a8:	850a                	mv	a0,sp
   131aa:	0000a097          	auipc	ra,0xa
   131ae:	8e6080e7          	jalr	-1818(ra) # 1ca90 <_ZN9allow_pin12full_dynamic17unshare_if_shared17h4e6b4433fd7c2282E>
   131b2:	50b6                	lw	ra,108(sp)
   131b4:	5426                	lw	s0,104(sp)
   131b6:	5496                	lw	s1,100(sp)
   131b8:	5906                	lw	s2,96(sp)
   131ba:	6165                	addi	sp,sp,112
   131bc:	8082                	ret

000131be <_ZN20complex_full_dynamic3app17h5a36fc1c3fe971b4E>:
   131be:	7175                	addi	sp,sp,-144
   131c0:	c706                	sw	ra,140(sp)
   131c2:	c522                	sw	s0,136(sp)
   131c4:	c326                	sw	s1,132(sp)
   131c6:	c14a                	sw	s2,128(sp)
   131c8:	dece                	sw	s3,124(sp)
   131ca:	89aa                	mv	s3,a0
   131cc:	4409                	li	s0,2
   131ce:	00810a23          	sb	s0,20(sp)
   131d2:	0824                	addi	s1,sp,24
   131d4:	4639                	li	a2,14
   131d6:	8526                	mv	a0,s1
   131d8:	0000a097          	auipc	ra,0xa
   131dc:	944080e7          	jalr	-1724(ra) # 1cb1c <memcpy>
   131e0:	03410913          	addi	s2,sp,52
   131e4:	04800613          	li	a2,72
   131e8:	854a                	mv	a0,s2
   131ea:	4581                	li	a1,0
   131ec:	0000a097          	auipc	ra,0xa
   131f0:	8c4080e7          	jalr	-1852(ra) # 1cab0 <memset>
   131f4:	8626                	mv	a2,s1
   131f6:	02810823          	sb	s0,48(sp)
   131fa:	6505                	lui	a0,0x1
   131fc:	448d                	li	s1,3
   131fe:	4811                	li	a6,4
   13200:	458d                	li	a1,3
   13202:	2d150793          	addi	a5,a0,721 # 12d1 <.Lline_table_start1+0x10a6>
   13206:	46b9                	li	a3,14
   13208:	4711                	li	a4,4
   1320a:	853e                	mv	a0,a5
   1320c:	00000073          	ecall
   13210:	00850663          	beq	a0,s0,1321c <_ZN20complex_full_dynamic3app17h5a36fc1c3fe971b4E+0x5e>
   13214:	c63e                	sw	a5,12(sp)
   13216:	c826                	sw	s1,16(sp)
   13218:	01010a23          	sb	a6,20(sp)
   1321c:	4609                	li	a2,2
   1321e:	00c51463          	bne	a0,a2,13226 <_ZN20complex_full_dynamic3app17h5a36fc1c3fe971b4E+0x68>
   13222:	4485                	li	s1,1
   13224:	a89d                	j	1329a <_ZN20complex_full_dynamic3app17h5a36fc1c3fe971b4E+0xdc>
   13226:	03014503          	lbu	a0,48(sp)
   1322a:	4485                	li	s1,1
   1322c:	02c51563          	bne	a0,a2,13256 <_ZN20complex_full_dynamic3app17h5a36fc1c3fe971b4E+0x98>
   13230:	864a                	mv	a2,s2
   13232:	6505                	lui	a0,0x1
   13234:	4821                	li	a6,8
   13236:	45a1                	li	a1,8
   13238:	04800693          	li	a3,72
   1323c:	470d                	li	a4,3
   1323e:	2d150793          	addi	a5,a0,721 # 12d1 <.Lline_table_start1+0x10a6>
   13242:	4409                	li	s0,2
   13244:	853e                	mv	a0,a5
   13246:	00000073          	ecall
   1324a:	460d                	li	a2,3
   1324c:	00851963          	bne	a0,s0,1325e <_ZN20complex_full_dynamic3app17h5a36fc1c3fe971b4E+0xa0>
   13250:	4505                	li	a0,1
   13252:	cd01                	beqz	a0,1326a <_ZN20complex_full_dynamic3app17h5a36fc1c3fe971b4E+0xac>
   13254:	a099                	j	1329a <_ZN20complex_full_dynamic3app17h5a36fc1c3fe971b4E+0xdc>
   13256:	458d                	li	a1,3
   13258:	4505                	li	a0,1
   1325a:	c901                	beqz	a0,1326a <_ZN20complex_full_dynamic3app17h5a36fc1c3fe971b4E+0xac>
   1325c:	a83d                	j	1329a <_ZN20complex_full_dynamic3app17h5a36fc1c3fe971b4E+0xdc>
   1325e:	4501                	li	a0,0
   13260:	d43e                	sw	a5,40(sp)
   13262:	d642                	sw	a6,44(sp)
   13264:	02c10823          	sb	a2,48(sp)
   13268:	e90d                	bnez	a0,1329a <_ZN20complex_full_dynamic3app17h5a36fc1c3fe971b4E+0xdc>
   1326a:	6505                	lui	a0,0x1
   1326c:	458d                	li	a1,3
   1326e:	4621                	li	a2,8
   13270:	2d150513          	addi	a0,a0,721 # 12d1 <.Lline_table_start1+0x10a6>
   13274:	4709                	li	a4,2
   13276:	07f00793          	li	a5,127
   1327a:	4681                	li	a3,0
   1327c:	00000073          	ecall
   13280:	00a7fd63          	bgeu	a5,a0,1329a <_ZN20complex_full_dynamic3app17h5a36fc1c3fe971b4E+0xdc>
   13284:	0068                	addi	a0,sp,12
   13286:	0000a097          	auipc	ra,0xa
   1328a:	80a080e7          	jalr	-2038(ra) # 1ca90 <_ZN9allow_pin12full_dynamic17unshare_if_shared17h4e6b4433fd7c2282E>
   1328e:	1028                	addi	a0,sp,40
   13290:	0000a097          	auipc	ra,0xa
   13294:	800080e7          	jalr	-2048(ra) # 1ca90 <_ZN9allow_pin12full_dynamic17unshare_if_shared17h4e6b4433fd7c2282E>
   13298:	4481                	li	s1,0
   1329a:	c489                	beqz	s1,132a4 <_ZN20complex_full_dynamic3app17h5a36fc1c3fe971b4E+0xe6>
   1329c:	00b9a223          	sw	a1,4(s3)
   132a0:	4505                	li	a0,1
   132a2:	a005                	j	132c2 <_ZN20complex_full_dynamic3app17h5a36fc1c3fe971b4E+0x104>
   132a4:	1028                	addi	a0,sp,40
   132a6:	00009097          	auipc	ra,0x9
   132aa:	7ea080e7          	jalr	2026(ra) # 1ca90 <_ZN9allow_pin12full_dynamic17unshare_if_shared17h4e6b4433fd7c2282E>
   132ae:	00198513          	addi	a0,s3,1
   132b2:	04800613          	li	a2,72
   132b6:	85ca                	mv	a1,s2
   132b8:	0000a097          	auipc	ra,0xa
   132bc:	864080e7          	jalr	-1948(ra) # 1cb1c <memcpy>
   132c0:	4501                	li	a0,0
   132c2:	00a98023          	sb	a0,0(s3)
   132c6:	1028                	addi	a0,sp,40
   132c8:	00009097          	auipc	ra,0x9
   132cc:	7c8080e7          	jalr	1992(ra) # 1ca90 <_ZN9allow_pin12full_dynamic17unshare_if_shared17h4e6b4433fd7c2282E>
   132d0:	0068                	addi	a0,sp,12
   132d2:	00009097          	auipc	ra,0x9
   132d6:	7be080e7          	jalr	1982(ra) # 1ca90 <_ZN9allow_pin12full_dynamic17unshare_if_shared17h4e6b4433fd7c2282E>
   132da:	40ba                	lw	ra,140(sp)
   132dc:	442a                	lw	s0,136(sp)
   132de:	449a                	lw	s1,132(sp)
   132e0:	490a                	lw	s2,128(sp)
   132e2:	59f6                	lw	s3,124(sp)
   132e4:	6149                	addi	sp,sp,144
   132e6:	8082                	ret

000132e8 <_ZN20complex_full_dynamic3app17h5c6f958918b875d1E>:
   132e8:	7135                	addi	sp,sp,-160
   132ea:	cf06                	sw	ra,156(sp)
   132ec:	cd22                	sw	s0,152(sp)
   132ee:	cb26                	sw	s1,148(sp)
   132f0:	c94a                	sw	s2,144(sp)
   132f2:	c74e                	sw	s3,140(sp)
   132f4:	89aa                	mv	s3,a0
   132f6:	4409                	li	s0,2
   132f8:	00810823          	sb	s0,16(sp)
   132fc:	0844                	addi	s1,sp,20
   132fe:	03600613          	li	a2,54
   13302:	8526                	mv	a0,s1
   13304:	0000a097          	auipc	ra,0xa
   13308:	818080e7          	jalr	-2024(ra) # 1cb1c <memcpy>
   1330c:	05810913          	addi	s2,sp,88
   13310:	03400613          	li	a2,52
   13314:	854a                	mv	a0,s2
   13316:	4581                	li	a1,0
   13318:	00009097          	auipc	ra,0x9
   1331c:	798080e7          	jalr	1944(ra) # 1cab0 <memset>
   13320:	8626                	mv	a2,s1
   13322:	04810a23          	sb	s0,84(sp)
   13326:	6509                	lui	a0,0x2
   13328:	4491                	li	s1,4
   1332a:	4591                	li	a1,4
   1332c:	3c650793          	addi	a5,a0,966 # 23c6 <.Lline_table_start1+0x219b>
   13330:	03600693          	li	a3,54
   13334:	4711                	li	a4,4
   13336:	853e                	mv	a0,a5
   13338:	00000073          	ecall
   1333c:	00850663          	beq	a0,s0,13348 <_ZN20complex_full_dynamic3app17h5c6f958918b875d1E+0x60>
   13340:	c43e                	sw	a5,8(sp)
   13342:	c626                	sw	s1,12(sp)
   13344:	00910823          	sb	s1,16(sp)
   13348:	4609                	li	a2,2
   1334a:	00c51463          	bne	a0,a2,13352 <_ZN20complex_full_dynamic3app17h5c6f958918b875d1E+0x6a>
   1334e:	4485                	li	s1,1
   13350:	a895                	j	133c4 <_ZN20complex_full_dynamic3app17h5c6f958918b875d1E+0xdc>
   13352:	05414503          	lbu	a0,84(sp)
   13356:	4485                	li	s1,1
   13358:	02c51463          	bne	a0,a2,13380 <_ZN20complex_full_dynamic3app17h5c6f958918b875d1E+0x98>
   1335c:	864a                	mv	a2,s2
   1335e:	6509                	lui	a0,0x2
   13360:	4809                	li	a6,2
   13362:	488d                	li	a7,3
   13364:	4589                	li	a1,2
   13366:	3c650793          	addi	a5,a0,966 # 23c6 <.Lline_table_start1+0x219b>
   1336a:	03400693          	li	a3,52
   1336e:	470d                	li	a4,3
   13370:	853e                	mv	a0,a5
   13372:	00000073          	ecall
   13376:	01051963          	bne	a0,a6,13388 <_ZN20complex_full_dynamic3app17h5c6f958918b875d1E+0xa0>
   1337a:	4505                	li	a0,1
   1337c:	cd01                	beqz	a0,13394 <_ZN20complex_full_dynamic3app17h5c6f958918b875d1E+0xac>
   1337e:	a099                	j	133c4 <_ZN20complex_full_dynamic3app17h5c6f958918b875d1E+0xdc>
   13380:	458d                	li	a1,3
   13382:	4505                	li	a0,1
   13384:	c901                	beqz	a0,13394 <_ZN20complex_full_dynamic3app17h5c6f958918b875d1E+0xac>
   13386:	a83d                	j	133c4 <_ZN20complex_full_dynamic3app17h5c6f958918b875d1E+0xdc>
   13388:	4501                	li	a0,0
   1338a:	c6be                	sw	a5,76(sp)
   1338c:	c8c2                	sw	a6,80(sp)
   1338e:	05110a23          	sb	a7,84(sp)
   13392:	e90d                	bnez	a0,133c4 <_ZN20complex_full_dynamic3app17h5c6f958918b875d1E+0xdc>
   13394:	6509                	lui	a0,0x2
   13396:	4591                	li	a1,4
   13398:	4609                	li	a2,2
   1339a:	3c650513          	addi	a0,a0,966 # 23c6 <.Lline_table_start1+0x219b>
   1339e:	4709                	li	a4,2
   133a0:	07f00793          	li	a5,127
   133a4:	4681                	li	a3,0
   133a6:	00000073          	ecall
   133aa:	00a7fd63          	bgeu	a5,a0,133c4 <_ZN20complex_full_dynamic3app17h5c6f958918b875d1E+0xdc>
   133ae:	0028                	addi	a0,sp,8
   133b0:	00009097          	auipc	ra,0x9
   133b4:	6e0080e7          	jalr	1760(ra) # 1ca90 <_ZN9allow_pin12full_dynamic17unshare_if_shared17h4e6b4433fd7c2282E>
   133b8:	00e8                	addi	a0,sp,76
   133ba:	00009097          	auipc	ra,0x9
   133be:	6d6080e7          	jalr	1750(ra) # 1ca90 <_ZN9allow_pin12full_dynamic17unshare_if_shared17h4e6b4433fd7c2282E>
   133c2:	4481                	li	s1,0
   133c4:	c489                	beqz	s1,133ce <_ZN20complex_full_dynamic3app17h5c6f958918b875d1E+0xe6>
   133c6:	00b9a223          	sw	a1,4(s3)
   133ca:	4505                	li	a0,1
   133cc:	a005                	j	133ec <_ZN20complex_full_dynamic3app17h5c6f958918b875d1E+0x104>
   133ce:	00e8                	addi	a0,sp,76
   133d0:	00009097          	auipc	ra,0x9
   133d4:	6c0080e7          	jalr	1728(ra) # 1ca90 <_ZN9allow_pin12full_dynamic17unshare_if_shared17h4e6b4433fd7c2282E>
   133d8:	00198513          	addi	a0,s3,1
   133dc:	03400613          	li	a2,52
   133e0:	85ca                	mv	a1,s2
   133e2:	00009097          	auipc	ra,0x9
   133e6:	73a080e7          	jalr	1850(ra) # 1cb1c <memcpy>
   133ea:	4501                	li	a0,0
   133ec:	00a98023          	sb	a0,0(s3)
   133f0:	00e8                	addi	a0,sp,76
   133f2:	00009097          	auipc	ra,0x9
   133f6:	69e080e7          	jalr	1694(ra) # 1ca90 <_ZN9allow_pin12full_dynamic17unshare_if_shared17h4e6b4433fd7c2282E>
   133fa:	0028                	addi	a0,sp,8
   133fc:	00009097          	auipc	ra,0x9
   13400:	694080e7          	jalr	1684(ra) # 1ca90 <_ZN9allow_pin12full_dynamic17unshare_if_shared17h4e6b4433fd7c2282E>
   13404:	40fa                	lw	ra,156(sp)
   13406:	446a                	lw	s0,152(sp)
   13408:	44da                	lw	s1,148(sp)
   1340a:	494a                	lw	s2,144(sp)
   1340c:	49ba                	lw	s3,140(sp)
   1340e:	610d                	addi	sp,sp,160
   13410:	8082                	ret

00013412 <_ZN20complex_full_dynamic3app17h5cb1b89465af428bE>:
   13412:	7175                	addi	sp,sp,-144
   13414:	c706                	sw	ra,140(sp)
   13416:	c522                	sw	s0,136(sp)
   13418:	c326                	sw	s1,132(sp)
   1341a:	c14a                	sw	s2,128(sp)
   1341c:	dece                	sw	s3,124(sp)
   1341e:	89aa                	mv	s3,a0
   13420:	4409                	li	s0,2
   13422:	00810423          	sb	s0,8(sp)
   13426:	0064                	addi	s1,sp,12
   13428:	05100613          	li	a2,81
   1342c:	8526                	mv	a0,s1
   1342e:	00009097          	auipc	ra,0x9
   13432:	6ee080e7          	jalr	1774(ra) # 1cb1c <memcpy>
   13436:	4581                	li	a1,0
   13438:	8626                	mv	a2,s1
   1343a:	06011c23          	sh	zero,120(sp)
   1343e:	06010d23          	sb	zero,122(sp)
   13442:	06810423          	sb	s0,104(sp)
   13446:	d682                	sw	zero,108(sp)
   13448:	d882                	sw	zero,112(sp)
   1344a:	da82                	sw	zero,116(sp)
   1344c:	6505                	lui	a0,0x1
   1344e:	4491                	li	s1,4
   13450:	3bf50793          	addi	a5,a0,959 # 13bf <.Lline_table_start1+0x1194>
   13454:	05100693          	li	a3,81
   13458:	4711                	li	a4,4
   1345a:	853e                	mv	a0,a5
   1345c:	00000073          	ecall
   13460:	00850663          	beq	a0,s0,1346c <_ZN20complex_full_dynamic3app17h5cb1b89465af428bE+0x5a>
   13464:	c03e                	sw	a5,0(sp)
   13466:	c202                	sw	zero,4(sp)
   13468:	00910423          	sb	s1,8(sp)
   1346c:	4609                	li	a2,2
   1346e:	06c10913          	addi	s2,sp,108
   13472:	00c51463          	bne	a0,a2,1347a <_ZN20complex_full_dynamic3app17h5cb1b89465af428bE+0x68>
   13476:	4485                	li	s1,1
   13478:	a88d                	j	134ea <_ZN20complex_full_dynamic3app17h5cb1b89465af428bE+0xd8>
   1347a:	06814503          	lbu	a0,104(sp)
   1347e:	4485                	li	s1,1
   13480:	02c51363          	bne	a0,a2,134a6 <_ZN20complex_full_dynamic3app17h5cb1b89465af428bE+0x94>
   13484:	864a                	mv	a2,s2
   13486:	6505                	lui	a0,0x1
   13488:	458d                	li	a1,3
   1348a:	46bd                	li	a3,15
   1348c:	470d                	li	a4,3
   1348e:	3bf50793          	addi	a5,a0,959 # 13bf <.Lline_table_start1+0x1194>
   13492:	4409                	li	s0,2
   13494:	853e                	mv	a0,a5
   13496:	00000073          	ecall
   1349a:	460d                	li	a2,3
   1349c:	00851963          	bne	a0,s0,134ae <_ZN20complex_full_dynamic3app17h5cb1b89465af428bE+0x9c>
   134a0:	4505                	li	a0,1
   134a2:	cd01                	beqz	a0,134ba <_ZN20complex_full_dynamic3app17h5cb1b89465af428bE+0xa8>
   134a4:	a099                	j	134ea <_ZN20complex_full_dynamic3app17h5cb1b89465af428bE+0xd8>
   134a6:	458d                	li	a1,3
   134a8:	4505                	li	a0,1
   134aa:	c901                	beqz	a0,134ba <_ZN20complex_full_dynamic3app17h5cb1b89465af428bE+0xa8>
   134ac:	a83d                	j	134ea <_ZN20complex_full_dynamic3app17h5cb1b89465af428bE+0xd8>
   134ae:	4501                	li	a0,0
   134b0:	d0be                	sw	a5,96(sp)
   134b2:	d2b2                	sw	a2,100(sp)
   134b4:	06c10423          	sb	a2,104(sp)
   134b8:	e90d                	bnez	a0,134ea <_ZN20complex_full_dynamic3app17h5cb1b89465af428bE+0xd8>
   134ba:	6505                	lui	a0,0x1
   134bc:	460d                	li	a2,3
   134be:	3bf50513          	addi	a0,a0,959 # 13bf <.Lline_table_start1+0x1194>
   134c2:	4709                	li	a4,2
   134c4:	07f00793          	li	a5,127
   134c8:	4581                	li	a1,0
   134ca:	4681                	li	a3,0
   134cc:	00000073          	ecall
   134d0:	00a7fd63          	bgeu	a5,a0,134ea <_ZN20complex_full_dynamic3app17h5cb1b89465af428bE+0xd8>
   134d4:	850a                	mv	a0,sp
   134d6:	00009097          	auipc	ra,0x9
   134da:	5ba080e7          	jalr	1466(ra) # 1ca90 <_ZN9allow_pin12full_dynamic17unshare_if_shared17h4e6b4433fd7c2282E>
   134de:	1088                	addi	a0,sp,96
   134e0:	00009097          	auipc	ra,0x9
   134e4:	5b0080e7          	jalr	1456(ra) # 1ca90 <_ZN9allow_pin12full_dynamic17unshare_if_shared17h4e6b4433fd7c2282E>
   134e8:	4481                	li	s1,0
   134ea:	c489                	beqz	s1,134f4 <_ZN20complex_full_dynamic3app17h5cb1b89465af428bE+0xe2>
   134ec:	00b9a223          	sw	a1,4(s3)
   134f0:	4505                	li	a0,1
   134f2:	a839                	j	13510 <_ZN20complex_full_dynamic3app17h5cb1b89465af428bE+0xfe>
   134f4:	1088                	addi	a0,sp,96
   134f6:	00009097          	auipc	ra,0x9
   134fa:	59a080e7          	jalr	1434(ra) # 1ca90 <_ZN9allow_pin12full_dynamic17unshare_if_shared17h4e6b4433fd7c2282E>
   134fe:	00198513          	addi	a0,s3,1
   13502:	463d                	li	a2,15
   13504:	85ca                	mv	a1,s2
   13506:	00009097          	auipc	ra,0x9
   1350a:	616080e7          	jalr	1558(ra) # 1cb1c <memcpy>
   1350e:	4501                	li	a0,0
   13510:	00a98023          	sb	a0,0(s3)
   13514:	1088                	addi	a0,sp,96
   13516:	00009097          	auipc	ra,0x9
   1351a:	57a080e7          	jalr	1402(ra) # 1ca90 <_ZN9allow_pin12full_dynamic17unshare_if_shared17h4e6b4433fd7c2282E>
   1351e:	850a                	mv	a0,sp
   13520:	00009097          	auipc	ra,0x9
   13524:	570080e7          	jalr	1392(ra) # 1ca90 <_ZN9allow_pin12full_dynamic17unshare_if_shared17h4e6b4433fd7c2282E>
   13528:	40ba                	lw	ra,140(sp)
   1352a:	442a                	lw	s0,136(sp)
   1352c:	449a                	lw	s1,132(sp)
   1352e:	490a                	lw	s2,128(sp)
   13530:	59f6                	lw	s3,124(sp)
   13532:	6149                	addi	sp,sp,144
   13534:	8082                	ret

00013536 <_ZN20complex_full_dynamic3app17h63747fd9cc0037dfE>:
   13536:	7159                	addi	sp,sp,-112
   13538:	d686                	sw	ra,108(sp)
   1353a:	d4a2                	sw	s0,104(sp)
   1353c:	d2a6                	sw	s1,100(sp)
   1353e:	d0ca                	sw	s2,96(sp)
   13540:	cece                	sw	s3,92(sp)
   13542:	89aa                	mv	s3,a0
   13544:	4409                	li	s0,2
   13546:	00810423          	sb	s0,8(sp)
   1354a:	0064                	addi	s1,sp,12
   1354c:	03200613          	li	a2,50
   13550:	8526                	mv	a0,s1
   13552:	00009097          	auipc	ra,0x9
   13556:	5ca080e7          	jalr	1482(ra) # 1cb1c <memcpy>
   1355a:	8626                	mv	a2,s1
   1355c:	cc82                	sw	zero,88(sp)
   1355e:	04810423          	sb	s0,72(sp)
   13562:	c682                	sw	zero,76(sp)
   13564:	c882                	sw	zero,80(sp)
   13566:	ca82                	sw	zero,84(sp)
   13568:	6509                	lui	a0,0x2
   1356a:	4491                	li	s1,4
   1356c:	4591                	li	a1,4
   1356e:	9d650793          	addi	a5,a0,-1578 # 19d6 <.Lline_table_start1+0x17ab>
   13572:	03200693          	li	a3,50
   13576:	4711                	li	a4,4
   13578:	853e                	mv	a0,a5
   1357a:	00000073          	ecall
   1357e:	00850663          	beq	a0,s0,1358a <_ZN20complex_full_dynamic3app17h63747fd9cc0037dfE+0x54>
   13582:	c03e                	sw	a5,0(sp)
   13584:	c226                	sw	s1,4(sp)
   13586:	00910423          	sb	s1,8(sp)
   1358a:	4609                	li	a2,2
   1358c:	04c10913          	addi	s2,sp,76
   13590:	00c51463          	bne	a0,a2,13598 <_ZN20complex_full_dynamic3app17h63747fd9cc0037dfE+0x62>
   13594:	4485                	li	s1,1
   13596:	a895                	j	1360a <_ZN20complex_full_dynamic3app17h63747fd9cc0037dfE+0xd4>
   13598:	04814503          	lbu	a0,72(sp)
   1359c:	4485                	li	s1,1
   1359e:	02c51463          	bne	a0,a2,135c6 <_ZN20complex_full_dynamic3app17h63747fd9cc0037dfE+0x90>
   135a2:	864a                	mv	a2,s2
   135a4:	6509                	lui	a0,0x2
   135a6:	4825                	li	a6,9
   135a8:	45a5                	li	a1,9
   135aa:	46c1                	li	a3,16
   135ac:	470d                	li	a4,3
   135ae:	9d650793          	addi	a5,a0,-1578 # 19d6 <.Lline_table_start1+0x17ab>
   135b2:	4409                	li	s0,2
   135b4:	853e                	mv	a0,a5
   135b6:	00000073          	ecall
   135ba:	460d                	li	a2,3
   135bc:	00851963          	bne	a0,s0,135ce <_ZN20complex_full_dynamic3app17h63747fd9cc0037dfE+0x98>
   135c0:	4505                	li	a0,1
   135c2:	cd01                	beqz	a0,135da <_ZN20complex_full_dynamic3app17h63747fd9cc0037dfE+0xa4>
   135c4:	a099                	j	1360a <_ZN20complex_full_dynamic3app17h63747fd9cc0037dfE+0xd4>
   135c6:	458d                	li	a1,3
   135c8:	4505                	li	a0,1
   135ca:	c901                	beqz	a0,135da <_ZN20complex_full_dynamic3app17h63747fd9cc0037dfE+0xa4>
   135cc:	a83d                	j	1360a <_ZN20complex_full_dynamic3app17h63747fd9cc0037dfE+0xd4>
   135ce:	4501                	li	a0,0
   135d0:	c0be                	sw	a5,64(sp)
   135d2:	c2c2                	sw	a6,68(sp)
   135d4:	04c10423          	sb	a2,72(sp)
   135d8:	e90d                	bnez	a0,1360a <_ZN20complex_full_dynamic3app17h63747fd9cc0037dfE+0xd4>
   135da:	6509                	lui	a0,0x2
   135dc:	4591                	li	a1,4
   135de:	4625                	li	a2,9
   135e0:	9d650513          	addi	a0,a0,-1578 # 19d6 <.Lline_table_start1+0x17ab>
   135e4:	4709                	li	a4,2
   135e6:	07f00793          	li	a5,127
   135ea:	4681                	li	a3,0
   135ec:	00000073          	ecall
   135f0:	00a7fd63          	bgeu	a5,a0,1360a <_ZN20complex_full_dynamic3app17h63747fd9cc0037dfE+0xd4>
   135f4:	850a                	mv	a0,sp
   135f6:	00009097          	auipc	ra,0x9
   135fa:	49a080e7          	jalr	1178(ra) # 1ca90 <_ZN9allow_pin12full_dynamic17unshare_if_shared17h4e6b4433fd7c2282E>
   135fe:	0088                	addi	a0,sp,64
   13600:	00009097          	auipc	ra,0x9
   13604:	490080e7          	jalr	1168(ra) # 1ca90 <_ZN9allow_pin12full_dynamic17unshare_if_shared17h4e6b4433fd7c2282E>
   13608:	4481                	li	s1,0
   1360a:	c489                	beqz	s1,13614 <_ZN20complex_full_dynamic3app17h63747fd9cc0037dfE+0xde>
   1360c:	00b9a223          	sw	a1,4(s3)
   13610:	4505                	li	a0,1
   13612:	a839                	j	13630 <_ZN20complex_full_dynamic3app17h63747fd9cc0037dfE+0xfa>
   13614:	0088                	addi	a0,sp,64
   13616:	00009097          	auipc	ra,0x9
   1361a:	47a080e7          	jalr	1146(ra) # 1ca90 <_ZN9allow_pin12full_dynamic17unshare_if_shared17h4e6b4433fd7c2282E>
   1361e:	00198513          	addi	a0,s3,1
   13622:	4641                	li	a2,16
   13624:	85ca                	mv	a1,s2
   13626:	00009097          	auipc	ra,0x9
   1362a:	4f6080e7          	jalr	1270(ra) # 1cb1c <memcpy>
   1362e:	4501                	li	a0,0
   13630:	00a98023          	sb	a0,0(s3)
   13634:	0088                	addi	a0,sp,64
   13636:	00009097          	auipc	ra,0x9
   1363a:	45a080e7          	jalr	1114(ra) # 1ca90 <_ZN9allow_pin12full_dynamic17unshare_if_shared17h4e6b4433fd7c2282E>
   1363e:	850a                	mv	a0,sp
   13640:	00009097          	auipc	ra,0x9
   13644:	450080e7          	jalr	1104(ra) # 1ca90 <_ZN9allow_pin12full_dynamic17unshare_if_shared17h4e6b4433fd7c2282E>
   13648:	50b6                	lw	ra,108(sp)
   1364a:	5426                	lw	s0,104(sp)
   1364c:	5496                	lw	s1,100(sp)
   1364e:	5906                	lw	s2,96(sp)
   13650:	49f6                	lw	s3,92(sp)
   13652:	6165                	addi	sp,sp,112
   13654:	8082                	ret

00013656 <_ZN20complex_full_dynamic3app17h6f3fe5f7038a5b11E>:
   13656:	7171                	addi	sp,sp,-176
   13658:	d706                	sw	ra,172(sp)
   1365a:	d522                	sw	s0,168(sp)
   1365c:	d326                	sw	s1,164(sp)
   1365e:	d14a                	sw	s2,160(sp)
   13660:	892a                	mv	s2,a0
   13662:	4409                	li	s0,2
   13664:	00810623          	sb	s0,12(sp)
   13668:	0804                	addi	s1,sp,16
   1366a:	06100613          	li	a2,97
   1366e:	8526                	mv	a0,s1
   13670:	00009097          	auipc	ra,0x9
   13674:	4ac080e7          	jalr	1196(ra) # 1cb1c <memcpy>
   13678:	8626                	mv	a2,s1
   1367a:	08011e23          	sh	zero,156(sp)
   1367e:	c702                	sw	zero,140(sp)
   13680:	c902                	sw	zero,144(sp)
   13682:	cb02                	sw	zero,148(sp)
   13684:	cd02                	sw	zero,152(sp)
   13686:	06810e23          	sb	s0,124(sp)
   1368a:	c102                	sw	zero,128(sp)
   1368c:	c302                	sw	zero,132(sp)
   1368e:	c502                	sw	zero,136(sp)
   13690:	18800493          	li	s1,392
   13694:	4791                	li	a5,4
   13696:	18800513          	li	a0,392
   1369a:	4591                	li	a1,4
   1369c:	06100693          	li	a3,97
   136a0:	4711                	li	a4,4
   136a2:	00000073          	ecall
   136a6:	00850663          	beq	a0,s0,136b2 <_ZN20complex_full_dynamic3app17h6f3fe5f7038a5b11E+0x5c>
   136aa:	c226                	sw	s1,4(sp)
   136ac:	c43e                	sw	a5,8(sp)
   136ae:	00f10623          	sb	a5,12(sp)
   136b2:	4609                	li	a2,2
   136b4:	0104                	addi	s1,sp,128
   136b6:	00c51463          	bne	a0,a2,136be <_ZN20complex_full_dynamic3app17h6f3fe5f7038a5b11E+0x68>
   136ba:	4785                	li	a5,1
   136bc:	a88d                	j	1372e <_ZN20complex_full_dynamic3app17h6f3fe5f7038a5b11E+0xd8>
   136be:	07c14503          	lbu	a0,124(sp)
   136c2:	4785                	li	a5,1
   136c4:	02c51463          	bne	a0,a2,136ec <_ZN20complex_full_dynamic3app17h6f3fe5f7038a5b11E+0x96>
   136c8:	8626                	mv	a2,s1
   136ca:	18800813          	li	a6,392
   136ce:	4899                	li	a7,6
   136d0:	18800513          	li	a0,392
   136d4:	4599                	li	a1,6
   136d6:	46f9                	li	a3,30
   136d8:	470d                	li	a4,3
   136da:	4409                	li	s0,2
   136dc:	00000073          	ecall
   136e0:	460d                	li	a2,3
   136e2:	00851963          	bne	a0,s0,136f4 <_ZN20complex_full_dynamic3app17h6f3fe5f7038a5b11E+0x9e>
   136e6:	4505                	li	a0,1
   136e8:	cd01                	beqz	a0,13700 <_ZN20complex_full_dynamic3app17h6f3fe5f7038a5b11E+0xaa>
   136ea:	a091                	j	1372e <_ZN20complex_full_dynamic3app17h6f3fe5f7038a5b11E+0xd8>
   136ec:	458d                	li	a1,3
   136ee:	4505                	li	a0,1
   136f0:	c901                	beqz	a0,13700 <_ZN20complex_full_dynamic3app17h6f3fe5f7038a5b11E+0xaa>
   136f2:	a835                	j	1372e <_ZN20complex_full_dynamic3app17h6f3fe5f7038a5b11E+0xd8>
   136f4:	4501                	li	a0,0
   136f6:	dac2                	sw	a6,116(sp)
   136f8:	dcc6                	sw	a7,120(sp)
   136fa:	06c10e23          	sb	a2,124(sp)
   136fe:	e905                	bnez	a0,1372e <_ZN20complex_full_dynamic3app17h6f3fe5f7038a5b11E+0xd8>
   13700:	18800513          	li	a0,392
   13704:	4591                	li	a1,4
   13706:	4619                	li	a2,6
   13708:	4709                	li	a4,2
   1370a:	07f00413          	li	s0,127
   1370e:	4681                	li	a3,0
   13710:	00000073          	ecall
   13714:	00a47d63          	bgeu	s0,a0,1372e <_ZN20complex_full_dynamic3app17h6f3fe5f7038a5b11E+0xd8>
   13718:	0048                	addi	a0,sp,4
   1371a:	00009097          	auipc	ra,0x9
   1371e:	376080e7          	jalr	886(ra) # 1ca90 <_ZN9allow_pin12full_dynamic17unshare_if_shared17h4e6b4433fd7c2282E>
   13722:	18c8                	addi	a0,sp,116
   13724:	00009097          	auipc	ra,0x9
   13728:	36c080e7          	jalr	876(ra) # 1ca90 <_ZN9allow_pin12full_dynamic17unshare_if_shared17h4e6b4433fd7c2282E>
   1372c:	4781                	li	a5,0
   1372e:	c789                	beqz	a5,13738 <_ZN20complex_full_dynamic3app17h6f3fe5f7038a5b11E+0xe2>
   13730:	00b92223          	sw	a1,4(s2)
   13734:	4505                	li	a0,1
   13736:	a839                	j	13754 <_ZN20complex_full_dynamic3app17h6f3fe5f7038a5b11E+0xfe>
   13738:	18c8                	addi	a0,sp,116
   1373a:	00009097          	auipc	ra,0x9
   1373e:	356080e7          	jalr	854(ra) # 1ca90 <_ZN9allow_pin12full_dynamic17unshare_if_shared17h4e6b4433fd7c2282E>
   13742:	00190513          	addi	a0,s2,1
   13746:	4679                	li	a2,30
   13748:	85a6                	mv	a1,s1
   1374a:	00009097          	auipc	ra,0x9
   1374e:	3d2080e7          	jalr	978(ra) # 1cb1c <memcpy>
   13752:	4501                	li	a0,0
   13754:	00a90023          	sb	a0,0(s2)
   13758:	18c8                	addi	a0,sp,116
   1375a:	00009097          	auipc	ra,0x9
   1375e:	336080e7          	jalr	822(ra) # 1ca90 <_ZN9allow_pin12full_dynamic17unshare_if_shared17h4e6b4433fd7c2282E>
   13762:	0048                	addi	a0,sp,4
   13764:	00009097          	auipc	ra,0x9
   13768:	32c080e7          	jalr	812(ra) # 1ca90 <_ZN9allow_pin12full_dynamic17unshare_if_shared17h4e6b4433fd7c2282E>
   1376c:	50ba                	lw	ra,172(sp)
   1376e:	542a                	lw	s0,168(sp)
   13770:	549a                	lw	s1,164(sp)
   13772:	590a                	lw	s2,160(sp)
   13774:	614d                	addi	sp,sp,176
   13776:	8082                	ret

00013778 <_ZN20complex_full_dynamic3app17h70270ac81ad1dbd7E>:
   13778:	7159                	addi	sp,sp,-112
   1377a:	d686                	sw	ra,108(sp)
   1377c:	d4a2                	sw	s0,104(sp)
   1377e:	d2a6                	sw	s1,100(sp)
   13780:	d0ca                	sw	s2,96(sp)
   13782:	cece                	sw	s3,92(sp)
   13784:	89aa                	mv	s3,a0
   13786:	4409                	li	s0,2
   13788:	00810a23          	sb	s0,20(sp)
   1378c:	0824                	addi	s1,sp,24
   1378e:	463d                	li	a2,15
   13790:	8526                	mv	a0,s1
   13792:	00009097          	auipc	ra,0x9
   13796:	38a080e7          	jalr	906(ra) # 1cb1c <memcpy>
   1379a:	03410913          	addi	s2,sp,52
   1379e:	02500613          	li	a2,37
   137a2:	854a                	mv	a0,s2
   137a4:	4581                	li	a1,0
   137a6:	00009097          	auipc	ra,0x9
   137aa:	30a080e7          	jalr	778(ra) # 1cab0 <memset>
   137ae:	8626                	mv	a2,s1
   137b0:	02810823          	sb	s0,48(sp)
   137b4:	0a200793          	li	a5,162
   137b8:	44a1                	li	s1,8
   137ba:	4811                	li	a6,4
   137bc:	0a200513          	li	a0,162
   137c0:	45a1                	li	a1,8
   137c2:	46bd                	li	a3,15
   137c4:	4711                	li	a4,4
   137c6:	00000073          	ecall
   137ca:	00850663          	beq	a0,s0,137d6 <_ZN20complex_full_dynamic3app17h70270ac81ad1dbd7E+0x5e>
   137ce:	c63e                	sw	a5,12(sp)
   137d0:	c826                	sw	s1,16(sp)
   137d2:	01010a23          	sb	a6,20(sp)
   137d6:	4609                	li	a2,2
   137d8:	00c51463          	bne	a0,a2,137e0 <_ZN20complex_full_dynamic3app17h70270ac81ad1dbd7E+0x68>
   137dc:	4785                	li	a5,1
   137de:	a88d                	j	13850 <_ZN20complex_full_dynamic3app17h70270ac81ad1dbd7E+0xd8>
   137e0:	03014503          	lbu	a0,48(sp)
   137e4:	4785                	li	a5,1
   137e6:	02c51463          	bne	a0,a2,1380e <_ZN20complex_full_dynamic3app17h70270ac81ad1dbd7E+0x96>
   137ea:	4581                	li	a1,0
   137ec:	864a                	mv	a2,s2
   137ee:	0a200493          	li	s1,162
   137f2:	0a200513          	li	a0,162
   137f6:	02500693          	li	a3,37
   137fa:	470d                	li	a4,3
   137fc:	4409                	li	s0,2
   137fe:	00000073          	ecall
   13802:	460d                	li	a2,3
   13804:	00851963          	bne	a0,s0,13816 <_ZN20complex_full_dynamic3app17h70270ac81ad1dbd7E+0x9e>
   13808:	4505                	li	a0,1
   1380a:	cd01                	beqz	a0,13822 <_ZN20complex_full_dynamic3app17h70270ac81ad1dbd7E+0xaa>
   1380c:	a091                	j	13850 <_ZN20complex_full_dynamic3app17h70270ac81ad1dbd7E+0xd8>
   1380e:	458d                	li	a1,3
   13810:	4505                	li	a0,1
   13812:	c901                	beqz	a0,13822 <_ZN20complex_full_dynamic3app17h70270ac81ad1dbd7E+0xaa>
   13814:	a835                	j	13850 <_ZN20complex_full_dynamic3app17h70270ac81ad1dbd7E+0xd8>
   13816:	4501                	li	a0,0
   13818:	d426                	sw	s1,40(sp)
   1381a:	d602                	sw	zero,44(sp)
   1381c:	02c10823          	sb	a2,48(sp)
   13820:	e905                	bnez	a0,13850 <_ZN20complex_full_dynamic3app17h70270ac81ad1dbd7E+0xd8>
   13822:	0a200513          	li	a0,162
   13826:	45a1                	li	a1,8
   13828:	4709                	li	a4,2
   1382a:	07f00493          	li	s1,127
   1382e:	4601                	li	a2,0
   13830:	4681                	li	a3,0
   13832:	00000073          	ecall
   13836:	00a4fd63          	bgeu	s1,a0,13850 <_ZN20complex_full_dynamic3app17h70270ac81ad1dbd7E+0xd8>
   1383a:	0068                	addi	a0,sp,12
   1383c:	00009097          	auipc	ra,0x9
   13840:	254080e7          	jalr	596(ra) # 1ca90 <_ZN9allow_pin12full_dynamic17unshare_if_shared17h4e6b4433fd7c2282E>
   13844:	1028                	addi	a0,sp,40
   13846:	00009097          	auipc	ra,0x9
   1384a:	24a080e7          	jalr	586(ra) # 1ca90 <_ZN9allow_pin12full_dynamic17unshare_if_shared17h4e6b4433fd7c2282E>
   1384e:	4781                	li	a5,0
   13850:	c789                	beqz	a5,1385a <_ZN20complex_full_dynamic3app17h70270ac81ad1dbd7E+0xe2>
   13852:	00b9a223          	sw	a1,4(s3)
   13856:	4505                	li	a0,1
   13858:	a005                	j	13878 <_ZN20complex_full_dynamic3app17h70270ac81ad1dbd7E+0x100>
   1385a:	1028                	addi	a0,sp,40
   1385c:	00009097          	auipc	ra,0x9
   13860:	234080e7          	jalr	564(ra) # 1ca90 <_ZN9allow_pin12full_dynamic17unshare_if_shared17h4e6b4433fd7c2282E>
   13864:	00198513          	addi	a0,s3,1
   13868:	02500613          	li	a2,37
   1386c:	85ca                	mv	a1,s2
   1386e:	00009097          	auipc	ra,0x9
   13872:	2ae080e7          	jalr	686(ra) # 1cb1c <memcpy>
   13876:	4501                	li	a0,0
   13878:	00a98023          	sb	a0,0(s3)
   1387c:	1028                	addi	a0,sp,40
   1387e:	00009097          	auipc	ra,0x9
   13882:	212080e7          	jalr	530(ra) # 1ca90 <_ZN9allow_pin12full_dynamic17unshare_if_shared17h4e6b4433fd7c2282E>
   13886:	0068                	addi	a0,sp,12
   13888:	00009097          	auipc	ra,0x9
   1388c:	208080e7          	jalr	520(ra) # 1ca90 <_ZN9allow_pin12full_dynamic17unshare_if_shared17h4e6b4433fd7c2282E>
   13890:	50b6                	lw	ra,108(sp)
   13892:	5426                	lw	s0,104(sp)
   13894:	5496                	lw	s1,100(sp)
   13896:	5906                	lw	s2,96(sp)
   13898:	49f6                	lw	s3,92(sp)
   1389a:	6165                	addi	sp,sp,112
   1389c:	8082                	ret

0001389e <_ZN20complex_full_dynamic3app17h72623f7be6eafe51E>:
   1389e:	7175                	addi	sp,sp,-144
   138a0:	c706                	sw	ra,140(sp)
   138a2:	c522                	sw	s0,136(sp)
   138a4:	c326                	sw	s1,132(sp)
   138a6:	c14a                	sw	s2,128(sp)
   138a8:	dece                	sw	s3,124(sp)
   138aa:	89aa                	mv	s3,a0
   138ac:	4409                	li	s0,2
   138ae:	00810823          	sb	s0,16(sp)
   138b2:	0844                	addi	s1,sp,20
   138b4:	4679                	li	a2,30
   138b6:	8526                	mv	a0,s1
   138b8:	00009097          	auipc	ra,0x9
   138bc:	264080e7          	jalr	612(ra) # 1cb1c <memcpy>
   138c0:	04010913          	addi	s2,sp,64
   138c4:	03c00613          	li	a2,60
   138c8:	854a                	mv	a0,s2
   138ca:	4581                	li	a1,0
   138cc:	00009097          	auipc	ra,0x9
   138d0:	1e4080e7          	jalr	484(ra) # 1cab0 <memset>
   138d4:	8626                	mv	a2,s1
   138d6:	02810e23          	sb	s0,60(sp)
   138da:	6505                	lui	a0,0x1
   138dc:	4491                	li	s1,4
   138de:	4589                	li	a1,2
   138e0:	b3c50793          	addi	a5,a0,-1220 # b3c <.Lline_table_start1+0x911>
   138e4:	46f9                	li	a3,30
   138e6:	4711                	li	a4,4
   138e8:	853e                	mv	a0,a5
   138ea:	00000073          	ecall
   138ee:	00850663          	beq	a0,s0,138fa <_ZN20complex_full_dynamic3app17h72623f7be6eafe51E+0x5c>
   138f2:	c43e                	sw	a5,8(sp)
   138f4:	c622                	sw	s0,12(sp)
   138f6:	00910823          	sb	s1,16(sp)
   138fa:	4609                	li	a2,2
   138fc:	00c51463          	bne	a0,a2,13904 <_ZN20complex_full_dynamic3app17h72623f7be6eafe51E+0x66>
   13900:	4485                	li	s1,1
   13902:	a895                	j	13976 <_ZN20complex_full_dynamic3app17h72623f7be6eafe51E+0xd8>
   13904:	03c14503          	lbu	a0,60(sp)
   13908:	4485                	li	s1,1
   1390a:	02c51463          	bne	a0,a2,13932 <_ZN20complex_full_dynamic3app17h72623f7be6eafe51E+0x94>
   1390e:	864a                	mv	a2,s2
   13910:	6505                	lui	a0,0x1
   13912:	458d                	li	a1,3
   13914:	03c00693          	li	a3,60
   13918:	470d                	li	a4,3
   1391a:	b3c50793          	addi	a5,a0,-1220 # b3c <.Lline_table_start1+0x911>
   1391e:	4409                	li	s0,2
   13920:	853e                	mv	a0,a5
   13922:	00000073          	ecall
   13926:	460d                	li	a2,3
   13928:	00851963          	bne	a0,s0,1393a <_ZN20complex_full_dynamic3app17h72623f7be6eafe51E+0x9c>
   1392c:	4505                	li	a0,1
   1392e:	cd01                	beqz	a0,13946 <_ZN20complex_full_dynamic3app17h72623f7be6eafe51E+0xa8>
   13930:	a099                	j	13976 <_ZN20complex_full_dynamic3app17h72623f7be6eafe51E+0xd8>
   13932:	458d                	li	a1,3
   13934:	4505                	li	a0,1
   13936:	c901                	beqz	a0,13946 <_ZN20complex_full_dynamic3app17h72623f7be6eafe51E+0xa8>
   13938:	a83d                	j	13976 <_ZN20complex_full_dynamic3app17h72623f7be6eafe51E+0xd8>
   1393a:	4501                	li	a0,0
   1393c:	da3e                	sw	a5,52(sp)
   1393e:	dc32                	sw	a2,56(sp)
   13940:	02c10e23          	sb	a2,60(sp)
   13944:	e90d                	bnez	a0,13976 <_ZN20complex_full_dynamic3app17h72623f7be6eafe51E+0xd8>
   13946:	6505                	lui	a0,0x1
   13948:	4589                	li	a1,2
   1394a:	460d                	li	a2,3
   1394c:	b3c50513          	addi	a0,a0,-1220 # b3c <.Lline_table_start1+0x911>
   13950:	4709                	li	a4,2
   13952:	07f00793          	li	a5,127
   13956:	4681                	li	a3,0
   13958:	00000073          	ecall
   1395c:	00a7fd63          	bgeu	a5,a0,13976 <_ZN20complex_full_dynamic3app17h72623f7be6eafe51E+0xd8>
   13960:	0028                	addi	a0,sp,8
   13962:	00009097          	auipc	ra,0x9
   13966:	12e080e7          	jalr	302(ra) # 1ca90 <_ZN9allow_pin12full_dynamic17unshare_if_shared17h4e6b4433fd7c2282E>
   1396a:	1848                	addi	a0,sp,52
   1396c:	00009097          	auipc	ra,0x9
   13970:	124080e7          	jalr	292(ra) # 1ca90 <_ZN9allow_pin12full_dynamic17unshare_if_shared17h4e6b4433fd7c2282E>
   13974:	4481                	li	s1,0
   13976:	c489                	beqz	s1,13980 <_ZN20complex_full_dynamic3app17h72623f7be6eafe51E+0xe2>
   13978:	00b9a223          	sw	a1,4(s3)
   1397c:	4505                	li	a0,1
   1397e:	a005                	j	1399e <_ZN20complex_full_dynamic3app17h72623f7be6eafe51E+0x100>
   13980:	1848                	addi	a0,sp,52
   13982:	00009097          	auipc	ra,0x9
   13986:	10e080e7          	jalr	270(ra) # 1ca90 <_ZN9allow_pin12full_dynamic17unshare_if_shared17h4e6b4433fd7c2282E>
   1398a:	00198513          	addi	a0,s3,1
   1398e:	03c00613          	li	a2,60
   13992:	85ca                	mv	a1,s2
   13994:	00009097          	auipc	ra,0x9
   13998:	188080e7          	jalr	392(ra) # 1cb1c <memcpy>
   1399c:	4501                	li	a0,0
   1399e:	00a98023          	sb	a0,0(s3)
   139a2:	1848                	addi	a0,sp,52
   139a4:	00009097          	auipc	ra,0x9
   139a8:	0ec080e7          	jalr	236(ra) # 1ca90 <_ZN9allow_pin12full_dynamic17unshare_if_shared17h4e6b4433fd7c2282E>
   139ac:	0028                	addi	a0,sp,8
   139ae:	00009097          	auipc	ra,0x9
   139b2:	0e2080e7          	jalr	226(ra) # 1ca90 <_ZN9allow_pin12full_dynamic17unshare_if_shared17h4e6b4433fd7c2282E>
   139b6:	40ba                	lw	ra,140(sp)
   139b8:	442a                	lw	s0,136(sp)
   139ba:	449a                	lw	s1,132(sp)
   139bc:	490a                	lw	s2,128(sp)
   139be:	59f6                	lw	s3,124(sp)
   139c0:	6149                	addi	sp,sp,144
   139c2:	8082                	ret

000139c4 <_ZN20complex_full_dynamic3app17h74a7dcaee0a37267E>:
   139c4:	7135                	addi	sp,sp,-160
   139c6:	cf06                	sw	ra,156(sp)
   139c8:	cd22                	sw	s0,152(sp)
   139ca:	cb26                	sw	s1,148(sp)
   139cc:	c94a                	sw	s2,144(sp)
   139ce:	c74e                	sw	s3,140(sp)
   139d0:	89aa                	mv	s3,a0
   139d2:	4409                	li	s0,2
   139d4:	00810423          	sb	s0,8(sp)
   139d8:	0064                	addi	s1,sp,12
   139da:	05d00613          	li	a2,93
   139de:	8526                	mv	a0,s1
   139e0:	00009097          	auipc	ra,0x9
   139e4:	13c080e7          	jalr	316(ra) # 1cb1c <memcpy>
   139e8:	4581                	li	a1,0
   139ea:	8626                	mv	a2,s1
   139ec:	c302                	sw	zero,132(sp)
   139ee:	08011423          	sh	zero,136(sp)
   139f2:	06810a23          	sb	s0,116(sp)
   139f6:	dc82                	sw	zero,120(sp)
   139f8:	de82                	sw	zero,124(sp)
   139fa:	c102                	sw	zero,128(sp)
   139fc:	6505                	lui	a0,0x1
   139fe:	4491                	li	s1,4
   13a00:	5f150793          	addi	a5,a0,1521 # 15f1 <.Lline_table_start1+0x13c6>
   13a04:	05d00693          	li	a3,93
   13a08:	4711                	li	a4,4
   13a0a:	853e                	mv	a0,a5
   13a0c:	00000073          	ecall
   13a10:	00850663          	beq	a0,s0,13a1c <_ZN20complex_full_dynamic3app17h74a7dcaee0a37267E+0x58>
   13a14:	c03e                	sw	a5,0(sp)
   13a16:	c202                	sw	zero,4(sp)
   13a18:	00910423          	sb	s1,8(sp)
   13a1c:	4609                	li	a2,2
   13a1e:	07810913          	addi	s2,sp,120
   13a22:	00c51463          	bne	a0,a2,13a2a <_ZN20complex_full_dynamic3app17h74a7dcaee0a37267E+0x66>
   13a26:	4485                	li	s1,1
   13a28:	a88d                	j	13a9a <_ZN20complex_full_dynamic3app17h74a7dcaee0a37267E+0xd6>
   13a2a:	07414503          	lbu	a0,116(sp)
   13a2e:	4485                	li	s1,1
   13a30:	02c51363          	bne	a0,a2,13a56 <_ZN20complex_full_dynamic3app17h74a7dcaee0a37267E+0x92>
   13a34:	864a                	mv	a2,s2
   13a36:	6505                	lui	a0,0x1
   13a38:	4809                	li	a6,2
   13a3a:	488d                	li	a7,3
   13a3c:	4589                	li	a1,2
   13a3e:	5f150793          	addi	a5,a0,1521 # 15f1 <.Lline_table_start1+0x13c6>
   13a42:	46c9                	li	a3,18
   13a44:	470d                	li	a4,3
   13a46:	853e                	mv	a0,a5
   13a48:	00000073          	ecall
   13a4c:	01051963          	bne	a0,a6,13a5e <_ZN20complex_full_dynamic3app17h74a7dcaee0a37267E+0x9a>
   13a50:	4505                	li	a0,1
   13a52:	cd01                	beqz	a0,13a6a <_ZN20complex_full_dynamic3app17h74a7dcaee0a37267E+0xa6>
   13a54:	a099                	j	13a9a <_ZN20complex_full_dynamic3app17h74a7dcaee0a37267E+0xd6>
   13a56:	458d                	li	a1,3
   13a58:	4505                	li	a0,1
   13a5a:	c901                	beqz	a0,13a6a <_ZN20complex_full_dynamic3app17h74a7dcaee0a37267E+0xa6>
   13a5c:	a83d                	j	13a9a <_ZN20complex_full_dynamic3app17h74a7dcaee0a37267E+0xd6>
   13a5e:	4501                	li	a0,0
   13a60:	d6be                	sw	a5,108(sp)
   13a62:	d8c2                	sw	a6,112(sp)
   13a64:	07110a23          	sb	a7,116(sp)
   13a68:	e90d                	bnez	a0,13a9a <_ZN20complex_full_dynamic3app17h74a7dcaee0a37267E+0xd6>
   13a6a:	6505                	lui	a0,0x1
   13a6c:	4609                	li	a2,2
   13a6e:	5f150513          	addi	a0,a0,1521 # 15f1 <.Lline_table_start1+0x13c6>
   13a72:	4709                	li	a4,2
   13a74:	07f00793          	li	a5,127
   13a78:	4581                	li	a1,0
   13a7a:	4681                	li	a3,0
   13a7c:	00000073          	ecall
   13a80:	00a7fd63          	bgeu	a5,a0,13a9a <_ZN20complex_full_dynamic3app17h74a7dcaee0a37267E+0xd6>
   13a84:	850a                	mv	a0,sp
   13a86:	00009097          	auipc	ra,0x9
   13a8a:	00a080e7          	jalr	10(ra) # 1ca90 <_ZN9allow_pin12full_dynamic17unshare_if_shared17h4e6b4433fd7c2282E>
   13a8e:	10e8                	addi	a0,sp,108
   13a90:	00009097          	auipc	ra,0x9
   13a94:	000080e7          	jalr	ra # 1ca90 <_ZN9allow_pin12full_dynamic17unshare_if_shared17h4e6b4433fd7c2282E>
   13a98:	4481                	li	s1,0
   13a9a:	c489                	beqz	s1,13aa4 <_ZN20complex_full_dynamic3app17h74a7dcaee0a37267E+0xe0>
   13a9c:	00b9a223          	sw	a1,4(s3)
   13aa0:	4505                	li	a0,1
   13aa2:	a839                	j	13ac0 <_ZN20complex_full_dynamic3app17h74a7dcaee0a37267E+0xfc>
   13aa4:	10e8                	addi	a0,sp,108
   13aa6:	00009097          	auipc	ra,0x9
   13aaa:	fea080e7          	jalr	-22(ra) # 1ca90 <_ZN9allow_pin12full_dynamic17unshare_if_shared17h4e6b4433fd7c2282E>
   13aae:	00198513          	addi	a0,s3,1
   13ab2:	4649                	li	a2,18
   13ab4:	85ca                	mv	a1,s2
   13ab6:	00009097          	auipc	ra,0x9
   13aba:	066080e7          	jalr	102(ra) # 1cb1c <memcpy>
   13abe:	4501                	li	a0,0
   13ac0:	00a98023          	sb	a0,0(s3)
   13ac4:	10e8                	addi	a0,sp,108
   13ac6:	00009097          	auipc	ra,0x9
   13aca:	fca080e7          	jalr	-54(ra) # 1ca90 <_ZN9allow_pin12full_dynamic17unshare_if_shared17h4e6b4433fd7c2282E>
   13ace:	850a                	mv	a0,sp
   13ad0:	00009097          	auipc	ra,0x9
   13ad4:	fc0080e7          	jalr	-64(ra) # 1ca90 <_ZN9allow_pin12full_dynamic17unshare_if_shared17h4e6b4433fd7c2282E>
   13ad8:	40fa                	lw	ra,156(sp)
   13ada:	446a                	lw	s0,152(sp)
   13adc:	44da                	lw	s1,148(sp)
   13ade:	494a                	lw	s2,144(sp)
   13ae0:	49ba                	lw	s3,140(sp)
   13ae2:	610d                	addi	sp,sp,160
   13ae4:	8082                	ret

00013ae6 <_ZN20complex_full_dynamic3app17h7b5aaacb2e77d662E>:
   13ae6:	7131                	addi	sp,sp,-192
   13ae8:	df06                	sw	ra,188(sp)
   13aea:	dd22                	sw	s0,184(sp)
   13aec:	db26                	sw	s1,180(sp)
   13aee:	d94a                	sw	s2,176(sp)
   13af0:	d74e                	sw	s3,172(sp)
   13af2:	89aa                	mv	s3,a0
   13af4:	4409                	li	s0,2
   13af6:	00810623          	sb	s0,12(sp)
   13afa:	0804                	addi	s1,sp,16
   13afc:	05300613          	li	a2,83
   13b00:	8526                	mv	a0,s1
   13b02:	00009097          	auipc	ra,0x9
   13b06:	01a080e7          	jalr	26(ra) # 1cb1c <memcpy>
   13b0a:	07010913          	addi	s2,sp,112
   13b0e:	03a00613          	li	a2,58
   13b12:	854a                	mv	a0,s2
   13b14:	4581                	li	a1,0
   13b16:	00009097          	auipc	ra,0x9
   13b1a:	f9a080e7          	jalr	-102(ra) # 1cab0 <memset>
   13b1e:	8626                	mv	a2,s1
   13b20:	06810623          	sb	s0,108(sp)
   13b24:	6509                	lui	a0,0x2
   13b26:	4499                	li	s1,6
   13b28:	4811                	li	a6,4
   13b2a:	4599                	li	a1,6
   13b2c:	64550793          	addi	a5,a0,1605 # 2645 <.Lline_table_start1+0x241a>
   13b30:	05300693          	li	a3,83
   13b34:	4711                	li	a4,4
   13b36:	853e                	mv	a0,a5
   13b38:	00000073          	ecall
   13b3c:	00850663          	beq	a0,s0,13b48 <_ZN20complex_full_dynamic3app17h7b5aaacb2e77d662E+0x62>
   13b40:	c23e                	sw	a5,4(sp)
   13b42:	c426                	sw	s1,8(sp)
   13b44:	01010623          	sb	a6,12(sp)
   13b48:	4609                	li	a2,2
   13b4a:	00c51463          	bne	a0,a2,13b52 <_ZN20complex_full_dynamic3app17h7b5aaacb2e77d662E+0x6c>
   13b4e:	4485                	li	s1,1
   13b50:	a89d                	j	13bc6 <_ZN20complex_full_dynamic3app17h7b5aaacb2e77d662E+0xe0>
   13b52:	06c14503          	lbu	a0,108(sp)
   13b56:	4485                	li	s1,1
   13b58:	02c51563          	bne	a0,a2,13b82 <_ZN20complex_full_dynamic3app17h7b5aaacb2e77d662E+0x9c>
   13b5c:	864a                	mv	a2,s2
   13b5e:	6509                	lui	a0,0x2
   13b60:	481d                	li	a6,7
   13b62:	459d                	li	a1,7
   13b64:	03a00693          	li	a3,58
   13b68:	470d                	li	a4,3
   13b6a:	64550793          	addi	a5,a0,1605 # 2645 <.Lline_table_start1+0x241a>
   13b6e:	4409                	li	s0,2
   13b70:	853e                	mv	a0,a5
   13b72:	00000073          	ecall
   13b76:	460d                	li	a2,3
   13b78:	00851963          	bne	a0,s0,13b8a <_ZN20complex_full_dynamic3app17h7b5aaacb2e77d662E+0xa4>
   13b7c:	4505                	li	a0,1
   13b7e:	cd01                	beqz	a0,13b96 <_ZN20complex_full_dynamic3app17h7b5aaacb2e77d662E+0xb0>
   13b80:	a099                	j	13bc6 <_ZN20complex_full_dynamic3app17h7b5aaacb2e77d662E+0xe0>
   13b82:	458d                	li	a1,3
   13b84:	4505                	li	a0,1
   13b86:	c901                	beqz	a0,13b96 <_ZN20complex_full_dynamic3app17h7b5aaacb2e77d662E+0xb0>
   13b88:	a83d                	j	13bc6 <_ZN20complex_full_dynamic3app17h7b5aaacb2e77d662E+0xe0>
   13b8a:	4501                	li	a0,0
   13b8c:	d2be                	sw	a5,100(sp)
   13b8e:	d4c2                	sw	a6,104(sp)
   13b90:	06c10623          	sb	a2,108(sp)
   13b94:	e90d                	bnez	a0,13bc6 <_ZN20complex_full_dynamic3app17h7b5aaacb2e77d662E+0xe0>
   13b96:	6509                	lui	a0,0x2
   13b98:	4599                	li	a1,6
   13b9a:	461d                	li	a2,7
   13b9c:	64550513          	addi	a0,a0,1605 # 2645 <.Lline_table_start1+0x241a>
   13ba0:	4709                	li	a4,2
   13ba2:	07f00793          	li	a5,127
   13ba6:	4681                	li	a3,0
   13ba8:	00000073          	ecall
   13bac:	00a7fd63          	bgeu	a5,a0,13bc6 <_ZN20complex_full_dynamic3app17h7b5aaacb2e77d662E+0xe0>
   13bb0:	0048                	addi	a0,sp,4
   13bb2:	00009097          	auipc	ra,0x9
   13bb6:	ede080e7          	jalr	-290(ra) # 1ca90 <_ZN9allow_pin12full_dynamic17unshare_if_shared17h4e6b4433fd7c2282E>
   13bba:	10c8                	addi	a0,sp,100
   13bbc:	00009097          	auipc	ra,0x9
   13bc0:	ed4080e7          	jalr	-300(ra) # 1ca90 <_ZN9allow_pin12full_dynamic17unshare_if_shared17h4e6b4433fd7c2282E>
   13bc4:	4481                	li	s1,0
   13bc6:	c489                	beqz	s1,13bd0 <_ZN20complex_full_dynamic3app17h7b5aaacb2e77d662E+0xea>
   13bc8:	00b9a223          	sw	a1,4(s3)
   13bcc:	4505                	li	a0,1
   13bce:	a005                	j	13bee <_ZN20complex_full_dynamic3app17h7b5aaacb2e77d662E+0x108>
   13bd0:	10c8                	addi	a0,sp,100
   13bd2:	00009097          	auipc	ra,0x9
   13bd6:	ebe080e7          	jalr	-322(ra) # 1ca90 <_ZN9allow_pin12full_dynamic17unshare_if_shared17h4e6b4433fd7c2282E>
   13bda:	00198513          	addi	a0,s3,1
   13bde:	03a00613          	li	a2,58
   13be2:	85ca                	mv	a1,s2
   13be4:	00009097          	auipc	ra,0x9
   13be8:	f38080e7          	jalr	-200(ra) # 1cb1c <memcpy>
   13bec:	4501                	li	a0,0
   13bee:	00a98023          	sb	a0,0(s3)
   13bf2:	10c8                	addi	a0,sp,100
   13bf4:	00009097          	auipc	ra,0x9
   13bf8:	e9c080e7          	jalr	-356(ra) # 1ca90 <_ZN9allow_pin12full_dynamic17unshare_if_shared17h4e6b4433fd7c2282E>
   13bfc:	0048                	addi	a0,sp,4
   13bfe:	00009097          	auipc	ra,0x9
   13c02:	e92080e7          	jalr	-366(ra) # 1ca90 <_ZN9allow_pin12full_dynamic17unshare_if_shared17h4e6b4433fd7c2282E>
   13c06:	50fa                	lw	ra,188(sp)
   13c08:	546a                	lw	s0,184(sp)
   13c0a:	54da                	lw	s1,180(sp)
   13c0c:	594a                	lw	s2,176(sp)
   13c0e:	59ba                	lw	s3,172(sp)
   13c10:	6129                	addi	sp,sp,192
   13c12:	8082                	ret

00013c14 <_ZN20complex_full_dynamic3app17h7c77ab3639462ea9E>:
   13c14:	7119                	addi	sp,sp,-128
   13c16:	de86                	sw	ra,124(sp)
   13c18:	dca2                	sw	s0,120(sp)
   13c1a:	daa6                	sw	s1,116(sp)
   13c1c:	d8ca                	sw	s2,112(sp)
   13c1e:	d6ce                	sw	s3,108(sp)
   13c20:	89aa                	mv	s3,a0
   13c22:	4409                	li	s0,2
   13c24:	00810623          	sb	s0,12(sp)
   13c28:	0804                	addi	s1,sp,16
   13c2a:	02100613          	li	a2,33
   13c2e:	8526                	mv	a0,s1
   13c30:	00009097          	auipc	ra,0x9
   13c34:	eec080e7          	jalr	-276(ra) # 1cb1c <memcpy>
   13c38:	04010913          	addi	s2,sp,64
   13c3c:	02a00613          	li	a2,42
   13c40:	854a                	mv	a0,s2
   13c42:	4581                	li	a1,0
   13c44:	00009097          	auipc	ra,0x9
   13c48:	e6c080e7          	jalr	-404(ra) # 1cab0 <memset>
   13c4c:	8626                	mv	a2,s1
   13c4e:	02810e23          	sb	s0,60(sp)
   13c52:	6505                	lui	a0,0x1
   13c54:	4485                	li	s1,1
   13c56:	4811                	li	a6,4
   13c58:	4585                	li	a1,1
   13c5a:	5f350793          	addi	a5,a0,1523 # 15f3 <.Lline_table_start1+0x13c8>
   13c5e:	02100693          	li	a3,33
   13c62:	4711                	li	a4,4
   13c64:	853e                	mv	a0,a5
   13c66:	00000073          	ecall
   13c6a:	00850663          	beq	a0,s0,13c76 <_ZN20complex_full_dynamic3app17h7c77ab3639462ea9E+0x62>
   13c6e:	c23e                	sw	a5,4(sp)
   13c70:	c426                	sw	s1,8(sp)
   13c72:	01010623          	sb	a6,12(sp)
   13c76:	4609                	li	a2,2
   13c78:	00c51463          	bne	a0,a2,13c80 <_ZN20complex_full_dynamic3app17h7c77ab3639462ea9E+0x6c>
   13c7c:	4485                	li	s1,1
   13c7e:	a89d                	j	13cf4 <_ZN20complex_full_dynamic3app17h7c77ab3639462ea9E+0xe0>
   13c80:	03c14503          	lbu	a0,60(sp)
   13c84:	4485                	li	s1,1
   13c86:	02c51463          	bne	a0,a2,13cae <_ZN20complex_full_dynamic3app17h7c77ab3639462ea9E+0x9a>
   13c8a:	864a                	mv	a2,s2
   13c8c:	6505                	lui	a0,0x1
   13c8e:	458d                	li	a1,3
   13c90:	02a00693          	li	a3,42
   13c94:	470d                	li	a4,3
   13c96:	5f350793          	addi	a5,a0,1523 # 15f3 <.Lline_table_start1+0x13c8>
   13c9a:	4409                	li	s0,2
   13c9c:	853e                	mv	a0,a5
   13c9e:	00000073          	ecall
   13ca2:	460d                	li	a2,3
   13ca4:	00851963          	bne	a0,s0,13cb6 <_ZN20complex_full_dynamic3app17h7c77ab3639462ea9E+0xa2>
   13ca8:	4505                	li	a0,1
   13caa:	cd01                	beqz	a0,13cc2 <_ZN20complex_full_dynamic3app17h7c77ab3639462ea9E+0xae>
   13cac:	a0a1                	j	13cf4 <_ZN20complex_full_dynamic3app17h7c77ab3639462ea9E+0xe0>
   13cae:	458d                	li	a1,3
   13cb0:	4505                	li	a0,1
   13cb2:	c901                	beqz	a0,13cc2 <_ZN20complex_full_dynamic3app17h7c77ab3639462ea9E+0xae>
   13cb4:	a081                	j	13cf4 <_ZN20complex_full_dynamic3app17h7c77ab3639462ea9E+0xe0>
   13cb6:	4501                	li	a0,0
   13cb8:	da3e                	sw	a5,52(sp)
   13cba:	dc32                	sw	a2,56(sp)
   13cbc:	02c10e23          	sb	a2,60(sp)
   13cc0:	e915                	bnez	a0,13cf4 <_ZN20complex_full_dynamic3app17h7c77ab3639462ea9E+0xe0>
   13cc2:	4681                	li	a3,0
   13cc4:	6505                	lui	a0,0x1
   13cc6:	4585                	li	a1,1
   13cc8:	460d                	li	a2,3
   13cca:	4709                	li	a4,2
   13ccc:	5f350513          	addi	a0,a0,1523 # 15f3 <.Lline_table_start1+0x13c8>
   13cd0:	07f00793          	li	a5,127
   13cd4:	00000073          	ecall
   13cd8:	4485                	li	s1,1
   13cda:	00a7fd63          	bgeu	a5,a0,13cf4 <_ZN20complex_full_dynamic3app17h7c77ab3639462ea9E+0xe0>
   13cde:	0048                	addi	a0,sp,4
   13ce0:	00009097          	auipc	ra,0x9
   13ce4:	db0080e7          	jalr	-592(ra) # 1ca90 <_ZN9allow_pin12full_dynamic17unshare_if_shared17h4e6b4433fd7c2282E>
   13ce8:	1848                	addi	a0,sp,52
   13cea:	00009097          	auipc	ra,0x9
   13cee:	da6080e7          	jalr	-602(ra) # 1ca90 <_ZN9allow_pin12full_dynamic17unshare_if_shared17h4e6b4433fd7c2282E>
   13cf2:	4481                	li	s1,0
   13cf4:	c489                	beqz	s1,13cfe <_ZN20complex_full_dynamic3app17h7c77ab3639462ea9E+0xea>
   13cf6:	00b9a223          	sw	a1,4(s3)
   13cfa:	4505                	li	a0,1
   13cfc:	a005                	j	13d1c <_ZN20complex_full_dynamic3app17h7c77ab3639462ea9E+0x108>
   13cfe:	1848                	addi	a0,sp,52
   13d00:	00009097          	auipc	ra,0x9
   13d04:	d90080e7          	jalr	-624(ra) # 1ca90 <_ZN9allow_pin12full_dynamic17unshare_if_shared17h4e6b4433fd7c2282E>
   13d08:	00198513          	addi	a0,s3,1
   13d0c:	02a00613          	li	a2,42
   13d10:	85ca                	mv	a1,s2
   13d12:	00009097          	auipc	ra,0x9
   13d16:	e0a080e7          	jalr	-502(ra) # 1cb1c <memcpy>
   13d1a:	4501                	li	a0,0
   13d1c:	00a98023          	sb	a0,0(s3)
   13d20:	1848                	addi	a0,sp,52
   13d22:	00009097          	auipc	ra,0x9
   13d26:	d6e080e7          	jalr	-658(ra) # 1ca90 <_ZN9allow_pin12full_dynamic17unshare_if_shared17h4e6b4433fd7c2282E>
   13d2a:	0048                	addi	a0,sp,4
   13d2c:	00009097          	auipc	ra,0x9
   13d30:	d64080e7          	jalr	-668(ra) # 1ca90 <_ZN9allow_pin12full_dynamic17unshare_if_shared17h4e6b4433fd7c2282E>
   13d34:	50f6                	lw	ra,124(sp)
   13d36:	5466                	lw	s0,120(sp)
   13d38:	54d6                	lw	s1,116(sp)
   13d3a:	5946                	lw	s2,112(sp)
   13d3c:	59b6                	lw	s3,108(sp)
   13d3e:	6109                	addi	sp,sp,128
   13d40:	8082                	ret

00013d42 <_ZN20complex_full_dynamic3app17h7d8b575f15e8ed06E>:
   13d42:	7155                	addi	sp,sp,-208
   13d44:	c786                	sw	ra,204(sp)
   13d46:	c5a2                	sw	s0,200(sp)
   13d48:	c3a6                	sw	s1,196(sp)
   13d4a:	c1ca                	sw	s2,192(sp)
   13d4c:	df4e                	sw	s3,188(sp)
   13d4e:	89aa                	mv	s3,a0
   13d50:	4409                	li	s0,2
   13d52:	00810423          	sb	s0,8(sp)
   13d56:	0064                	addi	s1,sp,12
   13d58:	05600613          	li	a2,86
   13d5c:	8526                	mv	a0,s1
   13d5e:	00009097          	auipc	ra,0x9
   13d62:	dbe080e7          	jalr	-578(ra) # 1cb1c <memcpy>
   13d66:	07010913          	addi	s2,sp,112
   13d6a:	04900613          	li	a2,73
   13d6e:	854a                	mv	a0,s2
   13d70:	4581                	li	a1,0
   13d72:	00009097          	auipc	ra,0x9
   13d76:	d3e080e7          	jalr	-706(ra) # 1cab0 <memset>
   13d7a:	8626                	mv	a2,s1
   13d7c:	06810623          	sb	s0,108(sp)
   13d80:	6509                	lui	a0,0x2
   13d82:	4499                	li	s1,6
   13d84:	4811                	li	a6,4
   13d86:	4599                	li	a1,6
   13d88:	c6b50793          	addi	a5,a0,-917 # 1c6b <.Lline_table_start1+0x1a40>
   13d8c:	05600693          	li	a3,86
   13d90:	4711                	li	a4,4
   13d92:	853e                	mv	a0,a5
   13d94:	00000073          	ecall
   13d98:	00850663          	beq	a0,s0,13da4 <_ZN20complex_full_dynamic3app17h7d8b575f15e8ed06E+0x62>
   13d9c:	c03e                	sw	a5,0(sp)
   13d9e:	c226                	sw	s1,4(sp)
   13da0:	01010423          	sb	a6,8(sp)
   13da4:	4609                	li	a2,2
   13da6:	00c51463          	bne	a0,a2,13dae <_ZN20complex_full_dynamic3app17h7d8b575f15e8ed06E+0x6c>
   13daa:	4485                	li	s1,1
   13dac:	a89d                	j	13e22 <_ZN20complex_full_dynamic3app17h7d8b575f15e8ed06E+0xe0>
   13dae:	06c14503          	lbu	a0,108(sp)
   13db2:	4485                	li	s1,1
   13db4:	02c51563          	bne	a0,a2,13dde <_ZN20complex_full_dynamic3app17h7d8b575f15e8ed06E+0x9c>
   13db8:	864a                	mv	a2,s2
   13dba:	6509                	lui	a0,0x2
   13dbc:	4819                	li	a6,6
   13dbe:	4599                	li	a1,6
   13dc0:	04900693          	li	a3,73
   13dc4:	470d                	li	a4,3
   13dc6:	c6b50793          	addi	a5,a0,-917 # 1c6b <.Lline_table_start1+0x1a40>
   13dca:	4409                	li	s0,2
   13dcc:	853e                	mv	a0,a5
   13dce:	00000073          	ecall
   13dd2:	460d                	li	a2,3
   13dd4:	00851963          	bne	a0,s0,13de6 <_ZN20complex_full_dynamic3app17h7d8b575f15e8ed06E+0xa4>
   13dd8:	4505                	li	a0,1
   13dda:	cd01                	beqz	a0,13df2 <_ZN20complex_full_dynamic3app17h7d8b575f15e8ed06E+0xb0>
   13ddc:	a099                	j	13e22 <_ZN20complex_full_dynamic3app17h7d8b575f15e8ed06E+0xe0>
   13dde:	458d                	li	a1,3
   13de0:	4505                	li	a0,1
   13de2:	c901                	beqz	a0,13df2 <_ZN20complex_full_dynamic3app17h7d8b575f15e8ed06E+0xb0>
   13de4:	a83d                	j	13e22 <_ZN20complex_full_dynamic3app17h7d8b575f15e8ed06E+0xe0>
   13de6:	4501                	li	a0,0
   13de8:	d2be                	sw	a5,100(sp)
   13dea:	d4c2                	sw	a6,104(sp)
   13dec:	06c10623          	sb	a2,108(sp)
   13df0:	e90d                	bnez	a0,13e22 <_ZN20complex_full_dynamic3app17h7d8b575f15e8ed06E+0xe0>
   13df2:	6509                	lui	a0,0x2
   13df4:	4599                	li	a1,6
   13df6:	4619                	li	a2,6
   13df8:	c6b50513          	addi	a0,a0,-917 # 1c6b <.Lline_table_start1+0x1a40>
   13dfc:	4709                	li	a4,2
   13dfe:	07f00793          	li	a5,127
   13e02:	4681                	li	a3,0
   13e04:	00000073          	ecall
   13e08:	00a7fd63          	bgeu	a5,a0,13e22 <_ZN20complex_full_dynamic3app17h7d8b575f15e8ed06E+0xe0>
   13e0c:	850a                	mv	a0,sp
   13e0e:	00009097          	auipc	ra,0x9
   13e12:	c82080e7          	jalr	-894(ra) # 1ca90 <_ZN9allow_pin12full_dynamic17unshare_if_shared17h4e6b4433fd7c2282E>
   13e16:	10c8                	addi	a0,sp,100
   13e18:	00009097          	auipc	ra,0x9
   13e1c:	c78080e7          	jalr	-904(ra) # 1ca90 <_ZN9allow_pin12full_dynamic17unshare_if_shared17h4e6b4433fd7c2282E>
   13e20:	4481                	li	s1,0
   13e22:	c489                	beqz	s1,13e2c <_ZN20complex_full_dynamic3app17h7d8b575f15e8ed06E+0xea>
   13e24:	00b9a223          	sw	a1,4(s3)
   13e28:	4505                	li	a0,1
   13e2a:	a005                	j	13e4a <_ZN20complex_full_dynamic3app17h7d8b575f15e8ed06E+0x108>
   13e2c:	10c8                	addi	a0,sp,100
   13e2e:	00009097          	auipc	ra,0x9
   13e32:	c62080e7          	jalr	-926(ra) # 1ca90 <_ZN9allow_pin12full_dynamic17unshare_if_shared17h4e6b4433fd7c2282E>
   13e36:	00198513          	addi	a0,s3,1
   13e3a:	04900613          	li	a2,73
   13e3e:	85ca                	mv	a1,s2
   13e40:	00009097          	auipc	ra,0x9
   13e44:	cdc080e7          	jalr	-804(ra) # 1cb1c <memcpy>
   13e48:	4501                	li	a0,0
   13e4a:	00a98023          	sb	a0,0(s3)
   13e4e:	10c8                	addi	a0,sp,100
   13e50:	00009097          	auipc	ra,0x9
   13e54:	c40080e7          	jalr	-960(ra) # 1ca90 <_ZN9allow_pin12full_dynamic17unshare_if_shared17h4e6b4433fd7c2282E>
   13e58:	850a                	mv	a0,sp
   13e5a:	00009097          	auipc	ra,0x9
   13e5e:	c36080e7          	jalr	-970(ra) # 1ca90 <_ZN9allow_pin12full_dynamic17unshare_if_shared17h4e6b4433fd7c2282E>
   13e62:	40be                	lw	ra,204(sp)
   13e64:	442e                	lw	s0,200(sp)
   13e66:	449e                	lw	s1,196(sp)
   13e68:	490e                	lw	s2,192(sp)
   13e6a:	59fa                	lw	s3,188(sp)
   13e6c:	6169                	addi	sp,sp,208
   13e6e:	8082                	ret

00013e70 <_ZN20complex_full_dynamic3app17h8af1672df39cdb6fE>:
   13e70:	7175                	addi	sp,sp,-144
   13e72:	c706                	sw	ra,140(sp)
   13e74:	c522                	sw	s0,136(sp)
   13e76:	c326                	sw	s1,132(sp)
   13e78:	c14a                	sw	s2,128(sp)
   13e7a:	dece                	sw	s3,124(sp)
   13e7c:	89aa                	mv	s3,a0
   13e7e:	4409                	li	s0,2
   13e80:	00810423          	sb	s0,8(sp)
   13e84:	0064                	addi	s1,sp,12
   13e86:	03400613          	li	a2,52
   13e8a:	8526                	mv	a0,s1
   13e8c:	00009097          	auipc	ra,0x9
   13e90:	c90080e7          	jalr	-880(ra) # 1cb1c <memcpy>
   13e94:	04c10913          	addi	s2,sp,76
   13e98:	02e00613          	li	a2,46
   13e9c:	854a                	mv	a0,s2
   13e9e:	4581                	li	a1,0
   13ea0:	00009097          	auipc	ra,0x9
   13ea4:	c10080e7          	jalr	-1008(ra) # 1cab0 <memset>
   13ea8:	8626                	mv	a2,s1
   13eaa:	04810423          	sb	s0,72(sp)
   13eae:	20900493          	li	s1,521
   13eb2:	4791                	li	a5,4
   13eb4:	20900513          	li	a0,521
   13eb8:	4589                	li	a1,2
   13eba:	03400693          	li	a3,52
   13ebe:	4711                	li	a4,4
   13ec0:	00000073          	ecall
   13ec4:	00850663          	beq	a0,s0,13ed0 <_ZN20complex_full_dynamic3app17h8af1672df39cdb6fE+0x60>
   13ec8:	c026                	sw	s1,0(sp)
   13eca:	c222                	sw	s0,4(sp)
   13ecc:	00f10423          	sb	a5,8(sp)
   13ed0:	4609                	li	a2,2
   13ed2:	00c51463          	bne	a0,a2,13eda <_ZN20complex_full_dynamic3app17h8af1672df39cdb6fE+0x6a>
   13ed6:	4785                	li	a5,1
   13ed8:	a895                	j	13f4c <_ZN20complex_full_dynamic3app17h8af1672df39cdb6fE+0xdc>
   13eda:	04814503          	lbu	a0,72(sp)
   13ede:	4785                	li	a5,1
   13ee0:	02c51563          	bne	a0,a2,13f0a <_ZN20complex_full_dynamic3app17h8af1672df39cdb6fE+0x9a>
   13ee4:	864a                	mv	a2,s2
   13ee6:	20900493          	li	s1,521
   13eea:	4821                	li	a6,8
   13eec:	20900513          	li	a0,521
   13ef0:	45a1                	li	a1,8
   13ef2:	02e00693          	li	a3,46
   13ef6:	470d                	li	a4,3
   13ef8:	4409                	li	s0,2
   13efa:	00000073          	ecall
   13efe:	460d                	li	a2,3
   13f00:	00851963          	bne	a0,s0,13f12 <_ZN20complex_full_dynamic3app17h8af1672df39cdb6fE+0xa2>
   13f04:	4505                	li	a0,1
   13f06:	cd01                	beqz	a0,13f1e <_ZN20complex_full_dynamic3app17h8af1672df39cdb6fE+0xae>
   13f08:	a091                	j	13f4c <_ZN20complex_full_dynamic3app17h8af1672df39cdb6fE+0xdc>
   13f0a:	458d                	li	a1,3
   13f0c:	4505                	li	a0,1
   13f0e:	c901                	beqz	a0,13f1e <_ZN20complex_full_dynamic3app17h8af1672df39cdb6fE+0xae>
   13f10:	a835                	j	13f4c <_ZN20complex_full_dynamic3app17h8af1672df39cdb6fE+0xdc>
   13f12:	4501                	li	a0,0
   13f14:	c0a6                	sw	s1,64(sp)
   13f16:	c2c2                	sw	a6,68(sp)
   13f18:	04c10423          	sb	a2,72(sp)
   13f1c:	e905                	bnez	a0,13f4c <_ZN20complex_full_dynamic3app17h8af1672df39cdb6fE+0xdc>
   13f1e:	20900513          	li	a0,521
   13f22:	4589                	li	a1,2
   13f24:	4621                	li	a2,8
   13f26:	4709                	li	a4,2
   13f28:	07f00493          	li	s1,127
   13f2c:	4681                	li	a3,0
   13f2e:	00000073          	ecall
   13f32:	00a4fd63          	bgeu	s1,a0,13f4c <_ZN20complex_full_dynamic3app17h8af1672df39cdb6fE+0xdc>
   13f36:	850a                	mv	a0,sp
   13f38:	00009097          	auipc	ra,0x9
   13f3c:	b58080e7          	jalr	-1192(ra) # 1ca90 <_ZN9allow_pin12full_dynamic17unshare_if_shared17h4e6b4433fd7c2282E>
   13f40:	0088                	addi	a0,sp,64
   13f42:	00009097          	auipc	ra,0x9
   13f46:	b4e080e7          	jalr	-1202(ra) # 1ca90 <_ZN9allow_pin12full_dynamic17unshare_if_shared17h4e6b4433fd7c2282E>
   13f4a:	4781                	li	a5,0
   13f4c:	c789                	beqz	a5,13f56 <_ZN20complex_full_dynamic3app17h8af1672df39cdb6fE+0xe6>
   13f4e:	00b9a223          	sw	a1,4(s3)
   13f52:	4505                	li	a0,1
   13f54:	a005                	j	13f74 <_ZN20complex_full_dynamic3app17h8af1672df39cdb6fE+0x104>
   13f56:	0088                	addi	a0,sp,64
   13f58:	00009097          	auipc	ra,0x9
   13f5c:	b38080e7          	jalr	-1224(ra) # 1ca90 <_ZN9allow_pin12full_dynamic17unshare_if_shared17h4e6b4433fd7c2282E>
   13f60:	00198513          	addi	a0,s3,1
   13f64:	02e00613          	li	a2,46
   13f68:	85ca                	mv	a1,s2
   13f6a:	00009097          	auipc	ra,0x9
   13f6e:	bb2080e7          	jalr	-1102(ra) # 1cb1c <memcpy>
   13f72:	4501                	li	a0,0
   13f74:	00a98023          	sb	a0,0(s3)
   13f78:	0088                	addi	a0,sp,64
   13f7a:	00009097          	auipc	ra,0x9
   13f7e:	b16080e7          	jalr	-1258(ra) # 1ca90 <_ZN9allow_pin12full_dynamic17unshare_if_shared17h4e6b4433fd7c2282E>
   13f82:	850a                	mv	a0,sp
   13f84:	00009097          	auipc	ra,0x9
   13f88:	b0c080e7          	jalr	-1268(ra) # 1ca90 <_ZN9allow_pin12full_dynamic17unshare_if_shared17h4e6b4433fd7c2282E>
   13f8c:	40ba                	lw	ra,140(sp)
   13f8e:	442a                	lw	s0,136(sp)
   13f90:	449a                	lw	s1,132(sp)
   13f92:	490a                	lw	s2,128(sp)
   13f94:	59f6                	lw	s3,124(sp)
   13f96:	6149                	addi	sp,sp,144
   13f98:	8082                	ret

00013f9a <_ZN20complex_full_dynamic3app17h8ba21468e89739b4E>:
   13f9a:	7155                	addi	sp,sp,-208
   13f9c:	c786                	sw	ra,204(sp)
   13f9e:	c5a2                	sw	s0,200(sp)
   13fa0:	c3a6                	sw	s1,196(sp)
   13fa2:	c1ca                	sw	s2,192(sp)
   13fa4:	df4e                	sw	s3,188(sp)
   13fa6:	89aa                	mv	s3,a0
   13fa8:	4409                	li	s0,2
   13faa:	00810423          	sb	s0,8(sp)
   13fae:	0064                	addi	s1,sp,12
   13fb0:	05100613          	li	a2,81
   13fb4:	8526                	mv	a0,s1
   13fb6:	00009097          	auipc	ra,0x9
   13fba:	b66080e7          	jalr	-1178(ra) # 1cb1c <memcpy>
   13fbe:	06c10913          	addi	s2,sp,108
   13fc2:	04f00613          	li	a2,79
   13fc6:	854a                	mv	a0,s2
   13fc8:	4581                	li	a1,0
   13fca:	00009097          	auipc	ra,0x9
   13fce:	ae6080e7          	jalr	-1306(ra) # 1cab0 <memset>
   13fd2:	8626                	mv	a2,s1
   13fd4:	06810423          	sb	s0,104(sp)
   13fd8:	6505                	lui	a0,0x1
   13fda:	4491                	li	s1,4
   13fdc:	4589                	li	a1,2
   13fde:	e1650793          	addi	a5,a0,-490 # e16 <.Lline_table_start1+0xbeb>
   13fe2:	05100693          	li	a3,81
   13fe6:	4711                	li	a4,4
   13fe8:	853e                	mv	a0,a5
   13fea:	00000073          	ecall
   13fee:	00850663          	beq	a0,s0,13ffa <_ZN20complex_full_dynamic3app17h8ba21468e89739b4E+0x60>
   13ff2:	c03e                	sw	a5,0(sp)
   13ff4:	c222                	sw	s0,4(sp)
   13ff6:	00910423          	sb	s1,8(sp)
   13ffa:	4609                	li	a2,2
   13ffc:	00c51463          	bne	a0,a2,14004 <_ZN20complex_full_dynamic3app17h8ba21468e89739b4E+0x6a>
   14000:	4485                	li	s1,1
   14002:	a89d                	j	14078 <_ZN20complex_full_dynamic3app17h8ba21468e89739b4E+0xde>
   14004:	06814503          	lbu	a0,104(sp)
   14008:	4485                	li	s1,1
   1400a:	02c51563          	bne	a0,a2,14034 <_ZN20complex_full_dynamic3app17h8ba21468e89739b4E+0x9a>
   1400e:	864a                	mv	a2,s2
   14010:	6505                	lui	a0,0x1
   14012:	4811                	li	a6,4
   14014:	4591                	li	a1,4
   14016:	04f00693          	li	a3,79
   1401a:	470d                	li	a4,3
   1401c:	e1650793          	addi	a5,a0,-490 # e16 <.Lline_table_start1+0xbeb>
   14020:	4409                	li	s0,2
   14022:	853e                	mv	a0,a5
   14024:	00000073          	ecall
   14028:	460d                	li	a2,3
   1402a:	00851963          	bne	a0,s0,1403c <_ZN20complex_full_dynamic3app17h8ba21468e89739b4E+0xa2>
   1402e:	4505                	li	a0,1
   14030:	cd01                	beqz	a0,14048 <_ZN20complex_full_dynamic3app17h8ba21468e89739b4E+0xae>
   14032:	a099                	j	14078 <_ZN20complex_full_dynamic3app17h8ba21468e89739b4E+0xde>
   14034:	458d                	li	a1,3
   14036:	4505                	li	a0,1
   14038:	c901                	beqz	a0,14048 <_ZN20complex_full_dynamic3app17h8ba21468e89739b4E+0xae>
   1403a:	a83d                	j	14078 <_ZN20complex_full_dynamic3app17h8ba21468e89739b4E+0xde>
   1403c:	4501                	li	a0,0
   1403e:	d0be                	sw	a5,96(sp)
   14040:	d2c2                	sw	a6,100(sp)
   14042:	06c10423          	sb	a2,104(sp)
   14046:	e90d                	bnez	a0,14078 <_ZN20complex_full_dynamic3app17h8ba21468e89739b4E+0xde>
   14048:	6505                	lui	a0,0x1
   1404a:	4589                	li	a1,2
   1404c:	4611                	li	a2,4
   1404e:	e1650513          	addi	a0,a0,-490 # e16 <.Lline_table_start1+0xbeb>
   14052:	4709                	li	a4,2
   14054:	07f00793          	li	a5,127
   14058:	4681                	li	a3,0
   1405a:	00000073          	ecall
   1405e:	00a7fd63          	bgeu	a5,a0,14078 <_ZN20complex_full_dynamic3app17h8ba21468e89739b4E+0xde>
   14062:	850a                	mv	a0,sp
   14064:	00009097          	auipc	ra,0x9
   14068:	a2c080e7          	jalr	-1492(ra) # 1ca90 <_ZN9allow_pin12full_dynamic17unshare_if_shared17h4e6b4433fd7c2282E>
   1406c:	1088                	addi	a0,sp,96
   1406e:	00009097          	auipc	ra,0x9
   14072:	a22080e7          	jalr	-1502(ra) # 1ca90 <_ZN9allow_pin12full_dynamic17unshare_if_shared17h4e6b4433fd7c2282E>
   14076:	4481                	li	s1,0
   14078:	c489                	beqz	s1,14082 <_ZN20complex_full_dynamic3app17h8ba21468e89739b4E+0xe8>
   1407a:	00b9a223          	sw	a1,4(s3)
   1407e:	4505                	li	a0,1
   14080:	a005                	j	140a0 <_ZN20complex_full_dynamic3app17h8ba21468e89739b4E+0x106>
   14082:	1088                	addi	a0,sp,96
   14084:	00009097          	auipc	ra,0x9
   14088:	a0c080e7          	jalr	-1524(ra) # 1ca90 <_ZN9allow_pin12full_dynamic17unshare_if_shared17h4e6b4433fd7c2282E>
   1408c:	00198513          	addi	a0,s3,1
   14090:	04f00613          	li	a2,79
   14094:	85ca                	mv	a1,s2
   14096:	00009097          	auipc	ra,0x9
   1409a:	a86080e7          	jalr	-1402(ra) # 1cb1c <memcpy>
   1409e:	4501                	li	a0,0
   140a0:	00a98023          	sb	a0,0(s3)
   140a4:	1088                	addi	a0,sp,96
   140a6:	00009097          	auipc	ra,0x9
   140aa:	9ea080e7          	jalr	-1558(ra) # 1ca90 <_ZN9allow_pin12full_dynamic17unshare_if_shared17h4e6b4433fd7c2282E>
   140ae:	850a                	mv	a0,sp
   140b0:	00009097          	auipc	ra,0x9
   140b4:	9e0080e7          	jalr	-1568(ra) # 1ca90 <_ZN9allow_pin12full_dynamic17unshare_if_shared17h4e6b4433fd7c2282E>
   140b8:	40be                	lw	ra,204(sp)
   140ba:	442e                	lw	s0,200(sp)
   140bc:	449e                	lw	s1,196(sp)
   140be:	490e                	lw	s2,192(sp)
   140c0:	59fa                	lw	s3,188(sp)
   140c2:	6169                	addi	sp,sp,208
   140c4:	8082                	ret

000140c6 <_ZN20complex_full_dynamic3app17h8c3b9faa4b02ac7aE>:
   140c6:	7135                	addi	sp,sp,-160
   140c8:	cf06                	sw	ra,156(sp)
   140ca:	cd22                	sw	s0,152(sp)
   140cc:	cb26                	sw	s1,148(sp)
   140ce:	c94a                	sw	s2,144(sp)
   140d0:	c74e                	sw	s3,140(sp)
   140d2:	89aa                	mv	s3,a0
   140d4:	4409                	li	s0,2
   140d6:	00810623          	sb	s0,12(sp)
   140da:	0804                	addi	s1,sp,16
   140dc:	03c00613          	li	a2,60
   140e0:	8526                	mv	a0,s1
   140e2:	00009097          	auipc	ra,0x9
   140e6:	a3a080e7          	jalr	-1478(ra) # 1cb1c <memcpy>
   140ea:	05810913          	addi	s2,sp,88
   140ee:	03200613          	li	a2,50
   140f2:	854a                	mv	a0,s2
   140f4:	4581                	li	a1,0
   140f6:	00009097          	auipc	ra,0x9
   140fa:	9ba080e7          	jalr	-1606(ra) # 1cab0 <memset>
   140fe:	8626                	mv	a2,s1
   14100:	04810a23          	sb	s0,84(sp)
   14104:	6509                	lui	a0,0x2
   14106:	4499                	li	s1,6
   14108:	4811                	li	a6,4
   1410a:	4599                	li	a1,6
   1410c:	b1e50793          	addi	a5,a0,-1250 # 1b1e <.Lline_table_start1+0x18f3>
   14110:	03c00693          	li	a3,60
   14114:	4711                	li	a4,4
   14116:	853e                	mv	a0,a5
   14118:	00000073          	ecall
   1411c:	00850663          	beq	a0,s0,14128 <_ZN20complex_full_dynamic3app17h8c3b9faa4b02ac7aE+0x62>
   14120:	c23e                	sw	a5,4(sp)
   14122:	c426                	sw	s1,8(sp)
   14124:	01010623          	sb	a6,12(sp)
   14128:	4609                	li	a2,2
   1412a:	00c51463          	bne	a0,a2,14132 <_ZN20complex_full_dynamic3app17h8c3b9faa4b02ac7aE+0x6c>
   1412e:	4485                	li	s1,1
   14130:	a89d                	j	141a6 <_ZN20complex_full_dynamic3app17h8c3b9faa4b02ac7aE+0xe0>
   14132:	05414503          	lbu	a0,84(sp)
   14136:	4485                	li	s1,1
   14138:	02c51563          	bne	a0,a2,14162 <_ZN20complex_full_dynamic3app17h8c3b9faa4b02ac7aE+0x9c>
   1413c:	864a                	mv	a2,s2
   1413e:	6509                	lui	a0,0x2
   14140:	4821                	li	a6,8
   14142:	45a1                	li	a1,8
   14144:	03200693          	li	a3,50
   14148:	470d                	li	a4,3
   1414a:	b1e50793          	addi	a5,a0,-1250 # 1b1e <.Lline_table_start1+0x18f3>
   1414e:	4409                	li	s0,2
   14150:	853e                	mv	a0,a5
   14152:	00000073          	ecall
   14156:	460d                	li	a2,3
   14158:	00851963          	bne	a0,s0,1416a <_ZN20complex_full_dynamic3app17h8c3b9faa4b02ac7aE+0xa4>
   1415c:	4505                	li	a0,1
   1415e:	cd01                	beqz	a0,14176 <_ZN20complex_full_dynamic3app17h8c3b9faa4b02ac7aE+0xb0>
   14160:	a099                	j	141a6 <_ZN20complex_full_dynamic3app17h8c3b9faa4b02ac7aE+0xe0>
   14162:	458d                	li	a1,3
   14164:	4505                	li	a0,1
   14166:	c901                	beqz	a0,14176 <_ZN20complex_full_dynamic3app17h8c3b9faa4b02ac7aE+0xb0>
   14168:	a83d                	j	141a6 <_ZN20complex_full_dynamic3app17h8c3b9faa4b02ac7aE+0xe0>
   1416a:	4501                	li	a0,0
   1416c:	c6be                	sw	a5,76(sp)
   1416e:	c8c2                	sw	a6,80(sp)
   14170:	04c10a23          	sb	a2,84(sp)
   14174:	e90d                	bnez	a0,141a6 <_ZN20complex_full_dynamic3app17h8c3b9faa4b02ac7aE+0xe0>
   14176:	6509                	lui	a0,0x2
   14178:	4599                	li	a1,6
   1417a:	4621                	li	a2,8
   1417c:	b1e50513          	addi	a0,a0,-1250 # 1b1e <.Lline_table_start1+0x18f3>
   14180:	4709                	li	a4,2
   14182:	07f00793          	li	a5,127
   14186:	4681                	li	a3,0
   14188:	00000073          	ecall
   1418c:	00a7fd63          	bgeu	a5,a0,141a6 <_ZN20complex_full_dynamic3app17h8c3b9faa4b02ac7aE+0xe0>
   14190:	0048                	addi	a0,sp,4
   14192:	00009097          	auipc	ra,0x9
   14196:	8fe080e7          	jalr	-1794(ra) # 1ca90 <_ZN9allow_pin12full_dynamic17unshare_if_shared17h4e6b4433fd7c2282E>
   1419a:	00e8                	addi	a0,sp,76
   1419c:	00009097          	auipc	ra,0x9
   141a0:	8f4080e7          	jalr	-1804(ra) # 1ca90 <_ZN9allow_pin12full_dynamic17unshare_if_shared17h4e6b4433fd7c2282E>
   141a4:	4481                	li	s1,0
   141a6:	c489                	beqz	s1,141b0 <_ZN20complex_full_dynamic3app17h8c3b9faa4b02ac7aE+0xea>
   141a8:	00b9a223          	sw	a1,4(s3)
   141ac:	4505                	li	a0,1
   141ae:	a005                	j	141ce <_ZN20complex_full_dynamic3app17h8c3b9faa4b02ac7aE+0x108>
   141b0:	00e8                	addi	a0,sp,76
   141b2:	00009097          	auipc	ra,0x9
   141b6:	8de080e7          	jalr	-1826(ra) # 1ca90 <_ZN9allow_pin12full_dynamic17unshare_if_shared17h4e6b4433fd7c2282E>
   141ba:	00198513          	addi	a0,s3,1
   141be:	03200613          	li	a2,50
   141c2:	85ca                	mv	a1,s2
   141c4:	00009097          	auipc	ra,0x9
   141c8:	958080e7          	jalr	-1704(ra) # 1cb1c <memcpy>
   141cc:	4501                	li	a0,0
   141ce:	00a98023          	sb	a0,0(s3)
   141d2:	00e8                	addi	a0,sp,76
   141d4:	00009097          	auipc	ra,0x9
   141d8:	8bc080e7          	jalr	-1860(ra) # 1ca90 <_ZN9allow_pin12full_dynamic17unshare_if_shared17h4e6b4433fd7c2282E>
   141dc:	0048                	addi	a0,sp,4
   141de:	00009097          	auipc	ra,0x9
   141e2:	8b2080e7          	jalr	-1870(ra) # 1ca90 <_ZN9allow_pin12full_dynamic17unshare_if_shared17h4e6b4433fd7c2282E>
   141e6:	40fa                	lw	ra,156(sp)
   141e8:	446a                	lw	s0,152(sp)
   141ea:	44da                	lw	s1,148(sp)
   141ec:	494a                	lw	s2,144(sp)
   141ee:	49ba                	lw	s3,140(sp)
   141f0:	610d                	addi	sp,sp,160
   141f2:	8082                	ret

000141f4 <_ZN20complex_full_dynamic3app17h8d5f3111b223e10bE>:
   141f4:	7171                	addi	sp,sp,-176
   141f6:	d706                	sw	ra,172(sp)
   141f8:	d522                	sw	s0,168(sp)
   141fa:	d326                	sw	s1,164(sp)
   141fc:	d14a                	sw	s2,160(sp)
   141fe:	cf4e                	sw	s3,156(sp)
   14200:	89aa                	mv	s3,a0
   14202:	4409                	li	s0,2
   14204:	00810823          	sb	s0,16(sp)
   14208:	0844                	addi	s1,sp,20
   1420a:	4671                	li	a2,28
   1420c:	8526                	mv	a0,s1
   1420e:	00009097          	auipc	ra,0x9
   14212:	90e080e7          	jalr	-1778(ra) # 1cb1c <memcpy>
   14216:	03c10913          	addi	s2,sp,60
   1421a:	05d00613          	li	a2,93
   1421e:	854a                	mv	a0,s2
   14220:	4581                	li	a1,0
   14222:	00009097          	auipc	ra,0x9
   14226:	88e080e7          	jalr	-1906(ra) # 1cab0 <memset>
   1422a:	8626                	mv	a2,s1
   1422c:	02810c23          	sb	s0,56(sp)
   14230:	6505                	lui	a0,0x1
   14232:	44a1                	li	s1,8
   14234:	4811                	li	a6,4
   14236:	45a1                	li	a1,8
   14238:	c3e50793          	addi	a5,a0,-962 # c3e <.Lline_table_start1+0xa13>
   1423c:	46f1                	li	a3,28
   1423e:	4711                	li	a4,4
   14240:	853e                	mv	a0,a5
   14242:	00000073          	ecall
   14246:	00850663          	beq	a0,s0,14252 <_ZN20complex_full_dynamic3app17h8d5f3111b223e10bE+0x5e>
   1424a:	c43e                	sw	a5,8(sp)
   1424c:	c626                	sw	s1,12(sp)
   1424e:	01010823          	sb	a6,16(sp)
   14252:	4609                	li	a2,2
   14254:	00c51463          	bne	a0,a2,1425c <_ZN20complex_full_dynamic3app17h8d5f3111b223e10bE+0x68>
   14258:	4485                	li	s1,1
   1425a:	a89d                	j	142d0 <_ZN20complex_full_dynamic3app17h8d5f3111b223e10bE+0xdc>
   1425c:	03814503          	lbu	a0,56(sp)
   14260:	4485                	li	s1,1
   14262:	02c51563          	bne	a0,a2,1428c <_ZN20complex_full_dynamic3app17h8d5f3111b223e10bE+0x98>
   14266:	864a                	mv	a2,s2
   14268:	6505                	lui	a0,0x1
   1426a:	4815                	li	a6,5
   1426c:	4595                	li	a1,5
   1426e:	05d00693          	li	a3,93
   14272:	470d                	li	a4,3
   14274:	c3e50793          	addi	a5,a0,-962 # c3e <.Lline_table_start1+0xa13>
   14278:	4409                	li	s0,2
   1427a:	853e                	mv	a0,a5
   1427c:	00000073          	ecall
   14280:	460d                	li	a2,3
   14282:	00851963          	bne	a0,s0,14294 <_ZN20complex_full_dynamic3app17h8d5f3111b223e10bE+0xa0>
   14286:	4505                	li	a0,1
   14288:	cd01                	beqz	a0,142a0 <_ZN20complex_full_dynamic3app17h8d5f3111b223e10bE+0xac>
   1428a:	a099                	j	142d0 <_ZN20complex_full_dynamic3app17h8d5f3111b223e10bE+0xdc>
   1428c:	458d                	li	a1,3
   1428e:	4505                	li	a0,1
   14290:	c901                	beqz	a0,142a0 <_ZN20complex_full_dynamic3app17h8d5f3111b223e10bE+0xac>
   14292:	a83d                	j	142d0 <_ZN20complex_full_dynamic3app17h8d5f3111b223e10bE+0xdc>
   14294:	4501                	li	a0,0
   14296:	d83e                	sw	a5,48(sp)
   14298:	da42                	sw	a6,52(sp)
   1429a:	02c10c23          	sb	a2,56(sp)
   1429e:	e90d                	bnez	a0,142d0 <_ZN20complex_full_dynamic3app17h8d5f3111b223e10bE+0xdc>
   142a0:	6505                	lui	a0,0x1
   142a2:	45a1                	li	a1,8
   142a4:	4615                	li	a2,5
   142a6:	c3e50513          	addi	a0,a0,-962 # c3e <.Lline_table_start1+0xa13>
   142aa:	4709                	li	a4,2
   142ac:	07f00793          	li	a5,127
   142b0:	4681                	li	a3,0
   142b2:	00000073          	ecall
   142b6:	00a7fd63          	bgeu	a5,a0,142d0 <_ZN20complex_full_dynamic3app17h8d5f3111b223e10bE+0xdc>
   142ba:	0028                	addi	a0,sp,8
   142bc:	00008097          	auipc	ra,0x8
   142c0:	7d4080e7          	jalr	2004(ra) # 1ca90 <_ZN9allow_pin12full_dynamic17unshare_if_shared17h4e6b4433fd7c2282E>
   142c4:	1808                	addi	a0,sp,48
   142c6:	00008097          	auipc	ra,0x8
   142ca:	7ca080e7          	jalr	1994(ra) # 1ca90 <_ZN9allow_pin12full_dynamic17unshare_if_shared17h4e6b4433fd7c2282E>
   142ce:	4481                	li	s1,0
   142d0:	c489                	beqz	s1,142da <_ZN20complex_full_dynamic3app17h8d5f3111b223e10bE+0xe6>
   142d2:	00b9a223          	sw	a1,4(s3)
   142d6:	4505                	li	a0,1
   142d8:	a005                	j	142f8 <_ZN20complex_full_dynamic3app17h8d5f3111b223e10bE+0x104>
   142da:	1808                	addi	a0,sp,48
   142dc:	00008097          	auipc	ra,0x8
   142e0:	7b4080e7          	jalr	1972(ra) # 1ca90 <_ZN9allow_pin12full_dynamic17unshare_if_shared17h4e6b4433fd7c2282E>
   142e4:	00198513          	addi	a0,s3,1
   142e8:	05d00613          	li	a2,93
   142ec:	85ca                	mv	a1,s2
   142ee:	00009097          	auipc	ra,0x9
   142f2:	82e080e7          	jalr	-2002(ra) # 1cb1c <memcpy>
   142f6:	4501                	li	a0,0
   142f8:	00a98023          	sb	a0,0(s3)
   142fc:	1808                	addi	a0,sp,48
   142fe:	00008097          	auipc	ra,0x8
   14302:	792080e7          	jalr	1938(ra) # 1ca90 <_ZN9allow_pin12full_dynamic17unshare_if_shared17h4e6b4433fd7c2282E>
   14306:	0028                	addi	a0,sp,8
   14308:	00008097          	auipc	ra,0x8
   1430c:	788080e7          	jalr	1928(ra) # 1ca90 <_ZN9allow_pin12full_dynamic17unshare_if_shared17h4e6b4433fd7c2282E>
   14310:	50ba                	lw	ra,172(sp)
   14312:	542a                	lw	s0,168(sp)
   14314:	549a                	lw	s1,164(sp)
   14316:	590a                	lw	s2,160(sp)
   14318:	49fa                	lw	s3,156(sp)
   1431a:	614d                	addi	sp,sp,176
   1431c:	8082                	ret

0001431e <_ZN20complex_full_dynamic3app17h8da9d338c5073a43E>:
   1431e:	7115                	addi	sp,sp,-224
   14320:	cf86                	sw	ra,220(sp)
   14322:	cda2                	sw	s0,216(sp)
   14324:	cba6                	sw	s1,212(sp)
   14326:	c9ca                	sw	s2,208(sp)
   14328:	c7ce                	sw	s3,204(sp)
   1432a:	89aa                	mv	s3,a0
   1432c:	4409                	li	s0,2
   1432e:	00810a23          	sb	s0,20(sp)
   14332:	0824                	addi	s1,sp,24
   14334:	05900613          	li	a2,89
   14338:	8526                	mv	a0,s1
   1433a:	00008097          	auipc	ra,0x8
   1433e:	7e2080e7          	jalr	2018(ra) # 1cb1c <memcpy>
   14342:	08010913          	addi	s2,sp,128
   14346:	04a00613          	li	a2,74
   1434a:	854a                	mv	a0,s2
   1434c:	4581                	li	a1,0
   1434e:	00008097          	auipc	ra,0x8
   14352:	762080e7          	jalr	1890(ra) # 1cab0 <memset>
   14356:	4581                	li	a1,0
   14358:	8626                	mv	a2,s1
   1435a:	06810e23          	sb	s0,124(sp)
   1435e:	6505                	lui	a0,0x1
   14360:	4491                	li	s1,4
   14362:	48450793          	addi	a5,a0,1156 # 1484 <.Lline_table_start1+0x1259>
   14366:	05900693          	li	a3,89
   1436a:	4711                	li	a4,4
   1436c:	853e                	mv	a0,a5
   1436e:	00000073          	ecall
   14372:	00850663          	beq	a0,s0,1437e <_ZN20complex_full_dynamic3app17h8da9d338c5073a43E+0x60>
   14376:	c63e                	sw	a5,12(sp)
   14378:	c802                	sw	zero,16(sp)
   1437a:	00910a23          	sb	s1,20(sp)
   1437e:	4609                	li	a2,2
   14380:	00c51463          	bne	a0,a2,14388 <_ZN20complex_full_dynamic3app17h8da9d338c5073a43E+0x6a>
   14384:	4485                	li	s1,1
   14386:	a89d                	j	143fc <_ZN20complex_full_dynamic3app17h8da9d338c5073a43E+0xde>
   14388:	07c14503          	lbu	a0,124(sp)
   1438c:	4485                	li	s1,1
   1438e:	02c51563          	bne	a0,a2,143b8 <_ZN20complex_full_dynamic3app17h8da9d338c5073a43E+0x9a>
   14392:	864a                	mv	a2,s2
   14394:	6505                	lui	a0,0x1
   14396:	4811                	li	a6,4
   14398:	4591                	li	a1,4
   1439a:	04a00693          	li	a3,74
   1439e:	470d                	li	a4,3
   143a0:	48450793          	addi	a5,a0,1156 # 1484 <.Lline_table_start1+0x1259>
   143a4:	4409                	li	s0,2
   143a6:	853e                	mv	a0,a5
   143a8:	00000073          	ecall
   143ac:	460d                	li	a2,3
   143ae:	00851963          	bne	a0,s0,143c0 <_ZN20complex_full_dynamic3app17h8da9d338c5073a43E+0xa2>
   143b2:	4505                	li	a0,1
   143b4:	cd01                	beqz	a0,143cc <_ZN20complex_full_dynamic3app17h8da9d338c5073a43E+0xae>
   143b6:	a099                	j	143fc <_ZN20complex_full_dynamic3app17h8da9d338c5073a43E+0xde>
   143b8:	458d                	li	a1,3
   143ba:	4505                	li	a0,1
   143bc:	c901                	beqz	a0,143cc <_ZN20complex_full_dynamic3app17h8da9d338c5073a43E+0xae>
   143be:	a83d                	j	143fc <_ZN20complex_full_dynamic3app17h8da9d338c5073a43E+0xde>
   143c0:	4501                	li	a0,0
   143c2:	dabe                	sw	a5,116(sp)
   143c4:	dcc2                	sw	a6,120(sp)
   143c6:	06c10e23          	sb	a2,124(sp)
   143ca:	e90d                	bnez	a0,143fc <_ZN20complex_full_dynamic3app17h8da9d338c5073a43E+0xde>
   143cc:	6505                	lui	a0,0x1
   143ce:	4611                	li	a2,4
   143d0:	48450513          	addi	a0,a0,1156 # 1484 <.Lline_table_start1+0x1259>
   143d4:	4709                	li	a4,2
   143d6:	07f00793          	li	a5,127
   143da:	4581                	li	a1,0
   143dc:	4681                	li	a3,0
   143de:	00000073          	ecall
   143e2:	00a7fd63          	bgeu	a5,a0,143fc <_ZN20complex_full_dynamic3app17h8da9d338c5073a43E+0xde>
   143e6:	0068                	addi	a0,sp,12
   143e8:	00008097          	auipc	ra,0x8
   143ec:	6a8080e7          	jalr	1704(ra) # 1ca90 <_ZN9allow_pin12full_dynamic17unshare_if_shared17h4e6b4433fd7c2282E>
   143f0:	18c8                	addi	a0,sp,116
   143f2:	00008097          	auipc	ra,0x8
   143f6:	69e080e7          	jalr	1694(ra) # 1ca90 <_ZN9allow_pin12full_dynamic17unshare_if_shared17h4e6b4433fd7c2282E>
   143fa:	4481                	li	s1,0
   143fc:	c489                	beqz	s1,14406 <_ZN20complex_full_dynamic3app17h8da9d338c5073a43E+0xe8>
   143fe:	00b9a223          	sw	a1,4(s3)
   14402:	4505                	li	a0,1
   14404:	a005                	j	14424 <_ZN20complex_full_dynamic3app17h8da9d338c5073a43E+0x106>
   14406:	18c8                	addi	a0,sp,116
   14408:	00008097          	auipc	ra,0x8
   1440c:	688080e7          	jalr	1672(ra) # 1ca90 <_ZN9allow_pin12full_dynamic17unshare_if_shared17h4e6b4433fd7c2282E>
   14410:	00198513          	addi	a0,s3,1
   14414:	04a00613          	li	a2,74
   14418:	85ca                	mv	a1,s2
   1441a:	00008097          	auipc	ra,0x8
   1441e:	702080e7          	jalr	1794(ra) # 1cb1c <memcpy>
   14422:	4501                	li	a0,0
   14424:	00a98023          	sb	a0,0(s3)
   14428:	18c8                	addi	a0,sp,116
   1442a:	00008097          	auipc	ra,0x8
   1442e:	666080e7          	jalr	1638(ra) # 1ca90 <_ZN9allow_pin12full_dynamic17unshare_if_shared17h4e6b4433fd7c2282E>
   14432:	0068                	addi	a0,sp,12
   14434:	00008097          	auipc	ra,0x8
   14438:	65c080e7          	jalr	1628(ra) # 1ca90 <_ZN9allow_pin12full_dynamic17unshare_if_shared17h4e6b4433fd7c2282E>
   1443c:	40fe                	lw	ra,220(sp)
   1443e:	446e                	lw	s0,216(sp)
   14440:	44de                	lw	s1,212(sp)
   14442:	494e                	lw	s2,208(sp)
   14444:	49be                	lw	s3,204(sp)
   14446:	612d                	addi	sp,sp,224
   14448:	8082                	ret

0001444a <_ZN20complex_full_dynamic3app17h8ff575c5d967ff0cE>:
   1444a:	7119                	addi	sp,sp,-128
   1444c:	de86                	sw	ra,124(sp)
   1444e:	dca2                	sw	s0,120(sp)
   14450:	daa6                	sw	s1,116(sp)
   14452:	d8ca                	sw	s2,112(sp)
   14454:	d6ce                	sw	s3,108(sp)
   14456:	89aa                	mv	s3,a0
   14458:	4409                	li	s0,2
   1445a:	00810a23          	sb	s0,20(sp)
   1445e:	0824                	addi	s1,sp,24
   14460:	02900613          	li	a2,41
   14464:	8526                	mv	a0,s1
   14466:	00008097          	auipc	ra,0x8
   1446a:	6b6080e7          	jalr	1718(ra) # 1cb1c <memcpy>
   1446e:	8626                	mv	a2,s1
   14470:	ce82                	sw	zero,92(sp)
   14472:	d082                	sw	zero,96(sp)
   14474:	d282                	sw	zero,100(sp)
   14476:	06011423          	sh	zero,104(sp)
   1447a:	04810623          	sb	s0,76(sp)
   1447e:	c882                	sw	zero,80(sp)
   14480:	ca82                	sw	zero,84(sp)
   14482:	cc82                	sw	zero,88(sp)
   14484:	6509                	lui	a0,0x2
   14486:	4495                	li	s1,5
   14488:	4811                	li	a6,4
   1448a:	4595                	li	a1,5
   1448c:	04850793          	addi	a5,a0,72 # 2048 <.Lline_table_start1+0x1e1d>
   14490:	02900693          	li	a3,41
   14494:	4711                	li	a4,4
   14496:	853e                	mv	a0,a5
   14498:	00000073          	ecall
   1449c:	00850663          	beq	a0,s0,144a8 <_ZN20complex_full_dynamic3app17h8ff575c5d967ff0cE+0x5e>
   144a0:	c63e                	sw	a5,12(sp)
   144a2:	c826                	sw	s1,16(sp)
   144a4:	01010a23          	sb	a6,20(sp)
   144a8:	4609                	li	a2,2
   144aa:	05010913          	addi	s2,sp,80
   144ae:	00c51463          	bne	a0,a2,144b6 <_ZN20complex_full_dynamic3app17h8ff575c5d967ff0cE+0x6c>
   144b2:	4485                	li	s1,1
   144b4:	a88d                	j	14526 <_ZN20complex_full_dynamic3app17h8ff575c5d967ff0cE+0xdc>
   144b6:	04c14503          	lbu	a0,76(sp)
   144ba:	4485                	li	s1,1
   144bc:	02c51363          	bne	a0,a2,144e2 <_ZN20complex_full_dynamic3app17h8ff575c5d967ff0cE+0x98>
   144c0:	864a                	mv	a2,s2
   144c2:	6509                	lui	a0,0x2
   144c4:	458d                	li	a1,3
   144c6:	46e9                	li	a3,26
   144c8:	470d                	li	a4,3
   144ca:	04850793          	addi	a5,a0,72 # 2048 <.Lline_table_start1+0x1e1d>
   144ce:	4409                	li	s0,2
   144d0:	853e                	mv	a0,a5
   144d2:	00000073          	ecall
   144d6:	460d                	li	a2,3
   144d8:	00851963          	bne	a0,s0,144ea <_ZN20complex_full_dynamic3app17h8ff575c5d967ff0cE+0xa0>
   144dc:	4505                	li	a0,1
   144de:	cd01                	beqz	a0,144f6 <_ZN20complex_full_dynamic3app17h8ff575c5d967ff0cE+0xac>
   144e0:	a099                	j	14526 <_ZN20complex_full_dynamic3app17h8ff575c5d967ff0cE+0xdc>
   144e2:	458d                	li	a1,3
   144e4:	4505                	li	a0,1
   144e6:	c901                	beqz	a0,144f6 <_ZN20complex_full_dynamic3app17h8ff575c5d967ff0cE+0xac>
   144e8:	a83d                	j	14526 <_ZN20complex_full_dynamic3app17h8ff575c5d967ff0cE+0xdc>
   144ea:	4501                	li	a0,0
   144ec:	c2be                	sw	a5,68(sp)
   144ee:	c4b2                	sw	a2,72(sp)
   144f0:	04c10623          	sb	a2,76(sp)
   144f4:	e90d                	bnez	a0,14526 <_ZN20complex_full_dynamic3app17h8ff575c5d967ff0cE+0xdc>
   144f6:	6509                	lui	a0,0x2
   144f8:	4595                	li	a1,5
   144fa:	460d                	li	a2,3
   144fc:	04850513          	addi	a0,a0,72 # 2048 <.Lline_table_start1+0x1e1d>
   14500:	4709                	li	a4,2
   14502:	07f00793          	li	a5,127
   14506:	4681                	li	a3,0
   14508:	00000073          	ecall
   1450c:	00a7fd63          	bgeu	a5,a0,14526 <_ZN20complex_full_dynamic3app17h8ff575c5d967ff0cE+0xdc>
   14510:	0068                	addi	a0,sp,12
   14512:	00008097          	auipc	ra,0x8
   14516:	57e080e7          	jalr	1406(ra) # 1ca90 <_ZN9allow_pin12full_dynamic17unshare_if_shared17h4e6b4433fd7c2282E>
   1451a:	00c8                	addi	a0,sp,68
   1451c:	00008097          	auipc	ra,0x8
   14520:	574080e7          	jalr	1396(ra) # 1ca90 <_ZN9allow_pin12full_dynamic17unshare_if_shared17h4e6b4433fd7c2282E>
   14524:	4481                	li	s1,0
   14526:	c489                	beqz	s1,14530 <_ZN20complex_full_dynamic3app17h8ff575c5d967ff0cE+0xe6>
   14528:	00b9a223          	sw	a1,4(s3)
   1452c:	4505                	li	a0,1
   1452e:	a839                	j	1454c <_ZN20complex_full_dynamic3app17h8ff575c5d967ff0cE+0x102>
   14530:	00c8                	addi	a0,sp,68
   14532:	00008097          	auipc	ra,0x8
   14536:	55e080e7          	jalr	1374(ra) # 1ca90 <_ZN9allow_pin12full_dynamic17unshare_if_shared17h4e6b4433fd7c2282E>
   1453a:	00198513          	addi	a0,s3,1
   1453e:	4669                	li	a2,26
   14540:	85ca                	mv	a1,s2
   14542:	00008097          	auipc	ra,0x8
   14546:	5da080e7          	jalr	1498(ra) # 1cb1c <memcpy>
   1454a:	4501                	li	a0,0
   1454c:	00a98023          	sb	a0,0(s3)
   14550:	00c8                	addi	a0,sp,68
   14552:	00008097          	auipc	ra,0x8
   14556:	53e080e7          	jalr	1342(ra) # 1ca90 <_ZN9allow_pin12full_dynamic17unshare_if_shared17h4e6b4433fd7c2282E>
   1455a:	0068                	addi	a0,sp,12
   1455c:	00008097          	auipc	ra,0x8
   14560:	534080e7          	jalr	1332(ra) # 1ca90 <_ZN9allow_pin12full_dynamic17unshare_if_shared17h4e6b4433fd7c2282E>
   14564:	50f6                	lw	ra,124(sp)
   14566:	5466                	lw	s0,120(sp)
   14568:	54d6                	lw	s1,116(sp)
   1456a:	5946                	lw	s2,112(sp)
   1456c:	59b6                	lw	s3,108(sp)
   1456e:	6109                	addi	sp,sp,128
   14570:	8082                	ret

00014572 <_ZN20complex_full_dynamic3app17h93ce687b010a1315E>:
   14572:	7135                	addi	sp,sp,-160
   14574:	cf06                	sw	ra,156(sp)
   14576:	cd22                	sw	s0,152(sp)
   14578:	cb26                	sw	s1,148(sp)
   1457a:	c94a                	sw	s2,144(sp)
   1457c:	892a                	mv	s2,a0
   1457e:	4409                	li	s0,2
   14580:	00810a23          	sb	s0,20(sp)
   14584:	0824                	addi	s1,sp,24
   14586:	05000613          	li	a2,80
   1458a:	8526                	mv	a0,s1
   1458c:	00008097          	auipc	ra,0x8
   14590:	590080e7          	jalr	1424(ra) # 1cb1c <memcpy>
   14594:	8626                	mv	a2,s1
   14596:	08010723          	sb	zero,142(sp)
   1459a:	c102                	sw	zero,128(sp)
   1459c:	c302                	sw	zero,132(sp)
   1459e:	c502                	sw	zero,136(sp)
   145a0:	08011623          	sh	zero,140(sp)
   145a4:	06810823          	sb	s0,112(sp)
   145a8:	da82                	sw	zero,116(sp)
   145aa:	dc82                	sw	zero,120(sp)
   145ac:	de82                	sw	zero,124(sp)
   145ae:	3d900793          	li	a5,985
   145b2:	4485                	li	s1,1
   145b4:	4811                	li	a6,4
   145b6:	3d900513          	li	a0,985
   145ba:	4585                	li	a1,1
   145bc:	05000693          	li	a3,80
   145c0:	4711                	li	a4,4
   145c2:	00000073          	ecall
   145c6:	00850663          	beq	a0,s0,145d2 <_ZN20complex_full_dynamic3app17h93ce687b010a1315E+0x60>
   145ca:	c63e                	sw	a5,12(sp)
   145cc:	c826                	sw	s1,16(sp)
   145ce:	01010a23          	sb	a6,20(sp)
   145d2:	4609                	li	a2,2
   145d4:	18c4                	addi	s1,sp,116
   145d6:	00c51463          	bne	a0,a2,145de <_ZN20complex_full_dynamic3app17h93ce687b010a1315E+0x6c>
   145da:	4785                	li	a5,1
   145dc:	a88d                	j	1464e <_ZN20complex_full_dynamic3app17h93ce687b010a1315E+0xdc>
   145de:	07014503          	lbu	a0,112(sp)
   145e2:	4785                	li	a5,1
   145e4:	02c51363          	bne	a0,a2,1460a <_ZN20complex_full_dynamic3app17h93ce687b010a1315E+0x98>
   145e8:	8626                	mv	a2,s1
   145ea:	3d900813          	li	a6,985
   145ee:	4409                	li	s0,2
   145f0:	488d                	li	a7,3
   145f2:	3d900513          	li	a0,985
   145f6:	4589                	li	a1,2
   145f8:	46ed                	li	a3,27
   145fa:	470d                	li	a4,3
   145fc:	00000073          	ecall
   14600:	00851963          	bne	a0,s0,14612 <_ZN20complex_full_dynamic3app17h93ce687b010a1315E+0xa0>
   14604:	4505                	li	a0,1
   14606:	cd01                	beqz	a0,1461e <_ZN20complex_full_dynamic3app17h93ce687b010a1315E+0xac>
   14608:	a099                	j	1464e <_ZN20complex_full_dynamic3app17h93ce687b010a1315E+0xdc>
   1460a:	458d                	li	a1,3
   1460c:	4505                	li	a0,1
   1460e:	c901                	beqz	a0,1461e <_ZN20complex_full_dynamic3app17h93ce687b010a1315E+0xac>
   14610:	a83d                	j	1464e <_ZN20complex_full_dynamic3app17h93ce687b010a1315E+0xdc>
   14612:	4501                	li	a0,0
   14614:	d4c2                	sw	a6,104(sp)
   14616:	d6a2                	sw	s0,108(sp)
   14618:	07110823          	sb	a7,112(sp)
   1461c:	e90d                	bnez	a0,1464e <_ZN20complex_full_dynamic3app17h93ce687b010a1315E+0xdc>
   1461e:	4681                	li	a3,0
   14620:	3d900513          	li	a0,985
   14624:	4585                	li	a1,1
   14626:	4609                	li	a2,2
   14628:	4709                	li	a4,2
   1462a:	07f00413          	li	s0,127
   1462e:	00000073          	ecall
   14632:	4785                	li	a5,1
   14634:	00a47d63          	bgeu	s0,a0,1464e <_ZN20complex_full_dynamic3app17h93ce687b010a1315E+0xdc>
   14638:	0068                	addi	a0,sp,12
   1463a:	00008097          	auipc	ra,0x8
   1463e:	456080e7          	jalr	1110(ra) # 1ca90 <_ZN9allow_pin12full_dynamic17unshare_if_shared17h4e6b4433fd7c2282E>
   14642:	10a8                	addi	a0,sp,104
   14644:	00008097          	auipc	ra,0x8
   14648:	44c080e7          	jalr	1100(ra) # 1ca90 <_ZN9allow_pin12full_dynamic17unshare_if_shared17h4e6b4433fd7c2282E>
   1464c:	4781                	li	a5,0
   1464e:	c789                	beqz	a5,14658 <_ZN20complex_full_dynamic3app17h93ce687b010a1315E+0xe6>
   14650:	00b92223          	sw	a1,4(s2)
   14654:	4505                	li	a0,1
   14656:	a839                	j	14674 <_ZN20complex_full_dynamic3app17h93ce687b010a1315E+0x102>
   14658:	10a8                	addi	a0,sp,104
   1465a:	00008097          	auipc	ra,0x8
   1465e:	436080e7          	jalr	1078(ra) # 1ca90 <_ZN9allow_pin12full_dynamic17unshare_if_shared17h4e6b4433fd7c2282E>
   14662:	00190513          	addi	a0,s2,1
   14666:	466d                	li	a2,27
   14668:	85a6                	mv	a1,s1
   1466a:	00008097          	auipc	ra,0x8
   1466e:	4b2080e7          	jalr	1202(ra) # 1cb1c <memcpy>
   14672:	4501                	li	a0,0
   14674:	00a90023          	sb	a0,0(s2)
   14678:	10a8                	addi	a0,sp,104
   1467a:	00008097          	auipc	ra,0x8
   1467e:	416080e7          	jalr	1046(ra) # 1ca90 <_ZN9allow_pin12full_dynamic17unshare_if_shared17h4e6b4433fd7c2282E>
   14682:	0068                	addi	a0,sp,12
   14684:	00008097          	auipc	ra,0x8
   14688:	40c080e7          	jalr	1036(ra) # 1ca90 <_ZN9allow_pin12full_dynamic17unshare_if_shared17h4e6b4433fd7c2282E>
   1468c:	40fa                	lw	ra,156(sp)
   1468e:	446a                	lw	s0,152(sp)
   14690:	44da                	lw	s1,148(sp)
   14692:	494a                	lw	s2,144(sp)
   14694:	610d                	addi	sp,sp,160
   14696:	8082                	ret

00014698 <_ZN20complex_full_dynamic3app17h93e007f9c86c5a78E>:
   14698:	7135                	addi	sp,sp,-160
   1469a:	cf06                	sw	ra,156(sp)
   1469c:	cd22                	sw	s0,152(sp)
   1469e:	cb26                	sw	s1,148(sp)
   146a0:	c94a                	sw	s2,144(sp)
   146a2:	c74e                	sw	s3,140(sp)
   146a4:	89aa                	mv	s3,a0
   146a6:	4409                	li	s0,2
   146a8:	00810423          	sb	s0,8(sp)
   146ac:	0064                	addi	s1,sp,12
   146ae:	04000613          	li	a2,64
   146b2:	8526                	mv	a0,s1
   146b4:	00008097          	auipc	ra,0x8
   146b8:	468080e7          	jalr	1128(ra) # 1cb1c <memcpy>
   146bc:	05810913          	addi	s2,sp,88
   146c0:	03100613          	li	a2,49
   146c4:	854a                	mv	a0,s2
   146c6:	4581                	li	a1,0
   146c8:	00008097          	auipc	ra,0x8
   146cc:	3e8080e7          	jalr	1000(ra) # 1cab0 <memset>
   146d0:	8626                	mv	a2,s1
   146d2:	04810a23          	sb	s0,84(sp)
   146d6:	6505                	lui	a0,0x1
   146d8:	44a1                	li	s1,8
   146da:	4811                	li	a6,4
   146dc:	45a1                	li	a1,8
   146de:	fce50793          	addi	a5,a0,-50 # fce <.Lline_table_start1+0xda3>
   146e2:	04000693          	li	a3,64
   146e6:	4711                	li	a4,4
   146e8:	853e                	mv	a0,a5
   146ea:	00000073          	ecall
   146ee:	00850663          	beq	a0,s0,146fa <_ZN20complex_full_dynamic3app17h93e007f9c86c5a78E+0x62>
   146f2:	c03e                	sw	a5,0(sp)
   146f4:	c226                	sw	s1,4(sp)
   146f6:	01010423          	sb	a6,8(sp)
   146fa:	4609                	li	a2,2
   146fc:	00c51463          	bne	a0,a2,14704 <_ZN20complex_full_dynamic3app17h93e007f9c86c5a78E+0x6c>
   14700:	4485                	li	s1,1
   14702:	a89d                	j	14778 <_ZN20complex_full_dynamic3app17h93e007f9c86c5a78E+0xe0>
   14704:	05414503          	lbu	a0,84(sp)
   14708:	4485                	li	s1,1
   1470a:	02c51563          	bne	a0,a2,14734 <_ZN20complex_full_dynamic3app17h93e007f9c86c5a78E+0x9c>
   1470e:	864a                	mv	a2,s2
   14710:	6505                	lui	a0,0x1
   14712:	4815                	li	a6,5
   14714:	4595                	li	a1,5
   14716:	03100693          	li	a3,49
   1471a:	470d                	li	a4,3
   1471c:	fce50793          	addi	a5,a0,-50 # fce <.Lline_table_start1+0xda3>
   14720:	4409                	li	s0,2
   14722:	853e                	mv	a0,a5
   14724:	00000073          	ecall
   14728:	460d                	li	a2,3
   1472a:	00851963          	bne	a0,s0,1473c <_ZN20complex_full_dynamic3app17h93e007f9c86c5a78E+0xa4>
   1472e:	4505                	li	a0,1
   14730:	cd01                	beqz	a0,14748 <_ZN20complex_full_dynamic3app17h93e007f9c86c5a78E+0xb0>
   14732:	a099                	j	14778 <_ZN20complex_full_dynamic3app17h93e007f9c86c5a78E+0xe0>
   14734:	458d                	li	a1,3
   14736:	4505                	li	a0,1
   14738:	c901                	beqz	a0,14748 <_ZN20complex_full_dynamic3app17h93e007f9c86c5a78E+0xb0>
   1473a:	a83d                	j	14778 <_ZN20complex_full_dynamic3app17h93e007f9c86c5a78E+0xe0>
   1473c:	4501                	li	a0,0
   1473e:	c6be                	sw	a5,76(sp)
   14740:	c8c2                	sw	a6,80(sp)
   14742:	04c10a23          	sb	a2,84(sp)
   14746:	e90d                	bnez	a0,14778 <_ZN20complex_full_dynamic3app17h93e007f9c86c5a78E+0xe0>
   14748:	6505                	lui	a0,0x1
   1474a:	45a1                	li	a1,8
   1474c:	4615                	li	a2,5
   1474e:	fce50513          	addi	a0,a0,-50 # fce <.Lline_table_start1+0xda3>
   14752:	4709                	li	a4,2
   14754:	07f00793          	li	a5,127
   14758:	4681                	li	a3,0
   1475a:	00000073          	ecall
   1475e:	00a7fd63          	bgeu	a5,a0,14778 <_ZN20complex_full_dynamic3app17h93e007f9c86c5a78E+0xe0>
   14762:	850a                	mv	a0,sp
   14764:	00008097          	auipc	ra,0x8
   14768:	32c080e7          	jalr	812(ra) # 1ca90 <_ZN9allow_pin12full_dynamic17unshare_if_shared17h4e6b4433fd7c2282E>
   1476c:	00e8                	addi	a0,sp,76
   1476e:	00008097          	auipc	ra,0x8
   14772:	322080e7          	jalr	802(ra) # 1ca90 <_ZN9allow_pin12full_dynamic17unshare_if_shared17h4e6b4433fd7c2282E>
   14776:	4481                	li	s1,0
   14778:	c489                	beqz	s1,14782 <_ZN20complex_full_dynamic3app17h93e007f9c86c5a78E+0xea>
   1477a:	00b9a223          	sw	a1,4(s3)
   1477e:	4505                	li	a0,1
   14780:	a005                	j	147a0 <_ZN20complex_full_dynamic3app17h93e007f9c86c5a78E+0x108>
   14782:	00e8                	addi	a0,sp,76
   14784:	00008097          	auipc	ra,0x8
   14788:	30c080e7          	jalr	780(ra) # 1ca90 <_ZN9allow_pin12full_dynamic17unshare_if_shared17h4e6b4433fd7c2282E>
   1478c:	00198513          	addi	a0,s3,1
   14790:	03100613          	li	a2,49
   14794:	85ca                	mv	a1,s2
   14796:	00008097          	auipc	ra,0x8
   1479a:	386080e7          	jalr	902(ra) # 1cb1c <memcpy>
   1479e:	4501                	li	a0,0
   147a0:	00a98023          	sb	a0,0(s3)
   147a4:	00e8                	addi	a0,sp,76
   147a6:	00008097          	auipc	ra,0x8
   147aa:	2ea080e7          	jalr	746(ra) # 1ca90 <_ZN9allow_pin12full_dynamic17unshare_if_shared17h4e6b4433fd7c2282E>
   147ae:	850a                	mv	a0,sp
   147b0:	00008097          	auipc	ra,0x8
   147b4:	2e0080e7          	jalr	736(ra) # 1ca90 <_ZN9allow_pin12full_dynamic17unshare_if_shared17h4e6b4433fd7c2282E>
   147b8:	40fa                	lw	ra,156(sp)
   147ba:	446a                	lw	s0,152(sp)
   147bc:	44da                	lw	s1,148(sp)
   147be:	494a                	lw	s2,144(sp)
   147c0:	49ba                	lw	s3,140(sp)
   147c2:	610d                	addi	sp,sp,160
   147c4:	8082                	ret

000147c6 <_ZN20complex_full_dynamic3app17h95f14693b16c1460E>:
   147c6:	7131                	addi	sp,sp,-192
   147c8:	df06                	sw	ra,188(sp)
   147ca:	dd22                	sw	s0,184(sp)
   147cc:	db26                	sw	s1,180(sp)
   147ce:	d94a                	sw	s2,176(sp)
   147d0:	d74e                	sw	s3,172(sp)
   147d2:	89aa                	mv	s3,a0
   147d4:	4409                	li	s0,2
   147d6:	00810a23          	sb	s0,20(sp)
   147da:	0824                	addi	s1,sp,24
   147dc:	04f00613          	li	a2,79
   147e0:	8526                	mv	a0,s1
   147e2:	00008097          	auipc	ra,0x8
   147e6:	33a080e7          	jalr	826(ra) # 1cb1c <memcpy>
   147ea:	07410913          	addi	s2,sp,116
   147ee:	03500613          	li	a2,53
   147f2:	854a                	mv	a0,s2
   147f4:	4581                	li	a1,0
   147f6:	00008097          	auipc	ra,0x8
   147fa:	2ba080e7          	jalr	698(ra) # 1cab0 <memset>
   147fe:	8626                	mv	a2,s1
   14800:	06810823          	sb	s0,112(sp)
   14804:	6505                	lui	a0,0x1
   14806:	449d                	li	s1,7
   14808:	4811                	li	a6,4
   1480a:	459d                	li	a1,7
   1480c:	6d750793          	addi	a5,a0,1751 # 16d7 <.Lline_table_start1+0x14ac>
   14810:	04f00693          	li	a3,79
   14814:	4711                	li	a4,4
   14816:	853e                	mv	a0,a5
   14818:	00000073          	ecall
   1481c:	00850663          	beq	a0,s0,14828 <_ZN20complex_full_dynamic3app17h95f14693b16c1460E+0x62>
   14820:	c63e                	sw	a5,12(sp)
   14822:	c826                	sw	s1,16(sp)
   14824:	01010a23          	sb	a6,20(sp)
   14828:	4609                	li	a2,2
   1482a:	00c51463          	bne	a0,a2,14832 <_ZN20complex_full_dynamic3app17h95f14693b16c1460E+0x6c>
   1482e:	4485                	li	s1,1
   14830:	a885                	j	148a0 <_ZN20complex_full_dynamic3app17h95f14693b16c1460E+0xda>
   14832:	07014503          	lbu	a0,112(sp)
   14836:	4485                	li	s1,1
   14838:	02c51863          	bne	a0,a2,14868 <_ZN20complex_full_dynamic3app17h95f14693b16c1460E+0xa2>
   1483c:	864a                	mv	a2,s2
   1483e:	6505                	lui	a0,0x1
   14840:	4405                	li	s0,1
   14842:	4585                	li	a1,1
   14844:	03500693          	li	a3,53
   14848:	470d                	li	a4,3
   1484a:	6d750793          	addi	a5,a0,1751 # 16d7 <.Lline_table_start1+0x14ac>
   1484e:	4809                	li	a6,2
   14850:	853e                	mv	a0,a5
   14852:	00000073          	ecall
   14856:	460d                	li	a2,3
   14858:	01050a63          	beq	a0,a6,1486c <_ZN20complex_full_dynamic3app17h95f14693b16c1460E+0xa6>
   1485c:	d4be                	sw	a5,104(sp)
   1485e:	d6a2                	sw	s0,108(sp)
   14860:	06c10823          	sb	a2,112(sp)
   14864:	4401                	li	s0,0
   14866:	a019                	j	1486c <_ZN20complex_full_dynamic3app17h95f14693b16c1460E+0xa6>
   14868:	458d                	li	a1,3
   1486a:	4405                	li	s0,1
   1486c:	e815                	bnez	s0,148a0 <_ZN20complex_full_dynamic3app17h95f14693b16c1460E+0xda>
   1486e:	4681                	li	a3,0
   14870:	6505                	lui	a0,0x1
   14872:	459d                	li	a1,7
   14874:	4605                	li	a2,1
   14876:	4709                	li	a4,2
   14878:	6d750513          	addi	a0,a0,1751 # 16d7 <.Lline_table_start1+0x14ac>
   1487c:	07f00793          	li	a5,127
   14880:	00000073          	ecall
   14884:	4485                	li	s1,1
   14886:	00a7fd63          	bgeu	a5,a0,148a0 <_ZN20complex_full_dynamic3app17h95f14693b16c1460E+0xda>
   1488a:	0068                	addi	a0,sp,12
   1488c:	00008097          	auipc	ra,0x8
   14890:	204080e7          	jalr	516(ra) # 1ca90 <_ZN9allow_pin12full_dynamic17unshare_if_shared17h4e6b4433fd7c2282E>
   14894:	10a8                	addi	a0,sp,104
   14896:	00008097          	auipc	ra,0x8
   1489a:	1fa080e7          	jalr	506(ra) # 1ca90 <_ZN9allow_pin12full_dynamic17unshare_if_shared17h4e6b4433fd7c2282E>
   1489e:	4481                	li	s1,0
   148a0:	c489                	beqz	s1,148aa <_ZN20complex_full_dynamic3app17h95f14693b16c1460E+0xe4>
   148a2:	00b9a223          	sw	a1,4(s3)
   148a6:	4505                	li	a0,1
   148a8:	a005                	j	148c8 <_ZN20complex_full_dynamic3app17h95f14693b16c1460E+0x102>
   148aa:	10a8                	addi	a0,sp,104
   148ac:	00008097          	auipc	ra,0x8
   148b0:	1e4080e7          	jalr	484(ra) # 1ca90 <_ZN9allow_pin12full_dynamic17unshare_if_shared17h4e6b4433fd7c2282E>
   148b4:	00198513          	addi	a0,s3,1
   148b8:	03500613          	li	a2,53
   148bc:	85ca                	mv	a1,s2
   148be:	00008097          	auipc	ra,0x8
   148c2:	25e080e7          	jalr	606(ra) # 1cb1c <memcpy>
   148c6:	4501                	li	a0,0
   148c8:	00a98023          	sb	a0,0(s3)
   148cc:	10a8                	addi	a0,sp,104
   148ce:	00008097          	auipc	ra,0x8
   148d2:	1c2080e7          	jalr	450(ra) # 1ca90 <_ZN9allow_pin12full_dynamic17unshare_if_shared17h4e6b4433fd7c2282E>
   148d6:	0068                	addi	a0,sp,12
   148d8:	00008097          	auipc	ra,0x8
   148dc:	1b8080e7          	jalr	440(ra) # 1ca90 <_ZN9allow_pin12full_dynamic17unshare_if_shared17h4e6b4433fd7c2282E>
   148e0:	50fa                	lw	ra,188(sp)
   148e2:	546a                	lw	s0,184(sp)
   148e4:	54da                	lw	s1,180(sp)
   148e6:	594a                	lw	s2,176(sp)
   148e8:	59ba                	lw	s3,172(sp)
   148ea:	6129                	addi	sp,sp,192
   148ec:	8082                	ret

000148ee <_ZN20complex_full_dynamic3app17h980c5c47a8b2e097E>:
   148ee:	7135                	addi	sp,sp,-160
   148f0:	cf06                	sw	ra,156(sp)
   148f2:	cd22                	sw	s0,152(sp)
   148f4:	cb26                	sw	s1,148(sp)
   148f6:	c94a                	sw	s2,144(sp)
   148f8:	c74e                	sw	s3,140(sp)
   148fa:	89aa                	mv	s3,a0
   148fc:	4409                	li	s0,2
   148fe:	00810a23          	sb	s0,20(sp)
   14902:	0824                	addi	s1,sp,24
   14904:	03200613          	li	a2,50
   14908:	8526                	mv	a0,s1
   1490a:	00008097          	auipc	ra,0x8
   1490e:	212080e7          	jalr	530(ra) # 1cb1c <memcpy>
   14912:	05810913          	addi	s2,sp,88
   14916:	03200613          	li	a2,50
   1491a:	854a                	mv	a0,s2
   1491c:	4581                	li	a1,0
   1491e:	00008097          	auipc	ra,0x8
   14922:	192080e7          	jalr	402(ra) # 1cab0 <memset>
   14926:	8626                	mv	a2,s1
   14928:	04810a23          	sb	s0,84(sp)
   1492c:	6509                	lui	a0,0x2
   1492e:	448d                	li	s1,3
   14930:	4811                	li	a6,4
   14932:	458d                	li	a1,3
   14934:	f0750793          	addi	a5,a0,-249 # 1f07 <.Lline_table_start1+0x1cdc>
   14938:	03200693          	li	a3,50
   1493c:	4711                	li	a4,4
   1493e:	853e                	mv	a0,a5
   14940:	00000073          	ecall
   14944:	00850663          	beq	a0,s0,14950 <_ZN20complex_full_dynamic3app17h980c5c47a8b2e097E+0x62>
   14948:	c63e                	sw	a5,12(sp)
   1494a:	c826                	sw	s1,16(sp)
   1494c:	01010a23          	sb	a6,20(sp)
   14950:	4609                	li	a2,2
   14952:	00c51463          	bne	a0,a2,1495a <_ZN20complex_full_dynamic3app17h980c5c47a8b2e097E+0x6c>
   14956:	4485                	li	s1,1
   14958:	a885                	j	149c8 <_ZN20complex_full_dynamic3app17h980c5c47a8b2e097E+0xda>
   1495a:	05414503          	lbu	a0,84(sp)
   1495e:	4485                	li	s1,1
   14960:	02c51863          	bne	a0,a2,14990 <_ZN20complex_full_dynamic3app17h980c5c47a8b2e097E+0xa2>
   14964:	864a                	mv	a2,s2
   14966:	6509                	lui	a0,0x2
   14968:	4405                	li	s0,1
   1496a:	4585                	li	a1,1
   1496c:	03200693          	li	a3,50
   14970:	470d                	li	a4,3
   14972:	f0750793          	addi	a5,a0,-249 # 1f07 <.Lline_table_start1+0x1cdc>
   14976:	4809                	li	a6,2
   14978:	853e                	mv	a0,a5
   1497a:	00000073          	ecall
   1497e:	460d                	li	a2,3
   14980:	01050a63          	beq	a0,a6,14994 <_ZN20complex_full_dynamic3app17h980c5c47a8b2e097E+0xa6>
   14984:	c6be                	sw	a5,76(sp)
   14986:	c8a2                	sw	s0,80(sp)
   14988:	04c10a23          	sb	a2,84(sp)
   1498c:	4401                	li	s0,0
   1498e:	a019                	j	14994 <_ZN20complex_full_dynamic3app17h980c5c47a8b2e097E+0xa6>
   14990:	458d                	li	a1,3
   14992:	4405                	li	s0,1
   14994:	e815                	bnez	s0,149c8 <_ZN20complex_full_dynamic3app17h980c5c47a8b2e097E+0xda>
   14996:	4681                	li	a3,0
   14998:	6509                	lui	a0,0x2
   1499a:	458d                	li	a1,3
   1499c:	4605                	li	a2,1
   1499e:	4709                	li	a4,2
   149a0:	f0750513          	addi	a0,a0,-249 # 1f07 <.Lline_table_start1+0x1cdc>
   149a4:	07f00793          	li	a5,127
   149a8:	00000073          	ecall
   149ac:	4485                	li	s1,1
   149ae:	00a7fd63          	bgeu	a5,a0,149c8 <_ZN20complex_full_dynamic3app17h980c5c47a8b2e097E+0xda>
   149b2:	0068                	addi	a0,sp,12
   149b4:	00008097          	auipc	ra,0x8
   149b8:	0dc080e7          	jalr	220(ra) # 1ca90 <_ZN9allow_pin12full_dynamic17unshare_if_shared17h4e6b4433fd7c2282E>
   149bc:	00e8                	addi	a0,sp,76
   149be:	00008097          	auipc	ra,0x8
   149c2:	0d2080e7          	jalr	210(ra) # 1ca90 <_ZN9allow_pin12full_dynamic17unshare_if_shared17h4e6b4433fd7c2282E>
   149c6:	4481                	li	s1,0
   149c8:	c489                	beqz	s1,149d2 <_ZN20complex_full_dynamic3app17h980c5c47a8b2e097E+0xe4>
   149ca:	00b9a223          	sw	a1,4(s3)
   149ce:	4505                	li	a0,1
   149d0:	a005                	j	149f0 <_ZN20complex_full_dynamic3app17h980c5c47a8b2e097E+0x102>
   149d2:	00e8                	addi	a0,sp,76
   149d4:	00008097          	auipc	ra,0x8
   149d8:	0bc080e7          	jalr	188(ra) # 1ca90 <_ZN9allow_pin12full_dynamic17unshare_if_shared17h4e6b4433fd7c2282E>
   149dc:	00198513          	addi	a0,s3,1
   149e0:	03200613          	li	a2,50
   149e4:	85ca                	mv	a1,s2
   149e6:	00008097          	auipc	ra,0x8
   149ea:	136080e7          	jalr	310(ra) # 1cb1c <memcpy>
   149ee:	4501                	li	a0,0
   149f0:	00a98023          	sb	a0,0(s3)
   149f4:	00e8                	addi	a0,sp,76
   149f6:	00008097          	auipc	ra,0x8
   149fa:	09a080e7          	jalr	154(ra) # 1ca90 <_ZN9allow_pin12full_dynamic17unshare_if_shared17h4e6b4433fd7c2282E>
   149fe:	0068                	addi	a0,sp,12
   14a00:	00008097          	auipc	ra,0x8
   14a04:	090080e7          	jalr	144(ra) # 1ca90 <_ZN9allow_pin12full_dynamic17unshare_if_shared17h4e6b4433fd7c2282E>
   14a08:	40fa                	lw	ra,156(sp)
   14a0a:	446a                	lw	s0,152(sp)
   14a0c:	44da                	lw	s1,148(sp)
   14a0e:	494a                	lw	s2,144(sp)
   14a10:	49ba                	lw	s3,140(sp)
   14a12:	610d                	addi	sp,sp,160
   14a14:	8082                	ret

00014a16 <_ZN20complex_full_dynamic3app17h99615651dd43a247E>:
   14a16:	7119                	addi	sp,sp,-128
   14a18:	de86                	sw	ra,124(sp)
   14a1a:	dca2                	sw	s0,120(sp)
   14a1c:	daa6                	sw	s1,116(sp)
   14a1e:	d8ca                	sw	s2,112(sp)
   14a20:	d6ce                	sw	s3,108(sp)
   14a22:	89aa                	mv	s3,a0
   14a24:	4409                	li	s0,2
   14a26:	00810623          	sb	s0,12(sp)
   14a2a:	0804                	addi	s1,sp,16
   14a2c:	02300613          	li	a2,35
   14a30:	8526                	mv	a0,s1
   14a32:	00008097          	auipc	ra,0x8
   14a36:	0ea080e7          	jalr	234(ra) # 1cb1c <memcpy>
   14a3a:	04010913          	addi	s2,sp,64
   14a3e:	02b00613          	li	a2,43
   14a42:	854a                	mv	a0,s2
   14a44:	4581                	li	a1,0
   14a46:	00008097          	auipc	ra,0x8
   14a4a:	06a080e7          	jalr	106(ra) # 1cab0 <memset>
   14a4e:	8626                	mv	a2,s1
   14a50:	02810e23          	sb	s0,60(sp)
   14a54:	6505                	lui	a0,0x1
   14a56:	4491                	li	s1,4
   14a58:	4589                	li	a1,2
   14a5a:	d5d50793          	addi	a5,a0,-675 # d5d <.Lline_table_start1+0xb32>
   14a5e:	02300693          	li	a3,35
   14a62:	4711                	li	a4,4
   14a64:	853e                	mv	a0,a5
   14a66:	00000073          	ecall
   14a6a:	00850663          	beq	a0,s0,14a76 <_ZN20complex_full_dynamic3app17h99615651dd43a247E+0x60>
   14a6e:	c23e                	sw	a5,4(sp)
   14a70:	c422                	sw	s0,8(sp)
   14a72:	00910623          	sb	s1,12(sp)
   14a76:	4609                	li	a2,2
   14a78:	00c51463          	bne	a0,a2,14a80 <_ZN20complex_full_dynamic3app17h99615651dd43a247E+0x6a>
   14a7c:	4485                	li	s1,1
   14a7e:	a895                	j	14af2 <_ZN20complex_full_dynamic3app17h99615651dd43a247E+0xdc>
   14a80:	03c14503          	lbu	a0,60(sp)
   14a84:	4485                	li	s1,1
   14a86:	02c51463          	bne	a0,a2,14aae <_ZN20complex_full_dynamic3app17h99615651dd43a247E+0x98>
   14a8a:	4581                	li	a1,0
   14a8c:	864a                	mv	a2,s2
   14a8e:	6505                	lui	a0,0x1
   14a90:	02b00693          	li	a3,43
   14a94:	470d                	li	a4,3
   14a96:	d5d50793          	addi	a5,a0,-675 # d5d <.Lline_table_start1+0xb32>
   14a9a:	4409                	li	s0,2
   14a9c:	853e                	mv	a0,a5
   14a9e:	00000073          	ecall
   14aa2:	460d                	li	a2,3
   14aa4:	00851963          	bne	a0,s0,14ab6 <_ZN20complex_full_dynamic3app17h99615651dd43a247E+0xa0>
   14aa8:	4505                	li	a0,1
   14aaa:	cd01                	beqz	a0,14ac2 <_ZN20complex_full_dynamic3app17h99615651dd43a247E+0xac>
   14aac:	a099                	j	14af2 <_ZN20complex_full_dynamic3app17h99615651dd43a247E+0xdc>
   14aae:	458d                	li	a1,3
   14ab0:	4505                	li	a0,1
   14ab2:	c901                	beqz	a0,14ac2 <_ZN20complex_full_dynamic3app17h99615651dd43a247E+0xac>
   14ab4:	a83d                	j	14af2 <_ZN20complex_full_dynamic3app17h99615651dd43a247E+0xdc>
   14ab6:	4501                	li	a0,0
   14ab8:	da3e                	sw	a5,52(sp)
   14aba:	dc02                	sw	zero,56(sp)
   14abc:	02c10e23          	sb	a2,60(sp)
   14ac0:	e90d                	bnez	a0,14af2 <_ZN20complex_full_dynamic3app17h99615651dd43a247E+0xdc>
   14ac2:	6505                	lui	a0,0x1
   14ac4:	4589                	li	a1,2
   14ac6:	d5d50513          	addi	a0,a0,-675 # d5d <.Lline_table_start1+0xb32>
   14aca:	4709                	li	a4,2
   14acc:	07f00793          	li	a5,127
   14ad0:	4601                	li	a2,0
   14ad2:	4681                	li	a3,0
   14ad4:	00000073          	ecall
   14ad8:	00a7fd63          	bgeu	a5,a0,14af2 <_ZN20complex_full_dynamic3app17h99615651dd43a247E+0xdc>
   14adc:	0048                	addi	a0,sp,4
   14ade:	00008097          	auipc	ra,0x8
   14ae2:	fb2080e7          	jalr	-78(ra) # 1ca90 <_ZN9allow_pin12full_dynamic17unshare_if_shared17h4e6b4433fd7c2282E>
   14ae6:	1848                	addi	a0,sp,52
   14ae8:	00008097          	auipc	ra,0x8
   14aec:	fa8080e7          	jalr	-88(ra) # 1ca90 <_ZN9allow_pin12full_dynamic17unshare_if_shared17h4e6b4433fd7c2282E>
   14af0:	4481                	li	s1,0
   14af2:	c489                	beqz	s1,14afc <_ZN20complex_full_dynamic3app17h99615651dd43a247E+0xe6>
   14af4:	00b9a223          	sw	a1,4(s3)
   14af8:	4505                	li	a0,1
   14afa:	a005                	j	14b1a <_ZN20complex_full_dynamic3app17h99615651dd43a247E+0x104>
   14afc:	1848                	addi	a0,sp,52
   14afe:	00008097          	auipc	ra,0x8
   14b02:	f92080e7          	jalr	-110(ra) # 1ca90 <_ZN9allow_pin12full_dynamic17unshare_if_shared17h4e6b4433fd7c2282E>
   14b06:	00198513          	addi	a0,s3,1
   14b0a:	02b00613          	li	a2,43
   14b0e:	85ca                	mv	a1,s2
   14b10:	00008097          	auipc	ra,0x8
   14b14:	00c080e7          	jalr	12(ra) # 1cb1c <memcpy>
   14b18:	4501                	li	a0,0
   14b1a:	00a98023          	sb	a0,0(s3)
   14b1e:	1848                	addi	a0,sp,52
   14b20:	00008097          	auipc	ra,0x8
   14b24:	f70080e7          	jalr	-144(ra) # 1ca90 <_ZN9allow_pin12full_dynamic17unshare_if_shared17h4e6b4433fd7c2282E>
   14b28:	0048                	addi	a0,sp,4
   14b2a:	00008097          	auipc	ra,0x8
   14b2e:	f66080e7          	jalr	-154(ra) # 1ca90 <_ZN9allow_pin12full_dynamic17unshare_if_shared17h4e6b4433fd7c2282E>
   14b32:	50f6                	lw	ra,124(sp)
   14b34:	5466                	lw	s0,120(sp)
   14b36:	54d6                	lw	s1,116(sp)
   14b38:	5946                	lw	s2,112(sp)
   14b3a:	59b6                	lw	s3,108(sp)
   14b3c:	6109                	addi	sp,sp,128
   14b3e:	8082                	ret

00014b40 <_ZN20complex_full_dynamic3app17h99bb85842f581eb5E>:
   14b40:	7131                	addi	sp,sp,-192
   14b42:	df06                	sw	ra,188(sp)
   14b44:	dd22                	sw	s0,184(sp)
   14b46:	db26                	sw	s1,180(sp)
   14b48:	d94a                	sw	s2,176(sp)
   14b4a:	d74e                	sw	s3,172(sp)
   14b4c:	89aa                	mv	s3,a0
   14b4e:	4409                	li	s0,2
   14b50:	00810823          	sb	s0,16(sp)
   14b54:	0844                	addi	s1,sp,20
   14b56:	04d00613          	li	a2,77
   14b5a:	8526                	mv	a0,s1
   14b5c:	00008097          	auipc	ra,0x8
   14b60:	fc0080e7          	jalr	-64(ra) # 1cb1c <memcpy>
   14b64:	07010913          	addi	s2,sp,112
   14b68:	03c00613          	li	a2,60
   14b6c:	854a                	mv	a0,s2
   14b6e:	4581                	li	a1,0
   14b70:	00008097          	auipc	ra,0x8
   14b74:	f40080e7          	jalr	-192(ra) # 1cab0 <memset>
   14b78:	8626                	mv	a2,s1
   14b7a:	06810623          	sb	s0,108(sp)
   14b7e:	6509                	lui	a0,0x2
   14b80:	4491                	li	s1,4
   14b82:	4591                	li	a1,4
   14b84:	1ab50793          	addi	a5,a0,427 # 21ab <.Lline_table_start1+0x1f80>
   14b88:	04d00693          	li	a3,77
   14b8c:	4711                	li	a4,4
   14b8e:	853e                	mv	a0,a5
   14b90:	00000073          	ecall
   14b94:	00850663          	beq	a0,s0,14ba0 <_ZN20complex_full_dynamic3app17h99bb85842f581eb5E+0x60>
   14b98:	c43e                	sw	a5,8(sp)
   14b9a:	c626                	sw	s1,12(sp)
   14b9c:	00910823          	sb	s1,16(sp)
   14ba0:	4609                	li	a2,2
   14ba2:	00c51463          	bne	a0,a2,14baa <_ZN20complex_full_dynamic3app17h99bb85842f581eb5E+0x6a>
   14ba6:	4485                	li	s1,1
   14ba8:	a89d                	j	14c1e <_ZN20complex_full_dynamic3app17h99bb85842f581eb5E+0xde>
   14baa:	06c14503          	lbu	a0,108(sp)
   14bae:	4485                	li	s1,1
   14bb0:	02c51563          	bne	a0,a2,14bda <_ZN20complex_full_dynamic3app17h99bb85842f581eb5E+0x9a>
   14bb4:	864a                	mv	a2,s2
   14bb6:	6509                	lui	a0,0x2
   14bb8:	4825                	li	a6,9
   14bba:	45a5                	li	a1,9
   14bbc:	03c00693          	li	a3,60
   14bc0:	470d                	li	a4,3
   14bc2:	1ab50793          	addi	a5,a0,427 # 21ab <.Lline_table_start1+0x1f80>
   14bc6:	4409                	li	s0,2
   14bc8:	853e                	mv	a0,a5
   14bca:	00000073          	ecall
   14bce:	460d                	li	a2,3
   14bd0:	00851963          	bne	a0,s0,14be2 <_ZN20complex_full_dynamic3app17h99bb85842f581eb5E+0xa2>
   14bd4:	4505                	li	a0,1
   14bd6:	cd01                	beqz	a0,14bee <_ZN20complex_full_dynamic3app17h99bb85842f581eb5E+0xae>
   14bd8:	a099                	j	14c1e <_ZN20complex_full_dynamic3app17h99bb85842f581eb5E+0xde>
   14bda:	458d                	li	a1,3
   14bdc:	4505                	li	a0,1
   14bde:	c901                	beqz	a0,14bee <_ZN20complex_full_dynamic3app17h99bb85842f581eb5E+0xae>
   14be0:	a83d                	j	14c1e <_ZN20complex_full_dynamic3app17h99bb85842f581eb5E+0xde>
   14be2:	4501                	li	a0,0
   14be4:	d2be                	sw	a5,100(sp)
   14be6:	d4c2                	sw	a6,104(sp)
   14be8:	06c10623          	sb	a2,108(sp)
   14bec:	e90d                	bnez	a0,14c1e <_ZN20complex_full_dynamic3app17h99bb85842f581eb5E+0xde>
   14bee:	6509                	lui	a0,0x2
   14bf0:	4591                	li	a1,4
   14bf2:	4625                	li	a2,9
   14bf4:	1ab50513          	addi	a0,a0,427 # 21ab <.Lline_table_start1+0x1f80>
   14bf8:	4709                	li	a4,2
   14bfa:	07f00793          	li	a5,127
   14bfe:	4681                	li	a3,0
   14c00:	00000073          	ecall
   14c04:	00a7fd63          	bgeu	a5,a0,14c1e <_ZN20complex_full_dynamic3app17h99bb85842f581eb5E+0xde>
   14c08:	0028                	addi	a0,sp,8
   14c0a:	00008097          	auipc	ra,0x8
   14c0e:	e86080e7          	jalr	-378(ra) # 1ca90 <_ZN9allow_pin12full_dynamic17unshare_if_shared17h4e6b4433fd7c2282E>
   14c12:	10c8                	addi	a0,sp,100
   14c14:	00008097          	auipc	ra,0x8
   14c18:	e7c080e7          	jalr	-388(ra) # 1ca90 <_ZN9allow_pin12full_dynamic17unshare_if_shared17h4e6b4433fd7c2282E>
   14c1c:	4481                	li	s1,0
   14c1e:	c489                	beqz	s1,14c28 <_ZN20complex_full_dynamic3app17h99bb85842f581eb5E+0xe8>
   14c20:	00b9a223          	sw	a1,4(s3)
   14c24:	4505                	li	a0,1
   14c26:	a005                	j	14c46 <_ZN20complex_full_dynamic3app17h99bb85842f581eb5E+0x106>
   14c28:	10c8                	addi	a0,sp,100
   14c2a:	00008097          	auipc	ra,0x8
   14c2e:	e66080e7          	jalr	-410(ra) # 1ca90 <_ZN9allow_pin12full_dynamic17unshare_if_shared17h4e6b4433fd7c2282E>
   14c32:	00198513          	addi	a0,s3,1
   14c36:	03c00613          	li	a2,60
   14c3a:	85ca                	mv	a1,s2
   14c3c:	00008097          	auipc	ra,0x8
   14c40:	ee0080e7          	jalr	-288(ra) # 1cb1c <memcpy>
   14c44:	4501                	li	a0,0
   14c46:	00a98023          	sb	a0,0(s3)
   14c4a:	10c8                	addi	a0,sp,100
   14c4c:	00008097          	auipc	ra,0x8
   14c50:	e44080e7          	jalr	-444(ra) # 1ca90 <_ZN9allow_pin12full_dynamic17unshare_if_shared17h4e6b4433fd7c2282E>
   14c54:	0028                	addi	a0,sp,8
   14c56:	00008097          	auipc	ra,0x8
   14c5a:	e3a080e7          	jalr	-454(ra) # 1ca90 <_ZN9allow_pin12full_dynamic17unshare_if_shared17h4e6b4433fd7c2282E>
   14c5e:	50fa                	lw	ra,188(sp)
   14c60:	546a                	lw	s0,184(sp)
   14c62:	54da                	lw	s1,180(sp)
   14c64:	594a                	lw	s2,176(sp)
   14c66:	59ba                	lw	s3,172(sp)
   14c68:	6129                	addi	sp,sp,192
   14c6a:	8082                	ret

00014c6c <_ZN20complex_full_dynamic3app17h9af4a23827827e31E>:
   14c6c:	7119                	addi	sp,sp,-128
   14c6e:	de86                	sw	ra,124(sp)
   14c70:	dca2                	sw	s0,120(sp)
   14c72:	daa6                	sw	s1,116(sp)
   14c74:	d8ca                	sw	s2,112(sp)
   14c76:	d6ce                	sw	s3,108(sp)
   14c78:	89aa                	mv	s3,a0
   14c7a:	4409                	li	s0,2
   14c7c:	00810a23          	sb	s0,20(sp)
   14c80:	0824                	addi	s1,sp,24
   14c82:	4641                	li	a2,16
   14c84:	8526                	mv	a0,s1
   14c86:	00008097          	auipc	ra,0x8
   14c8a:	e96080e7          	jalr	-362(ra) # 1cb1c <memcpy>
   14c8e:	03410913          	addi	s2,sp,52
   14c92:	03600613          	li	a2,54
   14c96:	854a                	mv	a0,s2
   14c98:	4581                	li	a1,0
   14c9a:	00008097          	auipc	ra,0x8
   14c9e:	e16080e7          	jalr	-490(ra) # 1cab0 <memset>
   14ca2:	8626                	mv	a2,s1
   14ca4:	02810823          	sb	s0,48(sp)
   14ca8:	6509                	lui	a0,0x2
   14caa:	4485                	li	s1,1
   14cac:	4811                	li	a6,4
   14cae:	4585                	li	a1,1
   14cb0:	98950793          	addi	a5,a0,-1655 # 1989 <.Lline_table_start1+0x175e>
   14cb4:	46c1                	li	a3,16
   14cb6:	4711                	li	a4,4
   14cb8:	853e                	mv	a0,a5
   14cba:	00000073          	ecall
   14cbe:	00850663          	beq	a0,s0,14cca <_ZN20complex_full_dynamic3app17h9af4a23827827e31E+0x5e>
   14cc2:	c63e                	sw	a5,12(sp)
   14cc4:	c826                	sw	s1,16(sp)
   14cc6:	01010a23          	sb	a6,20(sp)
   14cca:	4609                	li	a2,2
   14ccc:	00c51463          	bne	a0,a2,14cd4 <_ZN20complex_full_dynamic3app17h9af4a23827827e31E+0x68>
   14cd0:	4485                	li	s1,1
   14cd2:	a8a5                	j	14d4a <_ZN20complex_full_dynamic3app17h9af4a23827827e31E+0xde>
   14cd4:	03014503          	lbu	a0,48(sp)
   14cd8:	4485                	li	s1,1
   14cda:	02c51563          	bne	a0,a2,14d04 <_ZN20complex_full_dynamic3app17h9af4a23827827e31E+0x98>
   14cde:	864a                	mv	a2,s2
   14ce0:	6509                	lui	a0,0x2
   14ce2:	481d                	li	a6,7
   14ce4:	459d                	li	a1,7
   14ce6:	03600693          	li	a3,54
   14cea:	470d                	li	a4,3
   14cec:	98950793          	addi	a5,a0,-1655 # 1989 <.Lline_table_start1+0x175e>
   14cf0:	4409                	li	s0,2
   14cf2:	853e                	mv	a0,a5
   14cf4:	00000073          	ecall
   14cf8:	460d                	li	a2,3
   14cfa:	00851963          	bne	a0,s0,14d0c <_ZN20complex_full_dynamic3app17h9af4a23827827e31E+0xa0>
   14cfe:	4505                	li	a0,1
   14d00:	cd01                	beqz	a0,14d18 <_ZN20complex_full_dynamic3app17h9af4a23827827e31E+0xac>
   14d02:	a0a1                	j	14d4a <_ZN20complex_full_dynamic3app17h9af4a23827827e31E+0xde>
   14d04:	458d                	li	a1,3
   14d06:	4505                	li	a0,1
   14d08:	c901                	beqz	a0,14d18 <_ZN20complex_full_dynamic3app17h9af4a23827827e31E+0xac>
   14d0a:	a081                	j	14d4a <_ZN20complex_full_dynamic3app17h9af4a23827827e31E+0xde>
   14d0c:	4501                	li	a0,0
   14d0e:	d43e                	sw	a5,40(sp)
   14d10:	d642                	sw	a6,44(sp)
   14d12:	02c10823          	sb	a2,48(sp)
   14d16:	e915                	bnez	a0,14d4a <_ZN20complex_full_dynamic3app17h9af4a23827827e31E+0xde>
   14d18:	4681                	li	a3,0
   14d1a:	6509                	lui	a0,0x2
   14d1c:	4585                	li	a1,1
   14d1e:	461d                	li	a2,7
   14d20:	4709                	li	a4,2
   14d22:	98950513          	addi	a0,a0,-1655 # 1989 <.Lline_table_start1+0x175e>
   14d26:	07f00793          	li	a5,127
   14d2a:	00000073          	ecall
   14d2e:	4485                	li	s1,1
   14d30:	00a7fd63          	bgeu	a5,a0,14d4a <_ZN20complex_full_dynamic3app17h9af4a23827827e31E+0xde>
   14d34:	0068                	addi	a0,sp,12
   14d36:	00008097          	auipc	ra,0x8
   14d3a:	d5a080e7          	jalr	-678(ra) # 1ca90 <_ZN9allow_pin12full_dynamic17unshare_if_shared17h4e6b4433fd7c2282E>
   14d3e:	1028                	addi	a0,sp,40
   14d40:	00008097          	auipc	ra,0x8
   14d44:	d50080e7          	jalr	-688(ra) # 1ca90 <_ZN9allow_pin12full_dynamic17unshare_if_shared17h4e6b4433fd7c2282E>
   14d48:	4481                	li	s1,0
   14d4a:	c489                	beqz	s1,14d54 <_ZN20complex_full_dynamic3app17h9af4a23827827e31E+0xe8>
   14d4c:	00b9a223          	sw	a1,4(s3)
   14d50:	4505                	li	a0,1
   14d52:	a005                	j	14d72 <_ZN20complex_full_dynamic3app17h9af4a23827827e31E+0x106>
   14d54:	1028                	addi	a0,sp,40
   14d56:	00008097          	auipc	ra,0x8
   14d5a:	d3a080e7          	jalr	-710(ra) # 1ca90 <_ZN9allow_pin12full_dynamic17unshare_if_shared17h4e6b4433fd7c2282E>
   14d5e:	00198513          	addi	a0,s3,1
   14d62:	03600613          	li	a2,54
   14d66:	85ca                	mv	a1,s2
   14d68:	00008097          	auipc	ra,0x8
   14d6c:	db4080e7          	jalr	-588(ra) # 1cb1c <memcpy>
   14d70:	4501                	li	a0,0
   14d72:	00a98023          	sb	a0,0(s3)
   14d76:	1028                	addi	a0,sp,40
   14d78:	00008097          	auipc	ra,0x8
   14d7c:	d18080e7          	jalr	-744(ra) # 1ca90 <_ZN9allow_pin12full_dynamic17unshare_if_shared17h4e6b4433fd7c2282E>
   14d80:	0068                	addi	a0,sp,12
   14d82:	00008097          	auipc	ra,0x8
   14d86:	d0e080e7          	jalr	-754(ra) # 1ca90 <_ZN9allow_pin12full_dynamic17unshare_if_shared17h4e6b4433fd7c2282E>
   14d8a:	50f6                	lw	ra,124(sp)
   14d8c:	5466                	lw	s0,120(sp)
   14d8e:	54d6                	lw	s1,116(sp)
   14d90:	5946                	lw	s2,112(sp)
   14d92:	59b6                	lw	s3,108(sp)
   14d94:	6109                	addi	sp,sp,128
   14d96:	8082                	ret

00014d98 <_ZN20complex_full_dynamic3app17h9d4d9fbd66299db6E>:
   14d98:	7159                	addi	sp,sp,-112
   14d9a:	d686                	sw	ra,108(sp)
   14d9c:	d4a2                	sw	s0,104(sp)
   14d9e:	d2a6                	sw	s1,100(sp)
   14da0:	d0ca                	sw	s2,96(sp)
   14da2:	cece                	sw	s3,92(sp)
   14da4:	89aa                	mv	s3,a0
   14da6:	4409                	li	s0,2
   14da8:	00810a23          	sb	s0,20(sp)
   14dac:	0824                	addi	s1,sp,24
   14dae:	4669                	li	a2,26
   14db0:	8526                	mv	a0,s1
   14db2:	00008097          	auipc	ra,0x8
   14db6:	d6a080e7          	jalr	-662(ra) # 1cb1c <memcpy>
   14dba:	8626                	mv	a2,s1
   14dbc:	04010d23          	sb	zero,90(sp)
   14dc0:	c682                	sw	zero,76(sp)
   14dc2:	c882                	sw	zero,80(sp)
   14dc4:	ca82                	sw	zero,84(sp)
   14dc6:	04011c23          	sh	zero,88(sp)
   14dca:	02810e23          	sb	s0,60(sp)
   14dce:	c082                	sw	zero,64(sp)
   14dd0:	c282                	sw	zero,68(sp)
   14dd2:	c482                	sw	zero,72(sp)
   14dd4:	6509                	lui	a0,0x2
   14dd6:	4495                	li	s1,5
   14dd8:	4811                	li	a6,4
   14dda:	4595                	li	a1,5
   14ddc:	cce50793          	addi	a5,a0,-818 # 1cce <.Lline_table_start1+0x1aa3>
   14de0:	46e9                	li	a3,26
   14de2:	4711                	li	a4,4
   14de4:	853e                	mv	a0,a5
   14de6:	00000073          	ecall
   14dea:	00850663          	beq	a0,s0,14df6 <_ZN20complex_full_dynamic3app17h9d4d9fbd66299db6E+0x5e>
   14dee:	c63e                	sw	a5,12(sp)
   14df0:	c826                	sw	s1,16(sp)
   14df2:	01010a23          	sb	a6,20(sp)
   14df6:	4609                	li	a2,2
   14df8:	04010913          	addi	s2,sp,64
   14dfc:	00c51463          	bne	a0,a2,14e04 <_ZN20complex_full_dynamic3app17h9d4d9fbd66299db6E+0x6c>
   14e00:	4485                	li	s1,1
   14e02:	a88d                	j	14e74 <_ZN20complex_full_dynamic3app17h9d4d9fbd66299db6E+0xdc>
   14e04:	03c14503          	lbu	a0,60(sp)
   14e08:	4485                	li	s1,1
   14e0a:	02c51363          	bne	a0,a2,14e30 <_ZN20complex_full_dynamic3app17h9d4d9fbd66299db6E+0x98>
   14e0e:	864a                	mv	a2,s2
   14e10:	6509                	lui	a0,0x2
   14e12:	4409                	li	s0,2
   14e14:	480d                	li	a6,3
   14e16:	4589                	li	a1,2
   14e18:	cce50793          	addi	a5,a0,-818 # 1cce <.Lline_table_start1+0x1aa3>
   14e1c:	46ed                	li	a3,27
   14e1e:	470d                	li	a4,3
   14e20:	853e                	mv	a0,a5
   14e22:	00000073          	ecall
   14e26:	00851963          	bne	a0,s0,14e38 <_ZN20complex_full_dynamic3app17h9d4d9fbd66299db6E+0xa0>
   14e2a:	4505                	li	a0,1
   14e2c:	cd01                	beqz	a0,14e44 <_ZN20complex_full_dynamic3app17h9d4d9fbd66299db6E+0xac>
   14e2e:	a099                	j	14e74 <_ZN20complex_full_dynamic3app17h9d4d9fbd66299db6E+0xdc>
   14e30:	458d                	li	a1,3
   14e32:	4505                	li	a0,1
   14e34:	c901                	beqz	a0,14e44 <_ZN20complex_full_dynamic3app17h9d4d9fbd66299db6E+0xac>
   14e36:	a83d                	j	14e74 <_ZN20complex_full_dynamic3app17h9d4d9fbd66299db6E+0xdc>
   14e38:	4501                	li	a0,0
   14e3a:	da3e                	sw	a5,52(sp)
   14e3c:	dc22                	sw	s0,56(sp)
   14e3e:	03010e23          	sb	a6,60(sp)
   14e42:	e90d                	bnez	a0,14e74 <_ZN20complex_full_dynamic3app17h9d4d9fbd66299db6E+0xdc>
   14e44:	6509                	lui	a0,0x2
   14e46:	4595                	li	a1,5
   14e48:	4609                	li	a2,2
   14e4a:	cce50513          	addi	a0,a0,-818 # 1cce <.Lline_table_start1+0x1aa3>
   14e4e:	4709                	li	a4,2
   14e50:	07f00793          	li	a5,127
   14e54:	4681                	li	a3,0
   14e56:	00000073          	ecall
   14e5a:	00a7fd63          	bgeu	a5,a0,14e74 <_ZN20complex_full_dynamic3app17h9d4d9fbd66299db6E+0xdc>
   14e5e:	0068                	addi	a0,sp,12
   14e60:	00008097          	auipc	ra,0x8
   14e64:	c30080e7          	jalr	-976(ra) # 1ca90 <_ZN9allow_pin12full_dynamic17unshare_if_shared17h4e6b4433fd7c2282E>
   14e68:	1848                	addi	a0,sp,52
   14e6a:	00008097          	auipc	ra,0x8
   14e6e:	c26080e7          	jalr	-986(ra) # 1ca90 <_ZN9allow_pin12full_dynamic17unshare_if_shared17h4e6b4433fd7c2282E>
   14e72:	4481                	li	s1,0
   14e74:	c489                	beqz	s1,14e7e <_ZN20complex_full_dynamic3app17h9d4d9fbd66299db6E+0xe6>
   14e76:	00b9a223          	sw	a1,4(s3)
   14e7a:	4505                	li	a0,1
   14e7c:	a839                	j	14e9a <_ZN20complex_full_dynamic3app17h9d4d9fbd66299db6E+0x102>
   14e7e:	1848                	addi	a0,sp,52
   14e80:	00008097          	auipc	ra,0x8
   14e84:	c10080e7          	jalr	-1008(ra) # 1ca90 <_ZN9allow_pin12full_dynamic17unshare_if_shared17h4e6b4433fd7c2282E>
   14e88:	00198513          	addi	a0,s3,1
   14e8c:	466d                	li	a2,27
   14e8e:	85ca                	mv	a1,s2
   14e90:	00008097          	auipc	ra,0x8
   14e94:	c8c080e7          	jalr	-884(ra) # 1cb1c <memcpy>
   14e98:	4501                	li	a0,0
   14e9a:	00a98023          	sb	a0,0(s3)
   14e9e:	1848                	addi	a0,sp,52
   14ea0:	00008097          	auipc	ra,0x8
   14ea4:	bf0080e7          	jalr	-1040(ra) # 1ca90 <_ZN9allow_pin12full_dynamic17unshare_if_shared17h4e6b4433fd7c2282E>
   14ea8:	0068                	addi	a0,sp,12
   14eaa:	00008097          	auipc	ra,0x8
   14eae:	be6080e7          	jalr	-1050(ra) # 1ca90 <_ZN9allow_pin12full_dynamic17unshare_if_shared17h4e6b4433fd7c2282E>
   14eb2:	50b6                	lw	ra,108(sp)
   14eb4:	5426                	lw	s0,104(sp)
   14eb6:	5496                	lw	s1,100(sp)
   14eb8:	5906                	lw	s2,96(sp)
   14eba:	49f6                	lw	s3,92(sp)
   14ebc:	6165                	addi	sp,sp,112
   14ebe:	8082                	ret

00014ec0 <_ZN20complex_full_dynamic3app17h9db1b5bbc2a713ceE>:
   14ec0:	7135                	addi	sp,sp,-160
   14ec2:	cf06                	sw	ra,156(sp)
   14ec4:	cd22                	sw	s0,152(sp)
   14ec6:	cb26                	sw	s1,148(sp)
   14ec8:	c94a                	sw	s2,144(sp)
   14eca:	c74e                	sw	s3,140(sp)
   14ecc:	89aa                	mv	s3,a0
   14ece:	4409                	li	s0,2
   14ed0:	00810823          	sb	s0,16(sp)
   14ed4:	0844                	addi	s1,sp,20
   14ed6:	464d                	li	a2,19
   14ed8:	8526                	mv	a0,s1
   14eda:	00008097          	auipc	ra,0x8
   14ede:	c42080e7          	jalr	-958(ra) # 1cb1c <memcpy>
   14ee2:	03410913          	addi	s2,sp,52
   14ee6:	05500613          	li	a2,85
   14eea:	854a                	mv	a0,s2
   14eec:	4581                	li	a1,0
   14eee:	00008097          	auipc	ra,0x8
   14ef2:	bc2080e7          	jalr	-1086(ra) # 1cab0 <memset>
   14ef6:	8626                	mv	a2,s1
   14ef8:	02810823          	sb	s0,48(sp)
   14efc:	32e00793          	li	a5,814
   14f00:	44a5                	li	s1,9
   14f02:	4811                	li	a6,4
   14f04:	32e00513          	li	a0,814
   14f08:	45a5                	li	a1,9
   14f0a:	46cd                	li	a3,19
   14f0c:	4711                	li	a4,4
   14f0e:	00000073          	ecall
   14f12:	00850663          	beq	a0,s0,14f1e <_ZN20complex_full_dynamic3app17h9db1b5bbc2a713ceE+0x5e>
   14f16:	c43e                	sw	a5,8(sp)
   14f18:	c626                	sw	s1,12(sp)
   14f1a:	01010823          	sb	a6,16(sp)
   14f1e:	4609                	li	a2,2
   14f20:	00c51463          	bne	a0,a2,14f28 <_ZN20complex_full_dynamic3app17h9db1b5bbc2a713ceE+0x68>
   14f24:	4785                	li	a5,1
   14f26:	a895                	j	14f9a <_ZN20complex_full_dynamic3app17h9db1b5bbc2a713ceE+0xda>
   14f28:	03014503          	lbu	a0,48(sp)
   14f2c:	4785                	li	a5,1
   14f2e:	02c51563          	bne	a0,a2,14f58 <_ZN20complex_full_dynamic3app17h9db1b5bbc2a713ceE+0x98>
   14f32:	864a                	mv	a2,s2
   14f34:	32e00493          	li	s1,814
   14f38:	481d                	li	a6,7
   14f3a:	32e00513          	li	a0,814
   14f3e:	459d                	li	a1,7
   14f40:	05500693          	li	a3,85
   14f44:	470d                	li	a4,3
   14f46:	4409                	li	s0,2
   14f48:	00000073          	ecall
   14f4c:	460d                	li	a2,3
   14f4e:	00851963          	bne	a0,s0,14f60 <_ZN20complex_full_dynamic3app17h9db1b5bbc2a713ceE+0xa0>
   14f52:	4505                	li	a0,1
   14f54:	cd01                	beqz	a0,14f6c <_ZN20complex_full_dynamic3app17h9db1b5bbc2a713ceE+0xac>
   14f56:	a091                	j	14f9a <_ZN20complex_full_dynamic3app17h9db1b5bbc2a713ceE+0xda>
   14f58:	458d                	li	a1,3
   14f5a:	4505                	li	a0,1
   14f5c:	c901                	beqz	a0,14f6c <_ZN20complex_full_dynamic3app17h9db1b5bbc2a713ceE+0xac>
   14f5e:	a835                	j	14f9a <_ZN20complex_full_dynamic3app17h9db1b5bbc2a713ceE+0xda>
   14f60:	4501                	li	a0,0
   14f62:	d426                	sw	s1,40(sp)
   14f64:	d642                	sw	a6,44(sp)
   14f66:	02c10823          	sb	a2,48(sp)
   14f6a:	e905                	bnez	a0,14f9a <_ZN20complex_full_dynamic3app17h9db1b5bbc2a713ceE+0xda>
   14f6c:	32e00513          	li	a0,814
   14f70:	45a5                	li	a1,9
   14f72:	461d                	li	a2,7
   14f74:	4709                	li	a4,2
   14f76:	07f00493          	li	s1,127
   14f7a:	4681                	li	a3,0
   14f7c:	00000073          	ecall
   14f80:	00a4fd63          	bgeu	s1,a0,14f9a <_ZN20complex_full_dynamic3app17h9db1b5bbc2a713ceE+0xda>
   14f84:	0028                	addi	a0,sp,8
   14f86:	00008097          	auipc	ra,0x8
   14f8a:	b0a080e7          	jalr	-1270(ra) # 1ca90 <_ZN9allow_pin12full_dynamic17unshare_if_shared17h4e6b4433fd7c2282E>
   14f8e:	1028                	addi	a0,sp,40
   14f90:	00008097          	auipc	ra,0x8
   14f94:	b00080e7          	jalr	-1280(ra) # 1ca90 <_ZN9allow_pin12full_dynamic17unshare_if_shared17h4e6b4433fd7c2282E>
   14f98:	4781                	li	a5,0
   14f9a:	c789                	beqz	a5,14fa4 <_ZN20complex_full_dynamic3app17h9db1b5bbc2a713ceE+0xe4>
   14f9c:	00b9a223          	sw	a1,4(s3)
   14fa0:	4505                	li	a0,1
   14fa2:	a005                	j	14fc2 <_ZN20complex_full_dynamic3app17h9db1b5bbc2a713ceE+0x102>
   14fa4:	1028                	addi	a0,sp,40
   14fa6:	00008097          	auipc	ra,0x8
   14faa:	aea080e7          	jalr	-1302(ra) # 1ca90 <_ZN9allow_pin12full_dynamic17unshare_if_shared17h4e6b4433fd7c2282E>
   14fae:	00198513          	addi	a0,s3,1
   14fb2:	05500613          	li	a2,85
   14fb6:	85ca                	mv	a1,s2
   14fb8:	00008097          	auipc	ra,0x8
   14fbc:	b64080e7          	jalr	-1180(ra) # 1cb1c <memcpy>
   14fc0:	4501                	li	a0,0
   14fc2:	00a98023          	sb	a0,0(s3)
   14fc6:	1028                	addi	a0,sp,40
   14fc8:	00008097          	auipc	ra,0x8
   14fcc:	ac8080e7          	jalr	-1336(ra) # 1ca90 <_ZN9allow_pin12full_dynamic17unshare_if_shared17h4e6b4433fd7c2282E>
   14fd0:	0028                	addi	a0,sp,8
   14fd2:	00008097          	auipc	ra,0x8
   14fd6:	abe080e7          	jalr	-1346(ra) # 1ca90 <_ZN9allow_pin12full_dynamic17unshare_if_shared17h4e6b4433fd7c2282E>
   14fda:	40fa                	lw	ra,156(sp)
   14fdc:	446a                	lw	s0,152(sp)
   14fde:	44da                	lw	s1,148(sp)
   14fe0:	494a                	lw	s2,144(sp)
   14fe2:	49ba                	lw	s3,140(sp)
   14fe4:	610d                	addi	sp,sp,160
   14fe6:	8082                	ret

00014fe8 <_ZN20complex_full_dynamic3app17h9e91747e85048dd8E>:
   14fe8:	7171                	addi	sp,sp,-176
   14fea:	d706                	sw	ra,172(sp)
   14fec:	d522                	sw	s0,168(sp)
   14fee:	d326                	sw	s1,164(sp)
   14ff0:	d14a                	sw	s2,160(sp)
   14ff2:	cf4e                	sw	s3,156(sp)
   14ff4:	89aa                	mv	s3,a0
   14ff6:	4409                	li	s0,2
   14ff8:	00810a23          	sb	s0,20(sp)
   14ffc:	0824                	addi	s1,sp,24
   14ffe:	03500613          	li	a2,53
   15002:	8526                	mv	a0,s1
   15004:	00008097          	auipc	ra,0x8
   15008:	b18080e7          	jalr	-1256(ra) # 1cb1c <memcpy>
   1500c:	05c10913          	addi	s2,sp,92
   15010:	03f00613          	li	a2,63
   15014:	854a                	mv	a0,s2
   15016:	4581                	li	a1,0
   15018:	00008097          	auipc	ra,0x8
   1501c:	a98080e7          	jalr	-1384(ra) # 1cab0 <memset>
   15020:	4581                	li	a1,0
   15022:	8626                	mv	a2,s1
   15024:	04810c23          	sb	s0,88(sp)
   15028:	6505                	lui	a0,0x1
   1502a:	4491                	li	s1,4
   1502c:	e5750793          	addi	a5,a0,-425 # e57 <.Lline_table_start1+0xc2c>
   15030:	03500693          	li	a3,53
   15034:	4711                	li	a4,4
   15036:	853e                	mv	a0,a5
   15038:	00000073          	ecall
   1503c:	00850663          	beq	a0,s0,15048 <_ZN20complex_full_dynamic3app17h9e91747e85048dd8E+0x60>
   15040:	c63e                	sw	a5,12(sp)
   15042:	c802                	sw	zero,16(sp)
   15044:	00910a23          	sb	s1,20(sp)
   15048:	4609                	li	a2,2
   1504a:	00c51463          	bne	a0,a2,15052 <_ZN20complex_full_dynamic3app17h9e91747e85048dd8E+0x6a>
   1504e:	4485                	li	s1,1
   15050:	a895                	j	150c4 <_ZN20complex_full_dynamic3app17h9e91747e85048dd8E+0xdc>
   15052:	05814503          	lbu	a0,88(sp)
   15056:	4485                	li	s1,1
   15058:	02c51463          	bne	a0,a2,15080 <_ZN20complex_full_dynamic3app17h9e91747e85048dd8E+0x98>
   1505c:	864a                	mv	a2,s2
   1505e:	6505                	lui	a0,0x1
   15060:	458d                	li	a1,3
   15062:	03f00693          	li	a3,63
   15066:	470d                	li	a4,3
   15068:	e5750793          	addi	a5,a0,-425 # e57 <.Lline_table_start1+0xc2c>
   1506c:	4409                	li	s0,2
   1506e:	853e                	mv	a0,a5
   15070:	00000073          	ecall
   15074:	460d                	li	a2,3
   15076:	00851963          	bne	a0,s0,15088 <_ZN20complex_full_dynamic3app17h9e91747e85048dd8E+0xa0>
   1507a:	4505                	li	a0,1
   1507c:	cd01                	beqz	a0,15094 <_ZN20complex_full_dynamic3app17h9e91747e85048dd8E+0xac>
   1507e:	a099                	j	150c4 <_ZN20complex_full_dynamic3app17h9e91747e85048dd8E+0xdc>
   15080:	458d                	li	a1,3
   15082:	4505                	li	a0,1
   15084:	c901                	beqz	a0,15094 <_ZN20complex_full_dynamic3app17h9e91747e85048dd8E+0xac>
   15086:	a83d                	j	150c4 <_ZN20complex_full_dynamic3app17h9e91747e85048dd8E+0xdc>
   15088:	4501                	li	a0,0
   1508a:	c8be                	sw	a5,80(sp)
   1508c:	cab2                	sw	a2,84(sp)
   1508e:	04c10c23          	sb	a2,88(sp)
   15092:	e90d                	bnez	a0,150c4 <_ZN20complex_full_dynamic3app17h9e91747e85048dd8E+0xdc>
   15094:	6505                	lui	a0,0x1
   15096:	460d                	li	a2,3
   15098:	e5750513          	addi	a0,a0,-425 # e57 <.Lline_table_start1+0xc2c>
   1509c:	4709                	li	a4,2
   1509e:	07f00793          	li	a5,127
   150a2:	4581                	li	a1,0
   150a4:	4681                	li	a3,0
   150a6:	00000073          	ecall
   150aa:	00a7fd63          	bgeu	a5,a0,150c4 <_ZN20complex_full_dynamic3app17h9e91747e85048dd8E+0xdc>
   150ae:	0068                	addi	a0,sp,12
   150b0:	00008097          	auipc	ra,0x8
   150b4:	9e0080e7          	jalr	-1568(ra) # 1ca90 <_ZN9allow_pin12full_dynamic17unshare_if_shared17h4e6b4433fd7c2282E>
   150b8:	0888                	addi	a0,sp,80
   150ba:	00008097          	auipc	ra,0x8
   150be:	9d6080e7          	jalr	-1578(ra) # 1ca90 <_ZN9allow_pin12full_dynamic17unshare_if_shared17h4e6b4433fd7c2282E>
   150c2:	4481                	li	s1,0
   150c4:	c489                	beqz	s1,150ce <_ZN20complex_full_dynamic3app17h9e91747e85048dd8E+0xe6>
   150c6:	00b9a223          	sw	a1,4(s3)
   150ca:	4505                	li	a0,1
   150cc:	a005                	j	150ec <_ZN20complex_full_dynamic3app17h9e91747e85048dd8E+0x104>
   150ce:	0888                	addi	a0,sp,80
   150d0:	00008097          	auipc	ra,0x8
   150d4:	9c0080e7          	jalr	-1600(ra) # 1ca90 <_ZN9allow_pin12full_dynamic17unshare_if_shared17h4e6b4433fd7c2282E>
   150d8:	00198513          	addi	a0,s3,1
   150dc:	03f00613          	li	a2,63
   150e0:	85ca                	mv	a1,s2
   150e2:	00008097          	auipc	ra,0x8
   150e6:	a3a080e7          	jalr	-1478(ra) # 1cb1c <memcpy>
   150ea:	4501                	li	a0,0
   150ec:	00a98023          	sb	a0,0(s3)
   150f0:	0888                	addi	a0,sp,80
   150f2:	00008097          	auipc	ra,0x8
   150f6:	99e080e7          	jalr	-1634(ra) # 1ca90 <_ZN9allow_pin12full_dynamic17unshare_if_shared17h4e6b4433fd7c2282E>
   150fa:	0068                	addi	a0,sp,12
   150fc:	00008097          	auipc	ra,0x8
   15100:	994080e7          	jalr	-1644(ra) # 1ca90 <_ZN9allow_pin12full_dynamic17unshare_if_shared17h4e6b4433fd7c2282E>
   15104:	50ba                	lw	ra,172(sp)
   15106:	542a                	lw	s0,168(sp)
   15108:	549a                	lw	s1,164(sp)
   1510a:	590a                	lw	s2,160(sp)
   1510c:	49fa                	lw	s3,156(sp)
   1510e:	614d                	addi	sp,sp,176
   15110:	8082                	ret

00015112 <_ZN20complex_full_dynamic3app17ha406a095ea6f4d8aE>:
   15112:	7119                	addi	sp,sp,-128
   15114:	de86                	sw	ra,124(sp)
   15116:	dca2                	sw	s0,120(sp)
   15118:	daa6                	sw	s1,116(sp)
   1511a:	d8ca                	sw	s2,112(sp)
   1511c:	d6ce                	sw	s3,108(sp)
   1511e:	89aa                	mv	s3,a0
   15120:	4409                	li	s0,2
   15122:	00810a23          	sb	s0,20(sp)
   15126:	0824                	addi	s1,sp,24
   15128:	02300613          	li	a2,35
   1512c:	8526                	mv	a0,s1
   1512e:	00008097          	auipc	ra,0x8
   15132:	9ee080e7          	jalr	-1554(ra) # 1cb1c <memcpy>
   15136:	04810913          	addi	s2,sp,72
   1513a:	02400613          	li	a2,36
   1513e:	854a                	mv	a0,s2
   15140:	4581                	li	a1,0
   15142:	00008097          	auipc	ra,0x8
   15146:	96e080e7          	jalr	-1682(ra) # 1cab0 <memset>
   1514a:	8626                	mv	a2,s1
   1514c:	04810223          	sb	s0,68(sp)
   15150:	6509                	lui	a0,0x2
   15152:	4491                	li	s1,4
   15154:	4591                	li	a1,4
   15156:	bd650793          	addi	a5,a0,-1066 # 1bd6 <.Lline_table_start1+0x19ab>
   1515a:	02300693          	li	a3,35
   1515e:	4711                	li	a4,4
   15160:	853e                	mv	a0,a5
   15162:	00000073          	ecall
   15166:	00850663          	beq	a0,s0,15172 <_ZN20complex_full_dynamic3app17ha406a095ea6f4d8aE+0x60>
   1516a:	c63e                	sw	a5,12(sp)
   1516c:	c826                	sw	s1,16(sp)
   1516e:	00910a23          	sb	s1,20(sp)
   15172:	4609                	li	a2,2
   15174:	00c51463          	bne	a0,a2,1517c <_ZN20complex_full_dynamic3app17ha406a095ea6f4d8aE+0x6a>
   15178:	4485                	li	s1,1
   1517a:	a89d                	j	151f0 <_ZN20complex_full_dynamic3app17ha406a095ea6f4d8aE+0xde>
   1517c:	04414503          	lbu	a0,68(sp)
   15180:	4485                	li	s1,1
   15182:	02c51563          	bne	a0,a2,151ac <_ZN20complex_full_dynamic3app17ha406a095ea6f4d8aE+0x9a>
   15186:	864a                	mv	a2,s2
   15188:	6509                	lui	a0,0x2
   1518a:	4821                	li	a6,8
   1518c:	45a1                	li	a1,8
   1518e:	02400693          	li	a3,36
   15192:	470d                	li	a4,3
   15194:	bd650793          	addi	a5,a0,-1066 # 1bd6 <.Lline_table_start1+0x19ab>
   15198:	4409                	li	s0,2
   1519a:	853e                	mv	a0,a5
   1519c:	00000073          	ecall
   151a0:	460d                	li	a2,3
   151a2:	00851963          	bne	a0,s0,151b4 <_ZN20complex_full_dynamic3app17ha406a095ea6f4d8aE+0xa2>
   151a6:	4505                	li	a0,1
   151a8:	cd01                	beqz	a0,151c0 <_ZN20complex_full_dynamic3app17ha406a095ea6f4d8aE+0xae>
   151aa:	a099                	j	151f0 <_ZN20complex_full_dynamic3app17ha406a095ea6f4d8aE+0xde>
   151ac:	458d                	li	a1,3
   151ae:	4505                	li	a0,1
   151b0:	c901                	beqz	a0,151c0 <_ZN20complex_full_dynamic3app17ha406a095ea6f4d8aE+0xae>
   151b2:	a83d                	j	151f0 <_ZN20complex_full_dynamic3app17ha406a095ea6f4d8aE+0xde>
   151b4:	4501                	li	a0,0
   151b6:	de3e                	sw	a5,60(sp)
   151b8:	c0c2                	sw	a6,64(sp)
   151ba:	04c10223          	sb	a2,68(sp)
   151be:	e90d                	bnez	a0,151f0 <_ZN20complex_full_dynamic3app17ha406a095ea6f4d8aE+0xde>
   151c0:	6509                	lui	a0,0x2
   151c2:	4591                	li	a1,4
   151c4:	4621                	li	a2,8
   151c6:	bd650513          	addi	a0,a0,-1066 # 1bd6 <.Lline_table_start1+0x19ab>
   151ca:	4709                	li	a4,2
   151cc:	07f00793          	li	a5,127
   151d0:	4681                	li	a3,0
   151d2:	00000073          	ecall
   151d6:	00a7fd63          	bgeu	a5,a0,151f0 <_ZN20complex_full_dynamic3app17ha406a095ea6f4d8aE+0xde>
   151da:	0068                	addi	a0,sp,12
   151dc:	00008097          	auipc	ra,0x8
   151e0:	8b4080e7          	jalr	-1868(ra) # 1ca90 <_ZN9allow_pin12full_dynamic17unshare_if_shared17h4e6b4433fd7c2282E>
   151e4:	1868                	addi	a0,sp,60
   151e6:	00008097          	auipc	ra,0x8
   151ea:	8aa080e7          	jalr	-1878(ra) # 1ca90 <_ZN9allow_pin12full_dynamic17unshare_if_shared17h4e6b4433fd7c2282E>
   151ee:	4481                	li	s1,0
   151f0:	c489                	beqz	s1,151fa <_ZN20complex_full_dynamic3app17ha406a095ea6f4d8aE+0xe8>
   151f2:	00b9a223          	sw	a1,4(s3)
   151f6:	4505                	li	a0,1
   151f8:	a005                	j	15218 <_ZN20complex_full_dynamic3app17ha406a095ea6f4d8aE+0x106>
   151fa:	1868                	addi	a0,sp,60
   151fc:	00008097          	auipc	ra,0x8
   15200:	894080e7          	jalr	-1900(ra) # 1ca90 <_ZN9allow_pin12full_dynamic17unshare_if_shared17h4e6b4433fd7c2282E>
   15204:	00198513          	addi	a0,s3,1
   15208:	02400613          	li	a2,36
   1520c:	85ca                	mv	a1,s2
   1520e:	00008097          	auipc	ra,0x8
   15212:	90e080e7          	jalr	-1778(ra) # 1cb1c <memcpy>
   15216:	4501                	li	a0,0
   15218:	00a98023          	sb	a0,0(s3)
   1521c:	1868                	addi	a0,sp,60
   1521e:	00008097          	auipc	ra,0x8
   15222:	872080e7          	jalr	-1934(ra) # 1ca90 <_ZN9allow_pin12full_dynamic17unshare_if_shared17h4e6b4433fd7c2282E>
   15226:	0068                	addi	a0,sp,12
   15228:	00008097          	auipc	ra,0x8
   1522c:	868080e7          	jalr	-1944(ra) # 1ca90 <_ZN9allow_pin12full_dynamic17unshare_if_shared17h4e6b4433fd7c2282E>
   15230:	50f6                	lw	ra,124(sp)
   15232:	5466                	lw	s0,120(sp)
   15234:	54d6                	lw	s1,116(sp)
   15236:	5946                	lw	s2,112(sp)
   15238:	59b6                	lw	s3,108(sp)
   1523a:	6109                	addi	sp,sp,128
   1523c:	8082                	ret

0001523e <_ZN20complex_full_dynamic3app17ha9f6c376b8389db9E>:
   1523e:	7119                	addi	sp,sp,-128
   15240:	de86                	sw	ra,124(sp)
   15242:	dca2                	sw	s0,120(sp)
   15244:	daa6                	sw	s1,116(sp)
   15246:	d8ca                	sw	s2,112(sp)
   15248:	d6ce                	sw	s3,108(sp)
   1524a:	89aa                	mv	s3,a0
   1524c:	4409                	li	s0,2
   1524e:	00810823          	sb	s0,16(sp)
   15252:	0844                	addi	s1,sp,20
   15254:	4679                	li	a2,30
   15256:	8526                	mv	a0,s1
   15258:	00008097          	auipc	ra,0x8
   1525c:	8c4080e7          	jalr	-1852(ra) # 1cb1c <memcpy>
   15260:	04010913          	addi	s2,sp,64
   15264:	02c00613          	li	a2,44
   15268:	854a                	mv	a0,s2
   1526a:	4581                	li	a1,0
   1526c:	00008097          	auipc	ra,0x8
   15270:	844080e7          	jalr	-1980(ra) # 1cab0 <memset>
   15274:	8626                	mv	a2,s1
   15276:	02810e23          	sb	s0,60(sp)
   1527a:	3fb00793          	li	a5,1019
   1527e:	449d                	li	s1,7
   15280:	4811                	li	a6,4
   15282:	3fb00513          	li	a0,1019
   15286:	459d                	li	a1,7
   15288:	46f9                	li	a3,30
   1528a:	4711                	li	a4,4
   1528c:	00000073          	ecall
   15290:	00850663          	beq	a0,s0,1529c <_ZN20complex_full_dynamic3app17ha9f6c376b8389db9E+0x5e>
   15294:	c43e                	sw	a5,8(sp)
   15296:	c626                	sw	s1,12(sp)
   15298:	01010823          	sb	a6,16(sp)
   1529c:	4609                	li	a2,2
   1529e:	00c51463          	bne	a0,a2,152a6 <_ZN20complex_full_dynamic3app17ha9f6c376b8389db9E+0x68>
   152a2:	4785                	li	a5,1
   152a4:	a88d                	j	15316 <_ZN20complex_full_dynamic3app17ha9f6c376b8389db9E+0xd8>
   152a6:	03c14503          	lbu	a0,60(sp)
   152aa:	4785                	li	a5,1
   152ac:	02c51463          	bne	a0,a2,152d4 <_ZN20complex_full_dynamic3app17ha9f6c376b8389db9E+0x96>
   152b0:	4581                	li	a1,0
   152b2:	864a                	mv	a2,s2
   152b4:	3fb00493          	li	s1,1019
   152b8:	3fb00513          	li	a0,1019
   152bc:	02c00693          	li	a3,44
   152c0:	470d                	li	a4,3
   152c2:	4409                	li	s0,2
   152c4:	00000073          	ecall
   152c8:	460d                	li	a2,3
   152ca:	00851963          	bne	a0,s0,152dc <_ZN20complex_full_dynamic3app17ha9f6c376b8389db9E+0x9e>
   152ce:	4505                	li	a0,1
   152d0:	cd01                	beqz	a0,152e8 <_ZN20complex_full_dynamic3app17ha9f6c376b8389db9E+0xaa>
   152d2:	a091                	j	15316 <_ZN20complex_full_dynamic3app17ha9f6c376b8389db9E+0xd8>
   152d4:	458d                	li	a1,3
   152d6:	4505                	li	a0,1
   152d8:	c901                	beqz	a0,152e8 <_ZN20complex_full_dynamic3app17ha9f6c376b8389db9E+0xaa>
   152da:	a835                	j	15316 <_ZN20complex_full_dynamic3app17ha9f6c376b8389db9E+0xd8>
   152dc:	4501                	li	a0,0
   152de:	da26                	sw	s1,52(sp)
   152e0:	dc02                	sw	zero,56(sp)
   152e2:	02c10e23          	sb	a2,60(sp)
   152e6:	e905                	bnez	a0,15316 <_ZN20complex_full_dynamic3app17ha9f6c376b8389db9E+0xd8>
   152e8:	3fb00513          	li	a0,1019
   152ec:	459d                	li	a1,7
   152ee:	4709                	li	a4,2
   152f0:	07f00493          	li	s1,127
   152f4:	4601                	li	a2,0
   152f6:	4681                	li	a3,0
   152f8:	00000073          	ecall
   152fc:	00a4fd63          	bgeu	s1,a0,15316 <_ZN20complex_full_dynamic3app17ha9f6c376b8389db9E+0xd8>
   15300:	0028                	addi	a0,sp,8
   15302:	00007097          	auipc	ra,0x7
   15306:	78e080e7          	jalr	1934(ra) # 1ca90 <_ZN9allow_pin12full_dynamic17unshare_if_shared17h4e6b4433fd7c2282E>
   1530a:	1848                	addi	a0,sp,52
   1530c:	00007097          	auipc	ra,0x7
   15310:	784080e7          	jalr	1924(ra) # 1ca90 <_ZN9allow_pin12full_dynamic17unshare_if_shared17h4e6b4433fd7c2282E>
   15314:	4781                	li	a5,0
   15316:	c789                	beqz	a5,15320 <_ZN20complex_full_dynamic3app17ha9f6c376b8389db9E+0xe2>
   15318:	00b9a223          	sw	a1,4(s3)
   1531c:	4505                	li	a0,1
   1531e:	a005                	j	1533e <_ZN20complex_full_dynamic3app17ha9f6c376b8389db9E+0x100>
   15320:	1848                	addi	a0,sp,52
   15322:	00007097          	auipc	ra,0x7
   15326:	76e080e7          	jalr	1902(ra) # 1ca90 <_ZN9allow_pin12full_dynamic17unshare_if_shared17h4e6b4433fd7c2282E>
   1532a:	00198513          	addi	a0,s3,1
   1532e:	02c00613          	li	a2,44
   15332:	85ca                	mv	a1,s2
   15334:	00007097          	auipc	ra,0x7
   15338:	7e8080e7          	jalr	2024(ra) # 1cb1c <memcpy>
   1533c:	4501                	li	a0,0
   1533e:	00a98023          	sb	a0,0(s3)
   15342:	1848                	addi	a0,sp,52
   15344:	00007097          	auipc	ra,0x7
   15348:	74c080e7          	jalr	1868(ra) # 1ca90 <_ZN9allow_pin12full_dynamic17unshare_if_shared17h4e6b4433fd7c2282E>
   1534c:	0028                	addi	a0,sp,8
   1534e:	00007097          	auipc	ra,0x7
   15352:	742080e7          	jalr	1858(ra) # 1ca90 <_ZN9allow_pin12full_dynamic17unshare_if_shared17h4e6b4433fd7c2282E>
   15356:	50f6                	lw	ra,124(sp)
   15358:	5466                	lw	s0,120(sp)
   1535a:	54d6                	lw	s1,116(sp)
   1535c:	5946                	lw	s2,112(sp)
   1535e:	59b6                	lw	s3,108(sp)
   15360:	6109                	addi	sp,sp,128
   15362:	8082                	ret

00015364 <_ZN20complex_full_dynamic3app17haa3fd1ab2fa442beE>:
   15364:	7135                	addi	sp,sp,-160
   15366:	cf06                	sw	ra,156(sp)
   15368:	cd22                	sw	s0,152(sp)
   1536a:	cb26                	sw	s1,148(sp)
   1536c:	c94a                	sw	s2,144(sp)
   1536e:	c74e                	sw	s3,140(sp)
   15370:	89aa                	mv	s3,a0
   15372:	4409                	li	s0,2
   15374:	00810823          	sb	s0,16(sp)
   15378:	0844                	addi	s1,sp,20
   1537a:	03800613          	li	a2,56
   1537e:	8526                	mv	a0,s1
   15380:	00007097          	auipc	ra,0x7
   15384:	79c080e7          	jalr	1948(ra) # 1cb1c <memcpy>
   15388:	05810913          	addi	s2,sp,88
   1538c:	03400613          	li	a2,52
   15390:	854a                	mv	a0,s2
   15392:	4581                	li	a1,0
   15394:	00007097          	auipc	ra,0x7
   15398:	71c080e7          	jalr	1820(ra) # 1cab0 <memset>
   1539c:	8626                	mv	a2,s1
   1539e:	04810a23          	sb	s0,84(sp)
   153a2:	12e00793          	li	a5,302
   153a6:	44a1                	li	s1,8
   153a8:	4811                	li	a6,4
   153aa:	12e00513          	li	a0,302
   153ae:	45a1                	li	a1,8
   153b0:	03800693          	li	a3,56
   153b4:	4711                	li	a4,4
   153b6:	00000073          	ecall
   153ba:	00850663          	beq	a0,s0,153c6 <_ZN20complex_full_dynamic3app17haa3fd1ab2fa442beE+0x62>
   153be:	c43e                	sw	a5,8(sp)
   153c0:	c626                	sw	s1,12(sp)
   153c2:	01010823          	sb	a6,16(sp)
   153c6:	4609                	li	a2,2
   153c8:	00c51463          	bne	a0,a2,153d0 <_ZN20complex_full_dynamic3app17haa3fd1ab2fa442beE+0x6c>
   153cc:	4785                	li	a5,1
   153ce:	a88d                	j	15440 <_ZN20complex_full_dynamic3app17haa3fd1ab2fa442beE+0xdc>
   153d0:	05414503          	lbu	a0,84(sp)
   153d4:	4785                	li	a5,1
   153d6:	02c51463          	bne	a0,a2,153fe <_ZN20complex_full_dynamic3app17haa3fd1ab2fa442beE+0x9a>
   153da:	864a                	mv	a2,s2
   153dc:	12e00493          	li	s1,302
   153e0:	12e00513          	li	a0,302
   153e4:	458d                	li	a1,3
   153e6:	03400693          	li	a3,52
   153ea:	470d                	li	a4,3
   153ec:	4409                	li	s0,2
   153ee:	00000073          	ecall
   153f2:	460d                	li	a2,3
   153f4:	00851963          	bne	a0,s0,15406 <_ZN20complex_full_dynamic3app17haa3fd1ab2fa442beE+0xa2>
   153f8:	4505                	li	a0,1
   153fa:	cd01                	beqz	a0,15412 <_ZN20complex_full_dynamic3app17haa3fd1ab2fa442beE+0xae>
   153fc:	a091                	j	15440 <_ZN20complex_full_dynamic3app17haa3fd1ab2fa442beE+0xdc>
   153fe:	458d                	li	a1,3
   15400:	4505                	li	a0,1
   15402:	c901                	beqz	a0,15412 <_ZN20complex_full_dynamic3app17haa3fd1ab2fa442beE+0xae>
   15404:	a835                	j	15440 <_ZN20complex_full_dynamic3app17haa3fd1ab2fa442beE+0xdc>
   15406:	4501                	li	a0,0
   15408:	c6a6                	sw	s1,76(sp)
   1540a:	c8b2                	sw	a2,80(sp)
   1540c:	04c10a23          	sb	a2,84(sp)
   15410:	e905                	bnez	a0,15440 <_ZN20complex_full_dynamic3app17haa3fd1ab2fa442beE+0xdc>
   15412:	12e00513          	li	a0,302
   15416:	45a1                	li	a1,8
   15418:	460d                	li	a2,3
   1541a:	4709                	li	a4,2
   1541c:	07f00493          	li	s1,127
   15420:	4681                	li	a3,0
   15422:	00000073          	ecall
   15426:	00a4fd63          	bgeu	s1,a0,15440 <_ZN20complex_full_dynamic3app17haa3fd1ab2fa442beE+0xdc>
   1542a:	0028                	addi	a0,sp,8
   1542c:	00007097          	auipc	ra,0x7
   15430:	664080e7          	jalr	1636(ra) # 1ca90 <_ZN9allow_pin12full_dynamic17unshare_if_shared17h4e6b4433fd7c2282E>
   15434:	00e8                	addi	a0,sp,76
   15436:	00007097          	auipc	ra,0x7
   1543a:	65a080e7          	jalr	1626(ra) # 1ca90 <_ZN9allow_pin12full_dynamic17unshare_if_shared17h4e6b4433fd7c2282E>
   1543e:	4781                	li	a5,0
   15440:	c789                	beqz	a5,1544a <_ZN20complex_full_dynamic3app17haa3fd1ab2fa442beE+0xe6>
   15442:	00b9a223          	sw	a1,4(s3)
   15446:	4505                	li	a0,1
   15448:	a005                	j	15468 <_ZN20complex_full_dynamic3app17haa3fd1ab2fa442beE+0x104>
   1544a:	00e8                	addi	a0,sp,76
   1544c:	00007097          	auipc	ra,0x7
   15450:	644080e7          	jalr	1604(ra) # 1ca90 <_ZN9allow_pin12full_dynamic17unshare_if_shared17h4e6b4433fd7c2282E>
   15454:	00198513          	addi	a0,s3,1
   15458:	03400613          	li	a2,52
   1545c:	85ca                	mv	a1,s2
   1545e:	00007097          	auipc	ra,0x7
   15462:	6be080e7          	jalr	1726(ra) # 1cb1c <memcpy>
   15466:	4501                	li	a0,0
   15468:	00a98023          	sb	a0,0(s3)
   1546c:	00e8                	addi	a0,sp,76
   1546e:	00007097          	auipc	ra,0x7
   15472:	622080e7          	jalr	1570(ra) # 1ca90 <_ZN9allow_pin12full_dynamic17unshare_if_shared17h4e6b4433fd7c2282E>
   15476:	0028                	addi	a0,sp,8
   15478:	00007097          	auipc	ra,0x7
   1547c:	618080e7          	jalr	1560(ra) # 1ca90 <_ZN9allow_pin12full_dynamic17unshare_if_shared17h4e6b4433fd7c2282E>
   15480:	40fa                	lw	ra,156(sp)
   15482:	446a                	lw	s0,152(sp)
   15484:	44da                	lw	s1,148(sp)
   15486:	494a                	lw	s2,144(sp)
   15488:	49ba                	lw	s3,140(sp)
   1548a:	610d                	addi	sp,sp,160
   1548c:	8082                	ret

0001548e <_ZN20complex_full_dynamic3app17hac946f4a1b5d8839E>:
   1548e:	7171                	addi	sp,sp,-176
   15490:	d706                	sw	ra,172(sp)
   15492:	d522                	sw	s0,168(sp)
   15494:	d326                	sw	s1,164(sp)
   15496:	d14a                	sw	s2,160(sp)
   15498:	cf4e                	sw	s3,156(sp)
   1549a:	89aa                	mv	s3,a0
   1549c:	4409                	li	s0,2
   1549e:	00810a23          	sb	s0,20(sp)
   154a2:	0824                	addi	s1,sp,24
   154a4:	02700613          	li	a2,39
   154a8:	8526                	mv	a0,s1
   154aa:	00007097          	auipc	ra,0x7
   154ae:	672080e7          	jalr	1650(ra) # 1cb1c <memcpy>
   154b2:	04c10913          	addi	s2,sp,76
   154b6:	04f00613          	li	a2,79
   154ba:	854a                	mv	a0,s2
   154bc:	4581                	li	a1,0
   154be:	00007097          	auipc	ra,0x7
   154c2:	5f2080e7          	jalr	1522(ra) # 1cab0 <memset>
   154c6:	8626                	mv	a2,s1
   154c8:	04810423          	sb	s0,72(sp)
   154cc:	6505                	lui	a0,0x1
   154ce:	44a5                	li	s1,9
   154d0:	4811                	li	a6,4
   154d2:	45a5                	li	a1,9
   154d4:	b4c50793          	addi	a5,a0,-1204 # b4c <.Lline_table_start1+0x921>
   154d8:	02700693          	li	a3,39
   154dc:	4711                	li	a4,4
   154de:	853e                	mv	a0,a5
   154e0:	00000073          	ecall
   154e4:	00850663          	beq	a0,s0,154f0 <_ZN20complex_full_dynamic3app17hac946f4a1b5d8839E+0x62>
   154e8:	c63e                	sw	a5,12(sp)
   154ea:	c826                	sw	s1,16(sp)
   154ec:	01010a23          	sb	a6,20(sp)
   154f0:	4609                	li	a2,2
   154f2:	00c51463          	bne	a0,a2,154fa <_ZN20complex_full_dynamic3app17hac946f4a1b5d8839E+0x6c>
   154f6:	4485                	li	s1,1
   154f8:	a895                	j	1556c <_ZN20complex_full_dynamic3app17hac946f4a1b5d8839E+0xde>
   154fa:	04814503          	lbu	a0,72(sp)
   154fe:	4485                	li	s1,1
   15500:	02c51463          	bne	a0,a2,15528 <_ZN20complex_full_dynamic3app17hac946f4a1b5d8839E+0x9a>
   15504:	4581                	li	a1,0
   15506:	864a                	mv	a2,s2
   15508:	6505                	lui	a0,0x1
   1550a:	04f00693          	li	a3,79
   1550e:	470d                	li	a4,3
   15510:	b4c50793          	addi	a5,a0,-1204 # b4c <.Lline_table_start1+0x921>
   15514:	4409                	li	s0,2
   15516:	853e                	mv	a0,a5
   15518:	00000073          	ecall
   1551c:	460d                	li	a2,3
   1551e:	00851963          	bne	a0,s0,15530 <_ZN20complex_full_dynamic3app17hac946f4a1b5d8839E+0xa2>
   15522:	4505                	li	a0,1
   15524:	cd01                	beqz	a0,1553c <_ZN20complex_full_dynamic3app17hac946f4a1b5d8839E+0xae>
   15526:	a099                	j	1556c <_ZN20complex_full_dynamic3app17hac946f4a1b5d8839E+0xde>
   15528:	458d                	li	a1,3
   1552a:	4505                	li	a0,1
   1552c:	c901                	beqz	a0,1553c <_ZN20complex_full_dynamic3app17hac946f4a1b5d8839E+0xae>
   1552e:	a83d                	j	1556c <_ZN20complex_full_dynamic3app17hac946f4a1b5d8839E+0xde>
   15530:	4501                	li	a0,0
   15532:	c0be                	sw	a5,64(sp)
   15534:	c282                	sw	zero,68(sp)
   15536:	04c10423          	sb	a2,72(sp)
   1553a:	e90d                	bnez	a0,1556c <_ZN20complex_full_dynamic3app17hac946f4a1b5d8839E+0xde>
   1553c:	6505                	lui	a0,0x1
   1553e:	45a5                	li	a1,9
   15540:	b4c50513          	addi	a0,a0,-1204 # b4c <.Lline_table_start1+0x921>
   15544:	4709                	li	a4,2
   15546:	07f00793          	li	a5,127
   1554a:	4601                	li	a2,0
   1554c:	4681                	li	a3,0
   1554e:	00000073          	ecall
   15552:	00a7fd63          	bgeu	a5,a0,1556c <_ZN20complex_full_dynamic3app17hac946f4a1b5d8839E+0xde>
   15556:	0068                	addi	a0,sp,12
   15558:	00007097          	auipc	ra,0x7
   1555c:	538080e7          	jalr	1336(ra) # 1ca90 <_ZN9allow_pin12full_dynamic17unshare_if_shared17h4e6b4433fd7c2282E>
   15560:	0088                	addi	a0,sp,64
   15562:	00007097          	auipc	ra,0x7
   15566:	52e080e7          	jalr	1326(ra) # 1ca90 <_ZN9allow_pin12full_dynamic17unshare_if_shared17h4e6b4433fd7c2282E>
   1556a:	4481                	li	s1,0
   1556c:	c489                	beqz	s1,15576 <_ZN20complex_full_dynamic3app17hac946f4a1b5d8839E+0xe8>
   1556e:	00b9a223          	sw	a1,4(s3)
   15572:	4505                	li	a0,1
   15574:	a005                	j	15594 <_ZN20complex_full_dynamic3app17hac946f4a1b5d8839E+0x106>
   15576:	0088                	addi	a0,sp,64
   15578:	00007097          	auipc	ra,0x7
   1557c:	518080e7          	jalr	1304(ra) # 1ca90 <_ZN9allow_pin12full_dynamic17unshare_if_shared17h4e6b4433fd7c2282E>
   15580:	00198513          	addi	a0,s3,1
   15584:	04f00613          	li	a2,79
   15588:	85ca                	mv	a1,s2
   1558a:	00007097          	auipc	ra,0x7
   1558e:	592080e7          	jalr	1426(ra) # 1cb1c <memcpy>
   15592:	4501                	li	a0,0
   15594:	00a98023          	sb	a0,0(s3)
   15598:	0088                	addi	a0,sp,64
   1559a:	00007097          	auipc	ra,0x7
   1559e:	4f6080e7          	jalr	1270(ra) # 1ca90 <_ZN9allow_pin12full_dynamic17unshare_if_shared17h4e6b4433fd7c2282E>
   155a2:	0068                	addi	a0,sp,12
   155a4:	00007097          	auipc	ra,0x7
   155a8:	4ec080e7          	jalr	1260(ra) # 1ca90 <_ZN9allow_pin12full_dynamic17unshare_if_shared17h4e6b4433fd7c2282E>
   155ac:	50ba                	lw	ra,172(sp)
   155ae:	542a                	lw	s0,168(sp)
   155b0:	549a                	lw	s1,164(sp)
   155b2:	590a                	lw	s2,160(sp)
   155b4:	49fa                	lw	s3,156(sp)
   155b6:	614d                	addi	sp,sp,176
   155b8:	8082                	ret

000155ba <_ZN20complex_full_dynamic3app17haf870d338bbe576aE>:
   155ba:	7159                	addi	sp,sp,-112
   155bc:	d686                	sw	ra,108(sp)
   155be:	d4a2                	sw	s0,104(sp)
   155c0:	d2a6                	sw	s1,100(sp)
   155c2:	d0ca                	sw	s2,96(sp)
   155c4:	cece                	sw	s3,92(sp)
   155c6:	89aa                	mv	s3,a0
   155c8:	4409                	li	s0,2
   155ca:	00810423          	sb	s0,8(sp)
   155ce:	0064                	addi	s1,sp,12
   155d0:	4679                	li	a2,30
   155d2:	8526                	mv	a0,s1
   155d4:	00007097          	auipc	ra,0x7
   155d8:	548080e7          	jalr	1352(ra) # 1cb1c <memcpy>
   155dc:	03810913          	addi	s2,sp,56
   155e0:	02100613          	li	a2,33
   155e4:	854a                	mv	a0,s2
   155e6:	4581                	li	a1,0
   155e8:	00007097          	auipc	ra,0x7
   155ec:	4c8080e7          	jalr	1224(ra) # 1cab0 <memset>
   155f0:	8626                	mv	a2,s1
   155f2:	02810a23          	sb	s0,52(sp)
   155f6:	6509                	lui	a0,0x2
   155f8:	4499                	li	s1,6
   155fa:	4811                	li	a6,4
   155fc:	4599                	li	a1,6
   155fe:	9b550793          	addi	a5,a0,-1611 # 19b5 <.Lline_table_start1+0x178a>
   15602:	46f9                	li	a3,30
   15604:	4711                	li	a4,4
   15606:	853e                	mv	a0,a5
   15608:	00000073          	ecall
   1560c:	00850663          	beq	a0,s0,15618 <_ZN20complex_full_dynamic3app17haf870d338bbe576aE+0x5e>
   15610:	c03e                	sw	a5,0(sp)
   15612:	c226                	sw	s1,4(sp)
   15614:	01010423          	sb	a6,8(sp)
   15618:	4609                	li	a2,2
   1561a:	00c51463          	bne	a0,a2,15622 <_ZN20complex_full_dynamic3app17haf870d338bbe576aE+0x68>
   1561e:	4485                	li	s1,1
   15620:	a89d                	j	15696 <_ZN20complex_full_dynamic3app17haf870d338bbe576aE+0xdc>
   15622:	03414503          	lbu	a0,52(sp)
   15626:	4485                	li	s1,1
   15628:	02c51563          	bne	a0,a2,15652 <_ZN20complex_full_dynamic3app17haf870d338bbe576aE+0x98>
   1562c:	864a                	mv	a2,s2
   1562e:	6509                	lui	a0,0x2
   15630:	4825                	li	a6,9
   15632:	45a5                	li	a1,9
   15634:	02100693          	li	a3,33
   15638:	470d                	li	a4,3
   1563a:	9b550793          	addi	a5,a0,-1611 # 19b5 <.Lline_table_start1+0x178a>
   1563e:	4409                	li	s0,2
   15640:	853e                	mv	a0,a5
   15642:	00000073          	ecall
   15646:	460d                	li	a2,3
   15648:	00851963          	bne	a0,s0,1565a <_ZN20complex_full_dynamic3app17haf870d338bbe576aE+0xa0>
   1564c:	4505                	li	a0,1
   1564e:	cd01                	beqz	a0,15666 <_ZN20complex_full_dynamic3app17haf870d338bbe576aE+0xac>
   15650:	a099                	j	15696 <_ZN20complex_full_dynamic3app17haf870d338bbe576aE+0xdc>
   15652:	458d                	li	a1,3
   15654:	4505                	li	a0,1
   15656:	c901                	beqz	a0,15666 <_ZN20complex_full_dynamic3app17haf870d338bbe576aE+0xac>
   15658:	a83d                	j	15696 <_ZN20complex_full_dynamic3app17haf870d338bbe576aE+0xdc>
   1565a:	4501                	li	a0,0
   1565c:	d63e                	sw	a5,44(sp)
   1565e:	d842                	sw	a6,48(sp)
   15660:	02c10a23          	sb	a2,52(sp)
   15664:	e90d                	bnez	a0,15696 <_ZN20complex_full_dynamic3app17haf870d338bbe576aE+0xdc>
   15666:	6509                	lui	a0,0x2
   15668:	4599                	li	a1,6
   1566a:	4625                	li	a2,9
   1566c:	9b550513          	addi	a0,a0,-1611 # 19b5 <.Lline_table_start1+0x178a>
   15670:	4709                	li	a4,2
   15672:	07f00793          	li	a5,127
   15676:	4681                	li	a3,0
   15678:	00000073          	ecall
   1567c:	00a7fd63          	bgeu	a5,a0,15696 <_ZN20complex_full_dynamic3app17haf870d338bbe576aE+0xdc>
   15680:	850a                	mv	a0,sp
   15682:	00007097          	auipc	ra,0x7
   15686:	40e080e7          	jalr	1038(ra) # 1ca90 <_ZN9allow_pin12full_dynamic17unshare_if_shared17h4e6b4433fd7c2282E>
   1568a:	1068                	addi	a0,sp,44
   1568c:	00007097          	auipc	ra,0x7
   15690:	404080e7          	jalr	1028(ra) # 1ca90 <_ZN9allow_pin12full_dynamic17unshare_if_shared17h4e6b4433fd7c2282E>
   15694:	4481                	li	s1,0
   15696:	c489                	beqz	s1,156a0 <_ZN20complex_full_dynamic3app17haf870d338bbe576aE+0xe6>
   15698:	00b9a223          	sw	a1,4(s3)
   1569c:	4505                	li	a0,1
   1569e:	a005                	j	156be <_ZN20complex_full_dynamic3app17haf870d338bbe576aE+0x104>
   156a0:	1068                	addi	a0,sp,44
   156a2:	00007097          	auipc	ra,0x7
   156a6:	3ee080e7          	jalr	1006(ra) # 1ca90 <_ZN9allow_pin12full_dynamic17unshare_if_shared17h4e6b4433fd7c2282E>
   156aa:	00198513          	addi	a0,s3,1
   156ae:	02100613          	li	a2,33
   156b2:	85ca                	mv	a1,s2
   156b4:	00007097          	auipc	ra,0x7
   156b8:	468080e7          	jalr	1128(ra) # 1cb1c <memcpy>
   156bc:	4501                	li	a0,0
   156be:	00a98023          	sb	a0,0(s3)
   156c2:	1068                	addi	a0,sp,44
   156c4:	00007097          	auipc	ra,0x7
   156c8:	3cc080e7          	jalr	972(ra) # 1ca90 <_ZN9allow_pin12full_dynamic17unshare_if_shared17h4e6b4433fd7c2282E>
   156cc:	850a                	mv	a0,sp
   156ce:	00007097          	auipc	ra,0x7
   156d2:	3c2080e7          	jalr	962(ra) # 1ca90 <_ZN9allow_pin12full_dynamic17unshare_if_shared17h4e6b4433fd7c2282E>
   156d6:	50b6                	lw	ra,108(sp)
   156d8:	5426                	lw	s0,104(sp)
   156da:	5496                	lw	s1,100(sp)
   156dc:	5906                	lw	s2,96(sp)
   156de:	49f6                	lw	s3,92(sp)
   156e0:	6165                	addi	sp,sp,112
   156e2:	8082                	ret

000156e4 <_ZN20complex_full_dynamic3app17hb09b425afdba9dcaE>:
   156e4:	7131                	addi	sp,sp,-192
   156e6:	df06                	sw	ra,188(sp)
   156e8:	dd22                	sw	s0,184(sp)
   156ea:	db26                	sw	s1,180(sp)
   156ec:	d94a                	sw	s2,176(sp)
   156ee:	d74e                	sw	s3,172(sp)
   156f0:	89aa                	mv	s3,a0
   156f2:	4409                	li	s0,2
   156f4:	00810623          	sb	s0,12(sp)
   156f8:	0804                	addi	s1,sp,16
   156fa:	02a00613          	li	a2,42
   156fe:	8526                	mv	a0,s1
   15700:	00007097          	auipc	ra,0x7
   15704:	41c080e7          	jalr	1052(ra) # 1cb1c <memcpy>
   15708:	04810913          	addi	s2,sp,72
   1570c:	06300613          	li	a2,99
   15710:	854a                	mv	a0,s2
   15712:	4581                	li	a1,0
   15714:	00007097          	auipc	ra,0x7
   15718:	39c080e7          	jalr	924(ra) # 1cab0 <memset>
   1571c:	8626                	mv	a2,s1
   1571e:	04810223          	sb	s0,68(sp)
   15722:	6509                	lui	a0,0x2
   15724:	4491                	li	s1,4
   15726:	4591                	li	a1,4
   15728:	c7c50793          	addi	a5,a0,-900 # 1c7c <.Lline_table_start1+0x1a51>
   1572c:	02a00693          	li	a3,42
   15730:	4711                	li	a4,4
   15732:	853e                	mv	a0,a5
   15734:	00000073          	ecall
   15738:	00850663          	beq	a0,s0,15744 <_ZN20complex_full_dynamic3app17hb09b425afdba9dcaE+0x60>
   1573c:	c23e                	sw	a5,4(sp)
   1573e:	c426                	sw	s1,8(sp)
   15740:	00910623          	sb	s1,12(sp)
   15744:	4609                	li	a2,2
   15746:	00c51463          	bne	a0,a2,1574e <_ZN20complex_full_dynamic3app17hb09b425afdba9dcaE+0x6a>
   1574a:	4485                	li	s1,1
   1574c:	a895                	j	157c0 <_ZN20complex_full_dynamic3app17hb09b425afdba9dcaE+0xdc>
   1574e:	04414503          	lbu	a0,68(sp)
   15752:	4485                	li	s1,1
   15754:	02c51463          	bne	a0,a2,1577c <_ZN20complex_full_dynamic3app17hb09b425afdba9dcaE+0x98>
   15758:	4581                	li	a1,0
   1575a:	864a                	mv	a2,s2
   1575c:	6509                	lui	a0,0x2
   1575e:	06300693          	li	a3,99
   15762:	470d                	li	a4,3
   15764:	c7c50793          	addi	a5,a0,-900 # 1c7c <.Lline_table_start1+0x1a51>
   15768:	4409                	li	s0,2
   1576a:	853e                	mv	a0,a5
   1576c:	00000073          	ecall
   15770:	460d                	li	a2,3
   15772:	00851963          	bne	a0,s0,15784 <_ZN20complex_full_dynamic3app17hb09b425afdba9dcaE+0xa0>
   15776:	4505                	li	a0,1
   15778:	cd01                	beqz	a0,15790 <_ZN20complex_full_dynamic3app17hb09b425afdba9dcaE+0xac>
   1577a:	a099                	j	157c0 <_ZN20complex_full_dynamic3app17hb09b425afdba9dcaE+0xdc>
   1577c:	458d                	li	a1,3
   1577e:	4505                	li	a0,1
   15780:	c901                	beqz	a0,15790 <_ZN20complex_full_dynamic3app17hb09b425afdba9dcaE+0xac>
   15782:	a83d                	j	157c0 <_ZN20complex_full_dynamic3app17hb09b425afdba9dcaE+0xdc>
   15784:	4501                	li	a0,0
   15786:	de3e                	sw	a5,60(sp)
   15788:	c082                	sw	zero,64(sp)
   1578a:	04c10223          	sb	a2,68(sp)
   1578e:	e90d                	bnez	a0,157c0 <_ZN20complex_full_dynamic3app17hb09b425afdba9dcaE+0xdc>
   15790:	6509                	lui	a0,0x2
   15792:	4591                	li	a1,4
   15794:	c7c50513          	addi	a0,a0,-900 # 1c7c <.Lline_table_start1+0x1a51>
   15798:	4709                	li	a4,2
   1579a:	07f00793          	li	a5,127
   1579e:	4601                	li	a2,0
   157a0:	4681                	li	a3,0
   157a2:	00000073          	ecall
   157a6:	00a7fd63          	bgeu	a5,a0,157c0 <_ZN20complex_full_dynamic3app17hb09b425afdba9dcaE+0xdc>
   157aa:	0048                	addi	a0,sp,4
   157ac:	00007097          	auipc	ra,0x7
   157b0:	2e4080e7          	jalr	740(ra) # 1ca90 <_ZN9allow_pin12full_dynamic17unshare_if_shared17h4e6b4433fd7c2282E>
   157b4:	1868                	addi	a0,sp,60
   157b6:	00007097          	auipc	ra,0x7
   157ba:	2da080e7          	jalr	730(ra) # 1ca90 <_ZN9allow_pin12full_dynamic17unshare_if_shared17h4e6b4433fd7c2282E>
   157be:	4481                	li	s1,0
   157c0:	c489                	beqz	s1,157ca <_ZN20complex_full_dynamic3app17hb09b425afdba9dcaE+0xe6>
   157c2:	00b9a223          	sw	a1,4(s3)
   157c6:	4505                	li	a0,1
   157c8:	a005                	j	157e8 <_ZN20complex_full_dynamic3app17hb09b425afdba9dcaE+0x104>
   157ca:	1868                	addi	a0,sp,60
   157cc:	00007097          	auipc	ra,0x7
   157d0:	2c4080e7          	jalr	708(ra) # 1ca90 <_ZN9allow_pin12full_dynamic17unshare_if_shared17h4e6b4433fd7c2282E>
   157d4:	00198513          	addi	a0,s3,1
   157d8:	06300613          	li	a2,99
   157dc:	85ca                	mv	a1,s2
   157de:	00007097          	auipc	ra,0x7
   157e2:	33e080e7          	jalr	830(ra) # 1cb1c <memcpy>
   157e6:	4501                	li	a0,0
   157e8:	00a98023          	sb	a0,0(s3)
   157ec:	1868                	addi	a0,sp,60
   157ee:	00007097          	auipc	ra,0x7
   157f2:	2a2080e7          	jalr	674(ra) # 1ca90 <_ZN9allow_pin12full_dynamic17unshare_if_shared17h4e6b4433fd7c2282E>
   157f6:	0048                	addi	a0,sp,4
   157f8:	00007097          	auipc	ra,0x7
   157fc:	298080e7          	jalr	664(ra) # 1ca90 <_ZN9allow_pin12full_dynamic17unshare_if_shared17h4e6b4433fd7c2282E>
   15800:	50fa                	lw	ra,188(sp)
   15802:	546a                	lw	s0,184(sp)
   15804:	54da                	lw	s1,180(sp)
   15806:	594a                	lw	s2,176(sp)
   15808:	59ba                	lw	s3,172(sp)
   1580a:	6129                	addi	sp,sp,192
   1580c:	8082                	ret

0001580e <_ZN20complex_full_dynamic3app17hb206183bff928d9dE>:
   1580e:	7159                	addi	sp,sp,-112
   15810:	d686                	sw	ra,108(sp)
   15812:	d4a2                	sw	s0,104(sp)
   15814:	d2a6                	sw	s1,100(sp)
   15816:	d0ca                	sw	s2,96(sp)
   15818:	cece                	sw	s3,92(sp)
   1581a:	89aa                	mv	s3,a0
   1581c:	4409                	li	s0,2
   1581e:	00810a23          	sb	s0,20(sp)
   15822:	0824                	addi	s1,sp,24
   15824:	4661                	li	a2,24
   15826:	8526                	mv	a0,s1
   15828:	00007097          	auipc	ra,0x7
   1582c:	2f4080e7          	jalr	756(ra) # 1cb1c <memcpy>
   15830:	8626                	mv	a2,s1
   15832:	04011c23          	sh	zero,88(sp)
   15836:	c482                	sw	zero,72(sp)
   15838:	c682                	sw	zero,76(sp)
   1583a:	c882                	sw	zero,80(sp)
   1583c:	ca82                	sw	zero,84(sp)
   1583e:	02810c23          	sb	s0,56(sp)
   15842:	de02                	sw	zero,60(sp)
   15844:	c082                	sw	zero,64(sp)
   15846:	c282                	sw	zero,68(sp)
   15848:	6505                	lui	a0,0x1
   1584a:	44a5                	li	s1,9
   1584c:	4811                	li	a6,4
   1584e:	45a5                	li	a1,9
   15850:	cbb50793          	addi	a5,a0,-837 # cbb <.Lline_table_start1+0xa90>
   15854:	46e1                	li	a3,24
   15856:	4711                	li	a4,4
   15858:	853e                	mv	a0,a5
   1585a:	00000073          	ecall
   1585e:	00850663          	beq	a0,s0,1586a <_ZN20complex_full_dynamic3app17hb206183bff928d9dE+0x5c>
   15862:	c63e                	sw	a5,12(sp)
   15864:	c826                	sw	s1,16(sp)
   15866:	01010a23          	sb	a6,20(sp)
   1586a:	4609                	li	a2,2
   1586c:	03c10913          	addi	s2,sp,60
   15870:	00c51463          	bne	a0,a2,15878 <_ZN20complex_full_dynamic3app17hb206183bff928d9dE+0x6a>
   15874:	4485                	li	s1,1
   15876:	a895                	j	158ea <_ZN20complex_full_dynamic3app17hb206183bff928d9dE+0xdc>
   15878:	03814503          	lbu	a0,56(sp)
   1587c:	4485                	li	s1,1
   1587e:	02c51463          	bne	a0,a2,158a6 <_ZN20complex_full_dynamic3app17hb206183bff928d9dE+0x98>
   15882:	864a                	mv	a2,s2
   15884:	6505                	lui	a0,0x1
   15886:	4815                	li	a6,5
   15888:	4595                	li	a1,5
   1588a:	46f9                	li	a3,30
   1588c:	470d                	li	a4,3
   1588e:	cbb50793          	addi	a5,a0,-837 # cbb <.Lline_table_start1+0xa90>
   15892:	4409                	li	s0,2
   15894:	853e                	mv	a0,a5
   15896:	00000073          	ecall
   1589a:	460d                	li	a2,3
   1589c:	00851963          	bne	a0,s0,158ae <_ZN20complex_full_dynamic3app17hb206183bff928d9dE+0xa0>
   158a0:	4505                	li	a0,1
   158a2:	cd01                	beqz	a0,158ba <_ZN20complex_full_dynamic3app17hb206183bff928d9dE+0xac>
   158a4:	a099                	j	158ea <_ZN20complex_full_dynamic3app17hb206183bff928d9dE+0xdc>
   158a6:	458d                	li	a1,3
   158a8:	4505                	li	a0,1
   158aa:	c901                	beqz	a0,158ba <_ZN20complex_full_dynamic3app17hb206183bff928d9dE+0xac>
   158ac:	a83d                	j	158ea <_ZN20complex_full_dynamic3app17hb206183bff928d9dE+0xdc>
   158ae:	4501                	li	a0,0
   158b0:	d83e                	sw	a5,48(sp)
   158b2:	da42                	sw	a6,52(sp)
   158b4:	02c10c23          	sb	a2,56(sp)
   158b8:	e90d                	bnez	a0,158ea <_ZN20complex_full_dynamic3app17hb206183bff928d9dE+0xdc>
   158ba:	6505                	lui	a0,0x1
   158bc:	45a5                	li	a1,9
   158be:	4615                	li	a2,5
   158c0:	cbb50513          	addi	a0,a0,-837 # cbb <.Lline_table_start1+0xa90>
   158c4:	4709                	li	a4,2
   158c6:	07f00793          	li	a5,127
   158ca:	4681                	li	a3,0
   158cc:	00000073          	ecall
   158d0:	00a7fd63          	bgeu	a5,a0,158ea <_ZN20complex_full_dynamic3app17hb206183bff928d9dE+0xdc>
   158d4:	0068                	addi	a0,sp,12
   158d6:	00007097          	auipc	ra,0x7
   158da:	1ba080e7          	jalr	442(ra) # 1ca90 <_ZN9allow_pin12full_dynamic17unshare_if_shared17h4e6b4433fd7c2282E>
   158de:	1808                	addi	a0,sp,48
   158e0:	00007097          	auipc	ra,0x7
   158e4:	1b0080e7          	jalr	432(ra) # 1ca90 <_ZN9allow_pin12full_dynamic17unshare_if_shared17h4e6b4433fd7c2282E>
   158e8:	4481                	li	s1,0
   158ea:	c489                	beqz	s1,158f4 <_ZN20complex_full_dynamic3app17hb206183bff928d9dE+0xe6>
   158ec:	00b9a223          	sw	a1,4(s3)
   158f0:	4505                	li	a0,1
   158f2:	a839                	j	15910 <_ZN20complex_full_dynamic3app17hb206183bff928d9dE+0x102>
   158f4:	1808                	addi	a0,sp,48
   158f6:	00007097          	auipc	ra,0x7
   158fa:	19a080e7          	jalr	410(ra) # 1ca90 <_ZN9allow_pin12full_dynamic17unshare_if_shared17h4e6b4433fd7c2282E>
   158fe:	00198513          	addi	a0,s3,1
   15902:	4679                	li	a2,30
   15904:	85ca                	mv	a1,s2
   15906:	00007097          	auipc	ra,0x7
   1590a:	216080e7          	jalr	534(ra) # 1cb1c <memcpy>
   1590e:	4501                	li	a0,0
   15910:	00a98023          	sb	a0,0(s3)
   15914:	1808                	addi	a0,sp,48
   15916:	00007097          	auipc	ra,0x7
   1591a:	17a080e7          	jalr	378(ra) # 1ca90 <_ZN9allow_pin12full_dynamic17unshare_if_shared17h4e6b4433fd7c2282E>
   1591e:	0068                	addi	a0,sp,12
   15920:	00007097          	auipc	ra,0x7
   15924:	170080e7          	jalr	368(ra) # 1ca90 <_ZN9allow_pin12full_dynamic17unshare_if_shared17h4e6b4433fd7c2282E>
   15928:	50b6                	lw	ra,108(sp)
   1592a:	5426                	lw	s0,104(sp)
   1592c:	5496                	lw	s1,100(sp)
   1592e:	5906                	lw	s2,96(sp)
   15930:	49f6                	lw	s3,92(sp)
   15932:	6165                	addi	sp,sp,112
   15934:	8082                	ret

00015936 <_ZN20complex_full_dynamic3app17hb21ebd91f957d859E>:
   15936:	7119                	addi	sp,sp,-128
   15938:	de86                	sw	ra,124(sp)
   1593a:	dca2                	sw	s0,120(sp)
   1593c:	daa6                	sw	s1,116(sp)
   1593e:	d8ca                	sw	s2,112(sp)
   15940:	d6ce                	sw	s3,108(sp)
   15942:	89aa                	mv	s3,a0
   15944:	4409                	li	s0,2
   15946:	00810423          	sb	s0,8(sp)
   1594a:	0064                	addi	s1,sp,12
   1594c:	02c00613          	li	a2,44
   15950:	8526                	mv	a0,s1
   15952:	00007097          	auipc	ra,0x7
   15956:	1ca080e7          	jalr	458(ra) # 1cb1c <memcpy>
   1595a:	04410913          	addi	s2,sp,68
   1595e:	02500613          	li	a2,37
   15962:	854a                	mv	a0,s2
   15964:	4581                	li	a1,0
   15966:	00007097          	auipc	ra,0x7
   1596a:	14a080e7          	jalr	330(ra) # 1cab0 <memset>
   1596e:	8626                	mv	a2,s1
   15970:	04810023          	sb	s0,64(sp)
   15974:	77f00793          	li	a5,1919
   15978:	448d                	li	s1,3
   1597a:	4811                	li	a6,4
   1597c:	77f00513          	li	a0,1919
   15980:	458d                	li	a1,3
   15982:	02c00693          	li	a3,44
   15986:	4711                	li	a4,4
   15988:	00000073          	ecall
   1598c:	00850663          	beq	a0,s0,15998 <_ZN20complex_full_dynamic3app17hb21ebd91f957d859E+0x62>
   15990:	c03e                	sw	a5,0(sp)
   15992:	c226                	sw	s1,4(sp)
   15994:	01010423          	sb	a6,8(sp)
   15998:	4609                	li	a2,2
   1599a:	00c51463          	bne	a0,a2,159a2 <_ZN20complex_full_dynamic3app17hb21ebd91f957d859E+0x6c>
   1599e:	4785                	li	a5,1
   159a0:	a88d                	j	15a12 <_ZN20complex_full_dynamic3app17hb21ebd91f957d859E+0xdc>
   159a2:	04014503          	lbu	a0,64(sp)
   159a6:	4785                	li	a5,1
   159a8:	02c51463          	bne	a0,a2,159d0 <_ZN20complex_full_dynamic3app17hb21ebd91f957d859E+0x9a>
   159ac:	4581                	li	a1,0
   159ae:	864a                	mv	a2,s2
   159b0:	77f00493          	li	s1,1919
   159b4:	77f00513          	li	a0,1919
   159b8:	02500693          	li	a3,37
   159bc:	470d                	li	a4,3
   159be:	4409                	li	s0,2
   159c0:	00000073          	ecall
   159c4:	460d                	li	a2,3
   159c6:	00851963          	bne	a0,s0,159d8 <_ZN20complex_full_dynamic3app17hb21ebd91f957d859E+0xa2>
   159ca:	4505                	li	a0,1
   159cc:	cd01                	beqz	a0,159e4 <_ZN20complex_full_dynamic3app17hb21ebd91f957d859E+0xae>
   159ce:	a091                	j	15a12 <_ZN20complex_full_dynamic3app17hb21ebd91f957d859E+0xdc>
   159d0:	458d                	li	a1,3
   159d2:	4505                	li	a0,1
   159d4:	c901                	beqz	a0,159e4 <_ZN20complex_full_dynamic3app17hb21ebd91f957d859E+0xae>
   159d6:	a835                	j	15a12 <_ZN20complex_full_dynamic3app17hb21ebd91f957d859E+0xdc>
   159d8:	4501                	li	a0,0
   159da:	dc26                	sw	s1,56(sp)
   159dc:	de02                	sw	zero,60(sp)
   159de:	04c10023          	sb	a2,64(sp)
   159e2:	e905                	bnez	a0,15a12 <_ZN20complex_full_dynamic3app17hb21ebd91f957d859E+0xdc>
   159e4:	77f00513          	li	a0,1919
   159e8:	458d                	li	a1,3
   159ea:	4709                	li	a4,2
   159ec:	07f00493          	li	s1,127
   159f0:	4601                	li	a2,0
   159f2:	4681                	li	a3,0
   159f4:	00000073          	ecall
   159f8:	00a4fd63          	bgeu	s1,a0,15a12 <_ZN20complex_full_dynamic3app17hb21ebd91f957d859E+0xdc>
   159fc:	850a                	mv	a0,sp
   159fe:	00007097          	auipc	ra,0x7
   15a02:	092080e7          	jalr	146(ra) # 1ca90 <_ZN9allow_pin12full_dynamic17unshare_if_shared17h4e6b4433fd7c2282E>
   15a06:	1828                	addi	a0,sp,56
   15a08:	00007097          	auipc	ra,0x7
   15a0c:	088080e7          	jalr	136(ra) # 1ca90 <_ZN9allow_pin12full_dynamic17unshare_if_shared17h4e6b4433fd7c2282E>
   15a10:	4781                	li	a5,0
   15a12:	c789                	beqz	a5,15a1c <_ZN20complex_full_dynamic3app17hb21ebd91f957d859E+0xe6>
   15a14:	00b9a223          	sw	a1,4(s3)
   15a18:	4505                	li	a0,1
   15a1a:	a005                	j	15a3a <_ZN20complex_full_dynamic3app17hb21ebd91f957d859E+0x104>
   15a1c:	1828                	addi	a0,sp,56
   15a1e:	00007097          	auipc	ra,0x7
   15a22:	072080e7          	jalr	114(ra) # 1ca90 <_ZN9allow_pin12full_dynamic17unshare_if_shared17h4e6b4433fd7c2282E>
   15a26:	00198513          	addi	a0,s3,1
   15a2a:	02500613          	li	a2,37
   15a2e:	85ca                	mv	a1,s2
   15a30:	00007097          	auipc	ra,0x7
   15a34:	0ec080e7          	jalr	236(ra) # 1cb1c <memcpy>
   15a38:	4501                	li	a0,0
   15a3a:	00a98023          	sb	a0,0(s3)
   15a3e:	1828                	addi	a0,sp,56
   15a40:	00007097          	auipc	ra,0x7
   15a44:	050080e7          	jalr	80(ra) # 1ca90 <_ZN9allow_pin12full_dynamic17unshare_if_shared17h4e6b4433fd7c2282E>
   15a48:	850a                	mv	a0,sp
   15a4a:	00007097          	auipc	ra,0x7
   15a4e:	046080e7          	jalr	70(ra) # 1ca90 <_ZN9allow_pin12full_dynamic17unshare_if_shared17h4e6b4433fd7c2282E>
   15a52:	50f6                	lw	ra,124(sp)
   15a54:	5466                	lw	s0,120(sp)
   15a56:	54d6                	lw	s1,116(sp)
   15a58:	5946                	lw	s2,112(sp)
   15a5a:	59b6                	lw	s3,108(sp)
   15a5c:	6109                	addi	sp,sp,128
   15a5e:	8082                	ret

00015a60 <_ZN20complex_full_dynamic3app17hb5ef178af38c9f37E>:
   15a60:	7131                	addi	sp,sp,-192
   15a62:	df06                	sw	ra,188(sp)
   15a64:	dd22                	sw	s0,184(sp)
   15a66:	db26                	sw	s1,180(sp)
   15a68:	d94a                	sw	s2,176(sp)
   15a6a:	d74e                	sw	s3,172(sp)
   15a6c:	89aa                	mv	s3,a0
   15a6e:	4409                	li	s0,2
   15a70:	00810623          	sb	s0,12(sp)
   15a74:	0804                	addi	s1,sp,16
   15a76:	06300613          	li	a2,99
   15a7a:	8526                	mv	a0,s1
   15a7c:	00007097          	auipc	ra,0x7
   15a80:	0a0080e7          	jalr	160(ra) # 1cb1c <memcpy>
   15a84:	08010913          	addi	s2,sp,128
   15a88:	02c00613          	li	a2,44
   15a8c:	854a                	mv	a0,s2
   15a8e:	4581                	li	a1,0
   15a90:	00007097          	auipc	ra,0x7
   15a94:	020080e7          	jalr	32(ra) # 1cab0 <memset>
   15a98:	8626                	mv	a2,s1
   15a9a:	06810e23          	sb	s0,124(sp)
   15a9e:	47e1                	li	a5,24
   15aa0:	4495                	li	s1,5
   15aa2:	4811                	li	a6,4
   15aa4:	4561                	li	a0,24
   15aa6:	4595                	li	a1,5
   15aa8:	06300693          	li	a3,99
   15aac:	4711                	li	a4,4
   15aae:	00000073          	ecall
   15ab2:	00850663          	beq	a0,s0,15abe <_ZN20complex_full_dynamic3app17hb5ef178af38c9f37E+0x5e>
   15ab6:	c23e                	sw	a5,4(sp)
   15ab8:	c426                	sw	s1,8(sp)
   15aba:	01010623          	sb	a6,12(sp)
   15abe:	4609                	li	a2,2
   15ac0:	00c51463          	bne	a0,a2,15ac8 <_ZN20complex_full_dynamic3app17hb5ef178af38c9f37E+0x68>
   15ac4:	4785                	li	a5,1
   15ac6:	a0b5                	j	15b32 <_ZN20complex_full_dynamic3app17hb5ef178af38c9f37E+0xd2>
   15ac8:	07c14503          	lbu	a0,124(sp)
   15acc:	4785                	li	a5,1
   15ace:	02c51263          	bne	a0,a2,15af2 <_ZN20complex_full_dynamic3app17hb5ef178af38c9f37E+0x92>
   15ad2:	864a                	mv	a2,s2
   15ad4:	44e1                	li	s1,24
   15ad6:	4561                	li	a0,24
   15ad8:	458d                	li	a1,3
   15ada:	02c00693          	li	a3,44
   15ade:	470d                	li	a4,3
   15ae0:	4409                	li	s0,2
   15ae2:	00000073          	ecall
   15ae6:	460d                	li	a2,3
   15ae8:	00851963          	bne	a0,s0,15afa <_ZN20complex_full_dynamic3app17hb5ef178af38c9f37E+0x9a>
   15aec:	4505                	li	a0,1
   15aee:	cd01                	beqz	a0,15b06 <_ZN20complex_full_dynamic3app17hb5ef178af38c9f37E+0xa6>
   15af0:	a089                	j	15b32 <_ZN20complex_full_dynamic3app17hb5ef178af38c9f37E+0xd2>
   15af2:	458d                	li	a1,3
   15af4:	4505                	li	a0,1
   15af6:	c901                	beqz	a0,15b06 <_ZN20complex_full_dynamic3app17hb5ef178af38c9f37E+0xa6>
   15af8:	a82d                	j	15b32 <_ZN20complex_full_dynamic3app17hb5ef178af38c9f37E+0xd2>
   15afa:	4501                	li	a0,0
   15afc:	daa6                	sw	s1,116(sp)
   15afe:	dcb2                	sw	a2,120(sp)
   15b00:	06c10e23          	sb	a2,124(sp)
   15b04:	e51d                	bnez	a0,15b32 <_ZN20complex_full_dynamic3app17hb5ef178af38c9f37E+0xd2>
   15b06:	4561                	li	a0,24
   15b08:	4595                	li	a1,5
   15b0a:	460d                	li	a2,3
   15b0c:	4709                	li	a4,2
   15b0e:	07f00493          	li	s1,127
   15b12:	4681                	li	a3,0
   15b14:	00000073          	ecall
   15b18:	00a4fd63          	bgeu	s1,a0,15b32 <_ZN20complex_full_dynamic3app17hb5ef178af38c9f37E+0xd2>
   15b1c:	0048                	addi	a0,sp,4
   15b1e:	00007097          	auipc	ra,0x7
   15b22:	f72080e7          	jalr	-142(ra) # 1ca90 <_ZN9allow_pin12full_dynamic17unshare_if_shared17h4e6b4433fd7c2282E>
   15b26:	18c8                	addi	a0,sp,116
   15b28:	00007097          	auipc	ra,0x7
   15b2c:	f68080e7          	jalr	-152(ra) # 1ca90 <_ZN9allow_pin12full_dynamic17unshare_if_shared17h4e6b4433fd7c2282E>
   15b30:	4781                	li	a5,0
   15b32:	c789                	beqz	a5,15b3c <_ZN20complex_full_dynamic3app17hb5ef178af38c9f37E+0xdc>
   15b34:	00b9a223          	sw	a1,4(s3)
   15b38:	4505                	li	a0,1
   15b3a:	a005                	j	15b5a <_ZN20complex_full_dynamic3app17hb5ef178af38c9f37E+0xfa>
   15b3c:	18c8                	addi	a0,sp,116
   15b3e:	00007097          	auipc	ra,0x7
   15b42:	f52080e7          	jalr	-174(ra) # 1ca90 <_ZN9allow_pin12full_dynamic17unshare_if_shared17h4e6b4433fd7c2282E>
   15b46:	00198513          	addi	a0,s3,1
   15b4a:	02c00613          	li	a2,44
   15b4e:	85ca                	mv	a1,s2
   15b50:	00007097          	auipc	ra,0x7
   15b54:	fcc080e7          	jalr	-52(ra) # 1cb1c <memcpy>
   15b58:	4501                	li	a0,0
   15b5a:	00a98023          	sb	a0,0(s3)
   15b5e:	18c8                	addi	a0,sp,116
   15b60:	00007097          	auipc	ra,0x7
   15b64:	f30080e7          	jalr	-208(ra) # 1ca90 <_ZN9allow_pin12full_dynamic17unshare_if_shared17h4e6b4433fd7c2282E>
   15b68:	0048                	addi	a0,sp,4
   15b6a:	00007097          	auipc	ra,0x7
   15b6e:	f26080e7          	jalr	-218(ra) # 1ca90 <_ZN9allow_pin12full_dynamic17unshare_if_shared17h4e6b4433fd7c2282E>
   15b72:	50fa                	lw	ra,188(sp)
   15b74:	546a                	lw	s0,184(sp)
   15b76:	54da                	lw	s1,180(sp)
   15b78:	594a                	lw	s2,176(sp)
   15b7a:	59ba                	lw	s3,172(sp)
   15b7c:	6129                	addi	sp,sp,192
   15b7e:	8082                	ret

00015b80 <_ZN20complex_full_dynamic3app17hba69af3325b079d2E>:
   15b80:	7175                	addi	sp,sp,-144
   15b82:	c706                	sw	ra,140(sp)
   15b84:	c522                	sw	s0,136(sp)
   15b86:	c326                	sw	s1,132(sp)
   15b88:	c14a                	sw	s2,128(sp)
   15b8a:	dece                	sw	s3,124(sp)
   15b8c:	89aa                	mv	s3,a0
   15b8e:	4409                	li	s0,2
   15b90:	00810823          	sb	s0,16(sp)
   15b94:	0844                	addi	s1,sp,20
   15b96:	04100613          	li	a2,65
   15b9a:	8526                	mv	a0,s1
   15b9c:	00007097          	auipc	ra,0x7
   15ba0:	f80080e7          	jalr	-128(ra) # 1cb1c <memcpy>
   15ba4:	8626                	mv	a2,s1
   15ba6:	d882                	sw	zero,112(sp)
   15ba8:	da82                	sw	zero,116(sp)
   15baa:	dc82                	sw	zero,120(sp)
   15bac:	06810023          	sb	s0,96(sp)
   15bb0:	d282                	sw	zero,100(sp)
   15bb2:	d482                	sw	zero,104(sp)
   15bb4:	d682                	sw	zero,108(sp)
   15bb6:	6509                	lui	a0,0x2
   15bb8:	4485                	li	s1,1
   15bba:	4811                	li	a6,4
   15bbc:	4585                	li	a1,1
   15bbe:	15650793          	addi	a5,a0,342 # 2156 <.Lline_table_start1+0x1f2b>
   15bc2:	04100693          	li	a3,65
   15bc6:	4711                	li	a4,4
   15bc8:	853e                	mv	a0,a5
   15bca:	00000073          	ecall
   15bce:	00850663          	beq	a0,s0,15bda <_ZN20complex_full_dynamic3app17hba69af3325b079d2E+0x5a>
   15bd2:	c43e                	sw	a5,8(sp)
   15bd4:	c626                	sw	s1,12(sp)
   15bd6:	01010823          	sb	a6,16(sp)
   15bda:	4609                	li	a2,2
   15bdc:	06410913          	addi	s2,sp,100
   15be0:	00c51463          	bne	a0,a2,15be8 <_ZN20complex_full_dynamic3app17hba69af3325b079d2E+0x68>
   15be4:	4485                	li	s1,1
   15be6:	a89d                	j	15c5c <_ZN20complex_full_dynamic3app17hba69af3325b079d2E+0xdc>
   15be8:	06014503          	lbu	a0,96(sp)
   15bec:	4485                	li	s1,1
   15bee:	02c51463          	bne	a0,a2,15c16 <_ZN20complex_full_dynamic3app17hba69af3325b079d2E+0x96>
   15bf2:	864a                	mv	a2,s2
   15bf4:	6509                	lui	a0,0x2
   15bf6:	4825                	li	a6,9
   15bf8:	45a5                	li	a1,9
   15bfa:	46e1                	li	a3,24
   15bfc:	470d                	li	a4,3
   15bfe:	15650793          	addi	a5,a0,342 # 2156 <.Lline_table_start1+0x1f2b>
   15c02:	4409                	li	s0,2
   15c04:	853e                	mv	a0,a5
   15c06:	00000073          	ecall
   15c0a:	460d                	li	a2,3
   15c0c:	00851963          	bne	a0,s0,15c1e <_ZN20complex_full_dynamic3app17hba69af3325b079d2E+0x9e>
   15c10:	4505                	li	a0,1
   15c12:	cd01                	beqz	a0,15c2a <_ZN20complex_full_dynamic3app17hba69af3325b079d2E+0xaa>
   15c14:	a0a1                	j	15c5c <_ZN20complex_full_dynamic3app17hba69af3325b079d2E+0xdc>
   15c16:	458d                	li	a1,3
   15c18:	4505                	li	a0,1
   15c1a:	c901                	beqz	a0,15c2a <_ZN20complex_full_dynamic3app17hba69af3325b079d2E+0xaa>
   15c1c:	a081                	j	15c5c <_ZN20complex_full_dynamic3app17hba69af3325b079d2E+0xdc>
   15c1e:	4501                	li	a0,0
   15c20:	ccbe                	sw	a5,88(sp)
   15c22:	cec2                	sw	a6,92(sp)
   15c24:	06c10023          	sb	a2,96(sp)
   15c28:	e915                	bnez	a0,15c5c <_ZN20complex_full_dynamic3app17hba69af3325b079d2E+0xdc>
   15c2a:	4681                	li	a3,0
   15c2c:	6509                	lui	a0,0x2
   15c2e:	4585                	li	a1,1
   15c30:	4625                	li	a2,9
   15c32:	4709                	li	a4,2
   15c34:	15650513          	addi	a0,a0,342 # 2156 <.Lline_table_start1+0x1f2b>
   15c38:	07f00793          	li	a5,127
   15c3c:	00000073          	ecall
   15c40:	4485                	li	s1,1
   15c42:	00a7fd63          	bgeu	a5,a0,15c5c <_ZN20complex_full_dynamic3app17hba69af3325b079d2E+0xdc>
   15c46:	0028                	addi	a0,sp,8
   15c48:	00007097          	auipc	ra,0x7
   15c4c:	e48080e7          	jalr	-440(ra) # 1ca90 <_ZN9allow_pin12full_dynamic17unshare_if_shared17h4e6b4433fd7c2282E>
   15c50:	08a8                	addi	a0,sp,88
   15c52:	00007097          	auipc	ra,0x7
   15c56:	e3e080e7          	jalr	-450(ra) # 1ca90 <_ZN9allow_pin12full_dynamic17unshare_if_shared17h4e6b4433fd7c2282E>
   15c5a:	4481                	li	s1,0
   15c5c:	c489                	beqz	s1,15c66 <_ZN20complex_full_dynamic3app17hba69af3325b079d2E+0xe6>
   15c5e:	00b9a223          	sw	a1,4(s3)
   15c62:	4505                	li	a0,1
   15c64:	a839                	j	15c82 <_ZN20complex_full_dynamic3app17hba69af3325b079d2E+0x102>
   15c66:	08a8                	addi	a0,sp,88
   15c68:	00007097          	auipc	ra,0x7
   15c6c:	e28080e7          	jalr	-472(ra) # 1ca90 <_ZN9allow_pin12full_dynamic17unshare_if_shared17h4e6b4433fd7c2282E>
   15c70:	00198513          	addi	a0,s3,1
   15c74:	4661                	li	a2,24
   15c76:	85ca                	mv	a1,s2
   15c78:	00007097          	auipc	ra,0x7
   15c7c:	ea4080e7          	jalr	-348(ra) # 1cb1c <memcpy>
   15c80:	4501                	li	a0,0
   15c82:	00a98023          	sb	a0,0(s3)
   15c86:	08a8                	addi	a0,sp,88
   15c88:	00007097          	auipc	ra,0x7
   15c8c:	e08080e7          	jalr	-504(ra) # 1ca90 <_ZN9allow_pin12full_dynamic17unshare_if_shared17h4e6b4433fd7c2282E>
   15c90:	0028                	addi	a0,sp,8
   15c92:	00007097          	auipc	ra,0x7
   15c96:	dfe080e7          	jalr	-514(ra) # 1ca90 <_ZN9allow_pin12full_dynamic17unshare_if_shared17h4e6b4433fd7c2282E>
   15c9a:	40ba                	lw	ra,140(sp)
   15c9c:	442a                	lw	s0,136(sp)
   15c9e:	449a                	lw	s1,132(sp)
   15ca0:	490a                	lw	s2,128(sp)
   15ca2:	59f6                	lw	s3,124(sp)
   15ca4:	6149                	addi	sp,sp,144
   15ca6:	8082                	ret

00015ca8 <_ZN20complex_full_dynamic3app17hbe1a2052e8db2b3cE>:
   15ca8:	7119                	addi	sp,sp,-128
   15caa:	de86                	sw	ra,124(sp)
   15cac:	dca2                	sw	s0,120(sp)
   15cae:	daa6                	sw	s1,116(sp)
   15cb0:	d8ca                	sw	s2,112(sp)
   15cb2:	d6ce                	sw	s3,108(sp)
   15cb4:	89aa                	mv	s3,a0
   15cb6:	4409                	li	s0,2
   15cb8:	00810423          	sb	s0,8(sp)
   15cbc:	0064                	addi	s1,sp,12
   15cbe:	4645                	li	a2,17
   15cc0:	8526                	mv	a0,s1
   15cc2:	00007097          	auipc	ra,0x7
   15cc6:	e5a080e7          	jalr	-422(ra) # 1cb1c <memcpy>
   15cca:	02c10913          	addi	s2,sp,44
   15cce:	03f00613          	li	a2,63
   15cd2:	854a                	mv	a0,s2
   15cd4:	4581                	li	a1,0
   15cd6:	00007097          	auipc	ra,0x7
   15cda:	dda080e7          	jalr	-550(ra) # 1cab0 <memset>
   15cde:	8626                	mv	a2,s1
   15ce0:	02810423          	sb	s0,40(sp)
   15ce4:	6505                	lui	a0,0x1
   15ce6:	449d                	li	s1,7
   15ce8:	4811                	li	a6,4
   15cea:	459d                	li	a1,7
   15cec:	cb050793          	addi	a5,a0,-848 # cb0 <.Lline_table_start1+0xa85>
   15cf0:	46c5                	li	a3,17
   15cf2:	4711                	li	a4,4
   15cf4:	853e                	mv	a0,a5
   15cf6:	00000073          	ecall
   15cfa:	00850663          	beq	a0,s0,15d06 <_ZN20complex_full_dynamic3app17hbe1a2052e8db2b3cE+0x5e>
   15cfe:	c03e                	sw	a5,0(sp)
   15d00:	c226                	sw	s1,4(sp)
   15d02:	01010423          	sb	a6,8(sp)
   15d06:	4609                	li	a2,2
   15d08:	00c51463          	bne	a0,a2,15d10 <_ZN20complex_full_dynamic3app17hbe1a2052e8db2b3cE+0x68>
   15d0c:	4485                	li	s1,1
   15d0e:	a89d                	j	15d84 <_ZN20complex_full_dynamic3app17hbe1a2052e8db2b3cE+0xdc>
   15d10:	02814503          	lbu	a0,40(sp)
   15d14:	4485                	li	s1,1
   15d16:	02c51563          	bne	a0,a2,15d40 <_ZN20complex_full_dynamic3app17hbe1a2052e8db2b3cE+0x98>
   15d1a:	864a                	mv	a2,s2
   15d1c:	6505                	lui	a0,0x1
   15d1e:	4811                	li	a6,4
   15d20:	4591                	li	a1,4
   15d22:	03f00693          	li	a3,63
   15d26:	470d                	li	a4,3
   15d28:	cb050793          	addi	a5,a0,-848 # cb0 <.Lline_table_start1+0xa85>
   15d2c:	4409                	li	s0,2
   15d2e:	853e                	mv	a0,a5
   15d30:	00000073          	ecall
   15d34:	460d                	li	a2,3
   15d36:	00851963          	bne	a0,s0,15d48 <_ZN20complex_full_dynamic3app17hbe1a2052e8db2b3cE+0xa0>
   15d3a:	4505                	li	a0,1
   15d3c:	cd01                	beqz	a0,15d54 <_ZN20complex_full_dynamic3app17hbe1a2052e8db2b3cE+0xac>
   15d3e:	a099                	j	15d84 <_ZN20complex_full_dynamic3app17hbe1a2052e8db2b3cE+0xdc>
   15d40:	458d                	li	a1,3
   15d42:	4505                	li	a0,1
   15d44:	c901                	beqz	a0,15d54 <_ZN20complex_full_dynamic3app17hbe1a2052e8db2b3cE+0xac>
   15d46:	a83d                	j	15d84 <_ZN20complex_full_dynamic3app17hbe1a2052e8db2b3cE+0xdc>
   15d48:	4501                	li	a0,0
   15d4a:	d03e                	sw	a5,32(sp)
   15d4c:	d242                	sw	a6,36(sp)
   15d4e:	02c10423          	sb	a2,40(sp)
   15d52:	e90d                	bnez	a0,15d84 <_ZN20complex_full_dynamic3app17hbe1a2052e8db2b3cE+0xdc>
   15d54:	6505                	lui	a0,0x1
   15d56:	459d                	li	a1,7
   15d58:	4611                	li	a2,4
   15d5a:	cb050513          	addi	a0,a0,-848 # cb0 <.Lline_table_start1+0xa85>
   15d5e:	4709                	li	a4,2
   15d60:	07f00793          	li	a5,127
   15d64:	4681                	li	a3,0
   15d66:	00000073          	ecall
   15d6a:	00a7fd63          	bgeu	a5,a0,15d84 <_ZN20complex_full_dynamic3app17hbe1a2052e8db2b3cE+0xdc>
   15d6e:	850a                	mv	a0,sp
   15d70:	00007097          	auipc	ra,0x7
   15d74:	d20080e7          	jalr	-736(ra) # 1ca90 <_ZN9allow_pin12full_dynamic17unshare_if_shared17h4e6b4433fd7c2282E>
   15d78:	1008                	addi	a0,sp,32
   15d7a:	00007097          	auipc	ra,0x7
   15d7e:	d16080e7          	jalr	-746(ra) # 1ca90 <_ZN9allow_pin12full_dynamic17unshare_if_shared17h4e6b4433fd7c2282E>
   15d82:	4481                	li	s1,0
   15d84:	c489                	beqz	s1,15d8e <_ZN20complex_full_dynamic3app17hbe1a2052e8db2b3cE+0xe6>
   15d86:	00b9a223          	sw	a1,4(s3)
   15d8a:	4505                	li	a0,1
   15d8c:	a005                	j	15dac <_ZN20complex_full_dynamic3app17hbe1a2052e8db2b3cE+0x104>
   15d8e:	1008                	addi	a0,sp,32
   15d90:	00007097          	auipc	ra,0x7
   15d94:	d00080e7          	jalr	-768(ra) # 1ca90 <_ZN9allow_pin12full_dynamic17unshare_if_shared17h4e6b4433fd7c2282E>
   15d98:	00198513          	addi	a0,s3,1
   15d9c:	03f00613          	li	a2,63
   15da0:	85ca                	mv	a1,s2
   15da2:	00007097          	auipc	ra,0x7
   15da6:	d7a080e7          	jalr	-646(ra) # 1cb1c <memcpy>
   15daa:	4501                	li	a0,0
   15dac:	00a98023          	sb	a0,0(s3)
   15db0:	1008                	addi	a0,sp,32
   15db2:	00007097          	auipc	ra,0x7
   15db6:	cde080e7          	jalr	-802(ra) # 1ca90 <_ZN9allow_pin12full_dynamic17unshare_if_shared17h4e6b4433fd7c2282E>
   15dba:	850a                	mv	a0,sp
   15dbc:	00007097          	auipc	ra,0x7
   15dc0:	cd4080e7          	jalr	-812(ra) # 1ca90 <_ZN9allow_pin12full_dynamic17unshare_if_shared17h4e6b4433fd7c2282E>
   15dc4:	50f6                	lw	ra,124(sp)
   15dc6:	5466                	lw	s0,120(sp)
   15dc8:	54d6                	lw	s1,116(sp)
   15dca:	5946                	lw	s2,112(sp)
   15dcc:	59b6                	lw	s3,108(sp)
   15dce:	6109                	addi	sp,sp,128
   15dd0:	8082                	ret

00015dd2 <_ZN20complex_full_dynamic3app17hbe22ec6a823d8b97E>:
   15dd2:	7135                	addi	sp,sp,-160
   15dd4:	cf06                	sw	ra,156(sp)
   15dd6:	cd22                	sw	s0,152(sp)
   15dd8:	cb26                	sw	s1,148(sp)
   15dda:	c94a                	sw	s2,144(sp)
   15ddc:	c74e                	sw	s3,140(sp)
   15dde:	89aa                	mv	s3,a0
   15de0:	4409                	li	s0,2
   15de2:	00810823          	sb	s0,16(sp)
   15de6:	0844                	addi	s1,sp,20
   15de8:	05500613          	li	a2,85
   15dec:	8526                	mv	a0,s1
   15dee:	00007097          	auipc	ra,0x7
   15df2:	d2e080e7          	jalr	-722(ra) # 1cb1c <memcpy>
   15df6:	8626                	mv	a2,s1
   15df8:	c302                	sw	zero,132(sp)
   15dfa:	08010423          	sb	zero,136(sp)
   15dfe:	06810a23          	sb	s0,116(sp)
   15e02:	dc82                	sw	zero,120(sp)
   15e04:	de82                	sw	zero,124(sp)
   15e06:	c102                	sw	zero,128(sp)
   15e08:	6505                	lui	a0,0x1
   15e0a:	4491                	li	s1,4
   15e0c:	4589                	li	a1,2
   15e0e:	c8950793          	addi	a5,a0,-887 # c89 <.Lline_table_start1+0xa5e>
   15e12:	05500693          	li	a3,85
   15e16:	4711                	li	a4,4
   15e18:	853e                	mv	a0,a5
   15e1a:	00000073          	ecall
   15e1e:	00850663          	beq	a0,s0,15e2a <_ZN20complex_full_dynamic3app17hbe22ec6a823d8b97E+0x58>
   15e22:	c43e                	sw	a5,8(sp)
   15e24:	c622                	sw	s0,12(sp)
   15e26:	00910823          	sb	s1,16(sp)
   15e2a:	4609                	li	a2,2
   15e2c:	07810913          	addi	s2,sp,120
   15e30:	00c51463          	bne	a0,a2,15e38 <_ZN20complex_full_dynamic3app17hbe22ec6a823d8b97E+0x66>
   15e34:	4485                	li	s1,1
   15e36:	a88d                	j	15ea8 <_ZN20complex_full_dynamic3app17hbe22ec6a823d8b97E+0xd6>
   15e38:	07414503          	lbu	a0,116(sp)
   15e3c:	4485                	li	s1,1
   15e3e:	02c51363          	bne	a0,a2,15e64 <_ZN20complex_full_dynamic3app17hbe22ec6a823d8b97E+0x92>
   15e42:	864a                	mv	a2,s2
   15e44:	6505                	lui	a0,0x1
   15e46:	4409                	li	s0,2
   15e48:	480d                	li	a6,3
   15e4a:	4589                	li	a1,2
   15e4c:	c8950793          	addi	a5,a0,-887 # c89 <.Lline_table_start1+0xa5e>
   15e50:	46c5                	li	a3,17
   15e52:	470d                	li	a4,3
   15e54:	853e                	mv	a0,a5
   15e56:	00000073          	ecall
   15e5a:	00851963          	bne	a0,s0,15e6c <_ZN20complex_full_dynamic3app17hbe22ec6a823d8b97E+0x9a>
   15e5e:	4505                	li	a0,1
   15e60:	cd01                	beqz	a0,15e78 <_ZN20complex_full_dynamic3app17hbe22ec6a823d8b97E+0xa6>
   15e62:	a099                	j	15ea8 <_ZN20complex_full_dynamic3app17hbe22ec6a823d8b97E+0xd6>
   15e64:	458d                	li	a1,3
   15e66:	4505                	li	a0,1
   15e68:	c901                	beqz	a0,15e78 <_ZN20complex_full_dynamic3app17hbe22ec6a823d8b97E+0xa6>
   15e6a:	a83d                	j	15ea8 <_ZN20complex_full_dynamic3app17hbe22ec6a823d8b97E+0xd6>
   15e6c:	4501                	li	a0,0
   15e6e:	d6be                	sw	a5,108(sp)
   15e70:	d8a2                	sw	s0,112(sp)
   15e72:	07010a23          	sb	a6,116(sp)
   15e76:	e90d                	bnez	a0,15ea8 <_ZN20complex_full_dynamic3app17hbe22ec6a823d8b97E+0xd6>
   15e78:	6505                	lui	a0,0x1
   15e7a:	4589                	li	a1,2
   15e7c:	4609                	li	a2,2
   15e7e:	c8950513          	addi	a0,a0,-887 # c89 <.Lline_table_start1+0xa5e>
   15e82:	4709                	li	a4,2
   15e84:	07f00793          	li	a5,127
   15e88:	4681                	li	a3,0
   15e8a:	00000073          	ecall
   15e8e:	00a7fd63          	bgeu	a5,a0,15ea8 <_ZN20complex_full_dynamic3app17hbe22ec6a823d8b97E+0xd6>
   15e92:	0028                	addi	a0,sp,8
   15e94:	00007097          	auipc	ra,0x7
   15e98:	bfc080e7          	jalr	-1028(ra) # 1ca90 <_ZN9allow_pin12full_dynamic17unshare_if_shared17h4e6b4433fd7c2282E>
   15e9c:	10e8                	addi	a0,sp,108
   15e9e:	00007097          	auipc	ra,0x7
   15ea2:	bf2080e7          	jalr	-1038(ra) # 1ca90 <_ZN9allow_pin12full_dynamic17unshare_if_shared17h4e6b4433fd7c2282E>
   15ea6:	4481                	li	s1,0
   15ea8:	c489                	beqz	s1,15eb2 <_ZN20complex_full_dynamic3app17hbe22ec6a823d8b97E+0xe0>
   15eaa:	00b9a223          	sw	a1,4(s3)
   15eae:	4505                	li	a0,1
   15eb0:	a839                	j	15ece <_ZN20complex_full_dynamic3app17hbe22ec6a823d8b97E+0xfc>
   15eb2:	10e8                	addi	a0,sp,108
   15eb4:	00007097          	auipc	ra,0x7
   15eb8:	bdc080e7          	jalr	-1060(ra) # 1ca90 <_ZN9allow_pin12full_dynamic17unshare_if_shared17h4e6b4433fd7c2282E>
   15ebc:	00198513          	addi	a0,s3,1
   15ec0:	4645                	li	a2,17
   15ec2:	85ca                	mv	a1,s2
   15ec4:	00007097          	auipc	ra,0x7
   15ec8:	c58080e7          	jalr	-936(ra) # 1cb1c <memcpy>
   15ecc:	4501                	li	a0,0
   15ece:	00a98023          	sb	a0,0(s3)
   15ed2:	10e8                	addi	a0,sp,108
   15ed4:	00007097          	auipc	ra,0x7
   15ed8:	bbc080e7          	jalr	-1092(ra) # 1ca90 <_ZN9allow_pin12full_dynamic17unshare_if_shared17h4e6b4433fd7c2282E>
   15edc:	0028                	addi	a0,sp,8
   15ede:	00007097          	auipc	ra,0x7
   15ee2:	bb2080e7          	jalr	-1102(ra) # 1ca90 <_ZN9allow_pin12full_dynamic17unshare_if_shared17h4e6b4433fd7c2282E>
   15ee6:	40fa                	lw	ra,156(sp)
   15ee8:	446a                	lw	s0,152(sp)
   15eea:	44da                	lw	s1,148(sp)
   15eec:	494a                	lw	s2,144(sp)
   15eee:	49ba                	lw	s3,140(sp)
   15ef0:	610d                	addi	sp,sp,160
   15ef2:	8082                	ret

00015ef4 <_ZN20complex_full_dynamic3app17hc2faa3974165bd4aE>:
   15ef4:	7175                	addi	sp,sp,-144
   15ef6:	c706                	sw	ra,140(sp)
   15ef8:	c522                	sw	s0,136(sp)
   15efa:	c326                	sw	s1,132(sp)
   15efc:	c14a                	sw	s2,128(sp)
   15efe:	dece                	sw	s3,124(sp)
   15f00:	89aa                	mv	s3,a0
   15f02:	4409                	li	s0,2
   15f04:	00810a23          	sb	s0,20(sp)
   15f08:	0824                	addi	s1,sp,24
   15f0a:	4649                	li	a2,18
   15f0c:	8526                	mv	a0,s1
   15f0e:	00007097          	auipc	ra,0x7
   15f12:	c0e080e7          	jalr	-1010(ra) # 1cb1c <memcpy>
   15f16:	03810913          	addi	s2,sp,56
   15f1a:	04400613          	li	a2,68
   15f1e:	854a                	mv	a0,s2
   15f20:	4581                	li	a1,0
   15f22:	00007097          	auipc	ra,0x7
   15f26:	b8e080e7          	jalr	-1138(ra) # 1cab0 <memset>
   15f2a:	8626                	mv	a2,s1
   15f2c:	02810a23          	sb	s0,52(sp)
   15f30:	6509                	lui	a0,0x2
   15f32:	4491                	li	s1,4
   15f34:	4589                	li	a1,2
   15f36:	43250793          	addi	a5,a0,1074 # 2432 <.Lline_table_start1+0x2207>
   15f3a:	46c9                	li	a3,18
   15f3c:	4711                	li	a4,4
   15f3e:	853e                	mv	a0,a5
   15f40:	00000073          	ecall
   15f44:	00850663          	beq	a0,s0,15f50 <_ZN20complex_full_dynamic3app17hc2faa3974165bd4aE+0x5c>
   15f48:	c63e                	sw	a5,12(sp)
   15f4a:	c822                	sw	s0,16(sp)
   15f4c:	00910a23          	sb	s1,20(sp)
   15f50:	4609                	li	a2,2
   15f52:	00c51463          	bne	a0,a2,15f5a <_ZN20complex_full_dynamic3app17hc2faa3974165bd4aE+0x66>
   15f56:	4485                	li	s1,1
   15f58:	a89d                	j	15fce <_ZN20complex_full_dynamic3app17hc2faa3974165bd4aE+0xda>
   15f5a:	03414503          	lbu	a0,52(sp)
   15f5e:	4485                	li	s1,1
   15f60:	02c51563          	bne	a0,a2,15f8a <_ZN20complex_full_dynamic3app17hc2faa3974165bd4aE+0x96>
   15f64:	864a                	mv	a2,s2
   15f66:	6509                	lui	a0,0x2
   15f68:	4825                	li	a6,9
   15f6a:	45a5                	li	a1,9
   15f6c:	04400693          	li	a3,68
   15f70:	470d                	li	a4,3
   15f72:	43250793          	addi	a5,a0,1074 # 2432 <.Lline_table_start1+0x2207>
   15f76:	4409                	li	s0,2
   15f78:	853e                	mv	a0,a5
   15f7a:	00000073          	ecall
   15f7e:	460d                	li	a2,3
   15f80:	00851963          	bne	a0,s0,15f92 <_ZN20complex_full_dynamic3app17hc2faa3974165bd4aE+0x9e>
   15f84:	4505                	li	a0,1
   15f86:	cd01                	beqz	a0,15f9e <_ZN20complex_full_dynamic3app17hc2faa3974165bd4aE+0xaa>
   15f88:	a099                	j	15fce <_ZN20complex_full_dynamic3app17hc2faa3974165bd4aE+0xda>
   15f8a:	458d                	li	a1,3
   15f8c:	4505                	li	a0,1
   15f8e:	c901                	beqz	a0,15f9e <_ZN20complex_full_dynamic3app17hc2faa3974165bd4aE+0xaa>
   15f90:	a83d                	j	15fce <_ZN20complex_full_dynamic3app17hc2faa3974165bd4aE+0xda>
   15f92:	4501                	li	a0,0
   15f94:	d63e                	sw	a5,44(sp)
   15f96:	d842                	sw	a6,48(sp)
   15f98:	02c10a23          	sb	a2,52(sp)
   15f9c:	e90d                	bnez	a0,15fce <_ZN20complex_full_dynamic3app17hc2faa3974165bd4aE+0xda>
   15f9e:	6509                	lui	a0,0x2
   15fa0:	4589                	li	a1,2
   15fa2:	4625                	li	a2,9
   15fa4:	43250513          	addi	a0,a0,1074 # 2432 <.Lline_table_start1+0x2207>
   15fa8:	4709                	li	a4,2
   15faa:	07f00793          	li	a5,127
   15fae:	4681                	li	a3,0
   15fb0:	00000073          	ecall
   15fb4:	00a7fd63          	bgeu	a5,a0,15fce <_ZN20complex_full_dynamic3app17hc2faa3974165bd4aE+0xda>
   15fb8:	0068                	addi	a0,sp,12
   15fba:	00007097          	auipc	ra,0x7
   15fbe:	ad6080e7          	jalr	-1322(ra) # 1ca90 <_ZN9allow_pin12full_dynamic17unshare_if_shared17h4e6b4433fd7c2282E>
   15fc2:	1068                	addi	a0,sp,44
   15fc4:	00007097          	auipc	ra,0x7
   15fc8:	acc080e7          	jalr	-1332(ra) # 1ca90 <_ZN9allow_pin12full_dynamic17unshare_if_shared17h4e6b4433fd7c2282E>
   15fcc:	4481                	li	s1,0
   15fce:	c489                	beqz	s1,15fd8 <_ZN20complex_full_dynamic3app17hc2faa3974165bd4aE+0xe4>
   15fd0:	00b9a223          	sw	a1,4(s3)
   15fd4:	4505                	li	a0,1
   15fd6:	a005                	j	15ff6 <_ZN20complex_full_dynamic3app17hc2faa3974165bd4aE+0x102>
   15fd8:	1068                	addi	a0,sp,44
   15fda:	00007097          	auipc	ra,0x7
   15fde:	ab6080e7          	jalr	-1354(ra) # 1ca90 <_ZN9allow_pin12full_dynamic17unshare_if_shared17h4e6b4433fd7c2282E>
   15fe2:	00198513          	addi	a0,s3,1
   15fe6:	04400613          	li	a2,68
   15fea:	85ca                	mv	a1,s2
   15fec:	00007097          	auipc	ra,0x7
   15ff0:	b30080e7          	jalr	-1232(ra) # 1cb1c <memcpy>
   15ff4:	4501                	li	a0,0
   15ff6:	00a98023          	sb	a0,0(s3)
   15ffa:	1068                	addi	a0,sp,44
   15ffc:	00007097          	auipc	ra,0x7
   16000:	a94080e7          	jalr	-1388(ra) # 1ca90 <_ZN9allow_pin12full_dynamic17unshare_if_shared17h4e6b4433fd7c2282E>
   16004:	0068                	addi	a0,sp,12
   16006:	00007097          	auipc	ra,0x7
   1600a:	a8a080e7          	jalr	-1398(ra) # 1ca90 <_ZN9allow_pin12full_dynamic17unshare_if_shared17h4e6b4433fd7c2282E>
   1600e:	40ba                	lw	ra,140(sp)
   16010:	442a                	lw	s0,136(sp)
   16012:	449a                	lw	s1,132(sp)
   16014:	490a                	lw	s2,128(sp)
   16016:	59f6                	lw	s3,124(sp)
   16018:	6149                	addi	sp,sp,144
   1601a:	8082                	ret

0001601c <_ZN20complex_full_dynamic3app17hc30ddd855db6f3b4E>:
   1601c:	7175                	addi	sp,sp,-144
   1601e:	c706                	sw	ra,140(sp)
   16020:	c522                	sw	s0,136(sp)
   16022:	c326                	sw	s1,132(sp)
   16024:	c14a                	sw	s2,128(sp)
   16026:	dece                	sw	s3,124(sp)
   16028:	89aa                	mv	s3,a0
   1602a:	4409                	li	s0,2
   1602c:	00810423          	sb	s0,8(sp)
   16030:	0064                	addi	s1,sp,12
   16032:	4645                	li	a2,17
   16034:	8526                	mv	a0,s1
   16036:	00007097          	auipc	ra,0x7
   1603a:	ae6080e7          	jalr	-1306(ra) # 1cb1c <memcpy>
   1603e:	02c10913          	addi	s2,sp,44
   16042:	05000613          	li	a2,80
   16046:	854a                	mv	a0,s2
   16048:	4581                	li	a1,0
   1604a:	00007097          	auipc	ra,0x7
   1604e:	a66080e7          	jalr	-1434(ra) # 1cab0 <memset>
   16052:	8626                	mv	a2,s1
   16054:	02810423          	sb	s0,40(sp)
   16058:	6509                	lui	a0,0x2
   1605a:	4499                	li	s1,6
   1605c:	4811                	li	a6,4
   1605e:	4599                	li	a1,6
   16060:	aa950793          	addi	a5,a0,-1367 # 1aa9 <.Lline_table_start1+0x187e>
   16064:	46c5                	li	a3,17
   16066:	4711                	li	a4,4
   16068:	853e                	mv	a0,a5
   1606a:	00000073          	ecall
   1606e:	00850663          	beq	a0,s0,1607a <_ZN20complex_full_dynamic3app17hc30ddd855db6f3b4E+0x5e>
   16072:	c03e                	sw	a5,0(sp)
   16074:	c226                	sw	s1,4(sp)
   16076:	01010423          	sb	a6,8(sp)
   1607a:	4609                	li	a2,2
   1607c:	00c51463          	bne	a0,a2,16084 <_ZN20complex_full_dynamic3app17hc30ddd855db6f3b4E+0x68>
   16080:	4485                	li	s1,1
   16082:	a89d                	j	160f8 <_ZN20complex_full_dynamic3app17hc30ddd855db6f3b4E+0xdc>
   16084:	02814503          	lbu	a0,40(sp)
   16088:	4485                	li	s1,1
   1608a:	02c51563          	bne	a0,a2,160b4 <_ZN20complex_full_dynamic3app17hc30ddd855db6f3b4E+0x98>
   1608e:	864a                	mv	a2,s2
   16090:	6509                	lui	a0,0x2
   16092:	4815                	li	a6,5
   16094:	4595                	li	a1,5
   16096:	05000693          	li	a3,80
   1609a:	470d                	li	a4,3
   1609c:	aa950793          	addi	a5,a0,-1367 # 1aa9 <.Lline_table_start1+0x187e>
   160a0:	4409                	li	s0,2
   160a2:	853e                	mv	a0,a5
   160a4:	00000073          	ecall
   160a8:	460d                	li	a2,3
   160aa:	00851963          	bne	a0,s0,160bc <_ZN20complex_full_dynamic3app17hc30ddd855db6f3b4E+0xa0>
   160ae:	4505                	li	a0,1
   160b0:	cd01                	beqz	a0,160c8 <_ZN20complex_full_dynamic3app17hc30ddd855db6f3b4E+0xac>
   160b2:	a099                	j	160f8 <_ZN20complex_full_dynamic3app17hc30ddd855db6f3b4E+0xdc>
   160b4:	458d                	li	a1,3
   160b6:	4505                	li	a0,1
   160b8:	c901                	beqz	a0,160c8 <_ZN20complex_full_dynamic3app17hc30ddd855db6f3b4E+0xac>
   160ba:	a83d                	j	160f8 <_ZN20complex_full_dynamic3app17hc30ddd855db6f3b4E+0xdc>
   160bc:	4501                	li	a0,0
   160be:	d03e                	sw	a5,32(sp)
   160c0:	d242                	sw	a6,36(sp)
   160c2:	02c10423          	sb	a2,40(sp)
   160c6:	e90d                	bnez	a0,160f8 <_ZN20complex_full_dynamic3app17hc30ddd855db6f3b4E+0xdc>
   160c8:	6509                	lui	a0,0x2
   160ca:	4599                	li	a1,6
   160cc:	4615                	li	a2,5
   160ce:	aa950513          	addi	a0,a0,-1367 # 1aa9 <.Lline_table_start1+0x187e>
   160d2:	4709                	li	a4,2
   160d4:	07f00793          	li	a5,127
   160d8:	4681                	li	a3,0
   160da:	00000073          	ecall
   160de:	00a7fd63          	bgeu	a5,a0,160f8 <_ZN20complex_full_dynamic3app17hc30ddd855db6f3b4E+0xdc>
   160e2:	850a                	mv	a0,sp
   160e4:	00007097          	auipc	ra,0x7
   160e8:	9ac080e7          	jalr	-1620(ra) # 1ca90 <_ZN9allow_pin12full_dynamic17unshare_if_shared17h4e6b4433fd7c2282E>
   160ec:	1008                	addi	a0,sp,32
   160ee:	00007097          	auipc	ra,0x7
   160f2:	9a2080e7          	jalr	-1630(ra) # 1ca90 <_ZN9allow_pin12full_dynamic17unshare_if_shared17h4e6b4433fd7c2282E>
   160f6:	4481                	li	s1,0
   160f8:	c489                	beqz	s1,16102 <_ZN20complex_full_dynamic3app17hc30ddd855db6f3b4E+0xe6>
   160fa:	00b9a223          	sw	a1,4(s3)
   160fe:	4505                	li	a0,1
   16100:	a005                	j	16120 <_ZN20complex_full_dynamic3app17hc30ddd855db6f3b4E+0x104>
   16102:	1008                	addi	a0,sp,32
   16104:	00007097          	auipc	ra,0x7
   16108:	98c080e7          	jalr	-1652(ra) # 1ca90 <_ZN9allow_pin12full_dynamic17unshare_if_shared17h4e6b4433fd7c2282E>
   1610c:	00198513          	addi	a0,s3,1
   16110:	05000613          	li	a2,80
   16114:	85ca                	mv	a1,s2
   16116:	00007097          	auipc	ra,0x7
   1611a:	a06080e7          	jalr	-1530(ra) # 1cb1c <memcpy>
   1611e:	4501                	li	a0,0
   16120:	00a98023          	sb	a0,0(s3)
   16124:	1008                	addi	a0,sp,32
   16126:	00007097          	auipc	ra,0x7
   1612a:	96a080e7          	jalr	-1686(ra) # 1ca90 <_ZN9allow_pin12full_dynamic17unshare_if_shared17h4e6b4433fd7c2282E>
   1612e:	850a                	mv	a0,sp
   16130:	00007097          	auipc	ra,0x7
   16134:	960080e7          	jalr	-1696(ra) # 1ca90 <_ZN9allow_pin12full_dynamic17unshare_if_shared17h4e6b4433fd7c2282E>
   16138:	40ba                	lw	ra,140(sp)
   1613a:	442a                	lw	s0,136(sp)
   1613c:	449a                	lw	s1,132(sp)
   1613e:	490a                	lw	s2,128(sp)
   16140:	59f6                	lw	s3,124(sp)
   16142:	6149                	addi	sp,sp,144
   16144:	8082                	ret

00016146 <_ZN20complex_full_dynamic3app17hc5d38cad577a8530E>:
   16146:	7131                	addi	sp,sp,-192
   16148:	df06                	sw	ra,188(sp)
   1614a:	dd22                	sw	s0,184(sp)
   1614c:	db26                	sw	s1,180(sp)
   1614e:	d94a                	sw	s2,176(sp)
   16150:	d74e                	sw	s3,172(sp)
   16152:	89aa                	mv	s3,a0
   16154:	4409                	li	s0,2
   16156:	00810623          	sb	s0,12(sp)
   1615a:	0804                	addi	s1,sp,16
   1615c:	02f00613          	li	a2,47
   16160:	8526                	mv	a0,s1
   16162:	00007097          	auipc	ra,0x7
   16166:	9ba080e7          	jalr	-1606(ra) # 1cb1c <memcpy>
   1616a:	04c10913          	addi	s2,sp,76
   1616e:	05e00613          	li	a2,94
   16172:	854a                	mv	a0,s2
   16174:	4581                	li	a1,0
   16176:	00007097          	auipc	ra,0x7
   1617a:	93a080e7          	jalr	-1734(ra) # 1cab0 <memset>
   1617e:	8626                	mv	a2,s1
   16180:	04810423          	sb	s0,72(sp)
   16184:	22b00793          	li	a5,555
   16188:	4495                	li	s1,5
   1618a:	4811                	li	a6,4
   1618c:	22b00513          	li	a0,555
   16190:	4595                	li	a1,5
   16192:	02f00693          	li	a3,47
   16196:	4711                	li	a4,4
   16198:	00000073          	ecall
   1619c:	00850663          	beq	a0,s0,161a8 <_ZN20complex_full_dynamic3app17hc5d38cad577a8530E+0x62>
   161a0:	c23e                	sw	a5,4(sp)
   161a2:	c426                	sw	s1,8(sp)
   161a4:	01010623          	sb	a6,12(sp)
   161a8:	4609                	li	a2,2
   161aa:	00c51463          	bne	a0,a2,161b2 <_ZN20complex_full_dynamic3app17hc5d38cad577a8530E+0x6c>
   161ae:	4785                	li	a5,1
   161b0:	a88d                	j	16222 <_ZN20complex_full_dynamic3app17hc5d38cad577a8530E+0xdc>
   161b2:	04814503          	lbu	a0,72(sp)
   161b6:	4785                	li	a5,1
   161b8:	02c51463          	bne	a0,a2,161e0 <_ZN20complex_full_dynamic3app17hc5d38cad577a8530E+0x9a>
   161bc:	864a                	mv	a2,s2
   161be:	22b00493          	li	s1,555
   161c2:	4409                	li	s0,2
   161c4:	480d                	li	a6,3
   161c6:	22b00513          	li	a0,555
   161ca:	4589                	li	a1,2
   161cc:	05e00693          	li	a3,94
   161d0:	470d                	li	a4,3
   161d2:	00000073          	ecall
   161d6:	00851963          	bne	a0,s0,161e8 <_ZN20complex_full_dynamic3app17hc5d38cad577a8530E+0xa2>
   161da:	4505                	li	a0,1
   161dc:	cd01                	beqz	a0,161f4 <_ZN20complex_full_dynamic3app17hc5d38cad577a8530E+0xae>
   161de:	a091                	j	16222 <_ZN20complex_full_dynamic3app17hc5d38cad577a8530E+0xdc>
   161e0:	458d                	li	a1,3
   161e2:	4505                	li	a0,1
   161e4:	c901                	beqz	a0,161f4 <_ZN20complex_full_dynamic3app17hc5d38cad577a8530E+0xae>
   161e6:	a835                	j	16222 <_ZN20complex_full_dynamic3app17hc5d38cad577a8530E+0xdc>
   161e8:	4501                	li	a0,0
   161ea:	c0a6                	sw	s1,64(sp)
   161ec:	c2a2                	sw	s0,68(sp)
   161ee:	05010423          	sb	a6,72(sp)
   161f2:	e905                	bnez	a0,16222 <_ZN20complex_full_dynamic3app17hc5d38cad577a8530E+0xdc>
   161f4:	22b00513          	li	a0,555
   161f8:	4595                	li	a1,5
   161fa:	4609                	li	a2,2
   161fc:	4709                	li	a4,2
   161fe:	07f00493          	li	s1,127
   16202:	4681                	li	a3,0
   16204:	00000073          	ecall
   16208:	00a4fd63          	bgeu	s1,a0,16222 <_ZN20complex_full_dynamic3app17hc5d38cad577a8530E+0xdc>
   1620c:	0048                	addi	a0,sp,4
   1620e:	00007097          	auipc	ra,0x7
   16212:	882080e7          	jalr	-1918(ra) # 1ca90 <_ZN9allow_pin12full_dynamic17unshare_if_shared17h4e6b4433fd7c2282E>
   16216:	0088                	addi	a0,sp,64
   16218:	00007097          	auipc	ra,0x7
   1621c:	878080e7          	jalr	-1928(ra) # 1ca90 <_ZN9allow_pin12full_dynamic17unshare_if_shared17h4e6b4433fd7c2282E>
   16220:	4781                	li	a5,0
   16222:	c789                	beqz	a5,1622c <_ZN20complex_full_dynamic3app17hc5d38cad577a8530E+0xe6>
   16224:	00b9a223          	sw	a1,4(s3)
   16228:	4505                	li	a0,1
   1622a:	a005                	j	1624a <_ZN20complex_full_dynamic3app17hc5d38cad577a8530E+0x104>
   1622c:	0088                	addi	a0,sp,64
   1622e:	00007097          	auipc	ra,0x7
   16232:	862080e7          	jalr	-1950(ra) # 1ca90 <_ZN9allow_pin12full_dynamic17unshare_if_shared17h4e6b4433fd7c2282E>
   16236:	00198513          	addi	a0,s3,1
   1623a:	05e00613          	li	a2,94
   1623e:	85ca                	mv	a1,s2
   16240:	00007097          	auipc	ra,0x7
   16244:	8dc080e7          	jalr	-1828(ra) # 1cb1c <memcpy>
   16248:	4501                	li	a0,0
   1624a:	00a98023          	sb	a0,0(s3)
   1624e:	0088                	addi	a0,sp,64
   16250:	00007097          	auipc	ra,0x7
   16254:	840080e7          	jalr	-1984(ra) # 1ca90 <_ZN9allow_pin12full_dynamic17unshare_if_shared17h4e6b4433fd7c2282E>
   16258:	0048                	addi	a0,sp,4
   1625a:	00007097          	auipc	ra,0x7
   1625e:	836080e7          	jalr	-1994(ra) # 1ca90 <_ZN9allow_pin12full_dynamic17unshare_if_shared17h4e6b4433fd7c2282E>
   16262:	50fa                	lw	ra,188(sp)
   16264:	546a                	lw	s0,184(sp)
   16266:	54da                	lw	s1,180(sp)
   16268:	594a                	lw	s2,176(sp)
   1626a:	59ba                	lw	s3,172(sp)
   1626c:	6129                	addi	sp,sp,192
   1626e:	8082                	ret

00016270 <_ZN20complex_full_dynamic3app17hc5fa7dc37b44e160E>:
   16270:	7131                	addi	sp,sp,-192
   16272:	df06                	sw	ra,188(sp)
   16274:	dd22                	sw	s0,184(sp)
   16276:	db26                	sw	s1,180(sp)
   16278:	d94a                	sw	s2,176(sp)
   1627a:	d74e                	sw	s3,172(sp)
   1627c:	89aa                	mv	s3,a0
   1627e:	4409                	li	s0,2
   16280:	00810823          	sb	s0,16(sp)
   16284:	0844                	addi	s1,sp,20
   16286:	05000613          	li	a2,80
   1628a:	8526                	mv	a0,s1
   1628c:	00007097          	auipc	ra,0x7
   16290:	890080e7          	jalr	-1904(ra) # 1cb1c <memcpy>
   16294:	07010913          	addi	s2,sp,112
   16298:	03c00613          	li	a2,60
   1629c:	854a                	mv	a0,s2
   1629e:	4581                	li	a1,0
   162a0:	00007097          	auipc	ra,0x7
   162a4:	810080e7          	jalr	-2032(ra) # 1cab0 <memset>
   162a8:	8626                	mv	a2,s1
   162aa:	06810623          	sb	s0,108(sp)
   162ae:	6505                	lui	a0,0x1
   162b0:	448d                	li	s1,3
   162b2:	4811                	li	a6,4
   162b4:	458d                	li	a1,3
   162b6:	d7a50793          	addi	a5,a0,-646 # d7a <.Lline_table_start1+0xb4f>
   162ba:	05000693          	li	a3,80
   162be:	4711                	li	a4,4
   162c0:	853e                	mv	a0,a5
   162c2:	00000073          	ecall
   162c6:	00850663          	beq	a0,s0,162d2 <_ZN20complex_full_dynamic3app17hc5fa7dc37b44e160E+0x62>
   162ca:	c43e                	sw	a5,8(sp)
   162cc:	c626                	sw	s1,12(sp)
   162ce:	01010823          	sb	a6,16(sp)
   162d2:	4609                	li	a2,2
   162d4:	00c51463          	bne	a0,a2,162dc <_ZN20complex_full_dynamic3app17hc5fa7dc37b44e160E+0x6c>
   162d8:	4485                	li	s1,1
   162da:	a89d                	j	16350 <_ZN20complex_full_dynamic3app17hc5fa7dc37b44e160E+0xe0>
   162dc:	06c14503          	lbu	a0,108(sp)
   162e0:	4485                	li	s1,1
   162e2:	02c51563          	bne	a0,a2,1630c <_ZN20complex_full_dynamic3app17hc5fa7dc37b44e160E+0x9c>
   162e6:	864a                	mv	a2,s2
   162e8:	6505                	lui	a0,0x1
   162ea:	4825                	li	a6,9
   162ec:	45a5                	li	a1,9
   162ee:	03c00693          	li	a3,60
   162f2:	470d                	li	a4,3
   162f4:	d7a50793          	addi	a5,a0,-646 # d7a <.Lline_table_start1+0xb4f>
   162f8:	4409                	li	s0,2
   162fa:	853e                	mv	a0,a5
   162fc:	00000073          	ecall
   16300:	460d                	li	a2,3
   16302:	00851963          	bne	a0,s0,16314 <_ZN20complex_full_dynamic3app17hc5fa7dc37b44e160E+0xa4>
   16306:	4505                	li	a0,1
   16308:	cd01                	beqz	a0,16320 <_ZN20complex_full_dynamic3app17hc5fa7dc37b44e160E+0xb0>
   1630a:	a099                	j	16350 <_ZN20complex_full_dynamic3app17hc5fa7dc37b44e160E+0xe0>
   1630c:	458d                	li	a1,3
   1630e:	4505                	li	a0,1
   16310:	c901                	beqz	a0,16320 <_ZN20complex_full_dynamic3app17hc5fa7dc37b44e160E+0xb0>
   16312:	a83d                	j	16350 <_ZN20complex_full_dynamic3app17hc5fa7dc37b44e160E+0xe0>
   16314:	4501                	li	a0,0
   16316:	d2be                	sw	a5,100(sp)
   16318:	d4c2                	sw	a6,104(sp)
   1631a:	06c10623          	sb	a2,108(sp)
   1631e:	e90d                	bnez	a0,16350 <_ZN20complex_full_dynamic3app17hc5fa7dc37b44e160E+0xe0>
   16320:	6505                	lui	a0,0x1
   16322:	458d                	li	a1,3
   16324:	4625                	li	a2,9
   16326:	d7a50513          	addi	a0,a0,-646 # d7a <.Lline_table_start1+0xb4f>
   1632a:	4709                	li	a4,2
   1632c:	07f00793          	li	a5,127
   16330:	4681                	li	a3,0
   16332:	00000073          	ecall
   16336:	00a7fd63          	bgeu	a5,a0,16350 <_ZN20complex_full_dynamic3app17hc5fa7dc37b44e160E+0xe0>
   1633a:	0028                	addi	a0,sp,8
   1633c:	00006097          	auipc	ra,0x6
   16340:	754080e7          	jalr	1876(ra) # 1ca90 <_ZN9allow_pin12full_dynamic17unshare_if_shared17h4e6b4433fd7c2282E>
   16344:	10c8                	addi	a0,sp,100
   16346:	00006097          	auipc	ra,0x6
   1634a:	74a080e7          	jalr	1866(ra) # 1ca90 <_ZN9allow_pin12full_dynamic17unshare_if_shared17h4e6b4433fd7c2282E>
   1634e:	4481                	li	s1,0
   16350:	c489                	beqz	s1,1635a <_ZN20complex_full_dynamic3app17hc5fa7dc37b44e160E+0xea>
   16352:	00b9a223          	sw	a1,4(s3)
   16356:	4505                	li	a0,1
   16358:	a005                	j	16378 <_ZN20complex_full_dynamic3app17hc5fa7dc37b44e160E+0x108>
   1635a:	10c8                	addi	a0,sp,100
   1635c:	00006097          	auipc	ra,0x6
   16360:	734080e7          	jalr	1844(ra) # 1ca90 <_ZN9allow_pin12full_dynamic17unshare_if_shared17h4e6b4433fd7c2282E>
   16364:	00198513          	addi	a0,s3,1
   16368:	03c00613          	li	a2,60
   1636c:	85ca                	mv	a1,s2
   1636e:	00006097          	auipc	ra,0x6
   16372:	7ae080e7          	jalr	1966(ra) # 1cb1c <memcpy>
   16376:	4501                	li	a0,0
   16378:	00a98023          	sb	a0,0(s3)
   1637c:	10c8                	addi	a0,sp,100
   1637e:	00006097          	auipc	ra,0x6
   16382:	712080e7          	jalr	1810(ra) # 1ca90 <_ZN9allow_pin12full_dynamic17unshare_if_shared17h4e6b4433fd7c2282E>
   16386:	0028                	addi	a0,sp,8
   16388:	00006097          	auipc	ra,0x6
   1638c:	708080e7          	jalr	1800(ra) # 1ca90 <_ZN9allow_pin12full_dynamic17unshare_if_shared17h4e6b4433fd7c2282E>
   16390:	50fa                	lw	ra,188(sp)
   16392:	546a                	lw	s0,184(sp)
   16394:	54da                	lw	s1,180(sp)
   16396:	594a                	lw	s2,176(sp)
   16398:	59ba                	lw	s3,172(sp)
   1639a:	6129                	addi	sp,sp,192
   1639c:	8082                	ret

0001639e <_ZN20complex_full_dynamic3app17hc842f8d573eefac7E>:
   1639e:	7119                	addi	sp,sp,-128
   163a0:	de86                	sw	ra,124(sp)
   163a2:	dca2                	sw	s0,120(sp)
   163a4:	daa6                	sw	s1,116(sp)
   163a6:	d8ca                	sw	s2,112(sp)
   163a8:	d6ce                	sw	s3,108(sp)
   163aa:	89aa                	mv	s3,a0
   163ac:	4409                	li	s0,2
   163ae:	00810423          	sb	s0,8(sp)
   163b2:	0064                	addi	s1,sp,12
   163b4:	02400613          	li	a2,36
   163b8:	8526                	mv	a0,s1
   163ba:	00006097          	auipc	ra,0x6
   163be:	762080e7          	jalr	1890(ra) # 1cb1c <memcpy>
   163c2:	03c10913          	addi	s2,sp,60
   163c6:	02f00613          	li	a2,47
   163ca:	854a                	mv	a0,s2
   163cc:	4581                	li	a1,0
   163ce:	00006097          	auipc	ra,0x6
   163d2:	6e2080e7          	jalr	1762(ra) # 1cab0 <memset>
   163d6:	8626                	mv	a2,s1
   163d8:	02810c23          	sb	s0,56(sp)
   163dc:	6505                	lui	a0,0x1
   163de:	4499                	li	s1,6
   163e0:	4811                	li	a6,4
   163e2:	4599                	li	a1,6
   163e4:	27350793          	addi	a5,a0,627 # 1273 <.Lline_table_start1+0x1048>
   163e8:	02400693          	li	a3,36
   163ec:	4711                	li	a4,4
   163ee:	853e                	mv	a0,a5
   163f0:	00000073          	ecall
   163f4:	00850663          	beq	a0,s0,16400 <_ZN20complex_full_dynamic3app17hc842f8d573eefac7E+0x62>
   163f8:	c03e                	sw	a5,0(sp)
   163fa:	c226                	sw	s1,4(sp)
   163fc:	01010423          	sb	a6,8(sp)
   16400:	4609                	li	a2,2
   16402:	00c51463          	bne	a0,a2,1640a <_ZN20complex_full_dynamic3app17hc842f8d573eefac7E+0x6c>
   16406:	4485                	li	s1,1
   16408:	a89d                	j	1647e <_ZN20complex_full_dynamic3app17hc842f8d573eefac7E+0xe0>
   1640a:	03814503          	lbu	a0,56(sp)
   1640e:	4485                	li	s1,1
   16410:	02c51563          	bne	a0,a2,1643a <_ZN20complex_full_dynamic3app17hc842f8d573eefac7E+0x9c>
   16414:	864a                	mv	a2,s2
   16416:	6505                	lui	a0,0x1
   16418:	4825                	li	a6,9
   1641a:	45a5                	li	a1,9
   1641c:	02f00693          	li	a3,47
   16420:	470d                	li	a4,3
   16422:	27350793          	addi	a5,a0,627 # 1273 <.Lline_table_start1+0x1048>
   16426:	4409                	li	s0,2
   16428:	853e                	mv	a0,a5
   1642a:	00000073          	ecall
   1642e:	460d                	li	a2,3
   16430:	00851963          	bne	a0,s0,16442 <_ZN20complex_full_dynamic3app17hc842f8d573eefac7E+0xa4>
   16434:	4505                	li	a0,1
   16436:	cd01                	beqz	a0,1644e <_ZN20complex_full_dynamic3app17hc842f8d573eefac7E+0xb0>
   16438:	a099                	j	1647e <_ZN20complex_full_dynamic3app17hc842f8d573eefac7E+0xe0>
   1643a:	458d                	li	a1,3
   1643c:	4505                	li	a0,1
   1643e:	c901                	beqz	a0,1644e <_ZN20complex_full_dynamic3app17hc842f8d573eefac7E+0xb0>
   16440:	a83d                	j	1647e <_ZN20complex_full_dynamic3app17hc842f8d573eefac7E+0xe0>
   16442:	4501                	li	a0,0
   16444:	d83e                	sw	a5,48(sp)
   16446:	da42                	sw	a6,52(sp)
   16448:	02c10c23          	sb	a2,56(sp)
   1644c:	e90d                	bnez	a0,1647e <_ZN20complex_full_dynamic3app17hc842f8d573eefac7E+0xe0>
   1644e:	6505                	lui	a0,0x1
   16450:	4599                	li	a1,6
   16452:	4625                	li	a2,9
   16454:	27350513          	addi	a0,a0,627 # 1273 <.Lline_table_start1+0x1048>
   16458:	4709                	li	a4,2
   1645a:	07f00793          	li	a5,127
   1645e:	4681                	li	a3,0
   16460:	00000073          	ecall
   16464:	00a7fd63          	bgeu	a5,a0,1647e <_ZN20complex_full_dynamic3app17hc842f8d573eefac7E+0xe0>
   16468:	850a                	mv	a0,sp
   1646a:	00006097          	auipc	ra,0x6
   1646e:	626080e7          	jalr	1574(ra) # 1ca90 <_ZN9allow_pin12full_dynamic17unshare_if_shared17h4e6b4433fd7c2282E>
   16472:	1808                	addi	a0,sp,48
   16474:	00006097          	auipc	ra,0x6
   16478:	61c080e7          	jalr	1564(ra) # 1ca90 <_ZN9allow_pin12full_dynamic17unshare_if_shared17h4e6b4433fd7c2282E>
   1647c:	4481                	li	s1,0
   1647e:	c489                	beqz	s1,16488 <_ZN20complex_full_dynamic3app17hc842f8d573eefac7E+0xea>
   16480:	00b9a223          	sw	a1,4(s3)
   16484:	4505                	li	a0,1
   16486:	a005                	j	164a6 <_ZN20complex_full_dynamic3app17hc842f8d573eefac7E+0x108>
   16488:	1808                	addi	a0,sp,48
   1648a:	00006097          	auipc	ra,0x6
   1648e:	606080e7          	jalr	1542(ra) # 1ca90 <_ZN9allow_pin12full_dynamic17unshare_if_shared17h4e6b4433fd7c2282E>
   16492:	00198513          	addi	a0,s3,1
   16496:	02f00613          	li	a2,47
   1649a:	85ca                	mv	a1,s2
   1649c:	00006097          	auipc	ra,0x6
   164a0:	680080e7          	jalr	1664(ra) # 1cb1c <memcpy>
   164a4:	4501                	li	a0,0
   164a6:	00a98023          	sb	a0,0(s3)
   164aa:	1808                	addi	a0,sp,48
   164ac:	00006097          	auipc	ra,0x6
   164b0:	5e4080e7          	jalr	1508(ra) # 1ca90 <_ZN9allow_pin12full_dynamic17unshare_if_shared17h4e6b4433fd7c2282E>
   164b4:	850a                	mv	a0,sp
   164b6:	00006097          	auipc	ra,0x6
   164ba:	5da080e7          	jalr	1498(ra) # 1ca90 <_ZN9allow_pin12full_dynamic17unshare_if_shared17h4e6b4433fd7c2282E>
   164be:	50f6                	lw	ra,124(sp)
   164c0:	5466                	lw	s0,120(sp)
   164c2:	54d6                	lw	s1,116(sp)
   164c4:	5946                	lw	s2,112(sp)
   164c6:	59b6                	lw	s3,108(sp)
   164c8:	6109                	addi	sp,sp,128
   164ca:	8082                	ret

000164cc <_ZN20complex_full_dynamic3app17hd588649fc8f853cfE>:
   164cc:	7171                	addi	sp,sp,-176
   164ce:	d706                	sw	ra,172(sp)
   164d0:	d522                	sw	s0,168(sp)
   164d2:	d326                	sw	s1,164(sp)
   164d4:	d14a                	sw	s2,160(sp)
   164d6:	cf4e                	sw	s3,156(sp)
   164d8:	89aa                	mv	s3,a0
   164da:	4409                	li	s0,2
   164dc:	00810623          	sb	s0,12(sp)
   164e0:	0804                	addi	s1,sp,16
   164e2:	466d                	li	a2,27
   164e4:	8526                	mv	a0,s1
   164e6:	00006097          	auipc	ra,0x6
   164ea:	636080e7          	jalr	1590(ra) # 1cb1c <memcpy>
   164ee:	03810913          	addi	s2,sp,56
   164f2:	06300613          	li	a2,99
   164f6:	854a                	mv	a0,s2
   164f8:	4581                	li	a1,0
   164fa:	00006097          	auipc	ra,0x6
   164fe:	5b6080e7          	jalr	1462(ra) # 1cab0 <memset>
   16502:	8626                	mv	a2,s1
   16504:	02810a23          	sb	s0,52(sp)
   16508:	6509                	lui	a0,0x2
   1650a:	448d                	li	s1,3
   1650c:	4811                	li	a6,4
   1650e:	458d                	li	a1,3
   16510:	54850793          	addi	a5,a0,1352 # 2548 <.Lline_table_start1+0x231d>
   16514:	46ed                	li	a3,27
   16516:	4711                	li	a4,4
   16518:	853e                	mv	a0,a5
   1651a:	00000073          	ecall
   1651e:	00850663          	beq	a0,s0,1652a <_ZN20complex_full_dynamic3app17hd588649fc8f853cfE+0x5e>
   16522:	c23e                	sw	a5,4(sp)
   16524:	c426                	sw	s1,8(sp)
   16526:	01010623          	sb	a6,12(sp)
   1652a:	4609                	li	a2,2
   1652c:	00c51463          	bne	a0,a2,16534 <_ZN20complex_full_dynamic3app17hd588649fc8f853cfE+0x68>
   16530:	4485                	li	s1,1
   16532:	a895                	j	165a6 <_ZN20complex_full_dynamic3app17hd588649fc8f853cfE+0xda>
   16534:	03414503          	lbu	a0,52(sp)
   16538:	4485                	li	s1,1
   1653a:	02c51463          	bne	a0,a2,16562 <_ZN20complex_full_dynamic3app17hd588649fc8f853cfE+0x96>
   1653e:	864a                	mv	a2,s2
   16540:	6509                	lui	a0,0x2
   16542:	458d                	li	a1,3
   16544:	06300693          	li	a3,99
   16548:	470d                	li	a4,3
   1654a:	54850793          	addi	a5,a0,1352 # 2548 <.Lline_table_start1+0x231d>
   1654e:	4409                	li	s0,2
   16550:	853e                	mv	a0,a5
   16552:	00000073          	ecall
   16556:	460d                	li	a2,3
   16558:	00851963          	bne	a0,s0,1656a <_ZN20complex_full_dynamic3app17hd588649fc8f853cfE+0x9e>
   1655c:	4505                	li	a0,1
   1655e:	cd01                	beqz	a0,16576 <_ZN20complex_full_dynamic3app17hd588649fc8f853cfE+0xaa>
   16560:	a099                	j	165a6 <_ZN20complex_full_dynamic3app17hd588649fc8f853cfE+0xda>
   16562:	458d                	li	a1,3
   16564:	4505                	li	a0,1
   16566:	c901                	beqz	a0,16576 <_ZN20complex_full_dynamic3app17hd588649fc8f853cfE+0xaa>
   16568:	a83d                	j	165a6 <_ZN20complex_full_dynamic3app17hd588649fc8f853cfE+0xda>
   1656a:	4501                	li	a0,0
   1656c:	d63e                	sw	a5,44(sp)
   1656e:	d832                	sw	a2,48(sp)
   16570:	02c10a23          	sb	a2,52(sp)
   16574:	e90d                	bnez	a0,165a6 <_ZN20complex_full_dynamic3app17hd588649fc8f853cfE+0xda>
   16576:	6509                	lui	a0,0x2
   16578:	458d                	li	a1,3
   1657a:	460d                	li	a2,3
   1657c:	54850513          	addi	a0,a0,1352 # 2548 <.Lline_table_start1+0x231d>
   16580:	4709                	li	a4,2
   16582:	07f00793          	li	a5,127
   16586:	4681                	li	a3,0
   16588:	00000073          	ecall
   1658c:	00a7fd63          	bgeu	a5,a0,165a6 <_ZN20complex_full_dynamic3app17hd588649fc8f853cfE+0xda>
   16590:	0048                	addi	a0,sp,4
   16592:	00006097          	auipc	ra,0x6
   16596:	4fe080e7          	jalr	1278(ra) # 1ca90 <_ZN9allow_pin12full_dynamic17unshare_if_shared17h4e6b4433fd7c2282E>
   1659a:	1068                	addi	a0,sp,44
   1659c:	00006097          	auipc	ra,0x6
   165a0:	4f4080e7          	jalr	1268(ra) # 1ca90 <_ZN9allow_pin12full_dynamic17unshare_if_shared17h4e6b4433fd7c2282E>
   165a4:	4481                	li	s1,0
   165a6:	c489                	beqz	s1,165b0 <_ZN20complex_full_dynamic3app17hd588649fc8f853cfE+0xe4>
   165a8:	00b9a223          	sw	a1,4(s3)
   165ac:	4505                	li	a0,1
   165ae:	a005                	j	165ce <_ZN20complex_full_dynamic3app17hd588649fc8f853cfE+0x102>
   165b0:	1068                	addi	a0,sp,44
   165b2:	00006097          	auipc	ra,0x6
   165b6:	4de080e7          	jalr	1246(ra) # 1ca90 <_ZN9allow_pin12full_dynamic17unshare_if_shared17h4e6b4433fd7c2282E>
   165ba:	00198513          	addi	a0,s3,1
   165be:	06300613          	li	a2,99
   165c2:	85ca                	mv	a1,s2
   165c4:	00006097          	auipc	ra,0x6
   165c8:	558080e7          	jalr	1368(ra) # 1cb1c <memcpy>
   165cc:	4501                	li	a0,0
   165ce:	00a98023          	sb	a0,0(s3)
   165d2:	1068                	addi	a0,sp,44
   165d4:	00006097          	auipc	ra,0x6
   165d8:	4bc080e7          	jalr	1212(ra) # 1ca90 <_ZN9allow_pin12full_dynamic17unshare_if_shared17h4e6b4433fd7c2282E>
   165dc:	0048                	addi	a0,sp,4
   165de:	00006097          	auipc	ra,0x6
   165e2:	4b2080e7          	jalr	1202(ra) # 1ca90 <_ZN9allow_pin12full_dynamic17unshare_if_shared17h4e6b4433fd7c2282E>
   165e6:	50ba                	lw	ra,172(sp)
   165e8:	542a                	lw	s0,168(sp)
   165ea:	549a                	lw	s1,164(sp)
   165ec:	590a                	lw	s2,160(sp)
   165ee:	49fa                	lw	s3,156(sp)
   165f0:	614d                	addi	sp,sp,176
   165f2:	8082                	ret

000165f4 <_ZN20complex_full_dynamic3app17hd6becfc3757a80b8E>:
   165f4:	7171                	addi	sp,sp,-176
   165f6:	d706                	sw	ra,172(sp)
   165f8:	d522                	sw	s0,168(sp)
   165fa:	d326                	sw	s1,164(sp)
   165fc:	d14a                	sw	s2,160(sp)
   165fe:	cf4e                	sw	s3,156(sp)
   16600:	89aa                	mv	s3,a0
   16602:	4409                	li	s0,2
   16604:	00810423          	sb	s0,8(sp)
   16608:	0064                	addi	s1,sp,12
   1660a:	02d00613          	li	a2,45
   1660e:	8526                	mv	a0,s1
   16610:	00006097          	auipc	ra,0x6
   16614:	50c080e7          	jalr	1292(ra) # 1cb1c <memcpy>
   16618:	04810913          	addi	s2,sp,72
   1661c:	05300613          	li	a2,83
   16620:	854a                	mv	a0,s2
   16622:	4581                	li	a1,0
   16624:	00006097          	auipc	ra,0x6
   16628:	48c080e7          	jalr	1164(ra) # 1cab0 <memset>
   1662c:	8626                	mv	a2,s1
   1662e:	04810223          	sb	s0,68(sp)
   16632:	6505                	lui	a0,0x1
   16634:	4491                	li	s1,4
   16636:	4589                	li	a1,2
   16638:	ec350793          	addi	a5,a0,-317 # ec3 <.Lline_table_start1+0xc98>
   1663c:	02d00693          	li	a3,45
   16640:	4711                	li	a4,4
   16642:	853e                	mv	a0,a5
   16644:	00000073          	ecall
   16648:	00850663          	beq	a0,s0,16654 <_ZN20complex_full_dynamic3app17hd6becfc3757a80b8E+0x60>
   1664c:	c03e                	sw	a5,0(sp)
   1664e:	c222                	sw	s0,4(sp)
   16650:	00910423          	sb	s1,8(sp)
   16654:	4609                	li	a2,2
   16656:	00c51463          	bne	a0,a2,1665e <_ZN20complex_full_dynamic3app17hd6becfc3757a80b8E+0x6a>
   1665a:	4485                	li	s1,1
   1665c:	a89d                	j	166d2 <_ZN20complex_full_dynamic3app17hd6becfc3757a80b8E+0xde>
   1665e:	04414503          	lbu	a0,68(sp)
   16662:	4485                	li	s1,1
   16664:	02c51563          	bne	a0,a2,1668e <_ZN20complex_full_dynamic3app17hd6becfc3757a80b8E+0x9a>
   16668:	864a                	mv	a2,s2
   1666a:	6505                	lui	a0,0x1
   1666c:	481d                	li	a6,7
   1666e:	459d                	li	a1,7
   16670:	05300693          	li	a3,83
   16674:	470d                	li	a4,3
   16676:	ec350793          	addi	a5,a0,-317 # ec3 <.Lline_table_start1+0xc98>
   1667a:	4409                	li	s0,2
   1667c:	853e                	mv	a0,a5
   1667e:	00000073          	ecall
   16682:	460d                	li	a2,3
   16684:	00851963          	bne	a0,s0,16696 <_ZN20complex_full_dynamic3app17hd6becfc3757a80b8E+0xa2>
   16688:	4505                	li	a0,1
   1668a:	cd01                	beqz	a0,166a2 <_ZN20complex_full_dynamic3app17hd6becfc3757a80b8E+0xae>
   1668c:	a099                	j	166d2 <_ZN20complex_full_dynamic3app17hd6becfc3757a80b8E+0xde>
   1668e:	458d                	li	a1,3
   16690:	4505                	li	a0,1
   16692:	c901                	beqz	a0,166a2 <_ZN20complex_full_dynamic3app17hd6becfc3757a80b8E+0xae>
   16694:	a83d                	j	166d2 <_ZN20complex_full_dynamic3app17hd6becfc3757a80b8E+0xde>
   16696:	4501                	li	a0,0
   16698:	de3e                	sw	a5,60(sp)
   1669a:	c0c2                	sw	a6,64(sp)
   1669c:	04c10223          	sb	a2,68(sp)
   166a0:	e90d                	bnez	a0,166d2 <_ZN20complex_full_dynamic3app17hd6becfc3757a80b8E+0xde>
   166a2:	6505                	lui	a0,0x1
   166a4:	4589                	li	a1,2
   166a6:	461d                	li	a2,7
   166a8:	ec350513          	addi	a0,a0,-317 # ec3 <.Lline_table_start1+0xc98>
   166ac:	4709                	li	a4,2
   166ae:	07f00793          	li	a5,127
   166b2:	4681                	li	a3,0
   166b4:	00000073          	ecall
   166b8:	00a7fd63          	bgeu	a5,a0,166d2 <_ZN20complex_full_dynamic3app17hd6becfc3757a80b8E+0xde>
   166bc:	850a                	mv	a0,sp
   166be:	00006097          	auipc	ra,0x6
   166c2:	3d2080e7          	jalr	978(ra) # 1ca90 <_ZN9allow_pin12full_dynamic17unshare_if_shared17h4e6b4433fd7c2282E>
   166c6:	1868                	addi	a0,sp,60
   166c8:	00006097          	auipc	ra,0x6
   166cc:	3c8080e7          	jalr	968(ra) # 1ca90 <_ZN9allow_pin12full_dynamic17unshare_if_shared17h4e6b4433fd7c2282E>
   166d0:	4481                	li	s1,0
   166d2:	c489                	beqz	s1,166dc <_ZN20complex_full_dynamic3app17hd6becfc3757a80b8E+0xe8>
   166d4:	00b9a223          	sw	a1,4(s3)
   166d8:	4505                	li	a0,1
   166da:	a005                	j	166fa <_ZN20complex_full_dynamic3app17hd6becfc3757a80b8E+0x106>
   166dc:	1868                	addi	a0,sp,60
   166de:	00006097          	auipc	ra,0x6
   166e2:	3b2080e7          	jalr	946(ra) # 1ca90 <_ZN9allow_pin12full_dynamic17unshare_if_shared17h4e6b4433fd7c2282E>
   166e6:	00198513          	addi	a0,s3,1
   166ea:	05300613          	li	a2,83
   166ee:	85ca                	mv	a1,s2
   166f0:	00006097          	auipc	ra,0x6
   166f4:	42c080e7          	jalr	1068(ra) # 1cb1c <memcpy>
   166f8:	4501                	li	a0,0
   166fa:	00a98023          	sb	a0,0(s3)
   166fe:	1868                	addi	a0,sp,60
   16700:	00006097          	auipc	ra,0x6
   16704:	390080e7          	jalr	912(ra) # 1ca90 <_ZN9allow_pin12full_dynamic17unshare_if_shared17h4e6b4433fd7c2282E>
   16708:	850a                	mv	a0,sp
   1670a:	00006097          	auipc	ra,0x6
   1670e:	386080e7          	jalr	902(ra) # 1ca90 <_ZN9allow_pin12full_dynamic17unshare_if_shared17h4e6b4433fd7c2282E>
   16712:	50ba                	lw	ra,172(sp)
   16714:	542a                	lw	s0,168(sp)
   16716:	549a                	lw	s1,164(sp)
   16718:	590a                	lw	s2,160(sp)
   1671a:	49fa                	lw	s3,156(sp)
   1671c:	614d                	addi	sp,sp,176
   1671e:	8082                	ret

00016720 <_ZN20complex_full_dynamic3app17hde92fe2455fb5d1eE>:
   16720:	7159                	addi	sp,sp,-112
   16722:	d686                	sw	ra,108(sp)
   16724:	d4a2                	sw	s0,104(sp)
   16726:	d2a6                	sw	s1,100(sp)
   16728:	d0ca                	sw	s2,96(sp)
   1672a:	cece                	sw	s3,92(sp)
   1672c:	89aa                	mv	s3,a0
   1672e:	4409                	li	s0,2
   16730:	00810623          	sb	s0,12(sp)
   16734:	0804                	addi	s1,sp,16
   16736:	4651                	li	a2,20
   16738:	8526                	mv	a0,s1
   1673a:	00006097          	auipc	ra,0x6
   1673e:	3e2080e7          	jalr	994(ra) # 1cb1c <memcpy>
   16742:	03010913          	addi	s2,sp,48
   16746:	02b00613          	li	a2,43
   1674a:	854a                	mv	a0,s2
   1674c:	4581                	li	a1,0
   1674e:	00006097          	auipc	ra,0x6
   16752:	362080e7          	jalr	866(ra) # 1cab0 <memset>
   16756:	8626                	mv	a2,s1
   16758:	02810623          	sb	s0,44(sp)
   1675c:	6509                	lui	a0,0x2
   1675e:	44a1                	li	s1,8
   16760:	4811                	li	a6,4
   16762:	45a1                	li	a1,8
   16764:	39f50793          	addi	a5,a0,927 # 239f <.Lline_table_start1+0x2174>
   16768:	46d1                	li	a3,20
   1676a:	4711                	li	a4,4
   1676c:	853e                	mv	a0,a5
   1676e:	00000073          	ecall
   16772:	00850663          	beq	a0,s0,1677e <_ZN20complex_full_dynamic3app17hde92fe2455fb5d1eE+0x5e>
   16776:	c23e                	sw	a5,4(sp)
   16778:	c426                	sw	s1,8(sp)
   1677a:	01010623          	sb	a6,12(sp)
   1677e:	4609                	li	a2,2
   16780:	00c51463          	bne	a0,a2,16788 <_ZN20complex_full_dynamic3app17hde92fe2455fb5d1eE+0x68>
   16784:	4485                	li	s1,1
   16786:	a89d                	j	167fc <_ZN20complex_full_dynamic3app17hde92fe2455fb5d1eE+0xdc>
   16788:	02c14503          	lbu	a0,44(sp)
   1678c:	4485                	li	s1,1
   1678e:	02c51563          	bne	a0,a2,167b8 <_ZN20complex_full_dynamic3app17hde92fe2455fb5d1eE+0x98>
   16792:	864a                	mv	a2,s2
   16794:	6509                	lui	a0,0x2
   16796:	4811                	li	a6,4
   16798:	4591                	li	a1,4
   1679a:	02b00693          	li	a3,43
   1679e:	470d                	li	a4,3
   167a0:	39f50793          	addi	a5,a0,927 # 239f <.Lline_table_start1+0x2174>
   167a4:	4409                	li	s0,2
   167a6:	853e                	mv	a0,a5
   167a8:	00000073          	ecall
   167ac:	460d                	li	a2,3
   167ae:	00851963          	bne	a0,s0,167c0 <_ZN20complex_full_dynamic3app17hde92fe2455fb5d1eE+0xa0>
   167b2:	4505                	li	a0,1
   167b4:	cd01                	beqz	a0,167cc <_ZN20complex_full_dynamic3app17hde92fe2455fb5d1eE+0xac>
   167b6:	a099                	j	167fc <_ZN20complex_full_dynamic3app17hde92fe2455fb5d1eE+0xdc>
   167b8:	458d                	li	a1,3
   167ba:	4505                	li	a0,1
   167bc:	c901                	beqz	a0,167cc <_ZN20complex_full_dynamic3app17hde92fe2455fb5d1eE+0xac>
   167be:	a83d                	j	167fc <_ZN20complex_full_dynamic3app17hde92fe2455fb5d1eE+0xdc>
   167c0:	4501                	li	a0,0
   167c2:	d23e                	sw	a5,36(sp)
   167c4:	d442                	sw	a6,40(sp)
   167c6:	02c10623          	sb	a2,44(sp)
   167ca:	e90d                	bnez	a0,167fc <_ZN20complex_full_dynamic3app17hde92fe2455fb5d1eE+0xdc>
   167cc:	6509                	lui	a0,0x2
   167ce:	45a1                	li	a1,8
   167d0:	4611                	li	a2,4
   167d2:	39f50513          	addi	a0,a0,927 # 239f <.Lline_table_start1+0x2174>
   167d6:	4709                	li	a4,2
   167d8:	07f00793          	li	a5,127
   167dc:	4681                	li	a3,0
   167de:	00000073          	ecall
   167e2:	00a7fd63          	bgeu	a5,a0,167fc <_ZN20complex_full_dynamic3app17hde92fe2455fb5d1eE+0xdc>
   167e6:	0048                	addi	a0,sp,4
   167e8:	00006097          	auipc	ra,0x6
   167ec:	2a8080e7          	jalr	680(ra) # 1ca90 <_ZN9allow_pin12full_dynamic17unshare_if_shared17h4e6b4433fd7c2282E>
   167f0:	1048                	addi	a0,sp,36
   167f2:	00006097          	auipc	ra,0x6
   167f6:	29e080e7          	jalr	670(ra) # 1ca90 <_ZN9allow_pin12full_dynamic17unshare_if_shared17h4e6b4433fd7c2282E>
   167fa:	4481                	li	s1,0
   167fc:	c489                	beqz	s1,16806 <_ZN20complex_full_dynamic3app17hde92fe2455fb5d1eE+0xe6>
   167fe:	00b9a223          	sw	a1,4(s3)
   16802:	4505                	li	a0,1
   16804:	a005                	j	16824 <_ZN20complex_full_dynamic3app17hde92fe2455fb5d1eE+0x104>
   16806:	1048                	addi	a0,sp,36
   16808:	00006097          	auipc	ra,0x6
   1680c:	288080e7          	jalr	648(ra) # 1ca90 <_ZN9allow_pin12full_dynamic17unshare_if_shared17h4e6b4433fd7c2282E>
   16810:	00198513          	addi	a0,s3,1
   16814:	02b00613          	li	a2,43
   16818:	85ca                	mv	a1,s2
   1681a:	00006097          	auipc	ra,0x6
   1681e:	302080e7          	jalr	770(ra) # 1cb1c <memcpy>
   16822:	4501                	li	a0,0
   16824:	00a98023          	sb	a0,0(s3)
   16828:	1048                	addi	a0,sp,36
   1682a:	00006097          	auipc	ra,0x6
   1682e:	266080e7          	jalr	614(ra) # 1ca90 <_ZN9allow_pin12full_dynamic17unshare_if_shared17h4e6b4433fd7c2282E>
   16832:	0048                	addi	a0,sp,4
   16834:	00006097          	auipc	ra,0x6
   16838:	25c080e7          	jalr	604(ra) # 1ca90 <_ZN9allow_pin12full_dynamic17unshare_if_shared17h4e6b4433fd7c2282E>
   1683c:	50b6                	lw	ra,108(sp)
   1683e:	5426                	lw	s0,104(sp)
   16840:	5496                	lw	s1,100(sp)
   16842:	5906                	lw	s2,96(sp)
   16844:	49f6                	lw	s3,92(sp)
   16846:	6165                	addi	sp,sp,112
   16848:	8082                	ret

0001684a <_ZN20complex_full_dynamic3app17hdf16bcf93a30c461E>:
   1684a:	7119                	addi	sp,sp,-128
   1684c:	de86                	sw	ra,124(sp)
   1684e:	dca2                	sw	s0,120(sp)
   16850:	daa6                	sw	s1,116(sp)
   16852:	d8ca                	sw	s2,112(sp)
   16854:	d6ce                	sw	s3,108(sp)
   16856:	89aa                	mv	s3,a0
   16858:	4409                	li	s0,2
   1685a:	00810623          	sb	s0,12(sp)
   1685e:	0804                	addi	s1,sp,16
   16860:	4661                	li	a2,24
   16862:	8526                	mv	a0,s1
   16864:	00006097          	auipc	ra,0x6
   16868:	2b8080e7          	jalr	696(ra) # 1cb1c <memcpy>
   1686c:	03410913          	addi	s2,sp,52
   16870:	03600613          	li	a2,54
   16874:	854a                	mv	a0,s2
   16876:	4581                	li	a1,0
   16878:	00006097          	auipc	ra,0x6
   1687c:	238080e7          	jalr	568(ra) # 1cab0 <memset>
   16880:	8626                	mv	a2,s1
   16882:	02810823          	sb	s0,48(sp)
   16886:	0f300793          	li	a5,243
   1688a:	44a1                	li	s1,8
   1688c:	4811                	li	a6,4
   1688e:	0f300513          	li	a0,243
   16892:	45a1                	li	a1,8
   16894:	46e1                	li	a3,24
   16896:	4711                	li	a4,4
   16898:	00000073          	ecall
   1689c:	00850663          	beq	a0,s0,168a8 <_ZN20complex_full_dynamic3app17hdf16bcf93a30c461E+0x5e>
   168a0:	c23e                	sw	a5,4(sp)
   168a2:	c426                	sw	s1,8(sp)
   168a4:	01010623          	sb	a6,12(sp)
   168a8:	4609                	li	a2,2
   168aa:	00c51463          	bne	a0,a2,168b2 <_ZN20complex_full_dynamic3app17hdf16bcf93a30c461E+0x68>
   168ae:	4785                	li	a5,1
   168b0:	a895                	j	16924 <_ZN20complex_full_dynamic3app17hdf16bcf93a30c461E+0xda>
   168b2:	03014503          	lbu	a0,48(sp)
   168b6:	4785                	li	a5,1
   168b8:	02c51563          	bne	a0,a2,168e2 <_ZN20complex_full_dynamic3app17hdf16bcf93a30c461E+0x98>
   168bc:	864a                	mv	a2,s2
   168be:	0f300493          	li	s1,243
   168c2:	4811                	li	a6,4
   168c4:	0f300513          	li	a0,243
   168c8:	4591                	li	a1,4
   168ca:	03600693          	li	a3,54
   168ce:	470d                	li	a4,3
   168d0:	4409                	li	s0,2
   168d2:	00000073          	ecall
   168d6:	460d                	li	a2,3
   168d8:	00851963          	bne	a0,s0,168ea <_ZN20complex_full_dynamic3app17hdf16bcf93a30c461E+0xa0>
   168dc:	4505                	li	a0,1
   168de:	cd01                	beqz	a0,168f6 <_ZN20complex_full_dynamic3app17hdf16bcf93a30c461E+0xac>
   168e0:	a091                	j	16924 <_ZN20complex_full_dynamic3app17hdf16bcf93a30c461E+0xda>
   168e2:	458d                	li	a1,3
   168e4:	4505                	li	a0,1
   168e6:	c901                	beqz	a0,168f6 <_ZN20complex_full_dynamic3app17hdf16bcf93a30c461E+0xac>
   168e8:	a835                	j	16924 <_ZN20complex_full_dynamic3app17hdf16bcf93a30c461E+0xda>
   168ea:	4501                	li	a0,0
   168ec:	d426                	sw	s1,40(sp)
   168ee:	d642                	sw	a6,44(sp)
   168f0:	02c10823          	sb	a2,48(sp)
   168f4:	e905                	bnez	a0,16924 <_ZN20complex_full_dynamic3app17hdf16bcf93a30c461E+0xda>
   168f6:	0f300513          	li	a0,243
   168fa:	45a1                	li	a1,8
   168fc:	4611                	li	a2,4
   168fe:	4709                	li	a4,2
   16900:	07f00493          	li	s1,127
   16904:	4681                	li	a3,0
   16906:	00000073          	ecall
   1690a:	00a4fd63          	bgeu	s1,a0,16924 <_ZN20complex_full_dynamic3app17hdf16bcf93a30c461E+0xda>
   1690e:	0048                	addi	a0,sp,4
   16910:	00006097          	auipc	ra,0x6
   16914:	180080e7          	jalr	384(ra) # 1ca90 <_ZN9allow_pin12full_dynamic17unshare_if_shared17h4e6b4433fd7c2282E>
   16918:	1028                	addi	a0,sp,40
   1691a:	00006097          	auipc	ra,0x6
   1691e:	176080e7          	jalr	374(ra) # 1ca90 <_ZN9allow_pin12full_dynamic17unshare_if_shared17h4e6b4433fd7c2282E>
   16922:	4781                	li	a5,0
   16924:	c789                	beqz	a5,1692e <_ZN20complex_full_dynamic3app17hdf16bcf93a30c461E+0xe4>
   16926:	00b9a223          	sw	a1,4(s3)
   1692a:	4505                	li	a0,1
   1692c:	a005                	j	1694c <_ZN20complex_full_dynamic3app17hdf16bcf93a30c461E+0x102>
   1692e:	1028                	addi	a0,sp,40
   16930:	00006097          	auipc	ra,0x6
   16934:	160080e7          	jalr	352(ra) # 1ca90 <_ZN9allow_pin12full_dynamic17unshare_if_shared17h4e6b4433fd7c2282E>
   16938:	00198513          	addi	a0,s3,1
   1693c:	03600613          	li	a2,54
   16940:	85ca                	mv	a1,s2
   16942:	00006097          	auipc	ra,0x6
   16946:	1da080e7          	jalr	474(ra) # 1cb1c <memcpy>
   1694a:	4501                	li	a0,0
   1694c:	00a98023          	sb	a0,0(s3)
   16950:	1028                	addi	a0,sp,40
   16952:	00006097          	auipc	ra,0x6
   16956:	13e080e7          	jalr	318(ra) # 1ca90 <_ZN9allow_pin12full_dynamic17unshare_if_shared17h4e6b4433fd7c2282E>
   1695a:	0048                	addi	a0,sp,4
   1695c:	00006097          	auipc	ra,0x6
   16960:	134080e7          	jalr	308(ra) # 1ca90 <_ZN9allow_pin12full_dynamic17unshare_if_shared17h4e6b4433fd7c2282E>
   16964:	50f6                	lw	ra,124(sp)
   16966:	5466                	lw	s0,120(sp)
   16968:	54d6                	lw	s1,116(sp)
   1696a:	5946                	lw	s2,112(sp)
   1696c:	59b6                	lw	s3,108(sp)
   1696e:	6109                	addi	sp,sp,128
   16970:	8082                	ret

00016972 <_ZN20complex_full_dynamic3app17he10c03581875e610E>:
   16972:	7159                	addi	sp,sp,-112
   16974:	d686                	sw	ra,108(sp)
   16976:	d4a2                	sw	s0,104(sp)
   16978:	d2a6                	sw	s1,100(sp)
   1697a:	d0ca                	sw	s2,96(sp)
   1697c:	cece                	sw	s3,92(sp)
   1697e:	89aa                	mv	s3,a0
   16980:	4409                	li	s0,2
   16982:	00810823          	sb	s0,16(sp)
   16986:	0844                	addi	s1,sp,20
   16988:	02b00613          	li	a2,43
   1698c:	8526                	mv	a0,s1
   1698e:	00006097          	auipc	ra,0x6
   16992:	18e080e7          	jalr	398(ra) # 1cb1c <memcpy>
   16996:	8626                	mv	a2,s1
   16998:	04010c23          	sb	zero,88(sp)
   1699c:	04810423          	sb	s0,72(sp)
   169a0:	c682                	sw	zero,76(sp)
   169a2:	c882                	sw	zero,80(sp)
   169a4:	ca82                	sw	zero,84(sp)
   169a6:	6505                	lui	a0,0x1
   169a8:	4499                	li	s1,6
   169aa:	4811                	li	a6,4
   169ac:	4599                	li	a1,6
   169ae:	46550793          	addi	a5,a0,1125 # 1465 <.Lline_table_start1+0x123a>
   169b2:	02b00693          	li	a3,43
   169b6:	4711                	li	a4,4
   169b8:	853e                	mv	a0,a5
   169ba:	00000073          	ecall
   169be:	00850663          	beq	a0,s0,169ca <_ZN20complex_full_dynamic3app17he10c03581875e610E+0x58>
   169c2:	c43e                	sw	a5,8(sp)
   169c4:	c626                	sw	s1,12(sp)
   169c6:	01010823          	sb	a6,16(sp)
   169ca:	4609                	li	a2,2
   169cc:	04c10913          	addi	s2,sp,76
   169d0:	00c51463          	bne	a0,a2,169d8 <_ZN20complex_full_dynamic3app17he10c03581875e610E+0x66>
   169d4:	4485                	li	s1,1
   169d6:	a88d                	j	16a48 <_ZN20complex_full_dynamic3app17he10c03581875e610E+0xd6>
   169d8:	04814503          	lbu	a0,72(sp)
   169dc:	4485                	li	s1,1
   169de:	02c51363          	bne	a0,a2,16a04 <_ZN20complex_full_dynamic3app17he10c03581875e610E+0x92>
   169e2:	4581                	li	a1,0
   169e4:	864a                	mv	a2,s2
   169e6:	6505                	lui	a0,0x1
   169e8:	46b5                	li	a3,13
   169ea:	470d                	li	a4,3
   169ec:	46550793          	addi	a5,a0,1125 # 1465 <.Lline_table_start1+0x123a>
   169f0:	4409                	li	s0,2
   169f2:	853e                	mv	a0,a5
   169f4:	00000073          	ecall
   169f8:	460d                	li	a2,3
   169fa:	00851963          	bne	a0,s0,16a0c <_ZN20complex_full_dynamic3app17he10c03581875e610E+0x9a>
   169fe:	4505                	li	a0,1
   16a00:	cd01                	beqz	a0,16a18 <_ZN20complex_full_dynamic3app17he10c03581875e610E+0xa6>
   16a02:	a099                	j	16a48 <_ZN20complex_full_dynamic3app17he10c03581875e610E+0xd6>
   16a04:	458d                	li	a1,3
   16a06:	4505                	li	a0,1
   16a08:	c901                	beqz	a0,16a18 <_ZN20complex_full_dynamic3app17he10c03581875e610E+0xa6>
   16a0a:	a83d                	j	16a48 <_ZN20complex_full_dynamic3app17he10c03581875e610E+0xd6>
   16a0c:	4501                	li	a0,0
   16a0e:	c0be                	sw	a5,64(sp)
   16a10:	c282                	sw	zero,68(sp)
   16a12:	04c10423          	sb	a2,72(sp)
   16a16:	e90d                	bnez	a0,16a48 <_ZN20complex_full_dynamic3app17he10c03581875e610E+0xd6>
   16a18:	6505                	lui	a0,0x1
   16a1a:	4599                	li	a1,6
   16a1c:	46550513          	addi	a0,a0,1125 # 1465 <.Lline_table_start1+0x123a>
   16a20:	4709                	li	a4,2
   16a22:	07f00793          	li	a5,127
   16a26:	4601                	li	a2,0
   16a28:	4681                	li	a3,0
   16a2a:	00000073          	ecall
   16a2e:	00a7fd63          	bgeu	a5,a0,16a48 <_ZN20complex_full_dynamic3app17he10c03581875e610E+0xd6>
   16a32:	0028                	addi	a0,sp,8
   16a34:	00006097          	auipc	ra,0x6
   16a38:	05c080e7          	jalr	92(ra) # 1ca90 <_ZN9allow_pin12full_dynamic17unshare_if_shared17h4e6b4433fd7c2282E>
   16a3c:	0088                	addi	a0,sp,64
   16a3e:	00006097          	auipc	ra,0x6
   16a42:	052080e7          	jalr	82(ra) # 1ca90 <_ZN9allow_pin12full_dynamic17unshare_if_shared17h4e6b4433fd7c2282E>
   16a46:	4481                	li	s1,0
   16a48:	c489                	beqz	s1,16a52 <_ZN20complex_full_dynamic3app17he10c03581875e610E+0xe0>
   16a4a:	00b9a223          	sw	a1,4(s3)
   16a4e:	4505                	li	a0,1
   16a50:	a839                	j	16a6e <_ZN20complex_full_dynamic3app17he10c03581875e610E+0xfc>
   16a52:	0088                	addi	a0,sp,64
   16a54:	00006097          	auipc	ra,0x6
   16a58:	03c080e7          	jalr	60(ra) # 1ca90 <_ZN9allow_pin12full_dynamic17unshare_if_shared17h4e6b4433fd7c2282E>
   16a5c:	00198513          	addi	a0,s3,1
   16a60:	4635                	li	a2,13
   16a62:	85ca                	mv	a1,s2
   16a64:	00006097          	auipc	ra,0x6
   16a68:	0b8080e7          	jalr	184(ra) # 1cb1c <memcpy>
   16a6c:	4501                	li	a0,0
   16a6e:	00a98023          	sb	a0,0(s3)
   16a72:	0088                	addi	a0,sp,64
   16a74:	00006097          	auipc	ra,0x6
   16a78:	01c080e7          	jalr	28(ra) # 1ca90 <_ZN9allow_pin12full_dynamic17unshare_if_shared17h4e6b4433fd7c2282E>
   16a7c:	0028                	addi	a0,sp,8
   16a7e:	00006097          	auipc	ra,0x6
   16a82:	012080e7          	jalr	18(ra) # 1ca90 <_ZN9allow_pin12full_dynamic17unshare_if_shared17h4e6b4433fd7c2282E>
   16a86:	50b6                	lw	ra,108(sp)
   16a88:	5426                	lw	s0,104(sp)
   16a8a:	5496                	lw	s1,100(sp)
   16a8c:	5906                	lw	s2,96(sp)
   16a8e:	49f6                	lw	s3,92(sp)
   16a90:	6165                	addi	sp,sp,112
   16a92:	8082                	ret

00016a94 <_ZN20complex_full_dynamic3app17he21b3ef53e6a1b90E>:
   16a94:	711d                	addi	sp,sp,-96
   16a96:	ce86                	sw	ra,92(sp)
   16a98:	cca2                	sw	s0,88(sp)
   16a9a:	caa6                	sw	s1,84(sp)
   16a9c:	c8ca                	sw	s2,80(sp)
   16a9e:	c6ce                	sw	s3,76(sp)
   16aa0:	89aa                	mv	s3,a0
   16aa2:	4409                	li	s0,2
   16aa4:	00810423          	sb	s0,8(sp)
   16aa8:	0064                	addi	s1,sp,12
   16aaa:	4635                	li	a2,13
   16aac:	8526                	mv	a0,s1
   16aae:	00006097          	auipc	ra,0x6
   16ab2:	06e080e7          	jalr	110(ra) # 1cb1c <memcpy>
   16ab6:	02810913          	addi	s2,sp,40
   16aba:	02100613          	li	a2,33
   16abe:	854a                	mv	a0,s2
   16ac0:	4581                	li	a1,0
   16ac2:	00006097          	auipc	ra,0x6
   16ac6:	fee080e7          	jalr	-18(ra) # 1cab0 <memset>
   16aca:	4581                	li	a1,0
   16acc:	8626                	mv	a2,s1
   16ace:	02810223          	sb	s0,36(sp)
   16ad2:	6505                	lui	a0,0x1
   16ad4:	4491                	li	s1,4
   16ad6:	6b050793          	addi	a5,a0,1712 # 16b0 <.Lline_table_start1+0x1485>
   16ada:	46b5                	li	a3,13
   16adc:	4711                	li	a4,4
   16ade:	853e                	mv	a0,a5
   16ae0:	00000073          	ecall
   16ae4:	00850663          	beq	a0,s0,16af0 <_ZN20complex_full_dynamic3app17he21b3ef53e6a1b90E+0x5c>
   16ae8:	c03e                	sw	a5,0(sp)
   16aea:	c202                	sw	zero,4(sp)
   16aec:	00910423          	sb	s1,8(sp)
   16af0:	4609                	li	a2,2
   16af2:	00c51463          	bne	a0,a2,16afa <_ZN20complex_full_dynamic3app17he21b3ef53e6a1b90E+0x66>
   16af6:	4485                	li	s1,1
   16af8:	a895                	j	16b6c <_ZN20complex_full_dynamic3app17he21b3ef53e6a1b90E+0xd8>
   16afa:	02414503          	lbu	a0,36(sp)
   16afe:	4485                	li	s1,1
   16b00:	02c51463          	bne	a0,a2,16b28 <_ZN20complex_full_dynamic3app17he21b3ef53e6a1b90E+0x94>
   16b04:	4581                	li	a1,0
   16b06:	864a                	mv	a2,s2
   16b08:	6505                	lui	a0,0x1
   16b0a:	02100693          	li	a3,33
   16b0e:	470d                	li	a4,3
   16b10:	6b050793          	addi	a5,a0,1712 # 16b0 <.Lline_table_start1+0x1485>
   16b14:	4409                	li	s0,2
   16b16:	853e                	mv	a0,a5
   16b18:	00000073          	ecall
   16b1c:	460d                	li	a2,3
   16b1e:	00851963          	bne	a0,s0,16b30 <_ZN20complex_full_dynamic3app17he21b3ef53e6a1b90E+0x9c>
   16b22:	4505                	li	a0,1
   16b24:	cd01                	beqz	a0,16b3c <_ZN20complex_full_dynamic3app17he21b3ef53e6a1b90E+0xa8>
   16b26:	a099                	j	16b6c <_ZN20complex_full_dynamic3app17he21b3ef53e6a1b90E+0xd8>
   16b28:	458d                	li	a1,3
   16b2a:	4505                	li	a0,1
   16b2c:	c901                	beqz	a0,16b3c <_ZN20complex_full_dynamic3app17he21b3ef53e6a1b90E+0xa8>
   16b2e:	a83d                	j	16b6c <_ZN20complex_full_dynamic3app17he21b3ef53e6a1b90E+0xd8>
   16b30:	4501                	li	a0,0
   16b32:	ce3e                	sw	a5,28(sp)
   16b34:	d002                	sw	zero,32(sp)
   16b36:	02c10223          	sb	a2,36(sp)
   16b3a:	e90d                	bnez	a0,16b6c <_ZN20complex_full_dynamic3app17he21b3ef53e6a1b90E+0xd8>
   16b3c:	6505                	lui	a0,0x1
   16b3e:	6b050513          	addi	a0,a0,1712 # 16b0 <.Lline_table_start1+0x1485>
   16b42:	4709                	li	a4,2
   16b44:	07f00793          	li	a5,127
   16b48:	4581                	li	a1,0
   16b4a:	4601                	li	a2,0
   16b4c:	4681                	li	a3,0
   16b4e:	00000073          	ecall
   16b52:	00a7fd63          	bgeu	a5,a0,16b6c <_ZN20complex_full_dynamic3app17he21b3ef53e6a1b90E+0xd8>
   16b56:	850a                	mv	a0,sp
   16b58:	00006097          	auipc	ra,0x6
   16b5c:	f38080e7          	jalr	-200(ra) # 1ca90 <_ZN9allow_pin12full_dynamic17unshare_if_shared17h4e6b4433fd7c2282E>
   16b60:	0868                	addi	a0,sp,28
   16b62:	00006097          	auipc	ra,0x6
   16b66:	f2e080e7          	jalr	-210(ra) # 1ca90 <_ZN9allow_pin12full_dynamic17unshare_if_shared17h4e6b4433fd7c2282E>
   16b6a:	4481                	li	s1,0
   16b6c:	c489                	beqz	s1,16b76 <_ZN20complex_full_dynamic3app17he21b3ef53e6a1b90E+0xe2>
   16b6e:	00b9a223          	sw	a1,4(s3)
   16b72:	4505                	li	a0,1
   16b74:	a005                	j	16b94 <_ZN20complex_full_dynamic3app17he21b3ef53e6a1b90E+0x100>
   16b76:	0868                	addi	a0,sp,28
   16b78:	00006097          	auipc	ra,0x6
   16b7c:	f18080e7          	jalr	-232(ra) # 1ca90 <_ZN9allow_pin12full_dynamic17unshare_if_shared17h4e6b4433fd7c2282E>
   16b80:	00198513          	addi	a0,s3,1
   16b84:	02100613          	li	a2,33
   16b88:	85ca                	mv	a1,s2
   16b8a:	00006097          	auipc	ra,0x6
   16b8e:	f92080e7          	jalr	-110(ra) # 1cb1c <memcpy>
   16b92:	4501                	li	a0,0
   16b94:	00a98023          	sb	a0,0(s3)
   16b98:	0868                	addi	a0,sp,28
   16b9a:	00006097          	auipc	ra,0x6
   16b9e:	ef6080e7          	jalr	-266(ra) # 1ca90 <_ZN9allow_pin12full_dynamic17unshare_if_shared17h4e6b4433fd7c2282E>
   16ba2:	850a                	mv	a0,sp
   16ba4:	00006097          	auipc	ra,0x6
   16ba8:	eec080e7          	jalr	-276(ra) # 1ca90 <_ZN9allow_pin12full_dynamic17unshare_if_shared17h4e6b4433fd7c2282E>
   16bac:	40f6                	lw	ra,92(sp)
   16bae:	4466                	lw	s0,88(sp)
   16bb0:	44d6                	lw	s1,84(sp)
   16bb2:	4946                	lw	s2,80(sp)
   16bb4:	49b6                	lw	s3,76(sp)
   16bb6:	6125                	addi	sp,sp,96
   16bb8:	8082                	ret

00016bba <_ZN20complex_full_dynamic3app17he29c90cc4e2ee72dE>:
   16bba:	7175                	addi	sp,sp,-144
   16bbc:	c706                	sw	ra,140(sp)
   16bbe:	c522                	sw	s0,136(sp)
   16bc0:	c326                	sw	s1,132(sp)
   16bc2:	c14a                	sw	s2,128(sp)
   16bc4:	dece                	sw	s3,124(sp)
   16bc6:	89aa                	mv	s3,a0
   16bc8:	4409                	li	s0,2
   16bca:	00810423          	sb	s0,8(sp)
   16bce:	0064                	addi	s1,sp,12
   16bd0:	03b00613          	li	a2,59
   16bd4:	8526                	mv	a0,s1
   16bd6:	00006097          	auipc	ra,0x6
   16bda:	f46080e7          	jalr	-186(ra) # 1cb1c <memcpy>
   16bde:	05410913          	addi	s2,sp,84
   16be2:	02700613          	li	a2,39
   16be6:	854a                	mv	a0,s2
   16be8:	4581                	li	a1,0
   16bea:	00006097          	auipc	ra,0x6
   16bee:	ec6080e7          	jalr	-314(ra) # 1cab0 <memset>
   16bf2:	8626                	mv	a2,s1
   16bf4:	04810823          	sb	s0,80(sp)
   16bf8:	6505                	lui	a0,0x1
   16bfa:	4495                	li	s1,5
   16bfc:	4811                	li	a6,4
   16bfe:	4595                	li	a1,5
   16c00:	bd350793          	addi	a5,a0,-1069 # bd3 <.Lline_table_start1+0x9a8>
   16c04:	03b00693          	li	a3,59
   16c08:	4711                	li	a4,4
   16c0a:	853e                	mv	a0,a5
   16c0c:	00000073          	ecall
   16c10:	00850663          	beq	a0,s0,16c1c <_ZN20complex_full_dynamic3app17he29c90cc4e2ee72dE+0x62>
   16c14:	c03e                	sw	a5,0(sp)
   16c16:	c226                	sw	s1,4(sp)
   16c18:	01010423          	sb	a6,8(sp)
   16c1c:	4609                	li	a2,2
   16c1e:	00c51463          	bne	a0,a2,16c26 <_ZN20complex_full_dynamic3app17he29c90cc4e2ee72dE+0x6c>
   16c22:	4485                	li	s1,1
   16c24:	a895                	j	16c98 <_ZN20complex_full_dynamic3app17he29c90cc4e2ee72dE+0xde>
   16c26:	05014503          	lbu	a0,80(sp)
   16c2a:	4485                	li	s1,1
   16c2c:	02c51463          	bne	a0,a2,16c54 <_ZN20complex_full_dynamic3app17he29c90cc4e2ee72dE+0x9a>
   16c30:	864a                	mv	a2,s2
   16c32:	6505                	lui	a0,0x1
   16c34:	458d                	li	a1,3
   16c36:	02700693          	li	a3,39
   16c3a:	470d                	li	a4,3
   16c3c:	bd350793          	addi	a5,a0,-1069 # bd3 <.Lline_table_start1+0x9a8>
   16c40:	4409                	li	s0,2
   16c42:	853e                	mv	a0,a5
   16c44:	00000073          	ecall
   16c48:	460d                	li	a2,3
   16c4a:	00851963          	bne	a0,s0,16c5c <_ZN20complex_full_dynamic3app17he29c90cc4e2ee72dE+0xa2>
   16c4e:	4505                	li	a0,1
   16c50:	cd01                	beqz	a0,16c68 <_ZN20complex_full_dynamic3app17he29c90cc4e2ee72dE+0xae>
   16c52:	a099                	j	16c98 <_ZN20complex_full_dynamic3app17he29c90cc4e2ee72dE+0xde>
   16c54:	458d                	li	a1,3
   16c56:	4505                	li	a0,1
   16c58:	c901                	beqz	a0,16c68 <_ZN20complex_full_dynamic3app17he29c90cc4e2ee72dE+0xae>
   16c5a:	a83d                	j	16c98 <_ZN20complex_full_dynamic3app17he29c90cc4e2ee72dE+0xde>
   16c5c:	4501                	li	a0,0
   16c5e:	c4be                	sw	a5,72(sp)
   16c60:	c6b2                	sw	a2,76(sp)
   16c62:	04c10823          	sb	a2,80(sp)
   16c66:	e90d                	bnez	a0,16c98 <_ZN20complex_full_dynamic3app17he29c90cc4e2ee72dE+0xde>
   16c68:	6505                	lui	a0,0x1
   16c6a:	4595                	li	a1,5
   16c6c:	460d                	li	a2,3
   16c6e:	bd350513          	addi	a0,a0,-1069 # bd3 <.Lline_table_start1+0x9a8>
   16c72:	4709                	li	a4,2
   16c74:	07f00793          	li	a5,127
   16c78:	4681                	li	a3,0
   16c7a:	00000073          	ecall
   16c7e:	00a7fd63          	bgeu	a5,a0,16c98 <_ZN20complex_full_dynamic3app17he29c90cc4e2ee72dE+0xde>
   16c82:	850a                	mv	a0,sp
   16c84:	00006097          	auipc	ra,0x6
   16c88:	e0c080e7          	jalr	-500(ra) # 1ca90 <_ZN9allow_pin12full_dynamic17unshare_if_shared17h4e6b4433fd7c2282E>
   16c8c:	00a8                	addi	a0,sp,72
   16c8e:	00006097          	auipc	ra,0x6
   16c92:	e02080e7          	jalr	-510(ra) # 1ca90 <_ZN9allow_pin12full_dynamic17unshare_if_shared17h4e6b4433fd7c2282E>
   16c96:	4481                	li	s1,0
   16c98:	c489                	beqz	s1,16ca2 <_ZN20complex_full_dynamic3app17he29c90cc4e2ee72dE+0xe8>
   16c9a:	00b9a223          	sw	a1,4(s3)
   16c9e:	4505                	li	a0,1
   16ca0:	a005                	j	16cc0 <_ZN20complex_full_dynamic3app17he29c90cc4e2ee72dE+0x106>
   16ca2:	00a8                	addi	a0,sp,72
   16ca4:	00006097          	auipc	ra,0x6
   16ca8:	dec080e7          	jalr	-532(ra) # 1ca90 <_ZN9allow_pin12full_dynamic17unshare_if_shared17h4e6b4433fd7c2282E>
   16cac:	00198513          	addi	a0,s3,1
   16cb0:	02700613          	li	a2,39
   16cb4:	85ca                	mv	a1,s2
   16cb6:	00006097          	auipc	ra,0x6
   16cba:	e66080e7          	jalr	-410(ra) # 1cb1c <memcpy>
   16cbe:	4501                	li	a0,0
   16cc0:	00a98023          	sb	a0,0(s3)
   16cc4:	00a8                	addi	a0,sp,72
   16cc6:	00006097          	auipc	ra,0x6
   16cca:	dca080e7          	jalr	-566(ra) # 1ca90 <_ZN9allow_pin12full_dynamic17unshare_if_shared17h4e6b4433fd7c2282E>
   16cce:	850a                	mv	a0,sp
   16cd0:	00006097          	auipc	ra,0x6
   16cd4:	dc0080e7          	jalr	-576(ra) # 1ca90 <_ZN9allow_pin12full_dynamic17unshare_if_shared17h4e6b4433fd7c2282E>
   16cd8:	40ba                	lw	ra,140(sp)
   16cda:	442a                	lw	s0,136(sp)
   16cdc:	449a                	lw	s1,132(sp)
   16cde:	490a                	lw	s2,128(sp)
   16ce0:	59f6                	lw	s3,124(sp)
   16ce2:	6149                	addi	sp,sp,144
   16ce4:	8082                	ret

00016ce6 <_ZN20complex_full_dynamic3app17he44374c3a01e5516E>:
   16ce6:	7135                	addi	sp,sp,-160
   16ce8:	cf06                	sw	ra,156(sp)
   16cea:	cd22                	sw	s0,152(sp)
   16cec:	cb26                	sw	s1,148(sp)
   16cee:	c94a                	sw	s2,144(sp)
   16cf0:	c74e                	sw	s3,140(sp)
   16cf2:	89aa                	mv	s3,a0
   16cf4:	4409                	li	s0,2
   16cf6:	00810423          	sb	s0,8(sp)
   16cfa:	0064                	addi	s1,sp,12
   16cfc:	04800613          	li	a2,72
   16d00:	8526                	mv	a0,s1
   16d02:	00006097          	auipc	ra,0x6
   16d06:	e1a080e7          	jalr	-486(ra) # 1cb1c <memcpy>
   16d0a:	06010913          	addi	s2,sp,96
   16d0e:	02900613          	li	a2,41
   16d12:	854a                	mv	a0,s2
   16d14:	4581                	li	a1,0
   16d16:	00006097          	auipc	ra,0x6
   16d1a:	d9a080e7          	jalr	-614(ra) # 1cab0 <memset>
   16d1e:	8626                	mv	a2,s1
   16d20:	04810e23          	sb	s0,92(sp)
   16d24:	6509                	lui	a0,0x2
   16d26:	448d                	li	s1,3
   16d28:	4811                	li	a6,4
   16d2a:	458d                	li	a1,3
   16d2c:	6a450793          	addi	a5,a0,1700 # 26a4 <.Lline_table_start1+0x2479>
   16d30:	04800693          	li	a3,72
   16d34:	4711                	li	a4,4
   16d36:	853e                	mv	a0,a5
   16d38:	00000073          	ecall
   16d3c:	00850663          	beq	a0,s0,16d48 <_ZN20complex_full_dynamic3app17he44374c3a01e5516E+0x62>
   16d40:	c03e                	sw	a5,0(sp)
   16d42:	c226                	sw	s1,4(sp)
   16d44:	01010423          	sb	a6,8(sp)
   16d48:	4609                	li	a2,2
   16d4a:	00c51463          	bne	a0,a2,16d52 <_ZN20complex_full_dynamic3app17he44374c3a01e5516E+0x6c>
   16d4e:	4485                	li	s1,1
   16d50:	a89d                	j	16dc6 <_ZN20complex_full_dynamic3app17he44374c3a01e5516E+0xe0>
   16d52:	05c14503          	lbu	a0,92(sp)
   16d56:	4485                	li	s1,1
   16d58:	02c51563          	bne	a0,a2,16d82 <_ZN20complex_full_dynamic3app17he44374c3a01e5516E+0x9c>
   16d5c:	864a                	mv	a2,s2
   16d5e:	6509                	lui	a0,0x2
   16d60:	4811                	li	a6,4
   16d62:	4591                	li	a1,4
   16d64:	02900693          	li	a3,41
   16d68:	470d                	li	a4,3
   16d6a:	6a450793          	addi	a5,a0,1700 # 26a4 <.Lline_table_start1+0x2479>
   16d6e:	4409                	li	s0,2
   16d70:	853e                	mv	a0,a5
   16d72:	00000073          	ecall
   16d76:	460d                	li	a2,3
   16d78:	00851963          	bne	a0,s0,16d8a <_ZN20complex_full_dynamic3app17he44374c3a01e5516E+0xa4>
   16d7c:	4505                	li	a0,1
   16d7e:	cd01                	beqz	a0,16d96 <_ZN20complex_full_dynamic3app17he44374c3a01e5516E+0xb0>
   16d80:	a099                	j	16dc6 <_ZN20complex_full_dynamic3app17he44374c3a01e5516E+0xe0>
   16d82:	458d                	li	a1,3
   16d84:	4505                	li	a0,1
   16d86:	c901                	beqz	a0,16d96 <_ZN20complex_full_dynamic3app17he44374c3a01e5516E+0xb0>
   16d88:	a83d                	j	16dc6 <_ZN20complex_full_dynamic3app17he44374c3a01e5516E+0xe0>
   16d8a:	4501                	li	a0,0
   16d8c:	cabe                	sw	a5,84(sp)
   16d8e:	ccc2                	sw	a6,88(sp)
   16d90:	04c10e23          	sb	a2,92(sp)
   16d94:	e90d                	bnez	a0,16dc6 <_ZN20complex_full_dynamic3app17he44374c3a01e5516E+0xe0>
   16d96:	6509                	lui	a0,0x2
   16d98:	458d                	li	a1,3
   16d9a:	4611                	li	a2,4
   16d9c:	6a450513          	addi	a0,a0,1700 # 26a4 <.Lline_table_start1+0x2479>
   16da0:	4709                	li	a4,2
   16da2:	07f00793          	li	a5,127
   16da6:	4681                	li	a3,0
   16da8:	00000073          	ecall
   16dac:	00a7fd63          	bgeu	a5,a0,16dc6 <_ZN20complex_full_dynamic3app17he44374c3a01e5516E+0xe0>
   16db0:	850a                	mv	a0,sp
   16db2:	00006097          	auipc	ra,0x6
   16db6:	cde080e7          	jalr	-802(ra) # 1ca90 <_ZN9allow_pin12full_dynamic17unshare_if_shared17h4e6b4433fd7c2282E>
   16dba:	08c8                	addi	a0,sp,84
   16dbc:	00006097          	auipc	ra,0x6
   16dc0:	cd4080e7          	jalr	-812(ra) # 1ca90 <_ZN9allow_pin12full_dynamic17unshare_if_shared17h4e6b4433fd7c2282E>
   16dc4:	4481                	li	s1,0
   16dc6:	c489                	beqz	s1,16dd0 <_ZN20complex_full_dynamic3app17he44374c3a01e5516E+0xea>
   16dc8:	00b9a223          	sw	a1,4(s3)
   16dcc:	4505                	li	a0,1
   16dce:	a005                	j	16dee <_ZN20complex_full_dynamic3app17he44374c3a01e5516E+0x108>
   16dd0:	08c8                	addi	a0,sp,84
   16dd2:	00006097          	auipc	ra,0x6
   16dd6:	cbe080e7          	jalr	-834(ra) # 1ca90 <_ZN9allow_pin12full_dynamic17unshare_if_shared17h4e6b4433fd7c2282E>
   16dda:	00198513          	addi	a0,s3,1
   16dde:	02900613          	li	a2,41
   16de2:	85ca                	mv	a1,s2
   16de4:	00006097          	auipc	ra,0x6
   16de8:	d38080e7          	jalr	-712(ra) # 1cb1c <memcpy>
   16dec:	4501                	li	a0,0
   16dee:	00a98023          	sb	a0,0(s3)
   16df2:	08c8                	addi	a0,sp,84
   16df4:	00006097          	auipc	ra,0x6
   16df8:	c9c080e7          	jalr	-868(ra) # 1ca90 <_ZN9allow_pin12full_dynamic17unshare_if_shared17h4e6b4433fd7c2282E>
   16dfc:	850a                	mv	a0,sp
   16dfe:	00006097          	auipc	ra,0x6
   16e02:	c92080e7          	jalr	-878(ra) # 1ca90 <_ZN9allow_pin12full_dynamic17unshare_if_shared17h4e6b4433fd7c2282E>
   16e06:	40fa                	lw	ra,156(sp)
   16e08:	446a                	lw	s0,152(sp)
   16e0a:	44da                	lw	s1,148(sp)
   16e0c:	494a                	lw	s2,144(sp)
   16e0e:	49ba                	lw	s3,140(sp)
   16e10:	610d                	addi	sp,sp,160
   16e12:	8082                	ret

00016e14 <_ZN20complex_full_dynamic3app17he99b87c4dbe87f67E>:
   16e14:	7151                	addi	sp,sp,-240
   16e16:	d786                	sw	ra,236(sp)
   16e18:	d5a2                	sw	s0,232(sp)
   16e1a:	d3a6                	sw	s1,228(sp)
   16e1c:	d1ca                	sw	s2,224(sp)
   16e1e:	cfce                	sw	s3,220(sp)
   16e20:	89aa                	mv	s3,a0
   16e22:	4409                	li	s0,2
   16e24:	00810a23          	sb	s0,20(sp)
   16e28:	0824                	addi	s1,sp,24
   16e2a:	05e00613          	li	a2,94
   16e2e:	8526                	mv	a0,s1
   16e30:	00006097          	auipc	ra,0x6
   16e34:	cec080e7          	jalr	-788(ra) # 1cb1c <memcpy>
   16e38:	08410913          	addi	s2,sp,132
   16e3c:	05500613          	li	a2,85
   16e40:	854a                	mv	a0,s2
   16e42:	4581                	li	a1,0
   16e44:	00006097          	auipc	ra,0x6
   16e48:	c6c080e7          	jalr	-916(ra) # 1cab0 <memset>
   16e4c:	8626                	mv	a2,s1
   16e4e:	08810023          	sb	s0,128(sp)
   16e52:	6505                	lui	a0,0x1
   16e54:	449d                	li	s1,7
   16e56:	4811                	li	a6,4
   16e58:	459d                	li	a1,7
   16e5a:	78a50793          	addi	a5,a0,1930 # 178a <.Lline_table_start1+0x155f>
   16e5e:	05e00693          	li	a3,94
   16e62:	4711                	li	a4,4
   16e64:	853e                	mv	a0,a5
   16e66:	00000073          	ecall
   16e6a:	00850663          	beq	a0,s0,16e76 <_ZN20complex_full_dynamic3app17he99b87c4dbe87f67E+0x62>
   16e6e:	c63e                	sw	a5,12(sp)
   16e70:	c826                	sw	s1,16(sp)
   16e72:	01010a23          	sb	a6,20(sp)
   16e76:	4609                	li	a2,2
   16e78:	00c51463          	bne	a0,a2,16e80 <_ZN20complex_full_dynamic3app17he99b87c4dbe87f67E+0x6c>
   16e7c:	4485                	li	s1,1
   16e7e:	a895                	j	16ef2 <_ZN20complex_full_dynamic3app17he99b87c4dbe87f67E+0xde>
   16e80:	08014503          	lbu	a0,128(sp)
   16e84:	4485                	li	s1,1
   16e86:	02c51463          	bne	a0,a2,16eae <_ZN20complex_full_dynamic3app17he99b87c4dbe87f67E+0x9a>
   16e8a:	864a                	mv	a2,s2
   16e8c:	6505                	lui	a0,0x1
   16e8e:	458d                	li	a1,3
   16e90:	05500693          	li	a3,85
   16e94:	470d                	li	a4,3
   16e96:	78a50793          	addi	a5,a0,1930 # 178a <.Lline_table_start1+0x155f>
   16e9a:	4409                	li	s0,2
   16e9c:	853e                	mv	a0,a5
   16e9e:	00000073          	ecall
   16ea2:	460d                	li	a2,3
   16ea4:	00851963          	bne	a0,s0,16eb6 <_ZN20complex_full_dynamic3app17he99b87c4dbe87f67E+0xa2>
   16ea8:	4505                	li	a0,1
   16eaa:	cd01                	beqz	a0,16ec2 <_ZN20complex_full_dynamic3app17he99b87c4dbe87f67E+0xae>
   16eac:	a099                	j	16ef2 <_ZN20complex_full_dynamic3app17he99b87c4dbe87f67E+0xde>
   16eae:	458d                	li	a1,3
   16eb0:	4505                	li	a0,1
   16eb2:	c901                	beqz	a0,16ec2 <_ZN20complex_full_dynamic3app17he99b87c4dbe87f67E+0xae>
   16eb4:	a83d                	j	16ef2 <_ZN20complex_full_dynamic3app17he99b87c4dbe87f67E+0xde>
   16eb6:	4501                	li	a0,0
   16eb8:	dcbe                	sw	a5,120(sp)
   16eba:	deb2                	sw	a2,124(sp)
   16ebc:	08c10023          	sb	a2,128(sp)
   16ec0:	e90d                	bnez	a0,16ef2 <_ZN20complex_full_dynamic3app17he99b87c4dbe87f67E+0xde>
   16ec2:	6505                	lui	a0,0x1
   16ec4:	459d                	li	a1,7
   16ec6:	460d                	li	a2,3
   16ec8:	78a50513          	addi	a0,a0,1930 # 178a <.Lline_table_start1+0x155f>
   16ecc:	4709                	li	a4,2
   16ece:	07f00793          	li	a5,127
   16ed2:	4681                	li	a3,0
   16ed4:	00000073          	ecall
   16ed8:	00a7fd63          	bgeu	a5,a0,16ef2 <_ZN20complex_full_dynamic3app17he99b87c4dbe87f67E+0xde>
   16edc:	0068                	addi	a0,sp,12
   16ede:	00006097          	auipc	ra,0x6
   16ee2:	bb2080e7          	jalr	-1102(ra) # 1ca90 <_ZN9allow_pin12full_dynamic17unshare_if_shared17h4e6b4433fd7c2282E>
   16ee6:	18a8                	addi	a0,sp,120
   16ee8:	00006097          	auipc	ra,0x6
   16eec:	ba8080e7          	jalr	-1112(ra) # 1ca90 <_ZN9allow_pin12full_dynamic17unshare_if_shared17h4e6b4433fd7c2282E>
   16ef0:	4481                	li	s1,0
   16ef2:	c489                	beqz	s1,16efc <_ZN20complex_full_dynamic3app17he99b87c4dbe87f67E+0xe8>
   16ef4:	00b9a223          	sw	a1,4(s3)
   16ef8:	4505                	li	a0,1
   16efa:	a005                	j	16f1a <_ZN20complex_full_dynamic3app17he99b87c4dbe87f67E+0x106>
   16efc:	18a8                	addi	a0,sp,120
   16efe:	00006097          	auipc	ra,0x6
   16f02:	b92080e7          	jalr	-1134(ra) # 1ca90 <_ZN9allow_pin12full_dynamic17unshare_if_shared17h4e6b4433fd7c2282E>
   16f06:	00198513          	addi	a0,s3,1
   16f0a:	05500613          	li	a2,85
   16f0e:	85ca                	mv	a1,s2
   16f10:	00006097          	auipc	ra,0x6
   16f14:	c0c080e7          	jalr	-1012(ra) # 1cb1c <memcpy>
   16f18:	4501                	li	a0,0
   16f1a:	00a98023          	sb	a0,0(s3)
   16f1e:	18a8                	addi	a0,sp,120
   16f20:	00006097          	auipc	ra,0x6
   16f24:	b70080e7          	jalr	-1168(ra) # 1ca90 <_ZN9allow_pin12full_dynamic17unshare_if_shared17h4e6b4433fd7c2282E>
   16f28:	0068                	addi	a0,sp,12
   16f2a:	00006097          	auipc	ra,0x6
   16f2e:	b66080e7          	jalr	-1178(ra) # 1ca90 <_ZN9allow_pin12full_dynamic17unshare_if_shared17h4e6b4433fd7c2282E>
   16f32:	50be                	lw	ra,236(sp)
   16f34:	542e                	lw	s0,232(sp)
   16f36:	549e                	lw	s1,228(sp)
   16f38:	590e                	lw	s2,224(sp)
   16f3a:	49fe                	lw	s3,220(sp)
   16f3c:	616d                	addi	sp,sp,240
   16f3e:	8082                	ret

00016f40 <_ZN20complex_full_dynamic3app17headcc2285bc55603E>:
   16f40:	7175                	addi	sp,sp,-144
   16f42:	c706                	sw	ra,140(sp)
   16f44:	c522                	sw	s0,136(sp)
   16f46:	c326                	sw	s1,132(sp)
   16f48:	c14a                	sw	s2,128(sp)
   16f4a:	dece                	sw	s3,124(sp)
   16f4c:	89aa                	mv	s3,a0
   16f4e:	4409                	li	s0,2
   16f50:	00810a23          	sb	s0,20(sp)
   16f54:	0824                	addi	s1,sp,24
   16f56:	02c00613          	li	a2,44
   16f5a:	8526                	mv	a0,s1
   16f5c:	00006097          	auipc	ra,0x6
   16f60:	bc0080e7          	jalr	-1088(ra) # 1cb1c <memcpy>
   16f64:	05010913          	addi	s2,sp,80
   16f68:	02a00613          	li	a2,42
   16f6c:	854a                	mv	a0,s2
   16f6e:	4581                	li	a1,0
   16f70:	00006097          	auipc	ra,0x6
   16f74:	b40080e7          	jalr	-1216(ra) # 1cab0 <memset>
   16f78:	8626                	mv	a2,s1
   16f7a:	04810623          	sb	s0,76(sp)
   16f7e:	6509                	lui	a0,0x2
   16f80:	448d                	li	s1,3
   16f82:	4811                	li	a6,4
   16f84:	458d                	li	a1,3
   16f86:	4f050793          	addi	a5,a0,1264 # 24f0 <.Lline_table_start1+0x22c5>
   16f8a:	02c00693          	li	a3,44
   16f8e:	4711                	li	a4,4
   16f90:	853e                	mv	a0,a5
   16f92:	00000073          	ecall
   16f96:	00850663          	beq	a0,s0,16fa2 <_ZN20complex_full_dynamic3app17headcc2285bc55603E+0x62>
   16f9a:	c63e                	sw	a5,12(sp)
   16f9c:	c826                	sw	s1,16(sp)
   16f9e:	01010a23          	sb	a6,20(sp)
   16fa2:	4609                	li	a2,2
   16fa4:	00c51463          	bne	a0,a2,16fac <_ZN20complex_full_dynamic3app17headcc2285bc55603E+0x6c>
   16fa8:	4485                	li	s1,1
   16faa:	a895                	j	1701e <_ZN20complex_full_dynamic3app17headcc2285bc55603E+0xde>
   16fac:	04c14503          	lbu	a0,76(sp)
   16fb0:	4485                	li	s1,1
   16fb2:	02c51463          	bne	a0,a2,16fda <_ZN20complex_full_dynamic3app17headcc2285bc55603E+0x9a>
   16fb6:	4581                	li	a1,0
   16fb8:	864a                	mv	a2,s2
   16fba:	6509                	lui	a0,0x2
   16fbc:	02a00693          	li	a3,42
   16fc0:	470d                	li	a4,3
   16fc2:	4f050793          	addi	a5,a0,1264 # 24f0 <.Lline_table_start1+0x22c5>
   16fc6:	4409                	li	s0,2
   16fc8:	853e                	mv	a0,a5
   16fca:	00000073          	ecall
   16fce:	460d                	li	a2,3
   16fd0:	00851963          	bne	a0,s0,16fe2 <_ZN20complex_full_dynamic3app17headcc2285bc55603E+0xa2>
   16fd4:	4505                	li	a0,1
   16fd6:	cd01                	beqz	a0,16fee <_ZN20complex_full_dynamic3app17headcc2285bc55603E+0xae>
   16fd8:	a099                	j	1701e <_ZN20complex_full_dynamic3app17headcc2285bc55603E+0xde>
   16fda:	458d                	li	a1,3
   16fdc:	4505                	li	a0,1
   16fde:	c901                	beqz	a0,16fee <_ZN20complex_full_dynamic3app17headcc2285bc55603E+0xae>
   16fe0:	a83d                	j	1701e <_ZN20complex_full_dynamic3app17headcc2285bc55603E+0xde>
   16fe2:	4501                	li	a0,0
   16fe4:	c2be                	sw	a5,68(sp)
   16fe6:	c482                	sw	zero,72(sp)
   16fe8:	04c10623          	sb	a2,76(sp)
   16fec:	e90d                	bnez	a0,1701e <_ZN20complex_full_dynamic3app17headcc2285bc55603E+0xde>
   16fee:	6509                	lui	a0,0x2
   16ff0:	458d                	li	a1,3
   16ff2:	4f050513          	addi	a0,a0,1264 # 24f0 <.Lline_table_start1+0x22c5>
   16ff6:	4709                	li	a4,2
   16ff8:	07f00793          	li	a5,127
   16ffc:	4601                	li	a2,0
   16ffe:	4681                	li	a3,0
   17000:	00000073          	ecall
   17004:	00a7fd63          	bgeu	a5,a0,1701e <_ZN20complex_full_dynamic3app17headcc2285bc55603E+0xde>
   17008:	0068                	addi	a0,sp,12
   1700a:	00006097          	auipc	ra,0x6
   1700e:	a86080e7          	jalr	-1402(ra) # 1ca90 <_ZN9allow_pin12full_dynamic17unshare_if_shared17h4e6b4433fd7c2282E>
   17012:	00c8                	addi	a0,sp,68
   17014:	00006097          	auipc	ra,0x6
   17018:	a7c080e7          	jalr	-1412(ra) # 1ca90 <_ZN9allow_pin12full_dynamic17unshare_if_shared17h4e6b4433fd7c2282E>
   1701c:	4481                	li	s1,0
   1701e:	c489                	beqz	s1,17028 <_ZN20complex_full_dynamic3app17headcc2285bc55603E+0xe8>
   17020:	00b9a223          	sw	a1,4(s3)
   17024:	4505                	li	a0,1
   17026:	a005                	j	17046 <_ZN20complex_full_dynamic3app17headcc2285bc55603E+0x106>
   17028:	00c8                	addi	a0,sp,68
   1702a:	00006097          	auipc	ra,0x6
   1702e:	a66080e7          	jalr	-1434(ra) # 1ca90 <_ZN9allow_pin12full_dynamic17unshare_if_shared17h4e6b4433fd7c2282E>
   17032:	00198513          	addi	a0,s3,1
   17036:	02a00613          	li	a2,42
   1703a:	85ca                	mv	a1,s2
   1703c:	00006097          	auipc	ra,0x6
   17040:	ae0080e7          	jalr	-1312(ra) # 1cb1c <memcpy>
   17044:	4501                	li	a0,0
   17046:	00a98023          	sb	a0,0(s3)
   1704a:	00c8                	addi	a0,sp,68
   1704c:	00006097          	auipc	ra,0x6
   17050:	a44080e7          	jalr	-1468(ra) # 1ca90 <_ZN9allow_pin12full_dynamic17unshare_if_shared17h4e6b4433fd7c2282E>
   17054:	0068                	addi	a0,sp,12
   17056:	00006097          	auipc	ra,0x6
   1705a:	a3a080e7          	jalr	-1478(ra) # 1ca90 <_ZN9allow_pin12full_dynamic17unshare_if_shared17h4e6b4433fd7c2282E>
   1705e:	40ba                	lw	ra,140(sp)
   17060:	442a                	lw	s0,136(sp)
   17062:	449a                	lw	s1,132(sp)
   17064:	490a                	lw	s2,128(sp)
   17066:	59f6                	lw	s3,124(sp)
   17068:	6149                	addi	sp,sp,144
   1706a:	8082                	ret

0001706c <_ZN20complex_full_dynamic3app17hee23874c5b7363a2E>:
   1706c:	7135                	addi	sp,sp,-160
   1706e:	cf06                	sw	ra,156(sp)
   17070:	cd22                	sw	s0,152(sp)
   17072:	cb26                	sw	s1,148(sp)
   17074:	c94a                	sw	s2,144(sp)
   17076:	c74e                	sw	s3,140(sp)
   17078:	89aa                	mv	s3,a0
   1707a:	4409                	li	s0,2
   1707c:	00810823          	sb	s0,16(sp)
   17080:	0844                	addi	s1,sp,20
   17082:	4669                	li	a2,26
   17084:	8526                	mv	a0,s1
   17086:	00006097          	auipc	ra,0x6
   1708a:	a96080e7          	jalr	-1386(ra) # 1cb1c <memcpy>
   1708e:	03c10913          	addi	s2,sp,60
   17092:	05000613          	li	a2,80
   17096:	854a                	mv	a0,s2
   17098:	4581                	li	a1,0
   1709a:	00006097          	auipc	ra,0x6
   1709e:	a16080e7          	jalr	-1514(ra) # 1cab0 <memset>
   170a2:	8626                	mv	a2,s1
   170a4:	02810c23          	sb	s0,56(sp)
   170a8:	6505                	lui	a0,0x1
   170aa:	449d                	li	s1,7
   170ac:	4811                	li	a6,4
   170ae:	459d                	li	a1,7
   170b0:	aee50793          	addi	a5,a0,-1298 # aee <.Lline_table_start1+0x8c3>
   170b4:	46e9                	li	a3,26
   170b6:	4711                	li	a4,4
   170b8:	853e                	mv	a0,a5
   170ba:	00000073          	ecall
   170be:	00850663          	beq	a0,s0,170ca <_ZN20complex_full_dynamic3app17hee23874c5b7363a2E+0x5e>
   170c2:	c43e                	sw	a5,8(sp)
   170c4:	c626                	sw	s1,12(sp)
   170c6:	01010823          	sb	a6,16(sp)
   170ca:	4609                	li	a2,2
   170cc:	00c51463          	bne	a0,a2,170d4 <_ZN20complex_full_dynamic3app17hee23874c5b7363a2E+0x68>
   170d0:	4485                	li	s1,1
   170d2:	a89d                	j	17148 <_ZN20complex_full_dynamic3app17hee23874c5b7363a2E+0xdc>
   170d4:	03814503          	lbu	a0,56(sp)
   170d8:	4485                	li	s1,1
   170da:	02c51563          	bne	a0,a2,17104 <_ZN20complex_full_dynamic3app17hee23874c5b7363a2E+0x98>
   170de:	864a                	mv	a2,s2
   170e0:	6505                	lui	a0,0x1
   170e2:	4811                	li	a6,4
   170e4:	4591                	li	a1,4
   170e6:	05000693          	li	a3,80
   170ea:	470d                	li	a4,3
   170ec:	aee50793          	addi	a5,a0,-1298 # aee <.Lline_table_start1+0x8c3>
   170f0:	4409                	li	s0,2
   170f2:	853e                	mv	a0,a5
   170f4:	00000073          	ecall
   170f8:	460d                	li	a2,3
   170fa:	00851963          	bne	a0,s0,1710c <_ZN20complex_full_dynamic3app17hee23874c5b7363a2E+0xa0>
   170fe:	4505                	li	a0,1
   17100:	cd01                	beqz	a0,17118 <_ZN20complex_full_dynamic3app17hee23874c5b7363a2E+0xac>
   17102:	a099                	j	17148 <_ZN20complex_full_dynamic3app17hee23874c5b7363a2E+0xdc>
   17104:	458d                	li	a1,3
   17106:	4505                	li	a0,1
   17108:	c901                	beqz	a0,17118 <_ZN20complex_full_dynamic3app17hee23874c5b7363a2E+0xac>
   1710a:	a83d                	j	17148 <_ZN20complex_full_dynamic3app17hee23874c5b7363a2E+0xdc>
   1710c:	4501                	li	a0,0
   1710e:	d83e                	sw	a5,48(sp)
   17110:	da42                	sw	a6,52(sp)
   17112:	02c10c23          	sb	a2,56(sp)
   17116:	e90d                	bnez	a0,17148 <_ZN20complex_full_dynamic3app17hee23874c5b7363a2E+0xdc>
   17118:	6505                	lui	a0,0x1
   1711a:	459d                	li	a1,7
   1711c:	4611                	li	a2,4
   1711e:	aee50513          	addi	a0,a0,-1298 # aee <.Lline_table_start1+0x8c3>
   17122:	4709                	li	a4,2
   17124:	07f00793          	li	a5,127
   17128:	4681                	li	a3,0
   1712a:	00000073          	ecall
   1712e:	00a7fd63          	bgeu	a5,a0,17148 <_ZN20complex_full_dynamic3app17hee23874c5b7363a2E+0xdc>
   17132:	0028                	addi	a0,sp,8
   17134:	00006097          	auipc	ra,0x6
   17138:	95c080e7          	jalr	-1700(ra) # 1ca90 <_ZN9allow_pin12full_dynamic17unshare_if_shared17h4e6b4433fd7c2282E>
   1713c:	1808                	addi	a0,sp,48
   1713e:	00006097          	auipc	ra,0x6
   17142:	952080e7          	jalr	-1710(ra) # 1ca90 <_ZN9allow_pin12full_dynamic17unshare_if_shared17h4e6b4433fd7c2282E>
   17146:	4481                	li	s1,0
   17148:	c489                	beqz	s1,17152 <_ZN20complex_full_dynamic3app17hee23874c5b7363a2E+0xe6>
   1714a:	00b9a223          	sw	a1,4(s3)
   1714e:	4505                	li	a0,1
   17150:	a005                	j	17170 <_ZN20complex_full_dynamic3app17hee23874c5b7363a2E+0x104>
   17152:	1808                	addi	a0,sp,48
   17154:	00006097          	auipc	ra,0x6
   17158:	93c080e7          	jalr	-1732(ra) # 1ca90 <_ZN9allow_pin12full_dynamic17unshare_if_shared17h4e6b4433fd7c2282E>
   1715c:	00198513          	addi	a0,s3,1
   17160:	05000613          	li	a2,80
   17164:	85ca                	mv	a1,s2
   17166:	00006097          	auipc	ra,0x6
   1716a:	9b6080e7          	jalr	-1610(ra) # 1cb1c <memcpy>
   1716e:	4501                	li	a0,0
   17170:	00a98023          	sb	a0,0(s3)
   17174:	1808                	addi	a0,sp,48
   17176:	00006097          	auipc	ra,0x6
   1717a:	91a080e7          	jalr	-1766(ra) # 1ca90 <_ZN9allow_pin12full_dynamic17unshare_if_shared17h4e6b4433fd7c2282E>
   1717e:	0028                	addi	a0,sp,8
   17180:	00006097          	auipc	ra,0x6
   17184:	910080e7          	jalr	-1776(ra) # 1ca90 <_ZN9allow_pin12full_dynamic17unshare_if_shared17h4e6b4433fd7c2282E>
   17188:	40fa                	lw	ra,156(sp)
   1718a:	446a                	lw	s0,152(sp)
   1718c:	44da                	lw	s1,148(sp)
   1718e:	494a                	lw	s2,144(sp)
   17190:	49ba                	lw	s3,140(sp)
   17192:	610d                	addi	sp,sp,160
   17194:	8082                	ret

00017196 <_ZN20complex_full_dynamic3app17hefa7d55365992308E>:
   17196:	7175                	addi	sp,sp,-144
   17198:	c706                	sw	ra,140(sp)
   1719a:	c522                	sw	s0,136(sp)
   1719c:	c326                	sw	s1,132(sp)
   1719e:	c14a                	sw	s2,128(sp)
   171a0:	dece                	sw	s3,124(sp)
   171a2:	89aa                	mv	s3,a0
   171a4:	4409                	li	s0,2
   171a6:	00810a23          	sb	s0,20(sp)
   171aa:	0824                	addi	s1,sp,24
   171ac:	463d                	li	a2,15
   171ae:	8526                	mv	a0,s1
   171b0:	00006097          	auipc	ra,0x6
   171b4:	96c080e7          	jalr	-1684(ra) # 1cb1c <memcpy>
   171b8:	03410913          	addi	s2,sp,52
   171bc:	04600613          	li	a2,70
   171c0:	854a                	mv	a0,s2
   171c2:	4581                	li	a1,0
   171c4:	00006097          	auipc	ra,0x6
   171c8:	8ec080e7          	jalr	-1812(ra) # 1cab0 <memset>
   171cc:	8626                	mv	a2,s1
   171ce:	02810823          	sb	s0,48(sp)
   171d2:	6509                	lui	a0,0x2
   171d4:	44a5                	li	s1,9
   171d6:	4811                	li	a6,4
   171d8:	45a5                	li	a1,9
   171da:	d7e50793          	addi	a5,a0,-642 # 1d7e <.Lline_table_start1+0x1b53>
   171de:	46bd                	li	a3,15
   171e0:	4711                	li	a4,4
   171e2:	853e                	mv	a0,a5
   171e4:	00000073          	ecall
   171e8:	00850663          	beq	a0,s0,171f4 <_ZN20complex_full_dynamic3app17hefa7d55365992308E+0x5e>
   171ec:	c63e                	sw	a5,12(sp)
   171ee:	c826                	sw	s1,16(sp)
   171f0:	01010a23          	sb	a6,20(sp)
   171f4:	4609                	li	a2,2
   171f6:	00c51463          	bne	a0,a2,171fe <_ZN20complex_full_dynamic3app17hefa7d55365992308E+0x68>
   171fa:	4485                	li	s1,1
   171fc:	a895                	j	17270 <_ZN20complex_full_dynamic3app17hefa7d55365992308E+0xda>
   171fe:	03014503          	lbu	a0,48(sp)
   17202:	4485                	li	s1,1
   17204:	02c51463          	bne	a0,a2,1722c <_ZN20complex_full_dynamic3app17hefa7d55365992308E+0x96>
   17208:	864a                	mv	a2,s2
   1720a:	6509                	lui	a0,0x2
   1720c:	4409                	li	s0,2
   1720e:	480d                	li	a6,3
   17210:	4589                	li	a1,2
   17212:	d7e50793          	addi	a5,a0,-642 # 1d7e <.Lline_table_start1+0x1b53>
   17216:	04600693          	li	a3,70
   1721a:	470d                	li	a4,3
   1721c:	853e                	mv	a0,a5
   1721e:	00000073          	ecall
   17222:	00851963          	bne	a0,s0,17234 <_ZN20complex_full_dynamic3app17hefa7d55365992308E+0x9e>
   17226:	4505                	li	a0,1
   17228:	cd01                	beqz	a0,17240 <_ZN20complex_full_dynamic3app17hefa7d55365992308E+0xaa>
   1722a:	a099                	j	17270 <_ZN20complex_full_dynamic3app17hefa7d55365992308E+0xda>
   1722c:	458d                	li	a1,3
   1722e:	4505                	li	a0,1
   17230:	c901                	beqz	a0,17240 <_ZN20complex_full_dynamic3app17hefa7d55365992308E+0xaa>
   17232:	a83d                	j	17270 <_ZN20complex_full_dynamic3app17hefa7d55365992308E+0xda>
   17234:	4501                	li	a0,0
   17236:	d43e                	sw	a5,40(sp)
   17238:	d622                	sw	s0,44(sp)
   1723a:	03010823          	sb	a6,48(sp)
   1723e:	e90d                	bnez	a0,17270 <_ZN20complex_full_dynamic3app17hefa7d55365992308E+0xda>
   17240:	6509                	lui	a0,0x2
   17242:	45a5                	li	a1,9
   17244:	4609                	li	a2,2
   17246:	d7e50513          	addi	a0,a0,-642 # 1d7e <.Lline_table_start1+0x1b53>
   1724a:	4709                	li	a4,2
   1724c:	07f00793          	li	a5,127
   17250:	4681                	li	a3,0
   17252:	00000073          	ecall
   17256:	00a7fd63          	bgeu	a5,a0,17270 <_ZN20complex_full_dynamic3app17hefa7d55365992308E+0xda>
   1725a:	0068                	addi	a0,sp,12
   1725c:	00006097          	auipc	ra,0x6
   17260:	834080e7          	jalr	-1996(ra) # 1ca90 <_ZN9allow_pin12full_dynamic17unshare_if_shared17h4e6b4433fd7c2282E>
   17264:	1028                	addi	a0,sp,40
   17266:	00006097          	auipc	ra,0x6
   1726a:	82a080e7          	jalr	-2006(ra) # 1ca90 <_ZN9allow_pin12full_dynamic17unshare_if_shared17h4e6b4433fd7c2282E>
   1726e:	4481                	li	s1,0
   17270:	c489                	beqz	s1,1727a <_ZN20complex_full_dynamic3app17hefa7d55365992308E+0xe4>
   17272:	00b9a223          	sw	a1,4(s3)
   17276:	4505                	li	a0,1
   17278:	a005                	j	17298 <_ZN20complex_full_dynamic3app17hefa7d55365992308E+0x102>
   1727a:	1028                	addi	a0,sp,40
   1727c:	00006097          	auipc	ra,0x6
   17280:	814080e7          	jalr	-2028(ra) # 1ca90 <_ZN9allow_pin12full_dynamic17unshare_if_shared17h4e6b4433fd7c2282E>
   17284:	00198513          	addi	a0,s3,1
   17288:	04600613          	li	a2,70
   1728c:	85ca                	mv	a1,s2
   1728e:	00006097          	auipc	ra,0x6
   17292:	88e080e7          	jalr	-1906(ra) # 1cb1c <memcpy>
   17296:	4501                	li	a0,0
   17298:	00a98023          	sb	a0,0(s3)
   1729c:	1028                	addi	a0,sp,40
   1729e:	00005097          	auipc	ra,0x5
   172a2:	7f2080e7          	jalr	2034(ra) # 1ca90 <_ZN9allow_pin12full_dynamic17unshare_if_shared17h4e6b4433fd7c2282E>
   172a6:	0068                	addi	a0,sp,12
   172a8:	00005097          	auipc	ra,0x5
   172ac:	7e8080e7          	jalr	2024(ra) # 1ca90 <_ZN9allow_pin12full_dynamic17unshare_if_shared17h4e6b4433fd7c2282E>
   172b0:	40ba                	lw	ra,140(sp)
   172b2:	442a                	lw	s0,136(sp)
   172b4:	449a                	lw	s1,132(sp)
   172b6:	490a                	lw	s2,128(sp)
   172b8:	59f6                	lw	s3,124(sp)
   172ba:	6149                	addi	sp,sp,144
   172bc:	8082                	ret

000172be <_ZN20complex_full_dynamic3app17hf51100b8f194f7c2E>:
   172be:	7171                	addi	sp,sp,-176
   172c0:	d706                	sw	ra,172(sp)
   172c2:	d522                	sw	s0,168(sp)
   172c4:	d326                	sw	s1,164(sp)
   172c6:	d14a                	sw	s2,160(sp)
   172c8:	cf4e                	sw	s3,156(sp)
   172ca:	89aa                	mv	s3,a0
   172cc:	4409                	li	s0,2
   172ce:	00810823          	sb	s0,16(sp)
   172d2:	0844                	addi	s1,sp,20
   172d4:	03100613          	li	a2,49
   172d8:	8526                	mv	a0,s1
   172da:	00006097          	auipc	ra,0x6
   172de:	842080e7          	jalr	-1982(ra) # 1cb1c <memcpy>
   172e2:	05410913          	addi	s2,sp,84
   172e6:	04800613          	li	a2,72
   172ea:	854a                	mv	a0,s2
   172ec:	4581                	li	a1,0
   172ee:	00005097          	auipc	ra,0x5
   172f2:	7c2080e7          	jalr	1986(ra) # 1cab0 <memset>
   172f6:	8626                	mv	a2,s1
   172f8:	04810823          	sb	s0,80(sp)
   172fc:	6509                	lui	a0,0x2
   172fe:	4491                	li	s1,4
   17300:	4591                	li	a1,4
   17302:	80e50793          	addi	a5,a0,-2034 # 180e <.Lline_table_start1+0x15e3>
   17306:	03100693          	li	a3,49
   1730a:	4711                	li	a4,4
   1730c:	853e                	mv	a0,a5
   1730e:	00000073          	ecall
   17312:	00850663          	beq	a0,s0,1731e <_ZN20complex_full_dynamic3app17hf51100b8f194f7c2E+0x60>
   17316:	c43e                	sw	a5,8(sp)
   17318:	c626                	sw	s1,12(sp)
   1731a:	00910823          	sb	s1,16(sp)
   1731e:	4609                	li	a2,2
   17320:	00c51463          	bne	a0,a2,17328 <_ZN20complex_full_dynamic3app17hf51100b8f194f7c2E+0x6a>
   17324:	4485                	li	s1,1
   17326:	a895                	j	1739a <_ZN20complex_full_dynamic3app17hf51100b8f194f7c2E+0xdc>
   17328:	05014503          	lbu	a0,80(sp)
   1732c:	4485                	li	s1,1
   1732e:	02c51463          	bne	a0,a2,17356 <_ZN20complex_full_dynamic3app17hf51100b8f194f7c2E+0x98>
   17332:	864a                	mv	a2,s2
   17334:	6509                	lui	a0,0x2
   17336:	458d                	li	a1,3
   17338:	04800693          	li	a3,72
   1733c:	470d                	li	a4,3
   1733e:	80e50793          	addi	a5,a0,-2034 # 180e <.Lline_table_start1+0x15e3>
   17342:	4409                	li	s0,2
   17344:	853e                	mv	a0,a5
   17346:	00000073          	ecall
   1734a:	460d                	li	a2,3
   1734c:	00851963          	bne	a0,s0,1735e <_ZN20complex_full_dynamic3app17hf51100b8f194f7c2E+0xa0>
   17350:	4505                	li	a0,1
   17352:	cd01                	beqz	a0,1736a <_ZN20complex_full_dynamic3app17hf51100b8f194f7c2E+0xac>
   17354:	a099                	j	1739a <_ZN20complex_full_dynamic3app17hf51100b8f194f7c2E+0xdc>
   17356:	458d                	li	a1,3
   17358:	4505                	li	a0,1
   1735a:	c901                	beqz	a0,1736a <_ZN20complex_full_dynamic3app17hf51100b8f194f7c2E+0xac>
   1735c:	a83d                	j	1739a <_ZN20complex_full_dynamic3app17hf51100b8f194f7c2E+0xdc>
   1735e:	4501                	li	a0,0
   17360:	c4be                	sw	a5,72(sp)
   17362:	c6b2                	sw	a2,76(sp)
   17364:	04c10823          	sb	a2,80(sp)
   17368:	e90d                	bnez	a0,1739a <_ZN20complex_full_dynamic3app17hf51100b8f194f7c2E+0xdc>
   1736a:	6509                	lui	a0,0x2
   1736c:	4591                	li	a1,4
   1736e:	460d                	li	a2,3
   17370:	80e50513          	addi	a0,a0,-2034 # 180e <.Lline_table_start1+0x15e3>
   17374:	4709                	li	a4,2
   17376:	07f00793          	li	a5,127
   1737a:	4681                	li	a3,0
   1737c:	00000073          	ecall
   17380:	00a7fd63          	bgeu	a5,a0,1739a <_ZN20complex_full_dynamic3app17hf51100b8f194f7c2E+0xdc>
   17384:	0028                	addi	a0,sp,8
   17386:	00005097          	auipc	ra,0x5
   1738a:	70a080e7          	jalr	1802(ra) # 1ca90 <_ZN9allow_pin12full_dynamic17unshare_if_shared17h4e6b4433fd7c2282E>
   1738e:	00a8                	addi	a0,sp,72
   17390:	00005097          	auipc	ra,0x5
   17394:	700080e7          	jalr	1792(ra) # 1ca90 <_ZN9allow_pin12full_dynamic17unshare_if_shared17h4e6b4433fd7c2282E>
   17398:	4481                	li	s1,0
   1739a:	c489                	beqz	s1,173a4 <_ZN20complex_full_dynamic3app17hf51100b8f194f7c2E+0xe6>
   1739c:	00b9a223          	sw	a1,4(s3)
   173a0:	4505                	li	a0,1
   173a2:	a005                	j	173c2 <_ZN20complex_full_dynamic3app17hf51100b8f194f7c2E+0x104>
   173a4:	00a8                	addi	a0,sp,72
   173a6:	00005097          	auipc	ra,0x5
   173aa:	6ea080e7          	jalr	1770(ra) # 1ca90 <_ZN9allow_pin12full_dynamic17unshare_if_shared17h4e6b4433fd7c2282E>
   173ae:	00198513          	addi	a0,s3,1
   173b2:	04800613          	li	a2,72
   173b6:	85ca                	mv	a1,s2
   173b8:	00005097          	auipc	ra,0x5
   173bc:	764080e7          	jalr	1892(ra) # 1cb1c <memcpy>
   173c0:	4501                	li	a0,0
   173c2:	00a98023          	sb	a0,0(s3)
   173c6:	00a8                	addi	a0,sp,72
   173c8:	00005097          	auipc	ra,0x5
   173cc:	6c8080e7          	jalr	1736(ra) # 1ca90 <_ZN9allow_pin12full_dynamic17unshare_if_shared17h4e6b4433fd7c2282E>
   173d0:	0028                	addi	a0,sp,8
   173d2:	00005097          	auipc	ra,0x5
   173d6:	6be080e7          	jalr	1726(ra) # 1ca90 <_ZN9allow_pin12full_dynamic17unshare_if_shared17h4e6b4433fd7c2282E>
   173da:	50ba                	lw	ra,172(sp)
   173dc:	542a                	lw	s0,168(sp)
   173de:	549a                	lw	s1,164(sp)
   173e0:	590a                	lw	s2,160(sp)
   173e2:	49fa                	lw	s3,156(sp)
   173e4:	614d                	addi	sp,sp,176
   173e6:	8082                	ret

000173e8 <_ZN20complex_full_dynamic3app17hf62c1dad76744545E>:
   173e8:	7131                	addi	sp,sp,-192
   173ea:	df06                	sw	ra,188(sp)
   173ec:	dd22                	sw	s0,184(sp)
   173ee:	db26                	sw	s1,180(sp)
   173f0:	d94a                	sw	s2,176(sp)
   173f2:	d74e                	sw	s3,172(sp)
   173f4:	89aa                	mv	s3,a0
   173f6:	4409                	li	s0,2
   173f8:	00810a23          	sb	s0,20(sp)
   173fc:	0824                	addi	s1,sp,24
   173fe:	02a00613          	li	a2,42
   17402:	8526                	mv	a0,s1
   17404:	00005097          	auipc	ra,0x5
   17408:	718080e7          	jalr	1816(ra) # 1cb1c <memcpy>
   1740c:	05010913          	addi	s2,sp,80
   17410:	05900613          	li	a2,89
   17414:	854a                	mv	a0,s2
   17416:	4581                	li	a1,0
   17418:	00005097          	auipc	ra,0x5
   1741c:	698080e7          	jalr	1688(ra) # 1cab0 <memset>
   17420:	8626                	mv	a2,s1
   17422:	04810623          	sb	s0,76(sp)
   17426:	6505                	lui	a0,0x1
   17428:	4485                	li	s1,1
   1742a:	4811                	li	a6,4
   1742c:	4585                	li	a1,1
   1742e:	ed250793          	addi	a5,a0,-302 # ed2 <.Lline_table_start1+0xca7>
   17432:	02a00693          	li	a3,42
   17436:	4711                	li	a4,4
   17438:	853e                	mv	a0,a5
   1743a:	00000073          	ecall
   1743e:	00850663          	beq	a0,s0,1744a <_ZN20complex_full_dynamic3app17hf62c1dad76744545E+0x62>
   17442:	c63e                	sw	a5,12(sp)
   17444:	c826                	sw	s1,16(sp)
   17446:	01010a23          	sb	a6,20(sp)
   1744a:	4609                	li	a2,2
   1744c:	00c51463          	bne	a0,a2,17454 <_ZN20complex_full_dynamic3app17hf62c1dad76744545E+0x6c>
   17450:	4485                	li	s1,1
   17452:	a89d                	j	174c8 <_ZN20complex_full_dynamic3app17hf62c1dad76744545E+0xe0>
   17454:	04c14503          	lbu	a0,76(sp)
   17458:	4485                	li	s1,1
   1745a:	02c51463          	bne	a0,a2,17482 <_ZN20complex_full_dynamic3app17hf62c1dad76744545E+0x9a>
   1745e:	864a                	mv	a2,s2
   17460:	6505                	lui	a0,0x1
   17462:	458d                	li	a1,3
   17464:	05900693          	li	a3,89
   17468:	470d                	li	a4,3
   1746a:	ed250793          	addi	a5,a0,-302 # ed2 <.Lline_table_start1+0xca7>
   1746e:	4409                	li	s0,2
   17470:	853e                	mv	a0,a5
   17472:	00000073          	ecall
   17476:	460d                	li	a2,3
   17478:	00851963          	bne	a0,s0,1748a <_ZN20complex_full_dynamic3app17hf62c1dad76744545E+0xa2>
   1747c:	4505                	li	a0,1
   1747e:	cd01                	beqz	a0,17496 <_ZN20complex_full_dynamic3app17hf62c1dad76744545E+0xae>
   17480:	a0a1                	j	174c8 <_ZN20complex_full_dynamic3app17hf62c1dad76744545E+0xe0>
   17482:	458d                	li	a1,3
   17484:	4505                	li	a0,1
   17486:	c901                	beqz	a0,17496 <_ZN20complex_full_dynamic3app17hf62c1dad76744545E+0xae>
   17488:	a081                	j	174c8 <_ZN20complex_full_dynamic3app17hf62c1dad76744545E+0xe0>
   1748a:	4501                	li	a0,0
   1748c:	c2be                	sw	a5,68(sp)
   1748e:	c4b2                	sw	a2,72(sp)
   17490:	04c10623          	sb	a2,76(sp)
   17494:	e915                	bnez	a0,174c8 <_ZN20complex_full_dynamic3app17hf62c1dad76744545E+0xe0>
   17496:	4681                	li	a3,0
   17498:	6505                	lui	a0,0x1
   1749a:	4585                	li	a1,1
   1749c:	460d                	li	a2,3
   1749e:	4709                	li	a4,2
   174a0:	ed250513          	addi	a0,a0,-302 # ed2 <.Lline_table_start1+0xca7>
   174a4:	07f00793          	li	a5,127
   174a8:	00000073          	ecall
   174ac:	4485                	li	s1,1
   174ae:	00a7fd63          	bgeu	a5,a0,174c8 <_ZN20complex_full_dynamic3app17hf62c1dad76744545E+0xe0>
   174b2:	0068                	addi	a0,sp,12
   174b4:	00005097          	auipc	ra,0x5
   174b8:	5dc080e7          	jalr	1500(ra) # 1ca90 <_ZN9allow_pin12full_dynamic17unshare_if_shared17h4e6b4433fd7c2282E>
   174bc:	00c8                	addi	a0,sp,68
   174be:	00005097          	auipc	ra,0x5
   174c2:	5d2080e7          	jalr	1490(ra) # 1ca90 <_ZN9allow_pin12full_dynamic17unshare_if_shared17h4e6b4433fd7c2282E>
   174c6:	4481                	li	s1,0
   174c8:	c489                	beqz	s1,174d2 <_ZN20complex_full_dynamic3app17hf62c1dad76744545E+0xea>
   174ca:	00b9a223          	sw	a1,4(s3)
   174ce:	4505                	li	a0,1
   174d0:	a005                	j	174f0 <_ZN20complex_full_dynamic3app17hf62c1dad76744545E+0x108>
   174d2:	00c8                	addi	a0,sp,68
   174d4:	00005097          	auipc	ra,0x5
   174d8:	5bc080e7          	jalr	1468(ra) # 1ca90 <_ZN9allow_pin12full_dynamic17unshare_if_shared17h4e6b4433fd7c2282E>
   174dc:	00198513          	addi	a0,s3,1
   174e0:	05900613          	li	a2,89
   174e4:	85ca                	mv	a1,s2
   174e6:	00005097          	auipc	ra,0x5
   174ea:	636080e7          	jalr	1590(ra) # 1cb1c <memcpy>
   174ee:	4501                	li	a0,0
   174f0:	00a98023          	sb	a0,0(s3)
   174f4:	00c8                	addi	a0,sp,68
   174f6:	00005097          	auipc	ra,0x5
   174fa:	59a080e7          	jalr	1434(ra) # 1ca90 <_ZN9allow_pin12full_dynamic17unshare_if_shared17h4e6b4433fd7c2282E>
   174fe:	0068                	addi	a0,sp,12
   17500:	00005097          	auipc	ra,0x5
   17504:	590080e7          	jalr	1424(ra) # 1ca90 <_ZN9allow_pin12full_dynamic17unshare_if_shared17h4e6b4433fd7c2282E>
   17508:	50fa                	lw	ra,188(sp)
   1750a:	546a                	lw	s0,184(sp)
   1750c:	54da                	lw	s1,180(sp)
   1750e:	594a                	lw	s2,176(sp)
   17510:	59ba                	lw	s3,172(sp)
   17512:	6129                	addi	sp,sp,192
   17514:	8082                	ret

00017516 <_ZN20complex_full_dynamic3app17hf716362ca56cc11eE>:
   17516:	7135                	addi	sp,sp,-160
   17518:	cf06                	sw	ra,156(sp)
   1751a:	cd22                	sw	s0,152(sp)
   1751c:	cb26                	sw	s1,148(sp)
   1751e:	c94a                	sw	s2,144(sp)
   17520:	c74e                	sw	s3,140(sp)
   17522:	89aa                	mv	s3,a0
   17524:	4409                	li	s0,2
   17526:	00810a23          	sb	s0,20(sp)
   1752a:	0824                	addi	s1,sp,24
   1752c:	04100613          	li	a2,65
   17530:	8526                	mv	a0,s1
   17532:	00005097          	auipc	ra,0x5
   17536:	5ea080e7          	jalr	1514(ra) # 1cb1c <memcpy>
   1753a:	06810913          	addi	s2,sp,104
   1753e:	02200613          	li	a2,34
   17542:	854a                	mv	a0,s2
   17544:	4581                	li	a1,0
   17546:	00005097          	auipc	ra,0x5
   1754a:	56a080e7          	jalr	1386(ra) # 1cab0 <memset>
   1754e:	8626                	mv	a2,s1
   17550:	06810223          	sb	s0,100(sp)
   17554:	6509                	lui	a0,0x2
   17556:	4485                	li	s1,1
   17558:	4811                	li	a6,4
   1755a:	4585                	li	a1,1
   1755c:	47c50793          	addi	a5,a0,1148 # 247c <.Lline_table_start1+0x2251>
   17560:	04100693          	li	a3,65
   17564:	4711                	li	a4,4
   17566:	853e                	mv	a0,a5
   17568:	00000073          	ecall
   1756c:	00850663          	beq	a0,s0,17578 <_ZN20complex_full_dynamic3app17hf716362ca56cc11eE+0x62>
   17570:	c63e                	sw	a5,12(sp)
   17572:	c826                	sw	s1,16(sp)
   17574:	01010a23          	sb	a6,20(sp)
   17578:	4609                	li	a2,2
   1757a:	00c51463          	bne	a0,a2,17582 <_ZN20complex_full_dynamic3app17hf716362ca56cc11eE+0x6c>
   1757e:	4485                	li	s1,1
   17580:	a89d                	j	175f6 <_ZN20complex_full_dynamic3app17hf716362ca56cc11eE+0xe0>
   17582:	06414503          	lbu	a0,100(sp)
   17586:	4485                	li	s1,1
   17588:	02c51463          	bne	a0,a2,175b0 <_ZN20complex_full_dynamic3app17hf716362ca56cc11eE+0x9a>
   1758c:	4581                	li	a1,0
   1758e:	864a                	mv	a2,s2
   17590:	6509                	lui	a0,0x2
   17592:	02200693          	li	a3,34
   17596:	470d                	li	a4,3
   17598:	47c50793          	addi	a5,a0,1148 # 247c <.Lline_table_start1+0x2251>
   1759c:	4409                	li	s0,2
   1759e:	853e                	mv	a0,a5
   175a0:	00000073          	ecall
   175a4:	460d                	li	a2,3
   175a6:	00851963          	bne	a0,s0,175b8 <_ZN20complex_full_dynamic3app17hf716362ca56cc11eE+0xa2>
   175aa:	4505                	li	a0,1
   175ac:	cd01                	beqz	a0,175c4 <_ZN20complex_full_dynamic3app17hf716362ca56cc11eE+0xae>
   175ae:	a0a1                	j	175f6 <_ZN20complex_full_dynamic3app17hf716362ca56cc11eE+0xe0>
   175b0:	458d                	li	a1,3
   175b2:	4505                	li	a0,1
   175b4:	c901                	beqz	a0,175c4 <_ZN20complex_full_dynamic3app17hf716362ca56cc11eE+0xae>
   175b6:	a081                	j	175f6 <_ZN20complex_full_dynamic3app17hf716362ca56cc11eE+0xe0>
   175b8:	4501                	li	a0,0
   175ba:	cebe                	sw	a5,92(sp)
   175bc:	d082                	sw	zero,96(sp)
   175be:	06c10223          	sb	a2,100(sp)
   175c2:	e915                	bnez	a0,175f6 <_ZN20complex_full_dynamic3app17hf716362ca56cc11eE+0xe0>
   175c4:	4601                	li	a2,0
   175c6:	4681                	li	a3,0
   175c8:	6509                	lui	a0,0x2
   175ca:	4585                	li	a1,1
   175cc:	4709                	li	a4,2
   175ce:	47c50513          	addi	a0,a0,1148 # 247c <.Lline_table_start1+0x2251>
   175d2:	07f00793          	li	a5,127
   175d6:	00000073          	ecall
   175da:	4485                	li	s1,1
   175dc:	00a7fd63          	bgeu	a5,a0,175f6 <_ZN20complex_full_dynamic3app17hf716362ca56cc11eE+0xe0>
   175e0:	0068                	addi	a0,sp,12
   175e2:	00005097          	auipc	ra,0x5
   175e6:	4ae080e7          	jalr	1198(ra) # 1ca90 <_ZN9allow_pin12full_dynamic17unshare_if_shared17h4e6b4433fd7c2282E>
   175ea:	08e8                	addi	a0,sp,92
   175ec:	00005097          	auipc	ra,0x5
   175f0:	4a4080e7          	jalr	1188(ra) # 1ca90 <_ZN9allow_pin12full_dynamic17unshare_if_shared17h4e6b4433fd7c2282E>
   175f4:	4481                	li	s1,0
   175f6:	c489                	beqz	s1,17600 <_ZN20complex_full_dynamic3app17hf716362ca56cc11eE+0xea>
   175f8:	00b9a223          	sw	a1,4(s3)
   175fc:	4505                	li	a0,1
   175fe:	a005                	j	1761e <_ZN20complex_full_dynamic3app17hf716362ca56cc11eE+0x108>
   17600:	08e8                	addi	a0,sp,92
   17602:	00005097          	auipc	ra,0x5
   17606:	48e080e7          	jalr	1166(ra) # 1ca90 <_ZN9allow_pin12full_dynamic17unshare_if_shared17h4e6b4433fd7c2282E>
   1760a:	00198513          	addi	a0,s3,1
   1760e:	02200613          	li	a2,34
   17612:	85ca                	mv	a1,s2
   17614:	00005097          	auipc	ra,0x5
   17618:	508080e7          	jalr	1288(ra) # 1cb1c <memcpy>
   1761c:	4501                	li	a0,0
   1761e:	00a98023          	sb	a0,0(s3)
   17622:	08e8                	addi	a0,sp,92
   17624:	00005097          	auipc	ra,0x5
   17628:	46c080e7          	jalr	1132(ra) # 1ca90 <_ZN9allow_pin12full_dynamic17unshare_if_shared17h4e6b4433fd7c2282E>
   1762c:	0068                	addi	a0,sp,12
   1762e:	00005097          	auipc	ra,0x5
   17632:	462080e7          	jalr	1122(ra) # 1ca90 <_ZN9allow_pin12full_dynamic17unshare_if_shared17h4e6b4433fd7c2282E>
   17636:	40fa                	lw	ra,156(sp)
   17638:	446a                	lw	s0,152(sp)
   1763a:	44da                	lw	s1,148(sp)
   1763c:	494a                	lw	s2,144(sp)
   1763e:	49ba                	lw	s3,140(sp)
   17640:	610d                	addi	sp,sp,160
   17642:	8082                	ret

00017644 <_ZN20complex_full_dynamic3app17hfa528bd1c424570aE>:
   17644:	7155                	addi	sp,sp,-208
   17646:	c786                	sw	ra,204(sp)
   17648:	c5a2                	sw	s0,200(sp)
   1764a:	c3a6                	sw	s1,196(sp)
   1764c:	c1ca                	sw	s2,192(sp)
   1764e:	df4e                	sw	s3,188(sp)
   17650:	89aa                	mv	s3,a0
   17652:	4409                	li	s0,2
   17654:	00810823          	sb	s0,16(sp)
   17658:	0844                	addi	s1,sp,20
   1765a:	03a00613          	li	a2,58
   1765e:	8526                	mv	a0,s1
   17660:	00005097          	auipc	ra,0x5
   17664:	4bc080e7          	jalr	1212(ra) # 1cb1c <memcpy>
   17668:	05c10913          	addi	s2,sp,92
   1766c:	05d00613          	li	a2,93
   17670:	854a                	mv	a0,s2
   17672:	4581                	li	a1,0
   17674:	00005097          	auipc	ra,0x5
   17678:	43c080e7          	jalr	1084(ra) # 1cab0 <memset>
   1767c:	4581                	li	a1,0
   1767e:	8626                	mv	a2,s1
   17680:	04810c23          	sb	s0,88(sp)
   17684:	6505                	lui	a0,0x1
   17686:	4491                	li	s1,4
   17688:	4a450793          	addi	a5,a0,1188 # 14a4 <.Lline_table_start1+0x1279>
   1768c:	03a00693          	li	a3,58
   17690:	4711                	li	a4,4
   17692:	853e                	mv	a0,a5
   17694:	00000073          	ecall
   17698:	00850663          	beq	a0,s0,176a4 <_ZN20complex_full_dynamic3app17hfa528bd1c424570aE+0x60>
   1769c:	c43e                	sw	a5,8(sp)
   1769e:	c602                	sw	zero,12(sp)
   176a0:	00910823          	sb	s1,16(sp)
   176a4:	4609                	li	a2,2
   176a6:	00c51463          	bne	a0,a2,176ae <_ZN20complex_full_dynamic3app17hfa528bd1c424570aE+0x6a>
   176aa:	4485                	li	s1,1
   176ac:	a89d                	j	17722 <_ZN20complex_full_dynamic3app17hfa528bd1c424570aE+0xde>
   176ae:	05814503          	lbu	a0,88(sp)
   176b2:	4485                	li	s1,1
   176b4:	02c51563          	bne	a0,a2,176de <_ZN20complex_full_dynamic3app17hfa528bd1c424570aE+0x9a>
   176b8:	864a                	mv	a2,s2
   176ba:	6505                	lui	a0,0x1
   176bc:	4815                	li	a6,5
   176be:	4595                	li	a1,5
   176c0:	05d00693          	li	a3,93
   176c4:	470d                	li	a4,3
   176c6:	4a450793          	addi	a5,a0,1188 # 14a4 <.Lline_table_start1+0x1279>
   176ca:	4409                	li	s0,2
   176cc:	853e                	mv	a0,a5
   176ce:	00000073          	ecall
   176d2:	460d                	li	a2,3
   176d4:	00851963          	bne	a0,s0,176e6 <_ZN20complex_full_dynamic3app17hfa528bd1c424570aE+0xa2>
   176d8:	4505                	li	a0,1
   176da:	cd01                	beqz	a0,176f2 <_ZN20complex_full_dynamic3app17hfa528bd1c424570aE+0xae>
   176dc:	a099                	j	17722 <_ZN20complex_full_dynamic3app17hfa528bd1c424570aE+0xde>
   176de:	458d                	li	a1,3
   176e0:	4505                	li	a0,1
   176e2:	c901                	beqz	a0,176f2 <_ZN20complex_full_dynamic3app17hfa528bd1c424570aE+0xae>
   176e4:	a83d                	j	17722 <_ZN20complex_full_dynamic3app17hfa528bd1c424570aE+0xde>
   176e6:	4501                	li	a0,0
   176e8:	c8be                	sw	a5,80(sp)
   176ea:	cac2                	sw	a6,84(sp)
   176ec:	04c10c23          	sb	a2,88(sp)
   176f0:	e90d                	bnez	a0,17722 <_ZN20complex_full_dynamic3app17hfa528bd1c424570aE+0xde>
   176f2:	6505                	lui	a0,0x1
   176f4:	4615                	li	a2,5
   176f6:	4a450513          	addi	a0,a0,1188 # 14a4 <.Lline_table_start1+0x1279>
   176fa:	4709                	li	a4,2
   176fc:	07f00793          	li	a5,127
   17700:	4581                	li	a1,0
   17702:	4681                	li	a3,0
   17704:	00000073          	ecall
   17708:	00a7fd63          	bgeu	a5,a0,17722 <_ZN20complex_full_dynamic3app17hfa528bd1c424570aE+0xde>
   1770c:	0028                	addi	a0,sp,8
   1770e:	00005097          	auipc	ra,0x5
   17712:	382080e7          	jalr	898(ra) # 1ca90 <_ZN9allow_pin12full_dynamic17unshare_if_shared17h4e6b4433fd7c2282E>
   17716:	0888                	addi	a0,sp,80
   17718:	00005097          	auipc	ra,0x5
   1771c:	378080e7          	jalr	888(ra) # 1ca90 <_ZN9allow_pin12full_dynamic17unshare_if_shared17h4e6b4433fd7c2282E>
   17720:	4481                	li	s1,0
   17722:	c489                	beqz	s1,1772c <_ZN20complex_full_dynamic3app17hfa528bd1c424570aE+0xe8>
   17724:	00b9a223          	sw	a1,4(s3)
   17728:	4505                	li	a0,1
   1772a:	a005                	j	1774a <_ZN20complex_full_dynamic3app17hfa528bd1c424570aE+0x106>
   1772c:	0888                	addi	a0,sp,80
   1772e:	00005097          	auipc	ra,0x5
   17732:	362080e7          	jalr	866(ra) # 1ca90 <_ZN9allow_pin12full_dynamic17unshare_if_shared17h4e6b4433fd7c2282E>
   17736:	00198513          	addi	a0,s3,1
   1773a:	05d00613          	li	a2,93
   1773e:	85ca                	mv	a1,s2
   17740:	00005097          	auipc	ra,0x5
   17744:	3dc080e7          	jalr	988(ra) # 1cb1c <memcpy>
   17748:	4501                	li	a0,0
   1774a:	00a98023          	sb	a0,0(s3)
   1774e:	0888                	addi	a0,sp,80
   17750:	00005097          	auipc	ra,0x5
   17754:	340080e7          	jalr	832(ra) # 1ca90 <_ZN9allow_pin12full_dynamic17unshare_if_shared17h4e6b4433fd7c2282E>
   17758:	0028                	addi	a0,sp,8
   1775a:	00005097          	auipc	ra,0x5
   1775e:	336080e7          	jalr	822(ra) # 1ca90 <_ZN9allow_pin12full_dynamic17unshare_if_shared17h4e6b4433fd7c2282E>
   17762:	40be                	lw	ra,204(sp)
   17764:	442e                	lw	s0,200(sp)
   17766:	449e                	lw	s1,196(sp)
   17768:	490e                	lw	s2,192(sp)
   1776a:	59fa                	lw	s3,188(sp)
   1776c:	6169                	addi	sp,sp,208
   1776e:	8082                	ret

00017770 <_ZN20complex_full_dynamic3app17hfaeae7ba1f0b3cd9E>:
   17770:	7171                	addi	sp,sp,-176
   17772:	d706                	sw	ra,172(sp)
   17774:	d522                	sw	s0,168(sp)
   17776:	d326                	sw	s1,164(sp)
   17778:	d14a                	sw	s2,160(sp)
   1777a:	cf4e                	sw	s3,156(sp)
   1777c:	89aa                	mv	s3,a0
   1777e:	4409                	li	s0,2
   17780:	00810823          	sb	s0,16(sp)
   17784:	0844                	addi	s1,sp,20
   17786:	04a00613          	li	a2,74
   1778a:	8526                	mv	a0,s1
   1778c:	00005097          	auipc	ra,0x5
   17790:	390080e7          	jalr	912(ra) # 1cb1c <memcpy>
   17794:	06c10913          	addi	s2,sp,108
   17798:	02d00613          	li	a2,45
   1779c:	854a                	mv	a0,s2
   1779e:	4581                	li	a1,0
   177a0:	00005097          	auipc	ra,0x5
   177a4:	310080e7          	jalr	784(ra) # 1cab0 <memset>
   177a8:	8626                	mv	a2,s1
   177aa:	06810423          	sb	s0,104(sp)
   177ae:	6505                	lui	a0,0x1
   177b0:	4491                	li	s1,4
   177b2:	4589                	li	a1,2
   177b4:	e3d50793          	addi	a5,a0,-451 # e3d <.Lline_table_start1+0xc12>
   177b8:	04a00693          	li	a3,74
   177bc:	4711                	li	a4,4
   177be:	853e                	mv	a0,a5
   177c0:	00000073          	ecall
   177c4:	00850663          	beq	a0,s0,177d0 <_ZN20complex_full_dynamic3app17hfaeae7ba1f0b3cd9E+0x60>
   177c8:	c43e                	sw	a5,8(sp)
   177ca:	c622                	sw	s0,12(sp)
   177cc:	00910823          	sb	s1,16(sp)
   177d0:	4609                	li	a2,2
   177d2:	00c51463          	bne	a0,a2,177da <_ZN20complex_full_dynamic3app17hfaeae7ba1f0b3cd9E+0x6a>
   177d6:	4485                	li	s1,1
   177d8:	a895                	j	1784c <_ZN20complex_full_dynamic3app17hfaeae7ba1f0b3cd9E+0xdc>
   177da:	06814503          	lbu	a0,104(sp)
   177de:	4485                	li	s1,1
   177e0:	02c51463          	bne	a0,a2,17808 <_ZN20complex_full_dynamic3app17hfaeae7ba1f0b3cd9E+0x98>
   177e4:	864a                	mv	a2,s2
   177e6:	6505                	lui	a0,0x1
   177e8:	458d                	li	a1,3
   177ea:	02d00693          	li	a3,45
   177ee:	470d                	li	a4,3
   177f0:	e3d50793          	addi	a5,a0,-451 # e3d <.Lline_table_start1+0xc12>
   177f4:	4409                	li	s0,2
   177f6:	853e                	mv	a0,a5
   177f8:	00000073          	ecall
   177fc:	460d                	li	a2,3
   177fe:	00851963          	bne	a0,s0,17810 <_ZN20complex_full_dynamic3app17hfaeae7ba1f0b3cd9E+0xa0>
   17802:	4505                	li	a0,1
   17804:	cd01                	beqz	a0,1781c <_ZN20complex_full_dynamic3app17hfaeae7ba1f0b3cd9E+0xac>
   17806:	a099                	j	1784c <_ZN20complex_full_dynamic3app17hfaeae7ba1f0b3cd9E+0xdc>
   17808:	458d                	li	a1,3
   1780a:	4505                	li	a0,1
   1780c:	c901                	beqz	a0,1781c <_ZN20complex_full_dynamic3app17hfaeae7ba1f0b3cd9E+0xac>
   1780e:	a83d                	j	1784c <_ZN20complex_full_dynamic3app17hfaeae7ba1f0b3cd9E+0xdc>
   17810:	4501                	li	a0,0
   17812:	d0be                	sw	a5,96(sp)
   17814:	d2b2                	sw	a2,100(sp)
   17816:	06c10423          	sb	a2,104(sp)
   1781a:	e90d                	bnez	a0,1784c <_ZN20complex_full_dynamic3app17hfaeae7ba1f0b3cd9E+0xdc>
   1781c:	6505                	lui	a0,0x1
   1781e:	4589                	li	a1,2
   17820:	460d                	li	a2,3
   17822:	e3d50513          	addi	a0,a0,-451 # e3d <.Lline_table_start1+0xc12>
   17826:	4709                	li	a4,2
   17828:	07f00793          	li	a5,127
   1782c:	4681                	li	a3,0
   1782e:	00000073          	ecall
   17832:	00a7fd63          	bgeu	a5,a0,1784c <_ZN20complex_full_dynamic3app17hfaeae7ba1f0b3cd9E+0xdc>
   17836:	0028                	addi	a0,sp,8
   17838:	00005097          	auipc	ra,0x5
   1783c:	258080e7          	jalr	600(ra) # 1ca90 <_ZN9allow_pin12full_dynamic17unshare_if_shared17h4e6b4433fd7c2282E>
   17840:	1088                	addi	a0,sp,96
   17842:	00005097          	auipc	ra,0x5
   17846:	24e080e7          	jalr	590(ra) # 1ca90 <_ZN9allow_pin12full_dynamic17unshare_if_shared17h4e6b4433fd7c2282E>
   1784a:	4481                	li	s1,0
   1784c:	c489                	beqz	s1,17856 <_ZN20complex_full_dynamic3app17hfaeae7ba1f0b3cd9E+0xe6>
   1784e:	00b9a223          	sw	a1,4(s3)
   17852:	4505                	li	a0,1
   17854:	a005                	j	17874 <_ZN20complex_full_dynamic3app17hfaeae7ba1f0b3cd9E+0x104>
   17856:	1088                	addi	a0,sp,96
   17858:	00005097          	auipc	ra,0x5
   1785c:	238080e7          	jalr	568(ra) # 1ca90 <_ZN9allow_pin12full_dynamic17unshare_if_shared17h4e6b4433fd7c2282E>
   17860:	00198513          	addi	a0,s3,1
   17864:	02d00613          	li	a2,45
   17868:	85ca                	mv	a1,s2
   1786a:	00005097          	auipc	ra,0x5
   1786e:	2b2080e7          	jalr	690(ra) # 1cb1c <memcpy>
   17872:	4501                	li	a0,0
   17874:	00a98023          	sb	a0,0(s3)
   17878:	1088                	addi	a0,sp,96
   1787a:	00005097          	auipc	ra,0x5
   1787e:	216080e7          	jalr	534(ra) # 1ca90 <_ZN9allow_pin12full_dynamic17unshare_if_shared17h4e6b4433fd7c2282E>
   17882:	0028                	addi	a0,sp,8
   17884:	00005097          	auipc	ra,0x5
   17888:	20c080e7          	jalr	524(ra) # 1ca90 <_ZN9allow_pin12full_dynamic17unshare_if_shared17h4e6b4433fd7c2282E>
   1788c:	50ba                	lw	ra,172(sp)
   1788e:	542a                	lw	s0,168(sp)
   17890:	549a                	lw	s1,164(sp)
   17892:	590a                	lw	s2,160(sp)
   17894:	49fa                	lw	s3,156(sp)
   17896:	614d                	addi	sp,sp,176
   17898:	8082                	ret

0001789a <_ZN20complex_full_dynamic3app17hfb05e04bd27bf612E>:
   1789a:	7135                	addi	sp,sp,-160
   1789c:	cf06                	sw	ra,156(sp)
   1789e:	cd22                	sw	s0,152(sp)
   178a0:	cb26                	sw	s1,148(sp)
   178a2:	c94a                	sw	s2,144(sp)
   178a4:	c74e                	sw	s3,140(sp)
   178a6:	89aa                	mv	s3,a0
   178a8:	4409                	li	s0,2
   178aa:	00810a23          	sb	s0,20(sp)
   178ae:	0824                	addi	s1,sp,24
   178b0:	02e00613          	li	a2,46
   178b4:	8526                	mv	a0,s1
   178b6:	00005097          	auipc	ra,0x5
   178ba:	266080e7          	jalr	614(ra) # 1cb1c <memcpy>
   178be:	05410913          	addi	s2,sp,84
   178c2:	03800613          	li	a2,56
   178c6:	854a                	mv	a0,s2
   178c8:	4581                	li	a1,0
   178ca:	00005097          	auipc	ra,0x5
   178ce:	1e6080e7          	jalr	486(ra) # 1cab0 <memset>
   178d2:	8626                	mv	a2,s1
   178d4:	04810823          	sb	s0,80(sp)
   178d8:	6505                	lui	a0,0x1
   178da:	44a5                	li	s1,9
   178dc:	4811                	li	a6,4
   178de:	45a5                	li	a1,9
   178e0:	a9d50793          	addi	a5,a0,-1379 # a9d <.Lline_table_start1+0x872>
   178e4:	02e00693          	li	a3,46
   178e8:	4711                	li	a4,4
   178ea:	853e                	mv	a0,a5
   178ec:	00000073          	ecall
   178f0:	00850663          	beq	a0,s0,178fc <_ZN20complex_full_dynamic3app17hfb05e04bd27bf612E+0x62>
   178f4:	c63e                	sw	a5,12(sp)
   178f6:	c826                	sw	s1,16(sp)
   178f8:	01010a23          	sb	a6,20(sp)
   178fc:	4609                	li	a2,2
   178fe:	00c51463          	bne	a0,a2,17906 <_ZN20complex_full_dynamic3app17hfb05e04bd27bf612E+0x6c>
   17902:	4485                	li	s1,1
   17904:	a89d                	j	1797a <_ZN20complex_full_dynamic3app17hfb05e04bd27bf612E+0xe0>
   17906:	05014503          	lbu	a0,80(sp)
   1790a:	4485                	li	s1,1
   1790c:	02c51563          	bne	a0,a2,17936 <_ZN20complex_full_dynamic3app17hfb05e04bd27bf612E+0x9c>
   17910:	864a                	mv	a2,s2
   17912:	6505                	lui	a0,0x1
   17914:	4825                	li	a6,9
   17916:	45a5                	li	a1,9
   17918:	03800693          	li	a3,56
   1791c:	470d                	li	a4,3
   1791e:	a9d50793          	addi	a5,a0,-1379 # a9d <.Lline_table_start1+0x872>
   17922:	4409                	li	s0,2
   17924:	853e                	mv	a0,a5
   17926:	00000073          	ecall
   1792a:	460d                	li	a2,3
   1792c:	00851963          	bne	a0,s0,1793e <_ZN20complex_full_dynamic3app17hfb05e04bd27bf612E+0xa4>
   17930:	4505                	li	a0,1
   17932:	cd01                	beqz	a0,1794a <_ZN20complex_full_dynamic3app17hfb05e04bd27bf612E+0xb0>
   17934:	a099                	j	1797a <_ZN20complex_full_dynamic3app17hfb05e04bd27bf612E+0xe0>
   17936:	458d                	li	a1,3
   17938:	4505                	li	a0,1
   1793a:	c901                	beqz	a0,1794a <_ZN20complex_full_dynamic3app17hfb05e04bd27bf612E+0xb0>
   1793c:	a83d                	j	1797a <_ZN20complex_full_dynamic3app17hfb05e04bd27bf612E+0xe0>
   1793e:	4501                	li	a0,0
   17940:	c4be                	sw	a5,72(sp)
   17942:	c6c2                	sw	a6,76(sp)
   17944:	04c10823          	sb	a2,80(sp)
   17948:	e90d                	bnez	a0,1797a <_ZN20complex_full_dynamic3app17hfb05e04bd27bf612E+0xe0>
   1794a:	6505                	lui	a0,0x1
   1794c:	45a5                	li	a1,9
   1794e:	4625                	li	a2,9
   17950:	a9d50513          	addi	a0,a0,-1379 # a9d <.Lline_table_start1+0x872>
   17954:	4709                	li	a4,2
   17956:	07f00793          	li	a5,127
   1795a:	4681                	li	a3,0
   1795c:	00000073          	ecall
   17960:	00a7fd63          	bgeu	a5,a0,1797a <_ZN20complex_full_dynamic3app17hfb05e04bd27bf612E+0xe0>
   17964:	0068                	addi	a0,sp,12
   17966:	00005097          	auipc	ra,0x5
   1796a:	12a080e7          	jalr	298(ra) # 1ca90 <_ZN9allow_pin12full_dynamic17unshare_if_shared17h4e6b4433fd7c2282E>
   1796e:	00a8                	addi	a0,sp,72
   17970:	00005097          	auipc	ra,0x5
   17974:	120080e7          	jalr	288(ra) # 1ca90 <_ZN9allow_pin12full_dynamic17unshare_if_shared17h4e6b4433fd7c2282E>
   17978:	4481                	li	s1,0
   1797a:	c489                	beqz	s1,17984 <_ZN20complex_full_dynamic3app17hfb05e04bd27bf612E+0xea>
   1797c:	00b9a223          	sw	a1,4(s3)
   17980:	4505                	li	a0,1
   17982:	a005                	j	179a2 <_ZN20complex_full_dynamic3app17hfb05e04bd27bf612E+0x108>
   17984:	00a8                	addi	a0,sp,72
   17986:	00005097          	auipc	ra,0x5
   1798a:	10a080e7          	jalr	266(ra) # 1ca90 <_ZN9allow_pin12full_dynamic17unshare_if_shared17h4e6b4433fd7c2282E>
   1798e:	00198513          	addi	a0,s3,1
   17992:	03800613          	li	a2,56
   17996:	85ca                	mv	a1,s2
   17998:	00005097          	auipc	ra,0x5
   1799c:	184080e7          	jalr	388(ra) # 1cb1c <memcpy>
   179a0:	4501                	li	a0,0
   179a2:	00a98023          	sb	a0,0(s3)
   179a6:	00a8                	addi	a0,sp,72
   179a8:	00005097          	auipc	ra,0x5
   179ac:	0e8080e7          	jalr	232(ra) # 1ca90 <_ZN9allow_pin12full_dynamic17unshare_if_shared17h4e6b4433fd7c2282E>
   179b0:	0068                	addi	a0,sp,12
   179b2:	00005097          	auipc	ra,0x5
   179b6:	0de080e7          	jalr	222(ra) # 1ca90 <_ZN9allow_pin12full_dynamic17unshare_if_shared17h4e6b4433fd7c2282E>
   179ba:	40fa                	lw	ra,156(sp)
   179bc:	446a                	lw	s0,152(sp)
   179be:	44da                	lw	s1,148(sp)
   179c0:	494a                	lw	s2,144(sp)
   179c2:	49ba                	lw	s3,140(sp)
   179c4:	610d                	addi	sp,sp,160
   179c6:	8082                	ret

000179c8 <_ZN20complex_full_dynamic3app17hfb8aa9adcb681e28E>:
   179c8:	7159                	addi	sp,sp,-112
   179ca:	d686                	sw	ra,108(sp)
   179cc:	d4a2                	sw	s0,104(sp)
   179ce:	d2a6                	sw	s1,100(sp)
   179d0:	d0ca                	sw	s2,96(sp)
   179d2:	cece                	sw	s3,92(sp)
   179d4:	89aa                	mv	s3,a0
   179d6:	4409                	li	s0,2
   179d8:	00810623          	sb	s0,12(sp)
   179dc:	0804                	addi	s1,sp,16
   179de:	02500613          	li	a2,37
   179e2:	8526                	mv	a0,s1
   179e4:	00005097          	auipc	ra,0x5
   179e8:	138080e7          	jalr	312(ra) # 1cb1c <memcpy>
   179ec:	8626                	mv	a2,s1
   179ee:	c882                	sw	zero,80(sp)
   179f0:	ca82                	sw	zero,84(sp)
   179f2:	cc82                	sw	zero,88(sp)
   179f4:	04810023          	sb	s0,64(sp)
   179f8:	c282                	sw	zero,68(sp)
   179fa:	c482                	sw	zero,72(sp)
   179fc:	c682                	sw	zero,76(sp)
   179fe:	6505                	lui	a0,0x1
   17a00:	44a5                	li	s1,9
   17a02:	4811                	li	a6,4
   17a04:	45a5                	li	a1,9
   17a06:	a7050793          	addi	a5,a0,-1424 # a70 <.Lline_table_start1+0x845>
   17a0a:	02500693          	li	a3,37
   17a0e:	4711                	li	a4,4
   17a10:	853e                	mv	a0,a5
   17a12:	00000073          	ecall
   17a16:	00850663          	beq	a0,s0,17a22 <_ZN20complex_full_dynamic3app17hfb8aa9adcb681e28E+0x5a>
   17a1a:	c23e                	sw	a5,4(sp)
   17a1c:	c426                	sw	s1,8(sp)
   17a1e:	01010623          	sb	a6,12(sp)
   17a22:	4609                	li	a2,2
   17a24:	04410913          	addi	s2,sp,68
   17a28:	00c51463          	bne	a0,a2,17a30 <_ZN20complex_full_dynamic3app17hfb8aa9adcb681e28E+0x68>
   17a2c:	4485                	li	s1,1
   17a2e:	a895                	j	17aa2 <_ZN20complex_full_dynamic3app17hfb8aa9adcb681e28E+0xda>
   17a30:	04014503          	lbu	a0,64(sp)
   17a34:	4485                	li	s1,1
   17a36:	02c51463          	bne	a0,a2,17a5e <_ZN20complex_full_dynamic3app17hfb8aa9adcb681e28E+0x96>
   17a3a:	864a                	mv	a2,s2
   17a3c:	6505                	lui	a0,0x1
   17a3e:	4821                	li	a6,8
   17a40:	45a1                	li	a1,8
   17a42:	46e1                	li	a3,24
   17a44:	470d                	li	a4,3
   17a46:	a7050793          	addi	a5,a0,-1424 # a70 <.Lline_table_start1+0x845>
   17a4a:	4409                	li	s0,2
   17a4c:	853e                	mv	a0,a5
   17a4e:	00000073          	ecall
   17a52:	460d                	li	a2,3
   17a54:	00851963          	bne	a0,s0,17a66 <_ZN20complex_full_dynamic3app17hfb8aa9adcb681e28E+0x9e>
   17a58:	4505                	li	a0,1
   17a5a:	cd01                	beqz	a0,17a72 <_ZN20complex_full_dynamic3app17hfb8aa9adcb681e28E+0xaa>
   17a5c:	a099                	j	17aa2 <_ZN20complex_full_dynamic3app17hfb8aa9adcb681e28E+0xda>
   17a5e:	458d                	li	a1,3
   17a60:	4505                	li	a0,1
   17a62:	c901                	beqz	a0,17a72 <_ZN20complex_full_dynamic3app17hfb8aa9adcb681e28E+0xaa>
   17a64:	a83d                	j	17aa2 <_ZN20complex_full_dynamic3app17hfb8aa9adcb681e28E+0xda>
   17a66:	4501                	li	a0,0
   17a68:	dc3e                	sw	a5,56(sp)
   17a6a:	de42                	sw	a6,60(sp)
   17a6c:	04c10023          	sb	a2,64(sp)
   17a70:	e90d                	bnez	a0,17aa2 <_ZN20complex_full_dynamic3app17hfb8aa9adcb681e28E+0xda>
   17a72:	6505                	lui	a0,0x1
   17a74:	45a5                	li	a1,9
   17a76:	4621                	li	a2,8
   17a78:	a7050513          	addi	a0,a0,-1424 # a70 <.Lline_table_start1+0x845>
   17a7c:	4709                	li	a4,2
   17a7e:	07f00793          	li	a5,127
   17a82:	4681                	li	a3,0
   17a84:	00000073          	ecall
   17a88:	00a7fd63          	bgeu	a5,a0,17aa2 <_ZN20complex_full_dynamic3app17hfb8aa9adcb681e28E+0xda>
   17a8c:	0048                	addi	a0,sp,4
   17a8e:	00005097          	auipc	ra,0x5
   17a92:	002080e7          	jalr	2(ra) # 1ca90 <_ZN9allow_pin12full_dynamic17unshare_if_shared17h4e6b4433fd7c2282E>
   17a96:	1828                	addi	a0,sp,56
   17a98:	00005097          	auipc	ra,0x5
   17a9c:	ff8080e7          	jalr	-8(ra) # 1ca90 <_ZN9allow_pin12full_dynamic17unshare_if_shared17h4e6b4433fd7c2282E>
   17aa0:	4481                	li	s1,0
   17aa2:	c489                	beqz	s1,17aac <_ZN20complex_full_dynamic3app17hfb8aa9adcb681e28E+0xe4>
   17aa4:	00b9a223          	sw	a1,4(s3)
   17aa8:	4505                	li	a0,1
   17aaa:	a839                	j	17ac8 <_ZN20complex_full_dynamic3app17hfb8aa9adcb681e28E+0x100>
   17aac:	1828                	addi	a0,sp,56
   17aae:	00005097          	auipc	ra,0x5
   17ab2:	fe2080e7          	jalr	-30(ra) # 1ca90 <_ZN9allow_pin12full_dynamic17unshare_if_shared17h4e6b4433fd7c2282E>
   17ab6:	00198513          	addi	a0,s3,1
   17aba:	4661                	li	a2,24
   17abc:	85ca                	mv	a1,s2
   17abe:	00005097          	auipc	ra,0x5
   17ac2:	05e080e7          	jalr	94(ra) # 1cb1c <memcpy>
   17ac6:	4501                	li	a0,0
   17ac8:	00a98023          	sb	a0,0(s3)
   17acc:	1828                	addi	a0,sp,56
   17ace:	00005097          	auipc	ra,0x5
   17ad2:	fc2080e7          	jalr	-62(ra) # 1ca90 <_ZN9allow_pin12full_dynamic17unshare_if_shared17h4e6b4433fd7c2282E>
   17ad6:	0048                	addi	a0,sp,4
   17ad8:	00005097          	auipc	ra,0x5
   17adc:	fb8080e7          	jalr	-72(ra) # 1ca90 <_ZN9allow_pin12full_dynamic17unshare_if_shared17h4e6b4433fd7c2282E>
   17ae0:	50b6                	lw	ra,108(sp)
   17ae2:	5426                	lw	s0,104(sp)
   17ae4:	5496                	lw	s1,100(sp)
   17ae6:	5906                	lw	s2,96(sp)
   17ae8:	49f6                	lw	s3,92(sp)
   17aea:	6165                	addi	sp,sp,112
   17aec:	8082                	ret

00017aee <_ZN20complex_full_dynamic3app17hfbf8abb61e9f0c6bE>:
   17aee:	7135                	addi	sp,sp,-160
   17af0:	cf06                	sw	ra,156(sp)
   17af2:	cd22                	sw	s0,152(sp)
   17af4:	cb26                	sw	s1,148(sp)
   17af6:	c94a                	sw	s2,144(sp)
   17af8:	c74e                	sw	s3,140(sp)
   17afa:	89aa                	mv	s3,a0
   17afc:	4409                	li	s0,2
   17afe:	00810423          	sb	s0,8(sp)
   17b02:	0064                	addi	s1,sp,12
   17b04:	03c00613          	li	a2,60
   17b08:	8526                	mv	a0,s1
   17b0a:	00005097          	auipc	ra,0x5
   17b0e:	012080e7          	jalr	18(ra) # 1cb1c <memcpy>
   17b12:	05410913          	addi	s2,sp,84
   17b16:	03800613          	li	a2,56
   17b1a:	854a                	mv	a0,s2
   17b1c:	4581                	li	a1,0
   17b1e:	00005097          	auipc	ra,0x5
   17b22:	f92080e7          	jalr	-110(ra) # 1cab0 <memset>
   17b26:	8626                	mv	a2,s1
   17b28:	04810823          	sb	s0,80(sp)
   17b2c:	6509                	lui	a0,0x2
   17b2e:	448d                	li	s1,3
   17b30:	4811                	li	a6,4
   17b32:	458d                	li	a1,3
   17b34:	d1950793          	addi	a5,a0,-743 # 1d19 <.Lline_table_start1+0x1aee>
   17b38:	03c00693          	li	a3,60
   17b3c:	4711                	li	a4,4
   17b3e:	853e                	mv	a0,a5
   17b40:	00000073          	ecall
   17b44:	00850663          	beq	a0,s0,17b50 <_ZN20complex_full_dynamic3app17hfbf8abb61e9f0c6bE+0x62>
   17b48:	c03e                	sw	a5,0(sp)
   17b4a:	c226                	sw	s1,4(sp)
   17b4c:	01010423          	sb	a6,8(sp)
   17b50:	4609                	li	a2,2
   17b52:	00c51463          	bne	a0,a2,17b5a <_ZN20complex_full_dynamic3app17hfbf8abb61e9f0c6bE+0x6c>
   17b56:	4485                	li	s1,1
   17b58:	a895                	j	17bcc <_ZN20complex_full_dynamic3app17hfbf8abb61e9f0c6bE+0xde>
   17b5a:	05014503          	lbu	a0,80(sp)
   17b5e:	4485                	li	s1,1
   17b60:	02c51463          	bne	a0,a2,17b88 <_ZN20complex_full_dynamic3app17hfbf8abb61e9f0c6bE+0x9a>
   17b64:	864a                	mv	a2,s2
   17b66:	6509                	lui	a0,0x2
   17b68:	458d                	li	a1,3
   17b6a:	03800693          	li	a3,56
   17b6e:	470d                	li	a4,3
   17b70:	d1950793          	addi	a5,a0,-743 # 1d19 <.Lline_table_start1+0x1aee>
   17b74:	4409                	li	s0,2
   17b76:	853e                	mv	a0,a5
   17b78:	00000073          	ecall
   17b7c:	460d                	li	a2,3
   17b7e:	00851963          	bne	a0,s0,17b90 <_ZN20complex_full_dynamic3app17hfbf8abb61e9f0c6bE+0xa2>
   17b82:	4505                	li	a0,1
   17b84:	cd01                	beqz	a0,17b9c <_ZN20complex_full_dynamic3app17hfbf8abb61e9f0c6bE+0xae>
   17b86:	a099                	j	17bcc <_ZN20complex_full_dynamic3app17hfbf8abb61e9f0c6bE+0xde>
   17b88:	458d                	li	a1,3
   17b8a:	4505                	li	a0,1
   17b8c:	c901                	beqz	a0,17b9c <_ZN20complex_full_dynamic3app17hfbf8abb61e9f0c6bE+0xae>
   17b8e:	a83d                	j	17bcc <_ZN20complex_full_dynamic3app17hfbf8abb61e9f0c6bE+0xde>
   17b90:	4501                	li	a0,0
   17b92:	c4be                	sw	a5,72(sp)
   17b94:	c6b2                	sw	a2,76(sp)
   17b96:	04c10823          	sb	a2,80(sp)
   17b9a:	e90d                	bnez	a0,17bcc <_ZN20complex_full_dynamic3app17hfbf8abb61e9f0c6bE+0xde>
   17b9c:	6509                	lui	a0,0x2
   17b9e:	458d                	li	a1,3
   17ba0:	460d                	li	a2,3
   17ba2:	d1950513          	addi	a0,a0,-743 # 1d19 <.Lline_table_start1+0x1aee>
   17ba6:	4709                	li	a4,2
   17ba8:	07f00793          	li	a5,127
   17bac:	4681                	li	a3,0
   17bae:	00000073          	ecall
   17bb2:	00a7fd63          	bgeu	a5,a0,17bcc <_ZN20complex_full_dynamic3app17hfbf8abb61e9f0c6bE+0xde>
   17bb6:	850a                	mv	a0,sp
   17bb8:	00005097          	auipc	ra,0x5
   17bbc:	ed8080e7          	jalr	-296(ra) # 1ca90 <_ZN9allow_pin12full_dynamic17unshare_if_shared17h4e6b4433fd7c2282E>
   17bc0:	00a8                	addi	a0,sp,72
   17bc2:	00005097          	auipc	ra,0x5
   17bc6:	ece080e7          	jalr	-306(ra) # 1ca90 <_ZN9allow_pin12full_dynamic17unshare_if_shared17h4e6b4433fd7c2282E>
   17bca:	4481                	li	s1,0
   17bcc:	c489                	beqz	s1,17bd6 <_ZN20complex_full_dynamic3app17hfbf8abb61e9f0c6bE+0xe8>
   17bce:	00b9a223          	sw	a1,4(s3)
   17bd2:	4505                	li	a0,1
   17bd4:	a005                	j	17bf4 <_ZN20complex_full_dynamic3app17hfbf8abb61e9f0c6bE+0x106>
   17bd6:	00a8                	addi	a0,sp,72
   17bd8:	00005097          	auipc	ra,0x5
   17bdc:	eb8080e7          	jalr	-328(ra) # 1ca90 <_ZN9allow_pin12full_dynamic17unshare_if_shared17h4e6b4433fd7c2282E>
   17be0:	00198513          	addi	a0,s3,1
   17be4:	03800613          	li	a2,56
   17be8:	85ca                	mv	a1,s2
   17bea:	00005097          	auipc	ra,0x5
   17bee:	f32080e7          	jalr	-206(ra) # 1cb1c <memcpy>
   17bf2:	4501                	li	a0,0
   17bf4:	00a98023          	sb	a0,0(s3)
   17bf8:	00a8                	addi	a0,sp,72
   17bfa:	00005097          	auipc	ra,0x5
   17bfe:	e96080e7          	jalr	-362(ra) # 1ca90 <_ZN9allow_pin12full_dynamic17unshare_if_shared17h4e6b4433fd7c2282E>
   17c02:	850a                	mv	a0,sp
   17c04:	00005097          	auipc	ra,0x5
   17c08:	e8c080e7          	jalr	-372(ra) # 1ca90 <_ZN9allow_pin12full_dynamic17unshare_if_shared17h4e6b4433fd7c2282E>
   17c0c:	40fa                	lw	ra,156(sp)
   17c0e:	446a                	lw	s0,152(sp)
   17c10:	44da                	lw	s1,148(sp)
   17c12:	494a                	lw	s2,144(sp)
   17c14:	49ba                	lw	s3,140(sp)
   17c16:	610d                	addi	sp,sp,160
   17c18:	8082                	ret

00017c1a <_ZN20complex_full_dynamic3app17hfc0b98cdf9f8793cE>:
   17c1a:	7119                	addi	sp,sp,-128
   17c1c:	de86                	sw	ra,124(sp)
   17c1e:	dca2                	sw	s0,120(sp)
   17c20:	daa6                	sw	s1,116(sp)
   17c22:	d8ca                	sw	s2,112(sp)
   17c24:	d6ce                	sw	s3,108(sp)
   17c26:	89aa                	mv	s3,a0
   17c28:	4409                	li	s0,2
   17c2a:	00810a23          	sb	s0,20(sp)
   17c2e:	0824                	addi	s1,sp,24
   17c30:	02700613          	li	a2,39
   17c34:	8526                	mv	a0,s1
   17c36:	00005097          	auipc	ra,0x5
   17c3a:	ee6080e7          	jalr	-282(ra) # 1cb1c <memcpy>
   17c3e:	8626                	mv	a2,s1
   17c40:	06011423          	sh	zero,104(sp)
   17c44:	cc82                	sw	zero,88(sp)
   17c46:	ce82                	sw	zero,92(sp)
   17c48:	d082                	sw	zero,96(sp)
   17c4a:	d282                	sw	zero,100(sp)
   17c4c:	04810423          	sb	s0,72(sp)
   17c50:	c682                	sw	zero,76(sp)
   17c52:	c882                	sw	zero,80(sp)
   17c54:	ca82                	sw	zero,84(sp)
   17c56:	6505                	lui	a0,0x1
   17c58:	448d                	li	s1,3
   17c5a:	4811                	li	a6,4
   17c5c:	458d                	li	a1,3
   17c5e:	0e250793          	addi	a5,a0,226 # 10e2 <.Lline_table_start1+0xeb7>
   17c62:	02700693          	li	a3,39
   17c66:	4711                	li	a4,4
   17c68:	853e                	mv	a0,a5
   17c6a:	00000073          	ecall
   17c6e:	00850663          	beq	a0,s0,17c7a <_ZN20complex_full_dynamic3app17hfc0b98cdf9f8793cE+0x60>
   17c72:	c63e                	sw	a5,12(sp)
   17c74:	c826                	sw	s1,16(sp)
   17c76:	01010a23          	sb	a6,20(sp)
   17c7a:	4609                	li	a2,2
   17c7c:	04c10913          	addi	s2,sp,76
   17c80:	00c51463          	bne	a0,a2,17c88 <_ZN20complex_full_dynamic3app17hfc0b98cdf9f8793cE+0x6e>
   17c84:	4485                	li	s1,1
   17c86:	a88d                	j	17cf8 <_ZN20complex_full_dynamic3app17hfc0b98cdf9f8793cE+0xde>
   17c88:	04814503          	lbu	a0,72(sp)
   17c8c:	4485                	li	s1,1
   17c8e:	02c51363          	bne	a0,a2,17cb4 <_ZN20complex_full_dynamic3app17hfc0b98cdf9f8793cE+0x9a>
   17c92:	864a                	mv	a2,s2
   17c94:	6505                	lui	a0,0x1
   17c96:	458d                	li	a1,3
   17c98:	46f9                	li	a3,30
   17c9a:	470d                	li	a4,3
   17c9c:	0e250793          	addi	a5,a0,226 # 10e2 <.Lline_table_start1+0xeb7>
   17ca0:	4409                	li	s0,2
   17ca2:	853e                	mv	a0,a5
   17ca4:	00000073          	ecall
   17ca8:	460d                	li	a2,3
   17caa:	00851963          	bne	a0,s0,17cbc <_ZN20complex_full_dynamic3app17hfc0b98cdf9f8793cE+0xa2>
   17cae:	4505                	li	a0,1
   17cb0:	cd01                	beqz	a0,17cc8 <_ZN20complex_full_dynamic3app17hfc0b98cdf9f8793cE+0xae>
   17cb2:	a099                	j	17cf8 <_ZN20complex_full_dynamic3app17hfc0b98cdf9f8793cE+0xde>
   17cb4:	458d                	li	a1,3
   17cb6:	4505                	li	a0,1
   17cb8:	c901                	beqz	a0,17cc8 <_ZN20complex_full_dynamic3app17hfc0b98cdf9f8793cE+0xae>
   17cba:	a83d                	j	17cf8 <_ZN20complex_full_dynamic3app17hfc0b98cdf9f8793cE+0xde>
   17cbc:	4501                	li	a0,0
   17cbe:	c0be                	sw	a5,64(sp)
   17cc0:	c2b2                	sw	a2,68(sp)
   17cc2:	04c10423          	sb	a2,72(sp)
   17cc6:	e90d                	bnez	a0,17cf8 <_ZN20complex_full_dynamic3app17hfc0b98cdf9f8793cE+0xde>
   17cc8:	6505                	lui	a0,0x1
   17cca:	458d                	li	a1,3
   17ccc:	460d                	li	a2,3
   17cce:	0e250513          	addi	a0,a0,226 # 10e2 <.Lline_table_start1+0xeb7>
   17cd2:	4709                	li	a4,2
   17cd4:	07f00793          	li	a5,127
   17cd8:	4681                	li	a3,0
   17cda:	00000073          	ecall
   17cde:	00a7fd63          	bgeu	a5,a0,17cf8 <_ZN20complex_full_dynamic3app17hfc0b98cdf9f8793cE+0xde>
   17ce2:	0068                	addi	a0,sp,12
   17ce4:	00005097          	auipc	ra,0x5
   17ce8:	dac080e7          	jalr	-596(ra) # 1ca90 <_ZN9allow_pin12full_dynamic17unshare_if_shared17h4e6b4433fd7c2282E>
   17cec:	0088                	addi	a0,sp,64
   17cee:	00005097          	auipc	ra,0x5
   17cf2:	da2080e7          	jalr	-606(ra) # 1ca90 <_ZN9allow_pin12full_dynamic17unshare_if_shared17h4e6b4433fd7c2282E>
   17cf6:	4481                	li	s1,0
   17cf8:	c489                	beqz	s1,17d02 <_ZN20complex_full_dynamic3app17hfc0b98cdf9f8793cE+0xe8>
   17cfa:	00b9a223          	sw	a1,4(s3)
   17cfe:	4505                	li	a0,1
   17d00:	a839                	j	17d1e <_ZN20complex_full_dynamic3app17hfc0b98cdf9f8793cE+0x104>
   17d02:	0088                	addi	a0,sp,64
   17d04:	00005097          	auipc	ra,0x5
   17d08:	d8c080e7          	jalr	-628(ra) # 1ca90 <_ZN9allow_pin12full_dynamic17unshare_if_shared17h4e6b4433fd7c2282E>
   17d0c:	00198513          	addi	a0,s3,1
   17d10:	4679                	li	a2,30
   17d12:	85ca                	mv	a1,s2
   17d14:	00005097          	auipc	ra,0x5
   17d18:	e08080e7          	jalr	-504(ra) # 1cb1c <memcpy>
   17d1c:	4501                	li	a0,0
   17d1e:	00a98023          	sb	a0,0(s3)
   17d22:	0088                	addi	a0,sp,64
   17d24:	00005097          	auipc	ra,0x5
   17d28:	d6c080e7          	jalr	-660(ra) # 1ca90 <_ZN9allow_pin12full_dynamic17unshare_if_shared17h4e6b4433fd7c2282E>
   17d2c:	0068                	addi	a0,sp,12
   17d2e:	00005097          	auipc	ra,0x5
   17d32:	d62080e7          	jalr	-670(ra) # 1ca90 <_ZN9allow_pin12full_dynamic17unshare_if_shared17h4e6b4433fd7c2282E>
   17d36:	50f6                	lw	ra,124(sp)
   17d38:	5466                	lw	s0,120(sp)
   17d3a:	54d6                	lw	s1,116(sp)
   17d3c:	5946                	lw	s2,112(sp)
   17d3e:	59b6                	lw	s3,108(sp)
   17d40:	6109                	addi	sp,sp,128
   17d42:	8082                	ret

00017d44 <_ZN20complex_full_dynamic3app17hfcadd3f287888badE>:
   17d44:	7155                	addi	sp,sp,-208
   17d46:	c786                	sw	ra,204(sp)
   17d48:	c5a2                	sw	s0,200(sp)
   17d4a:	c3a6                	sw	s1,196(sp)
   17d4c:	c1ca                	sw	s2,192(sp)
   17d4e:	df4e                	sw	s3,188(sp)
   17d50:	89aa                	mv	s3,a0
   17d52:	4409                	li	s0,2
   17d54:	00810423          	sb	s0,8(sp)
   17d58:	0064                	addi	s1,sp,12
   17d5a:	05300613          	li	a2,83
   17d5e:	8526                	mv	a0,s1
   17d60:	00005097          	auipc	ra,0x5
   17d64:	dbc080e7          	jalr	-580(ra) # 1cb1c <memcpy>
   17d68:	06c10913          	addi	s2,sp,108
   17d6c:	04d00613          	li	a2,77
   17d70:	854a                	mv	a0,s2
   17d72:	4581                	li	a1,0
   17d74:	00005097          	auipc	ra,0x5
   17d78:	d3c080e7          	jalr	-708(ra) # 1cab0 <memset>
   17d7c:	8626                	mv	a2,s1
   17d7e:	06810423          	sb	s0,104(sp)
   17d82:	6505                	lui	a0,0x1
   17d84:	44a5                	li	s1,9
   17d86:	4811                	li	a6,4
   17d88:	45a5                	li	a1,9
   17d8a:	6ba50793          	addi	a5,a0,1722 # 16ba <.Lline_table_start1+0x148f>
   17d8e:	05300693          	li	a3,83
   17d92:	4711                	li	a4,4
   17d94:	853e                	mv	a0,a5
   17d96:	00000073          	ecall
   17d9a:	00850663          	beq	a0,s0,17da6 <_ZN20complex_full_dynamic3app17hfcadd3f287888badE+0x62>
   17d9e:	c03e                	sw	a5,0(sp)
   17da0:	c226                	sw	s1,4(sp)
   17da2:	01010423          	sb	a6,8(sp)
   17da6:	4609                	li	a2,2
   17da8:	00c51463          	bne	a0,a2,17db0 <_ZN20complex_full_dynamic3app17hfcadd3f287888badE+0x6c>
   17dac:	4485                	li	s1,1
   17dae:	a89d                	j	17e24 <_ZN20complex_full_dynamic3app17hfcadd3f287888badE+0xe0>
   17db0:	06814503          	lbu	a0,104(sp)
   17db4:	4485                	li	s1,1
   17db6:	02c51563          	bne	a0,a2,17de0 <_ZN20complex_full_dynamic3app17hfcadd3f287888badE+0x9c>
   17dba:	864a                	mv	a2,s2
   17dbc:	6505                	lui	a0,0x1
   17dbe:	4811                	li	a6,4
   17dc0:	4591                	li	a1,4
   17dc2:	04d00693          	li	a3,77
   17dc6:	470d                	li	a4,3
   17dc8:	6ba50793          	addi	a5,a0,1722 # 16ba <.Lline_table_start1+0x148f>
   17dcc:	4409                	li	s0,2
   17dce:	853e                	mv	a0,a5
   17dd0:	00000073          	ecall
   17dd4:	460d                	li	a2,3
   17dd6:	00851963          	bne	a0,s0,17de8 <_ZN20complex_full_dynamic3app17hfcadd3f287888badE+0xa4>
   17dda:	4505                	li	a0,1
   17ddc:	cd01                	beqz	a0,17df4 <_ZN20complex_full_dynamic3app17hfcadd3f287888badE+0xb0>
   17dde:	a099                	j	17e24 <_ZN20complex_full_dynamic3app17hfcadd3f287888badE+0xe0>
   17de0:	458d                	li	a1,3
   17de2:	4505                	li	a0,1
   17de4:	c901                	beqz	a0,17df4 <_ZN20complex_full_dynamic3app17hfcadd3f287888badE+0xb0>
   17de6:	a83d                	j	17e24 <_ZN20complex_full_dynamic3app17hfcadd3f287888badE+0xe0>
   17de8:	4501                	li	a0,0
   17dea:	d0be                	sw	a5,96(sp)
   17dec:	d2c2                	sw	a6,100(sp)
   17dee:	06c10423          	sb	a2,104(sp)
   17df2:	e90d                	bnez	a0,17e24 <_ZN20complex_full_dynamic3app17hfcadd3f287888badE+0xe0>
   17df4:	6505                	lui	a0,0x1
   17df6:	45a5                	li	a1,9
   17df8:	4611                	li	a2,4
   17dfa:	6ba50513          	addi	a0,a0,1722 # 16ba <.Lline_table_start1+0x148f>
   17dfe:	4709                	li	a4,2
   17e00:	07f00793          	li	a5,127
   17e04:	4681                	li	a3,0
   17e06:	00000073          	ecall
   17e0a:	00a7fd63          	bgeu	a5,a0,17e24 <_ZN20complex_full_dynamic3app17hfcadd3f287888badE+0xe0>
   17e0e:	850a                	mv	a0,sp
   17e10:	00005097          	auipc	ra,0x5
   17e14:	c80080e7          	jalr	-896(ra) # 1ca90 <_ZN9allow_pin12full_dynamic17unshare_if_shared17h4e6b4433fd7c2282E>
   17e18:	1088                	addi	a0,sp,96
   17e1a:	00005097          	auipc	ra,0x5
   17e1e:	c76080e7          	jalr	-906(ra) # 1ca90 <_ZN9allow_pin12full_dynamic17unshare_if_shared17h4e6b4433fd7c2282E>
   17e22:	4481                	li	s1,0
   17e24:	c489                	beqz	s1,17e2e <_ZN20complex_full_dynamic3app17hfcadd3f287888badE+0xea>
   17e26:	00b9a223          	sw	a1,4(s3)
   17e2a:	4505                	li	a0,1
   17e2c:	a005                	j	17e4c <_ZN20complex_full_dynamic3app17hfcadd3f287888badE+0x108>
   17e2e:	1088                	addi	a0,sp,96
   17e30:	00005097          	auipc	ra,0x5
   17e34:	c60080e7          	jalr	-928(ra) # 1ca90 <_ZN9allow_pin12full_dynamic17unshare_if_shared17h4e6b4433fd7c2282E>
   17e38:	00198513          	addi	a0,s3,1
   17e3c:	04d00613          	li	a2,77
   17e40:	85ca                	mv	a1,s2
   17e42:	00005097          	auipc	ra,0x5
   17e46:	cda080e7          	jalr	-806(ra) # 1cb1c <memcpy>
   17e4a:	4501                	li	a0,0
   17e4c:	00a98023          	sb	a0,0(s3)
   17e50:	1088                	addi	a0,sp,96
   17e52:	00005097          	auipc	ra,0x5
   17e56:	c3e080e7          	jalr	-962(ra) # 1ca90 <_ZN9allow_pin12full_dynamic17unshare_if_shared17h4e6b4433fd7c2282E>
   17e5a:	850a                	mv	a0,sp
   17e5c:	00005097          	auipc	ra,0x5
   17e60:	c34080e7          	jalr	-972(ra) # 1ca90 <_ZN9allow_pin12full_dynamic17unshare_if_shared17h4e6b4433fd7c2282E>
   17e64:	40be                	lw	ra,204(sp)
   17e66:	442e                	lw	s0,200(sp)
   17e68:	449e                	lw	s1,196(sp)
   17e6a:	490e                	lw	s2,192(sp)
   17e6c:	59fa                	lw	s3,188(sp)
   17e6e:	6169                	addi	sp,sp,208
   17e70:	8082                	ret

00017e72 <_start>:
   17e72:	81010113          	addi	sp,sp,-2032
   17e76:	7e112623          	sw	ra,2028(sp)
   17e7a:	7e812423          	sw	s0,2024(sp)
   17e7e:	7e912223          	sw	s1,2020(sp)
   17e82:	7f212023          	sw	s2,2016(sp)
   17e86:	7d312e23          	sw	s3,2012(sp)
   17e8a:	7d412c23          	sw	s4,2008(sp)
   17e8e:	7d512a23          	sw	s5,2004(sp)
   17e92:	7d612823          	sw	s6,2000(sp)
   17e96:	7d712623          	sw	s7,1996(sp)
   17e9a:	7d812423          	sw	s8,1992(sp)
   17e9e:	7d912223          	sw	s9,1988(sp)
   17ea2:	7da12023          	sw	s10,1984(sp)
   17ea6:	7bb12e23          	sw	s11,1980(sp)
   17eaa:	80010113          	addi	sp,sp,-2048
   17eae:	b2010113          	addi	sp,sp,-1248
   17eb2:	7ff10b13          	addi	s6,sp,2047
   17eb6:	791b0b13          	addi	s6,s6,1937
   17eba:	6a89                	lui	s5,0x2
   17ebc:	0a99                	addi	s5,s5,6 # 2006 <.Lline_table_start1+0x1ddb>
   17ebe:	08e4                	addi	s1,sp,92
   17ec0:	02800613          	li	a2,40
   17ec4:	8526                	mv	a0,s1
   17ec6:	4581                	li	a1,0
   17ec8:	00005097          	auipc	ra,0x5
   17ecc:	be8080e7          	jalr	-1048(ra) # 1cab0 <memset>
   17ed0:	4409                	li	s0,2
   17ed2:	04810c23          	sb	s0,88(sp)
   17ed6:	6505                	lui	a0,0x1
   17ed8:	38850513          	addi	a0,a0,904 # 1388 <.Lline_table_start1+0x115d>
   17edc:	00a10933          	add	s2,sp,a0
   17ee0:	05100613          	li	a2,81
   17ee4:	854a                	mv	a0,s2
   17ee6:	4581                	li	a1,0
   17ee8:	00005097          	auipc	ra,0x5
   17eec:	bc8080e7          	jalr	-1080(ra) # 1cab0 <memset>
   17ef0:	8556                	mv	a0,s5
   17ef2:	8626                	mv	a2,s1
   17ef4:	3e8b0a23          	sb	s0,1012(s6)
   17ef8:	47a5                	li	a5,9
   17efa:	4491                	li	s1,4
   17efc:	45a5                	li	a1,9
   17efe:	02800693          	li	a3,40
   17f02:	4711                	li	a4,4
   17f04:	00000073          	ecall
   17f08:	02851e63          	bne	a0,s0,17f44 <_start+0xd2>
   17f0c:	8a2e                	mv	s4,a1
   17f0e:	4589                	li	a1,2
   17f10:	04b50163          	beq	a0,a1,17f52 <_start+0xe0>
   17f14:	3f4b4503          	lbu	a0,1012(s6)
   17f18:	4485                	li	s1,1
   17f1a:	18b51d63          	bne	a0,a1,180b4 <_start+0x242>
   17f1e:	864a                	mv	a2,s2
   17f20:	6509                	lui	a0,0x2
   17f22:	47a5                	li	a5,9
   17f24:	45a5                	li	a1,9
   17f26:	05100693          	li	a3,81
   17f2a:	470d                	li	a4,3
   17f2c:	0519                	addi	a0,a0,6 # 2006 <.Lline_table_start1+0x1ddb>
   17f2e:	4409                	li	s0,2
   17f30:	00000073          	ecall
   17f34:	8a2e                	mv	s4,a1
   17f36:	458d                	li	a1,3
   17f38:	2e851a63          	bne	a0,s0,1822c <_start+0x3ba>
   17f3c:	4505                	li	a0,1
   17f3e:	30050063          	beqz	a0,1823e <_start+0x3cc>
   17f42:	a809                	j	17f54 <_start+0xe2>
   17f44:	c8d6                	sw	s5,80(sp)
   17f46:	cabe                	sw	a5,84(sp)
   17f48:	04910c23          	sb	s1,88(sp)
   17f4c:	4589                	li	a1,2
   17f4e:	fcb513e3          	bne	a0,a1,17f14 <_start+0xa2>
   17f52:	4485                	li	s1,1
   17f54:	6505                	lui	a0,0x1
   17f56:	37c50513          	addi	a0,a0,892 # 137c <.Lline_table_start1+0x1151>
   17f5a:	950a                	add	a0,a0,sp
   17f5c:	00005097          	auipc	ra,0x5
   17f60:	b34080e7          	jalr	-1228(ra) # 1ca90 <_ZN9allow_pin12full_dynamic17unshare_if_shared17h4e6b4433fd7c2282E>
   17f64:	e0a5                	bnez	s1,17fc4 <_start+0x152>
   17f66:	00194503          	lbu	a0,1(s2)
   17f6a:	00094583          	lbu	a1,0(s2)
   17f6e:	00294603          	lbu	a2,2(s2)
   17f72:	0522                	slli	a0,a0,0x8
   17f74:	3fbb4683          	lbu	a3,1019(s6)
   17f78:	3fcb4703          	lbu	a4,1020(s6)
   17f7c:	8d4d                	or	a0,a0,a1
   17f7e:	3fdb4583          	lbu	a1,1021(s6)
   17f82:	3feb4783          	lbu	a5,1022(s6)
   17f86:	0722                	slli	a4,a4,0x8
   17f88:	8ed9                	or	a3,a3,a4
   17f8a:	05c2                	slli	a1,a1,0x10
   17f8c:	07e2                	slli	a5,a5,0x18
   17f8e:	8ddd                	or	a1,a1,a5
   17f90:	08a11823          	sh	a0,144(sp)
   17f94:	08c10923          	sb	a2,146(sp)
   17f98:	00d5ea33          	or	s4,a1,a3
   17f9c:	6505                	lui	a0,0x1
   17f9e:	38f50513          	addi	a0,a0,911 # 138f <.Lline_table_start1+0x1164>
   17fa2:	00a105b3          	add	a1,sp,a0
   17fa6:	0048                	addi	a0,sp,4
   17fa8:	04a00613          	li	a2,74
   17fac:	00005097          	auipc	ra,0x5
   17fb0:	b70080e7          	jalr	-1168(ra) # 1cb1c <memcpy>
   17fb4:	6505                	lui	a0,0x1
   17fb6:	37c50513          	addi	a0,a0,892 # 137c <.Lline_table_start1+0x1151>
   17fba:	950a                	add	a0,a0,sp
   17fbc:	00005097          	auipc	ra,0x5
   17fc0:	ad4080e7          	jalr	-1324(ra) # 1ca90 <_ZN9allow_pin12full_dynamic17unshare_if_shared17h4e6b4433fd7c2282E>
   17fc4:	0888                	addi	a0,sp,80
   17fc6:	00005097          	auipc	ra,0x5
   17fca:	aca080e7          	jalr	-1334(ra) # 1ca90 <_ZN9allow_pin12full_dynamic17unshare_if_shared17h4e6b4433fd7c2282E>
   17fce:	c099                	beqz	s1,17fd4 <_start+0x162>
   17fd0:	2110406f          	j	1c9e0 <_start+0x4b6e>
   17fd4:	09011503          	lh	a0,144(sp)
   17fd8:	09214583          	lbu	a1,146(sp)
   17fdc:	6605                	lui	a2,0x1
   17fde:	38860613          	addi	a2,a2,904 # 1388 <.Lline_table_start1+0x115d>
   17fe2:	00c104b3          	add	s1,sp,a2
   17fe6:	3eab1c23          	sh	a0,1016(s6)
   17fea:	3ebb0d23          	sb	a1,1018(s6)
   17fee:	6505                	lui	a0,0x1
   17ff0:	32050513          	addi	a0,a0,800 # 1320 <.Lline_table_start1+0x10f5>
   17ff4:	950a                	add	a0,a0,sp
   17ff6:	004c                	addi	a1,sp,4
   17ff8:	04a00613          	li	a2,74
   17ffc:	00005097          	auipc	ra,0x5
   18000:	b20080e7          	jalr	-1248(ra) # 1cb1c <memcpy>
   18004:	6505                	lui	a0,0x1
   18006:	38f50513          	addi	a0,a0,911 # 138f <.Lline_table_start1+0x1164>
   1800a:	950a                	add	a0,a0,sp
   1800c:	6585                	lui	a1,0x1
   1800e:	32058593          	addi	a1,a1,800 # 1320 <.Lline_table_start1+0x10f5>
   18012:	958a                	add	a1,a1,sp
   18014:	04a00613          	li	a2,74
   18018:	00005097          	auipc	ra,0x5
   1801c:	b04080e7          	jalr	-1276(ra) # 1cb1c <memcpy>
   18020:	4409                	li	s0,2
   18022:	018a5513          	srli	a0,s4,0x18
   18026:	010a5593          	srli	a1,s4,0x10
   1802a:	3eab0f23          	sb	a0,1022(s6)
   1802e:	008a5513          	srli	a0,s4,0x8
   18032:	3e8b0a23          	sb	s0,1012(s6)
   18036:	3f4b0da3          	sb	s4,1019(s6)
   1803a:	3eab0e23          	sb	a0,1020(s6)
   1803e:	3ebb0ea3          	sb	a1,1021(s6)
   18042:	6505                	lui	a0,0x1
   18044:	32c50513          	addi	a0,a0,812 # 132c <.Lline_table_start1+0x1101>
   18048:	00a10933          	add	s2,sp,a0
   1804c:	04600613          	li	a2,70
   18050:	854a                	mv	a0,s2
   18052:	4581                	li	a1,0
   18054:	00005097          	auipc	ra,0x5
   18058:	a5c080e7          	jalr	-1444(ra) # 1cab0 <memset>
   1805c:	8626                	mv	a2,s1
   1805e:	388b0c23          	sb	s0,920(s6)
   18062:	6509                	lui	a0,0x2
   18064:	479d                	li	a5,7
   18066:	4491                	li	s1,4
   18068:	459d                	li	a1,7
   1806a:	0c450513          	addi	a0,a0,196 # 20c4 <.Lline_table_start1+0x1e99>
   1806e:	05100693          	li	a3,81
   18072:	4711                	li	a4,4
   18074:	00000073          	ecall
   18078:	04851363          	bne	a0,s0,180be <_start+0x24c>
   1807c:	8a2e                	mv	s4,a1
   1807e:	4589                	li	a1,2
   18080:	04b50a63          	beq	a0,a1,180d4 <_start+0x262>
   18084:	398b4503          	lbu	a0,920(s6)
   18088:	4405                	li	s0,1
   1808a:	1cb51863          	bne	a0,a1,1825a <_start+0x3e8>
   1808e:	4581                	li	a1,0
   18090:	864a                	mv	a2,s2
   18092:	6509                	lui	a0,0x2
   18094:	04600693          	li	a3,70
   18098:	470d                	li	a4,3
   1809a:	0c450513          	addi	a0,a0,196 # 20c4 <.Lline_table_start1+0x1e99>
   1809e:	4789                	li	a5,2
   180a0:	00000073          	ecall
   180a4:	8a2e                	mv	s4,a1
   180a6:	458d                	li	a1,3
   180a8:	3af51c63          	bne	a0,a5,18460 <_start+0x5ee>
   180ac:	4505                	li	a0,1
   180ae:	3c050463          	beqz	a0,18476 <_start+0x604>
   180b2:	a015                	j	180d6 <_start+0x264>
   180b4:	4a0d                	li	s4,3
   180b6:	4505                	li	a0,1
   180b8:	18050363          	beqz	a0,1823e <_start+0x3cc>
   180bc:	bd61                	j	17f54 <_start+0xe2>
   180be:	0bea8593          	addi	a1,s5,190
   180c2:	3ebb2623          	sw	a1,1004(s6)
   180c6:	3efb2823          	sw	a5,1008(s6)
   180ca:	3e9b0a23          	sb	s1,1012(s6)
   180ce:	4589                	li	a1,2
   180d0:	fab51ae3          	bne	a0,a1,18084 <_start+0x212>
   180d4:	4405                	li	s0,1
   180d6:	6505                	lui	a0,0x1
   180d8:	32050513          	addi	a0,a0,800 # 1320 <.Lline_table_start1+0x10f5>
   180dc:	950a                	add	a0,a0,sp
   180de:	00005097          	auipc	ra,0x5
   180e2:	9b2080e7          	jalr	-1614(ra) # 1ca90 <_ZN9allow_pin12full_dynamic17unshare_if_shared17h4e6b4433fd7c2282E>
   180e6:	e025                	bnez	s0,18146 <_start+0x2d4>
   180e8:	00194503          	lbu	a0,1(s2)
   180ec:	00094583          	lbu	a1,0(s2)
   180f0:	00294603          	lbu	a2,2(s2)
   180f4:	0522                	slli	a0,a0,0x8
   180f6:	39fb4683          	lbu	a3,927(s6)
   180fa:	3a0b4703          	lbu	a4,928(s6)
   180fe:	8d4d                	or	a0,a0,a1
   18100:	3a1b4583          	lbu	a1,929(s6)
   18104:	3a2b4783          	lbu	a5,930(s6)
   18108:	0722                	slli	a4,a4,0x8
   1810a:	8ed9                	or	a3,a3,a4
   1810c:	05c2                	slli	a1,a1,0x10
   1810e:	07e2                	slli	a5,a5,0x18
   18110:	8ddd                	or	a1,a1,a5
   18112:	08a11823          	sh	a0,144(sp)
   18116:	08c10923          	sb	a2,146(sp)
   1811a:	00d5ea33          	or	s4,a1,a3
   1811e:	6505                	lui	a0,0x1
   18120:	33350513          	addi	a0,a0,819 # 1333 <.Lline_table_start1+0x1108>
   18124:	00a105b3          	add	a1,sp,a0
   18128:	0888                	addi	a0,sp,80
   1812a:	03f00613          	li	a2,63
   1812e:	00005097          	auipc	ra,0x5
   18132:	9ee080e7          	jalr	-1554(ra) # 1cb1c <memcpy>
   18136:	6505                	lui	a0,0x1
   18138:	32050513          	addi	a0,a0,800 # 1320 <.Lline_table_start1+0x10f5>
   1813c:	950a                	add	a0,a0,sp
   1813e:	00005097          	auipc	ra,0x5
   18142:	952080e7          	jalr	-1710(ra) # 1ca90 <_ZN9allow_pin12full_dynamic17unshare_if_shared17h4e6b4433fd7c2282E>
   18146:	6505                	lui	a0,0x1
   18148:	37c50513          	addi	a0,a0,892 # 137c <.Lline_table_start1+0x1151>
   1814c:	950a                	add	a0,a0,sp
   1814e:	00005097          	auipc	ra,0x5
   18152:	942080e7          	jalr	-1726(ra) # 1ca90 <_ZN9allow_pin12full_dynamic17unshare_if_shared17h4e6b4433fd7c2282E>
   18156:	c019                	beqz	s0,1815c <_start+0x2ea>
   18158:	0890406f          	j	1c9e0 <_start+0x4b6e>
   1815c:	09011503          	lh	a0,144(sp)
   18160:	09214583          	lbu	a1,146(sp)
   18164:	6605                	lui	a2,0x1
   18166:	38860613          	addi	a2,a2,904 # 1388 <.Lline_table_start1+0x115d>
   1816a:	00c109b3          	add	s3,sp,a2
   1816e:	3eab1c23          	sh	a0,1016(s6)
   18172:	3ebb0d23          	sb	a1,1018(s6)
   18176:	0048                	addi	a0,sp,4
   18178:	088c                	addi	a1,sp,80
   1817a:	03f00613          	li	a2,63
   1817e:	00005097          	auipc	ra,0x5
   18182:	99e080e7          	jalr	-1634(ra) # 1cb1c <memcpy>
   18186:	6505                	lui	a0,0x1
   18188:	38f50513          	addi	a0,a0,911 # 138f <.Lline_table_start1+0x1164>
   1818c:	950a                	add	a0,a0,sp
   1818e:	004c                	addi	a1,sp,4
   18190:	03f00613          	li	a2,63
   18194:	00005097          	auipc	ra,0x5
   18198:	988080e7          	jalr	-1656(ra) # 1cb1c <memcpy>
   1819c:	864e                	mv	a2,s3
   1819e:	4409                	li	s0,2
   181a0:	018a5513          	srli	a0,s4,0x18
   181a4:	010a5693          	srli	a3,s4,0x10
   181a8:	008a5713          	srli	a4,s4,0x8
   181ac:	3a0b2423          	sw	zero,936(s6)
   181b0:	3a0b2623          	sw	zero,940(s6)
   181b4:	3a0b2823          	sw	zero,944(s6)
   181b8:	6789                	lui	a5,0x2
   181ba:	480d                	li	a6,3
   181bc:	4491                	li	s1,4
   181be:	3eab0f23          	sb	a0,1022(s6)
   181c2:	458d                	li	a1,3
   181c4:	3e8b0a23          	sb	s0,1012(s6)
   181c8:	3f4b0da3          	sb	s4,1019(s6)
   181cc:	3eeb0e23          	sb	a4,1020(s6)
   181d0:	3edb0ea3          	sb	a3,1021(s6)
   181d4:	388b0c23          	sb	s0,920(s6)
   181d8:	380b2e23          	sw	zero,924(s6)
   181dc:	3a0b2023          	sw	zero,928(s6)
   181e0:	3a0b2223          	sw	zero,932(s6)
   181e4:	3cf78513          	addi	a0,a5,975 # 23cf <.Lline_table_start1+0x21a4>
   181e8:	04600693          	li	a3,70
   181ec:	4711                	li	a4,4
   181ee:	00000073          	ecall
   181f2:	06851963          	bne	a0,s0,18264 <_start+0x3f2>
   181f6:	8a2e                	mv	s4,a1
   181f8:	4589                	li	a1,2
   181fa:	08b50063          	beq	a0,a1,1827a <_start+0x408>
   181fe:	398b4503          	lbu	a0,920(s6)
   18202:	4b85                	li	s7,1
   18204:	28b51863          	bne	a0,a1,18494 <_start+0x622>
   18208:	864a                	mv	a2,s2
   1820a:	6509                	lui	a0,0x2
   1820c:	4789                	li	a5,2
   1820e:	448d                	li	s1,3
   18210:	4589                	li	a1,2
   18212:	3cf50513          	addi	a0,a0,975 # 23cf <.Lline_table_start1+0x21a4>
   18216:	46e1                	li	a3,24
   18218:	470d                	li	a4,3
   1821a:	00000073          	ecall
   1821e:	40f51563          	bne	a0,a5,18628 <_start+0x7b6>
   18222:	8a2e                	mv	s4,a1
   18224:	4505                	li	a0,1
   18226:	40050c63          	beqz	a0,1863e <_start+0x7cc>
   1822a:	a889                	j	1827c <_start+0x40a>
   1822c:	4501                	li	a0,0
   1822e:	3f5b2623          	sw	s5,1004(s6)
   18232:	3efb2823          	sw	a5,1008(s6)
   18236:	3ebb0a23          	sb	a1,1012(s6)
   1823a:	d0051de3          	bnez	a0,17f54 <_start+0xe2>
   1823e:	6509                	lui	a0,0x2
   18240:	45a5                	li	a1,9
   18242:	4625                	li	a2,9
   18244:	0519                	addi	a0,a0,6 # 2006 <.Lline_table_start1+0x1ddb>
   18246:	4709                	li	a4,2
   18248:	07f00793          	li	a5,127
   1824c:	4681                	li	a3,0
   1824e:	00000073          	ecall
   18252:	1ea7e863          	bltu	a5,a0,18442 <_start+0x5d0>
   18256:	8a2e                	mv	s4,a1
   18258:	b9f5                	j	17f54 <_start+0xe2>
   1825a:	4a0d                	li	s4,3
   1825c:	4505                	li	a0,1
   1825e:	20050c63          	beqz	a0,18476 <_start+0x604>
   18262:	bd95                	j	180d6 <_start+0x264>
   18264:	3c9a8593          	addi	a1,s5,969
   18268:	3ebb2623          	sw	a1,1004(s6)
   1826c:	3f0b2823          	sw	a6,1008(s6)
   18270:	3e9b0a23          	sb	s1,1012(s6)
   18274:	4589                	li	a1,2
   18276:	f8b514e3          	bne	a0,a1,181fe <_start+0x38c>
   1827a:	4b85                	li	s7,1
   1827c:	6505                	lui	a0,0x1
   1827e:	32050513          	addi	a0,a0,800 # 1320 <.Lline_table_start1+0x10f5>
   18282:	950a                	add	a0,a0,sp
   18284:	00005097          	auipc	ra,0x5
   18288:	80c080e7          	jalr	-2036(ra) # 1ca90 <_ZN9allow_pin12full_dynamic17unshare_if_shared17h4e6b4433fd7c2282E>
   1828c:	0c0b9c63          	bnez	s7,18364 <_start+0x4f2>
   18290:	00094583          	lbu	a1,0(s2)
   18294:	00194603          	lbu	a2,1(s2)
   18298:	00294803          	lbu	a6,2(s2)
   1829c:	39fb4883          	lbu	a7,927(s6)
   182a0:	3a0b4283          	lbu	t0,928(s6)
   182a4:	3a1b4303          	lbu	t1,929(s6)
   182a8:	3a2b4483          	lbu	s1,930(s6)
   182ac:	3b3b4503          	lbu	a0,947(s6)
   182b0:	3a3b4403          	lbu	s0,931(s6)
   182b4:	3a4b4683          	lbu	a3,932(s6)
   182b8:	3a5b4703          	lbu	a4,933(s6)
   182bc:	3a6b4783          	lbu	a5,934(s6)
   182c0:	0622                	slli	a2,a2,0x8
   182c2:	0aa10023          	sb	a0,160(sp)
   182c6:	00b663b3          	or	t2,a2,a1
   182ca:	3a7b4e03          	lbu	t3,935(s6)
   182ce:	3a8b4603          	lbu	a2,936(s6)
   182d2:	3a9b4583          	lbu	a1,937(s6)
   182d6:	3aab4503          	lbu	a0,938(s6)
   182da:	02a2                	slli	t0,t0,0x8
   182dc:	0342                	slli	t1,t1,0x10
   182de:	04e2                	slli	s1,s1,0x18
   182e0:	06a2                	slli	a3,a3,0x8
   182e2:	0742                	slli	a4,a4,0x10
   182e4:	07e2                	slli	a5,a5,0x18
   182e6:	0112e8b3          	or	a7,t0,a7
   182ea:	0064e333          	or	t1,s1,t1
   182ee:	0086e2b3          	or	t0,a3,s0
   182f2:	00e7eeb3          	or	t4,a5,a4
   182f6:	3abb4783          	lbu	a5,939(s6)
   182fa:	3acb4403          	lbu	s0,940(s6)
   182fe:	3adb4683          	lbu	a3,941(s6)
   18302:	3aeb4483          	lbu	s1,942(s6)
   18306:	0622                	slli	a2,a2,0x8
   18308:	05c2                	slli	a1,a1,0x10
   1830a:	0562                	slli	a0,a0,0x18
   1830c:	0422                	slli	s0,s0,0x8
   1830e:	06c2                	slli	a3,a3,0x10
   18310:	04e2                	slli	s1,s1,0x18
   18312:	01c66633          	or	a2,a2,t3
   18316:	8d4d                	or	a0,a0,a1
   18318:	8fc1                	or	a5,a5,s0
   1831a:	3afb4583          	lbu	a1,943(s6)
   1831e:	3b0b4403          	lbu	s0,944(s6)
   18322:	8ec5                	or	a3,a3,s1
   18324:	3b1b4483          	lbu	s1,945(s6)
   18328:	3b2b4703          	lbu	a4,946(s6)
   1832c:	0422                	slli	s0,s0,0x8
   1832e:	8dc1                	or	a1,a1,s0
   18330:	04c2                	slli	s1,s1,0x10
   18332:	0762                	slli	a4,a4,0x18
   18334:	8f45                	or	a4,a4,s1
   18336:	0a711223          	sh	t2,164(sp)
   1833a:	0b010323          	sb	a6,166(sp)
   1833e:	01136a33          	or	s4,t1,a7
   18342:	005ee4b3          	or	s1,t4,t0
   18346:	8d51                	or	a0,a0,a2
   18348:	8edd                	or	a3,a3,a5
   1834a:	8dd9                	or	a1,a1,a4
   1834c:	c926                	sw	s1,144(sp)
   1834e:	cb2a                	sw	a0,148(sp)
   18350:	cd36                	sw	a3,152(sp)
   18352:	cf2e                	sw	a1,156(sp)
   18354:	6505                	lui	a0,0x1
   18356:	32050513          	addi	a0,a0,800 # 1320 <.Lline_table_start1+0x10f5>
   1835a:	950a                	add	a0,a0,sp
   1835c:	00004097          	auipc	ra,0x4
   18360:	734080e7          	jalr	1844(ra) # 1ca90 <_ZN9allow_pin12full_dynamic17unshare_if_shared17h4e6b4433fd7c2282E>
   18364:	6505                	lui	a0,0x1
   18366:	37c50513          	addi	a0,a0,892 # 137c <.Lline_table_start1+0x1151>
   1836a:	950a                	add	a0,a0,sp
   1836c:	00004097          	auipc	ra,0x4
   18370:	724080e7          	jalr	1828(ra) # 1ca90 <_ZN9allow_pin12full_dynamic17unshare_if_shared17h4e6b4433fd7c2282E>
   18374:	000b8463          	beqz	s7,1837c <_start+0x50a>
   18378:	6680406f          	j	1c9e0 <_start+0x4b6e>
   1837c:	0a411503          	lh	a0,164(sp)
   18380:	0a614583          	lbu	a1,166(sp)
   18384:	464a                	lw	a2,144(sp)
   18386:	46da                	lw	a3,148(sp)
   18388:	476a                	lw	a4,152(sp)
   1838a:	47fa                	lw	a5,156(sp)
   1838c:	04a11e23          	sh	a0,92(sp)
   18390:	04b10f23          	sb	a1,94(sp)
   18394:	0a014503          	lbu	a0,160(sp)
   18398:	c232                	sw	a2,4(sp)
   1839a:	c436                	sw	a3,8(sp)
   1839c:	c63a                	sw	a4,12(sp)
   1839e:	c83e                	sw	a5,16(sp)
   183a0:	08e4                	addi	s1,sp,92
   183a2:	00a10a23          	sb	a0,20(sp)
   183a6:	06310513          	addi	a0,sp,99
   183aa:	004c                	addi	a1,sp,4
   183ac:	4645                	li	a2,17
   183ae:	00004097          	auipc	ra,0x4
   183b2:	76e080e7          	jalr	1902(ra) # 1cb1c <memcpy>
   183b6:	4409                	li	s0,2
   183b8:	018a5513          	srli	a0,s4,0x18
   183bc:	010a5593          	srli	a1,s4,0x10
   183c0:	06a10123          	sb	a0,98(sp)
   183c4:	008a5513          	srli	a0,s4,0x8
   183c8:	04810c23          	sb	s0,88(sp)
   183cc:	05410fa3          	sb	s4,95(sp)
   183d0:	06a10023          	sb	a0,96(sp)
   183d4:	06b100a3          	sb	a1,97(sp)
   183d8:	03600613          	li	a2,54
   183dc:	854e                	mv	a0,s3
   183de:	4581                	li	a1,0
   183e0:	00004097          	auipc	ra,0x4
   183e4:	6d0080e7          	jalr	1744(ra) # 1cab0 <memset>
   183e8:	4581                	li	a1,0
   183ea:	8626                	mv	a2,s1
   183ec:	3e8b0a23          	sb	s0,1012(s6)
   183f0:	21f00493          	li	s1,543
   183f4:	4791                	li	a5,4
   183f6:	21f00513          	li	a0,543
   183fa:	46e1                	li	a3,24
   183fc:	4711                	li	a4,4
   183fe:	00000073          	ecall
   18402:	08851e63          	bne	a0,s0,1849e <_start+0x62c>
   18406:	8a2e                	mv	s4,a1
   18408:	4589                	li	a1,2
   1840a:	0ab50163          	beq	a0,a1,184ac <_start+0x63a>
   1840e:	3f4b4503          	lbu	a0,1012(s6)
   18412:	4405                	li	s0,1
   18414:	24b51463          	bne	a0,a1,1865c <_start+0x7ea>
   18418:	864e                	mv	a2,s3
   1841a:	21f00813          	li	a6,543
   1841e:	449d                	li	s1,7
   18420:	21f00513          	li	a0,543
   18424:	459d                	li	a1,7
   18426:	03600693          	li	a3,54
   1842a:	470d                	li	a4,3
   1842c:	4789                	li	a5,2
   1842e:	00000073          	ecall
   18432:	8a2e                	mv	s4,a1
   18434:	458d                	li	a1,3
   18436:	26f51463          	bne	a0,a5,1869e <_start+0x82c>
   1843a:	4505                	li	a0,1
   1843c:	26050a63          	beqz	a0,186b0 <_start+0x83e>
   18440:	a0bd                	j	184ae <_start+0x63c>
   18442:	0888                	addi	a0,sp,80
   18444:	00004097          	auipc	ra,0x4
   18448:	64c080e7          	jalr	1612(ra) # 1ca90 <_ZN9allow_pin12full_dynamic17unshare_if_shared17h4e6b4433fd7c2282E>
   1844c:	6505                	lui	a0,0x1
   1844e:	37c50513          	addi	a0,a0,892 # 137c <.Lline_table_start1+0x1151>
   18452:	950a                	add	a0,a0,sp
   18454:	00004097          	auipc	ra,0x4
   18458:	63c080e7          	jalr	1596(ra) # 1ca90 <_ZN9allow_pin12full_dynamic17unshare_if_shared17h4e6b4433fd7c2282E>
   1845c:	4481                	li	s1,0
   1845e:	bcdd                	j	17f54 <_start+0xe2>
   18460:	4501                	li	a0,0
   18462:	0bea8613          	addi	a2,s5,190
   18466:	38cb2823          	sw	a2,912(s6)
   1846a:	380b2a23          	sw	zero,916(s6)
   1846e:	38bb0c23          	sb	a1,920(s6)
   18472:	c60512e3          	bnez	a0,180d6 <_start+0x264>
   18476:	6509                	lui	a0,0x2
   18478:	459d                	li	a1,7
   1847a:	0c450513          	addi	a0,a0,196 # 20c4 <.Lline_table_start1+0x1e99>
   1847e:	4709                	li	a4,2
   18480:	07f00793          	li	a5,127
   18484:	4601                	li	a2,0
   18486:	4681                	li	a3,0
   18488:	00000073          	ecall
   1848c:	16a7ec63          	bltu	a5,a0,18604 <_start+0x792>
   18490:	8a2e                	mv	s4,a1
   18492:	b191                	j	180d6 <_start+0x264>
   18494:	4a0d                	li	s4,3
   18496:	4505                	li	a0,1
   18498:	1a050363          	beqz	a0,1863e <_start+0x7cc>
   1849c:	b3c5                	j	1827c <_start+0x40a>
   1849e:	c8a6                	sw	s1,80(sp)
   184a0:	ca82                	sw	zero,84(sp)
   184a2:	04f10c23          	sb	a5,88(sp)
   184a6:	4589                	li	a1,2
   184a8:	f6b513e3          	bne	a0,a1,1840e <_start+0x59c>
   184ac:	4405                	li	s0,1
   184ae:	6505                	lui	a0,0x1
   184b0:	37c50513          	addi	a0,a0,892 # 137c <.Lline_table_start1+0x1151>
   184b4:	950a                	add	a0,a0,sp
   184b6:	00004097          	auipc	ra,0x4
   184ba:	5da080e7          	jalr	1498(ra) # 1ca90 <_ZN9allow_pin12full_dynamic17unshare_if_shared17h4e6b4433fd7c2282E>
   184be:	e025                	bnez	s0,1851e <_start+0x6ac>
   184c0:	0019c503          	lbu	a0,1(s3)
   184c4:	0009c583          	lbu	a1,0(s3)
   184c8:	0029c603          	lbu	a2,2(s3)
   184cc:	0522                	slli	a0,a0,0x8
   184ce:	3fbb4683          	lbu	a3,1019(s6)
   184d2:	3fcb4703          	lbu	a4,1020(s6)
   184d6:	8d4d                	or	a0,a0,a1
   184d8:	3fdb4583          	lbu	a1,1021(s6)
   184dc:	3feb4783          	lbu	a5,1022(s6)
   184e0:	0722                	slli	a4,a4,0x8
   184e2:	8ed9                	or	a3,a3,a4
   184e4:	05c2                	slli	a1,a1,0x10
   184e6:	07e2                	slli	a5,a5,0x18
   184e8:	8ddd                	or	a1,a1,a5
   184ea:	08a11823          	sh	a0,144(sp)
   184ee:	08c10923          	sb	a2,146(sp)
   184f2:	00d5ea33          	or	s4,a1,a3
   184f6:	6505                	lui	a0,0x1
   184f8:	38f50513          	addi	a0,a0,911 # 138f <.Lline_table_start1+0x1164>
   184fc:	00a105b3          	add	a1,sp,a0
   18500:	0048                	addi	a0,sp,4
   18502:	02f00613          	li	a2,47
   18506:	00004097          	auipc	ra,0x4
   1850a:	616080e7          	jalr	1558(ra) # 1cb1c <memcpy>
   1850e:	6505                	lui	a0,0x1
   18510:	37c50513          	addi	a0,a0,892 # 137c <.Lline_table_start1+0x1151>
   18514:	950a                	add	a0,a0,sp
   18516:	00004097          	auipc	ra,0x4
   1851a:	57a080e7          	jalr	1402(ra) # 1ca90 <_ZN9allow_pin12full_dynamic17unshare_if_shared17h4e6b4433fd7c2282E>
   1851e:	0888                	addi	a0,sp,80
   18520:	00004097          	auipc	ra,0x4
   18524:	570080e7          	jalr	1392(ra) # 1ca90 <_ZN9allow_pin12full_dynamic17unshare_if_shared17h4e6b4433fd7c2282E>
   18528:	c019                	beqz	s0,1852e <_start+0x6bc>
   1852a:	4b60406f          	j	1c9e0 <_start+0x4b6e>
   1852e:	09011503          	lh	a0,144(sp)
   18532:	09214583          	lbu	a1,146(sp)
   18536:	6605                	lui	a2,0x1
   18538:	38860613          	addi	a2,a2,904 # 1388 <.Lline_table_start1+0x115d>
   1853c:	00c104b3          	add	s1,sp,a2
   18540:	3eab1c23          	sh	a0,1016(s6)
   18544:	3ebb0d23          	sb	a1,1018(s6)
   18548:	6505                	lui	a0,0x1
   1854a:	32050513          	addi	a0,a0,800 # 1320 <.Lline_table_start1+0x10f5>
   1854e:	950a                	add	a0,a0,sp
   18550:	004c                	addi	a1,sp,4
   18552:	02f00613          	li	a2,47
   18556:	00004097          	auipc	ra,0x4
   1855a:	5c6080e7          	jalr	1478(ra) # 1cb1c <memcpy>
   1855e:	6505                	lui	a0,0x1
   18560:	38f50513          	addi	a0,a0,911 # 138f <.Lline_table_start1+0x1164>
   18564:	950a                	add	a0,a0,sp
   18566:	6585                	lui	a1,0x1
   18568:	32058593          	addi	a1,a1,800 # 1320 <.Lline_table_start1+0x10f5>
   1856c:	958a                	add	a1,a1,sp
   1856e:	02f00613          	li	a2,47
   18572:	00004097          	auipc	ra,0x4
   18576:	5aa080e7          	jalr	1450(ra) # 1cb1c <memcpy>
   1857a:	4409                	li	s0,2
   1857c:	018a5513          	srli	a0,s4,0x18
   18580:	010a5593          	srli	a1,s4,0x10
   18584:	3eab0f23          	sb	a0,1022(s6)
   18588:	008a5513          	srli	a0,s4,0x8
   1858c:	3e8b0a23          	sb	s0,1012(s6)
   18590:	3f4b0da3          	sb	s4,1019(s6)
   18594:	3eab0e23          	sb	a0,1020(s6)
   18598:	3ebb0ea3          	sb	a1,1021(s6)
   1859c:	02500613          	li	a2,37
   185a0:	854a                	mv	a0,s2
   185a2:	4581                	li	a1,0
   185a4:	00004097          	auipc	ra,0x4
   185a8:	50c080e7          	jalr	1292(ra) # 1cab0 <memset>
   185ac:	8626                	mv	a2,s1
   185ae:	388b0c23          	sb	s0,920(s6)
   185b2:	6505                	lui	a0,0x1
   185b4:	449d                	li	s1,7
   185b6:	4811                	li	a6,4
   185b8:	459d                	li	a1,7
   185ba:	59750793          	addi	a5,a0,1431 # 1597 <.Lline_table_start1+0x136c>
   185be:	03600693          	li	a3,54
   185c2:	4711                	li	a4,4
   185c4:	853e                	mv	a0,a5
   185c6:	00000073          	ecall
   185ca:	08851d63          	bne	a0,s0,18664 <_start+0x7f2>
   185ce:	8a2e                	mv	s4,a1
   185d0:	4589                	li	a1,2
   185d2:	0ab50263          	beq	a0,a1,18676 <_start+0x804>
   185d6:	398b4503          	lbu	a0,920(s6)
   185da:	4985                	li	s3,1
   185dc:	0eb51863          	bne	a0,a1,186cc <_start+0x85a>
   185e0:	4581                	li	a1,0
   185e2:	864a                	mv	a2,s2
   185e4:	6505                	lui	a0,0x1
   185e6:	02500693          	li	a3,37
   185ea:	470d                	li	a4,3
   185ec:	59750793          	addi	a5,a0,1431 # 1597 <.Lline_table_start1+0x136c>
   185f0:	4489                	li	s1,2
   185f2:	853e                	mv	a0,a5
   185f4:	00000073          	ecall
   185f8:	8a2e                	mv	s4,a1
   185fa:	458d                	li	a1,3
   185fc:	0e951a63          	bne	a0,s1,186f0 <_start+0x87e>
   18600:	4505                	li	a0,1
   18602:	a8f5                	j	186fe <_start+0x88c>
   18604:	6505                	lui	a0,0x1
   18606:	37c50513          	addi	a0,a0,892 # 137c <.Lline_table_start1+0x1151>
   1860a:	950a                	add	a0,a0,sp
   1860c:	00004097          	auipc	ra,0x4
   18610:	484080e7          	jalr	1156(ra) # 1ca90 <_ZN9allow_pin12full_dynamic17unshare_if_shared17h4e6b4433fd7c2282E>
   18614:	6505                	lui	a0,0x1
   18616:	32050513          	addi	a0,a0,800 # 1320 <.Lline_table_start1+0x10f5>
   1861a:	950a                	add	a0,a0,sp
   1861c:	00004097          	auipc	ra,0x4
   18620:	474080e7          	jalr	1140(ra) # 1ca90 <_ZN9allow_pin12full_dynamic17unshare_if_shared17h4e6b4433fd7c2282E>
   18624:	4401                	li	s0,0
   18626:	bc45                	j	180d6 <_start+0x264>
   18628:	4501                	li	a0,0
   1862a:	3c9a8593          	addi	a1,s5,969
   1862e:	38bb2823          	sw	a1,912(s6)
   18632:	38fb2a23          	sw	a5,916(s6)
   18636:	389b0c23          	sb	s1,920(s6)
   1863a:	c40511e3          	bnez	a0,1827c <_start+0x40a>
   1863e:	6509                	lui	a0,0x2
   18640:	458d                	li	a1,3
   18642:	4609                	li	a2,2
   18644:	3cf50513          	addi	a0,a0,975 # 23cf <.Lline_table_start1+0x21a4>
   18648:	4709                	li	a4,2
   1864a:	07f00793          	li	a5,127
   1864e:	4681                	li	a3,0
   18650:	00000073          	ecall
   18654:	02a7e363          	bltu	a5,a0,1867a <_start+0x808>
   18658:	8a2e                	mv	s4,a1
   1865a:	b10d                	j	1827c <_start+0x40a>
   1865c:	4a0d                	li	s4,3
   1865e:	4505                	li	a0,1
   18660:	c921                	beqz	a0,186b0 <_start+0x83e>
   18662:	b5b1                	j	184ae <_start+0x63c>
   18664:	3efb2623          	sw	a5,1004(s6)
   18668:	3e9b2823          	sw	s1,1008(s6)
   1866c:	3f0b0a23          	sb	a6,1012(s6)
   18670:	4589                	li	a1,2
   18672:	f6b512e3          	bne	a0,a1,185d6 <_start+0x764>
   18676:	4985                	li	s3,1
   18678:	a0e1                	j	18740 <_start+0x8ce>
   1867a:	6505                	lui	a0,0x1
   1867c:	37c50513          	addi	a0,a0,892 # 137c <.Lline_table_start1+0x1151>
   18680:	950a                	add	a0,a0,sp
   18682:	00004097          	auipc	ra,0x4
   18686:	40e080e7          	jalr	1038(ra) # 1ca90 <_ZN9allow_pin12full_dynamic17unshare_if_shared17h4e6b4433fd7c2282E>
   1868a:	6505                	lui	a0,0x1
   1868c:	32050513          	addi	a0,a0,800 # 1320 <.Lline_table_start1+0x10f5>
   18690:	950a                	add	a0,a0,sp
   18692:	00004097          	auipc	ra,0x4
   18696:	3fe080e7          	jalr	1022(ra) # 1ca90 <_ZN9allow_pin12full_dynamic17unshare_if_shared17h4e6b4433fd7c2282E>
   1869a:	4b81                	li	s7,0
   1869c:	b6c5                	j	1827c <_start+0x40a>
   1869e:	4501                	li	a0,0
   186a0:	3f0b2623          	sw	a6,1004(s6)
   186a4:	3e9b2823          	sw	s1,1008(s6)
   186a8:	3ebb0a23          	sb	a1,1012(s6)
   186ac:	e00511e3          	bnez	a0,184ae <_start+0x63c>
   186b0:	21f00513          	li	a0,543
   186b4:	461d                	li	a2,7
   186b6:	4709                	li	a4,2
   186b8:	07f00793          	li	a5,127
   186bc:	4581                	li	a1,0
   186be:	4681                	li	a3,0
   186c0:	00000073          	ecall
   186c4:	00a7e763          	bltu	a5,a0,186d2 <_start+0x860>
   186c8:	8a2e                	mv	s4,a1
   186ca:	b3d5                	j	184ae <_start+0x63c>
   186cc:	4a0d                	li	s4,3
   186ce:	4505                	li	a0,1
   186d0:	a03d                	j	186fe <_start+0x88c>
   186d2:	0888                	addi	a0,sp,80
   186d4:	00004097          	auipc	ra,0x4
   186d8:	3bc080e7          	jalr	956(ra) # 1ca90 <_ZN9allow_pin12full_dynamic17unshare_if_shared17h4e6b4433fd7c2282E>
   186dc:	6505                	lui	a0,0x1
   186de:	37c50513          	addi	a0,a0,892 # 137c <.Lline_table_start1+0x1151>
   186e2:	950a                	add	a0,a0,sp
   186e4:	00004097          	auipc	ra,0x4
   186e8:	3ac080e7          	jalr	940(ra) # 1ca90 <_ZN9allow_pin12full_dynamic17unshare_if_shared17h4e6b4433fd7c2282E>
   186ec:	4401                	li	s0,0
   186ee:	b3c1                	j	184ae <_start+0x63c>
   186f0:	4501                	li	a0,0
   186f2:	38fb2823          	sw	a5,912(s6)
   186f6:	380b2a23          	sw	zero,916(s6)
   186fa:	38bb0c23          	sb	a1,920(s6)
   186fe:	e129                	bnez	a0,18740 <_start+0x8ce>
   18700:	6505                	lui	a0,0x1
   18702:	459d                	li	a1,7
   18704:	59750513          	addi	a0,a0,1431 # 1597 <.Lline_table_start1+0x136c>
   18708:	4709                	li	a4,2
   1870a:	07f00793          	li	a5,127
   1870e:	4601                	li	a2,0
   18710:	4681                	li	a3,0
   18712:	00000073          	ecall
   18716:	00a7e463          	bltu	a5,a0,1871e <_start+0x8ac>
   1871a:	8a2e                	mv	s4,a1
   1871c:	a015                	j	18740 <_start+0x8ce>
   1871e:	6505                	lui	a0,0x1
   18720:	37c50513          	addi	a0,a0,892 # 137c <.Lline_table_start1+0x1151>
   18724:	950a                	add	a0,a0,sp
   18726:	00004097          	auipc	ra,0x4
   1872a:	36a080e7          	jalr	874(ra) # 1ca90 <_ZN9allow_pin12full_dynamic17unshare_if_shared17h4e6b4433fd7c2282E>
   1872e:	6505                	lui	a0,0x1
   18730:	32050513          	addi	a0,a0,800 # 1320 <.Lline_table_start1+0x10f5>
   18734:	950a                	add	a0,a0,sp
   18736:	00004097          	auipc	ra,0x4
   1873a:	35a080e7          	jalr	858(ra) # 1ca90 <_ZN9allow_pin12full_dynamic17unshare_if_shared17h4e6b4433fd7c2282E>
   1873e:	4981                	li	s3,0
   18740:	6505                	lui	a0,0x1
   18742:	32050513          	addi	a0,a0,800 # 1320 <.Lline_table_start1+0x10f5>
   18746:	950a                	add	a0,a0,sp
   18748:	00004097          	auipc	ra,0x4
   1874c:	348080e7          	jalr	840(ra) # 1ca90 <_ZN9allow_pin12full_dynamic17unshare_if_shared17h4e6b4433fd7c2282E>
   18750:	14099c63          	bnez	s3,188a8 <_start+0xa36>
   18754:	00094883          	lbu	a7,0(s2)
   18758:	00194303          	lbu	t1,1(s2)
   1875c:	00294803          	lbu	a6,2(s2)
   18760:	39fb4383          	lbu	t2,927(s6)
   18764:	3a0b4c03          	lbu	s8,928(s6)
   18768:	3a1b4783          	lbu	a5,929(s6)
   1876c:	3a2b4483          	lbu	s1,930(s6)
   18770:	3bfb4403          	lbu	s0,959(s6)
   18774:	3c0b4503          	lbu	a0,960(s6)
   18778:	3a3b4283          	lbu	t0,931(s6)
   1877c:	3a4b4e03          	lbu	t3,932(s6)
   18780:	3a5b4e83          	lbu	t4,933(s6)
   18784:	3a6b4f03          	lbu	t5,934(s6)
   18788:	3a7b4f83          	lbu	t6,935(s6)
   1878c:	3a8b4603          	lbu	a2,936(s6)
   18790:	3a9b4703          	lbu	a4,937(s6)
   18794:	3aab4583          	lbu	a1,938(s6)
   18798:	3abb4a03          	lbu	s4,939(s6)
   1879c:	3acb4a83          	lbu	s5,940(s6)
   187a0:	3adb4b83          	lbu	s7,941(s6)
   187a4:	3aeb4c83          	lbu	s9,942(s6)
   187a8:	0322                	slli	t1,t1,0x8
   187aa:	008c1693          	slli	a3,s8,0x8
   187ae:	07c2                	slli	a5,a5,0x10
   187b0:	04e2                	slli	s1,s1,0x18
   187b2:	0522                	slli	a0,a0,0x8
   187b4:	01136c33          	or	s8,t1,a7
   187b8:	0076e333          	or	t1,a3,t2
   187bc:	00f4e3b3          	or	t2,s1,a5
   187c0:	008568b3          	or	a7,a0,s0
   187c4:	3afb4683          	lbu	a3,943(s6)
   187c8:	3b0b4403          	lbu	s0,944(s6)
   187cc:	3b1b4783          	lbu	a5,945(s6)
   187d0:	3b2b4503          	lbu	a0,946(s6)
   187d4:	0e22                	slli	t3,t3,0x8
   187d6:	0ec2                	slli	t4,t4,0x10
   187d8:	0f62                	slli	t5,t5,0x18
   187da:	0622                	slli	a2,a2,0x8
   187dc:	0742                	slli	a4,a4,0x10
   187de:	05e2                	slli	a1,a1,0x18
   187e0:	005e62b3          	or	t0,t3,t0
   187e4:	01df6eb3          	or	t4,t5,t4
   187e8:	01f66e33          	or	t3,a2,t6
   187ec:	00e5ef33          	or	t5,a1,a4
   187f0:	3b3b4703          	lbu	a4,947(s6)
   187f4:	3b4b4603          	lbu	a2,948(s6)
   187f8:	3b5b4483          	lbu	s1,949(s6)
   187fc:	3b6b4583          	lbu	a1,950(s6)
   18800:	0aa2                	slli	s5,s5,0x8
   18802:	0bc2                	slli	s7,s7,0x10
   18804:	0ce2                	slli	s9,s9,0x18
   18806:	0422                	slli	s0,s0,0x8
   18808:	07c2                	slli	a5,a5,0x10
   1880a:	0562                	slli	a0,a0,0x18
   1880c:	014aefb3          	or	t6,s5,s4
   18810:	017ceab3          	or	s5,s9,s7
   18814:	00d46bb3          	or	s7,s0,a3
   18818:	00f56cb3          	or	s9,a0,a5
   1881c:	3b7b4783          	lbu	a5,951(s6)
   18820:	3b8b4403          	lbu	s0,952(s6)
   18824:	3b9b4683          	lbu	a3,953(s6)
   18828:	3bab4503          	lbu	a0,954(s6)
   1882c:	0622                	slli	a2,a2,0x8
   1882e:	04c2                	slli	s1,s1,0x10
   18830:	05e2                	slli	a1,a1,0x18
   18832:	0422                	slli	s0,s0,0x8
   18834:	06c2                	slli	a3,a3,0x10
   18836:	0562                	slli	a0,a0,0x18
   18838:	00e66d33          	or	s10,a2,a4
   1883c:	0095edb3          	or	s11,a1,s1
   18840:	00f460b3          	or	ra,s0,a5
   18844:	3bbb4703          	lbu	a4,955(s6)
   18848:	3bcb4403          	lbu	s0,956(s6)
   1884c:	8d55                	or	a0,a0,a3
   1884e:	3bdb4683          	lbu	a3,957(s6)
   18852:	3beb4483          	lbu	s1,958(s6)
   18856:	0422                	slli	s0,s0,0x8
   18858:	8f41                	or	a4,a4,s0
   1885a:	06c2                	slli	a3,a3,0x10
   1885c:	04e2                	slli	s1,s1,0x18
   1885e:	8ec5                	or	a3,a3,s1
   18860:	09811823          	sh	s8,144(sp)
   18864:	09010923          	sb	a6,146(sp)
   18868:	0063ea33          	or	s4,t2,t1
   1886c:	005ee4b3          	or	s1,t4,t0
   18870:	01cf6433          	or	s0,t5,t3
   18874:	01fae633          	or	a2,s5,t6
   18878:	017ce5b3          	or	a1,s9,s7
   1887c:	01ade7b3          	or	a5,s11,s10
   18880:	00156533          	or	a0,a0,ra
   18884:	8ed9                	or	a3,a3,a4
   18886:	d0be                	sw	a5,96(sp)
   18888:	d2aa                	sw	a0,100(sp)
   1888a:	d4b6                	sw	a3,104(sp)
   1888c:	07111623          	sh	a7,108(sp)
   18890:	c8a6                	sw	s1,80(sp)
   18892:	caa2                	sw	s0,84(sp)
   18894:	ccb2                	sw	a2,88(sp)
   18896:	ceae                	sw	a1,92(sp)
   18898:	6505                	lui	a0,0x1
   1889a:	32050513          	addi	a0,a0,800 # 1320 <.Lline_table_start1+0x10f5>
   1889e:	950a                	add	a0,a0,sp
   188a0:	00004097          	auipc	ra,0x4
   188a4:	1f0080e7          	jalr	496(ra) # 1ca90 <_ZN9allow_pin12full_dynamic17unshare_if_shared17h4e6b4433fd7c2282E>
   188a8:	6505                	lui	a0,0x1
   188aa:	37c50513          	addi	a0,a0,892 # 137c <.Lline_table_start1+0x1151>
   188ae:	950a                	add	a0,a0,sp
   188b0:	00004097          	auipc	ra,0x4
   188b4:	1e0080e7          	jalr	480(ra) # 1ca90 <_ZN9allow_pin12full_dynamic17unshare_if_shared17h4e6b4433fd7c2282E>
   188b8:	00098463          	beqz	s3,188c0 <_start+0xa4e>
   188bc:	1240406f          	j	1c9e0 <_start+0x4b6e>
   188c0:	09011503          	lh	a0,144(sp)
   188c4:	09214583          	lbu	a1,146(sp)
   188c8:	6605                	lui	a2,0x1
   188ca:	38860613          	addi	a2,a2,904 # 1388 <.Lline_table_start1+0x115d>
   188ce:	00c10433          	add	s0,sp,a2
   188d2:	3eab1c23          	sh	a0,1016(s6)
   188d6:	3ebb0d23          	sb	a1,1018(s6)
   188da:	4546                	lw	a0,80(sp)
   188dc:	45d6                	lw	a1,84(sp)
   188de:	4666                	lw	a2,88(sp)
   188e0:	46f6                	lw	a3,92(sp)
   188e2:	c22a                	sw	a0,4(sp)
   188e4:	c42e                	sw	a1,8(sp)
   188e6:	c632                	sw	a2,12(sp)
   188e8:	c836                	sw	a3,16(sp)
   188ea:	5506                	lw	a0,96(sp)
   188ec:	5596                	lw	a1,100(sp)
   188ee:	5626                	lw	a2,104(sp)
   188f0:	06c11683          	lh	a3,108(sp)
   188f4:	ca2a                	sw	a0,20(sp)
   188f6:	cc2e                	sw	a1,24(sp)
   188f8:	ce32                	sw	a2,28(sp)
   188fa:	02d11023          	sh	a3,32(sp)
   188fe:	6505                	lui	a0,0x1
   18900:	38f50513          	addi	a0,a0,911 # 138f <.Lline_table_start1+0x1164>
   18904:	950a                	add	a0,a0,sp
   18906:	004c                	addi	a1,sp,4
   18908:	4679                	li	a2,30
   1890a:	00004097          	auipc	ra,0x4
   1890e:	212080e7          	jalr	530(ra) # 1cb1c <memcpy>
   18912:	8622                	mv	a2,s0
   18914:	4789                	li	a5,2
   18916:	018a5693          	srli	a3,s4,0x18
   1891a:	010a5713          	srli	a4,s4,0x10
   1891e:	008a5493          	srli	s1,s4,0x8
   18922:	3a0b1423          	sh	zero,936(s6)
   18926:	66700413          	li	s0,1639
   1892a:	4811                	li	a6,4
   1892c:	66700513          	li	a0,1639
   18930:	4589                	li	a1,2
   18932:	3edb0f23          	sb	a3,1022(s6)
   18936:	02500693          	li	a3,37
   1893a:	3efb0a23          	sb	a5,1012(s6)
   1893e:	3f4b0da3          	sb	s4,1019(s6)
   18942:	3e9b0e23          	sb	s1,1020(s6)
   18946:	3eeb0ea3          	sb	a4,1021(s6)
   1894a:	38fb0c23          	sb	a5,920(s6)
   1894e:	380b2e23          	sw	zero,924(s6)
   18952:	3a0b2023          	sw	zero,928(s6)
   18956:	3a0b2223          	sw	zero,932(s6)
   1895a:	4711                	li	a4,4
   1895c:	00000073          	ecall
   18960:	00f51463          	bne	a0,a5,18968 <_start+0xaf6>
   18964:	8a2e                	mv	s4,a1
   18966:	a039                	j	18974 <_start+0xb02>
   18968:	3e8b2623          	sw	s0,1004(s6)
   1896c:	3efb2823          	sw	a5,1008(s6)
   18970:	3f0b0a23          	sb	a6,1012(s6)
   18974:	4589                	li	a1,2
   18976:	00b51463          	bne	a0,a1,1897e <_start+0xb0c>
   1897a:	4985                	li	s3,1
   1897c:	a051                	j	18a00 <_start+0xb8e>
   1897e:	398b4503          	lbu	a0,920(s6)
   18982:	4985                	li	s3,1
   18984:	02b51463          	bne	a0,a1,189ac <_start+0xb3a>
   18988:	864a                	mv	a2,s2
   1898a:	66700813          	li	a6,1639
   1898e:	44a1                	li	s1,8
   18990:	66700513          	li	a0,1639
   18994:	45a1                	li	a1,8
   18996:	46b9                	li	a3,14
   18998:	470d                	li	a4,3
   1899a:	4789                	li	a5,2
   1899c:	00000073          	ecall
   189a0:	8a2e                	mv	s4,a1
   189a2:	458d                	li	a1,3
   189a4:	00f51763          	bne	a0,a5,189b2 <_start+0xb40>
   189a8:	4505                	li	a0,1
   189aa:	a819                	j	189c0 <_start+0xb4e>
   189ac:	4a0d                	li	s4,3
   189ae:	4505                	li	a0,1
   189b0:	a801                	j	189c0 <_start+0xb4e>
   189b2:	4501                	li	a0,0
   189b4:	390b2823          	sw	a6,912(s6)
   189b8:	389b2a23          	sw	s1,916(s6)
   189bc:	38bb0c23          	sb	a1,920(s6)
   189c0:	e121                	bnez	a0,18a00 <_start+0xb8e>
   189c2:	66700513          	li	a0,1639
   189c6:	4589                	li	a1,2
   189c8:	4621                	li	a2,8
   189ca:	4709                	li	a4,2
   189cc:	07f00793          	li	a5,127
   189d0:	4681                	li	a3,0
   189d2:	00000073          	ecall
   189d6:	00a7e463          	bltu	a5,a0,189de <_start+0xb6c>
   189da:	8a2e                	mv	s4,a1
   189dc:	a015                	j	18a00 <_start+0xb8e>
   189de:	6505                	lui	a0,0x1
   189e0:	37c50513          	addi	a0,a0,892 # 137c <.Lline_table_start1+0x1151>
   189e4:	950a                	add	a0,a0,sp
   189e6:	00004097          	auipc	ra,0x4
   189ea:	0aa080e7          	jalr	170(ra) # 1ca90 <_ZN9allow_pin12full_dynamic17unshare_if_shared17h4e6b4433fd7c2282E>
   189ee:	6505                	lui	a0,0x1
   189f0:	32050513          	addi	a0,a0,800 # 1320 <.Lline_table_start1+0x10f5>
   189f4:	950a                	add	a0,a0,sp
   189f6:	00004097          	auipc	ra,0x4
   189fa:	09a080e7          	jalr	154(ra) # 1ca90 <_ZN9allow_pin12full_dynamic17unshare_if_shared17h4e6b4433fd7c2282E>
   189fe:	4981                	li	s3,0
   18a00:	6505                	lui	a0,0x1
   18a02:	32050513          	addi	a0,a0,800 # 1320 <.Lline_table_start1+0x10f5>
   18a06:	950a                	add	a0,a0,sp
   18a08:	00004097          	auipc	ra,0x4
   18a0c:	088080e7          	jalr	136(ra) # 1ca90 <_ZN9allow_pin12full_dynamic17unshare_if_shared17h4e6b4433fd7c2282E>
   18a10:	08099063          	bnez	s3,18a90 <_start+0xc1e>
   18a14:	00094503          	lbu	a0,0(s2)
   18a18:	00194583          	lbu	a1,1(s2)
   18a1c:	00294803          	lbu	a6,2(s2)
   18a20:	39fb4683          	lbu	a3,927(s6)
   18a24:	3a0b4703          	lbu	a4,928(s6)
   18a28:	3a1b4783          	lbu	a5,929(s6)
   18a2c:	3a2b4483          	lbu	s1,930(s6)
   18a30:	3a7b4603          	lbu	a2,935(s6)
   18a34:	3a8b4403          	lbu	s0,936(s6)
   18a38:	3a9b4883          	lbu	a7,937(s6)
   18a3c:	05a2                	slli	a1,a1,0x8
   18a3e:	0722                	slli	a4,a4,0x8
   18a40:	07c2                	slli	a5,a5,0x10
   18a42:	04e2                	slli	s1,s1,0x18
   18a44:	0422                	slli	s0,s0,0x8
   18a46:	8d4d                	or	a0,a0,a1
   18a48:	8ed9                	or	a3,a3,a4
   18a4a:	8fc5                	or	a5,a5,s1
   18a4c:	3a3b4583          	lbu	a1,931(s6)
   18a50:	3a4b4703          	lbu	a4,932(s6)
   18a54:	8e41                	or	a2,a2,s0
   18a56:	3a5b4483          	lbu	s1,933(s6)
   18a5a:	3a6b4403          	lbu	s0,934(s6)
   18a5e:	0722                	slli	a4,a4,0x8
   18a60:	8dd9                	or	a1,a1,a4
   18a62:	04c2                	slli	s1,s1,0x10
   18a64:	0462                	slli	s0,s0,0x18
   18a66:	8c45                	or	s0,s0,s1
   18a68:	08a11823          	sh	a0,144(sp)
   18a6c:	09010923          	sb	a6,146(sp)
   18a70:	00d7ea33          	or	s4,a5,a3
   18a74:	8dc1                	or	a1,a1,s0
   18a76:	c8ae                	sw	a1,80(sp)
   18a78:	04c11a23          	sh	a2,84(sp)
   18a7c:	05110b23          	sb	a7,86(sp)
   18a80:	6505                	lui	a0,0x1
   18a82:	32050513          	addi	a0,a0,800 # 1320 <.Lline_table_start1+0x10f5>
   18a86:	950a                	add	a0,a0,sp
   18a88:	00004097          	auipc	ra,0x4
   18a8c:	008080e7          	jalr	8(ra) # 1ca90 <_ZN9allow_pin12full_dynamic17unshare_if_shared17h4e6b4433fd7c2282E>
   18a90:	6505                	lui	a0,0x1
   18a92:	37c50513          	addi	a0,a0,892 # 137c <.Lline_table_start1+0x1151>
   18a96:	950a                	add	a0,a0,sp
   18a98:	00004097          	auipc	ra,0x4
   18a9c:	ff8080e7          	jalr	-8(ra) # 1ca90 <_ZN9allow_pin12full_dynamic17unshare_if_shared17h4e6b4433fd7c2282E>
   18aa0:	00098463          	beqz	s3,18aa8 <_start+0xc36>
   18aa4:	73d0306f          	j	1c9e0 <_start+0x4b6e>
   18aa8:	09011503          	lh	a0,144(sp)
   18aac:	09214583          	lbu	a1,146(sp)
   18ab0:	4646                	lw	a2,80(sp)
   18ab2:	05411683          	lh	a3,84(sp)
   18ab6:	05614703          	lbu	a4,86(sp)
   18aba:	018a5793          	srli	a5,s4,0x18
   18abe:	010a5493          	srli	s1,s4,0x10
   18ac2:	c232                	sw	a2,4(sp)
   18ac4:	00d11423          	sh	a3,8(sp)
   18ac8:	008a5693          	srli	a3,s4,0x8
   18acc:	0aa11423          	sh	a0,168(sp)
   18ad0:	0ab10523          	sb	a1,170(sp)
   18ad4:	0b4105a3          	sb	s4,171(sp)
   18ad8:	0ad10623          	sb	a3,172(sp)
   18adc:	0ae10aa3          	sb	a4,181(sp)
   18ae0:	00514503          	lbu	a0,5(sp)
   18ae4:	00614583          	lbu	a1,6(sp)
   18ae8:	00714683          	lbu	a3,7(sp)
   18aec:	00814703          	lbu	a4,8(sp)
   18af0:	0a9106a3          	sb	s1,173(sp)
   18af4:	0af10723          	sb	a5,174(sp)
   18af8:	0ac107a3          	sb	a2,175(sp)
   18afc:	0aa10823          	sb	a0,176(sp)
   18b00:	00914503          	lbu	a0,9(sp)
   18b04:	0ab108a3          	sb	a1,177(sp)
   18b08:	0ad10923          	sb	a3,178(sp)
   18b0c:	0ae109a3          	sb	a4,179(sp)
   18b10:	0aa10a23          	sb	a0,180(sp)
   18b14:	6505                	lui	a0,0x1
   18b16:	37c50513          	addi	a0,a0,892 # 137c <.Lline_table_start1+0x1151>
   18b1a:	950a                	add	a0,a0,sp
   18b1c:	112c                	addi	a1,sp,168
   18b1e:	ffffa097          	auipc	ra,0xffffa
   18b22:	6a0080e7          	jalr	1696(ra) # 131be <_ZN20complex_full_dynamic3app17h5a36fc1c3fe971b4E>
   18b26:	3ecb4403          	lbu	s0,1004(s6)
   18b2a:	c401                	beqz	s0,18b32 <_start+0xcc0>
   18b2c:	3f0b2a03          	lw	s4,1008(s6)
   18b30:	a835                	j	18b6c <_start+0xcfa>
   18b32:	3eeb4503          	lbu	a0,1006(s6)
   18b36:	3edb4583          	lbu	a1,1005(s6)
   18b3a:	3efb4603          	lbu	a2,1007(s6)
   18b3e:	3f0b2a03          	lw	s4,1008(s6)
   18b42:	0522                	slli	a0,a0,0x8
   18b44:	8d4d                	or	a0,a0,a1
   18b46:	00a11223          	sh	a0,4(sp)
   18b4a:	00c10323          	sb	a2,6(sp)
   18b4e:	6505                	lui	a0,0x1
   18b50:	38450513          	addi	a0,a0,900 # 1384 <.Lline_table_start1+0x1159>
   18b54:	00a105b3          	add	a1,sp,a0
   18b58:	6505                	lui	a0,0x1
   18b5a:	32050513          	addi	a0,a0,800 # 1320 <.Lline_table_start1+0x10f5>
   18b5e:	950a                	add	a0,a0,sp
   18b60:	04100613          	li	a2,65
   18b64:	00004097          	auipc	ra,0x4
   18b68:	fb8080e7          	jalr	-72(ra) # 1cb1c <memcpy>
   18b6c:	c019                	beqz	s0,18b72 <_start+0xd00>
   18b6e:	6730306f          	j	1c9e0 <_start+0x4b6e>
   18b72:	00411503          	lh	a0,4(sp)
   18b76:	00614583          	lbu	a1,6(sp)
   18b7a:	018a5613          	srli	a2,s4,0x18
   18b7e:	010a5693          	srli	a3,s4,0x10
   18b82:	0ad10da3          	sb	a3,187(sp)
   18b86:	0ac10e23          	sb	a2,188(sp)
   18b8a:	008a5613          	srli	a2,s4,0x8
   18b8e:	0aa11b23          	sh	a0,182(sp)
   18b92:	0ab10c23          	sb	a1,184(sp)
   18b96:	0b410ca3          	sb	s4,185(sp)
   18b9a:	0ac10d23          	sb	a2,186(sp)
   18b9e:	0bd10513          	addi	a0,sp,189
   18ba2:	6585                	lui	a1,0x1
   18ba4:	32058593          	addi	a1,a1,800 # 1320 <.Lline_table_start1+0x10f5>
   18ba8:	958a                	add	a1,a1,sp
   18baa:	04100613          	li	a2,65
   18bae:	00004097          	auipc	ra,0x4
   18bb2:	f6e080e7          	jalr	-146(ra) # 1cb1c <memcpy>
   18bb6:	6505                	lui	a0,0x1
   18bb8:	37c50513          	addi	a0,a0,892 # 137c <.Lline_table_start1+0x1151>
   18bbc:	950a                	add	a0,a0,sp
   18bbe:	0b610593          	addi	a1,sp,182
   18bc2:	ffff9097          	auipc	ra,0xffff9
   18bc6:	48a080e7          	jalr	1162(ra) # 1204c <_ZN20complex_full_dynamic3app17h2c5c2a4c906a6648E>
   18bca:	3ecb4603          	lbu	a2,1004(s6)
   18bce:	c601                	beqz	a2,18bd6 <_start+0xd64>
   18bd0:	3f0b2a03          	lw	s4,1008(s6)
   18bd4:	a01d                	j	18bfa <_start+0xd88>
   18bd6:	3edb4683          	lbu	a3,1005(s6)
   18bda:	3eeb4703          	lbu	a4,1006(s6)
   18bde:	3efb4783          	lbu	a5,1007(s6)
   18be2:	3f0b2a03          	lw	s4,1008(s6)
   18be6:	3f4b2583          	lw	a1,1012(s6)
   18bea:	3f8b2503          	lw	a0,1016(s6)
   18bee:	0722                	slli	a4,a4,0x8
   18bf0:	8ed9                	or	a3,a3,a4
   18bf2:	38db1823          	sh	a3,912(s6)
   18bf6:	38fb0923          	sb	a5,914(s6)
   18bfa:	c219                	beqz	a2,18c00 <_start+0xd8e>
   18bfc:	5e50306f          	j	1c9e0 <_start+0x4b6e>
   18c00:	390b1803          	lh	a6,912(s6)
   18c04:	392b4683          	lbu	a3,914(s6)
   18c08:	018a5713          	srli	a4,s4,0x18
   18c0c:	010a5793          	srli	a5,s4,0x10
   18c10:	008a5493          	srli	s1,s4,0x8
   18c14:	0085d413          	srli	s0,a1,0x8
   18c18:	01855613          	srli	a2,a0,0x18
   18c1c:	10f101a3          	sb	a5,259(sp)
   18c20:	10e10223          	sb	a4,260(sp)
   18c24:	10b102a3          	sb	a1,261(sp)
   18c28:	10810323          	sb	s0,262(sp)
   18c2c:	01055713          	srli	a4,a0,0x10
   18c30:	10e105a3          	sb	a4,267(sp)
   18c34:	10c10623          	sb	a2,268(sp)
   18c38:	0185d613          	srli	a2,a1,0x18
   18c3c:	81c1                	srli	a1,a1,0x10
   18c3e:	0f011f23          	sh	a6,254(sp)
   18c42:	10d10023          	sb	a3,256(sp)
   18c46:	114100a3          	sb	s4,257(sp)
   18c4a:	10910123          	sb	s1,258(sp)
   18c4e:	00855693          	srli	a3,a0,0x8
   18c52:	10b103a3          	sb	a1,263(sp)
   18c56:	10c10423          	sb	a2,264(sp)
   18c5a:	10a104a3          	sb	a0,265(sp)
   18c5e:	10d10523          	sb	a3,266(sp)
   18c62:	6505                	lui	a0,0x1
   18c64:	37c50513          	addi	a0,a0,892 # 137c <.Lline_table_start1+0x1151>
   18c68:	950a                	add	a0,a0,sp
   18c6a:	0fe10593          	addi	a1,sp,254
   18c6e:	ffffb097          	auipc	ra,0xffffb
   18c72:	b0a080e7          	jalr	-1270(ra) # 13778 <_ZN20complex_full_dynamic3app17h70270ac81ad1dbd7E>
   18c76:	3ecb4503          	lbu	a0,1004(s6)
   18c7a:	c501                	beqz	a0,18c82 <_start+0xe10>
   18c7c:	3f0b2a03          	lw	s4,1008(s6)
   18c80:	a8b9                	j	18cde <_start+0xe6c>
   18c82:	3edb4583          	lbu	a1,1005(s6)
   18c86:	3eeb4603          	lbu	a2,1006(s6)
   18c8a:	3efb4683          	lbu	a3,1007(s6)
   18c8e:	3f0b2a03          	lw	s4,1008(s6)
   18c92:	3f4b2703          	lw	a4,1012(s6)
   18c96:	3f8b2783          	lw	a5,1016(s6)
   18c9a:	3fcb2483          	lw	s1,1020(s6)
   18c9e:	400b2403          	lw	s0,1024(s6)
   18ca2:	0622                	slli	a2,a2,0x8
   18ca4:	38eb2823          	sw	a4,912(s6)
   18ca8:	38fb2a23          	sw	a5,916(s6)
   18cac:	389b2c23          	sw	s1,920(s6)
   18cb0:	388b2e23          	sw	s0,924(s6)
   18cb4:	8dd1                	or	a1,a1,a2
   18cb6:	00b11223          	sh	a1,4(sp)
   18cba:	00d10323          	sb	a3,6(sp)
   18cbe:	404b2583          	lw	a1,1028(s6)
   18cc2:	408b2603          	lw	a2,1032(s6)
   18cc6:	40cb2683          	lw	a3,1036(s6)
   18cca:	410b1703          	lh	a4,1040(s6)
   18cce:	3abb2023          	sw	a1,928(s6)
   18cd2:	3acb2223          	sw	a2,932(s6)
   18cd6:	3adb2423          	sw	a3,936(s6)
   18cda:	3aeb1623          	sh	a4,940(s6)
   18cde:	c119                	beqz	a0,18ce4 <_start+0xe72>
   18ce0:	5010306f          	j	1c9e0 <_start+0x4b6e>
   18ce4:	00411503          	lh	a0,4(sp)
   18ce8:	00614583          	lbu	a1,6(sp)
   18cec:	018a5613          	srli	a2,s4,0x18
   18cf0:	010a5693          	srli	a3,s4,0x10
   18cf4:	10d109a3          	sb	a3,275(sp)
   18cf8:	10c10a23          	sb	a2,276(sp)
   18cfc:	008a5613          	srli	a2,s4,0x8
   18d00:	10a11723          	sh	a0,270(sp)
   18d04:	10b10823          	sb	a1,272(sp)
   18d08:	114108a3          	sb	s4,273(sp)
   18d0c:	10c10923          	sb	a2,274(sp)
   18d10:	11510513          	addi	a0,sp,277
   18d14:	6585                	lui	a1,0x1
   18d16:	32058593          	addi	a1,a1,800 # 1320 <.Lline_table_start1+0x10f5>
   18d1a:	958a                	add	a1,a1,sp
   18d1c:	4679                	li	a2,30
   18d1e:	00004097          	auipc	ra,0x4
   18d22:	dfe080e7          	jalr	-514(ra) # 1cb1c <memcpy>
   18d26:	6505                	lui	a0,0x1
   18d28:	37c50513          	addi	a0,a0,892 # 137c <.Lline_table_start1+0x1151>
   18d2c:	950a                	add	a0,a0,sp
   18d2e:	10e10593          	addi	a1,sp,270
   18d32:	ffff9097          	auipc	ra,0xffff9
   18d36:	c22080e7          	jalr	-990(ra) # 11954 <_ZN20complex_full_dynamic3app17h212324a46ddee4c9E>
   18d3a:	3ecb4403          	lbu	s0,1004(s6)
   18d3e:	c401                	beqz	s0,18d46 <_start+0xed4>
   18d40:	3f0b2a03          	lw	s4,1008(s6)
   18d44:	a835                	j	18d80 <_start+0xf0e>
   18d46:	3eeb4503          	lbu	a0,1006(s6)
   18d4a:	3edb4583          	lbu	a1,1005(s6)
   18d4e:	3efb4603          	lbu	a2,1007(s6)
   18d52:	3f0b2a03          	lw	s4,1008(s6)
   18d56:	0522                	slli	a0,a0,0x8
   18d58:	8d4d                	or	a0,a0,a1
   18d5a:	00a11223          	sh	a0,4(sp)
   18d5e:	00c10323          	sb	a2,6(sp)
   18d62:	6505                	lui	a0,0x1
   18d64:	38450513          	addi	a0,a0,900 # 1384 <.Lline_table_start1+0x1159>
   18d68:	00a105b3          	add	a1,sp,a0
   18d6c:	6505                	lui	a0,0x1
   18d6e:	32050513          	addi	a0,a0,800 # 1320 <.Lline_table_start1+0x10f5>
   18d72:	950a                	add	a0,a0,sp
   18d74:	02300613          	li	a2,35
   18d78:	00004097          	auipc	ra,0x4
   18d7c:	da4080e7          	jalr	-604(ra) # 1cb1c <memcpy>
   18d80:	c019                	beqz	s0,18d86 <_start+0xf14>
   18d82:	45f0306f          	j	1c9e0 <_start+0x4b6e>
   18d86:	00411503          	lh	a0,4(sp)
   18d8a:	00614583          	lbu	a1,6(sp)
   18d8e:	018a5613          	srli	a2,s4,0x18
   18d92:	010a5693          	srli	a3,s4,0x10
   18d96:	12d10ca3          	sb	a3,313(sp)
   18d9a:	12c10d23          	sb	a2,314(sp)
   18d9e:	008a5613          	srli	a2,s4,0x8
   18da2:	12a11a23          	sh	a0,308(sp)
   18da6:	12b10b23          	sb	a1,310(sp)
   18daa:	13410ba3          	sb	s4,311(sp)
   18dae:	12c10c23          	sb	a2,312(sp)
   18db2:	13b10513          	addi	a0,sp,315
   18db6:	6585                	lui	a1,0x1
   18db8:	32058593          	addi	a1,a1,800 # 1320 <.Lline_table_start1+0x10f5>
   18dbc:	958a                	add	a1,a1,sp
   18dbe:	02300613          	li	a2,35
   18dc2:	00004097          	auipc	ra,0x4
   18dc6:	d5a080e7          	jalr	-678(ra) # 1cb1c <memcpy>
   18dca:	6505                	lui	a0,0x1
   18dcc:	37c50513          	addi	a0,a0,892 # 137c <.Lline_table_start1+0x1151>
   18dd0:	950a                	add	a0,a0,sp
   18dd2:	1a4c                	addi	a1,sp,308
   18dd4:	ffffd097          	auipc	ra,0xffffd
   18dd8:	910080e7          	jalr	-1776(ra) # 156e4 <_ZN20complex_full_dynamic3app17hb09b425afdba9dcaE>
   18ddc:	3ecb4403          	lbu	s0,1004(s6)
   18de0:	c401                	beqz	s0,18de8 <_start+0xf76>
   18de2:	3f0b2a03          	lw	s4,1008(s6)
   18de6:	a835                	j	18e22 <_start+0xfb0>
   18de8:	3eeb4503          	lbu	a0,1006(s6)
   18dec:	3edb4583          	lbu	a1,1005(s6)
   18df0:	3efb4603          	lbu	a2,1007(s6)
   18df4:	3f0b2a03          	lw	s4,1008(s6)
   18df8:	0522                	slli	a0,a0,0x8
   18dfa:	8d4d                	or	a0,a0,a1
   18dfc:	00a11223          	sh	a0,4(sp)
   18e00:	00c10323          	sb	a2,6(sp)
   18e04:	6505                	lui	a0,0x1
   18e06:	38450513          	addi	a0,a0,900 # 1384 <.Lline_table_start1+0x1159>
   18e0a:	00a105b3          	add	a1,sp,a0
   18e0e:	6505                	lui	a0,0x1
   18e10:	32050513          	addi	a0,a0,800 # 1320 <.Lline_table_start1+0x10f5>
   18e14:	950a                	add	a0,a0,sp
   18e16:	05c00613          	li	a2,92
   18e1a:	00004097          	auipc	ra,0x4
   18e1e:	d02080e7          	jalr	-766(ra) # 1cb1c <memcpy>
   18e22:	c019                	beqz	s0,18e28 <_start+0xfb6>
   18e24:	3bd0306f          	j	1c9e0 <_start+0x4b6e>
   18e28:	00411503          	lh	a0,4(sp)
   18e2c:	00614583          	lbu	a1,6(sp)
   18e30:	018a5613          	srli	a2,s4,0x18
   18e34:	010a5693          	srli	a3,s4,0x10
   18e38:	16d101a3          	sb	a3,355(sp)
   18e3c:	16c10223          	sb	a2,356(sp)
   18e40:	008a5613          	srli	a2,s4,0x8
   18e44:	14a11f23          	sh	a0,350(sp)
   18e48:	16b10023          	sb	a1,352(sp)
   18e4c:	174100a3          	sb	s4,353(sp)
   18e50:	16c10123          	sb	a2,354(sp)
   18e54:	16510513          	addi	a0,sp,357
   18e58:	6585                	lui	a1,0x1
   18e5a:	32058593          	addi	a1,a1,800 # 1320 <.Lline_table_start1+0x10f5>
   18e5e:	958a                	add	a1,a1,sp
   18e60:	05c00613          	li	a2,92
   18e64:	00004097          	auipc	ra,0x4
   18e68:	cb8080e7          	jalr	-840(ra) # 1cb1c <memcpy>
   18e6c:	6505                	lui	a0,0x1
   18e6e:	37c50513          	addi	a0,a0,892 # 137c <.Lline_table_start1+0x1151>
   18e72:	950a                	add	a0,a0,sp
   18e74:	15e10593          	addi	a1,sp,350
   18e78:	ffff9097          	auipc	ra,0xffff9
   18e7c:	7aa080e7          	jalr	1962(ra) # 12622 <_ZN20complex_full_dynamic3app17h39ff7f3d8f248040E>
   18e80:	3ecb4503          	lbu	a0,1004(s6)
   18e84:	c501                	beqz	a0,18e8c <_start+0x101a>
   18e86:	3f0b2a03          	lw	s4,1008(s6)
   18e8a:	a8b9                	j	18ee8 <_start+0x1076>
   18e8c:	3edb4583          	lbu	a1,1005(s6)
   18e90:	3eeb4603          	lbu	a2,1006(s6)
   18e94:	3efb4683          	lbu	a3,1007(s6)
   18e98:	3f0b2a03          	lw	s4,1008(s6)
   18e9c:	3f4b2703          	lw	a4,1012(s6)
   18ea0:	3f8b2783          	lw	a5,1016(s6)
   18ea4:	3fcb2483          	lw	s1,1020(s6)
   18ea8:	400b2403          	lw	s0,1024(s6)
   18eac:	0622                	slli	a2,a2,0x8
   18eae:	38eb2823          	sw	a4,912(s6)
   18eb2:	38fb2a23          	sw	a5,916(s6)
   18eb6:	389b2c23          	sw	s1,920(s6)
   18eba:	388b2e23          	sw	s0,924(s6)
   18ebe:	8dd1                	or	a1,a1,a2
   18ec0:	00b11223          	sh	a1,4(sp)
   18ec4:	00d10323          	sb	a3,6(sp)
   18ec8:	404b2583          	lw	a1,1028(s6)
   18ecc:	408b2603          	lw	a2,1032(s6)
   18ed0:	40cb2683          	lw	a3,1036(s6)
   18ed4:	410b2703          	lw	a4,1040(s6)
   18ed8:	3abb2023          	sw	a1,928(s6)
   18edc:	3acb2223          	sw	a2,932(s6)
   18ee0:	3adb2423          	sw	a3,936(s6)
   18ee4:	3aeb2623          	sw	a4,940(s6)
   18ee8:	c119                	beqz	a0,18eee <_start+0x107c>
   18eea:	2f70306f          	j	1c9e0 <_start+0x4b6e>
   18eee:	00411503          	lh	a0,4(sp)
   18ef2:	00614583          	lbu	a1,6(sp)
   18ef6:	018a5613          	srli	a2,s4,0x18
   18efa:	010a5693          	srli	a3,s4,0x10
   18efe:	1cd103a3          	sb	a3,455(sp)
   18f02:	1cc10423          	sb	a2,456(sp)
   18f06:	008a5613          	srli	a2,s4,0x8
   18f0a:	1ca11123          	sh	a0,450(sp)
   18f0e:	1cb10223          	sb	a1,452(sp)
   18f12:	1d4102a3          	sb	s4,453(sp)
   18f16:	1cc10323          	sb	a2,454(sp)
   18f1a:	1c910513          	addi	a0,sp,457
   18f1e:	6585                	lui	a1,0x1
   18f20:	32058593          	addi	a1,a1,800 # 1320 <.Lline_table_start1+0x10f5>
   18f24:	958a                	add	a1,a1,sp
   18f26:	02000613          	li	a2,32
   18f2a:	00004097          	auipc	ra,0x4
   18f2e:	bf2080e7          	jalr	-1038(ra) # 1cb1c <memcpy>
   18f32:	6505                	lui	a0,0x1
   18f34:	37c50513          	addi	a0,a0,892 # 137c <.Lline_table_start1+0x1151>
   18f38:	950a                	add	a0,a0,sp
   18f3a:	1c210593          	addi	a1,sp,450
   18f3e:	fffff097          	auipc	ra,0xfffff
   18f42:	cdc080e7          	jalr	-804(ra) # 17c1a <_ZN20complex_full_dynamic3app17hfc0b98cdf9f8793cE>
   18f46:	3ecb4503          	lbu	a0,1004(s6)
   18f4a:	c501                	beqz	a0,18f52 <_start+0x10e0>
   18f4c:	3f0b2a03          	lw	s4,1008(s6)
   18f50:	a899                	j	18fa6 <_start+0x1134>
   18f52:	3edb4583          	lbu	a1,1005(s6)
   18f56:	3eeb4603          	lbu	a2,1006(s6)
   18f5a:	3efb4683          	lbu	a3,1007(s6)
   18f5e:	3f0b2a03          	lw	s4,1008(s6)
   18f62:	3f4b2703          	lw	a4,1012(s6)
   18f66:	3f8b2783          	lw	a5,1016(s6)
   18f6a:	3fcb2483          	lw	s1,1020(s6)
   18f6e:	400b2403          	lw	s0,1024(s6)
   18f72:	0622                	slli	a2,a2,0x8
   18f74:	38eb2823          	sw	a4,912(s6)
   18f78:	38fb2a23          	sw	a5,916(s6)
   18f7c:	389b2c23          	sw	s1,920(s6)
   18f80:	388b2e23          	sw	s0,924(s6)
   18f84:	8dd1                	or	a1,a1,a2
   18f86:	404b2603          	lw	a2,1028(s6)
   18f8a:	408b1703          	lh	a4,1032(s6)
   18f8e:	40ab4783          	lbu	a5,1034(s6)
   18f92:	00b11223          	sh	a1,4(sp)
   18f96:	00d10323          	sb	a3,6(sp)
   18f9a:	3acb2023          	sw	a2,928(s6)
   18f9e:	3aeb1223          	sh	a4,932(s6)
   18fa2:	3afb0323          	sb	a5,934(s6)
   18fa6:	c119                	beqz	a0,18fac <_start+0x113a>
   18fa8:	2390306f          	j	1c9e0 <_start+0x4b6e>
   18fac:	00411503          	lh	a0,4(sp)
   18fb0:	00614583          	lbu	a1,6(sp)
   18fb4:	018a5613          	srli	a2,s4,0x18
   18fb8:	010a5693          	srli	a3,s4,0x10
   18fbc:	1ed107a3          	sb	a3,495(sp)
   18fc0:	1ec10823          	sb	a2,496(sp)
   18fc4:	008a5613          	srli	a2,s4,0x8
   18fc8:	1ea11523          	sh	a0,490(sp)
   18fcc:	1eb10623          	sb	a1,492(sp)
   18fd0:	1f4106a3          	sb	s4,493(sp)
   18fd4:	1ec10723          	sb	a2,494(sp)
   18fd8:	1f110513          	addi	a0,sp,497
   18fdc:	6585                	lui	a1,0x1
   18fde:	32058593          	addi	a1,a1,800 # 1320 <.Lline_table_start1+0x10f5>
   18fe2:	958a                	add	a1,a1,sp
   18fe4:	465d                	li	a2,23
   18fe6:	00004097          	auipc	ra,0x4
   18fea:	b36080e7          	jalr	-1226(ra) # 1cb1c <memcpy>
   18fee:	6505                	lui	a0,0x1
   18ff0:	37c50513          	addi	a0,a0,892 # 137c <.Lline_table_start1+0x1151>
   18ff4:	950a                	add	a0,a0,sp
   18ff6:	1ea10593          	addi	a1,sp,490
   18ffa:	ffffc097          	auipc	ra,0xffffc
   18ffe:	244080e7          	jalr	580(ra) # 1523e <_ZN20complex_full_dynamic3app17ha9f6c376b8389db9E>
   19002:	3ecb4403          	lbu	s0,1004(s6)
   19006:	c401                	beqz	s0,1900e <_start+0x119c>
   19008:	3f0b2a03          	lw	s4,1008(s6)
   1900c:	a835                	j	19048 <_start+0x11d6>
   1900e:	3eeb4503          	lbu	a0,1006(s6)
   19012:	3edb4583          	lbu	a1,1005(s6)
   19016:	3efb4603          	lbu	a2,1007(s6)
   1901a:	3f0b2a03          	lw	s4,1008(s6)
   1901e:	0522                	slli	a0,a0,0x8
   19020:	8d4d                	or	a0,a0,a1
   19022:	00a11223          	sh	a0,4(sp)
   19026:	00c10323          	sb	a2,6(sp)
   1902a:	6505                	lui	a0,0x1
   1902c:	38450513          	addi	a0,a0,900 # 1384 <.Lline_table_start1+0x1159>
   19030:	00a105b3          	add	a1,sp,a0
   19034:	6505                	lui	a0,0x1
   19036:	32050513          	addi	a0,a0,800 # 1320 <.Lline_table_start1+0x10f5>
   1903a:	950a                	add	a0,a0,sp
   1903c:	02500613          	li	a2,37
   19040:	00004097          	auipc	ra,0x4
   19044:	adc080e7          	jalr	-1316(ra) # 1cb1c <memcpy>
   19048:	c019                	beqz	s0,1904e <_start+0x11dc>
   1904a:	1970306f          	j	1c9e0 <_start+0x4b6e>
   1904e:	00411503          	lh	a0,4(sp)
   19052:	00614583          	lbu	a1,6(sp)
   19056:	018a5613          	srli	a2,s4,0x18
   1905a:	010a5693          	srli	a3,s4,0x10
   1905e:	20d106a3          	sb	a3,525(sp)
   19062:	20c10723          	sb	a2,526(sp)
   19066:	008a5613          	srli	a2,s4,0x8
   1906a:	20a11423          	sh	a0,520(sp)
   1906e:	20b10523          	sb	a1,522(sp)
   19072:	214105a3          	sb	s4,523(sp)
   19076:	20c10623          	sb	a2,524(sp)
   1907a:	20f10513          	addi	a0,sp,527
   1907e:	6585                	lui	a1,0x1
   19080:	32058593          	addi	a1,a1,800 # 1320 <.Lline_table_start1+0x10f5>
   19084:	958a                	add	a1,a1,sp
   19086:	02500613          	li	a2,37
   1908a:	00004097          	auipc	ra,0x4
   1908e:	a92080e7          	jalr	-1390(ra) # 1cb1c <memcpy>
   19092:	6505                	lui	a0,0x1
   19094:	37c50513          	addi	a0,a0,892 # 137c <.Lline_table_start1+0x1151>
   19098:	950a                	add	a0,a0,sp
   1909a:	042c                	addi	a1,sp,520
   1909c:	ffffd097          	auipc	ra,0xffffd
   190a0:	89a080e7          	jalr	-1894(ra) # 15936 <_ZN20complex_full_dynamic3app17hb21ebd91f957d859E>
   190a4:	3ecb4503          	lbu	a0,1004(s6)
   190a8:	c501                	beqz	a0,190b0 <_start+0x123e>
   190aa:	3f0b2a03          	lw	s4,1008(s6)
   190ae:	a8b9                	j	1910c <_start+0x129a>
   190b0:	3edb4583          	lbu	a1,1005(s6)
   190b4:	3eeb4603          	lbu	a2,1006(s6)
   190b8:	3efb4683          	lbu	a3,1007(s6)
   190bc:	3f0b2a03          	lw	s4,1008(s6)
   190c0:	3f4b2703          	lw	a4,1012(s6)
   190c4:	3f8b2783          	lw	a5,1016(s6)
   190c8:	3fcb2483          	lw	s1,1020(s6)
   190cc:	400b2403          	lw	s0,1024(s6)
   190d0:	0622                	slli	a2,a2,0x8
   190d2:	38eb2823          	sw	a4,912(s6)
   190d6:	38fb2a23          	sw	a5,916(s6)
   190da:	389b2c23          	sw	s1,920(s6)
   190de:	388b2e23          	sw	s0,924(s6)
   190e2:	8dd1                	or	a1,a1,a2
   190e4:	00b11223          	sh	a1,4(sp)
   190e8:	00d10323          	sb	a3,6(sp)
   190ec:	404b2583          	lw	a1,1028(s6)
   190f0:	408b2603          	lw	a2,1032(s6)
   190f4:	40cb2683          	lw	a3,1036(s6)
   190f8:	410b1703          	lh	a4,1040(s6)
   190fc:	3abb2023          	sw	a1,928(s6)
   19100:	3acb2223          	sw	a2,932(s6)
   19104:	3adb2423          	sw	a3,936(s6)
   19108:	3aeb1623          	sh	a4,940(s6)
   1910c:	c119                	beqz	a0,19112 <_start+0x12a0>
   1910e:	0d30306f          	j	1c9e0 <_start+0x4b6e>
   19112:	00411503          	lh	a0,4(sp)
   19116:	00614583          	lbu	a1,6(sp)
   1911a:	018a5613          	srli	a2,s4,0x18
   1911e:	010a5693          	srli	a3,s4,0x10
   19122:	22d10ca3          	sb	a3,569(sp)
   19126:	22c10d23          	sb	a2,570(sp)
   1912a:	008a5613          	srli	a2,s4,0x8
   1912e:	22a11a23          	sh	a0,564(sp)
   19132:	22b10b23          	sb	a1,566(sp)
   19136:	23410ba3          	sb	s4,567(sp)
   1913a:	22c10c23          	sb	a2,568(sp)
   1913e:	23b10513          	addi	a0,sp,571
   19142:	6585                	lui	a1,0x1
   19144:	32058593          	addi	a1,a1,800 # 1320 <.Lline_table_start1+0x10f5>
   19148:	958a                	add	a1,a1,sp
   1914a:	4679                	li	a2,30
   1914c:	00004097          	auipc	ra,0x4
   19150:	9d0080e7          	jalr	-1584(ra) # 1cb1c <memcpy>
   19154:	6505                	lui	a0,0x1
   19156:	37c50513          	addi	a0,a0,892 # 137c <.Lline_table_start1+0x1151>
   1915a:	950a                	add	a0,a0,sp
   1915c:	1c4c                	addi	a1,sp,564
   1915e:	fffff097          	auipc	ra,0xfffff
   19162:	86a080e7          	jalr	-1942(ra) # 179c8 <_ZN20complex_full_dynamic3app17hfb8aa9adcb681e28E>
   19166:	3ecb4503          	lbu	a0,1004(s6)
   1916a:	c501                	beqz	a0,19172 <_start+0x1300>
   1916c:	3f0b2a03          	lw	s4,1008(s6)
   19170:	a099                	j	191b6 <_start+0x1344>
   19172:	3edb4583          	lbu	a1,1005(s6)
   19176:	3eeb4603          	lbu	a2,1006(s6)
   1917a:	3efb4683          	lbu	a3,1007(s6)
   1917e:	3f0b2a03          	lw	s4,1008(s6)
   19182:	3f4b2703          	lw	a4,1012(s6)
   19186:	3f8b2783          	lw	a5,1016(s6)
   1918a:	3fcb2483          	lw	s1,1020(s6)
   1918e:	400b2403          	lw	s0,1024(s6)
   19192:	38eb2823          	sw	a4,912(s6)
   19196:	38fb2a23          	sw	a5,916(s6)
   1919a:	389b2c23          	sw	s1,920(s6)
   1919e:	388b2e23          	sw	s0,924(s6)
   191a2:	404b4703          	lbu	a4,1028(s6)
   191a6:	0622                	slli	a2,a2,0x8
   191a8:	8dd1                	or	a1,a1,a2
   191aa:	00b11223          	sh	a1,4(sp)
   191ae:	00d10323          	sb	a3,6(sp)
   191b2:	3aeb0023          	sb	a4,928(s6)
   191b6:	c119                	beqz	a0,191bc <_start+0x134a>
   191b8:	0290306f          	j	1c9e0 <_start+0x4b6e>
   191bc:	00411503          	lh	a0,4(sp)
   191c0:	00614583          	lbu	a1,6(sp)
   191c4:	018a5613          	srli	a2,s4,0x18
   191c8:	010a5693          	srli	a3,s4,0x10
   191cc:	24d10fa3          	sb	a3,607(sp)
   191d0:	26c10023          	sb	a2,608(sp)
   191d4:	008a5613          	srli	a2,s4,0x8
   191d8:	24a11d23          	sh	a0,602(sp)
   191dc:	24b10e23          	sb	a1,604(sp)
   191e0:	25410ea3          	sb	s4,605(sp)
   191e4:	24c10f23          	sb	a2,606(sp)
   191e8:	26110513          	addi	a0,sp,609
   191ec:	6585                	lui	a1,0x1
   191ee:	32058593          	addi	a1,a1,800 # 1320 <.Lline_table_start1+0x10f5>
   191f2:	958a                	add	a1,a1,sp
   191f4:	4645                	li	a2,17
   191f6:	00004097          	auipc	ra,0x4
   191fa:	926080e7          	jalr	-1754(ra) # 1cb1c <memcpy>
   191fe:	6505                	lui	a0,0x1
   19200:	37c50513          	addi	a0,a0,892 # 137c <.Lline_table_start1+0x1151>
   19204:	950a                	add	a0,a0,sp
   19206:	25a10593          	addi	a1,sp,602
   1920a:	ffffd097          	auipc	ra,0xffffd
   1920e:	640080e7          	jalr	1600(ra) # 1684a <_ZN20complex_full_dynamic3app17hdf16bcf93a30c461E>
   19212:	3ecb4403          	lbu	s0,1004(s6)
   19216:	c401                	beqz	s0,1921e <_start+0x13ac>
   19218:	3f0b2a03          	lw	s4,1008(s6)
   1921c:	a835                	j	19258 <_start+0x13e6>
   1921e:	3eeb4503          	lbu	a0,1006(s6)
   19222:	3edb4583          	lbu	a1,1005(s6)
   19226:	3efb4603          	lbu	a2,1007(s6)
   1922a:	3f0b2a03          	lw	s4,1008(s6)
   1922e:	0522                	slli	a0,a0,0x8
   19230:	8d4d                	or	a0,a0,a1
   19232:	00a11223          	sh	a0,4(sp)
   19236:	00c10323          	sb	a2,6(sp)
   1923a:	6505                	lui	a0,0x1
   1923c:	38450513          	addi	a0,a0,900 # 1384 <.Lline_table_start1+0x1159>
   19240:	00a105b3          	add	a1,sp,a0
   19244:	6505                	lui	a0,0x1
   19246:	32050513          	addi	a0,a0,800 # 1320 <.Lline_table_start1+0x10f5>
   1924a:	950a                	add	a0,a0,sp
   1924c:	02f00613          	li	a2,47
   19250:	00004097          	auipc	ra,0x4
   19254:	8cc080e7          	jalr	-1844(ra) # 1cb1c <memcpy>
   19258:	c019                	beqz	s0,1925e <_start+0x13ec>
   1925a:	7860306f          	j	1c9e0 <_start+0x4b6e>
   1925e:	00411503          	lh	a0,4(sp)
   19262:	00614583          	lbu	a1,6(sp)
   19266:	018a5613          	srli	a2,s4,0x18
   1926a:	010a5693          	srli	a3,s4,0x10
   1926e:	26d10ba3          	sb	a3,631(sp)
   19272:	26c10c23          	sb	a2,632(sp)
   19276:	008a5613          	srli	a2,s4,0x8
   1927a:	26a11923          	sh	a0,626(sp)
   1927e:	26b10a23          	sb	a1,628(sp)
   19282:	27410aa3          	sb	s4,629(sp)
   19286:	26c10b23          	sb	a2,630(sp)
   1928a:	27910513          	addi	a0,sp,633
   1928e:	6585                	lui	a1,0x1
   19290:	32058593          	addi	a1,a1,800 # 1320 <.Lline_table_start1+0x10f5>
   19294:	958a                	add	a1,a1,sp
   19296:	02f00613          	li	a2,47
   1929a:	00004097          	auipc	ra,0x4
   1929e:	882080e7          	jalr	-1918(ra) # 1cb1c <memcpy>
   192a2:	6505                	lui	a0,0x1
   192a4:	37c50513          	addi	a0,a0,892 # 137c <.Lline_table_start1+0x1151>
   192a8:	950a                	add	a0,a0,sp
   192aa:	27210593          	addi	a1,sp,626
   192ae:	ffffa097          	auipc	ra,0xffffa
   192b2:	03a080e7          	jalr	58(ra) # 132e8 <_ZN20complex_full_dynamic3app17h5c6f958918b875d1E>
   192b6:	3ecb4403          	lbu	s0,1004(s6)
   192ba:	c401                	beqz	s0,192c2 <_start+0x1450>
   192bc:	3f0b2a03          	lw	s4,1008(s6)
   192c0:	a835                	j	192fc <_start+0x148a>
   192c2:	3eeb4503          	lbu	a0,1006(s6)
   192c6:	3edb4583          	lbu	a1,1005(s6)
   192ca:	3efb4603          	lbu	a2,1007(s6)
   192ce:	3f0b2a03          	lw	s4,1008(s6)
   192d2:	0522                	slli	a0,a0,0x8
   192d4:	8d4d                	or	a0,a0,a1
   192d6:	00a11223          	sh	a0,4(sp)
   192da:	00c10323          	sb	a2,6(sp)
   192de:	6505                	lui	a0,0x1
   192e0:	38450513          	addi	a0,a0,900 # 1384 <.Lline_table_start1+0x1159>
   192e4:	00a105b3          	add	a1,sp,a0
   192e8:	6505                	lui	a0,0x1
   192ea:	32050513          	addi	a0,a0,800 # 1320 <.Lline_table_start1+0x10f5>
   192ee:	950a                	add	a0,a0,sp
   192f0:	02d00613          	li	a2,45
   192f4:	00004097          	auipc	ra,0x4
   192f8:	828080e7          	jalr	-2008(ra) # 1cb1c <memcpy>
   192fc:	c019                	beqz	s0,19302 <_start+0x1490>
   192fe:	6e20306f          	j	1c9e0 <_start+0x4b6e>
   19302:	00411503          	lh	a0,4(sp)
   19306:	00614583          	lbu	a1,6(sp)
   1930a:	018a5613          	srli	a2,s4,0x18
   1930e:	010a5693          	srli	a3,s4,0x10
   19312:	2ad106a3          	sb	a3,685(sp)
   19316:	2ac10723          	sb	a2,686(sp)
   1931a:	008a5613          	srli	a2,s4,0x8
   1931e:	2aa11423          	sh	a0,680(sp)
   19322:	2ab10523          	sb	a1,682(sp)
   19326:	2b4105a3          	sb	s4,683(sp)
   1932a:	2ac10623          	sb	a2,684(sp)
   1932e:	2af10513          	addi	a0,sp,687
   19332:	6585                	lui	a1,0x1
   19334:	32058593          	addi	a1,a1,800 # 1320 <.Lline_table_start1+0x10f5>
   19338:	958a                	add	a1,a1,sp
   1933a:	02d00613          	li	a2,45
   1933e:	00003097          	auipc	ra,0x3
   19342:	7de080e7          	jalr	2014(ra) # 1cb1c <memcpy>
   19346:	6505                	lui	a0,0x1
   19348:	37c50513          	addi	a0,a0,892 # 137c <.Lline_table_start1+0x1151>
   1934c:	950a                	add	a0,a0,sp
   1934e:	152c                	addi	a1,sp,680
   19350:	ffffb097          	auipc	ra,0xffffb
   19354:	b20080e7          	jalr	-1248(ra) # 13e70 <_ZN20complex_full_dynamic3app17h8af1672df39cdb6fE>
   19358:	3ecb4403          	lbu	s0,1004(s6)
   1935c:	c401                	beqz	s0,19364 <_start+0x14f2>
   1935e:	3f0b2a03          	lw	s4,1008(s6)
   19362:	a835                	j	1939e <_start+0x152c>
   19364:	3eeb4503          	lbu	a0,1006(s6)
   19368:	3edb4583          	lbu	a1,1005(s6)
   1936c:	3efb4603          	lbu	a2,1007(s6)
   19370:	3f0b2a03          	lw	s4,1008(s6)
   19374:	0522                	slli	a0,a0,0x8
   19376:	8d4d                	or	a0,a0,a1
   19378:	00a11223          	sh	a0,4(sp)
   1937c:	00c10323          	sb	a2,6(sp)
   19380:	6505                	lui	a0,0x1
   19382:	38450513          	addi	a0,a0,900 # 1384 <.Lline_table_start1+0x1159>
   19386:	00a105b3          	add	a1,sp,a0
   1938a:	6505                	lui	a0,0x1
   1938c:	32050513          	addi	a0,a0,800 # 1320 <.Lline_table_start1+0x10f5>
   19390:	950a                	add	a0,a0,sp
   19392:	02700613          	li	a2,39
   19396:	00003097          	auipc	ra,0x3
   1939a:	786080e7          	jalr	1926(ra) # 1cb1c <memcpy>
   1939e:	c019                	beqz	s0,193a4 <_start+0x1532>
   193a0:	6400306f          	j	1c9e0 <_start+0x4b6e>
   193a4:	00411503          	lh	a0,4(sp)
   193a8:	00614583          	lbu	a1,6(sp)
   193ac:	018a5613          	srli	a2,s4,0x18
   193b0:	010a5693          	srli	a3,s4,0x10
   193b4:	2ed100a3          	sb	a3,737(sp)
   193b8:	2ec10123          	sb	a2,738(sp)
   193bc:	008a5613          	srli	a2,s4,0x8
   193c0:	2ca11e23          	sh	a0,732(sp)
   193c4:	2cb10f23          	sb	a1,734(sp)
   193c8:	2d410fa3          	sb	s4,735(sp)
   193cc:	2ec10023          	sb	a2,736(sp)
   193d0:	2e310513          	addi	a0,sp,739
   193d4:	6585                	lui	a1,0x1
   193d6:	32058593          	addi	a1,a1,800 # 1320 <.Lline_table_start1+0x10f5>
   193da:	958a                	add	a1,a1,sp
   193dc:	02700613          	li	a2,39
   193e0:	00003097          	auipc	ra,0x3
   193e4:	73c080e7          	jalr	1852(ra) # 1cb1c <memcpy>
   193e8:	6505                	lui	a0,0x1
   193ea:	37c50513          	addi	a0,a0,892 # 137c <.Lline_table_start1+0x1151>
   193ee:	950a                	add	a0,a0,sp
   193f0:	0dec                	addi	a1,sp,732
   193f2:	ffffe097          	auipc	ra,0xffffe
   193f6:	4a8080e7          	jalr	1192(ra) # 1789a <_ZN20complex_full_dynamic3app17hfb05e04bd27bf612E>
   193fa:	3ecb4403          	lbu	s0,1004(s6)
   193fe:	c401                	beqz	s0,19406 <_start+0x1594>
   19400:	3f0b2a03          	lw	s4,1008(s6)
   19404:	a835                	j	19440 <_start+0x15ce>
   19406:	3eeb4503          	lbu	a0,1006(s6)
   1940a:	3edb4583          	lbu	a1,1005(s6)
   1940e:	3efb4603          	lbu	a2,1007(s6)
   19412:	3f0b2a03          	lw	s4,1008(s6)
   19416:	0522                	slli	a0,a0,0x8
   19418:	8d4d                	or	a0,a0,a1
   1941a:	00a11223          	sh	a0,4(sp)
   1941e:	00c10323          	sb	a2,6(sp)
   19422:	6505                	lui	a0,0x1
   19424:	38450513          	addi	a0,a0,900 # 1384 <.Lline_table_start1+0x1159>
   19428:	00a105b3          	add	a1,sp,a0
   1942c:	6505                	lui	a0,0x1
   1942e:	32050513          	addi	a0,a0,800 # 1320 <.Lline_table_start1+0x10f5>
   19432:	950a                	add	a0,a0,sp
   19434:	03100613          	li	a2,49
   19438:	00003097          	auipc	ra,0x3
   1943c:	6e4080e7          	jalr	1764(ra) # 1cb1c <memcpy>
   19440:	c019                	beqz	s0,19446 <_start+0x15d4>
   19442:	59e0306f          	j	1c9e0 <_start+0x4b6e>
   19446:	00411503          	lh	a0,4(sp)
   1944a:	00614583          	lbu	a1,6(sp)
   1944e:	018a5613          	srli	a2,s4,0x18
   19452:	010a5693          	srli	a3,s4,0x10
   19456:	30d107a3          	sb	a3,783(sp)
   1945a:	30c10823          	sb	a2,784(sp)
   1945e:	008a5613          	srli	a2,s4,0x8
   19462:	30a11523          	sh	a0,778(sp)
   19466:	30b10623          	sb	a1,780(sp)
   1946a:	314106a3          	sb	s4,781(sp)
   1946e:	30c10723          	sb	a2,782(sp)
   19472:	31110513          	addi	a0,sp,785
   19476:	6585                	lui	a1,0x1
   19478:	32058593          	addi	a1,a1,800 # 1320 <.Lline_table_start1+0x10f5>
   1947c:	958a                	add	a1,a1,sp
   1947e:	03100613          	li	a2,49
   19482:	00003097          	auipc	ra,0x3
   19486:	69a080e7          	jalr	1690(ra) # 1cb1c <memcpy>
   1948a:	6505                	lui	a0,0x1
   1948c:	37c50513          	addi	a0,a0,892 # 137c <.Lline_table_start1+0x1151>
   19490:	950a                	add	a0,a0,sp
   19492:	30a10593          	addi	a1,sp,778
   19496:	ffffc097          	auipc	ra,0xffffc
   1949a:	ece080e7          	jalr	-306(ra) # 15364 <_ZN20complex_full_dynamic3app17haa3fd1ab2fa442beE>
   1949e:	3ecb4403          	lbu	s0,1004(s6)
   194a2:	c401                	beqz	s0,194aa <_start+0x1638>
   194a4:	3f0b2a03          	lw	s4,1008(s6)
   194a8:	a835                	j	194e4 <_start+0x1672>
   194aa:	3eeb4503          	lbu	a0,1006(s6)
   194ae:	3edb4583          	lbu	a1,1005(s6)
   194b2:	3efb4603          	lbu	a2,1007(s6)
   194b6:	3f0b2a03          	lw	s4,1008(s6)
   194ba:	0522                	slli	a0,a0,0x8
   194bc:	8d4d                	or	a0,a0,a1
   194be:	00a11223          	sh	a0,4(sp)
   194c2:	00c10323          	sb	a2,6(sp)
   194c6:	6505                	lui	a0,0x1
   194c8:	38450513          	addi	a0,a0,900 # 1384 <.Lline_table_start1+0x1159>
   194cc:	00a105b3          	add	a1,sp,a0
   194d0:	6505                	lui	a0,0x1
   194d2:	32050513          	addi	a0,a0,800 # 1320 <.Lline_table_start1+0x10f5>
   194d6:	950a                	add	a0,a0,sp
   194d8:	02d00613          	li	a2,45
   194dc:	00003097          	auipc	ra,0x3
   194e0:	640080e7          	jalr	1600(ra) # 1cb1c <memcpy>
   194e4:	c019                	beqz	s0,194ea <_start+0x1678>
   194e6:	4fa0306f          	j	1c9e0 <_start+0x4b6e>
   194ea:	00411503          	lh	a0,4(sp)
   194ee:	00614583          	lbu	a1,6(sp)
   194f2:	018a5613          	srli	a2,s4,0x18
   194f6:	010a5693          	srli	a3,s4,0x10
   194fa:	34d103a3          	sb	a3,839(sp)
   194fe:	34c10423          	sb	a2,840(sp)
   19502:	008a5613          	srli	a2,s4,0x8
   19506:	34a11123          	sh	a0,834(sp)
   1950a:	34b10223          	sb	a1,836(sp)
   1950e:	354102a3          	sb	s4,837(sp)
   19512:	34c10323          	sb	a2,838(sp)
   19516:	34910513          	addi	a0,sp,841
   1951a:	6585                	lui	a1,0x1
   1951c:	32058593          	addi	a1,a1,800 # 1320 <.Lline_table_start1+0x10f5>
   19520:	958a                	add	a1,a1,sp
   19522:	02d00613          	li	a2,45
   19526:	00003097          	auipc	ra,0x3
   1952a:	5f6080e7          	jalr	1526(ra) # 1cb1c <memcpy>
   1952e:	6505                	lui	a0,0x1
   19530:	37c50513          	addi	a0,a0,892 # 137c <.Lline_table_start1+0x1151>
   19534:	950a                	add	a0,a0,sp
   19536:	34210593          	addi	a1,sp,834
   1953a:	ffff8097          	auipc	ra,0xffff8
   1953e:	f7a080e7          	jalr	-134(ra) # 114b4 <_ZN20complex_full_dynamic3app17h13de8ece03e70641E>
   19542:	3ecb4503          	lbu	a0,1004(s6)
   19546:	c501                	beqz	a0,1954e <_start+0x16dc>
   19548:	3f0b2a03          	lw	s4,1008(s6)
   1954c:	a0b9                	j	1959a <_start+0x1728>
   1954e:	3edb4583          	lbu	a1,1005(s6)
   19552:	3eeb4603          	lbu	a2,1006(s6)
   19556:	3efb4683          	lbu	a3,1007(s6)
   1955a:	3f0b2a03          	lw	s4,1008(s6)
   1955e:	3f4b2703          	lw	a4,1012(s6)
   19562:	3f8b2783          	lw	a5,1016(s6)
   19566:	3fcb2483          	lw	s1,1020(s6)
   1956a:	400b2403          	lw	s0,1024(s6)
   1956e:	0622                	slli	a2,a2,0x8
   19570:	38eb2823          	sw	a4,912(s6)
   19574:	38fb2a23          	sw	a5,916(s6)
   19578:	389b2c23          	sw	s1,920(s6)
   1957c:	388b2e23          	sw	s0,924(s6)
   19580:	8dd1                	or	a1,a1,a2
   19582:	404b1603          	lh	a2,1028(s6)
   19586:	406b4703          	lbu	a4,1030(s6)
   1958a:	00b11223          	sh	a1,4(sp)
   1958e:	00d10323          	sb	a3,6(sp)
   19592:	3acb1023          	sh	a2,928(s6)
   19596:	3aeb0123          	sb	a4,930(s6)
   1959a:	c119                	beqz	a0,195a0 <_start+0x172e>
   1959c:	4440306f          	j	1c9e0 <_start+0x4b6e>
   195a0:	00411503          	lh	a0,4(sp)
   195a4:	00614583          	lbu	a1,6(sp)
   195a8:	018a5613          	srli	a2,s4,0x18
   195ac:	010a5693          	srli	a3,s4,0x10
   195b0:	36d10da3          	sb	a3,891(sp)
   195b4:	36c10e23          	sb	a2,892(sp)
   195b8:	008a5613          	srli	a2,s4,0x8
   195bc:	36a11b23          	sh	a0,886(sp)
   195c0:	36b10c23          	sb	a1,888(sp)
   195c4:	37410ca3          	sb	s4,889(sp)
   195c8:	36c10d23          	sb	a2,890(sp)
   195cc:	37d10513          	addi	a0,sp,893
   195d0:	6585                	lui	a1,0x1
   195d2:	32058593          	addi	a1,a1,800 # 1320 <.Lline_table_start1+0x10f5>
   195d6:	958a                	add	a1,a1,sp
   195d8:	464d                	li	a2,19
   195da:	00003097          	auipc	ra,0x3
   195de:	542080e7          	jalr	1346(ra) # 1cb1c <memcpy>
   195e2:	6505                	lui	a0,0x1
   195e4:	37c50513          	addi	a0,a0,892 # 137c <.Lline_table_start1+0x1151>
   195e8:	950a                	add	a0,a0,sp
   195ea:	37610593          	addi	a1,sp,886
   195ee:	ffffe097          	auipc	ra,0xffffe
   195f2:	a7e080e7          	jalr	-1410(ra) # 1706c <_ZN20complex_full_dynamic3app17hee23874c5b7363a2E>
   195f6:	3ecb4403          	lbu	s0,1004(s6)
   195fa:	c401                	beqz	s0,19602 <_start+0x1790>
   195fc:	3f0b2a03          	lw	s4,1008(s6)
   19600:	a835                	j	1963c <_start+0x17ca>
   19602:	3eeb4503          	lbu	a0,1006(s6)
   19606:	3edb4583          	lbu	a1,1005(s6)
   1960a:	3efb4603          	lbu	a2,1007(s6)
   1960e:	3f0b2a03          	lw	s4,1008(s6)
   19612:	0522                	slli	a0,a0,0x8
   19614:	8d4d                	or	a0,a0,a1
   19616:	00a11223          	sh	a0,4(sp)
   1961a:	00c10323          	sb	a2,6(sp)
   1961e:	6505                	lui	a0,0x1
   19620:	38450513          	addi	a0,a0,900 # 1384 <.Lline_table_start1+0x1159>
   19624:	00a105b3          	add	a1,sp,a0
   19628:	6505                	lui	a0,0x1
   1962a:	32050513          	addi	a0,a0,800 # 1320 <.Lline_table_start1+0x10f5>
   1962e:	950a                	add	a0,a0,sp
   19630:	04900613          	li	a2,73
   19634:	00003097          	auipc	ra,0x3
   19638:	4e8080e7          	jalr	1256(ra) # 1cb1c <memcpy>
   1963c:	c019                	beqz	s0,19642 <_start+0x17d0>
   1963e:	3a20306f          	j	1c9e0 <_start+0x4b6e>
   19642:	00411503          	lh	a0,4(sp)
   19646:	00614583          	lbu	a1,6(sp)
   1964a:	018a5613          	srli	a2,s4,0x18
   1964e:	010a5693          	srli	a3,s4,0x10
   19652:	38d10aa3          	sb	a3,917(sp)
   19656:	38c10b23          	sb	a2,918(sp)
   1965a:	008a5613          	srli	a2,s4,0x8
   1965e:	38a11823          	sh	a0,912(sp)
   19662:	38b10923          	sb	a1,914(sp)
   19666:	394109a3          	sb	s4,915(sp)
   1966a:	38c10a23          	sb	a2,916(sp)
   1966e:	39710513          	addi	a0,sp,919
   19672:	6585                	lui	a1,0x1
   19674:	32058593          	addi	a1,a1,800 # 1320 <.Lline_table_start1+0x10f5>
   19678:	958a                	add	a1,a1,sp
   1967a:	04900613          	li	a2,73
   1967e:	00003097          	auipc	ra,0x3
   19682:	49e080e7          	jalr	1182(ra) # 1cb1c <memcpy>
   19686:	6505                	lui	a0,0x1
   19688:	37c50513          	addi	a0,a0,892 # 137c <.Lline_table_start1+0x1151>
   1968c:	950a                	add	a0,a0,sp
   1968e:	0f0c                	addi	a1,sp,912
   19690:	ffffd097          	auipc	ra,0xffffd
   19694:	be0080e7          	jalr	-1056(ra) # 16270 <_ZN20complex_full_dynamic3app17hc5fa7dc37b44e160E>
   19698:	3ecb4403          	lbu	s0,1004(s6)
   1969c:	c401                	beqz	s0,196a4 <_start+0x1832>
   1969e:	3f0b2a03          	lw	s4,1008(s6)
   196a2:	a835                	j	196de <_start+0x186c>
   196a4:	3eeb4503          	lbu	a0,1006(s6)
   196a8:	3edb4583          	lbu	a1,1005(s6)
   196ac:	3efb4603          	lbu	a2,1007(s6)
   196b0:	3f0b2a03          	lw	s4,1008(s6)
   196b4:	0522                	slli	a0,a0,0x8
   196b6:	8d4d                	or	a0,a0,a1
   196b8:	00a11223          	sh	a0,4(sp)
   196bc:	00c10323          	sb	a2,6(sp)
   196c0:	6505                	lui	a0,0x1
   196c2:	38450513          	addi	a0,a0,900 # 1384 <.Lline_table_start1+0x1159>
   196c6:	00a105b3          	add	a1,sp,a0
   196ca:	6505                	lui	a0,0x1
   196cc:	32050513          	addi	a0,a0,800 # 1320 <.Lline_table_start1+0x10f5>
   196d0:	950a                	add	a0,a0,sp
   196d2:	03500613          	li	a2,53
   196d6:	00003097          	auipc	ra,0x3
   196da:	446080e7          	jalr	1094(ra) # 1cb1c <memcpy>
   196de:	c019                	beqz	s0,196e4 <_start+0x1872>
   196e0:	3000306f          	j	1c9e0 <_start+0x4b6e>
   196e4:	00411503          	lh	a0,4(sp)
   196e8:	00614583          	lbu	a1,6(sp)
   196ec:	018a5613          	srli	a2,s4,0x18
   196f0:	010a5693          	srli	a3,s4,0x10
   196f4:	3ed102a3          	sb	a3,997(sp)
   196f8:	3ec10323          	sb	a2,998(sp)
   196fc:	008a5613          	srli	a2,s4,0x8
   19700:	3ea11023          	sh	a0,992(sp)
   19704:	3eb10123          	sb	a1,994(sp)
   19708:	3f4101a3          	sb	s4,995(sp)
   1970c:	3ec10223          	sb	a2,996(sp)
   19710:	3e710513          	addi	a0,sp,999
   19714:	6585                	lui	a1,0x1
   19716:	32058593          	addi	a1,a1,800 # 1320 <.Lline_table_start1+0x10f5>
   1971a:	958a                	add	a1,a1,sp
   1971c:	03500613          	li	a2,53
   19720:	00003097          	auipc	ra,0x3
   19724:	3fc080e7          	jalr	1020(ra) # 1cb1c <memcpy>
   19728:	6505                	lui	a0,0x1
   1972a:	37c50513          	addi	a0,a0,892 # 137c <.Lline_table_start1+0x1151>
   1972e:	950a                	add	a0,a0,sp
   19730:	178c                	addi	a1,sp,992
   19732:	ffffb097          	auipc	ra,0xffffb
   19736:	994080e7          	jalr	-1644(ra) # 140c6 <_ZN20complex_full_dynamic3app17h8c3b9faa4b02ac7aE>
   1973a:	3ecb4403          	lbu	s0,1004(s6)
   1973e:	c401                	beqz	s0,19746 <_start+0x18d4>
   19740:	3f0b2a03          	lw	s4,1008(s6)
   19744:	a835                	j	19780 <_start+0x190e>
   19746:	3eeb4503          	lbu	a0,1006(s6)
   1974a:	3edb4583          	lbu	a1,1005(s6)
   1974e:	3efb4603          	lbu	a2,1007(s6)
   19752:	3f0b2a03          	lw	s4,1008(s6)
   19756:	0522                	slli	a0,a0,0x8
   19758:	8d4d                	or	a0,a0,a1
   1975a:	00a11223          	sh	a0,4(sp)
   1975e:	00c10323          	sb	a2,6(sp)
   19762:	6505                	lui	a0,0x1
   19764:	38450513          	addi	a0,a0,900 # 1384 <.Lline_table_start1+0x1159>
   19768:	00a105b3          	add	a1,sp,a0
   1976c:	6505                	lui	a0,0x1
   1976e:	32050513          	addi	a0,a0,800 # 1320 <.Lline_table_start1+0x10f5>
   19772:	950a                	add	a0,a0,sp
   19774:	02b00613          	li	a2,43
   19778:	00003097          	auipc	ra,0x3
   1977c:	3a4080e7          	jalr	932(ra) # 1cb1c <memcpy>
   19780:	c019                	beqz	s0,19786 <_start+0x1914>
   19782:	25e0306f          	j	1c9e0 <_start+0x4b6e>
   19786:	00411503          	lh	a0,4(sp)
   1978a:	00614583          	lbu	a1,6(sp)
   1978e:	018a5613          	srli	a2,s4,0x18
   19792:	010a5693          	srli	a3,s4,0x10
   19796:	42d100a3          	sb	a3,1057(sp)
   1979a:	42c10123          	sb	a2,1058(sp)
   1979e:	008a5613          	srli	a2,s4,0x8
   197a2:	40a11e23          	sh	a0,1052(sp)
   197a6:	40b10f23          	sb	a1,1054(sp)
   197aa:	41410fa3          	sb	s4,1055(sp)
   197ae:	42c10023          	sb	a2,1056(sp)
   197b2:	42310513          	addi	a0,sp,1059
   197b6:	6585                	lui	a1,0x1
   197b8:	32058593          	addi	a1,a1,800 # 1320 <.Lline_table_start1+0x10f5>
   197bc:	958a                	add	a1,a1,sp
   197be:	02b00613          	li	a2,43
   197c2:	00003097          	auipc	ra,0x3
   197c6:	35a080e7          	jalr	858(ra) # 1cb1c <memcpy>
   197ca:	6505                	lui	a0,0x1
   197cc:	37c50513          	addi	a0,a0,892 # 137c <.Lline_table_start1+0x1151>
   197d0:	950a                	add	a0,a0,sp
   197d2:	41c10593          	addi	a1,sp,1052
   197d6:	ffffb097          	auipc	ra,0xffffb
   197da:	118080e7          	jalr	280(ra) # 148ee <_ZN20complex_full_dynamic3app17h980c5c47a8b2e097E>
   197de:	3ecb4403          	lbu	s0,1004(s6)
   197e2:	c401                	beqz	s0,197ea <_start+0x1978>
   197e4:	3f0b2a03          	lw	s4,1008(s6)
   197e8:	a835                	j	19824 <_start+0x19b2>
   197ea:	3eeb4503          	lbu	a0,1006(s6)
   197ee:	3edb4583          	lbu	a1,1005(s6)
   197f2:	3efb4603          	lbu	a2,1007(s6)
   197f6:	3f0b2a03          	lw	s4,1008(s6)
   197fa:	0522                	slli	a0,a0,0x8
   197fc:	8d4d                	or	a0,a0,a1
   197fe:	00a11223          	sh	a0,4(sp)
   19802:	00c10323          	sb	a2,6(sp)
   19806:	6505                	lui	a0,0x1
   19808:	38450513          	addi	a0,a0,900 # 1384 <.Lline_table_start1+0x1159>
   1980c:	00a105b3          	add	a1,sp,a0
   19810:	6505                	lui	a0,0x1
   19812:	32050513          	addi	a0,a0,800 # 1320 <.Lline_table_start1+0x10f5>
   19816:	950a                	add	a0,a0,sp
   19818:	02b00613          	li	a2,43
   1981c:	00003097          	auipc	ra,0x3
   19820:	300080e7          	jalr	768(ra) # 1cb1c <memcpy>
   19824:	c019                	beqz	s0,1982a <_start+0x19b8>
   19826:	1ba0306f          	j	1c9e0 <_start+0x4b6e>
   1982a:	00411503          	lh	a0,4(sp)
   1982e:	00614583          	lbu	a1,6(sp)
   19832:	018a5613          	srli	a2,s4,0x18
   19836:	010a5693          	srli	a3,s4,0x10
   1983a:	44d109a3          	sb	a3,1107(sp)
   1983e:	44c10a23          	sb	a2,1108(sp)
   19842:	008a5613          	srli	a2,s4,0x8
   19846:	44a11723          	sh	a0,1102(sp)
   1984a:	44b10823          	sb	a1,1104(sp)
   1984e:	454108a3          	sb	s4,1105(sp)
   19852:	44c10923          	sb	a2,1106(sp)
   19856:	45510513          	addi	a0,sp,1109
   1985a:	6585                	lui	a1,0x1
   1985c:	32058593          	addi	a1,a1,800 # 1320 <.Lline_table_start1+0x10f5>
   19860:	958a                	add	a1,a1,sp
   19862:	02b00613          	li	a2,43
   19866:	00003097          	auipc	ra,0x3
   1986a:	2b6080e7          	jalr	694(ra) # 1cb1c <memcpy>
   1986e:	6505                	lui	a0,0x1
   19870:	37c50513          	addi	a0,a0,892 # 137c <.Lline_table_start1+0x1151>
   19874:	950a                	add	a0,a0,sp
   19876:	44e10593          	addi	a1,sp,1102
   1987a:	ffffa097          	auipc	ra,0xffffa
   1987e:	cbc080e7          	jalr	-836(ra) # 13536 <_ZN20complex_full_dynamic3app17h63747fd9cc0037dfE>
   19882:	3ecb4503          	lbu	a0,1004(s6)
   19886:	c501                	beqz	a0,1988e <_start+0x1a1c>
   19888:	3f0b2a03          	lw	s4,1008(s6)
   1988c:	a81d                	j	198c2 <_start+0x1a50>
   1988e:	3eeb4583          	lbu	a1,1006(s6)
   19892:	3edb4603          	lbu	a2,1005(s6)
   19896:	3efb4683          	lbu	a3,1007(s6)
   1989a:	3f0b2a03          	lw	s4,1008(s6)
   1989e:	05a2                	slli	a1,a1,0x8
   198a0:	8dd1                	or	a1,a1,a2
   198a2:	3f4b2603          	lw	a2,1012(s6)
   198a6:	3f8b2703          	lw	a4,1016(s6)
   198aa:	3fcb4783          	lbu	a5,1020(s6)
   198ae:	00b11223          	sh	a1,4(sp)
   198b2:	00d10323          	sb	a3,6(sp)
   198b6:	38cb2823          	sw	a2,912(s6)
   198ba:	38eb2a23          	sw	a4,916(s6)
   198be:	38fb0c23          	sb	a5,920(s6)
   198c2:	c119                	beqz	a0,198c8 <_start+0x1a56>
   198c4:	11c0306f          	j	1c9e0 <_start+0x4b6e>
   198c8:	00411503          	lh	a0,4(sp)
   198cc:	00614583          	lbu	a1,6(sp)
   198d0:	018a5613          	srli	a2,s4,0x18
   198d4:	010a5693          	srli	a3,s4,0x10
   198d8:	48d102a3          	sb	a3,1157(sp)
   198dc:	48c10323          	sb	a2,1158(sp)
   198e0:	008a5613          	srli	a2,s4,0x8
   198e4:	48a11023          	sh	a0,1152(sp)
   198e8:	48b10123          	sb	a1,1154(sp)
   198ec:	494101a3          	sb	s4,1155(sp)
   198f0:	48c10223          	sb	a2,1156(sp)
   198f4:	48710513          	addi	a0,sp,1159
   198f8:	6585                	lui	a1,0x1
   198fa:	32058593          	addi	a1,a1,800 # 1320 <.Lline_table_start1+0x10f5>
   198fe:	958a                	add	a1,a1,sp
   19900:	4625                	li	a2,9
   19902:	00003097          	auipc	ra,0x3
   19906:	21a080e7          	jalr	538(ra) # 1cb1c <memcpy>
   1990a:	6505                	lui	a0,0x1
   1990c:	37c50513          	addi	a0,a0,892 # 137c <.Lline_table_start1+0x1151>
   19910:	950a                	add	a0,a0,sp
   19912:	48010593          	addi	a1,sp,1152
   19916:	ffffb097          	auipc	ra,0xffffb
   1991a:	356080e7          	jalr	854(ra) # 14c6c <_ZN20complex_full_dynamic3app17h9af4a23827827e31E>
   1991e:	3ecb4403          	lbu	s0,1004(s6)
   19922:	c401                	beqz	s0,1992a <_start+0x1ab8>
   19924:	3f0b2a03          	lw	s4,1008(s6)
   19928:	a835                	j	19964 <_start+0x1af2>
   1992a:	3eeb4503          	lbu	a0,1006(s6)
   1992e:	3edb4583          	lbu	a1,1005(s6)
   19932:	3efb4603          	lbu	a2,1007(s6)
   19936:	3f0b2a03          	lw	s4,1008(s6)
   1993a:	0522                	slli	a0,a0,0x8
   1993c:	8d4d                	or	a0,a0,a1
   1993e:	00a11223          	sh	a0,4(sp)
   19942:	00c10323          	sb	a2,6(sp)
   19946:	6505                	lui	a0,0x1
   19948:	38450513          	addi	a0,a0,900 # 1384 <.Lline_table_start1+0x1159>
   1994c:	00a105b3          	add	a1,sp,a0
   19950:	6505                	lui	a0,0x1
   19952:	32050513          	addi	a0,a0,800 # 1320 <.Lline_table_start1+0x10f5>
   19956:	950a                	add	a0,a0,sp
   19958:	02f00613          	li	a2,47
   1995c:	00003097          	auipc	ra,0x3
   19960:	1c0080e7          	jalr	448(ra) # 1cb1c <memcpy>
   19964:	c019                	beqz	s0,1996a <_start+0x1af8>
   19966:	07a0306f          	j	1c9e0 <_start+0x4b6e>
   1996a:	00411503          	lh	a0,4(sp)
   1996e:	00614583          	lbu	a1,6(sp)
   19972:	018a5613          	srli	a2,s4,0x18
   19976:	010a5693          	srli	a3,s4,0x10
   1997a:	48d10aa3          	sb	a3,1173(sp)
   1997e:	48c10b23          	sb	a2,1174(sp)
   19982:	008a5613          	srli	a2,s4,0x8
   19986:	48a11823          	sh	a0,1168(sp)
   1998a:	48b10923          	sb	a1,1170(sp)
   1998e:	494109a3          	sb	s4,1171(sp)
   19992:	48c10a23          	sb	a2,1172(sp)
   19996:	49710513          	addi	a0,sp,1175
   1999a:	6585                	lui	a1,0x1
   1999c:	32058593          	addi	a1,a1,800 # 1320 <.Lline_table_start1+0x10f5>
   199a0:	958a                	add	a1,a1,sp
   199a2:	02f00613          	li	a2,47
   199a6:	00003097          	auipc	ra,0x3
   199aa:	176080e7          	jalr	374(ra) # 1cb1c <memcpy>
   199ae:	6505                	lui	a0,0x1
   199b0:	37c50513          	addi	a0,a0,892 # 137c <.Lline_table_start1+0x1151>
   199b4:	950a                	add	a0,a0,sp
   199b6:	49010593          	addi	a1,sp,1168
   199ba:	ffff9097          	auipc	ra,0xffff9
   199be:	6e6080e7          	jalr	1766(ra) # 130a0 <_ZN20complex_full_dynamic3app17h515fe7be6882b4efE>
   199c2:	3ecb4603          	lbu	a2,1004(s6)
   199c6:	c601                	beqz	a2,199ce <_start+0x1b5c>
   199c8:	3f0b2a03          	lw	s4,1008(s6)
   199cc:	a01d                	j	199f2 <_start+0x1b80>
   199ce:	3edb4683          	lbu	a3,1005(s6)
   199d2:	3eeb4703          	lbu	a4,1006(s6)
   199d6:	3efb4783          	lbu	a5,1007(s6)
   199da:	3f0b2a03          	lw	s4,1008(s6)
   199de:	3f4b2583          	lw	a1,1012(s6)
   199e2:	3f8b2503          	lw	a0,1016(s6)
   199e6:	0722                	slli	a4,a4,0x8
   199e8:	8ed9                	or	a3,a3,a4
   199ea:	38db1823          	sh	a3,912(s6)
   199ee:	38fb0923          	sb	a5,914(s6)
   199f2:	c219                	beqz	a2,199f8 <_start+0x1b86>
   199f4:	7ed0206f          	j	1c9e0 <_start+0x4b6e>
   199f8:	390b1803          	lh	a6,912(s6)
   199fc:	392b4683          	lbu	a3,914(s6)
   19a00:	018a5713          	srli	a4,s4,0x18
   19a04:	010a5793          	srli	a5,s4,0x10
   19a08:	008a5493          	srli	s1,s4,0x8
   19a0c:	0085d413          	srli	s0,a1,0x8
   19a10:	01855613          	srli	a2,a0,0x18
   19a14:	4cf105a3          	sb	a5,1227(sp)
   19a18:	4ce10623          	sb	a4,1228(sp)
   19a1c:	4cb106a3          	sb	a1,1229(sp)
   19a20:	4c810723          	sb	s0,1230(sp)
   19a24:	01055713          	srli	a4,a0,0x10
   19a28:	4ce109a3          	sb	a4,1235(sp)
   19a2c:	4cc10a23          	sb	a2,1236(sp)
   19a30:	0185d613          	srli	a2,a1,0x18
   19a34:	81c1                	srli	a1,a1,0x10
   19a36:	4d011323          	sh	a6,1222(sp)
   19a3a:	4cd10423          	sb	a3,1224(sp)
   19a3e:	4d4104a3          	sb	s4,1225(sp)
   19a42:	4c910523          	sb	s1,1226(sp)
   19a46:	00855693          	srli	a3,a0,0x8
   19a4a:	4cb107a3          	sb	a1,1231(sp)
   19a4e:	4cc10823          	sb	a2,1232(sp)
   19a52:	4ca108a3          	sb	a0,1233(sp)
   19a56:	4cd10923          	sb	a3,1234(sp)
   19a5a:	6505                	lui	a0,0x1
   19a5c:	37c50513          	addi	a0,a0,892 # 137c <.Lline_table_start1+0x1151>
   19a60:	950a                	add	a0,a0,sp
   19a62:	4c610593          	addi	a1,sp,1222
   19a66:	ffff8097          	auipc	ra,0xffff8
   19a6a:	c9e080e7          	jalr	-866(ra) # 11704 <_ZN20complex_full_dynamic3app17h1d61062c0d7e304bE>
   19a6e:	3ecb4503          	lbu	a0,1004(s6)
   19a72:	c501                	beqz	a0,19a7a <_start+0x1c08>
   19a74:	3f0b2a03          	lw	s4,1008(s6)
   19a78:	a81d                	j	19aae <_start+0x1c3c>
   19a7a:	3eeb4583          	lbu	a1,1006(s6)
   19a7e:	3edb4603          	lbu	a2,1005(s6)
   19a82:	3efb4683          	lbu	a3,1007(s6)
   19a86:	3f0b2a03          	lw	s4,1008(s6)
   19a8a:	05a2                	slli	a1,a1,0x8
   19a8c:	8dd1                	or	a1,a1,a2
   19a8e:	3f4b2603          	lw	a2,1012(s6)
   19a92:	3f8b2703          	lw	a4,1016(s6)
   19a96:	3fcb2783          	lw	a5,1020(s6)
   19a9a:	00b11223          	sh	a1,4(sp)
   19a9e:	00d10323          	sb	a3,6(sp)
   19aa2:	38cb2823          	sw	a2,912(s6)
   19aa6:	38eb2a23          	sw	a4,916(s6)
   19aaa:	38fb2c23          	sw	a5,920(s6)
   19aae:	c119                	beqz	a0,19ab4 <_start+0x1c42>
   19ab0:	7310206f          	j	1c9e0 <_start+0x4b6e>
   19ab4:	00411503          	lh	a0,4(sp)
   19ab8:	00614583          	lbu	a1,6(sp)
   19abc:	018a5613          	srli	a2,s4,0x18
   19ac0:	010a5693          	srli	a3,s4,0x10
   19ac4:	4cd10da3          	sb	a3,1243(sp)
   19ac8:	4cc10e23          	sb	a2,1244(sp)
   19acc:	008a5613          	srli	a2,s4,0x8
   19ad0:	4ca11b23          	sh	a0,1238(sp)
   19ad4:	4cb10c23          	sb	a1,1240(sp)
   19ad8:	4d410ca3          	sb	s4,1241(sp)
   19adc:	4cc10d23          	sb	a2,1242(sp)
   19ae0:	4dd10513          	addi	a0,sp,1245
   19ae4:	6585                	lui	a1,0x1
   19ae6:	32058593          	addi	a1,a1,800 # 1320 <.Lline_table_start1+0x10f5>
   19aea:	958a                	add	a1,a1,sp
   19aec:	4631                	li	a2,12
   19aee:	00003097          	auipc	ra,0x3
   19af2:	02e080e7          	jalr	46(ra) # 1cb1c <memcpy>
   19af6:	6505                	lui	a0,0x1
   19af8:	37c50513          	addi	a0,a0,892 # 137c <.Lline_table_start1+0x1151>
   19afc:	950a                	add	a0,a0,sp
   19afe:	4d610593          	addi	a1,sp,1238
   19b02:	ffffb097          	auipc	ra,0xffffb
   19b06:	3be080e7          	jalr	958(ra) # 14ec0 <_ZN20complex_full_dynamic3app17h9db1b5bbc2a713ceE>
   19b0a:	3ecb4403          	lbu	s0,1004(s6)
   19b0e:	c401                	beqz	s0,19b16 <_start+0x1ca4>
   19b10:	3f0b2a03          	lw	s4,1008(s6)
   19b14:	a835                	j	19b50 <_start+0x1cde>
   19b16:	3eeb4503          	lbu	a0,1006(s6)
   19b1a:	3edb4583          	lbu	a1,1005(s6)
   19b1e:	3efb4603          	lbu	a2,1007(s6)
   19b22:	3f0b2a03          	lw	s4,1008(s6)
   19b26:	0522                	slli	a0,a0,0x8
   19b28:	8d4d                	or	a0,a0,a1
   19b2a:	00a11223          	sh	a0,4(sp)
   19b2e:	00c10323          	sb	a2,6(sp)
   19b32:	6505                	lui	a0,0x1
   19b34:	38450513          	addi	a0,a0,900 # 1384 <.Lline_table_start1+0x1159>
   19b38:	00a105b3          	add	a1,sp,a0
   19b3c:	6505                	lui	a0,0x1
   19b3e:	32050513          	addi	a0,a0,800 # 1320 <.Lline_table_start1+0x10f5>
   19b42:	950a                	add	a0,a0,sp
   19b44:	04e00613          	li	a2,78
   19b48:	00003097          	auipc	ra,0x3
   19b4c:	fd4080e7          	jalr	-44(ra) # 1cb1c <memcpy>
   19b50:	c019                	beqz	s0,19b56 <_start+0x1ce4>
   19b52:	68f0206f          	j	1c9e0 <_start+0x4b6e>
   19b56:	00411503          	lh	a0,4(sp)
   19b5a:	00614583          	lbu	a1,6(sp)
   19b5e:	018a5613          	srli	a2,s4,0x18
   19b62:	010a5693          	srli	a3,s4,0x10
   19b66:	4ed107a3          	sb	a3,1263(sp)
   19b6a:	4ec10823          	sb	a2,1264(sp)
   19b6e:	008a5613          	srli	a2,s4,0x8
   19b72:	4ea11523          	sh	a0,1258(sp)
   19b76:	4eb10623          	sb	a1,1260(sp)
   19b7a:	4f4106a3          	sb	s4,1261(sp)
   19b7e:	4ec10723          	sb	a2,1262(sp)
   19b82:	4f110513          	addi	a0,sp,1265
   19b86:	6585                	lui	a1,0x1
   19b88:	32058593          	addi	a1,a1,800 # 1320 <.Lline_table_start1+0x10f5>
   19b8c:	958a                	add	a1,a1,sp
   19b8e:	04e00613          	li	a2,78
   19b92:	00003097          	auipc	ra,0x3
   19b96:	f8a080e7          	jalr	-118(ra) # 1cb1c <memcpy>
   19b9a:	6505                	lui	a0,0x1
   19b9c:	37c50513          	addi	a0,a0,892 # 137c <.Lline_table_start1+0x1151>
   19ba0:	950a                	add	a0,a0,sp
   19ba2:	4ea10593          	addi	a1,sp,1258
   19ba6:	ffff7097          	auipc	ra,0xffff7
   19baa:	58e080e7          	jalr	1422(ra) # 11134 <_ZN20complex_full_dynamic3app17h004510df495828deE>
   19bae:	3ecb4403          	lbu	s0,1004(s6)
   19bb2:	c401                	beqz	s0,19bba <_start+0x1d48>
   19bb4:	3f0b2a03          	lw	s4,1008(s6)
   19bb8:	a835                	j	19bf4 <_start+0x1d82>
   19bba:	3eeb4503          	lbu	a0,1006(s6)
   19bbe:	3edb4583          	lbu	a1,1005(s6)
   19bc2:	3efb4603          	lbu	a2,1007(s6)
   19bc6:	3f0b2a03          	lw	s4,1008(s6)
   19bca:	0522                	slli	a0,a0,0x8
   19bcc:	8d4d                	or	a0,a0,a1
   19bce:	00a11223          	sh	a0,4(sp)
   19bd2:	00c10323          	sb	a2,6(sp)
   19bd6:	6505                	lui	a0,0x1
   19bd8:	38450513          	addi	a0,a0,900 # 1384 <.Lline_table_start1+0x1159>
   19bdc:	00a105b3          	add	a1,sp,a0
   19be0:	6505                	lui	a0,0x1
   19be2:	32050513          	addi	a0,a0,800 # 1320 <.Lline_table_start1+0x10f5>
   19be6:	950a                	add	a0,a0,sp
   19be8:	02b00613          	li	a2,43
   19bec:	00003097          	auipc	ra,0x3
   19bf0:	f30080e7          	jalr	-208(ra) # 1cb1c <memcpy>
   19bf4:	c019                	beqz	s0,19bfa <_start+0x1d88>
   19bf6:	5eb0206f          	j	1c9e0 <_start+0x4b6e>
   19bfa:	00411503          	lh	a0,4(sp)
   19bfe:	00614583          	lbu	a1,6(sp)
   19c02:	018a5613          	srli	a2,s4,0x18
   19c06:	010a5693          	srli	a3,s4,0x10
   19c0a:	54d102a3          	sb	a3,1349(sp)
   19c0e:	54c10323          	sb	a2,1350(sp)
   19c12:	008a5613          	srli	a2,s4,0x8
   19c16:	54a11023          	sh	a0,1344(sp)
   19c1a:	54b10123          	sb	a1,1346(sp)
   19c1e:	554101a3          	sb	s4,1347(sp)
   19c22:	54c10223          	sb	a2,1348(sp)
   19c26:	54710513          	addi	a0,sp,1351
   19c2a:	6585                	lui	a1,0x1
   19c2c:	32058593          	addi	a1,a1,800 # 1320 <.Lline_table_start1+0x10f5>
   19c30:	958a                	add	a1,a1,sp
   19c32:	02b00613          	li	a2,43
   19c36:	00003097          	auipc	ra,0x3
   19c3a:	ee6080e7          	jalr	-282(ra) # 1cb1c <memcpy>
   19c3e:	6505                	lui	a0,0x1
   19c40:	37c50513          	addi	a0,a0,892 # 137c <.Lline_table_start1+0x1151>
   19c44:	950a                	add	a0,a0,sp
   19c46:	54010593          	addi	a1,sp,1344
   19c4a:	ffff8097          	auipc	ra,0xffff8
   19c4e:	082080e7          	jalr	130(ra) # 11ccc <_ZN20complex_full_dynamic3app17h267703671b32fda5E>
   19c52:	3ecb4403          	lbu	s0,1004(s6)
   19c56:	c401                	beqz	s0,19c5e <_start+0x1dec>
   19c58:	3f0b2a03          	lw	s4,1008(s6)
   19c5c:	a835                	j	19c98 <_start+0x1e26>
   19c5e:	3eeb4503          	lbu	a0,1006(s6)
   19c62:	3edb4583          	lbu	a1,1005(s6)
   19c66:	3efb4603          	lbu	a2,1007(s6)
   19c6a:	3f0b2a03          	lw	s4,1008(s6)
   19c6e:	0522                	slli	a0,a0,0x8
   19c70:	8d4d                	or	a0,a0,a1
   19c72:	00a11223          	sh	a0,4(sp)
   19c76:	00c10323          	sb	a2,6(sp)
   19c7a:	6505                	lui	a0,0x1
   19c7c:	38450513          	addi	a0,a0,900 # 1384 <.Lline_table_start1+0x1159>
   19c80:	00a105b3          	add	a1,sp,a0
   19c84:	6505                	lui	a0,0x1
   19c86:	32050513          	addi	a0,a0,800 # 1320 <.Lline_table_start1+0x10f5>
   19c8a:	950a                	add	a0,a0,sp
   19c8c:	03a00613          	li	a2,58
   19c90:	00003097          	auipc	ra,0x3
   19c94:	e8c080e7          	jalr	-372(ra) # 1cb1c <memcpy>
   19c98:	c019                	beqz	s0,19c9e <_start+0x1e2c>
   19c9a:	5470206f          	j	1c9e0 <_start+0x4b6e>
   19c9e:	00411503          	lh	a0,4(sp)
   19ca2:	00614583          	lbu	a1,6(sp)
   19ca6:	018a5613          	srli	a2,s4,0x18
   19caa:	010a5693          	srli	a3,s4,0x10
   19cae:	56d10ba3          	sb	a3,1399(sp)
   19cb2:	56c10c23          	sb	a2,1400(sp)
   19cb6:	008a5613          	srli	a2,s4,0x8
   19cba:	56a11923          	sh	a0,1394(sp)
   19cbe:	56b10a23          	sb	a1,1396(sp)
   19cc2:	57410aa3          	sb	s4,1397(sp)
   19cc6:	56c10b23          	sb	a2,1398(sp)
   19cca:	57910513          	addi	a0,sp,1401
   19cce:	6585                	lui	a1,0x1
   19cd0:	32058593          	addi	a1,a1,800 # 1320 <.Lline_table_start1+0x10f5>
   19cd4:	958a                	add	a1,a1,sp
   19cd6:	03a00613          	li	a2,58
   19cda:	00003097          	auipc	ra,0x3
   19cde:	e42080e7          	jalr	-446(ra) # 1cb1c <memcpy>
   19ce2:	6505                	lui	a0,0x1
   19ce4:	37c50513          	addi	a0,a0,892 # 137c <.Lline_table_start1+0x1151>
   19ce8:	950a                	add	a0,a0,sp
   19cea:	57210593          	addi	a1,sp,1394
   19cee:	ffffe097          	auipc	ra,0xffffe
   19cf2:	828080e7          	jalr	-2008(ra) # 17516 <_ZN20complex_full_dynamic3app17hf716362ca56cc11eE>
   19cf6:	3ecb4503          	lbu	a0,1004(s6)
   19cfa:	c501                	beqz	a0,19d02 <_start+0x1e90>
   19cfc:	3f0b2a03          	lw	s4,1008(s6)
   19d00:	a8b9                	j	19d5e <_start+0x1eec>
   19d02:	3edb4583          	lbu	a1,1005(s6)
   19d06:	3eeb4603          	lbu	a2,1006(s6)
   19d0a:	3efb4683          	lbu	a3,1007(s6)
   19d0e:	3f0b2a03          	lw	s4,1008(s6)
   19d12:	3f4b2703          	lw	a4,1012(s6)
   19d16:	3f8b2783          	lw	a5,1016(s6)
   19d1a:	3fcb2483          	lw	s1,1020(s6)
   19d1e:	400b2403          	lw	s0,1024(s6)
   19d22:	0622                	slli	a2,a2,0x8
   19d24:	38eb2823          	sw	a4,912(s6)
   19d28:	38fb2a23          	sw	a5,916(s6)
   19d2c:	389b2c23          	sw	s1,920(s6)
   19d30:	388b2e23          	sw	s0,924(s6)
   19d34:	8dd1                	or	a1,a1,a2
   19d36:	00b11223          	sh	a1,4(sp)
   19d3a:	00d10323          	sb	a3,6(sp)
   19d3e:	404b2583          	lw	a1,1028(s6)
   19d42:	408b2603          	lw	a2,1032(s6)
   19d46:	40cb1683          	lh	a3,1036(s6)
   19d4a:	40eb4703          	lbu	a4,1038(s6)
   19d4e:	3abb2023          	sw	a1,928(s6)
   19d52:	3acb2223          	sw	a2,932(s6)
   19d56:	3adb1423          	sh	a3,936(s6)
   19d5a:	3aeb0523          	sb	a4,938(s6)
   19d5e:	c119                	beqz	a0,19d64 <_start+0x1ef2>
   19d60:	4810206f          	j	1c9e0 <_start+0x4b6e>
   19d64:	00411503          	lh	a0,4(sp)
   19d68:	00614583          	lbu	a1,6(sp)
   19d6c:	018a5613          	srli	a2,s4,0x18
   19d70:	010a5693          	srli	a3,s4,0x10
   19d74:	5ad10ca3          	sb	a3,1465(sp)
   19d78:	5ac10d23          	sb	a2,1466(sp)
   19d7c:	008a5613          	srli	a2,s4,0x8
   19d80:	5aa11a23          	sh	a0,1460(sp)
   19d84:	5ab10b23          	sb	a1,1462(sp)
   19d88:	5b410ba3          	sb	s4,1463(sp)
   19d8c:	5ac10c23          	sb	a2,1464(sp)
   19d90:	5bb10513          	addi	a0,sp,1467
   19d94:	6585                	lui	a1,0x1
   19d96:	32058593          	addi	a1,a1,800 # 1320 <.Lline_table_start1+0x10f5>
   19d9a:	958a                	add	a1,a1,sp
   19d9c:	466d                	li	a2,27
   19d9e:	00003097          	auipc	ra,0x3
   19da2:	d7e080e7          	jalr	-642(ra) # 1cb1c <memcpy>
   19da6:	6505                	lui	a0,0x1
   19da8:	37c50513          	addi	a0,a0,892 # 137c <.Lline_table_start1+0x1151>
   19dac:	950a                	add	a0,a0,sp
   19dae:	5b410593          	addi	a1,sp,1460
   19db2:	ffff9097          	auipc	ra,0xffff9
   19db6:	096080e7          	jalr	150(ra) # 12e48 <_ZN20complex_full_dynamic3app17h4d0dd7f521ce118bE>
   19dba:	3ecb4403          	lbu	s0,1004(s6)
   19dbe:	c401                	beqz	s0,19dc6 <_start+0x1f54>
   19dc0:	3f0b2a03          	lw	s4,1008(s6)
   19dc4:	a835                	j	19e00 <_start+0x1f8e>
   19dc6:	3eeb4503          	lbu	a0,1006(s6)
   19dca:	3edb4583          	lbu	a1,1005(s6)
   19dce:	3efb4603          	lbu	a2,1007(s6)
   19dd2:	3f0b2a03          	lw	s4,1008(s6)
   19dd6:	0522                	slli	a0,a0,0x8
   19dd8:	8d4d                	or	a0,a0,a1
   19dda:	00a11223          	sh	a0,4(sp)
   19dde:	00c10323          	sb	a2,6(sp)
   19de2:	6505                	lui	a0,0x1
   19de4:	38450513          	addi	a0,a0,900 # 1384 <.Lline_table_start1+0x1159>
   19de8:	00a105b3          	add	a1,sp,a0
   19dec:	6505                	lui	a0,0x1
   19dee:	32050513          	addi	a0,a0,800 # 1320 <.Lline_table_start1+0x10f5>
   19df2:	950a                	add	a0,a0,sp
   19df4:	04a00613          	li	a2,74
   19df8:	00003097          	auipc	ra,0x3
   19dfc:	d24080e7          	jalr	-732(ra) # 1cb1c <memcpy>
   19e00:	c019                	beqz	s0,19e06 <_start+0x1f94>
   19e02:	3df0206f          	j	1c9e0 <_start+0x4b6e>
   19e06:	00411503          	lh	a0,4(sp)
   19e0a:	00614583          	lbu	a1,6(sp)
   19e0e:	018a5613          	srli	a2,s4,0x18
   19e12:	010a5693          	srli	a3,s4,0x10
   19e16:	5cd10da3          	sb	a3,1499(sp)
   19e1a:	5cc10e23          	sb	a2,1500(sp)
   19e1e:	008a5613          	srli	a2,s4,0x8
   19e22:	5ca11b23          	sh	a0,1494(sp)
   19e26:	5cb10c23          	sb	a1,1496(sp)
   19e2a:	5d410ca3          	sb	s4,1497(sp)
   19e2e:	5cc10d23          	sb	a2,1498(sp)
   19e32:	5dd10513          	addi	a0,sp,1501
   19e36:	6585                	lui	a1,0x1
   19e38:	32058593          	addi	a1,a1,800 # 1320 <.Lline_table_start1+0x10f5>
   19e3c:	958a                	add	a1,a1,sp
   19e3e:	04a00613          	li	a2,74
   19e42:	00003097          	auipc	ra,0x3
   19e46:	cda080e7          	jalr	-806(ra) # 1cb1c <memcpy>
   19e4a:	6505                	lui	a0,0x1
   19e4c:	37c50513          	addi	a0,a0,892 # 137c <.Lline_table_start1+0x1151>
   19e50:	950a                	add	a0,a0,sp
   19e52:	5d610593          	addi	a1,sp,1494
   19e56:	ffffa097          	auipc	ra,0xffffa
   19e5a:	144080e7          	jalr	324(ra) # 13f9a <_ZN20complex_full_dynamic3app17h8ba21468e89739b4E>
   19e5e:	3ecb4403          	lbu	s0,1004(s6)
   19e62:	c401                	beqz	s0,19e6a <_start+0x1ff8>
   19e64:	3f0b2a03          	lw	s4,1008(s6)
   19e68:	a835                	j	19ea4 <_start+0x2032>
   19e6a:	3eeb4503          	lbu	a0,1006(s6)
   19e6e:	3edb4583          	lbu	a1,1005(s6)
   19e72:	3efb4603          	lbu	a2,1007(s6)
   19e76:	3f0b2a03          	lw	s4,1008(s6)
   19e7a:	0522                	slli	a0,a0,0x8
   19e7c:	8d4d                	or	a0,a0,a1
   19e7e:	00a11223          	sh	a0,4(sp)
   19e82:	00c10323          	sb	a2,6(sp)
   19e86:	6505                	lui	a0,0x1
   19e88:	38450513          	addi	a0,a0,900 # 1384 <.Lline_table_start1+0x1159>
   19e8c:	00a105b3          	add	a1,sp,a0
   19e90:	6505                	lui	a0,0x1
   19e92:	32050513          	addi	a0,a0,800 # 1320 <.Lline_table_start1+0x10f5>
   19e96:	950a                	add	a0,a0,sp
   19e98:	04800613          	li	a2,72
   19e9c:	00003097          	auipc	ra,0x3
   19ea0:	c80080e7          	jalr	-896(ra) # 1cb1c <memcpy>
   19ea4:	c019                	beqz	s0,19eaa <_start+0x2038>
   19ea6:	33b0206f          	j	1c9e0 <_start+0x4b6e>
   19eaa:	00411503          	lh	a0,4(sp)
   19eae:	00614583          	lbu	a1,6(sp)
   19eb2:	018a5613          	srli	a2,s4,0x18
   19eb6:	010a5693          	srli	a3,s4,0x10
   19eba:	62d106a3          	sb	a3,1581(sp)
   19ebe:	62c10723          	sb	a2,1582(sp)
   19ec2:	008a5613          	srli	a2,s4,0x8
   19ec6:	62a11423          	sh	a0,1576(sp)
   19eca:	62b10523          	sb	a1,1578(sp)
   19ece:	634105a3          	sb	s4,1579(sp)
   19ed2:	62c10623          	sb	a2,1580(sp)
   19ed6:	62f10513          	addi	a0,sp,1583
   19eda:	6585                	lui	a1,0x1
   19edc:	32058593          	addi	a1,a1,800 # 1320 <.Lline_table_start1+0x10f5>
   19ee0:	958a                	add	a1,a1,sp
   19ee2:	04800613          	li	a2,72
   19ee6:	00003097          	auipc	ra,0x3
   19eea:	c36080e7          	jalr	-970(ra) # 1cb1c <memcpy>
   19eee:	6505                	lui	a0,0x1
   19ef0:	37c50513          	addi	a0,a0,892 # 137c <.Lline_table_start1+0x1151>
   19ef4:	950a                	add	a0,a0,sp
   19ef6:	62810593          	addi	a1,sp,1576
   19efa:	ffff9097          	auipc	ra,0xffff9
   19efe:	980080e7          	jalr	-1664(ra) # 1287a <_ZN20complex_full_dynamic3app17h3d45905544e8e8f2E>
   19f02:	3ecb4403          	lbu	s0,1004(s6)
   19f06:	c401                	beqz	s0,19f0e <_start+0x209c>
   19f08:	3f0b2a03          	lw	s4,1008(s6)
   19f0c:	a835                	j	19f48 <_start+0x20d6>
   19f0e:	3eeb4503          	lbu	a0,1006(s6)
   19f12:	3edb4583          	lbu	a1,1005(s6)
   19f16:	3efb4603          	lbu	a2,1007(s6)
   19f1a:	3f0b2a03          	lw	s4,1008(s6)
   19f1e:	0522                	slli	a0,a0,0x8
   19f20:	8d4d                	or	a0,a0,a1
   19f22:	00a11223          	sh	a0,4(sp)
   19f26:	00c10323          	sb	a2,6(sp)
   19f2a:	6505                	lui	a0,0x1
   19f2c:	38450513          	addi	a0,a0,900 # 1384 <.Lline_table_start1+0x1159>
   19f30:	00a105b3          	add	a1,sp,a0
   19f34:	6505                	lui	a0,0x1
   19f36:	32050513          	addi	a0,a0,800 # 1320 <.Lline_table_start1+0x10f5>
   19f3a:	950a                	add	a0,a0,sp
   19f3c:	03400613          	li	a2,52
   19f40:	00003097          	auipc	ra,0x3
   19f44:	bdc080e7          	jalr	-1060(ra) # 1cb1c <memcpy>
   19f48:	c019                	beqz	s0,19f4e <_start+0x20dc>
   19f4a:	2970206f          	j	1c9e0 <_start+0x4b6e>
   19f4e:	00411503          	lh	a0,4(sp)
   19f52:	00614583          	lbu	a1,6(sp)
   19f56:	018a5613          	srli	a2,s4,0x18
   19f5a:	010a5693          	srli	a3,s4,0x10
   19f5e:	66d10ea3          	sb	a3,1661(sp)
   19f62:	66c10f23          	sb	a2,1662(sp)
   19f66:	008a5613          	srli	a2,s4,0x8
   19f6a:	66a11c23          	sh	a0,1656(sp)
   19f6e:	66b10d23          	sb	a1,1658(sp)
   19f72:	67410da3          	sb	s4,1659(sp)
   19f76:	66c10e23          	sb	a2,1660(sp)
   19f7a:	67f10513          	addi	a0,sp,1663
   19f7e:	6585                	lui	a1,0x1
   19f80:	32058593          	addi	a1,a1,800 # 1320 <.Lline_table_start1+0x10f5>
   19f84:	958a                	add	a1,a1,sp
   19f86:	03400613          	li	a2,52
   19f8a:	00003097          	auipc	ra,0x3
   19f8e:	b92080e7          	jalr	-1134(ra) # 1cb1c <memcpy>
   19f92:	6505                	lui	a0,0x1
   19f94:	37c50513          	addi	a0,a0,892 # 137c <.Lline_table_start1+0x1151>
   19f98:	950a                	add	a0,a0,sp
   19f9a:	67810593          	addi	a1,sp,1656
   19f9e:	ffffd097          	auipc	ra,0xffffd
   19fa2:	c1c080e7          	jalr	-996(ra) # 16bba <_ZN20complex_full_dynamic3app17he29c90cc4e2ee72dE>
   19fa6:	3ecb4503          	lbu	a0,1004(s6)
   19faa:	c501                	beqz	a0,19fb2 <_start+0x2140>
   19fac:	3f0b2a03          	lw	s4,1008(s6)
   19fb0:	a8b9                	j	1a00e <_start+0x219c>
   19fb2:	3edb4583          	lbu	a1,1005(s6)
   19fb6:	3eeb4603          	lbu	a2,1006(s6)
   19fba:	3efb4683          	lbu	a3,1007(s6)
   19fbe:	3f0b2a03          	lw	s4,1008(s6)
   19fc2:	3f4b2703          	lw	a4,1012(s6)
   19fc6:	3f8b2783          	lw	a5,1016(s6)
   19fca:	3fcb2483          	lw	s1,1020(s6)
   19fce:	400b2403          	lw	s0,1024(s6)
   19fd2:	0622                	slli	a2,a2,0x8
   19fd4:	38eb2823          	sw	a4,912(s6)
   19fd8:	38fb2a23          	sw	a5,916(s6)
   19fdc:	389b2c23          	sw	s1,920(s6)
   19fe0:	388b2e23          	sw	s0,924(s6)
   19fe4:	8dd1                	or	a1,a1,a2
   19fe6:	00b11223          	sh	a1,4(sp)
   19fea:	00d10323          	sb	a3,6(sp)
   19fee:	404b2583          	lw	a1,1028(s6)
   19ff2:	408b2603          	lw	a2,1032(s6)
   19ff6:	40cb2683          	lw	a3,1036(s6)
   19ffa:	410b2703          	lw	a4,1040(s6)
   19ffe:	3abb2023          	sw	a1,928(s6)
   1a002:	3acb2223          	sw	a2,932(s6)
   1a006:	3adb2423          	sw	a3,936(s6)
   1a00a:	3aeb2623          	sw	a4,940(s6)
   1a00e:	c119                	beqz	a0,1a014 <_start+0x21a2>
   1a010:	1d10206f          	j	1c9e0 <_start+0x4b6e>
   1a014:	00411503          	lh	a0,4(sp)
   1a018:	00614583          	lbu	a1,6(sp)
   1a01c:	018a5613          	srli	a2,s4,0x18
   1a020:	010a5693          	srli	a3,s4,0x10
   1a024:	6ad10ca3          	sb	a3,1721(sp)
   1a028:	6ac10d23          	sb	a2,1722(sp)
   1a02c:	008a5613          	srli	a2,s4,0x8
   1a030:	6aa11a23          	sh	a0,1716(sp)
   1a034:	6ab10b23          	sb	a1,1718(sp)
   1a038:	6b410ba3          	sb	s4,1719(sp)
   1a03c:	6ac10c23          	sb	a2,1720(sp)
   1a040:	6bb10513          	addi	a0,sp,1723
   1a044:	6585                	lui	a1,0x1
   1a046:	32058593          	addi	a1,a1,800 # 1320 <.Lline_table_start1+0x10f5>
   1a04a:	958a                	add	a1,a1,sp
   1a04c:	02000613          	li	a2,32
   1a050:	00003097          	auipc	ra,0x3
   1a054:	acc080e7          	jalr	-1332(ra) # 1cb1c <memcpy>
   1a058:	6505                	lui	a0,0x1
   1a05a:	37c50513          	addi	a0,a0,892 # 137c <.Lline_table_start1+0x1151>
   1a05e:	950a                	add	a0,a0,sp
   1a060:	6b410593          	addi	a1,sp,1716
   1a064:	ffff8097          	auipc	ra,0xffff8
   1a068:	a1a080e7          	jalr	-1510(ra) # 11a7e <_ZN20complex_full_dynamic3app17h232ec4f7685b1dcaE>
   1a06c:	3ecb4503          	lbu	a0,1004(s6)
   1a070:	c501                	beqz	a0,1a078 <_start+0x2206>
   1a072:	3f0b2a03          	lw	s4,1008(s6)
   1a076:	a83d                	j	1a0b4 <_start+0x2242>
   1a078:	3eeb4583          	lbu	a1,1006(s6)
   1a07c:	3edb4603          	lbu	a2,1005(s6)
   1a080:	3efb4683          	lbu	a3,1007(s6)
   1a084:	3f0b2a03          	lw	s4,1008(s6)
   1a088:	05a2                	slli	a1,a1,0x8
   1a08a:	8dd1                	or	a1,a1,a2
   1a08c:	00b11223          	sh	a1,4(sp)
   1a090:	00d10323          	sb	a3,6(sp)
   1a094:	3f4b2583          	lw	a1,1012(s6)
   1a098:	3f8b2603          	lw	a2,1016(s6)
   1a09c:	3fcb2683          	lw	a3,1020(s6)
   1a0a0:	400b4703          	lbu	a4,1024(s6)
   1a0a4:	38bb2823          	sw	a1,912(s6)
   1a0a8:	38cb2a23          	sw	a2,916(s6)
   1a0ac:	38db2c23          	sw	a3,920(s6)
   1a0b0:	38eb0e23          	sb	a4,924(s6)
   1a0b4:	c119                	beqz	a0,1a0ba <_start+0x2248>
   1a0b6:	12b0206f          	j	1c9e0 <_start+0x4b6e>
   1a0ba:	00411503          	lh	a0,4(sp)
   1a0be:	00614583          	lbu	a1,6(sp)
   1a0c2:	018a5613          	srli	a2,s4,0x18
   1a0c6:	010a5693          	srli	a3,s4,0x10
   1a0ca:	6ed100a3          	sb	a3,1761(sp)
   1a0ce:	6ec10123          	sb	a2,1762(sp)
   1a0d2:	008a5613          	srli	a2,s4,0x8
   1a0d6:	6ca11e23          	sh	a0,1756(sp)
   1a0da:	6cb10f23          	sb	a1,1758(sp)
   1a0de:	6d410fa3          	sb	s4,1759(sp)
   1a0e2:	6ec10023          	sb	a2,1760(sp)
   1a0e6:	6e310513          	addi	a0,sp,1763
   1a0ea:	6585                	lui	a1,0x1
   1a0ec:	32058593          	addi	a1,a1,800 # 1320 <.Lline_table_start1+0x10f5>
   1a0f0:	958a                	add	a1,a1,sp
   1a0f2:	4635                	li	a2,13
   1a0f4:	00003097          	auipc	ra,0x3
   1a0f8:	a28080e7          	jalr	-1496(ra) # 1cb1c <memcpy>
   1a0fc:	6505                	lui	a0,0x1
   1a0fe:	37c50513          	addi	a0,a0,892 # 137c <.Lline_table_start1+0x1151>
   1a102:	950a                	add	a0,a0,sp
   1a104:	6dc10593          	addi	a1,sp,1756
   1a108:	ffffc097          	auipc	ra,0xffffc
   1a10c:	618080e7          	jalr	1560(ra) # 16720 <_ZN20complex_full_dynamic3app17hde92fe2455fb5d1eE>
   1a110:	3ecb4403          	lbu	s0,1004(s6)
   1a114:	c401                	beqz	s0,1a11c <_start+0x22aa>
   1a116:	3f0b2a03          	lw	s4,1008(s6)
   1a11a:	a835                	j	1a156 <_start+0x22e4>
   1a11c:	3eeb4503          	lbu	a0,1006(s6)
   1a120:	3edb4583          	lbu	a1,1005(s6)
   1a124:	3efb4603          	lbu	a2,1007(s6)
   1a128:	3f0b2a03          	lw	s4,1008(s6)
   1a12c:	0522                	slli	a0,a0,0x8
   1a12e:	8d4d                	or	a0,a0,a1
   1a130:	00a11223          	sh	a0,4(sp)
   1a134:	00c10323          	sb	a2,6(sp)
   1a138:	6505                	lui	a0,0x1
   1a13a:	38450513          	addi	a0,a0,900 # 1384 <.Lline_table_start1+0x1159>
   1a13e:	00a105b3          	add	a1,sp,a0
   1a142:	6505                	lui	a0,0x1
   1a144:	32050513          	addi	a0,a0,800 # 1320 <.Lline_table_start1+0x10f5>
   1a148:	950a                	add	a0,a0,sp
   1a14a:	02400613          	li	a2,36
   1a14e:	00003097          	auipc	ra,0x3
   1a152:	9ce080e7          	jalr	-1586(ra) # 1cb1c <memcpy>
   1a156:	c019                	beqz	s0,1a15c <_start+0x22ea>
   1a158:	0890206f          	j	1c9e0 <_start+0x4b6e>
   1a15c:	00411503          	lh	a0,4(sp)
   1a160:	00614583          	lbu	a1,6(sp)
   1a164:	018a5613          	srli	a2,s4,0x18
   1a168:	010a5693          	srli	a3,s4,0x10
   1a16c:	6ed10aa3          	sb	a3,1781(sp)
   1a170:	6ec10b23          	sb	a2,1782(sp)
   1a174:	008a5613          	srli	a2,s4,0x8
   1a178:	6ea11823          	sh	a0,1776(sp)
   1a17c:	6eb10923          	sb	a1,1778(sp)
   1a180:	6f4109a3          	sb	s4,1779(sp)
   1a184:	6ec10a23          	sb	a2,1780(sp)
   1a188:	6f710513          	addi	a0,sp,1783
   1a18c:	6585                	lui	a1,0x1
   1a18e:	32058593          	addi	a1,a1,800 # 1320 <.Lline_table_start1+0x10f5>
   1a192:	958a                	add	a1,a1,sp
   1a194:	02400613          	li	a2,36
   1a198:	00003097          	auipc	ra,0x3
   1a19c:	984080e7          	jalr	-1660(ra) # 1cb1c <memcpy>
   1a1a0:	6505                	lui	a0,0x1
   1a1a2:	37c50513          	addi	a0,a0,892 # 137c <.Lline_table_start1+0x1151>
   1a1a6:	950a                	add	a0,a0,sp
   1a1a8:	6f010593          	addi	a1,sp,1776
   1a1ac:	ffff8097          	auipc	ra,0xffff8
   1a1b0:	d7c080e7          	jalr	-644(ra) # 11f28 <_ZN20complex_full_dynamic3app17h2b231f3e2ccaee01E>
   1a1b4:	3ecb4503          	lbu	a0,1004(s6)
   1a1b8:	c501                	beqz	a0,1a1c0 <_start+0x234e>
   1a1ba:	3f0b2a03          	lw	s4,1008(s6)
   1a1be:	a899                	j	1a214 <_start+0x23a2>
   1a1c0:	3edb4583          	lbu	a1,1005(s6)
   1a1c4:	3eeb4603          	lbu	a2,1006(s6)
   1a1c8:	3efb4683          	lbu	a3,1007(s6)
   1a1cc:	3f0b2a03          	lw	s4,1008(s6)
   1a1d0:	3f4b2703          	lw	a4,1012(s6)
   1a1d4:	3f8b2783          	lw	a5,1016(s6)
   1a1d8:	3fcb2483          	lw	s1,1020(s6)
   1a1dc:	400b2403          	lw	s0,1024(s6)
   1a1e0:	0622                	slli	a2,a2,0x8
   1a1e2:	38eb2823          	sw	a4,912(s6)
   1a1e6:	38fb2a23          	sw	a5,916(s6)
   1a1ea:	389b2c23          	sw	s1,920(s6)
   1a1ee:	388b2e23          	sw	s0,924(s6)
   1a1f2:	8dd1                	or	a1,a1,a2
   1a1f4:	404b2603          	lw	a2,1028(s6)
   1a1f8:	408b1703          	lh	a4,1032(s6)
   1a1fc:	40ab4783          	lbu	a5,1034(s6)
   1a200:	00b11223          	sh	a1,4(sp)
   1a204:	00d10323          	sb	a3,6(sp)
   1a208:	3acb2023          	sw	a2,928(s6)
   1a20c:	3aeb1223          	sh	a4,932(s6)
   1a210:	3afb0323          	sb	a5,934(s6)
   1a214:	c119                	beqz	a0,1a21a <_start+0x23a8>
   1a216:	7ca0206f          	j	1c9e0 <_start+0x4b6e>
   1a21a:	00411503          	lh	a0,4(sp)
   1a21e:	00614583          	lbu	a1,6(sp)
   1a222:	018a5613          	srli	a2,s4,0x18
   1a226:	010a5693          	srli	a3,s4,0x10
   1a22a:	72d100a3          	sb	a3,1825(sp)
   1a22e:	72c10123          	sb	a2,1826(sp)
   1a232:	008a5613          	srli	a2,s4,0x8
   1a236:	70a11e23          	sh	a0,1820(sp)
   1a23a:	70b10f23          	sb	a1,1822(sp)
   1a23e:	71410fa3          	sb	s4,1823(sp)
   1a242:	72c10023          	sb	a2,1824(sp)
   1a246:	72310513          	addi	a0,sp,1827
   1a24a:	6585                	lui	a1,0x1
   1a24c:	32058593          	addi	a1,a1,800 # 1320 <.Lline_table_start1+0x10f5>
   1a250:	958a                	add	a1,a1,sp
   1a252:	465d                	li	a2,23
   1a254:	00003097          	auipc	ra,0x3
   1a258:	8c8080e7          	jalr	-1848(ra) # 1cb1c <memcpy>
   1a25c:	6505                	lui	a0,0x1
   1a25e:	37c50513          	addi	a0,a0,892 # 137c <.Lline_table_start1+0x1151>
   1a262:	950a                	add	a0,a0,sp
   1a264:	71c10593          	addi	a1,sp,1820
   1a268:	ffff7097          	auipc	ra,0xffff7
   1a26c:	126080e7          	jalr	294(ra) # 1138e <_ZN20complex_full_dynamic3app17h1181a95da0b5bef9E>
   1a270:	3ecb4403          	lbu	s0,1004(s6)
   1a274:	c401                	beqz	s0,1a27c <_start+0x240a>
   1a276:	3f0b2a03          	lw	s4,1008(s6)
   1a27a:	a835                	j	1a2b6 <_start+0x2444>
   1a27c:	3eeb4503          	lbu	a0,1006(s6)
   1a280:	3edb4583          	lbu	a1,1005(s6)
   1a284:	3efb4603          	lbu	a2,1007(s6)
   1a288:	3f0b2a03          	lw	s4,1008(s6)
   1a28c:	0522                	slli	a0,a0,0x8
   1a28e:	8d4d                	or	a0,a0,a1
   1a290:	00a11223          	sh	a0,4(sp)
   1a294:	00c10323          	sb	a2,6(sp)
   1a298:	6505                	lui	a0,0x1
   1a29a:	38450513          	addi	a0,a0,900 # 1384 <.Lline_table_start1+0x1159>
   1a29e:	00a105b3          	add	a1,sp,a0
   1a2a2:	6505                	lui	a0,0x1
   1a2a4:	32050513          	addi	a0,a0,800 # 1320 <.Lline_table_start1+0x10f5>
   1a2a8:	950a                	add	a0,a0,sp
   1a2aa:	04a00613          	li	a2,74
   1a2ae:	00003097          	auipc	ra,0x3
   1a2b2:	86e080e7          	jalr	-1938(ra) # 1cb1c <memcpy>
   1a2b6:	c019                	beqz	s0,1a2bc <_start+0x244a>
   1a2b8:	7280206f          	j	1c9e0 <_start+0x4b6e>
   1a2bc:	00411503          	lh	a0,4(sp)
   1a2c0:	00614583          	lbu	a1,6(sp)
   1a2c4:	018a5613          	srli	a2,s4,0x18
   1a2c8:	010a5693          	srli	a3,s4,0x10
   1a2cc:	72d10fa3          	sb	a3,1855(sp)
   1a2d0:	74c10023          	sb	a2,1856(sp)
   1a2d4:	008a5613          	srli	a2,s4,0x8
   1a2d8:	72a11d23          	sh	a0,1850(sp)
   1a2dc:	72b10e23          	sb	a1,1852(sp)
   1a2e0:	73410ea3          	sb	s4,1853(sp)
   1a2e4:	72c10f23          	sb	a2,1854(sp)
   1a2e8:	74110513          	addi	a0,sp,1857
   1a2ec:	6585                	lui	a1,0x1
   1a2ee:	32058593          	addi	a1,a1,800 # 1320 <.Lline_table_start1+0x10f5>
   1a2f2:	958a                	add	a1,a1,sp
   1a2f4:	04a00613          	li	a2,74
   1a2f8:	00003097          	auipc	ra,0x3
   1a2fc:	824080e7          	jalr	-2012(ra) # 1cb1c <memcpy>
   1a300:	6505                	lui	a0,0x1
   1a302:	37c50513          	addi	a0,a0,892 # 137c <.Lline_table_start1+0x1151>
   1a306:	950a                	add	a0,a0,sp
   1a308:	73a10593          	addi	a1,sp,1850
   1a30c:	ffff9097          	auipc	ra,0xffff9
   1a310:	106080e7          	jalr	262(ra) # 13412 <_ZN20complex_full_dynamic3app17h5cb1b89465af428bE>
   1a314:	3ecb4603          	lbu	a2,1004(s6)
   1a318:	c601                	beqz	a2,1a320 <_start+0x24ae>
   1a31a:	3f0b2a03          	lw	s4,1008(s6)
   1a31e:	a01d                	j	1a344 <_start+0x24d2>
   1a320:	3edb4683          	lbu	a3,1005(s6)
   1a324:	3eeb4703          	lbu	a4,1006(s6)
   1a328:	3efb4783          	lbu	a5,1007(s6)
   1a32c:	3f0b2a03          	lw	s4,1008(s6)
   1a330:	3f4b2583          	lw	a1,1012(s6)
   1a334:	3f8b2503          	lw	a0,1016(s6)
   1a338:	0722                	slli	a4,a4,0x8
   1a33a:	8ed9                	or	a3,a3,a4
   1a33c:	38db1823          	sh	a3,912(s6)
   1a340:	38fb0923          	sb	a5,914(s6)
   1a344:	c219                	beqz	a2,1a34a <_start+0x24d8>
   1a346:	69a0206f          	j	1c9e0 <_start+0x4b6e>
   1a34a:	78e10913          	addi	s2,sp,1934
   1a34e:	390b1803          	lh	a6,912(s6)
   1a352:	392b4683          	lbu	a3,914(s6)
   1a356:	018a5713          	srli	a4,s4,0x18
   1a35a:	010a5793          	srli	a5,s4,0x10
   1a35e:	008a5493          	srli	s1,s4,0x8
   1a362:	0085d413          	srli	s0,a1,0x8
   1a366:	01855613          	srli	a2,a0,0x18
   1a36a:	00f901a3          	sb	a5,3(s2)
   1a36e:	00e90223          	sb	a4,4(s2)
   1a372:	00b902a3          	sb	a1,5(s2)
   1a376:	00890323          	sb	s0,6(s2)
   1a37a:	01055713          	srli	a4,a0,0x10
   1a37e:	00e905a3          	sb	a4,11(s2)
   1a382:	00c90623          	sb	a2,12(s2)
   1a386:	0185d613          	srli	a2,a1,0x18
   1a38a:	81c1                	srli	a1,a1,0x10
   1a38c:	ff091f23          	sh	a6,-2(s2)
   1a390:	00d90023          	sb	a3,0(s2)
   1a394:	014900a3          	sb	s4,1(s2)
   1a398:	00990123          	sb	s1,2(s2)
   1a39c:	00855693          	srli	a3,a0,0x8
   1a3a0:	00b903a3          	sb	a1,7(s2)
   1a3a4:	00c90423          	sb	a2,8(s2)
   1a3a8:	00a904a3          	sb	a0,9(s2)
   1a3ac:	00d90523          	sb	a3,10(s2)
   1a3b0:	6505                	lui	a0,0x1
   1a3b2:	37c50513          	addi	a0,a0,892 # 137c <.Lline_table_start1+0x1151>
   1a3b6:	950a                	add	a0,a0,sp
   1a3b8:	78c10593          	addi	a1,sp,1932
   1a3bc:	ffffd097          	auipc	ra,0xffffd
   1a3c0:	dda080e7          	jalr	-550(ra) # 17196 <_ZN20complex_full_dynamic3app17hefa7d55365992308E>
   1a3c4:	3ecb4483          	lbu	s1,1004(s6)
   1a3c8:	c481                	beqz	s1,1a3d0 <_start+0x255e>
   1a3ca:	3f0b2a03          	lw	s4,1008(s6)
   1a3ce:	a835                	j	1a40a <_start+0x2598>
   1a3d0:	3eeb4503          	lbu	a0,1006(s6)
   1a3d4:	3edb4583          	lbu	a1,1005(s6)
   1a3d8:	3efb4603          	lbu	a2,1007(s6)
   1a3dc:	3f0b2a03          	lw	s4,1008(s6)
   1a3e0:	0522                	slli	a0,a0,0x8
   1a3e2:	8d4d                	or	a0,a0,a1
   1a3e4:	00a11223          	sh	a0,4(sp)
   1a3e8:	00c10323          	sb	a2,6(sp)
   1a3ec:	6505                	lui	a0,0x1
   1a3ee:	38450513          	addi	a0,a0,900 # 1384 <.Lline_table_start1+0x1159>
   1a3f2:	00a105b3          	add	a1,sp,a0
   1a3f6:	6505                	lui	a0,0x1
   1a3f8:	32050513          	addi	a0,a0,800 # 1320 <.Lline_table_start1+0x10f5>
   1a3fc:	950a                	add	a0,a0,sp
   1a3fe:	03f00613          	li	a2,63
   1a402:	00002097          	auipc	ra,0x2
   1a406:	71a080e7          	jalr	1818(ra) # 1cb1c <memcpy>
   1a40a:	c099                	beqz	s1,1a410 <_start+0x259e>
   1a40c:	5d40206f          	j	1c9e0 <_start+0x4b6e>
   1a410:	00411503          	lh	a0,4(sp)
   1a414:	00614583          	lbu	a1,6(sp)
   1a418:	018a5613          	srli	a2,s4,0x18
   1a41c:	010a5693          	srli	a3,s4,0x10
   1a420:	00d909a3          	sb	a3,19(s2)
   1a424:	00c90a23          	sb	a2,20(s2)
   1a428:	008a5613          	srli	a2,s4,0x8
   1a42c:	00a91723          	sh	a0,14(s2)
   1a430:	00b90823          	sb	a1,16(s2)
   1a434:	014908a3          	sb	s4,17(s2)
   1a438:	00c90923          	sb	a2,18(s2)
   1a43c:	7a310513          	addi	a0,sp,1955
   1a440:	6585                	lui	a1,0x1
   1a442:	32058593          	addi	a1,a1,800 # 1320 <.Lline_table_start1+0x10f5>
   1a446:	958a                	add	a1,a1,sp
   1a448:	03f00613          	li	a2,63
   1a44c:	00002097          	auipc	ra,0x2
   1a450:	6d0080e7          	jalr	1744(ra) # 1cb1c <memcpy>
   1a454:	6505                	lui	a0,0x1
   1a456:	37c50513          	addi	a0,a0,892 # 137c <.Lline_table_start1+0x1151>
   1a45a:	950a                	add	a0,a0,sp
   1a45c:	79c10593          	addi	a1,sp,1948
   1a460:	ffff8097          	auipc	ra,0xffff8
   1a464:	e40080e7          	jalr	-448(ra) # 122a0 <_ZN20complex_full_dynamic3app17h3465558d725a6166E>
   1a468:	3ecb4483          	lbu	s1,1004(s6)
   1a46c:	c481                	beqz	s1,1a474 <_start+0x2602>
   1a46e:	3f0b2a03          	lw	s4,1008(s6)
   1a472:	a835                	j	1a4ae <_start+0x263c>
   1a474:	3eeb4503          	lbu	a0,1006(s6)
   1a478:	3edb4583          	lbu	a1,1005(s6)
   1a47c:	3efb4603          	lbu	a2,1007(s6)
   1a480:	3f0b2a03          	lw	s4,1008(s6)
   1a484:	0522                	slli	a0,a0,0x8
   1a486:	8d4d                	or	a0,a0,a1
   1a488:	00a11223          	sh	a0,4(sp)
   1a48c:	00c10323          	sb	a2,6(sp)
   1a490:	6505                	lui	a0,0x1
   1a492:	38450513          	addi	a0,a0,900 # 1384 <.Lline_table_start1+0x1159>
   1a496:	00a105b3          	add	a1,sp,a0
   1a49a:	6505                	lui	a0,0x1
   1a49c:	32050513          	addi	a0,a0,800 # 1320 <.Lline_table_start1+0x10f5>
   1a4a0:	950a                	add	a0,a0,sp
   1a4a2:	04f00613          	li	a2,79
   1a4a6:	00002097          	auipc	ra,0x2
   1a4aa:	676080e7          	jalr	1654(ra) # 1cb1c <memcpy>
   1a4ae:	c099                	beqz	s1,1a4b4 <_start+0x2642>
   1a4b0:	5300206f          	j	1c9e0 <_start+0x4b6e>
   1a4b4:	00411503          	lh	a0,4(sp)
   1a4b8:	00614583          	lbu	a1,6(sp)
   1a4bc:	018a5613          	srli	a2,s4,0x18
   1a4c0:	010a5693          	srli	a3,s4,0x10
   1a4c4:	04d90ca3          	sb	a3,89(s2)
   1a4c8:	04c90d23          	sb	a2,90(s2)
   1a4cc:	008a5613          	srli	a2,s4,0x8
   1a4d0:	04a91a23          	sh	a0,84(s2)
   1a4d4:	04b90b23          	sb	a1,86(s2)
   1a4d8:	05490ba3          	sb	s4,87(s2)
   1a4dc:	04c90c23          	sb	a2,88(s2)
   1a4e0:	7e910513          	addi	a0,sp,2025
   1a4e4:	6585                	lui	a1,0x1
   1a4e6:	32058593          	addi	a1,a1,800 # 1320 <.Lline_table_start1+0x10f5>
   1a4ea:	958a                	add	a1,a1,sp
   1a4ec:	04f00613          	li	a2,79
   1a4f0:	00002097          	auipc	ra,0x2
   1a4f4:	62c080e7          	jalr	1580(ra) # 1cb1c <memcpy>
   1a4f8:	6505                	lui	a0,0x1
   1a4fa:	37c50513          	addi	a0,a0,892 # 137c <.Lline_table_start1+0x1151>
   1a4fe:	950a                	add	a0,a0,sp
   1a500:	7e210593          	addi	a1,sp,2018
   1a504:	ffffa097          	auipc	ra,0xffffa
   1a508:	83e080e7          	jalr	-1986(ra) # 13d42 <_ZN20complex_full_dynamic3app17h7d8b575f15e8ed06E>
   1a50c:	3ecb4483          	lbu	s1,1004(s6)
   1a510:	c481                	beqz	s1,1a518 <_start+0x26a6>
   1a512:	3f0b2a03          	lw	s4,1008(s6)
   1a516:	a835                	j	1a552 <_start+0x26e0>
   1a518:	3eeb4503          	lbu	a0,1006(s6)
   1a51c:	3edb4583          	lbu	a1,1005(s6)
   1a520:	3efb4603          	lbu	a2,1007(s6)
   1a524:	3f0b2a03          	lw	s4,1008(s6)
   1a528:	0522                	slli	a0,a0,0x8
   1a52a:	8d4d                	or	a0,a0,a1
   1a52c:	00a11223          	sh	a0,4(sp)
   1a530:	00c10323          	sb	a2,6(sp)
   1a534:	6505                	lui	a0,0x1
   1a536:	38450513          	addi	a0,a0,900 # 1384 <.Lline_table_start1+0x1159>
   1a53a:	00a105b3          	add	a1,sp,a0
   1a53e:	6505                	lui	a0,0x1
   1a540:	32050513          	addi	a0,a0,800 # 1320 <.Lline_table_start1+0x10f5>
   1a544:	950a                	add	a0,a0,sp
   1a546:	04200613          	li	a2,66
   1a54a:	00002097          	auipc	ra,0x2
   1a54e:	5d2080e7          	jalr	1490(ra) # 1cb1c <memcpy>
   1a552:	c099                	beqz	s1,1a558 <_start+0x26e6>
   1a554:	48c0206f          	j	1c9e0 <_start+0x4b6e>
   1a558:	00411503          	lh	a0,4(sp)
   1a55c:	00614583          	lbu	a1,6(sp)
   1a560:	018a5613          	srli	a2,s4,0x18
   1a564:	010a5693          	srli	a3,s4,0x10
   1a568:	0ad907a3          	sb	a3,175(s2)
   1a56c:	0ac90823          	sb	a2,176(s2)
   1a570:	008a5613          	srli	a2,s4,0x8
   1a574:	0aa91523          	sh	a0,170(s2)
   1a578:	0ab90623          	sb	a1,172(s2)
   1a57c:	0b4906a3          	sb	s4,173(s2)
   1a580:	0ac90723          	sb	a2,174(s2)
   1a584:	7ff10513          	addi	a0,sp,2047
   1a588:	04050513          	addi	a0,a0,64
   1a58c:	6585                	lui	a1,0x1
   1a58e:	32058593          	addi	a1,a1,800 # 1320 <.Lline_table_start1+0x10f5>
   1a592:	958a                	add	a1,a1,sp
   1a594:	04200613          	li	a2,66
   1a598:	00002097          	auipc	ra,0x2
   1a59c:	584080e7          	jalr	1412(ra) # 1cb1c <memcpy>
   1a5a0:	6505                	lui	a0,0x1
   1a5a2:	37c50513          	addi	a0,a0,892 # 137c <.Lline_table_start1+0x1151>
   1a5a6:	950a                	add	a0,a0,sp
   1a5a8:	7ff10593          	addi	a1,sp,2047
   1a5ac:	03958593          	addi	a1,a1,57
   1a5b0:	ffff7097          	auipc	ra,0xffff7
   1a5b4:	02c080e7          	jalr	44(ra) # 115dc <_ZN20complex_full_dynamic3app17h1a19ae7dba3b68caE>
   1a5b8:	3ecb4503          	lbu	a0,1004(s6)
   1a5bc:	c501                	beqz	a0,1a5c4 <_start+0x2752>
   1a5be:	3f0b2a03          	lw	s4,1008(s6)
   1a5c2:	a899                	j	1a618 <_start+0x27a6>
   1a5c4:	3edb4583          	lbu	a1,1005(s6)
   1a5c8:	3eeb4603          	lbu	a2,1006(s6)
   1a5cc:	3efb4683          	lbu	a3,1007(s6)
   1a5d0:	3f0b2a03          	lw	s4,1008(s6)
   1a5d4:	3f4b2703          	lw	a4,1012(s6)
   1a5d8:	3f8b2783          	lw	a5,1016(s6)
   1a5dc:	3fcb2483          	lw	s1,1020(s6)
   1a5e0:	400b2403          	lw	s0,1024(s6)
   1a5e4:	0622                	slli	a2,a2,0x8
   1a5e6:	38eb2823          	sw	a4,912(s6)
   1a5ea:	38fb2a23          	sw	a5,916(s6)
   1a5ee:	389b2c23          	sw	s1,920(s6)
   1a5f2:	388b2e23          	sw	s0,924(s6)
   1a5f6:	8dd1                	or	a1,a1,a2
   1a5f8:	404b2603          	lw	a2,1028(s6)
   1a5fc:	408b2703          	lw	a4,1032(s6)
   1a600:	40cb2783          	lw	a5,1036(s6)
   1a604:	00b11223          	sh	a1,4(sp)
   1a608:	00d10323          	sb	a3,6(sp)
   1a60c:	3acb2023          	sw	a2,928(s6)
   1a610:	3aeb2223          	sw	a4,932(s6)
   1a614:	3afb2423          	sw	a5,936(s6)
   1a618:	c119                	beqz	a0,1a61e <_start+0x27ac>
   1a61a:	3c60206f          	j	1c9e0 <_start+0x4b6e>
   1a61e:	00411503          	lh	a0,4(sp)
   1a622:	00614583          	lbu	a1,6(sp)
   1a626:	018a5613          	srli	a2,s4,0x18
   1a62a:	010a5693          	srli	a3,s4,0x10
   1a62e:	0ed90ca3          	sb	a3,249(s2)
   1a632:	0ec90d23          	sb	a2,250(s2)
   1a636:	008a5613          	srli	a2,s4,0x8
   1a63a:	0ea91a23          	sh	a0,244(s2)
   1a63e:	0eb90b23          	sb	a1,246(s2)
   1a642:	0f490ba3          	sb	s4,247(s2)
   1a646:	0ec90c23          	sb	a2,248(s2)
   1a64a:	7ff10513          	addi	a0,sp,2047
   1a64e:	08a50513          	addi	a0,a0,138
   1a652:	6585                	lui	a1,0x1
   1a654:	32058593          	addi	a1,a1,800 # 1320 <.Lline_table_start1+0x10f5>
   1a658:	958a                	add	a1,a1,sp
   1a65a:	4671                	li	a2,28
   1a65c:	00002097          	auipc	ra,0x2
   1a660:	4c0080e7          	jalr	1216(ra) # 1cb1c <memcpy>
   1a664:	6505                	lui	a0,0x1
   1a666:	37c50513          	addi	a0,a0,892 # 137c <.Lline_table_start1+0x1151>
   1a66a:	950a                	add	a0,a0,sp
   1a66c:	7ff10593          	addi	a1,sp,2047
   1a670:	08358593          	addi	a1,a1,131
   1a674:	ffffa097          	auipc	ra,0xffffa
   1a678:	3a2080e7          	jalr	930(ra) # 14a16 <_ZN20complex_full_dynamic3app17h99615651dd43a247E>
   1a67c:	3ecb4483          	lbu	s1,1004(s6)
   1a680:	c481                	beqz	s1,1a688 <_start+0x2816>
   1a682:	3f0b2a03          	lw	s4,1008(s6)
   1a686:	a835                	j	1a6c2 <_start+0x2850>
   1a688:	3eeb4503          	lbu	a0,1006(s6)
   1a68c:	3edb4583          	lbu	a1,1005(s6)
   1a690:	3efb4603          	lbu	a2,1007(s6)
   1a694:	3f0b2a03          	lw	s4,1008(s6)
   1a698:	0522                	slli	a0,a0,0x8
   1a69a:	8d4d                	or	a0,a0,a1
   1a69c:	00a11223          	sh	a0,4(sp)
   1a6a0:	00c10323          	sb	a2,6(sp)
   1a6a4:	6505                	lui	a0,0x1
   1a6a6:	38450513          	addi	a0,a0,900 # 1384 <.Lline_table_start1+0x1159>
   1a6aa:	00a105b3          	add	a1,sp,a0
   1a6ae:	6505                	lui	a0,0x1
   1a6b0:	32050513          	addi	a0,a0,800 # 1320 <.Lline_table_start1+0x10f5>
   1a6b4:	950a                	add	a0,a0,sp
   1a6b6:	02400613          	li	a2,36
   1a6ba:	00002097          	auipc	ra,0x2
   1a6be:	462080e7          	jalr	1122(ra) # 1cb1c <memcpy>
   1a6c2:	c099                	beqz	s1,1a6c8 <_start+0x2856>
   1a6c4:	31c0206f          	j	1c9e0 <_start+0x4b6e>
   1a6c8:	00411503          	lh	a0,4(sp)
   1a6cc:	00614583          	lbu	a1,6(sp)
   1a6d0:	018a5613          	srli	a2,s4,0x18
   1a6d4:	010a5693          	srli	a3,s4,0x10
   1a6d8:	10d90ea3          	sb	a3,285(s2)
   1a6dc:	10c90f23          	sb	a2,286(s2)
   1a6e0:	008a5613          	srli	a2,s4,0x8
   1a6e4:	10a91c23          	sh	a0,280(s2)
   1a6e8:	10b90d23          	sb	a1,282(s2)
   1a6ec:	11490da3          	sb	s4,283(s2)
   1a6f0:	10c90e23          	sb	a2,284(s2)
   1a6f4:	7ff10513          	addi	a0,sp,2047
   1a6f8:	0ae50513          	addi	a0,a0,174
   1a6fc:	6585                	lui	a1,0x1
   1a6fe:	32058593          	addi	a1,a1,800 # 1320 <.Lline_table_start1+0x10f5>
   1a702:	958a                	add	a1,a1,sp
   1a704:	02400613          	li	a2,36
   1a708:	00002097          	auipc	ra,0x2
   1a70c:	414080e7          	jalr	1044(ra) # 1cb1c <memcpy>
   1a710:	6505                	lui	a0,0x1
   1a712:	37c50513          	addi	a0,a0,892 # 137c <.Lline_table_start1+0x1151>
   1a716:	950a                	add	a0,a0,sp
   1a718:	7ff10593          	addi	a1,sp,2047
   1a71c:	0a758593          	addi	a1,a1,167
   1a720:	ffffc097          	auipc	ra,0xffffc
   1a724:	252080e7          	jalr	594(ra) # 16972 <_ZN20complex_full_dynamic3app17he10c03581875e610E>
   1a728:	3ecb4503          	lbu	a0,1004(s6)
   1a72c:	c501                	beqz	a0,1a734 <_start+0x28c2>
   1a72e:	3f0b2a03          	lw	s4,1008(s6)
   1a732:	a03d                	j	1a760 <_start+0x28ee>
   1a734:	3eeb4583          	lbu	a1,1006(s6)
   1a738:	3edb4603          	lbu	a2,1005(s6)
   1a73c:	3efb4683          	lbu	a3,1007(s6)
   1a740:	3f0b2a03          	lw	s4,1008(s6)
   1a744:	05a2                	slli	a1,a1,0x8
   1a746:	8dd1                	or	a1,a1,a2
   1a748:	3f4b2603          	lw	a2,1012(s6)
   1a74c:	3f8b1703          	lh	a4,1016(s6)
   1a750:	00b11223          	sh	a1,4(sp)
   1a754:	00d10323          	sb	a3,6(sp)
   1a758:	38cb2823          	sw	a2,912(s6)
   1a75c:	38eb1a23          	sh	a4,916(s6)
   1a760:	c119                	beqz	a0,1a766 <_start+0x28f4>
   1a762:	27e0206f          	j	1c9e0 <_start+0x4b6e>
   1a766:	00411503          	lh	a0,4(sp)
   1a76a:	00614583          	lbu	a1,6(sp)
   1a76e:	018a5613          	srli	a2,s4,0x18
   1a772:	010a5693          	srli	a3,s4,0x10
   1a776:	008a5713          	srli	a4,s4,0x8
   1a77a:	14a91223          	sh	a0,324(s2)
   1a77e:	14b90323          	sb	a1,326(s2)
   1a782:	154903a3          	sb	s4,327(s2)
   1a786:	14e90423          	sb	a4,328(s2)
   1a78a:	390b4503          	lbu	a0,912(s6)
   1a78e:	391b4583          	lbu	a1,913(s6)
   1a792:	392b4703          	lbu	a4,914(s6)
   1a796:	393b4783          	lbu	a5,915(s6)
   1a79a:	14d904a3          	sb	a3,329(s2)
   1a79e:	14c90523          	sb	a2,330(s2)
   1a7a2:	14a905a3          	sb	a0,331(s2)
   1a7a6:	14b90623          	sb	a1,332(s2)
   1a7aa:	394b4503          	lbu	a0,916(s6)
   1a7ae:	395b4583          	lbu	a1,917(s6)
   1a7b2:	14e906a3          	sb	a4,333(s2)
   1a7b6:	14f90723          	sb	a5,334(s2)
   1a7ba:	14a907a3          	sb	a0,335(s2)
   1a7be:	14b90823          	sb	a1,336(s2)
   1a7c2:	6505                	lui	a0,0x1
   1a7c4:	37c50513          	addi	a0,a0,892 # 137c <.Lline_table_start1+0x1151>
   1a7c8:	950a                	add	a0,a0,sp
   1a7ca:	7ff10593          	addi	a1,sp,2047
   1a7ce:	0d358593          	addi	a1,a1,211
   1a7d2:	ffffc097          	auipc	ra,0xffffc
   1a7d6:	2c2080e7          	jalr	706(ra) # 16a94 <_ZN20complex_full_dynamic3app17he21b3ef53e6a1b90E>
   1a7da:	3ecb4503          	lbu	a0,1004(s6)
   1a7de:	c501                	beqz	a0,1a7e6 <_start+0x2974>
   1a7e0:	3f0b2a03          	lw	s4,1008(s6)
   1a7e4:	a899                	j	1a83a <_start+0x29c8>
   1a7e6:	3edb4583          	lbu	a1,1005(s6)
   1a7ea:	3eeb4603          	lbu	a2,1006(s6)
   1a7ee:	3efb4683          	lbu	a3,1007(s6)
   1a7f2:	3f0b2a03          	lw	s4,1008(s6)
   1a7f6:	3f4b2703          	lw	a4,1012(s6)
   1a7fa:	3f8b2783          	lw	a5,1016(s6)
   1a7fe:	3fcb2483          	lw	s1,1020(s6)
   1a802:	400b2403          	lw	s0,1024(s6)
   1a806:	0622                	slli	a2,a2,0x8
   1a808:	38eb2823          	sw	a4,912(s6)
   1a80c:	38fb2a23          	sw	a5,916(s6)
   1a810:	389b2c23          	sw	s1,920(s6)
   1a814:	388b2e23          	sw	s0,924(s6)
   1a818:	8dd1                	or	a1,a1,a2
   1a81a:	404b2603          	lw	a2,1028(s6)
   1a81e:	408b2703          	lw	a4,1032(s6)
   1a822:	40cb1783          	lh	a5,1036(s6)
   1a826:	00b11223          	sh	a1,4(sp)
   1a82a:	00d10323          	sb	a3,6(sp)
   1a82e:	3acb2023          	sw	a2,928(s6)
   1a832:	3aeb2223          	sw	a4,932(s6)
   1a836:	3afb1423          	sh	a5,936(s6)
   1a83a:	c119                	beqz	a0,1a840 <_start+0x29ce>
   1a83c:	1a40206f          	j	1c9e0 <_start+0x4b6e>
   1a840:	00411503          	lh	a0,4(sp)
   1a844:	00614583          	lbu	a1,6(sp)
   1a848:	018a5613          	srli	a2,s4,0x18
   1a84c:	010a5693          	srli	a3,s4,0x10
   1a850:	14d90ba3          	sb	a3,343(s2)
   1a854:	14c90c23          	sb	a2,344(s2)
   1a858:	008a5613          	srli	a2,s4,0x8
   1a85c:	14a91923          	sh	a0,338(s2)
   1a860:	14b90a23          	sb	a1,340(s2)
   1a864:	15490aa3          	sb	s4,341(s2)
   1a868:	14c90b23          	sb	a2,342(s2)
   1a86c:	7ff10513          	addi	a0,sp,2047
   1a870:	0e850513          	addi	a0,a0,232
   1a874:	6585                	lui	a1,0x1
   1a876:	32058593          	addi	a1,a1,800 # 1320 <.Lline_table_start1+0x10f5>
   1a87a:	958a                	add	a1,a1,sp
   1a87c:	4669                	li	a2,26
   1a87e:	00002097          	auipc	ra,0x2
   1a882:	29e080e7          	jalr	670(ra) # 1cb1c <memcpy>
   1a886:	6505                	lui	a0,0x1
   1a888:	37c50513          	addi	a0,a0,892 # 137c <.Lline_table_start1+0x1151>
   1a88c:	950a                	add	a0,a0,sp
   1a88e:	7ff10593          	addi	a1,sp,2047
   1a892:	0e158593          	addi	a1,a1,225
   1a896:	ffff8097          	auipc	ra,0xffff8
   1a89a:	8de080e7          	jalr	-1826(ra) # 12174 <_ZN20complex_full_dynamic3app17h2e076edd5797b4ecE>
   1a89e:	3ecb4483          	lbu	s1,1004(s6)
   1a8a2:	c481                	beqz	s1,1a8aa <_start+0x2a38>
   1a8a4:	3f0b2a03          	lw	s4,1008(s6)
   1a8a8:	a835                	j	1a8e4 <_start+0x2a72>
   1a8aa:	3eeb4503          	lbu	a0,1006(s6)
   1a8ae:	3edb4583          	lbu	a1,1005(s6)
   1a8b2:	3efb4603          	lbu	a2,1007(s6)
   1a8b6:	3f0b2a03          	lw	s4,1008(s6)
   1a8ba:	0522                	slli	a0,a0,0x8
   1a8bc:	8d4d                	or	a0,a0,a1
   1a8be:	00a11223          	sh	a0,4(sp)
   1a8c2:	00c10323          	sb	a2,6(sp)
   1a8c6:	6505                	lui	a0,0x1
   1a8c8:	38450513          	addi	a0,a0,900 # 1384 <.Lline_table_start1+0x1159>
   1a8cc:	00a105b3          	add	a1,sp,a0
   1a8d0:	6505                	lui	a0,0x1
   1a8d2:	32050513          	addi	a0,a0,800 # 1320 <.Lline_table_start1+0x10f5>
   1a8d6:	950a                	add	a0,a0,sp
   1a8d8:	04c00613          	li	a2,76
   1a8dc:	00002097          	auipc	ra,0x2
   1a8e0:	240080e7          	jalr	576(ra) # 1cb1c <memcpy>
   1a8e4:	c099                	beqz	s1,1a8ea <_start+0x2a78>
   1a8e6:	0fa0206f          	j	1c9e0 <_start+0x4b6e>
   1a8ea:	00411503          	lh	a0,4(sp)
   1a8ee:	00614583          	lbu	a1,6(sp)
   1a8f2:	018a5613          	srli	a2,s4,0x18
   1a8f6:	010a5693          	srli	a3,s4,0x10
   1a8fa:	16d90ca3          	sb	a3,377(s2)
   1a8fe:	16c90d23          	sb	a2,378(s2)
   1a902:	008a5613          	srli	a2,s4,0x8
   1a906:	16a91a23          	sh	a0,372(s2)
   1a90a:	16b90b23          	sb	a1,374(s2)
   1a90e:	17490ba3          	sb	s4,375(s2)
   1a912:	16c90c23          	sb	a2,376(s2)
   1a916:	7ff10513          	addi	a0,sp,2047
   1a91a:	10a50513          	addi	a0,a0,266
   1a91e:	6585                	lui	a1,0x1
   1a920:	32058593          	addi	a1,a1,800 # 1320 <.Lline_table_start1+0x10f5>
   1a924:	958a                	add	a1,a1,sp
   1a926:	04c00613          	li	a2,76
   1a92a:	00002097          	auipc	ra,0x2
   1a92e:	1f2080e7          	jalr	498(ra) # 1cb1c <memcpy>
   1a932:	6505                	lui	a0,0x1
   1a934:	37c50513          	addi	a0,a0,892 # 137c <.Lline_table_start1+0x1151>
   1a938:	950a                	add	a0,a0,sp
   1a93a:	7ff10593          	addi	a1,sp,2047
   1a93e:	10358593          	addi	a1,a1,259
   1a942:	ffffd097          	auipc	ra,0xffffd
   1a946:	402080e7          	jalr	1026(ra) # 17d44 <_ZN20complex_full_dynamic3app17hfcadd3f287888badE>
   1a94a:	3ecb4483          	lbu	s1,1004(s6)
   1a94e:	c481                	beqz	s1,1a956 <_start+0x2ae4>
   1a950:	3f0b2a03          	lw	s4,1008(s6)
   1a954:	a835                	j	1a990 <_start+0x2b1e>
   1a956:	3eeb4503          	lbu	a0,1006(s6)
   1a95a:	3edb4583          	lbu	a1,1005(s6)
   1a95e:	3efb4603          	lbu	a2,1007(s6)
   1a962:	3f0b2a03          	lw	s4,1008(s6)
   1a966:	0522                	slli	a0,a0,0x8
   1a968:	8d4d                	or	a0,a0,a1
   1a96a:	00a11223          	sh	a0,4(sp)
   1a96e:	00c10323          	sb	a2,6(sp)
   1a972:	6505                	lui	a0,0x1
   1a974:	38450513          	addi	a0,a0,900 # 1384 <.Lline_table_start1+0x1159>
   1a978:	00a105b3          	add	a1,sp,a0
   1a97c:	6505                	lui	a0,0x1
   1a97e:	32050513          	addi	a0,a0,800 # 1320 <.Lline_table_start1+0x10f5>
   1a982:	950a                	add	a0,a0,sp
   1a984:	04600613          	li	a2,70
   1a988:	00002097          	auipc	ra,0x2
   1a98c:	194080e7          	jalr	404(ra) # 1cb1c <memcpy>
   1a990:	c099                	beqz	s1,1a996 <_start+0x2b24>
   1a992:	04e0206f          	j	1c9e0 <_start+0x4b6e>
   1a996:	00411503          	lh	a0,4(sp)
   1a99a:	00614583          	lbu	a1,6(sp)
   1a99e:	018a5613          	srli	a2,s4,0x18
   1a9a2:	010a5693          	srli	a3,s4,0x10
   1a9a6:	1cd906a3          	sb	a3,461(s2)
   1a9aa:	1cc90723          	sb	a2,462(s2)
   1a9ae:	008a5613          	srli	a2,s4,0x8
   1a9b2:	1ca91423          	sh	a0,456(s2)
   1a9b6:	1cb90523          	sb	a1,458(s2)
   1a9ba:	1d4905a3          	sb	s4,459(s2)
   1a9be:	1cc90623          	sb	a2,460(s2)
   1a9c2:	7ff10513          	addi	a0,sp,2047
   1a9c6:	15e50513          	addi	a0,a0,350
   1a9ca:	6585                	lui	a1,0x1
   1a9cc:	32058593          	addi	a1,a1,800 # 1320 <.Lline_table_start1+0x10f5>
   1a9d0:	958a                	add	a1,a1,sp
   1a9d2:	04600613          	li	a2,70
   1a9d6:	00002097          	auipc	ra,0x2
   1a9da:	146080e7          	jalr	326(ra) # 1cb1c <memcpy>
   1a9de:	6505                	lui	a0,0x1
   1a9e0:	37c50513          	addi	a0,a0,892 # 137c <.Lline_table_start1+0x1151>
   1a9e4:	950a                	add	a0,a0,sp
   1a9e6:	7ff10593          	addi	a1,sp,2047
   1a9ea:	15758593          	addi	a1,a1,343
   1a9ee:	ffffa097          	auipc	ra,0xffffa
   1a9f2:	152080e7          	jalr	338(ra) # 14b40 <_ZN20complex_full_dynamic3app17h99bb85842f581eb5E>
   1a9f6:	3ecb4483          	lbu	s1,1004(s6)
   1a9fa:	c481                	beqz	s1,1aa02 <_start+0x2b90>
   1a9fc:	3f0b2a03          	lw	s4,1008(s6)
   1aa00:	a835                	j	1aa3c <_start+0x2bca>
   1aa02:	3eeb4503          	lbu	a0,1006(s6)
   1aa06:	3edb4583          	lbu	a1,1005(s6)
   1aa0a:	3efb4603          	lbu	a2,1007(s6)
   1aa0e:	3f0b2a03          	lw	s4,1008(s6)
   1aa12:	0522                	slli	a0,a0,0x8
   1aa14:	8d4d                	or	a0,a0,a1
   1aa16:	00a11223          	sh	a0,4(sp)
   1aa1a:	00c10323          	sb	a2,6(sp)
   1aa1e:	6505                	lui	a0,0x1
   1aa20:	38450513          	addi	a0,a0,900 # 1384 <.Lline_table_start1+0x1159>
   1aa24:	00a105b3          	add	a1,sp,a0
   1aa28:	6505                	lui	a0,0x1
   1aa2a:	32050513          	addi	a0,a0,800 # 1320 <.Lline_table_start1+0x10f5>
   1aa2e:	950a                	add	a0,a0,sp
   1aa30:	03500613          	li	a2,53
   1aa34:	00002097          	auipc	ra,0x2
   1aa38:	0e8080e7          	jalr	232(ra) # 1cb1c <memcpy>
   1aa3c:	c099                	beqz	s1,1aa42 <_start+0x2bd0>
   1aa3e:	7a30106f          	j	1c9e0 <_start+0x4b6e>
   1aa42:	00411503          	lh	a0,4(sp)
   1aa46:	00614583          	lbu	a1,6(sp)
   1aa4a:	018a5613          	srli	a2,s4,0x18
   1aa4e:	010a5693          	srli	a3,s4,0x10
   1aa52:	20d90da3          	sb	a3,539(s2)
   1aa56:	20c90e23          	sb	a2,540(s2)
   1aa5a:	008a5613          	srli	a2,s4,0x8
   1aa5e:	20a91b23          	sh	a0,534(s2)
   1aa62:	20b90c23          	sb	a1,536(s2)
   1aa66:	21490ca3          	sb	s4,537(s2)
   1aa6a:	20c90d23          	sb	a2,538(s2)
   1aa6e:	7ff10513          	addi	a0,sp,2047
   1aa72:	1ac50513          	addi	a0,a0,428
   1aa76:	6585                	lui	a1,0x1
   1aa78:	32058593          	addi	a1,a1,800 # 1320 <.Lline_table_start1+0x10f5>
   1aa7c:	958a                	add	a1,a1,sp
   1aa7e:	03500613          	li	a2,53
   1aa82:	00002097          	auipc	ra,0x2
   1aa86:	09a080e7          	jalr	154(ra) # 1cb1c <memcpy>
   1aa8a:	6505                	lui	a0,0x1
   1aa8c:	37c50513          	addi	a0,a0,892 # 137c <.Lline_table_start1+0x1151>
   1aa90:	950a                	add	a0,a0,sp
   1aa92:	7ff10593          	addi	a1,sp,2047
   1aa96:	1a558593          	addi	a1,a1,421
   1aa9a:	ffffd097          	auipc	ra,0xffffd
   1aa9e:	054080e7          	jalr	84(ra) # 17aee <_ZN20complex_full_dynamic3app17hfbf8abb61e9f0c6bE>
   1aaa2:	3ecb4483          	lbu	s1,1004(s6)
   1aaa6:	c481                	beqz	s1,1aaae <_start+0x2c3c>
   1aaa8:	3f0b2a03          	lw	s4,1008(s6)
   1aaac:	a835                	j	1aae8 <_start+0x2c76>
   1aaae:	3eeb4503          	lbu	a0,1006(s6)
   1aab2:	3edb4583          	lbu	a1,1005(s6)
   1aab6:	3efb4603          	lbu	a2,1007(s6)
   1aaba:	3f0b2a03          	lw	s4,1008(s6)
   1aabe:	0522                	slli	a0,a0,0x8
   1aac0:	8d4d                	or	a0,a0,a1
   1aac2:	00a11223          	sh	a0,4(sp)
   1aac6:	00c10323          	sb	a2,6(sp)
   1aaca:	6505                	lui	a0,0x1
   1aacc:	38450513          	addi	a0,a0,900 # 1384 <.Lline_table_start1+0x1159>
   1aad0:	00a105b3          	add	a1,sp,a0
   1aad4:	6505                	lui	a0,0x1
   1aad6:	32050513          	addi	a0,a0,800 # 1320 <.Lline_table_start1+0x10f5>
   1aada:	950a                	add	a0,a0,sp
   1aadc:	03100613          	li	a2,49
   1aae0:	00002097          	auipc	ra,0x2
   1aae4:	03c080e7          	jalr	60(ra) # 1cb1c <memcpy>
   1aae8:	c099                	beqz	s1,1aaee <_start+0x2c7c>
   1aaea:	6f70106f          	j	1c9e0 <_start+0x4b6e>
   1aaee:	00411503          	lh	a0,4(sp)
   1aaf2:	00614583          	lbu	a1,6(sp)
   1aaf6:	018a5613          	srli	a2,s4,0x18
   1aafa:	010a5693          	srli	a3,s4,0x10
   1aafe:	24d90ba3          	sb	a3,599(s2)
   1ab02:	24c90c23          	sb	a2,600(s2)
   1ab06:	008a5613          	srli	a2,s4,0x8
   1ab0a:	24a91923          	sh	a0,594(s2)
   1ab0e:	24b90a23          	sb	a1,596(s2)
   1ab12:	25490aa3          	sb	s4,597(s2)
   1ab16:	24c90b23          	sb	a2,598(s2)
   1ab1a:	7ff10513          	addi	a0,sp,2047
   1ab1e:	1e850513          	addi	a0,a0,488
   1ab22:	6585                	lui	a1,0x1
   1ab24:	32058593          	addi	a1,a1,800 # 1320 <.Lline_table_start1+0x10f5>
   1ab28:	958a                	add	a1,a1,sp
   1ab2a:	03100613          	li	a2,49
   1ab2e:	00002097          	auipc	ra,0x2
   1ab32:	fee080e7          	jalr	-18(ra) # 1cb1c <memcpy>
   1ab36:	6505                	lui	a0,0x1
   1ab38:	37c50513          	addi	a0,a0,892 # 137c <.Lline_table_start1+0x1151>
   1ab3c:	950a                	add	a0,a0,sp
   1ab3e:	7ff10593          	addi	a1,sp,2047
   1ab42:	1e158593          	addi	a1,a1,481
   1ab46:	ffff7097          	auipc	ra,0xffff7
   1ab4a:	ce2080e7          	jalr	-798(ra) # 11828 <_ZN20complex_full_dynamic3app17h1e07db22082dde76E>
   1ab4e:	3ecb4503          	lbu	a0,1004(s6)
   1ab52:	c501                	beqz	a0,1ab5a <_start+0x2ce8>
   1ab54:	3f0b2a03          	lw	s4,1008(s6)
   1ab58:	a8b9                	j	1abb6 <_start+0x2d44>
   1ab5a:	3edb4583          	lbu	a1,1005(s6)
   1ab5e:	3eeb4603          	lbu	a2,1006(s6)
   1ab62:	3efb4683          	lbu	a3,1007(s6)
   1ab66:	3f0b2a03          	lw	s4,1008(s6)
   1ab6a:	3f4b2703          	lw	a4,1012(s6)
   1ab6e:	3f8b2783          	lw	a5,1016(s6)
   1ab72:	3fcb2483          	lw	s1,1020(s6)
   1ab76:	400b2403          	lw	s0,1024(s6)
   1ab7a:	0622                	slli	a2,a2,0x8
   1ab7c:	38eb2823          	sw	a4,912(s6)
   1ab80:	38fb2a23          	sw	a5,916(s6)
   1ab84:	389b2c23          	sw	s1,920(s6)
   1ab88:	388b2e23          	sw	s0,924(s6)
   1ab8c:	8dd1                	or	a1,a1,a2
   1ab8e:	00b11223          	sh	a1,4(sp)
   1ab92:	00d10323          	sb	a3,6(sp)
   1ab96:	404b2583          	lw	a1,1028(s6)
   1ab9a:	408b2603          	lw	a2,1032(s6)
   1ab9e:	40cb2683          	lw	a3,1036(s6)
   1aba2:	410b2703          	lw	a4,1040(s6)
   1aba6:	3abb2023          	sw	a1,928(s6)
   1abaa:	3acb2223          	sw	a2,932(s6)
   1abae:	3adb2423          	sw	a3,936(s6)
   1abb2:	3aeb2623          	sw	a4,940(s6)
   1abb6:	c119                	beqz	a0,1abbc <_start+0x2d4a>
   1abb8:	6290106f          	j	1c9e0 <_start+0x4b6e>
   1abbc:	00411503          	lh	a0,4(sp)
   1abc0:	00614583          	lbu	a1,6(sp)
   1abc4:	018a5613          	srli	a2,s4,0x18
   1abc8:	010a5693          	srli	a3,s4,0x10
   1abcc:	28d907a3          	sb	a3,655(s2)
   1abd0:	28c90823          	sb	a2,656(s2)
   1abd4:	008a5613          	srli	a2,s4,0x8
   1abd8:	28a91523          	sh	a0,650(s2)
   1abdc:	28b90623          	sb	a1,652(s2)
   1abe0:	294906a3          	sb	s4,653(s2)
   1abe4:	28c90723          	sb	a2,654(s2)
   1abe8:	7ff10513          	addi	a0,sp,2047
   1abec:	22050513          	addi	a0,a0,544
   1abf0:	6585                	lui	a1,0x1
   1abf2:	32058593          	addi	a1,a1,800 # 1320 <.Lline_table_start1+0x10f5>
   1abf6:	958a                	add	a1,a1,sp
   1abf8:	02000613          	li	a2,32
   1abfc:	00002097          	auipc	ra,0x2
   1ac00:	f20080e7          	jalr	-224(ra) # 1cb1c <memcpy>
   1ac04:	6505                	lui	a0,0x1
   1ac06:	37c50513          	addi	a0,a0,892 # 137c <.Lline_table_start1+0x1151>
   1ac0a:	950a                	add	a0,a0,sp
   1ac0c:	7ff10593          	addi	a1,sp,2047
   1ac10:	21958593          	addi	a1,a1,537
   1ac14:	ffff8097          	auipc	ra,0xffff8
   1ac18:	b3a080e7          	jalr	-1222(ra) # 1274e <_ZN20complex_full_dynamic3app17h3aec85823b1483faE>
   1ac1c:	3ecb4483          	lbu	s1,1004(s6)
   1ac20:	c481                	beqz	s1,1ac28 <_start+0x2db6>
   1ac22:	3f0b2a03          	lw	s4,1008(s6)
   1ac26:	a835                	j	1ac62 <_start+0x2df0>
   1ac28:	3eeb4503          	lbu	a0,1006(s6)
   1ac2c:	3edb4583          	lbu	a1,1005(s6)
   1ac30:	3efb4603          	lbu	a2,1007(s6)
   1ac34:	3f0b2a03          	lw	s4,1008(s6)
   1ac38:	0522                	slli	a0,a0,0x8
   1ac3a:	8d4d                	or	a0,a0,a1
   1ac3c:	00a11223          	sh	a0,4(sp)
   1ac40:	00c10323          	sb	a2,6(sp)
   1ac44:	6505                	lui	a0,0x1
   1ac46:	38450513          	addi	a0,a0,900 # 1384 <.Lline_table_start1+0x1159>
   1ac4a:	00a105b3          	add	a1,sp,a0
   1ac4e:	6505                	lui	a0,0x1
   1ac50:	32050513          	addi	a0,a0,800 # 1320 <.Lline_table_start1+0x10f5>
   1ac54:	950a                	add	a0,a0,sp
   1ac56:	04a00613          	li	a2,74
   1ac5a:	00002097          	auipc	ra,0x2
   1ac5e:	ec2080e7          	jalr	-318(ra) # 1cb1c <memcpy>
   1ac62:	c099                	beqz	s1,1ac68 <_start+0x2df6>
   1ac64:	57d0106f          	j	1c9e0 <_start+0x4b6e>
   1ac68:	00411503          	lh	a0,4(sp)
   1ac6c:	00614583          	lbu	a1,6(sp)
   1ac70:	018a5613          	srli	a2,s4,0x18
   1ac74:	010a5693          	srli	a3,s4,0x10
   1ac78:	2ad90ba3          	sb	a3,695(s2)
   1ac7c:	2ac90c23          	sb	a2,696(s2)
   1ac80:	008a5613          	srli	a2,s4,0x8
   1ac84:	2aa91923          	sh	a0,690(s2)
   1ac88:	2ab90a23          	sb	a1,692(s2)
   1ac8c:	2b490aa3          	sb	s4,693(s2)
   1ac90:	2ac90b23          	sb	a2,694(s2)
   1ac94:	7ff10513          	addi	a0,sp,2047
   1ac98:	24850513          	addi	a0,a0,584
   1ac9c:	6585                	lui	a1,0x1
   1ac9e:	32058593          	addi	a1,a1,800 # 1320 <.Lline_table_start1+0x10f5>
   1aca2:	958a                	add	a1,a1,sp
   1aca4:	04a00613          	li	a2,74
   1aca8:	00002097          	auipc	ra,0x2
   1acac:	e74080e7          	jalr	-396(ra) # 1cb1c <memcpy>
   1acb0:	6505                	lui	a0,0x1
   1acb2:	37c50513          	addi	a0,a0,892 # 137c <.Lline_table_start1+0x1151>
   1acb6:	950a                	add	a0,a0,sp
   1acb8:	7ff10593          	addi	a1,sp,2047
   1acbc:	24158593          	addi	a1,a1,577
   1acc0:	ffff7097          	auipc	ra,0xffff7
   1acc4:	70c080e7          	jalr	1804(ra) # 123cc <_ZN20complex_full_dynamic3app17h348bb5e6721f1007E>
   1acc8:	3ecb4483          	lbu	s1,1004(s6)
   1accc:	c481                	beqz	s1,1acd4 <_start+0x2e62>
   1acce:	3f0b2a03          	lw	s4,1008(s6)
   1acd2:	a835                	j	1ad0e <_start+0x2e9c>
   1acd4:	3eeb4503          	lbu	a0,1006(s6)
   1acd8:	3edb4583          	lbu	a1,1005(s6)
   1acdc:	3efb4603          	lbu	a2,1007(s6)
   1ace0:	3f0b2a03          	lw	s4,1008(s6)
   1ace4:	0522                	slli	a0,a0,0x8
   1ace6:	8d4d                	or	a0,a0,a1
   1ace8:	00a11223          	sh	a0,4(sp)
   1acec:	00c10323          	sb	a2,6(sp)
   1acf0:	6505                	lui	a0,0x1
   1acf2:	38450513          	addi	a0,a0,900 # 1384 <.Lline_table_start1+0x1159>
   1acf6:	00a105b3          	add	a1,sp,a0
   1acfa:	6505                	lui	a0,0x1
   1acfc:	32050513          	addi	a0,a0,800 # 1320 <.Lline_table_start1+0x10f5>
   1ad00:	950a                	add	a0,a0,sp
   1ad02:	04800613          	li	a2,72
   1ad06:	00002097          	auipc	ra,0x2
   1ad0a:	e16080e7          	jalr	-490(ra) # 1cb1c <memcpy>
   1ad0e:	c099                	beqz	s1,1ad14 <_start+0x2ea2>
   1ad10:	4d10106f          	j	1c9e0 <_start+0x4b6e>
   1ad14:	00411503          	lh	a0,4(sp)
   1ad18:	00614583          	lbu	a1,6(sp)
   1ad1c:	018a5613          	srli	a2,s4,0x18
   1ad20:	010a5693          	srli	a3,s4,0x10
   1ad24:	30d904a3          	sb	a3,777(s2)
   1ad28:	30c90523          	sb	a2,778(s2)
   1ad2c:	008a5613          	srli	a2,s4,0x8
   1ad30:	30a91223          	sh	a0,772(s2)
   1ad34:	30b90323          	sb	a1,774(s2)
   1ad38:	314903a3          	sb	s4,775(s2)
   1ad3c:	30c90423          	sb	a2,776(s2)
   1ad40:	7ff10513          	addi	a0,sp,2047
   1ad44:	29a50513          	addi	a0,a0,666
   1ad48:	6585                	lui	a1,0x1
   1ad4a:	32058593          	addi	a1,a1,800 # 1320 <.Lline_table_start1+0x10f5>
   1ad4e:	958a                	add	a1,a1,sp
   1ad50:	04800613          	li	a2,72
   1ad54:	00002097          	auipc	ra,0x2
   1ad58:	dc8080e7          	jalr	-568(ra) # 1cb1c <memcpy>
   1ad5c:	6505                	lui	a0,0x1
   1ad5e:	37c50513          	addi	a0,a0,892 # 137c <.Lline_table_start1+0x1151>
   1ad62:	950a                	add	a0,a0,sp
   1ad64:	7ff10593          	addi	a1,sp,2047
   1ad68:	29358593          	addi	a1,a1,659
   1ad6c:	ffff7097          	auipc	ra,0xffff7
   1ad70:	e36080e7          	jalr	-458(ra) # 11ba2 <_ZN20complex_full_dynamic3app17h2667bf0494d82fd0E>
   1ad74:	3ecb4483          	lbu	s1,1004(s6)
   1ad78:	c481                	beqz	s1,1ad80 <_start+0x2f0e>
   1ad7a:	3f0b2a03          	lw	s4,1008(s6)
   1ad7e:	a835                	j	1adba <_start+0x2f48>
   1ad80:	3eeb4503          	lbu	a0,1006(s6)
   1ad84:	3edb4583          	lbu	a1,1005(s6)
   1ad88:	3efb4603          	lbu	a2,1007(s6)
   1ad8c:	3f0b2a03          	lw	s4,1008(s6)
   1ad90:	0522                	slli	a0,a0,0x8
   1ad92:	8d4d                	or	a0,a0,a1
   1ad94:	00a11223          	sh	a0,4(sp)
   1ad98:	00c10323          	sb	a2,6(sp)
   1ad9c:	6505                	lui	a0,0x1
   1ad9e:	38450513          	addi	a0,a0,900 # 1384 <.Lline_table_start1+0x1159>
   1ada2:	00a105b3          	add	a1,sp,a0
   1ada6:	6505                	lui	a0,0x1
   1ada8:	32050513          	addi	a0,a0,800 # 1320 <.Lline_table_start1+0x10f5>
   1adac:	950a                	add	a0,a0,sp
   1adae:	05a00613          	li	a2,90
   1adb2:	00002097          	auipc	ra,0x2
   1adb6:	d6a080e7          	jalr	-662(ra) # 1cb1c <memcpy>
   1adba:	c099                	beqz	s1,1adc0 <_start+0x2f4e>
   1adbc:	4250106f          	j	1c9e0 <_start+0x4b6e>
   1adc0:	00411503          	lh	a0,4(sp)
   1adc4:	00614583          	lbu	a1,6(sp)
   1adc8:	018a5613          	srli	a2,s4,0x18
   1adcc:	010a5693          	srli	a3,s4,0x10
   1add0:	34d90ca3          	sb	a3,857(s2)
   1add4:	34c90d23          	sb	a2,858(s2)
   1add8:	008a5613          	srli	a2,s4,0x8
   1addc:	34a91a23          	sh	a0,852(s2)
   1ade0:	34b90b23          	sb	a1,854(s2)
   1ade4:	35490ba3          	sb	s4,855(s2)
   1ade8:	34c90c23          	sb	a2,856(s2)
   1adec:	7ff10513          	addi	a0,sp,2047
   1adf0:	2ea50513          	addi	a0,a0,746
   1adf4:	6585                	lui	a1,0x1
   1adf6:	32058593          	addi	a1,a1,800 # 1320 <.Lline_table_start1+0x10f5>
   1adfa:	958a                	add	a1,a1,sp
   1adfc:	05a00613          	li	a2,90
   1ae00:	00002097          	auipc	ra,0x2
   1ae04:	d1c080e7          	jalr	-740(ra) # 1cb1c <memcpy>
   1ae08:	6505                	lui	a0,0x1
   1ae0a:	37c50513          	addi	a0,a0,892 # 137c <.Lline_table_start1+0x1151>
   1ae0e:	950a                	add	a0,a0,sp
   1ae10:	7ff10593          	addi	a1,sp,2047
   1ae14:	2e358593          	addi	a1,a1,739
   1ae18:	ffff9097          	auipc	ra,0xffff9
   1ae1c:	83e080e7          	jalr	-1986(ra) # 13656 <_ZN20complex_full_dynamic3app17h6f3fe5f7038a5b11E>
   1ae20:	3ecb4503          	lbu	a0,1004(s6)
   1ae24:	c501                	beqz	a0,1ae2c <_start+0x2fba>
   1ae26:	3f0b2a03          	lw	s4,1008(s6)
   1ae2a:	a899                	j	1ae80 <_start+0x300e>
   1ae2c:	3edb4583          	lbu	a1,1005(s6)
   1ae30:	3eeb4603          	lbu	a2,1006(s6)
   1ae34:	3efb4683          	lbu	a3,1007(s6)
   1ae38:	3f0b2a03          	lw	s4,1008(s6)
   1ae3c:	3f4b2703          	lw	a4,1012(s6)
   1ae40:	3f8b2783          	lw	a5,1016(s6)
   1ae44:	3fcb2483          	lw	s1,1020(s6)
   1ae48:	400b2403          	lw	s0,1024(s6)
   1ae4c:	0622                	slli	a2,a2,0x8
   1ae4e:	38eb2823          	sw	a4,912(s6)
   1ae52:	38fb2a23          	sw	a5,916(s6)
   1ae56:	389b2c23          	sw	s1,920(s6)
   1ae5a:	388b2e23          	sw	s0,924(s6)
   1ae5e:	8dd1                	or	a1,a1,a2
   1ae60:	404b2603          	lw	a2,1028(s6)
   1ae64:	408b1703          	lh	a4,1032(s6)
   1ae68:	40ab4783          	lbu	a5,1034(s6)
   1ae6c:	00b11223          	sh	a1,4(sp)
   1ae70:	00d10323          	sb	a3,6(sp)
   1ae74:	3acb2023          	sw	a2,928(s6)
   1ae78:	3aeb1223          	sh	a4,932(s6)
   1ae7c:	3afb0323          	sb	a5,934(s6)
   1ae80:	c119                	beqz	a0,1ae86 <_start+0x3014>
   1ae82:	35f0106f          	j	1c9e0 <_start+0x4b6e>
   1ae86:	00411503          	lh	a0,4(sp)
   1ae8a:	00614583          	lbu	a1,6(sp)
   1ae8e:	018a5613          	srli	a2,s4,0x18
   1ae92:	010a5693          	srli	a3,s4,0x10
   1ae96:	3ad90da3          	sb	a3,955(s2)
   1ae9a:	3ac90e23          	sb	a2,956(s2)
   1ae9e:	008a5613          	srli	a2,s4,0x8
   1aea2:	3aa91b23          	sh	a0,950(s2)
   1aea6:	3ab90c23          	sb	a1,952(s2)
   1aeaa:	3b490ca3          	sb	s4,953(s2)
   1aeae:	3ac90d23          	sb	a2,954(s2)
   1aeb2:	7ff10513          	addi	a0,sp,2047
   1aeb6:	34c50513          	addi	a0,a0,844
   1aeba:	6585                	lui	a1,0x1
   1aebc:	32058593          	addi	a1,a1,800 # 1320 <.Lline_table_start1+0x10f5>
   1aec0:	958a                	add	a1,a1,sp
   1aec2:	465d                	li	a2,23
   1aec4:	00002097          	auipc	ra,0x2
   1aec8:	c58080e7          	jalr	-936(ra) # 1cb1c <memcpy>
   1aecc:	6505                	lui	a0,0x1
   1aece:	37c50513          	addi	a0,a0,892 # 137c <.Lline_table_start1+0x1151>
   1aed2:	950a                	add	a0,a0,sp
   1aed4:	7ff10593          	addi	a1,sp,2047
   1aed8:	34558593          	addi	a1,a1,837
   1aedc:	ffffa097          	auipc	ra,0xffffa
   1aee0:	6de080e7          	jalr	1758(ra) # 155ba <_ZN20complex_full_dynamic3app17haf870d338bbe576aE>
   1aee4:	3ecb4503          	lbu	a0,1004(s6)
   1aee8:	c501                	beqz	a0,1aef0 <_start+0x307e>
   1aeea:	3f0b2a03          	lw	s4,1008(s6)
   1aeee:	a899                	j	1af44 <_start+0x30d2>
   1aef0:	3edb4583          	lbu	a1,1005(s6)
   1aef4:	3eeb4603          	lbu	a2,1006(s6)
   1aef8:	3efb4683          	lbu	a3,1007(s6)
   1aefc:	3f0b2a03          	lw	s4,1008(s6)
   1af00:	3f4b2703          	lw	a4,1012(s6)
   1af04:	3f8b2783          	lw	a5,1016(s6)
   1af08:	3fcb2483          	lw	s1,1020(s6)
   1af0c:	400b2403          	lw	s0,1024(s6)
   1af10:	0622                	slli	a2,a2,0x8
   1af12:	38eb2823          	sw	a4,912(s6)
   1af16:	38fb2a23          	sw	a5,916(s6)
   1af1a:	389b2c23          	sw	s1,920(s6)
   1af1e:	388b2e23          	sw	s0,924(s6)
   1af22:	8dd1                	or	a1,a1,a2
   1af24:	404b2603          	lw	a2,1028(s6)
   1af28:	408b2703          	lw	a4,1032(s6)
   1af2c:	40cb1783          	lh	a5,1036(s6)
   1af30:	00b11223          	sh	a1,4(sp)
   1af34:	00d10323          	sb	a3,6(sp)
   1af38:	3acb2023          	sw	a2,928(s6)
   1af3c:	3aeb2223          	sw	a4,932(s6)
   1af40:	3afb1423          	sh	a5,936(s6)
   1af44:	c119                	beqz	a0,1af4a <_start+0x30d8>
   1af46:	29b0106f          	j	1c9e0 <_start+0x4b6e>
   1af4a:	00411503          	lh	a0,4(sp)
   1af4e:	00614583          	lbu	a1,6(sp)
   1af52:	018a5613          	srli	a2,s4,0x18
   1af56:	010a5693          	srli	a3,s4,0x10
   1af5a:	3cd90ca3          	sb	a3,985(s2)
   1af5e:	3cc90d23          	sb	a2,986(s2)
   1af62:	008a5613          	srli	a2,s4,0x8
   1af66:	3ca91a23          	sh	a0,980(s2)
   1af6a:	3cb90b23          	sb	a1,982(s2)
   1af6e:	3d490ba3          	sb	s4,983(s2)
   1af72:	3cc90c23          	sb	a2,984(s2)
   1af76:	7ff10513          	addi	a0,sp,2047
   1af7a:	36a50513          	addi	a0,a0,874
   1af7e:	6585                	lui	a1,0x1
   1af80:	32058593          	addi	a1,a1,800 # 1320 <.Lline_table_start1+0x10f5>
   1af84:	958a                	add	a1,a1,sp
   1af86:	4669                	li	a2,26
   1af88:	00002097          	auipc	ra,0x2
   1af8c:	b94080e7          	jalr	-1132(ra) # 1cb1c <memcpy>
   1af90:	6505                	lui	a0,0x1
   1af92:	37c50513          	addi	a0,a0,892 # 137c <.Lline_table_start1+0x1151>
   1af96:	950a                	add	a0,a0,sp
   1af98:	7ff10593          	addi	a1,sp,2047
   1af9c:	36358593          	addi	a1,a1,867
   1afa0:	ffff9097          	auipc	ra,0xffff9
   1afa4:	c74080e7          	jalr	-908(ra) # 13c14 <_ZN20complex_full_dynamic3app17h7c77ab3639462ea9E>
   1afa8:	3ecb4483          	lbu	s1,1004(s6)
   1afac:	c481                	beqz	s1,1afb4 <_start+0x3142>
   1afae:	3f0b2a03          	lw	s4,1008(s6)
   1afb2:	a835                	j	1afee <_start+0x317c>
   1afb4:	3eeb4503          	lbu	a0,1006(s6)
   1afb8:	3edb4583          	lbu	a1,1005(s6)
   1afbc:	3efb4603          	lbu	a2,1007(s6)
   1afc0:	3f0b2a03          	lw	s4,1008(s6)
   1afc4:	0522                	slli	a0,a0,0x8
   1afc6:	8d4d                	or	a0,a0,a1
   1afc8:	00a11223          	sh	a0,4(sp)
   1afcc:	00c10323          	sb	a2,6(sp)
   1afd0:	6505                	lui	a0,0x1
   1afd2:	38450513          	addi	a0,a0,900 # 1384 <.Lline_table_start1+0x1159>
   1afd6:	00a105b3          	add	a1,sp,a0
   1afda:	6505                	lui	a0,0x1
   1afdc:	32050513          	addi	a0,a0,800 # 1320 <.Lline_table_start1+0x10f5>
   1afe0:	950a                	add	a0,a0,sp
   1afe2:	02300613          	li	a2,35
   1afe6:	00002097          	auipc	ra,0x2
   1afea:	b36080e7          	jalr	-1226(ra) # 1cb1c <memcpy>
   1afee:	c099                	beqz	s1,1aff4 <_start+0x3182>
   1aff0:	1f10106f          	j	1c9e0 <_start+0x4b6e>
   1aff4:	00411503          	lh	a0,4(sp)
   1aff8:	00614583          	lbu	a1,6(sp)
   1affc:	018a5613          	srli	a2,s4,0x18
   1b000:	010a5693          	srli	a3,s4,0x10
   1b004:	3ed90da3          	sb	a3,1019(s2)
   1b008:	3ec90e23          	sb	a2,1020(s2)
   1b00c:	008a5613          	srli	a2,s4,0x8
   1b010:	3ea91b23          	sh	a0,1014(s2)
   1b014:	3eb90c23          	sb	a1,1016(s2)
   1b018:	3f490ca3          	sb	s4,1017(s2)
   1b01c:	3ec90d23          	sb	a2,1018(s2)
   1b020:	7ff10513          	addi	a0,sp,2047
   1b024:	38c50513          	addi	a0,a0,908
   1b028:	6585                	lui	a1,0x1
   1b02a:	32058593          	addi	a1,a1,800 # 1320 <.Lline_table_start1+0x10f5>
   1b02e:	958a                	add	a1,a1,sp
   1b030:	02300613          	li	a2,35
   1b034:	00002097          	auipc	ra,0x2
   1b038:	ae8080e7          	jalr	-1304(ra) # 1cb1c <memcpy>
   1b03c:	6505                	lui	a0,0x1
   1b03e:	37c50513          	addi	a0,a0,892 # 137c <.Lline_table_start1+0x1151>
   1b042:	950a                	add	a0,a0,sp
   1b044:	7ff10593          	addi	a1,sp,2047
   1b048:	38558593          	addi	a1,a1,901
   1b04c:	ffffc097          	auipc	ra,0xffffc
   1b050:	39c080e7          	jalr	924(ra) # 173e8 <_ZN20complex_full_dynamic3app17hf62c1dad76744545E>
   1b054:	3ecb4483          	lbu	s1,1004(s6)
   1b058:	c481                	beqz	s1,1b060 <_start+0x31ee>
   1b05a:	3f0b2a03          	lw	s4,1008(s6)
   1b05e:	a835                	j	1b09a <_start+0x3228>
   1b060:	3eeb4503          	lbu	a0,1006(s6)
   1b064:	3edb4583          	lbu	a1,1005(s6)
   1b068:	3efb4603          	lbu	a2,1007(s6)
   1b06c:	3f0b2a03          	lw	s4,1008(s6)
   1b070:	0522                	slli	a0,a0,0x8
   1b072:	8d4d                	or	a0,a0,a1
   1b074:	00a11223          	sh	a0,4(sp)
   1b078:	00c10323          	sb	a2,6(sp)
   1b07c:	6505                	lui	a0,0x1
   1b07e:	38450513          	addi	a0,a0,900 # 1384 <.Lline_table_start1+0x1159>
   1b082:	00a105b3          	add	a1,sp,a0
   1b086:	6505                	lui	a0,0x1
   1b088:	32050513          	addi	a0,a0,800 # 1320 <.Lline_table_start1+0x10f5>
   1b08c:	950a                	add	a0,a0,sp
   1b08e:	05200613          	li	a2,82
   1b092:	00002097          	auipc	ra,0x2
   1b096:	a8a080e7          	jalr	-1398(ra) # 1cb1c <memcpy>
   1b09a:	c099                	beqz	s1,1b0a0 <_start+0x322e>
   1b09c:	1450106f          	j	1c9e0 <_start+0x4b6e>
   1b0a0:	00411503          	lh	a0,4(sp)
   1b0a4:	00614583          	lbu	a1,6(sp)
   1b0a8:	018a5613          	srli	a2,s4,0x18
   1b0ac:	010a5693          	srli	a3,s4,0x10
   1b0b0:	42d902a3          	sb	a3,1061(s2)
   1b0b4:	42c90323          	sb	a2,1062(s2)
   1b0b8:	008a5613          	srli	a2,s4,0x8
   1b0bc:	42a91023          	sh	a0,1056(s2)
   1b0c0:	42b90123          	sb	a1,1058(s2)
   1b0c4:	434901a3          	sb	s4,1059(s2)
   1b0c8:	42c90223          	sb	a2,1060(s2)
   1b0cc:	7ff10513          	addi	a0,sp,2047
   1b0d0:	3b650513          	addi	a0,a0,950
   1b0d4:	6585                	lui	a1,0x1
   1b0d6:	32058593          	addi	a1,a1,800 # 1320 <.Lline_table_start1+0x10f5>
   1b0da:	958a                	add	a1,a1,sp
   1b0dc:	05200613          	li	a2,82
   1b0e0:	00002097          	auipc	ra,0x2
   1b0e4:	a3c080e7          	jalr	-1476(ra) # 1cb1c <memcpy>
   1b0e8:	6505                	lui	a0,0x1
   1b0ea:	37c50513          	addi	a0,a0,892 # 137c <.Lline_table_start1+0x1151>
   1b0ee:	950a                	add	a0,a0,sp
   1b0f0:	7ff10593          	addi	a1,sp,2047
   1b0f4:	3af58593          	addi	a1,a1,943
   1b0f8:	ffff9097          	auipc	ra,0xffff9
   1b0fc:	226080e7          	jalr	550(ra) # 1431e <_ZN20complex_full_dynamic3app17h8da9d338c5073a43E>
   1b100:	3ecb4483          	lbu	s1,1004(s6)
   1b104:	c481                	beqz	s1,1b10c <_start+0x329a>
   1b106:	3f0b2a03          	lw	s4,1008(s6)
   1b10a:	a835                	j	1b146 <_start+0x32d4>
   1b10c:	3eeb4503          	lbu	a0,1006(s6)
   1b110:	3edb4583          	lbu	a1,1005(s6)
   1b114:	3efb4603          	lbu	a2,1007(s6)
   1b118:	3f0b2a03          	lw	s4,1008(s6)
   1b11c:	0522                	slli	a0,a0,0x8
   1b11e:	8d4d                	or	a0,a0,a1
   1b120:	00a11223          	sh	a0,4(sp)
   1b124:	00c10323          	sb	a2,6(sp)
   1b128:	6505                	lui	a0,0x1
   1b12a:	38450513          	addi	a0,a0,900 # 1384 <.Lline_table_start1+0x1159>
   1b12e:	00a105b3          	add	a1,sp,a0
   1b132:	6505                	lui	a0,0x1
   1b134:	32050513          	addi	a0,a0,800 # 1320 <.Lline_table_start1+0x10f5>
   1b138:	950a                	add	a0,a0,sp
   1b13a:	04300613          	li	a2,67
   1b13e:	00002097          	auipc	ra,0x2
   1b142:	9de080e7          	jalr	-1570(ra) # 1cb1c <memcpy>
   1b146:	c099                	beqz	s1,1b14c <_start+0x32da>
   1b148:	0990106f          	j	1c9e0 <_start+0x4b6e>
   1b14c:	00411503          	lh	a0,4(sp)
   1b150:	00614583          	lbu	a1,6(sp)
   1b154:	018a5613          	srli	a2,s4,0x18
   1b158:	010a5693          	srli	a3,s4,0x10
   1b15c:	46d90fa3          	sb	a3,1151(s2)
   1b160:	48c90023          	sb	a2,1152(s2)
   1b164:	008a5613          	srli	a2,s4,0x8
   1b168:	46a91d23          	sh	a0,1146(s2)
   1b16c:	46b90e23          	sb	a1,1148(s2)
   1b170:	47490ea3          	sb	s4,1149(s2)
   1b174:	46c90f23          	sb	a2,1150(s2)
   1b178:	7ff10513          	addi	a0,sp,2047
   1b17c:	41050513          	addi	a0,a0,1040
   1b180:	6585                	lui	a1,0x1
   1b182:	32058593          	addi	a1,a1,800 # 1320 <.Lline_table_start1+0x10f5>
   1b186:	958a                	add	a1,a1,sp
   1b188:	04300613          	li	a2,67
   1b18c:	00002097          	auipc	ra,0x2
   1b190:	990080e7          	jalr	-1648(ra) # 1cb1c <memcpy>
   1b194:	6505                	lui	a0,0x1
   1b196:	37c50513          	addi	a0,a0,892 # 137c <.Lline_table_start1+0x1151>
   1b19a:	950a                	add	a0,a0,sp
   1b19c:	7ff10593          	addi	a1,sp,2047
   1b1a0:	40958593          	addi	a1,a1,1033
   1b1a4:	ffffc097          	auipc	ra,0xffffc
   1b1a8:	5cc080e7          	jalr	1484(ra) # 17770 <_ZN20complex_full_dynamic3app17hfaeae7ba1f0b3cd9E>
   1b1ac:	3ecb4483          	lbu	s1,1004(s6)
   1b1b0:	c481                	beqz	s1,1b1b8 <_start+0x3346>
   1b1b2:	3f0b2a03          	lw	s4,1008(s6)
   1b1b6:	a835                	j	1b1f2 <_start+0x3380>
   1b1b8:	3eeb4503          	lbu	a0,1006(s6)
   1b1bc:	3edb4583          	lbu	a1,1005(s6)
   1b1c0:	3efb4603          	lbu	a2,1007(s6)
   1b1c4:	3f0b2a03          	lw	s4,1008(s6)
   1b1c8:	0522                	slli	a0,a0,0x8
   1b1ca:	8d4d                	or	a0,a0,a1
   1b1cc:	00a11223          	sh	a0,4(sp)
   1b1d0:	00c10323          	sb	a2,6(sp)
   1b1d4:	6505                	lui	a0,0x1
   1b1d6:	38450513          	addi	a0,a0,900 # 1384 <.Lline_table_start1+0x1159>
   1b1da:	00a105b3          	add	a1,sp,a0
   1b1de:	6505                	lui	a0,0x1
   1b1e0:	32050513          	addi	a0,a0,800 # 1320 <.Lline_table_start1+0x10f5>
   1b1e4:	950a                	add	a0,a0,sp
   1b1e6:	02600613          	li	a2,38
   1b1ea:	00002097          	auipc	ra,0x2
   1b1ee:	932080e7          	jalr	-1742(ra) # 1cb1c <memcpy>
   1b1f2:	c099                	beqz	s1,1b1f8 <_start+0x3386>
   1b1f4:	7ec0106f          	j	1c9e0 <_start+0x4b6e>
   1b1f8:	00411503          	lh	a0,4(sp)
   1b1fc:	00614583          	lbu	a1,6(sp)
   1b200:	018a5613          	srli	a2,s4,0x18
   1b204:	010a5693          	srli	a3,s4,0x10
   1b208:	4cd904a3          	sb	a3,1225(s2)
   1b20c:	4cc90523          	sb	a2,1226(s2)
   1b210:	008a5613          	srli	a2,s4,0x8
   1b214:	4ca91223          	sh	a0,1220(s2)
   1b218:	4cb90323          	sb	a1,1222(s2)
   1b21c:	4d4903a3          	sb	s4,1223(s2)
   1b220:	4cc90423          	sb	a2,1224(s2)
   1b224:	7ff10513          	addi	a0,sp,2047
   1b228:	45a50513          	addi	a0,a0,1114
   1b22c:	6585                	lui	a1,0x1
   1b22e:	32058593          	addi	a1,a1,800 # 1320 <.Lline_table_start1+0x10f5>
   1b232:	958a                	add	a1,a1,sp
   1b234:	02600613          	li	a2,38
   1b238:	00002097          	auipc	ra,0x2
   1b23c:	8e4080e7          	jalr	-1820(ra) # 1cb1c <memcpy>
   1b240:	6505                	lui	a0,0x1
   1b242:	37c50513          	addi	a0,a0,892 # 137c <.Lline_table_start1+0x1151>
   1b246:	950a                	add	a0,a0,sp
   1b248:	7ff10593          	addi	a1,sp,2047
   1b24c:	45358593          	addi	a1,a1,1107
   1b250:	ffffb097          	auipc	ra,0xffffb
   1b254:	3a4080e7          	jalr	932(ra) # 165f4 <_ZN20complex_full_dynamic3app17hd6becfc3757a80b8E>
   1b258:	3ecb4483          	lbu	s1,1004(s6)
   1b25c:	c481                	beqz	s1,1b264 <_start+0x33f2>
   1b25e:	3f0b2a03          	lw	s4,1008(s6)
   1b262:	a835                	j	1b29e <_start+0x342c>
   1b264:	3eeb4503          	lbu	a0,1006(s6)
   1b268:	3edb4583          	lbu	a1,1005(s6)
   1b26c:	3efb4603          	lbu	a2,1007(s6)
   1b270:	3f0b2a03          	lw	s4,1008(s6)
   1b274:	0522                	slli	a0,a0,0x8
   1b276:	8d4d                	or	a0,a0,a1
   1b278:	00a11223          	sh	a0,4(sp)
   1b27c:	00c10323          	sb	a2,6(sp)
   1b280:	6505                	lui	a0,0x1
   1b282:	38450513          	addi	a0,a0,900 # 1384 <.Lline_table_start1+0x1159>
   1b286:	00a105b3          	add	a1,sp,a0
   1b28a:	6505                	lui	a0,0x1
   1b28c:	32050513          	addi	a0,a0,800 # 1320 <.Lline_table_start1+0x10f5>
   1b290:	950a                	add	a0,a0,sp
   1b292:	04c00613          	li	a2,76
   1b296:	00002097          	auipc	ra,0x2
   1b29a:	886080e7          	jalr	-1914(ra) # 1cb1c <memcpy>
   1b29e:	c099                	beqz	s1,1b2a4 <_start+0x3432>
   1b2a0:	7400106f          	j	1c9e0 <_start+0x4b6e>
   1b2a4:	00411503          	lh	a0,4(sp)
   1b2a8:	00614583          	lbu	a1,6(sp)
   1b2ac:	018a5613          	srli	a2,s4,0x18
   1b2b0:	010a5693          	srli	a3,s4,0x10
   1b2b4:	4ed90ba3          	sb	a3,1271(s2)
   1b2b8:	4ec90c23          	sb	a2,1272(s2)
   1b2bc:	008a5613          	srli	a2,s4,0x8
   1b2c0:	4ea91923          	sh	a0,1266(s2)
   1b2c4:	4eb90a23          	sb	a1,1268(s2)
   1b2c8:	4f490aa3          	sb	s4,1269(s2)
   1b2cc:	4ec90b23          	sb	a2,1270(s2)
   1b2d0:	7ff10513          	addi	a0,sp,2047
   1b2d4:	48850513          	addi	a0,a0,1160
   1b2d8:	6585                	lui	a1,0x1
   1b2da:	32058593          	addi	a1,a1,800 # 1320 <.Lline_table_start1+0x10f5>
   1b2de:	958a                	add	a1,a1,sp
   1b2e0:	04c00613          	li	a2,76
   1b2e4:	00002097          	auipc	ra,0x2
   1b2e8:	838080e7          	jalr	-1992(ra) # 1cb1c <memcpy>
   1b2ec:	6505                	lui	a0,0x1
   1b2ee:	37c50513          	addi	a0,a0,892 # 137c <.Lline_table_start1+0x1151>
   1b2f2:	950a                	add	a0,a0,sp
   1b2f4:	7ff10593          	addi	a1,sp,2047
   1b2f8:	48158593          	addi	a1,a1,1153
   1b2fc:	ffff8097          	auipc	ra,0xffff8
   1b300:	7ea080e7          	jalr	2026(ra) # 13ae6 <_ZN20complex_full_dynamic3app17h7b5aaacb2e77d662E>
   1b304:	3ecb4483          	lbu	s1,1004(s6)
   1b308:	c481                	beqz	s1,1b310 <_start+0x349e>
   1b30a:	3f0b2a03          	lw	s4,1008(s6)
   1b30e:	a835                	j	1b34a <_start+0x34d8>
   1b310:	3eeb4503          	lbu	a0,1006(s6)
   1b314:	3edb4583          	lbu	a1,1005(s6)
   1b318:	3efb4603          	lbu	a2,1007(s6)
   1b31c:	3f0b2a03          	lw	s4,1008(s6)
   1b320:	0522                	slli	a0,a0,0x8
   1b322:	8d4d                	or	a0,a0,a1
   1b324:	00a11223          	sh	a0,4(sp)
   1b328:	00c10323          	sb	a2,6(sp)
   1b32c:	6505                	lui	a0,0x1
   1b32e:	38450513          	addi	a0,a0,900 # 1384 <.Lline_table_start1+0x1159>
   1b332:	00a105b3          	add	a1,sp,a0
   1b336:	6505                	lui	a0,0x1
   1b338:	32050513          	addi	a0,a0,800 # 1320 <.Lline_table_start1+0x10f5>
   1b33c:	950a                	add	a0,a0,sp
   1b33e:	03300613          	li	a2,51
   1b342:	00001097          	auipc	ra,0x1
   1b346:	7da080e7          	jalr	2010(ra) # 1cb1c <memcpy>
   1b34a:	c099                	beqz	s1,1b350 <_start+0x34de>
   1b34c:	6940106f          	j	1c9e0 <_start+0x4b6e>
   1b350:	00411503          	lh	a0,4(sp)
   1b354:	00614583          	lbu	a1,6(sp)
   1b358:	018a5613          	srli	a2,s4,0x18
   1b35c:	010a5693          	srli	a3,s4,0x10
   1b360:	54d905a3          	sb	a3,1355(s2)
   1b364:	54c90623          	sb	a2,1356(s2)
   1b368:	008a5613          	srli	a2,s4,0x8
   1b36c:	54a91323          	sh	a0,1350(s2)
   1b370:	54b90423          	sb	a1,1352(s2)
   1b374:	554904a3          	sb	s4,1353(s2)
   1b378:	54c90523          	sb	a2,1354(s2)
   1b37c:	7ff10513          	addi	a0,sp,2047
   1b380:	4dc50513          	addi	a0,a0,1244
   1b384:	6585                	lui	a1,0x1
   1b386:	32058593          	addi	a1,a1,800 # 1320 <.Lline_table_start1+0x10f5>
   1b38a:	958a                	add	a1,a1,sp
   1b38c:	03300613          	li	a2,51
   1b390:	00001097          	auipc	ra,0x1
   1b394:	78c080e7          	jalr	1932(ra) # 1cb1c <memcpy>
   1b398:	6505                	lui	a0,0x1
   1b39a:	37c50513          	addi	a0,a0,892 # 137c <.Lline_table_start1+0x1151>
   1b39e:	950a                	add	a0,a0,sp
   1b3a0:	7ff10593          	addi	a1,sp,2047
   1b3a4:	4d558593          	addi	a1,a1,1237
   1b3a8:	ffffc097          	auipc	ra,0xffffc
   1b3ac:	29c080e7          	jalr	668(ra) # 17644 <_ZN20complex_full_dynamic3app17hfa528bd1c424570aE>
   1b3b0:	3ecb4483          	lbu	s1,1004(s6)
   1b3b4:	c481                	beqz	s1,1b3bc <_start+0x354a>
   1b3b6:	3f0b2a03          	lw	s4,1008(s6)
   1b3ba:	a835                	j	1b3f6 <_start+0x3584>
   1b3bc:	3eeb4503          	lbu	a0,1006(s6)
   1b3c0:	3edb4583          	lbu	a1,1005(s6)
   1b3c4:	3efb4603          	lbu	a2,1007(s6)
   1b3c8:	3f0b2a03          	lw	s4,1008(s6)
   1b3cc:	0522                	slli	a0,a0,0x8
   1b3ce:	8d4d                	or	a0,a0,a1
   1b3d0:	00a11223          	sh	a0,4(sp)
   1b3d4:	00c10323          	sb	a2,6(sp)
   1b3d8:	6505                	lui	a0,0x1
   1b3da:	38450513          	addi	a0,a0,900 # 1384 <.Lline_table_start1+0x1159>
   1b3de:	00a105b3          	add	a1,sp,a0
   1b3e2:	6505                	lui	a0,0x1
   1b3e4:	32050513          	addi	a0,a0,800 # 1320 <.Lline_table_start1+0x10f5>
   1b3e8:	950a                	add	a0,a0,sp
   1b3ea:	05600613          	li	a2,86
   1b3ee:	00001097          	auipc	ra,0x1
   1b3f2:	72e080e7          	jalr	1838(ra) # 1cb1c <memcpy>
   1b3f6:	c099                	beqz	s1,1b3fc <_start+0x358a>
   1b3f8:	5e80106f          	j	1c9e0 <_start+0x4b6e>
   1b3fc:	00411503          	lh	a0,4(sp)
   1b400:	00614583          	lbu	a1,6(sp)
   1b404:	018a5613          	srli	a2,s4,0x18
   1b408:	010a5693          	srli	a3,s4,0x10
   1b40c:	58d902a3          	sb	a3,1413(s2)
   1b410:	58c90323          	sb	a2,1414(s2)
   1b414:	008a5613          	srli	a2,s4,0x8
   1b418:	58a91023          	sh	a0,1408(s2)
   1b41c:	58b90123          	sb	a1,1410(s2)
   1b420:	594901a3          	sb	s4,1411(s2)
   1b424:	58c90223          	sb	a2,1412(s2)
   1b428:	7ff10513          	addi	a0,sp,2047
   1b42c:	51650513          	addi	a0,a0,1302
   1b430:	6585                	lui	a1,0x1
   1b432:	32058593          	addi	a1,a1,800 # 1320 <.Lline_table_start1+0x10f5>
   1b436:	958a                	add	a1,a1,sp
   1b438:	05600613          	li	a2,86
   1b43c:	00001097          	auipc	ra,0x1
   1b440:	6e0080e7          	jalr	1760(ra) # 1cb1c <memcpy>
   1b444:	6505                	lui	a0,0x1
   1b446:	37c50513          	addi	a0,a0,892 # 137c <.Lline_table_start1+0x1151>
   1b44a:	950a                	add	a0,a0,sp
   1b44c:	7ff10593          	addi	a1,sp,2047
   1b450:	50f58593          	addi	a1,a1,1295
   1b454:	ffff7097          	auipc	ra,0xffff7
   1b458:	554080e7          	jalr	1364(ra) # 129a8 <_ZN20complex_full_dynamic3app17h3e08a91cc5019f9dE>
   1b45c:	3ecb4483          	lbu	s1,1004(s6)
   1b460:	c481                	beqz	s1,1b468 <_start+0x35f6>
   1b462:	3f0b2a03          	lw	s4,1008(s6)
   1b466:	a835                	j	1b4a2 <_start+0x3630>
   1b468:	3eeb4503          	lbu	a0,1006(s6)
   1b46c:	3edb4583          	lbu	a1,1005(s6)
   1b470:	3efb4603          	lbu	a2,1007(s6)
   1b474:	3f0b2a03          	lw	s4,1008(s6)
   1b478:	0522                	slli	a0,a0,0x8
   1b47a:	8d4d                	or	a0,a0,a1
   1b47c:	00a11223          	sh	a0,4(sp)
   1b480:	00c10323          	sb	a2,6(sp)
   1b484:	6505                	lui	a0,0x1
   1b486:	38450513          	addi	a0,a0,900 # 1384 <.Lline_table_start1+0x1159>
   1b48a:	00a105b3          	add	a1,sp,a0
   1b48e:	6505                	lui	a0,0x1
   1b490:	32050513          	addi	a0,a0,800 # 1320 <.Lline_table_start1+0x10f5>
   1b494:	950a                	add	a0,a0,sp
   1b496:	03900613          	li	a2,57
   1b49a:	00001097          	auipc	ra,0x1
   1b49e:	682080e7          	jalr	1666(ra) # 1cb1c <memcpy>
   1b4a2:	c099                	beqz	s1,1b4a8 <_start+0x3636>
   1b4a4:	53c0106f          	j	1c9e0 <_start+0x4b6e>
   1b4a8:	00411503          	lh	a0,4(sp)
   1b4ac:	00614583          	lbu	a1,6(sp)
   1b4b0:	018a5613          	srli	a2,s4,0x18
   1b4b4:	010a5693          	srli	a3,s4,0x10
   1b4b8:	5ed901a3          	sb	a3,1507(s2)
   1b4bc:	5ec90223          	sb	a2,1508(s2)
   1b4c0:	008a5613          	srli	a2,s4,0x8
   1b4c4:	5ca91f23          	sh	a0,1502(s2)
   1b4c8:	5eb90023          	sb	a1,1504(s2)
   1b4cc:	5f4900a3          	sb	s4,1505(s2)
   1b4d0:	5ec90123          	sb	a2,1506(s2)
   1b4d4:	7ff10513          	addi	a0,sp,2047
   1b4d8:	57450513          	addi	a0,a0,1396
   1b4dc:	6585                	lui	a1,0x1
   1b4de:	32058593          	addi	a1,a1,800 # 1320 <.Lline_table_start1+0x10f5>
   1b4e2:	958a                	add	a1,a1,sp
   1b4e4:	03900613          	li	a2,57
   1b4e8:	00001097          	auipc	ra,0x1
   1b4ec:	634080e7          	jalr	1588(ra) # 1cb1c <memcpy>
   1b4f0:	6505                	lui	a0,0x1
   1b4f2:	37c50513          	addi	a0,a0,892 # 137c <.Lline_table_start1+0x1151>
   1b4f6:	950a                	add	a0,a0,sp
   1b4f8:	7ff10593          	addi	a1,sp,2047
   1b4fc:	56d58593          	addi	a1,a1,1389
   1b500:	ffff9097          	auipc	ra,0xffff9
   1b504:	198080e7          	jalr	408(ra) # 14698 <_ZN20complex_full_dynamic3app17h93e007f9c86c5a78E>
   1b508:	3ecb4483          	lbu	s1,1004(s6)
   1b50c:	c481                	beqz	s1,1b514 <_start+0x36a2>
   1b50e:	3f0b2a03          	lw	s4,1008(s6)
   1b512:	a835                	j	1b54e <_start+0x36dc>
   1b514:	3eeb4503          	lbu	a0,1006(s6)
   1b518:	3edb4583          	lbu	a1,1005(s6)
   1b51c:	3efb4603          	lbu	a2,1007(s6)
   1b520:	3f0b2a03          	lw	s4,1008(s6)
   1b524:	0522                	slli	a0,a0,0x8
   1b526:	8d4d                	or	a0,a0,a1
   1b528:	00a11223          	sh	a0,4(sp)
   1b52c:	00c10323          	sb	a2,6(sp)
   1b530:	6505                	lui	a0,0x1
   1b532:	38450513          	addi	a0,a0,900 # 1384 <.Lline_table_start1+0x1159>
   1b536:	00a105b3          	add	a1,sp,a0
   1b53a:	6505                	lui	a0,0x1
   1b53c:	32050513          	addi	a0,a0,800 # 1320 <.Lline_table_start1+0x10f5>
   1b540:	950a                	add	a0,a0,sp
   1b542:	02a00613          	li	a2,42
   1b546:	00001097          	auipc	ra,0x1
   1b54a:	5d6080e7          	jalr	1494(ra) # 1cb1c <memcpy>
   1b54e:	c099                	beqz	s1,1b554 <_start+0x36e2>
   1b550:	4900106f          	j	1c9e0 <_start+0x4b6e>
   1b554:	00411503          	lh	a0,4(sp)
   1b558:	00614583          	lbu	a1,6(sp)
   1b55c:	018a5613          	srli	a2,s4,0x18
   1b560:	010a5693          	srli	a3,s4,0x10
   1b564:	62d901a3          	sb	a3,1571(s2)
   1b568:	62c90223          	sb	a2,1572(s2)
   1b56c:	008a5613          	srli	a2,s4,0x8
   1b570:	60a91f23          	sh	a0,1566(s2)
   1b574:	62b90023          	sb	a1,1568(s2)
   1b578:	634900a3          	sb	s4,1569(s2)
   1b57c:	62c90123          	sb	a2,1570(s2)
   1b580:	7ff10513          	addi	a0,sp,2047
   1b584:	5b450513          	addi	a0,a0,1460
   1b588:	6585                	lui	a1,0x1
   1b58a:	32058593          	addi	a1,a1,800 # 1320 <.Lline_table_start1+0x10f5>
   1b58e:	958a                	add	a1,a1,sp
   1b590:	02a00613          	li	a2,42
   1b594:	00001097          	auipc	ra,0x1
   1b598:	588080e7          	jalr	1416(ra) # 1cb1c <memcpy>
   1b59c:	6505                	lui	a0,0x1
   1b59e:	37c50513          	addi	a0,a0,892 # 137c <.Lline_table_start1+0x1151>
   1b5a2:	950a                	add	a0,a0,sp
   1b5a4:	7ff10593          	addi	a1,sp,2047
   1b5a8:	5ad58593          	addi	a1,a1,1453
   1b5ac:	ffffc097          	auipc	ra,0xffffc
   1b5b0:	d12080e7          	jalr	-750(ra) # 172be <_ZN20complex_full_dynamic3app17hf51100b8f194f7c2E>
   1b5b4:	3ecb4483          	lbu	s1,1004(s6)
   1b5b8:	c481                	beqz	s1,1b5c0 <_start+0x374e>
   1b5ba:	3f0b2a03          	lw	s4,1008(s6)
   1b5be:	a835                	j	1b5fa <_start+0x3788>
   1b5c0:	3eeb4503          	lbu	a0,1006(s6)
   1b5c4:	3edb4583          	lbu	a1,1005(s6)
   1b5c8:	3efb4603          	lbu	a2,1007(s6)
   1b5cc:	3f0b2a03          	lw	s4,1008(s6)
   1b5d0:	0522                	slli	a0,a0,0x8
   1b5d2:	8d4d                	or	a0,a0,a1
   1b5d4:	00a11223          	sh	a0,4(sp)
   1b5d8:	00c10323          	sb	a2,6(sp)
   1b5dc:	6505                	lui	a0,0x1
   1b5de:	38450513          	addi	a0,a0,900 # 1384 <.Lline_table_start1+0x1159>
   1b5e2:	00a105b3          	add	a1,sp,a0
   1b5e6:	6505                	lui	a0,0x1
   1b5e8:	32050513          	addi	a0,a0,800 # 1320 <.Lline_table_start1+0x10f5>
   1b5ec:	950a                	add	a0,a0,sp
   1b5ee:	04100613          	li	a2,65
   1b5f2:	00001097          	auipc	ra,0x1
   1b5f6:	52a080e7          	jalr	1322(ra) # 1cb1c <memcpy>
   1b5fa:	c099                	beqz	s1,1b600 <_start+0x378e>
   1b5fc:	3e40106f          	j	1c9e0 <_start+0x4b6e>
   1b600:	00411503          	lh	a0,4(sp)
   1b604:	00614583          	lbu	a1,6(sp)
   1b608:	018a5613          	srli	a2,s4,0x18
   1b60c:	010a5693          	srli	a3,s4,0x10
   1b610:	64d90aa3          	sb	a3,1621(s2)
   1b614:	64c90b23          	sb	a2,1622(s2)
   1b618:	008a5613          	srli	a2,s4,0x8
   1b61c:	64a91823          	sh	a0,1616(s2)
   1b620:	64b90923          	sb	a1,1618(s2)
   1b624:	654909a3          	sb	s4,1619(s2)
   1b628:	64c90a23          	sb	a2,1620(s2)
   1b62c:	7ff10513          	addi	a0,sp,2047
   1b630:	5e650513          	addi	a0,a0,1510
   1b634:	6585                	lui	a1,0x1
   1b636:	32058593          	addi	a1,a1,800 # 1320 <.Lline_table_start1+0x10f5>
   1b63a:	958a                	add	a1,a1,sp
   1b63c:	04100613          	li	a2,65
   1b640:	00001097          	auipc	ra,0x1
   1b644:	4dc080e7          	jalr	1244(ra) # 1cb1c <memcpy>
   1b648:	6505                	lui	a0,0x1
   1b64a:	37c50513          	addi	a0,a0,892 # 137c <.Lline_table_start1+0x1151>
   1b64e:	950a                	add	a0,a0,sp
   1b650:	7ff10593          	addi	a1,sp,2047
   1b654:	5df58593          	addi	a1,a1,1503
   1b658:	ffffb097          	auipc	ra,0xffffb
   1b65c:	68e080e7          	jalr	1678(ra) # 16ce6 <_ZN20complex_full_dynamic3app17he44374c3a01e5516E>
   1b660:	3ecb4483          	lbu	s1,1004(s6)
   1b664:	c481                	beqz	s1,1b66c <_start+0x37fa>
   1b666:	3f0b2a03          	lw	s4,1008(s6)
   1b66a:	a835                	j	1b6a6 <_start+0x3834>
   1b66c:	3eeb4503          	lbu	a0,1006(s6)
   1b670:	3edb4583          	lbu	a1,1005(s6)
   1b674:	3efb4603          	lbu	a2,1007(s6)
   1b678:	3f0b2a03          	lw	s4,1008(s6)
   1b67c:	0522                	slli	a0,a0,0x8
   1b67e:	8d4d                	or	a0,a0,a1
   1b680:	00a11223          	sh	a0,4(sp)
   1b684:	00c10323          	sb	a2,6(sp)
   1b688:	6505                	lui	a0,0x1
   1b68a:	38450513          	addi	a0,a0,900 # 1384 <.Lline_table_start1+0x1159>
   1b68e:	00a105b3          	add	a1,sp,a0
   1b692:	6505                	lui	a0,0x1
   1b694:	32050513          	addi	a0,a0,800 # 1320 <.Lline_table_start1+0x10f5>
   1b698:	950a                	add	a0,a0,sp
   1b69a:	02200613          	li	a2,34
   1b69e:	00001097          	auipc	ra,0x1
   1b6a2:	47e080e7          	jalr	1150(ra) # 1cb1c <memcpy>
   1b6a6:	c099                	beqz	s1,1b6ac <_start+0x383a>
   1b6a8:	3380106f          	j	1c9e0 <_start+0x4b6e>
   1b6ac:	00411503          	lh	a0,4(sp)
   1b6b0:	00614583          	lbu	a1,6(sp)
   1b6b4:	018a5613          	srli	a2,s4,0x18
   1b6b8:	010a5693          	srli	a3,s4,0x10
   1b6bc:	68d90ea3          	sb	a3,1693(s2)
   1b6c0:	68c90f23          	sb	a2,1694(s2)
   1b6c4:	008a5613          	srli	a2,s4,0x8
   1b6c8:	68a91c23          	sh	a0,1688(s2)
   1b6cc:	68b90d23          	sb	a1,1690(s2)
   1b6d0:	69490da3          	sb	s4,1691(s2)
   1b6d4:	68c90e23          	sb	a2,1692(s2)
   1b6d8:	7ff10513          	addi	a0,sp,2047
   1b6dc:	62e50513          	addi	a0,a0,1582
   1b6e0:	6585                	lui	a1,0x1
   1b6e2:	32058593          	addi	a1,a1,800 # 1320 <.Lline_table_start1+0x10f5>
   1b6e6:	958a                	add	a1,a1,sp
   1b6e8:	02200613          	li	a2,34
   1b6ec:	00001097          	auipc	ra,0x1
   1b6f0:	430080e7          	jalr	1072(ra) # 1cb1c <memcpy>
   1b6f4:	6505                	lui	a0,0x1
   1b6f6:	37c50513          	addi	a0,a0,892 # 137c <.Lline_table_start1+0x1151>
   1b6fa:	950a                	add	a0,a0,sp
   1b6fc:	7ff10593          	addi	a1,sp,2047
   1b700:	62758593          	addi	a1,a1,1575
   1b704:	ffff9097          	auipc	ra,0xffff9
   1b708:	d46080e7          	jalr	-698(ra) # 1444a <_ZN20complex_full_dynamic3app17h8ff575c5d967ff0cE>
   1b70c:	3ecb4503          	lbu	a0,1004(s6)
   1b710:	c501                	beqz	a0,1b718 <_start+0x38a6>
   1b712:	3f0b2a03          	lw	s4,1008(s6)
   1b716:	a0b9                	j	1b764 <_start+0x38f2>
   1b718:	3edb4583          	lbu	a1,1005(s6)
   1b71c:	3eeb4603          	lbu	a2,1006(s6)
   1b720:	3efb4683          	lbu	a3,1007(s6)
   1b724:	3f0b2a03          	lw	s4,1008(s6)
   1b728:	3f4b2703          	lw	a4,1012(s6)
   1b72c:	3f8b2783          	lw	a5,1016(s6)
   1b730:	3fcb2483          	lw	s1,1020(s6)
   1b734:	400b2403          	lw	s0,1024(s6)
   1b738:	0622                	slli	a2,a2,0x8
   1b73a:	38eb2823          	sw	a4,912(s6)
   1b73e:	38fb2a23          	sw	a5,916(s6)
   1b742:	389b2c23          	sw	s1,920(s6)
   1b746:	388b2e23          	sw	s0,924(s6)
   1b74a:	8dd1                	or	a1,a1,a2
   1b74c:	404b1603          	lh	a2,1028(s6)
   1b750:	406b4703          	lbu	a4,1030(s6)
   1b754:	00b11223          	sh	a1,4(sp)
   1b758:	00d10323          	sb	a3,6(sp)
   1b75c:	3acb1023          	sh	a2,928(s6)
   1b760:	3aeb0123          	sb	a4,930(s6)
   1b764:	c119                	beqz	a0,1b76a <_start+0x38f8>
   1b766:	27a0106f          	j	1c9e0 <_start+0x4b6e>
   1b76a:	00411503          	lh	a0,4(sp)
   1b76e:	00614583          	lbu	a1,6(sp)
   1b772:	018a5613          	srli	a2,s4,0x18
   1b776:	010a5693          	srli	a3,s4,0x10
   1b77a:	6cd903a3          	sb	a3,1735(s2)
   1b77e:	6cc90423          	sb	a2,1736(s2)
   1b782:	008a5613          	srli	a2,s4,0x8
   1b786:	6ca91123          	sh	a0,1730(s2)
   1b78a:	6cb90223          	sb	a1,1732(s2)
   1b78e:	6d4902a3          	sb	s4,1733(s2)
   1b792:	6cc90323          	sb	a2,1734(s2)
   1b796:	7ff10513          	addi	a0,sp,2047
   1b79a:	65850513          	addi	a0,a0,1624
   1b79e:	6585                	lui	a1,0x1
   1b7a0:	32058593          	addi	a1,a1,800 # 1320 <.Lline_table_start1+0x10f5>
   1b7a4:	958a                	add	a1,a1,sp
   1b7a6:	464d                	li	a2,19
   1b7a8:	00001097          	auipc	ra,0x1
   1b7ac:	374080e7          	jalr	884(ra) # 1cb1c <memcpy>
   1b7b0:	6505                	lui	a0,0x1
   1b7b2:	37c50513          	addi	a0,a0,892 # 137c <.Lline_table_start1+0x1151>
   1b7b6:	950a                	add	a0,a0,sp
   1b7b8:	7ff10593          	addi	a1,sp,2047
   1b7bc:	65158593          	addi	a1,a1,1617
   1b7c0:	ffff9097          	auipc	ra,0xffff9
   1b7c4:	5d8080e7          	jalr	1496(ra) # 14d98 <_ZN20complex_full_dynamic3app17h9d4d9fbd66299db6E>
   1b7c8:	3ecb4503          	lbu	a0,1004(s6)
   1b7cc:	c501                	beqz	a0,1b7d4 <_start+0x3962>
   1b7ce:	3f0b2a03          	lw	s4,1008(s6)
   1b7d2:	a099                	j	1b818 <_start+0x39a6>
   1b7d4:	3edb4583          	lbu	a1,1005(s6)
   1b7d8:	3eeb4603          	lbu	a2,1006(s6)
   1b7dc:	3efb4683          	lbu	a3,1007(s6)
   1b7e0:	3f0b2a03          	lw	s4,1008(s6)
   1b7e4:	3f4b2703          	lw	a4,1012(s6)
   1b7e8:	3f8b2783          	lw	a5,1016(s6)
   1b7ec:	3fcb2483          	lw	s1,1020(s6)
   1b7f0:	400b2403          	lw	s0,1024(s6)
   1b7f4:	38eb2823          	sw	a4,912(s6)
   1b7f8:	38fb2a23          	sw	a5,916(s6)
   1b7fc:	389b2c23          	sw	s1,920(s6)
   1b800:	388b2e23          	sw	s0,924(s6)
   1b804:	404b2703          	lw	a4,1028(s6)
   1b808:	0622                	slli	a2,a2,0x8
   1b80a:	8dd1                	or	a1,a1,a2
   1b80c:	00b11223          	sh	a1,4(sp)
   1b810:	00d10323          	sb	a3,6(sp)
   1b814:	3aeb2023          	sw	a4,928(s6)
   1b818:	c119                	beqz	a0,1b81e <_start+0x39ac>
   1b81a:	1c60106f          	j	1c9e0 <_start+0x4b6e>
   1b81e:	00411503          	lh	a0,4(sp)
   1b822:	00614583          	lbu	a1,6(sp)
   1b826:	018a5613          	srli	a2,s4,0x18
   1b82a:	010a5693          	srli	a3,s4,0x10
   1b82e:	6ed900a3          	sb	a3,1761(s2)
   1b832:	6ec90123          	sb	a2,1762(s2)
   1b836:	008a5613          	srli	a2,s4,0x8
   1b83a:	6ca91e23          	sh	a0,1756(s2)
   1b83e:	6cb90f23          	sb	a1,1758(s2)
   1b842:	6d490fa3          	sb	s4,1759(s2)
   1b846:	6ec90023          	sb	a2,1760(s2)
   1b84a:	7ff10513          	addi	a0,sp,2047
   1b84e:	67250513          	addi	a0,a0,1650
   1b852:	6585                	lui	a1,0x1
   1b854:	32058593          	addi	a1,a1,800 # 1320 <.Lline_table_start1+0x10f5>
   1b858:	958a                	add	a1,a1,sp
   1b85a:	4651                	li	a2,20
   1b85c:	00001097          	auipc	ra,0x1
   1b860:	2c0080e7          	jalr	704(ra) # 1cb1c <memcpy>
   1b864:	6505                	lui	a0,0x1
   1b866:	37c50513          	addi	a0,a0,892 # 137c <.Lline_table_start1+0x1151>
   1b86a:	950a                	add	a0,a0,sp
   1b86c:	7ff10593          	addi	a1,sp,2047
   1b870:	66b58593          	addi	a1,a1,1643
   1b874:	ffff7097          	auipc	ra,0xffff7
   1b878:	262080e7          	jalr	610(ra) # 12ad6 <_ZN20complex_full_dynamic3app17h4631962ff7cb3a41E>
   1b87c:	3ecb4483          	lbu	s1,1004(s6)
   1b880:	c481                	beqz	s1,1b888 <_start+0x3a16>
   1b882:	3f0b2a03          	lw	s4,1008(s6)
   1b886:	a835                	j	1b8c2 <_start+0x3a50>
   1b888:	3eeb4503          	lbu	a0,1006(s6)
   1b88c:	3edb4583          	lbu	a1,1005(s6)
   1b890:	3efb4603          	lbu	a2,1007(s6)
   1b894:	3f0b2a03          	lw	s4,1008(s6)
   1b898:	0522                	slli	a0,a0,0x8
   1b89a:	8d4d                	or	a0,a0,a1
   1b89c:	00a11223          	sh	a0,4(sp)
   1b8a0:	00c10323          	sb	a2,6(sp)
   1b8a4:	6505                	lui	a0,0x1
   1b8a6:	38450513          	addi	a0,a0,900 # 1384 <.Lline_table_start1+0x1159>
   1b8aa:	00a105b3          	add	a1,sp,a0
   1b8ae:	6505                	lui	a0,0x1
   1b8b0:	32050513          	addi	a0,a0,800 # 1320 <.Lline_table_start1+0x10f5>
   1b8b4:	950a                	add	a0,a0,sp
   1b8b6:	03a00613          	li	a2,58
   1b8ba:	00001097          	auipc	ra,0x1
   1b8be:	262080e7          	jalr	610(ra) # 1cb1c <memcpy>
   1b8c2:	c099                	beqz	s1,1b8c8 <_start+0x3a56>
   1b8c4:	11c0106f          	j	1c9e0 <_start+0x4b6e>
   1b8c8:	00411503          	lh	a0,4(sp)
   1b8cc:	00614583          	lbu	a1,6(sp)
   1b8d0:	018a5613          	srli	a2,s4,0x18
   1b8d4:	010a5693          	srli	a3,s4,0x10
   1b8d8:	6ed90ea3          	sb	a3,1789(s2)
   1b8dc:	6ec90f23          	sb	a2,1790(s2)
   1b8e0:	008a5613          	srli	a2,s4,0x8
   1b8e4:	6ea91c23          	sh	a0,1784(s2)
   1b8e8:	6eb90d23          	sb	a1,1786(s2)
   1b8ec:	6f490da3          	sb	s4,1787(s2)
   1b8f0:	6ec90e23          	sb	a2,1788(s2)
   1b8f4:	7ff10513          	addi	a0,sp,2047
   1b8f8:	68e50513          	addi	a0,a0,1678
   1b8fc:	6585                	lui	a1,0x1
   1b8fe:	32058593          	addi	a1,a1,800 # 1320 <.Lline_table_start1+0x10f5>
   1b902:	958a                	add	a1,a1,sp
   1b904:	03a00613          	li	a2,58
   1b908:	00001097          	auipc	ra,0x1
   1b90c:	214080e7          	jalr	532(ra) # 1cb1c <memcpy>
   1b910:	6505                	lui	a0,0x1
   1b912:	37c50513          	addi	a0,a0,892 # 137c <.Lline_table_start1+0x1151>
   1b916:	950a                	add	a0,a0,sp
   1b918:	7ff10593          	addi	a1,sp,2047
   1b91c:	68758593          	addi	a1,a1,1671
   1b920:	ffffa097          	auipc	ra,0xffffa
   1b924:	260080e7          	jalr	608(ra) # 15b80 <_ZN20complex_full_dynamic3app17hba69af3325b079d2E>
   1b928:	3ecb4503          	lbu	a0,1004(s6)
   1b92c:	c501                	beqz	a0,1b934 <_start+0x3ac2>
   1b92e:	3f0b2a03          	lw	s4,1008(s6)
   1b932:	a099                	j	1b978 <_start+0x3b06>
   1b934:	3edb4583          	lbu	a1,1005(s6)
   1b938:	3eeb4603          	lbu	a2,1006(s6)
   1b93c:	3efb4683          	lbu	a3,1007(s6)
   1b940:	3f0b2a03          	lw	s4,1008(s6)
   1b944:	3f4b2703          	lw	a4,1012(s6)
   1b948:	3f8b2783          	lw	a5,1016(s6)
   1b94c:	3fcb2483          	lw	s1,1020(s6)
   1b950:	400b2403          	lw	s0,1024(s6)
   1b954:	38eb2823          	sw	a4,912(s6)
   1b958:	38fb2a23          	sw	a5,916(s6)
   1b95c:	389b2c23          	sw	s1,920(s6)
   1b960:	388b2e23          	sw	s0,924(s6)
   1b964:	404b4703          	lbu	a4,1028(s6)
   1b968:	0622                	slli	a2,a2,0x8
   1b96a:	8dd1                	or	a1,a1,a2
   1b96c:	00b11223          	sh	a1,4(sp)
   1b970:	00d10323          	sb	a3,6(sp)
   1b974:	3aeb0023          	sb	a4,928(s6)
   1b978:	c119                	beqz	a0,1b97e <_start+0x3b0c>
   1b97a:	0660106f          	j	1c9e0 <_start+0x4b6e>
   1b97e:	00411503          	lh	a0,4(sp)
   1b982:	00614583          	lbu	a1,6(sp)
   1b986:	018a5613          	srli	a2,s4,0x18
   1b98a:	010a5693          	srli	a3,s4,0x10
   1b98e:	72d90fa3          	sb	a3,1855(s2)
   1b992:	74c90023          	sb	a2,1856(s2)
   1b996:	008a5613          	srli	a2,s4,0x8
   1b99a:	72a91d23          	sh	a0,1850(s2)
   1b99e:	72b90e23          	sb	a1,1852(s2)
   1b9a2:	73490ea3          	sb	s4,1853(s2)
   1b9a6:	72c90f23          	sb	a2,1854(s2)
   1b9aa:	7ff10513          	addi	a0,sp,2047
   1b9ae:	6d050513          	addi	a0,a0,1744
   1b9b2:	6585                	lui	a1,0x1
   1b9b4:	32058593          	addi	a1,a1,800 # 1320 <.Lline_table_start1+0x10f5>
   1b9b8:	958a                	add	a1,a1,sp
   1b9ba:	4645                	li	a2,17
   1b9bc:	00001097          	auipc	ra,0x1
   1b9c0:	160080e7          	jalr	352(ra) # 1cb1c <memcpy>
   1b9c4:	6505                	lui	a0,0x1
   1b9c6:	37c50513          	addi	a0,a0,892 # 137c <.Lline_table_start1+0x1151>
   1b9ca:	950a                	add	a0,a0,sp
   1b9cc:	7ff10593          	addi	a1,sp,2047
   1b9d0:	6c958593          	addi	a1,a1,1737
   1b9d4:	ffffa097          	auipc	ra,0xffffa
   1b9d8:	e3a080e7          	jalr	-454(ra) # 1580e <_ZN20complex_full_dynamic3app17hb206183bff928d9dE>
   1b9dc:	3ecb4503          	lbu	a0,1004(s6)
   1b9e0:	c501                	beqz	a0,1b9e8 <_start+0x3b76>
   1b9e2:	3f0b2a03          	lw	s4,1008(s6)
   1b9e6:	a899                	j	1ba3c <_start+0x3bca>
   1b9e8:	3edb4583          	lbu	a1,1005(s6)
   1b9ec:	3eeb4603          	lbu	a2,1006(s6)
   1b9f0:	3efb4683          	lbu	a3,1007(s6)
   1b9f4:	3f0b2a03          	lw	s4,1008(s6)
   1b9f8:	3f4b2703          	lw	a4,1012(s6)
   1b9fc:	3f8b2783          	lw	a5,1016(s6)
   1ba00:	3fcb2483          	lw	s1,1020(s6)
   1ba04:	400b2403          	lw	s0,1024(s6)
   1ba08:	0622                	slli	a2,a2,0x8
   1ba0a:	38eb2823          	sw	a4,912(s6)
   1ba0e:	38fb2a23          	sw	a5,916(s6)
   1ba12:	389b2c23          	sw	s1,920(s6)
   1ba16:	388b2e23          	sw	s0,924(s6)
   1ba1a:	8dd1                	or	a1,a1,a2
   1ba1c:	404b2603          	lw	a2,1028(s6)
   1ba20:	408b1703          	lh	a4,1032(s6)
   1ba24:	40ab4783          	lbu	a5,1034(s6)
   1ba28:	00b11223          	sh	a1,4(sp)
   1ba2c:	00d10323          	sb	a3,6(sp)
   1ba30:	3acb2023          	sw	a2,928(s6)
   1ba34:	3aeb1223          	sh	a4,932(s6)
   1ba38:	3afb0323          	sb	a5,934(s6)
   1ba3c:	c119                	beqz	a0,1ba42 <_start+0x3bd0>
   1ba3e:	7a30006f          	j	1c9e0 <_start+0x4b6e>
   1ba42:	00411503          	lh	a0,4(sp)
   1ba46:	00614583          	lbu	a1,6(sp)
   1ba4a:	018a5613          	srli	a2,s4,0x18
   1ba4e:	010a5693          	srli	a3,s4,0x10
   1ba52:	74d90ba3          	sb	a3,1879(s2)
   1ba56:	74c90c23          	sb	a2,1880(s2)
   1ba5a:	008a5613          	srli	a2,s4,0x8
   1ba5e:	74a91923          	sh	a0,1874(s2)
   1ba62:	74b90a23          	sb	a1,1876(s2)
   1ba66:	75490aa3          	sb	s4,1877(s2)
   1ba6a:	74c90b23          	sb	a2,1878(s2)
   1ba6e:	7ff10513          	addi	a0,sp,2047
   1ba72:	6e850513          	addi	a0,a0,1768
   1ba76:	6585                	lui	a1,0x1
   1ba78:	32058593          	addi	a1,a1,800 # 1320 <.Lline_table_start1+0x10f5>
   1ba7c:	958a                	add	a1,a1,sp
   1ba7e:	465d                	li	a2,23
   1ba80:	00001097          	auipc	ra,0x1
   1ba84:	09c080e7          	jalr	156(ra) # 1cb1c <memcpy>
   1ba88:	6505                	lui	a0,0x1
   1ba8a:	37c50513          	addi	a0,a0,892 # 137c <.Lline_table_start1+0x1151>
   1ba8e:	950a                	add	a0,a0,sp
   1ba90:	7ff10593          	addi	a1,sp,2047
   1ba94:	6e158593          	addi	a1,a1,1761
   1ba98:	ffff8097          	auipc	ra,0xffff8
   1ba9c:	e06080e7          	jalr	-506(ra) # 1389e <_ZN20complex_full_dynamic3app17h72623f7be6eafe51E>
   1baa0:	3ecb4483          	lbu	s1,1004(s6)
   1baa4:	c481                	beqz	s1,1baac <_start+0x3c3a>
   1baa6:	3f0b2a03          	lw	s4,1008(s6)
   1baaa:	a835                	j	1bae6 <_start+0x3c74>
   1baac:	3eeb4503          	lbu	a0,1006(s6)
   1bab0:	3edb4583          	lbu	a1,1005(s6)
   1bab4:	3efb4603          	lbu	a2,1007(s6)
   1bab8:	3f0b2a03          	lw	s4,1008(s6)
   1babc:	0522                	slli	a0,a0,0x8
   1babe:	8d4d                	or	a0,a0,a1
   1bac0:	00a11223          	sh	a0,4(sp)
   1bac4:	00c10323          	sb	a2,6(sp)
   1bac8:	6505                	lui	a0,0x1
   1baca:	38450513          	addi	a0,a0,900 # 1384 <.Lline_table_start1+0x1159>
   1bace:	00a105b3          	add	a1,sp,a0
   1bad2:	6505                	lui	a0,0x1
   1bad4:	32050513          	addi	a0,a0,800 # 1320 <.Lline_table_start1+0x10f5>
   1bad8:	950a                	add	a0,a0,sp
   1bada:	03500613          	li	a2,53
   1bade:	00001097          	auipc	ra,0x1
   1bae2:	03e080e7          	jalr	62(ra) # 1cb1c <memcpy>
   1bae6:	6e049de3          	bnez	s1,1c9e0 <_start+0x4b6e>
   1baea:	00411503          	lh	a0,4(sp)
   1baee:	00614583          	lbu	a1,6(sp)
   1baf2:	018a5613          	srli	a2,s4,0x18
   1baf6:	010a5693          	srli	a3,s4,0x10
   1bafa:	76d90aa3          	sb	a3,1909(s2)
   1bafe:	76c90b23          	sb	a2,1910(s2)
   1bb02:	008a5613          	srli	a2,s4,0x8
   1bb06:	76a91823          	sh	a0,1904(s2)
   1bb0a:	76b90923          	sb	a1,1906(s2)
   1bb0e:	774909a3          	sb	s4,1907(s2)
   1bb12:	76c90a23          	sb	a2,1908(s2)
   1bb16:	7ff10513          	addi	a0,sp,2047
   1bb1a:	70650513          	addi	a0,a0,1798
   1bb1e:	6585                	lui	a1,0x1
   1bb20:	32058593          	addi	a1,a1,800 # 1320 <.Lline_table_start1+0x10f5>
   1bb24:	958a                	add	a1,a1,sp
   1bb26:	03500613          	li	a2,53
   1bb2a:	00001097          	auipc	ra,0x1
   1bb2e:	ff2080e7          	jalr	-14(ra) # 1cb1c <memcpy>
   1bb32:	6505                	lui	a0,0x1
   1bb34:	37c50513          	addi	a0,a0,892 # 137c <.Lline_table_start1+0x1151>
   1bb38:	950a                	add	a0,a0,sp
   1bb3a:	7ff10593          	addi	a1,sp,2047
   1bb3e:	6ff58593          	addi	a1,a1,1791
   1bb42:	ffff6097          	auipc	ra,0xffff6
   1bb46:	2b8080e7          	jalr	696(ra) # 11dfa <_ZN20complex_full_dynamic3app17h2696192ecca80739E>
   1bb4a:	3ecb4483          	lbu	s1,1004(s6)
   1bb4e:	c481                	beqz	s1,1bb56 <_start+0x3ce4>
   1bb50:	3f0b2a03          	lw	s4,1008(s6)
   1bb54:	a835                	j	1bb90 <_start+0x3d1e>
   1bb56:	3eeb4503          	lbu	a0,1006(s6)
   1bb5a:	3edb4583          	lbu	a1,1005(s6)
   1bb5e:	3efb4603          	lbu	a2,1007(s6)
   1bb62:	3f0b2a03          	lw	s4,1008(s6)
   1bb66:	0522                	slli	a0,a0,0x8
   1bb68:	8d4d                	or	a0,a0,a1
   1bb6a:	00a11223          	sh	a0,4(sp)
   1bb6e:	00c10323          	sb	a2,6(sp)
   1bb72:	6505                	lui	a0,0x1
   1bb74:	38450513          	addi	a0,a0,900 # 1384 <.Lline_table_start1+0x1159>
   1bb78:	00a105b3          	add	a1,sp,a0
   1bb7c:	6505                	lui	a0,0x1
   1bb7e:	32050513          	addi	a0,a0,800 # 1320 <.Lline_table_start1+0x10f5>
   1bb82:	950a                	add	a0,a0,sp
   1bb84:	02500613          	li	a2,37
   1bb88:	00001097          	auipc	ra,0x1
   1bb8c:	f94080e7          	jalr	-108(ra) # 1cb1c <memcpy>
   1bb90:	640498e3          	bnez	s1,1c9e0 <_start+0x4b6e>
   1bb94:	00411503          	lh	a0,4(sp)
   1bb98:	00614583          	lbu	a1,6(sp)
   1bb9c:	018a5613          	srli	a2,s4,0x18
   1bba0:	010a5693          	srli	a3,s4,0x10
   1bba4:	7ad908a3          	sb	a3,1969(s2)
   1bba8:	7ac90923          	sb	a2,1970(s2)
   1bbac:	008a5613          	srli	a2,s4,0x8
   1bbb0:	7aa91623          	sh	a0,1964(s2)
   1bbb4:	7ab90723          	sb	a1,1966(s2)
   1bbb8:	7b4907a3          	sb	s4,1967(s2)
   1bbbc:	7ac90823          	sb	a2,1968(s2)
   1bbc0:	7ff10513          	addi	a0,sp,2047
   1bbc4:	74250513          	addi	a0,a0,1858
   1bbc8:	6585                	lui	a1,0x1
   1bbca:	32058593          	addi	a1,a1,800 # 1320 <.Lline_table_start1+0x10f5>
   1bbce:	958a                	add	a1,a1,sp
   1bbd0:	02500613          	li	a2,37
   1bbd4:	00001097          	auipc	ra,0x1
   1bbd8:	f48080e7          	jalr	-184(ra) # 1cb1c <memcpy>
   1bbdc:	6505                	lui	a0,0x1
   1bbde:	37c50513          	addi	a0,a0,892 # 137c <.Lline_table_start1+0x1151>
   1bbe2:	950a                	add	a0,a0,sp
   1bbe4:	7ff10593          	addi	a1,sp,2047
   1bbe8:	73b58593          	addi	a1,a1,1851
   1bbec:	ffff7097          	auipc	ra,0xffff7
   1bbf0:	90c080e7          	jalr	-1780(ra) # 124f8 <_ZN20complex_full_dynamic3app17h3838febc7e9b05abE>
   1bbf4:	3ecb4503          	lbu	a0,1004(s6)
   1bbf8:	c501                	beqz	a0,1bc00 <_start+0x3d8e>
   1bbfa:	3f0b2a03          	lw	s4,1008(s6)
   1bbfe:	a8b9                	j	1bc5c <_start+0x3dea>
   1bc00:	3edb4583          	lbu	a1,1005(s6)
   1bc04:	3eeb4603          	lbu	a2,1006(s6)
   1bc08:	3efb4683          	lbu	a3,1007(s6)
   1bc0c:	3f0b2a03          	lw	s4,1008(s6)
   1bc10:	3f4b2703          	lw	a4,1012(s6)
   1bc14:	3f8b2783          	lw	a5,1016(s6)
   1bc18:	3fcb2483          	lw	s1,1020(s6)
   1bc1c:	400b2403          	lw	s0,1024(s6)
   1bc20:	0622                	slli	a2,a2,0x8
   1bc22:	38eb2823          	sw	a4,912(s6)
   1bc26:	38fb2a23          	sw	a5,916(s6)
   1bc2a:	389b2c23          	sw	s1,920(s6)
   1bc2e:	388b2e23          	sw	s0,924(s6)
   1bc32:	8dd1                	or	a1,a1,a2
   1bc34:	00b11223          	sh	a1,4(sp)
   1bc38:	00d10323          	sb	a3,6(sp)
   1bc3c:	404b2583          	lw	a1,1028(s6)
   1bc40:	408b2603          	lw	a2,1032(s6)
   1bc44:	40cb2683          	lw	a3,1036(s6)
   1bc48:	410b2703          	lw	a4,1040(s6)
   1bc4c:	3abb2023          	sw	a1,928(s6)
   1bc50:	3acb2223          	sw	a2,932(s6)
   1bc54:	3adb2423          	sw	a3,936(s6)
   1bc58:	3aeb2623          	sw	a4,940(s6)
   1bc5c:	580512e3          	bnez	a0,1c9e0 <_start+0x4b6e>
   1bc60:	00411503          	lh	a0,4(sp)
   1bc64:	00614583          	lbu	a1,6(sp)
   1bc68:	018a5613          	srli	a2,s4,0x18
   1bc6c:	010a5693          	srli	a3,s4,0x10
   1bc70:	7cd90ea3          	sb	a3,2013(s2)
   1bc74:	7cc90f23          	sb	a2,2014(s2)
   1bc78:	008a5613          	srli	a2,s4,0x8
   1bc7c:	7ca91c23          	sh	a0,2008(s2)
   1bc80:	7cb90d23          	sb	a1,2010(s2)
   1bc84:	7d490da3          	sb	s4,2011(s2)
   1bc88:	7cc90e23          	sb	a2,2012(s2)
   1bc8c:	7ff10513          	addi	a0,sp,2047
   1bc90:	76e50513          	addi	a0,a0,1902
   1bc94:	6585                	lui	a1,0x1
   1bc96:	32058593          	addi	a1,a1,800 # 1320 <.Lline_table_start1+0x10f5>
   1bc9a:	958a                	add	a1,a1,sp
   1bc9c:	02000613          	li	a2,32
   1bca0:	00001097          	auipc	ra,0x1
   1bca4:	e7c080e7          	jalr	-388(ra) # 1cb1c <memcpy>
   1bca8:	6505                	lui	a0,0x1
   1bcaa:	37c50513          	addi	a0,a0,892 # 137c <.Lline_table_start1+0x1151>
   1bcae:	950a                	add	a0,a0,sp
   1bcb0:	7ff10593          	addi	a1,sp,2047
   1bcb4:	76758593          	addi	a1,a1,1895
   1bcb8:	ffff9097          	auipc	ra,0xffff9
   1bcbc:	7d6080e7          	jalr	2006(ra) # 1548e <_ZN20complex_full_dynamic3app17hac946f4a1b5d8839E>
   1bcc0:	3ecb4403          	lbu	s0,1004(s6)
   1bcc4:	c401                	beqz	s0,1bccc <_start+0x3e5a>
   1bcc6:	3f0b2a03          	lw	s4,1008(s6)
   1bcca:	a835                	j	1bd06 <_start+0x3e94>
   1bccc:	3eeb4503          	lbu	a0,1006(s6)
   1bcd0:	3edb4583          	lbu	a1,1005(s6)
   1bcd4:	3efb4603          	lbu	a2,1007(s6)
   1bcd8:	3f0b2a03          	lw	s4,1008(s6)
   1bcdc:	0522                	slli	a0,a0,0x8
   1bcde:	8d4d                	or	a0,a0,a1
   1bce0:	00a11223          	sh	a0,4(sp)
   1bce4:	00c10323          	sb	a2,6(sp)
   1bce8:	6505                	lui	a0,0x1
   1bcea:	38450513          	addi	a0,a0,900 # 1384 <.Lline_table_start1+0x1159>
   1bcee:	00a105b3          	add	a1,sp,a0
   1bcf2:	6505                	lui	a0,0x1
   1bcf4:	32050513          	addi	a0,a0,800 # 1320 <.Lline_table_start1+0x10f5>
   1bcf8:	950a                	add	a0,a0,sp
   1bcfa:	04800613          	li	a2,72
   1bcfe:	00001097          	auipc	ra,0x1
   1bd02:	e1e080e7          	jalr	-482(ra) # 1cb1c <memcpy>
   1bd06:	4c041de3          	bnez	s0,1c9e0 <_start+0x4b6e>
   1bd0a:	00411503          	lh	a0,4(sp)
   1bd0e:	00614583          	lbu	a1,6(sp)
   1bd12:	018a5613          	srli	a2,s4,0x18
   1bd16:	010a5693          	srli	a3,s4,0x10
   1bd1a:	00db01a3          	sb	a3,3(s6)
   1bd1e:	00cb0223          	sb	a2,4(s6)
   1bd22:	008a5613          	srli	a2,s4,0x8
   1bd26:	feab1f23          	sh	a0,-2(s6)
   1bd2a:	00bb0023          	sb	a1,0(s6)
   1bd2e:	014b00a3          	sb	s4,1(s6)
   1bd32:	00cb0123          	sb	a2,2(s6)
   1bd36:	7ff10513          	addi	a0,sp,2047
   1bd3a:	79650513          	addi	a0,a0,1942
   1bd3e:	6585                	lui	a1,0x1
   1bd40:	32058593          	addi	a1,a1,800 # 1320 <.Lline_table_start1+0x10f5>
   1bd44:	958a                	add	a1,a1,sp
   1bd46:	04800613          	li	a2,72
   1bd4a:	00001097          	auipc	ra,0x1
   1bd4e:	dd2080e7          	jalr	-558(ra) # 1cb1c <memcpy>
   1bd52:	6505                	lui	a0,0x1
   1bd54:	37c50513          	addi	a0,a0,892 # 137c <.Lline_table_start1+0x1151>
   1bd58:	950a                	add	a0,a0,sp
   1bd5a:	7ff10593          	addi	a1,sp,2047
   1bd5e:	78f58593          	addi	a1,a1,1935
   1bd62:	ffff9097          	auipc	ra,0xffff9
   1bd66:	a64080e7          	jalr	-1436(ra) # 147c6 <_ZN20complex_full_dynamic3app17h95f14693b16c1460E>
   1bd6a:	3ecb4403          	lbu	s0,1004(s6)
   1bd6e:	c401                	beqz	s0,1bd76 <_start+0x3f04>
   1bd70:	3f0b2a03          	lw	s4,1008(s6)
   1bd74:	a835                	j	1bdb0 <_start+0x3f3e>
   1bd76:	3eeb4503          	lbu	a0,1006(s6)
   1bd7a:	3edb4583          	lbu	a1,1005(s6)
   1bd7e:	3efb4603          	lbu	a2,1007(s6)
   1bd82:	3f0b2a03          	lw	s4,1008(s6)
   1bd86:	0522                	slli	a0,a0,0x8
   1bd88:	8d4d                	or	a0,a0,a1
   1bd8a:	00a11223          	sh	a0,4(sp)
   1bd8e:	00c10323          	sb	a2,6(sp)
   1bd92:	6505                	lui	a0,0x1
   1bd94:	38450513          	addi	a0,a0,900 # 1384 <.Lline_table_start1+0x1159>
   1bd98:	00a105b3          	add	a1,sp,a0
   1bd9c:	6505                	lui	a0,0x1
   1bd9e:	32050513          	addi	a0,a0,800 # 1320 <.Lline_table_start1+0x10f5>
   1bda2:	950a                	add	a0,a0,sp
   1bda4:	02e00613          	li	a2,46
   1bda8:	00001097          	auipc	ra,0x1
   1bdac:	d74080e7          	jalr	-652(ra) # 1cb1c <memcpy>
   1bdb0:	420418e3          	bnez	s0,1c9e0 <_start+0x4b6e>
   1bdb4:	00411503          	lh	a0,4(sp)
   1bdb8:	00614583          	lbu	a1,6(sp)
   1bdbc:	018a5613          	srli	a2,s4,0x18
   1bdc0:	010a5693          	srli	a3,s4,0x10
   1bdc4:	04db09a3          	sb	a3,83(s6)
   1bdc8:	04cb0a23          	sb	a2,84(s6)
   1bdcc:	008a5613          	srli	a2,s4,0x8
   1bdd0:	04ab1723          	sh	a0,78(s6)
   1bdd4:	04bb0823          	sb	a1,80(s6)
   1bdd8:	054b08a3          	sb	s4,81(s6)
   1bddc:	04cb0923          	sb	a2,82(s6)
   1bde0:	7ff10513          	addi	a0,sp,2047
   1bde4:	7e650513          	addi	a0,a0,2022
   1bde8:	6585                	lui	a1,0x1
   1bdea:	32058593          	addi	a1,a1,800 # 1320 <.Lline_table_start1+0x10f5>
   1bdee:	958a                	add	a1,a1,sp
   1bdf0:	02e00613          	li	a2,46
   1bdf4:	00001097          	auipc	ra,0x1
   1bdf8:	d28080e7          	jalr	-728(ra) # 1cb1c <memcpy>
   1bdfc:	6505                	lui	a0,0x1
   1bdfe:	37c50513          	addi	a0,a0,892 # 137c <.Lline_table_start1+0x1151>
   1be02:	950a                	add	a0,a0,sp
   1be04:	7ff10593          	addi	a1,sp,2047
   1be08:	7df58593          	addi	a1,a1,2015
   1be0c:	ffff9097          	auipc	ra,0xffff9
   1be10:	1dc080e7          	jalr	476(ra) # 14fe8 <_ZN20complex_full_dynamic3app17h9e91747e85048dd8E>
   1be14:	3ecb4403          	lbu	s0,1004(s6)
   1be18:	c401                	beqz	s0,1be20 <_start+0x3fae>
   1be1a:	3f0b2a03          	lw	s4,1008(s6)
   1be1e:	a835                	j	1be5a <_start+0x3fe8>
   1be20:	3eeb4503          	lbu	a0,1006(s6)
   1be24:	3edb4583          	lbu	a1,1005(s6)
   1be28:	3efb4603          	lbu	a2,1007(s6)
   1be2c:	3f0b2a03          	lw	s4,1008(s6)
   1be30:	0522                	slli	a0,a0,0x8
   1be32:	8d4d                	or	a0,a0,a1
   1be34:	00a11223          	sh	a0,4(sp)
   1be38:	00c10323          	sb	a2,6(sp)
   1be3c:	6505                	lui	a0,0x1
   1be3e:	38450513          	addi	a0,a0,900 # 1384 <.Lline_table_start1+0x1159>
   1be42:	00a105b3          	add	a1,sp,a0
   1be46:	6505                	lui	a0,0x1
   1be48:	32050513          	addi	a0,a0,800 # 1320 <.Lline_table_start1+0x10f5>
   1be4c:	950a                	add	a0,a0,sp
   1be4e:	03800613          	li	a2,56
   1be52:	00001097          	auipc	ra,0x1
   1be56:	cca080e7          	jalr	-822(ra) # 1cb1c <memcpy>
   1be5a:	380413e3          	bnez	s0,1c9e0 <_start+0x4b6e>
   1be5e:	00411503          	lh	a0,4(sp)
   1be62:	00614583          	lbu	a1,6(sp)
   1be66:	018a5613          	srli	a2,s4,0x18
   1be6a:	010a5693          	srli	a3,s4,0x10
   1be6e:	08db04a3          	sb	a3,137(s6)
   1be72:	08cb0523          	sb	a2,138(s6)
   1be76:	008a5613          	srli	a2,s4,0x8
   1be7a:	08ab1223          	sh	a0,132(s6)
   1be7e:	08bb0323          	sb	a1,134(s6)
   1be82:	094b03a3          	sb	s4,135(s6)
   1be86:	08cb0423          	sb	a2,136(s6)
   1be8a:	6505                	lui	a0,0x1
   1be8c:	056d                	addi	a0,a0,27 # 101b <.Lline_table_start1+0xdf0>
   1be8e:	950a                	add	a0,a0,sp
   1be90:	6585                	lui	a1,0x1
   1be92:	32058593          	addi	a1,a1,800 # 1320 <.Lline_table_start1+0x10f5>
   1be96:	958a                	add	a1,a1,sp
   1be98:	03800613          	li	a2,56
   1be9c:	00001097          	auipc	ra,0x1
   1bea0:	c80080e7          	jalr	-896(ra) # 1cb1c <memcpy>
   1bea4:	6505                	lui	a0,0x1
   1bea6:	37c50513          	addi	a0,a0,892 # 137c <.Lline_table_start1+0x1151>
   1beaa:	950a                	add	a0,a0,sp
   1beac:	6585                	lui	a1,0x1
   1beae:	05d1                	addi	a1,a1,20 # 1014 <.Lline_table_start1+0xde9>
   1beb0:	958a                	add	a1,a1,sp
   1beb2:	ffff7097          	auipc	ra,0xffff7
   1beb6:	d4c080e7          	jalr	-692(ra) # 12bfe <_ZN20complex_full_dynamic3app17h474baa857a7faab4E>
   1beba:	3ecb4503          	lbu	a0,1004(s6)
   1bebe:	c501                	beqz	a0,1bec6 <_start+0x4054>
   1bec0:	3f0b2a03          	lw	s4,1008(s6)
   1bec4:	a81d                	j	1befa <_start+0x4088>
   1bec6:	3eeb4583          	lbu	a1,1006(s6)
   1beca:	3edb4603          	lbu	a2,1005(s6)
   1bece:	3efb4683          	lbu	a3,1007(s6)
   1bed2:	3f0b2a03          	lw	s4,1008(s6)
   1bed6:	05a2                	slli	a1,a1,0x8
   1bed8:	8dd1                	or	a1,a1,a2
   1beda:	3f4b2603          	lw	a2,1012(s6)
   1bede:	3f8b2703          	lw	a4,1016(s6)
   1bee2:	3fcb1783          	lh	a5,1020(s6)
   1bee6:	00b11223          	sh	a1,4(sp)
   1beea:	00d10323          	sb	a3,6(sp)
   1beee:	38cb2823          	sw	a2,912(s6)
   1bef2:	38eb2a23          	sw	a4,916(s6)
   1bef6:	38fb1c23          	sh	a5,920(s6)
   1befa:	2e0513e3          	bnez	a0,1c9e0 <_start+0x4b6e>
   1befe:	00411503          	lh	a0,4(sp)
   1bf02:	00614583          	lbu	a1,6(sp)
   1bf06:	018a5613          	srli	a2,s4,0x18
   1bf0a:	010a5693          	srli	a3,s4,0x10
   1bf0e:	0cdb04a3          	sb	a3,201(s6)
   1bf12:	0ccb0523          	sb	a2,202(s6)
   1bf16:	008a5613          	srli	a2,s4,0x8
   1bf1a:	0cab1223          	sh	a0,196(s6)
   1bf1e:	0cbb0323          	sb	a1,198(s6)
   1bf22:	0d4b03a3          	sb	s4,199(s6)
   1bf26:	0ccb0423          	sb	a2,200(s6)
   1bf2a:	6505                	lui	a0,0x1
   1bf2c:	05b50513          	addi	a0,a0,91 # 105b <.Lline_table_start1+0xe30>
   1bf30:	950a                	add	a0,a0,sp
   1bf32:	6585                	lui	a1,0x1
   1bf34:	32058593          	addi	a1,a1,800 # 1320 <.Lline_table_start1+0x10f5>
   1bf38:	958a                	add	a1,a1,sp
   1bf3a:	4629                	li	a2,10
   1bf3c:	00001097          	auipc	ra,0x1
   1bf40:	be0080e7          	jalr	-1056(ra) # 1cb1c <memcpy>
   1bf44:	6505                	lui	a0,0x1
   1bf46:	37c50513          	addi	a0,a0,892 # 137c <.Lline_table_start1+0x1151>
   1bf4a:	950a                	add	a0,a0,sp
   1bf4c:	6585                	lui	a1,0x1
   1bf4e:	05458593          	addi	a1,a1,84 # 1054 <.Lline_table_start1+0xe29>
   1bf52:	958a                	add	a1,a1,sp
   1bf54:	ffffa097          	auipc	ra,0xffffa
   1bf58:	d54080e7          	jalr	-684(ra) # 15ca8 <_ZN20complex_full_dynamic3app17hbe1a2052e8db2b3cE>
   1bf5c:	3ecb4403          	lbu	s0,1004(s6)
   1bf60:	c401                	beqz	s0,1bf68 <_start+0x40f6>
   1bf62:	3f0b2a03          	lw	s4,1008(s6)
   1bf66:	a835                	j	1bfa2 <_start+0x4130>
   1bf68:	3eeb4503          	lbu	a0,1006(s6)
   1bf6c:	3edb4583          	lbu	a1,1005(s6)
   1bf70:	3efb4603          	lbu	a2,1007(s6)
   1bf74:	3f0b2a03          	lw	s4,1008(s6)
   1bf78:	0522                	slli	a0,a0,0x8
   1bf7a:	8d4d                	or	a0,a0,a1
   1bf7c:	00a11223          	sh	a0,4(sp)
   1bf80:	00c10323          	sb	a2,6(sp)
   1bf84:	6505                	lui	a0,0x1
   1bf86:	38450513          	addi	a0,a0,900 # 1384 <.Lline_table_start1+0x1159>
   1bf8a:	00a105b3          	add	a1,sp,a0
   1bf8e:	6505                	lui	a0,0x1
   1bf90:	32050513          	addi	a0,a0,800 # 1320 <.Lline_table_start1+0x10f5>
   1bf94:	950a                	add	a0,a0,sp
   1bf96:	03800613          	li	a2,56
   1bf9a:	00001097          	auipc	ra,0x1
   1bf9e:	b82080e7          	jalr	-1150(ra) # 1cb1c <memcpy>
   1bfa2:	22041fe3          	bnez	s0,1c9e0 <_start+0x4b6e>
   1bfa6:	00411503          	lh	a0,4(sp)
   1bfaa:	00614583          	lbu	a1,6(sp)
   1bfae:	018a5613          	srli	a2,s4,0x18
   1bfb2:	010a5693          	srli	a3,s4,0x10
   1bfb6:	0cdb0da3          	sb	a3,219(s6)
   1bfba:	0ccb0e23          	sb	a2,220(s6)
   1bfbe:	008a5613          	srli	a2,s4,0x8
   1bfc2:	0cab1b23          	sh	a0,214(s6)
   1bfc6:	0cbb0c23          	sb	a1,216(s6)
   1bfca:	0d4b0ca3          	sb	s4,217(s6)
   1bfce:	0ccb0d23          	sb	a2,218(s6)
   1bfd2:	6505                	lui	a0,0x1
   1bfd4:	06d50513          	addi	a0,a0,109 # 106d <.Lline_table_start1+0xe42>
   1bfd8:	950a                	add	a0,a0,sp
   1bfda:	6585                	lui	a1,0x1
   1bfdc:	32058593          	addi	a1,a1,800 # 1320 <.Lline_table_start1+0x10f5>
   1bfe0:	958a                	add	a1,a1,sp
   1bfe2:	03800613          	li	a2,56
   1bfe6:	00001097          	auipc	ra,0x1
   1bfea:	b36080e7          	jalr	-1226(ra) # 1cb1c <memcpy>
   1bfee:	6505                	lui	a0,0x1
   1bff0:	37c50513          	addi	a0,a0,892 # 137c <.Lline_table_start1+0x1151>
   1bff4:	950a                	add	a0,a0,sp
   1bff6:	6585                	lui	a1,0x1
   1bff8:	06658593          	addi	a1,a1,102 # 1066 <.Lline_table_start1+0xe3b>
   1bffc:	958a                	add	a1,a1,sp
   1bffe:	ffff7097          	auipc	ra,0xffff7
   1c002:	d22080e7          	jalr	-734(ra) # 12d20 <_ZN20complex_full_dynamic3app17h4a838cd0ccf006afE>
   1c006:	3ecb4503          	lbu	a0,1004(s6)
   1c00a:	c501                	beqz	a0,1c012 <_start+0x41a0>
   1c00c:	3f0b2a03          	lw	s4,1008(s6)
   1c010:	a0b9                	j	1c05e <_start+0x41ec>
   1c012:	3edb4583          	lbu	a1,1005(s6)
   1c016:	3eeb4603          	lbu	a2,1006(s6)
   1c01a:	3efb4683          	lbu	a3,1007(s6)
   1c01e:	3f0b2a03          	lw	s4,1008(s6)
   1c022:	3f4b2703          	lw	a4,1012(s6)
   1c026:	3f8b2783          	lw	a5,1016(s6)
   1c02a:	3fcb2483          	lw	s1,1020(s6)
   1c02e:	400b2403          	lw	s0,1024(s6)
   1c032:	0622                	slli	a2,a2,0x8
   1c034:	38eb2823          	sw	a4,912(s6)
   1c038:	38fb2a23          	sw	a5,916(s6)
   1c03c:	389b2c23          	sw	s1,920(s6)
   1c040:	388b2e23          	sw	s0,924(s6)
   1c044:	8dd1                	or	a1,a1,a2
   1c046:	404b2603          	lw	a2,1028(s6)
   1c04a:	408b4703          	lbu	a4,1032(s6)
   1c04e:	00b11223          	sh	a1,4(sp)
   1c052:	00d10323          	sb	a3,6(sp)
   1c056:	3acb2023          	sw	a2,928(s6)
   1c05a:	3aeb0223          	sb	a4,932(s6)
   1c05e:	180511e3          	bnez	a0,1c9e0 <_start+0x4b6e>
   1c062:	00411503          	lh	a0,4(sp)
   1c066:	00614583          	lbu	a1,6(sp)
   1c06a:	018a5613          	srli	a2,s4,0x18
   1c06e:	010a5693          	srli	a3,s4,0x10
   1c072:	10db0da3          	sb	a3,283(s6)
   1c076:	10cb0e23          	sb	a2,284(s6)
   1c07a:	008a5613          	srli	a2,s4,0x8
   1c07e:	10ab1b23          	sh	a0,278(s6)
   1c082:	10bb0c23          	sb	a1,280(s6)
   1c086:	114b0ca3          	sb	s4,281(s6)
   1c08a:	10cb0d23          	sb	a2,282(s6)
   1c08e:	6505                	lui	a0,0x1
   1c090:	0ad50513          	addi	a0,a0,173 # 10ad <.Lline_table_start1+0xe82>
   1c094:	950a                	add	a0,a0,sp
   1c096:	6585                	lui	a1,0x1
   1c098:	32058593          	addi	a1,a1,800 # 1320 <.Lline_table_start1+0x10f5>
   1c09c:	958a                	add	a1,a1,sp
   1c09e:	4655                	li	a2,21
   1c0a0:	00001097          	auipc	ra,0x1
   1c0a4:	a7c080e7          	jalr	-1412(ra) # 1cb1c <memcpy>
   1c0a8:	6505                	lui	a0,0x1
   1c0aa:	37c50513          	addi	a0,a0,892 # 137c <.Lline_table_start1+0x1151>
   1c0ae:	950a                	add	a0,a0,sp
   1c0b0:	6585                	lui	a1,0x1
   1c0b2:	0a658593          	addi	a1,a1,166 # 10a6 <.Lline_table_start1+0xe7b>
   1c0b6:	958a                	add	a1,a1,sp
   1c0b8:	ffff8097          	auipc	ra,0xffff8
   1c0bc:	13c080e7          	jalr	316(ra) # 141f4 <_ZN20complex_full_dynamic3app17h8d5f3111b223e10bE>
   1c0c0:	3ecb4403          	lbu	s0,1004(s6)
   1c0c4:	c401                	beqz	s0,1c0cc <_start+0x425a>
   1c0c6:	3f0b2a03          	lw	s4,1008(s6)
   1c0ca:	a835                	j	1c106 <_start+0x4294>
   1c0cc:	3eeb4503          	lbu	a0,1006(s6)
   1c0d0:	3edb4583          	lbu	a1,1005(s6)
   1c0d4:	3efb4603          	lbu	a2,1007(s6)
   1c0d8:	3f0b2a03          	lw	s4,1008(s6)
   1c0dc:	0522                	slli	a0,a0,0x8
   1c0de:	8d4d                	or	a0,a0,a1
   1c0e0:	00a11223          	sh	a0,4(sp)
   1c0e4:	00c10323          	sb	a2,6(sp)
   1c0e8:	6505                	lui	a0,0x1
   1c0ea:	38450513          	addi	a0,a0,900 # 1384 <.Lline_table_start1+0x1159>
   1c0ee:	00a105b3          	add	a1,sp,a0
   1c0f2:	6505                	lui	a0,0x1
   1c0f4:	32050513          	addi	a0,a0,800 # 1320 <.Lline_table_start1+0x10f5>
   1c0f8:	950a                	add	a0,a0,sp
   1c0fa:	05600613          	li	a2,86
   1c0fe:	00001097          	auipc	ra,0x1
   1c102:	a1e080e7          	jalr	-1506(ra) # 1cb1c <memcpy>
   1c106:	0c041de3          	bnez	s0,1c9e0 <_start+0x4b6e>
   1c10a:	00411503          	lh	a0,4(sp)
   1c10e:	00614583          	lbu	a1,6(sp)
   1c112:	018a5613          	srli	a2,s4,0x18
   1c116:	010a5693          	srli	a3,s4,0x10
   1c11a:	12db0ba3          	sb	a3,311(s6)
   1c11e:	12cb0c23          	sb	a2,312(s6)
   1c122:	008a5613          	srli	a2,s4,0x8
   1c126:	12ab1923          	sh	a0,306(s6)
   1c12a:	12bb0a23          	sb	a1,308(s6)
   1c12e:	134b0aa3          	sb	s4,309(s6)
   1c132:	12cb0b23          	sb	a2,310(s6)
   1c136:	6505                	lui	a0,0x1
   1c138:	0c950513          	addi	a0,a0,201 # 10c9 <.Lline_table_start1+0xe9e>
   1c13c:	950a                	add	a0,a0,sp
   1c13e:	6585                	lui	a1,0x1
   1c140:	32058593          	addi	a1,a1,800 # 1320 <.Lline_table_start1+0x10f5>
   1c144:	958a                	add	a1,a1,sp
   1c146:	05600613          	li	a2,86
   1c14a:	00001097          	auipc	ra,0x1
   1c14e:	9d2080e7          	jalr	-1582(ra) # 1cb1c <memcpy>
   1c152:	6505                	lui	a0,0x1
   1c154:	37c50513          	addi	a0,a0,892 # 137c <.Lline_table_start1+0x1151>
   1c158:	950a                	add	a0,a0,sp
   1c15a:	6585                	lui	a1,0x1
   1c15c:	0c258593          	addi	a1,a1,194 # 10c2 <.Lline_table_start1+0xe97>
   1c160:	958a                	add	a1,a1,sp
   1c162:	ffff8097          	auipc	ra,0xffff8
   1c166:	862080e7          	jalr	-1950(ra) # 139c4 <_ZN20complex_full_dynamic3app17h74a7dcaee0a37267E>
   1c16a:	3ecb4503          	lbu	a0,1004(s6)
   1c16e:	c501                	beqz	a0,1c176 <_start+0x4304>
   1c170:	3f0b2a03          	lw	s4,1008(s6)
   1c174:	a83d                	j	1c1b2 <_start+0x4340>
   1c176:	3eeb4583          	lbu	a1,1006(s6)
   1c17a:	3edb4603          	lbu	a2,1005(s6)
   1c17e:	3efb4683          	lbu	a3,1007(s6)
   1c182:	3f0b2a03          	lw	s4,1008(s6)
   1c186:	05a2                	slli	a1,a1,0x8
   1c188:	8dd1                	or	a1,a1,a2
   1c18a:	00b11223          	sh	a1,4(sp)
   1c18e:	00d10323          	sb	a3,6(sp)
   1c192:	3f4b2583          	lw	a1,1012(s6)
   1c196:	3f8b2603          	lw	a2,1016(s6)
   1c19a:	3fcb1683          	lh	a3,1020(s6)
   1c19e:	3feb4703          	lbu	a4,1022(s6)
   1c1a2:	38bb2823          	sw	a1,912(s6)
   1c1a6:	38cb2a23          	sw	a2,916(s6)
   1c1aa:	38db1c23          	sh	a3,920(s6)
   1c1ae:	38eb0d23          	sb	a4,922(s6)
   1c1b2:	020517e3          	bnez	a0,1c9e0 <_start+0x4b6e>
   1c1b6:	00411503          	lh	a0,4(sp)
   1c1ba:	00614583          	lbu	a1,6(sp)
   1c1be:	018a5613          	srli	a2,s4,0x18
   1c1c2:	010a5693          	srli	a3,s4,0x10
   1c1c6:	18db0aa3          	sb	a3,405(s6)
   1c1ca:	18cb0b23          	sb	a2,406(s6)
   1c1ce:	008a5613          	srli	a2,s4,0x8
   1c1d2:	18ab1823          	sh	a0,400(s6)
   1c1d6:	18bb0923          	sb	a1,402(s6)
   1c1da:	194b09a3          	sb	s4,403(s6)
   1c1de:	18cb0a23          	sb	a2,404(s6)
   1c1e2:	6505                	lui	a0,0x1
   1c1e4:	12750513          	addi	a0,a0,295 # 1127 <.Lline_table_start1+0xefc>
   1c1e8:	950a                	add	a0,a0,sp
   1c1ea:	6585                	lui	a1,0x1
   1c1ec:	32058593          	addi	a1,a1,800 # 1320 <.Lline_table_start1+0x10f5>
   1c1f0:	958a                	add	a1,a1,sp
   1c1f2:	462d                	li	a2,11
   1c1f4:	00001097          	auipc	ra,0x1
   1c1f8:	928080e7          	jalr	-1752(ra) # 1cb1c <memcpy>
   1c1fc:	6505                	lui	a0,0x1
   1c1fe:	37c50513          	addi	a0,a0,892 # 137c <.Lline_table_start1+0x1151>
   1c202:	950a                	add	a0,a0,sp
   1c204:	6585                	lui	a1,0x1
   1c206:	12058593          	addi	a1,a1,288 # 1120 <.Lline_table_start1+0xef5>
   1c20a:	958a                	add	a1,a1,sp
   1c20c:	ffffa097          	auipc	ra,0xffffa
   1c210:	ce8080e7          	jalr	-792(ra) # 15ef4 <_ZN20complex_full_dynamic3app17hc2faa3974165bd4aE>
   1c214:	3ecb4403          	lbu	s0,1004(s6)
   1c218:	c401                	beqz	s0,1c220 <_start+0x43ae>
   1c21a:	3f0b2a03          	lw	s4,1008(s6)
   1c21e:	a835                	j	1c25a <_start+0x43e8>
   1c220:	3eeb4503          	lbu	a0,1006(s6)
   1c224:	3edb4583          	lbu	a1,1005(s6)
   1c228:	3efb4603          	lbu	a2,1007(s6)
   1c22c:	3f0b2a03          	lw	s4,1008(s6)
   1c230:	0522                	slli	a0,a0,0x8
   1c232:	8d4d                	or	a0,a0,a1
   1c234:	00a11223          	sh	a0,4(sp)
   1c238:	00c10323          	sb	a2,6(sp)
   1c23c:	6505                	lui	a0,0x1
   1c23e:	38450513          	addi	a0,a0,900 # 1384 <.Lline_table_start1+0x1159>
   1c242:	00a105b3          	add	a1,sp,a0
   1c246:	6505                	lui	a0,0x1
   1c248:	32050513          	addi	a0,a0,800 # 1320 <.Lline_table_start1+0x10f5>
   1c24c:	950a                	add	a0,a0,sp
   1c24e:	03d00613          	li	a2,61
   1c252:	00001097          	auipc	ra,0x1
   1c256:	8ca080e7          	jalr	-1846(ra) # 1cb1c <memcpy>
   1c25a:	78041363          	bnez	s0,1c9e0 <_start+0x4b6e>
   1c25e:	00411503          	lh	a0,4(sp)
   1c262:	00614583          	lbu	a1,6(sp)
   1c266:	018a5613          	srli	a2,s4,0x18
   1c26a:	010a5693          	srli	a3,s4,0x10
   1c26e:	1adb03a3          	sb	a3,423(s6)
   1c272:	1acb0423          	sb	a2,424(s6)
   1c276:	008a5613          	srli	a2,s4,0x8
   1c27a:	1aab1123          	sh	a0,418(s6)
   1c27e:	1abb0223          	sb	a1,420(s6)
   1c282:	1b4b02a3          	sb	s4,421(s6)
   1c286:	1acb0323          	sb	a2,422(s6)
   1c28a:	6505                	lui	a0,0x1
   1c28c:	13950513          	addi	a0,a0,313 # 1139 <.Lline_table_start1+0xf0e>
   1c290:	950a                	add	a0,a0,sp
   1c292:	6585                	lui	a1,0x1
   1c294:	32058593          	addi	a1,a1,800 # 1320 <.Lline_table_start1+0x10f5>
   1c298:	958a                	add	a1,a1,sp
   1c29a:	03d00613          	li	a2,61
   1c29e:	00001097          	auipc	ra,0x1
   1c2a2:	87e080e7          	jalr	-1922(ra) # 1cb1c <memcpy>
   1c2a6:	6505                	lui	a0,0x1
   1c2a8:	37c50513          	addi	a0,a0,892 # 137c <.Lline_table_start1+0x1151>
   1c2ac:	950a                	add	a0,a0,sp
   1c2ae:	6585                	lui	a1,0x1
   1c2b0:	13258593          	addi	a1,a1,306 # 1132 <.Lline_table_start1+0xf07>
   1c2b4:	958a                	add	a1,a1,sp
   1c2b6:	ffff7097          	auipc	ra,0xffff7
   1c2ba:	cbe080e7          	jalr	-834(ra) # 12f74 <_ZN20complex_full_dynamic3app17h5107db1c109640adE>
   1c2be:	3ecb4503          	lbu	a0,1004(s6)
   1c2c2:	c501                	beqz	a0,1c2ca <_start+0x4458>
   1c2c4:	3f0b2a03          	lw	s4,1008(s6)
   1c2c8:	a899                	j	1c31e <_start+0x44ac>
   1c2ca:	3edb4583          	lbu	a1,1005(s6)
   1c2ce:	3eeb4603          	lbu	a2,1006(s6)
   1c2d2:	3efb4683          	lbu	a3,1007(s6)
   1c2d6:	3f0b2a03          	lw	s4,1008(s6)
   1c2da:	3f4b2703          	lw	a4,1012(s6)
   1c2de:	3f8b2783          	lw	a5,1016(s6)
   1c2e2:	3fcb2483          	lw	s1,1020(s6)
   1c2e6:	400b2403          	lw	s0,1024(s6)
   1c2ea:	0622                	slli	a2,a2,0x8
   1c2ec:	38eb2823          	sw	a4,912(s6)
   1c2f0:	38fb2a23          	sw	a5,916(s6)
   1c2f4:	389b2c23          	sw	s1,920(s6)
   1c2f8:	388b2e23          	sw	s0,924(s6)
   1c2fc:	8dd1                	or	a1,a1,a2
   1c2fe:	404b2603          	lw	a2,1028(s6)
   1c302:	408b2703          	lw	a4,1032(s6)
   1c306:	40cb2783          	lw	a5,1036(s6)
   1c30a:	00b11223          	sh	a1,4(sp)
   1c30e:	00d10323          	sb	a3,6(sp)
   1c312:	3acb2023          	sw	a2,928(s6)
   1c316:	3aeb2223          	sw	a4,932(s6)
   1c31a:	3afb2423          	sw	a5,936(s6)
   1c31e:	6c051163          	bnez	a0,1c9e0 <_start+0x4b6e>
   1c322:	00411503          	lh	a0,4(sp)
   1c326:	00614583          	lbu	a1,6(sp)
   1c32a:	018a5613          	srli	a2,s4,0x18
   1c32e:	010a5693          	srli	a3,s4,0x10
   1c332:	1edb05a3          	sb	a3,491(s6)
   1c336:	1ecb0623          	sb	a2,492(s6)
   1c33a:	008a5613          	srli	a2,s4,0x8
   1c33e:	1eab1323          	sh	a0,486(s6)
   1c342:	1ebb0423          	sb	a1,488(s6)
   1c346:	1f4b04a3          	sb	s4,489(s6)
   1c34a:	1ecb0523          	sb	a2,490(s6)
   1c34e:	6505                	lui	a0,0x1
   1c350:	17d50513          	addi	a0,a0,381 # 117d <.Lline_table_start1+0xf52>
   1c354:	950a                	add	a0,a0,sp
   1c356:	6585                	lui	a1,0x1
   1c358:	32058593          	addi	a1,a1,800 # 1320 <.Lline_table_start1+0x10f5>
   1c35c:	958a                	add	a1,a1,sp
   1c35e:	4671                	li	a2,28
   1c360:	00000097          	auipc	ra,0x0
   1c364:	7bc080e7          	jalr	1980(ra) # 1cb1c <memcpy>
   1c368:	6505                	lui	a0,0x1
   1c36a:	37c50513          	addi	a0,a0,892 # 137c <.Lline_table_start1+0x1151>
   1c36e:	950a                	add	a0,a0,sp
   1c370:	6585                	lui	a1,0x1
   1c372:	17658593          	addi	a1,a1,374 # 1176 <.Lline_table_start1+0xf4b>
   1c376:	958a                	add	a1,a1,sp
   1c378:	ffff9097          	auipc	ra,0xffff9
   1c37c:	d9a080e7          	jalr	-614(ra) # 15112 <_ZN20complex_full_dynamic3app17ha406a095ea6f4d8aE>
   1c380:	3ecb4503          	lbu	a0,1004(s6)
   1c384:	c501                	beqz	a0,1c38c <_start+0x451a>
   1c386:	3f0b2a03          	lw	s4,1008(s6)
   1c38a:	a8b9                	j	1c3e8 <_start+0x4576>
   1c38c:	3edb4583          	lbu	a1,1005(s6)
   1c390:	3eeb4603          	lbu	a2,1006(s6)
   1c394:	3efb4683          	lbu	a3,1007(s6)
   1c398:	3f0b2a03          	lw	s4,1008(s6)
   1c39c:	3f4b2703          	lw	a4,1012(s6)
   1c3a0:	3f8b2783          	lw	a5,1016(s6)
   1c3a4:	3fcb2483          	lw	s1,1020(s6)
   1c3a8:	400b2403          	lw	s0,1024(s6)
   1c3ac:	0622                	slli	a2,a2,0x8
   1c3ae:	38eb2823          	sw	a4,912(s6)
   1c3b2:	38fb2a23          	sw	a5,916(s6)
   1c3b6:	389b2c23          	sw	s1,920(s6)
   1c3ba:	388b2e23          	sw	s0,924(s6)
   1c3be:	8dd1                	or	a1,a1,a2
   1c3c0:	00b11223          	sh	a1,4(sp)
   1c3c4:	00d10323          	sb	a3,6(sp)
   1c3c8:	404b2583          	lw	a1,1028(s6)
   1c3cc:	408b2603          	lw	a2,1032(s6)
   1c3d0:	40cb2683          	lw	a3,1036(s6)
   1c3d4:	410b4703          	lbu	a4,1040(s6)
   1c3d8:	3abb2023          	sw	a1,928(s6)
   1c3dc:	3acb2223          	sw	a2,932(s6)
   1c3e0:	3adb2423          	sw	a3,936(s6)
   1c3e4:	3aeb0623          	sb	a4,940(s6)
   1c3e8:	5e051c63          	bnez	a0,1c9e0 <_start+0x4b6e>
   1c3ec:	00411503          	lh	a0,4(sp)
   1c3f0:	00614583          	lbu	a1,6(sp)
   1c3f4:	018a5613          	srli	a2,s4,0x18
   1c3f8:	010a5693          	srli	a3,s4,0x10
   1c3fc:	20db07a3          	sb	a3,527(s6)
   1c400:	20cb0823          	sb	a2,528(s6)
   1c404:	008a5613          	srli	a2,s4,0x8
   1c408:	20ab1523          	sh	a0,522(s6)
   1c40c:	20bb0623          	sb	a1,524(s6)
   1c410:	214b06a3          	sb	s4,525(s6)
   1c414:	20cb0723          	sb	a2,526(s6)
   1c418:	6505                	lui	a0,0x1
   1c41a:	1a150513          	addi	a0,a0,417 # 11a1 <.Lline_table_start1+0xf76>
   1c41e:	950a                	add	a0,a0,sp
   1c420:	6585                	lui	a1,0x1
   1c422:	32058593          	addi	a1,a1,800 # 1320 <.Lline_table_start1+0x10f5>
   1c426:	958a                	add	a1,a1,sp
   1c428:	4675                	li	a2,29
   1c42a:	00000097          	auipc	ra,0x0
   1c42e:	6f2080e7          	jalr	1778(ra) # 1cb1c <memcpy>
   1c432:	6505                	lui	a0,0x1
   1c434:	37c50513          	addi	a0,a0,892 # 137c <.Lline_table_start1+0x1151>
   1c438:	950a                	add	a0,a0,sp
   1c43a:	6585                	lui	a1,0x1
   1c43c:	19a58593          	addi	a1,a1,410 # 119a <.Lline_table_start1+0xf6f>
   1c440:	958a                	add	a1,a1,sp
   1c442:	ffffa097          	auipc	ra,0xffffa
   1c446:	f5c080e7          	jalr	-164(ra) # 1639e <_ZN20complex_full_dynamic3app17hc842f8d573eefac7E>
   1c44a:	3ecb4403          	lbu	s0,1004(s6)
   1c44e:	c401                	beqz	s0,1c456 <_start+0x45e4>
   1c450:	3f0b2a03          	lw	s4,1008(s6)
   1c454:	a835                	j	1c490 <_start+0x461e>
   1c456:	3eeb4503          	lbu	a0,1006(s6)
   1c45a:	3edb4583          	lbu	a1,1005(s6)
   1c45e:	3efb4603          	lbu	a2,1007(s6)
   1c462:	3f0b2a03          	lw	s4,1008(s6)
   1c466:	0522                	slli	a0,a0,0x8
   1c468:	8d4d                	or	a0,a0,a1
   1c46a:	00a11223          	sh	a0,4(sp)
   1c46e:	00c10323          	sb	a2,6(sp)
   1c472:	6505                	lui	a0,0x1
   1c474:	38450513          	addi	a0,a0,900 # 1384 <.Lline_table_start1+0x1159>
   1c478:	00a105b3          	add	a1,sp,a0
   1c47c:	6505                	lui	a0,0x1
   1c47e:	32050513          	addi	a0,a0,800 # 1320 <.Lline_table_start1+0x10f5>
   1c482:	950a                	add	a0,a0,sp
   1c484:	02800613          	li	a2,40
   1c488:	00000097          	auipc	ra,0x0
   1c48c:	694080e7          	jalr	1684(ra) # 1cb1c <memcpy>
   1c490:	54041863          	bnez	s0,1c9e0 <_start+0x4b6e>
   1c494:	00411503          	lh	a0,4(sp)
   1c498:	00614583          	lbu	a1,6(sp)
   1c49c:	018a5613          	srli	a2,s4,0x18
   1c4a0:	010a5693          	srli	a3,s4,0x10
   1c4a4:	22db09a3          	sb	a3,563(s6)
   1c4a8:	22cb0a23          	sb	a2,564(s6)
   1c4ac:	008a5613          	srli	a2,s4,0x8
   1c4b0:	22ab1723          	sh	a0,558(s6)
   1c4b4:	22bb0823          	sb	a1,560(s6)
   1c4b8:	234b08a3          	sb	s4,561(s6)
   1c4bc:	22cb0923          	sb	a2,562(s6)
   1c4c0:	6505                	lui	a0,0x1
   1c4c2:	1c550513          	addi	a0,a0,453 # 11c5 <.Lline_table_start1+0xf9a>
   1c4c6:	950a                	add	a0,a0,sp
   1c4c8:	6585                	lui	a1,0x1
   1c4ca:	32058593          	addi	a1,a1,800 # 1320 <.Lline_table_start1+0x10f5>
   1c4ce:	958a                	add	a1,a1,sp
   1c4d0:	02800613          	li	a2,40
   1c4d4:	00000097          	auipc	ra,0x0
   1c4d8:	648080e7          	jalr	1608(ra) # 1cb1c <memcpy>
   1c4dc:	6505                	lui	a0,0x1
   1c4de:	37c50513          	addi	a0,a0,892 # 137c <.Lline_table_start1+0x1151>
   1c4e2:	950a                	add	a0,a0,sp
   1c4e4:	6585                	lui	a1,0x1
   1c4e6:	1be58593          	addi	a1,a1,446 # 11be <.Lline_table_start1+0xf93>
   1c4ea:	958a                	add	a1,a1,sp
   1c4ec:	ffffa097          	auipc	ra,0xffffa
   1c4f0:	c5a080e7          	jalr	-934(ra) # 16146 <_ZN20complex_full_dynamic3app17hc5d38cad577a8530E>
   1c4f4:	3ecb4403          	lbu	s0,1004(s6)
   1c4f8:	c401                	beqz	s0,1c500 <_start+0x468e>
   1c4fa:	3f0b2a03          	lw	s4,1008(s6)
   1c4fe:	a835                	j	1c53a <_start+0x46c8>
   1c500:	3eeb4503          	lbu	a0,1006(s6)
   1c504:	3edb4583          	lbu	a1,1005(s6)
   1c508:	3efb4603          	lbu	a2,1007(s6)
   1c50c:	3f0b2a03          	lw	s4,1008(s6)
   1c510:	0522                	slli	a0,a0,0x8
   1c512:	8d4d                	or	a0,a0,a1
   1c514:	00a11223          	sh	a0,4(sp)
   1c518:	00c10323          	sb	a2,6(sp)
   1c51c:	6505                	lui	a0,0x1
   1c51e:	38450513          	addi	a0,a0,900 # 1384 <.Lline_table_start1+0x1159>
   1c522:	00a105b3          	add	a1,sp,a0
   1c526:	6505                	lui	a0,0x1
   1c528:	32050513          	addi	a0,a0,800 # 1320 <.Lline_table_start1+0x10f5>
   1c52c:	950a                	add	a0,a0,sp
   1c52e:	05700613          	li	a2,87
   1c532:	00000097          	auipc	ra,0x0
   1c536:	5ea080e7          	jalr	1514(ra) # 1cb1c <memcpy>
   1c53a:	4a041363          	bnez	s0,1c9e0 <_start+0x4b6e>
   1c53e:	00411503          	lh	a0,4(sp)
   1c542:	00614583          	lbu	a1,6(sp)
   1c546:	018a5613          	srli	a2,s4,0x18
   1c54a:	010a5693          	srli	a3,s4,0x10
   1c54e:	26db01a3          	sb	a3,611(s6)
   1c552:	26cb0223          	sb	a2,612(s6)
   1c556:	008a5613          	srli	a2,s4,0x8
   1c55a:	24ab1f23          	sh	a0,606(s6)
   1c55e:	26bb0023          	sb	a1,608(s6)
   1c562:	274b00a3          	sb	s4,609(s6)
   1c566:	26cb0123          	sb	a2,610(s6)
   1c56a:	6505                	lui	a0,0x1
   1c56c:	1f550513          	addi	a0,a0,501 # 11f5 <.Lline_table_start1+0xfca>
   1c570:	950a                	add	a0,a0,sp
   1c572:	6585                	lui	a1,0x1
   1c574:	32058593          	addi	a1,a1,800 # 1320 <.Lline_table_start1+0x10f5>
   1c578:	958a                	add	a1,a1,sp
   1c57a:	05700613          	li	a2,87
   1c57e:	00000097          	auipc	ra,0x0
   1c582:	59e080e7          	jalr	1438(ra) # 1cb1c <memcpy>
   1c586:	6505                	lui	a0,0x1
   1c588:	37c50513          	addi	a0,a0,892 # 137c <.Lline_table_start1+0x1151>
   1c58c:	950a                	add	a0,a0,sp
   1c58e:	6585                	lui	a1,0x1
   1c590:	1ee58593          	addi	a1,a1,494 # 11ee <.Lline_table_start1+0xfc3>
   1c594:	958a                	add	a1,a1,sp
   1c596:	ffffb097          	auipc	ra,0xffffb
   1c59a:	87e080e7          	jalr	-1922(ra) # 16e14 <_ZN20complex_full_dynamic3app17he99b87c4dbe87f67E>
   1c59e:	3ecb4403          	lbu	s0,1004(s6)
   1c5a2:	c401                	beqz	s0,1c5aa <_start+0x4738>
   1c5a4:	3f0b2a03          	lw	s4,1008(s6)
   1c5a8:	a835                	j	1c5e4 <_start+0x4772>
   1c5aa:	3eeb4503          	lbu	a0,1006(s6)
   1c5ae:	3edb4583          	lbu	a1,1005(s6)
   1c5b2:	3efb4603          	lbu	a2,1007(s6)
   1c5b6:	3f0b2a03          	lw	s4,1008(s6)
   1c5ba:	0522                	slli	a0,a0,0x8
   1c5bc:	8d4d                	or	a0,a0,a1
   1c5be:	00a11223          	sh	a0,4(sp)
   1c5c2:	00c10323          	sb	a2,6(sp)
   1c5c6:	6505                	lui	a0,0x1
   1c5c8:	38450513          	addi	a0,a0,900 # 1384 <.Lline_table_start1+0x1159>
   1c5cc:	00a105b3          	add	a1,sp,a0
   1c5d0:	6505                	lui	a0,0x1
   1c5d2:	32050513          	addi	a0,a0,800 # 1320 <.Lline_table_start1+0x10f5>
   1c5d6:	950a                	add	a0,a0,sp
   1c5d8:	04e00613          	li	a2,78
   1c5dc:	00000097          	auipc	ra,0x0
   1c5e0:	540080e7          	jalr	1344(ra) # 1cb1c <memcpy>
   1c5e4:	3e041e63          	bnez	s0,1c9e0 <_start+0x4b6e>
   1c5e8:	00411503          	lh	a0,4(sp)
   1c5ec:	00614583          	lbu	a1,6(sp)
   1c5f0:	018a5613          	srli	a2,s4,0x18
   1c5f4:	010a5693          	srli	a3,s4,0x10
   1c5f8:	2cdb00a3          	sb	a3,705(s6)
   1c5fc:	2ccb0123          	sb	a2,706(s6)
   1c600:	008a5613          	srli	a2,s4,0x8
   1c604:	2aab1e23          	sh	a0,700(s6)
   1c608:	2abb0f23          	sb	a1,702(s6)
   1c60c:	2b4b0fa3          	sb	s4,703(s6)
   1c610:	2ccb0023          	sb	a2,704(s6)
   1c614:	6505                	lui	a0,0x1
   1c616:	25350513          	addi	a0,a0,595 # 1253 <.Lline_table_start1+0x1028>
   1c61a:	950a                	add	a0,a0,sp
   1c61c:	6585                	lui	a1,0x1
   1c61e:	32058593          	addi	a1,a1,800 # 1320 <.Lline_table_start1+0x10f5>
   1c622:	958a                	add	a1,a1,sp
   1c624:	04e00613          	li	a2,78
   1c628:	00000097          	auipc	ra,0x0
   1c62c:	4f4080e7          	jalr	1268(ra) # 1cb1c <memcpy>
   1c630:	6505                	lui	a0,0x1
   1c632:	37c50513          	addi	a0,a0,892 # 137c <.Lline_table_start1+0x1151>
   1c636:	950a                	add	a0,a0,sp
   1c638:	6585                	lui	a1,0x1
   1c63a:	24c58593          	addi	a1,a1,588 # 124c <.Lline_table_start1+0x1021>
   1c63e:	958a                	add	a1,a1,sp
   1c640:	ffff9097          	auipc	ra,0xffff9
   1c644:	792080e7          	jalr	1938(ra) # 15dd2 <_ZN20complex_full_dynamic3app17hbe22ec6a823d8b97E>
   1c648:	3ecb4503          	lbu	a0,1004(s6)
   1c64c:	c501                	beqz	a0,1c654 <_start+0x47e2>
   1c64e:	3f0b2a03          	lw	s4,1008(s6)
   1c652:	a81d                	j	1c688 <_start+0x4816>
   1c654:	3eeb4583          	lbu	a1,1006(s6)
   1c658:	3edb4603          	lbu	a2,1005(s6)
   1c65c:	3efb4683          	lbu	a3,1007(s6)
   1c660:	3f0b2a03          	lw	s4,1008(s6)
   1c664:	05a2                	slli	a1,a1,0x8
   1c666:	8dd1                	or	a1,a1,a2
   1c668:	3f4b2603          	lw	a2,1012(s6)
   1c66c:	3f8b2703          	lw	a4,1016(s6)
   1c670:	3fcb1783          	lh	a5,1020(s6)
   1c674:	00b11223          	sh	a1,4(sp)
   1c678:	00d10323          	sb	a3,6(sp)
   1c67c:	38cb2823          	sw	a2,912(s6)
   1c680:	38eb2a23          	sw	a4,916(s6)
   1c684:	38fb1c23          	sh	a5,920(s6)
   1c688:	34051c63          	bnez	a0,1c9e0 <_start+0x4b6e>
   1c68c:	00411503          	lh	a0,4(sp)
   1c690:	00614583          	lbu	a1,6(sp)
   1c694:	018a5613          	srli	a2,s4,0x18
   1c698:	010a5693          	srli	a3,s4,0x10
   1c69c:	30db0ba3          	sb	a3,791(s6)
   1c6a0:	30cb0c23          	sb	a2,792(s6)
   1c6a4:	008a5613          	srli	a2,s4,0x8
   1c6a8:	30ab1923          	sh	a0,786(s6)
   1c6ac:	30bb0a23          	sb	a1,788(s6)
   1c6b0:	314b0aa3          	sb	s4,789(s6)
   1c6b4:	30cb0b23          	sb	a2,790(s6)
   1c6b8:	6505                	lui	a0,0x1
   1c6ba:	2a950513          	addi	a0,a0,681 # 12a9 <.Lline_table_start1+0x107e>
   1c6be:	950a                	add	a0,a0,sp
   1c6c0:	6585                	lui	a1,0x1
   1c6c2:	32058593          	addi	a1,a1,800 # 1320 <.Lline_table_start1+0x10f5>
   1c6c6:	958a                	add	a1,a1,sp
   1c6c8:	4629                	li	a2,10
   1c6ca:	00000097          	auipc	ra,0x0
   1c6ce:	452080e7          	jalr	1106(ra) # 1cb1c <memcpy>
   1c6d2:	6505                	lui	a0,0x1
   1c6d4:	37c50513          	addi	a0,a0,892 # 137c <.Lline_table_start1+0x1151>
   1c6d8:	950a                	add	a0,a0,sp
   1c6da:	6585                	lui	a1,0x1
   1c6dc:	2a258593          	addi	a1,a1,674 # 12a2 <.Lline_table_start1+0x1077>
   1c6e0:	958a                	add	a1,a1,sp
   1c6e2:	ffffa097          	auipc	ra,0xffffa
   1c6e6:	93a080e7          	jalr	-1734(ra) # 1601c <_ZN20complex_full_dynamic3app17hc30ddd855db6f3b4E>
   1c6ea:	3ecb4403          	lbu	s0,1004(s6)
   1c6ee:	c401                	beqz	s0,1c6f6 <_start+0x4884>
   1c6f0:	3f0b2a03          	lw	s4,1008(s6)
   1c6f4:	a835                	j	1c730 <_start+0x48be>
   1c6f6:	3eeb4503          	lbu	a0,1006(s6)
   1c6fa:	3edb4583          	lbu	a1,1005(s6)
   1c6fe:	3efb4603          	lbu	a2,1007(s6)
   1c702:	3f0b2a03          	lw	s4,1008(s6)
   1c706:	0522                	slli	a0,a0,0x8
   1c708:	8d4d                	or	a0,a0,a1
   1c70a:	00a11223          	sh	a0,4(sp)
   1c70e:	00c10323          	sb	a2,6(sp)
   1c712:	6505                	lui	a0,0x1
   1c714:	38450513          	addi	a0,a0,900 # 1384 <.Lline_table_start1+0x1159>
   1c718:	00a105b3          	add	a1,sp,a0
   1c71c:	6505                	lui	a0,0x1
   1c71e:	32050513          	addi	a0,a0,800 # 1320 <.Lline_table_start1+0x10f5>
   1c722:	950a                	add	a0,a0,sp
   1c724:	04900613          	li	a2,73
   1c728:	00000097          	auipc	ra,0x0
   1c72c:	3f4080e7          	jalr	1012(ra) # 1cb1c <memcpy>
   1c730:	2a041863          	bnez	s0,1c9e0 <_start+0x4b6e>
   1c734:	00411503          	lh	a0,4(sp)
   1c738:	00614583          	lbu	a1,6(sp)
   1c73c:	018a5613          	srli	a2,s4,0x18
   1c740:	010a5693          	srli	a3,s4,0x10
   1c744:	32db04a3          	sb	a3,809(s6)
   1c748:	32cb0523          	sb	a2,810(s6)
   1c74c:	008a5613          	srli	a2,s4,0x8
   1c750:	32ab1223          	sh	a0,804(s6)
   1c754:	32bb0323          	sb	a1,806(s6)
   1c758:	334b03a3          	sb	s4,807(s6)
   1c75c:	32cb0423          	sb	a2,808(s6)
   1c760:	6505                	lui	a0,0x1
   1c762:	2bb50513          	addi	a0,a0,699 # 12bb <.Lline_table_start1+0x1090>
   1c766:	950a                	add	a0,a0,sp
   1c768:	6585                	lui	a1,0x1
   1c76a:	32058593          	addi	a1,a1,800 # 1320 <.Lline_table_start1+0x10f5>
   1c76e:	958a                	add	a1,a1,sp
   1c770:	04900613          	li	a2,73
   1c774:	00000097          	auipc	ra,0x0
   1c778:	3a8080e7          	jalr	936(ra) # 1cb1c <memcpy>
   1c77c:	6505                	lui	a0,0x1
   1c77e:	37c50513          	addi	a0,a0,892 # 137c <.Lline_table_start1+0x1151>
   1c782:	950a                	add	a0,a0,sp
   1c784:	6585                	lui	a1,0x1
   1c786:	2b458593          	addi	a1,a1,692 # 12b4 <.Lline_table_start1+0x1089>
   1c78a:	958a                	add	a1,a1,sp
   1c78c:	ffff8097          	auipc	ra,0xffff8
   1c790:	de6080e7          	jalr	-538(ra) # 14572 <_ZN20complex_full_dynamic3app17h93ce687b010a1315E>
   1c794:	3ecb4503          	lbu	a0,1004(s6)
   1c798:	c501                	beqz	a0,1c7a0 <_start+0x492e>
   1c79a:	3f0b2a03          	lw	s4,1008(s6)
   1c79e:	a099                	j	1c7e4 <_start+0x4972>
   1c7a0:	3edb4583          	lbu	a1,1005(s6)
   1c7a4:	3eeb4603          	lbu	a2,1006(s6)
   1c7a8:	3efb4683          	lbu	a3,1007(s6)
   1c7ac:	3f0b2a03          	lw	s4,1008(s6)
   1c7b0:	3f4b2703          	lw	a4,1012(s6)
   1c7b4:	3f8b2783          	lw	a5,1016(s6)
   1c7b8:	3fcb2483          	lw	s1,1020(s6)
   1c7bc:	400b2403          	lw	s0,1024(s6)
   1c7c0:	38eb2823          	sw	a4,912(s6)
   1c7c4:	38fb2a23          	sw	a5,916(s6)
   1c7c8:	389b2c23          	sw	s1,920(s6)
   1c7cc:	388b2e23          	sw	s0,924(s6)
   1c7d0:	404b2703          	lw	a4,1028(s6)
   1c7d4:	0622                	slli	a2,a2,0x8
   1c7d6:	8dd1                	or	a1,a1,a2
   1c7d8:	00b11223          	sh	a1,4(sp)
   1c7dc:	00d10323          	sb	a3,6(sp)
   1c7e0:	3aeb2023          	sw	a4,928(s6)
   1c7e4:	1e051e63          	bnez	a0,1c9e0 <_start+0x4b6e>
   1c7e8:	00411503          	lh	a0,4(sp)
   1c7ec:	00614583          	lbu	a1,6(sp)
   1c7f0:	018a5613          	srli	a2,s4,0x18
   1c7f4:	010a5693          	srli	a3,s4,0x10
   1c7f8:	36db0ca3          	sb	a3,889(s6)
   1c7fc:	36cb0d23          	sb	a2,890(s6)
   1c800:	008a5613          	srli	a2,s4,0x8
   1c804:	36ab1a23          	sh	a0,884(s6)
   1c808:	36bb0b23          	sb	a1,886(s6)
   1c80c:	374b0ba3          	sb	s4,887(s6)
   1c810:	36cb0c23          	sb	a2,888(s6)
   1c814:	6505                	lui	a0,0x1
   1c816:	30b50513          	addi	a0,a0,779 # 130b <.Lline_table_start1+0x10e0>
   1c81a:	950a                	add	a0,a0,sp
   1c81c:	6585                	lui	a1,0x1
   1c81e:	32058593          	addi	a1,a1,800 # 1320 <.Lline_table_start1+0x10f5>
   1c822:	958a                	add	a1,a1,sp
   1c824:	4651                	li	a2,20
   1c826:	00000097          	auipc	ra,0x0
   1c82a:	2f6080e7          	jalr	758(ra) # 1cb1c <memcpy>
   1c82e:	6505                	lui	a0,0x1
   1c830:	37c50513          	addi	a0,a0,892 # 137c <.Lline_table_start1+0x1151>
   1c834:	950a                	add	a0,a0,sp
   1c836:	6585                	lui	a1,0x1
   1c838:	30458593          	addi	a1,a1,772 # 1304 <.Lline_table_start1+0x10d9>
   1c83c:	958a                	add	a1,a1,sp
   1c83e:	ffffa097          	auipc	ra,0xffffa
   1c842:	c8e080e7          	jalr	-882(ra) # 164cc <_ZN20complex_full_dynamic3app17hd588649fc8f853cfE>
   1c846:	3ecb4403          	lbu	s0,1004(s6)
   1c84a:	c401                	beqz	s0,1c852 <_start+0x49e0>
   1c84c:	3f0b2a03          	lw	s4,1008(s6)
   1c850:	a835                	j	1c88c <_start+0x4a1a>
   1c852:	3eeb4503          	lbu	a0,1006(s6)
   1c856:	3edb4583          	lbu	a1,1005(s6)
   1c85a:	3efb4603          	lbu	a2,1007(s6)
   1c85e:	3f0b2a03          	lw	s4,1008(s6)
   1c862:	0522                	slli	a0,a0,0x8
   1c864:	8d4d                	or	a0,a0,a1
   1c866:	00a11223          	sh	a0,4(sp)
   1c86a:	00c10323          	sb	a2,6(sp)
   1c86e:	6505                	lui	a0,0x1
   1c870:	38450513          	addi	a0,a0,900 # 1384 <.Lline_table_start1+0x1159>
   1c874:	00a105b3          	add	a1,sp,a0
   1c878:	6505                	lui	a0,0x1
   1c87a:	32050513          	addi	a0,a0,800 # 1320 <.Lline_table_start1+0x10f5>
   1c87e:	950a                	add	a0,a0,sp
   1c880:	05c00613          	li	a2,92
   1c884:	00000097          	auipc	ra,0x0
   1c888:	298080e7          	jalr	664(ra) # 1cb1c <memcpy>
   1c88c:	14041a63          	bnez	s0,1c9e0 <_start+0x4b6e>
   1c890:	00411503          	lh	a0,4(sp)
   1c894:	00614583          	lbu	a1,6(sp)
   1c898:	018a5613          	srli	a2,s4,0x18
   1c89c:	010a5693          	srli	a3,s4,0x10
   1c8a0:	44db0ba3          	sb	a3,1111(s6)
   1c8a4:	44cb0c23          	sb	a2,1112(s6)
   1c8a8:	008a5613          	srli	a2,s4,0x8
   1c8ac:	44ab1923          	sh	a0,1106(s6)
   1c8b0:	44bb0a23          	sb	a1,1108(s6)
   1c8b4:	454b0aa3          	sb	s4,1109(s6)
   1c8b8:	44cb0b23          	sb	a2,1110(s6)
   1c8bc:	6505                	lui	a0,0x1
   1c8be:	3e950513          	addi	a0,a0,1001 # 13e9 <.Lline_table_start1+0x11be>
   1c8c2:	950a                	add	a0,a0,sp
   1c8c4:	6585                	lui	a1,0x1
   1c8c6:	32058593          	addi	a1,a1,800 # 1320 <.Lline_table_start1+0x10f5>
   1c8ca:	958a                	add	a1,a1,sp
   1c8cc:	05c00613          	li	a2,92
   1c8d0:	00000097          	auipc	ra,0x0
   1c8d4:	24c080e7          	jalr	588(ra) # 1cb1c <memcpy>
   1c8d8:	6505                	lui	a0,0x1
   1c8da:	37c50513          	addi	a0,a0,892 # 137c <.Lline_table_start1+0x1151>
   1c8de:	950a                	add	a0,a0,sp
   1c8e0:	6585                	lui	a1,0x1
   1c8e2:	3e258593          	addi	a1,a1,994 # 13e2 <.Lline_table_start1+0x11b7>
   1c8e6:	958a                	add	a1,a1,sp
   1c8e8:	ffff9097          	auipc	ra,0xffff9
   1c8ec:	178080e7          	jalr	376(ra) # 15a60 <_ZN20complex_full_dynamic3app17hb5ef178af38c9f37E>
   1c8f0:	3ecb4403          	lbu	s0,1004(s6)
   1c8f4:	c401                	beqz	s0,1c8fc <_start+0x4a8a>
   1c8f6:	3f0b2a03          	lw	s4,1008(s6)
   1c8fa:	a835                	j	1c936 <_start+0x4ac4>
   1c8fc:	3eeb4503          	lbu	a0,1006(s6)
   1c900:	3edb4583          	lbu	a1,1005(s6)
   1c904:	3efb4603          	lbu	a2,1007(s6)
   1c908:	3f0b2a03          	lw	s4,1008(s6)
   1c90c:	0522                	slli	a0,a0,0x8
   1c90e:	8d4d                	or	a0,a0,a1
   1c910:	00a11223          	sh	a0,4(sp)
   1c914:	00c10323          	sb	a2,6(sp)
   1c918:	6505                	lui	a0,0x1
   1c91a:	38450513          	addi	a0,a0,900 # 1384 <.Lline_table_start1+0x1159>
   1c91e:	00a105b3          	add	a1,sp,a0
   1c922:	6505                	lui	a0,0x1
   1c924:	32050513          	addi	a0,a0,800 # 1320 <.Lline_table_start1+0x10f5>
   1c928:	950a                	add	a0,a0,sp
   1c92a:	02500613          	li	a2,37
   1c92e:	00000097          	auipc	ra,0x0
   1c932:	1ee080e7          	jalr	494(ra) # 1cb1c <memcpy>
   1c936:	e44d                	bnez	s0,1c9e0 <_start+0x4b6e>
   1c938:	00411503          	lh	a0,4(sp)
   1c93c:	00614583          	lbu	a1,6(sp)
   1c940:	018a5613          	srli	a2,s4,0x18
   1c944:	010a5693          	srli	a3,s4,0x10
   1c948:	4adb0da3          	sb	a3,1211(s6)
   1c94c:	4acb0e23          	sb	a2,1212(s6)
   1c950:	008a5613          	srli	a2,s4,0x8
   1c954:	4aab1b23          	sh	a0,1206(s6)
   1c958:	4abb0c23          	sb	a1,1208(s6)
   1c95c:	4b4b0ca3          	sb	s4,1209(s6)
   1c960:	4acb0d23          	sb	a2,1210(s6)
   1c964:	6505                	lui	a0,0x1
   1c966:	44d50513          	addi	a0,a0,1101 # 144d <.Lline_table_start1+0x1222>
   1c96a:	950a                	add	a0,a0,sp
   1c96c:	6585                	lui	a1,0x1
   1c96e:	32058593          	addi	a1,a1,800 # 1320 <.Lline_table_start1+0x10f5>
   1c972:	958a                	add	a1,a1,sp
   1c974:	02500613          	li	a2,37
   1c978:	00000097          	auipc	ra,0x0
   1c97c:	1a4080e7          	jalr	420(ra) # 1cb1c <memcpy>
   1c980:	6505                	lui	a0,0x1
   1c982:	37c50513          	addi	a0,a0,892 # 137c <.Lline_table_start1+0x1151>
   1c986:	950a                	add	a0,a0,sp
   1c988:	6585                	lui	a1,0x1
   1c98a:	44658593          	addi	a1,a1,1094 # 1446 <.Lline_table_start1+0x121b>
   1c98e:	958a                	add	a1,a1,sp
   1c990:	ffffa097          	auipc	ra,0xffffa
   1c994:	5b0080e7          	jalr	1456(ra) # 16f40 <_ZN20complex_full_dynamic3app17headcc2285bc55603E>
   1c998:	3ecb4403          	lbu	s0,1004(s6)
   1c99c:	c401                	beqz	s0,1c9a4 <_start+0x4b32>
   1c99e:	3f0b2a03          	lw	s4,1008(s6)
   1c9a2:	a835                	j	1c9de <_start+0x4b6c>
   1c9a4:	3eeb4503          	lbu	a0,1006(s6)
   1c9a8:	3edb4583          	lbu	a1,1005(s6)
   1c9ac:	3efb4603          	lbu	a2,1007(s6)
   1c9b0:	3f0b2a03          	lw	s4,1008(s6)
   1c9b4:	0522                	slli	a0,a0,0x8
   1c9b6:	8d4d                	or	a0,a0,a1
   1c9b8:	00a11223          	sh	a0,4(sp)
   1c9bc:	00c10323          	sb	a2,6(sp)
   1c9c0:	6505                	lui	a0,0x1
   1c9c2:	38450513          	addi	a0,a0,900 # 1384 <.Lline_table_start1+0x1159>
   1c9c6:	00a105b3          	add	a1,sp,a0
   1c9ca:	6505                	lui	a0,0x1
   1c9cc:	32050513          	addi	a0,a0,800 # 1320 <.Lline_table_start1+0x10f5>
   1c9d0:	950a                	add	a0,a0,sp
   1c9d2:	02300613          	li	a2,35
   1c9d6:	00000097          	auipc	ra,0x0
   1c9da:	146080e7          	jalr	326(ra) # 1cb1c <memcpy>
   1c9de:	c421                	beqz	s0,1ca26 <_start+0x4bb4>
   1c9e0:	4505                	li	a0,1
   1c9e2:	85d2                	mv	a1,s4
   1c9e4:	7f010113          	addi	sp,sp,2032
   1c9e8:	4f010113          	addi	sp,sp,1264
   1c9ec:	7ec12083          	lw	ra,2028(sp)
   1c9f0:	7e812403          	lw	s0,2024(sp)
   1c9f4:	7e412483          	lw	s1,2020(sp)
   1c9f8:	7e012903          	lw	s2,2016(sp)
   1c9fc:	7dc12983          	lw	s3,2012(sp)
   1ca00:	7d812a03          	lw	s4,2008(sp)
   1ca04:	7d412a83          	lw	s5,2004(sp)
   1ca08:	7d012b03          	lw	s6,2000(sp)
   1ca0c:	7cc12b83          	lw	s7,1996(sp)
   1ca10:	7c812c03          	lw	s8,1992(sp)
   1ca14:	7c412c83          	lw	s9,1988(sp)
   1ca18:	7c012d03          	lw	s10,1984(sp)
   1ca1c:	7bc12d83          	lw	s11,1980(sp)
   1ca20:	7f010113          	addi	sp,sp,2032
   1ca24:	8082                	ret
   1ca26:	00411503          	lh	a0,4(sp)
   1ca2a:	00614583          	lbu	a1,6(sp)
   1ca2e:	018a5613          	srli	a2,s4,0x18
   1ca32:	010a5693          	srli	a3,s4,0x10
   1ca36:	4edb03a3          	sb	a3,1255(s6)
   1ca3a:	4ecb0423          	sb	a2,1256(s6)
   1ca3e:	008a5613          	srli	a2,s4,0x8
   1ca42:	4eab1123          	sh	a0,1250(s6)
   1ca46:	4ebb0223          	sb	a1,1252(s6)
   1ca4a:	4f4b02a3          	sb	s4,1253(s6)
   1ca4e:	4ecb0323          	sb	a2,1254(s6)
   1ca52:	6505                	lui	a0,0x1
   1ca54:	47950513          	addi	a0,a0,1145 # 1479 <.Lline_table_start1+0x124e>
   1ca58:	950a                	add	a0,a0,sp
   1ca5a:	6585                	lui	a1,0x1
   1ca5c:	32058593          	addi	a1,a1,800 # 1320 <.Lline_table_start1+0x10f5>
   1ca60:	958a                	add	a1,a1,sp
   1ca62:	02300613          	li	a2,35
   1ca66:	00000097          	auipc	ra,0x0
   1ca6a:	0b6080e7          	jalr	182(ra) # 1cb1c <memcpy>
   1ca6e:	6505                	lui	a0,0x1
   1ca70:	37c50513          	addi	a0,a0,892 # 137c <.Lline_table_start1+0x1151>
   1ca74:	950a                	add	a0,a0,sp
   1ca76:	6585                	lui	a1,0x1
   1ca78:	47258593          	addi	a1,a1,1138 # 1472 <.Lline_table_start1+0x1247>
   1ca7c:	958a                	add	a1,a1,sp
   1ca7e:	ffff4097          	auipc	ra,0xffff4
   1ca82:	7e4080e7          	jalr	2020(ra) # 11262 <_ZN20complex_full_dynamic3app17h061b56519d4ea497E>
   1ca86:	3f0b2a03          	lw	s4,1008(s6)
   1ca8a:	3ecb4503          	lbu	a0,1004(s6)
   1ca8e:	bf91                	j	1c9e2 <_start+0x4b70>

0001ca90 <_ZN9allow_pin12full_dynamic17unshare_if_shared17h4e6b4433fd7c2282E>:
   1ca90:	00854703          	lbu	a4,8(a0)
   1ca94:	4789                	li	a5,2
   1ca96:	00f70c63          	beq	a4,a5,1caae <_ZN9allow_pin12full_dynamic17unshare_if_shared17h4e6b4433fd7c2282E+0x1e>
   1ca9a:	4110                	lw	a2,0(a0)
   1ca9c:	414c                	lw	a1,4(a0)
   1ca9e:	882a                	mv	a6,a0
   1caa0:	8532                	mv	a0,a2
   1caa2:	4601                	li	a2,0
   1caa4:	4681                	li	a3,0
   1caa6:	00000073          	ecall
   1caaa:	00f80423          	sb	a5,8(a6)
   1caae:	8082                	ret

0001cab0 <memset>:
   1cab0:	46c1                	li	a3,16
   1cab2:	04d66f63          	bltu	a2,a3,1cb10 <memset+0x60>
   1cab6:	40a006b3          	neg	a3,a0
   1caba:	0036f813          	andi	a6,a3,3
   1cabe:	01050733          	add	a4,a0,a6
   1cac2:	00e57963          	bgeu	a0,a4,1cad4 <memset+0x24>
   1cac6:	87c2                	mv	a5,a6
   1cac8:	86aa                	mv	a3,a0
   1caca:	00b68023          	sb	a1,0(a3)
   1cace:	17fd                	addi	a5,a5,-1
   1cad0:	0685                	addi	a3,a3,1
   1cad2:	ffe5                	bnez	a5,1caca <memset+0x1a>
   1cad4:	41060633          	sub	a2,a2,a6
   1cad8:	ffc67693          	andi	a3,a2,-4
   1cadc:	96ba                	add	a3,a3,a4
   1cade:	00d77e63          	bgeu	a4,a3,1cafa <memset+0x4a>
   1cae2:	0ff5f813          	zext.b	a6,a1
   1cae6:	010107b7          	lui	a5,0x1010
   1caea:	10178793          	addi	a5,a5,257 # 1010101 <_ZN17compiler_builtins3mem6memcpy17h90d0c987d2ef5a79E+0xff35dd>
   1caee:	02f807b3          	mul	a5,a6,a5
   1caf2:	c31c                	sw	a5,0(a4)
   1caf4:	0711                	addi	a4,a4,4
   1caf6:	fed76ee3          	bltu	a4,a3,1caf2 <memset+0x42>
   1cafa:	8a0d                	andi	a2,a2,3
   1cafc:	00c68733          	add	a4,a3,a2
   1cb00:	00e6f763          	bgeu	a3,a4,1cb0e <memset+0x5e>
   1cb04:	00b68023          	sb	a1,0(a3)
   1cb08:	167d                	addi	a2,a2,-1
   1cb0a:	0685                	addi	a3,a3,1
   1cb0c:	fe65                	bnez	a2,1cb04 <memset+0x54>
   1cb0e:	8082                	ret
   1cb10:	86aa                	mv	a3,a0
   1cb12:	00c50733          	add	a4,a0,a2
   1cb16:	fee567e3          	bltu	a0,a4,1cb04 <memset+0x54>
   1cb1a:	bfd5                	j	1cb0e <memset+0x5e>

0001cb1c <memcpy>:
   1cb1c:	00000317          	auipc	t1,0x0
   1cb20:	00830067          	jr	8(t1) # 1cb24 <_ZN17compiler_builtins3mem6memcpy17h90d0c987d2ef5a79E>

0001cb24 <_ZN17compiler_builtins3mem6memcpy17h90d0c987d2ef5a79E>:
   1cb24:	1141                	addi	sp,sp,-16
   1cb26:	c622                	sw	s0,12(sp)
   1cb28:	46c1                	li	a3,16
   1cb2a:	06d66363          	bltu	a2,a3,1cb90 <_ZN17compiler_builtins3mem6memcpy17h90d0c987d2ef5a79E+0x6c>
   1cb2e:	40a006b3          	neg	a3,a0
   1cb32:	0036f813          	andi	a6,a3,3
   1cb36:	01050fb3          	add	t6,a0,a6
   1cb3a:	01f57d63          	bgeu	a0,t6,1cb54 <_ZN17compiler_builtins3mem6memcpy17h90d0c987d2ef5a79E+0x30>
   1cb3e:	8742                	mv	a4,a6
   1cb40:	86aa                	mv	a3,a0
   1cb42:	87ae                	mv	a5,a1
   1cb44:	0007c883          	lbu	a7,0(a5)
   1cb48:	177d                	addi	a4,a4,-1
   1cb4a:	01168023          	sb	a7,0(a3)
   1cb4e:	0685                	addi	a3,a3,1
   1cb50:	0785                	addi	a5,a5,1
   1cb52:	fb6d                	bnez	a4,1cb44 <_ZN17compiler_builtins3mem6memcpy17h90d0c987d2ef5a79E+0x20>
   1cb54:	01058433          	add	s0,a1,a6
   1cb58:	410608b3          	sub	a7,a2,a6
   1cb5c:	ffc8f713          	andi	a4,a7,-4
   1cb60:	00347613          	andi	a2,s0,3
   1cb64:	00ef86b3          	add	a3,t6,a4
   1cb68:	e621                	bnez	a2,1cbb0 <_ZN17compiler_builtins3mem6memcpy17h90d0c987d2ef5a79E+0x8c>
   1cb6a:	00dffa63          	bgeu	t6,a3,1cb7e <_ZN17compiler_builtins3mem6memcpy17h90d0c987d2ef5a79E+0x5a>
   1cb6e:	8622                	mv	a2,s0
   1cb70:	421c                	lw	a5,0(a2)
   1cb72:	00ffa023          	sw	a5,0(t6)
   1cb76:	0f91                	addi	t6,t6,4
   1cb78:	0611                	addi	a2,a2,4
   1cb7a:	fedfebe3          	bltu	t6,a3,1cb70 <_ZN17compiler_builtins3mem6memcpy17h90d0c987d2ef5a79E+0x4c>
   1cb7e:	00e405b3          	add	a1,s0,a4
   1cb82:	0038f613          	andi	a2,a7,3
   1cb86:	00c68733          	add	a4,a3,a2
   1cb8a:	00e6e863          	bltu	a3,a4,1cb9a <_ZN17compiler_builtins3mem6memcpy17h90d0c987d2ef5a79E+0x76>
   1cb8e:	a831                	j	1cbaa <_ZN17compiler_builtins3mem6memcpy17h90d0c987d2ef5a79E+0x86>
   1cb90:	86aa                	mv	a3,a0
   1cb92:	00c50733          	add	a4,a0,a2
   1cb96:	00e57a63          	bgeu	a0,a4,1cbaa <_ZN17compiler_builtins3mem6memcpy17h90d0c987d2ef5a79E+0x86>
   1cb9a:	0005c703          	lbu	a4,0(a1)
   1cb9e:	167d                	addi	a2,a2,-1
   1cba0:	00e68023          	sb	a4,0(a3)
   1cba4:	0685                	addi	a3,a3,1
   1cba6:	0585                	addi	a1,a1,1
   1cba8:	fa6d                	bnez	a2,1cb9a <_ZN17compiler_builtins3mem6memcpy17h90d0c987d2ef5a79E+0x76>
   1cbaa:	4432                	lw	s0,12(sp)
   1cbac:	0141                	addi	sp,sp,16
   1cbae:	8082                	ret
   1cbb0:	4801                	li	a6,0
   1cbb2:	4791                	li	a5,4
   1cbb4:	c402                	sw	zero,8(sp)
   1cbb6:	40c783b3          	sub	t2,a5,a2
   1cbba:	00810293          	addi	t0,sp,8
   1cbbe:	0013f313          	andi	t1,t2,1
   1cbc2:	00c2e2b3          	or	t0,t0,a2
   1cbc6:	04031763          	bnez	t1,1cc14 <_ZN17compiler_builtins3mem6memcpy17h90d0c987d2ef5a79E+0xf0>
   1cbca:	0023f793          	andi	a5,t2,2
   1cbce:	ebb9                	bnez	a5,1cc24 <_ZN17compiler_builtins3mem6memcpy17h90d0c987d2ef5a79E+0x100>
   1cbd0:	4ea2                	lw	t4,8(sp)
   1cbd2:	00361813          	slli	a6,a2,0x3
   1cbd6:	004f8793          	addi	a5,t6,4
   1cbda:	40c40f33          	sub	t5,s0,a2
   1cbde:	06d7f363          	bgeu	a5,a3,1cc44 <_ZN17compiler_builtins3mem6memcpy17h90d0c987d2ef5a79E+0x120>
   1cbe2:	410007b3          	neg	a5,a6
   1cbe6:	0187fe13          	andi	t3,a5,24
   1cbea:	004f2283          	lw	t0,4(t5)
   1cbee:	004f0393          	addi	t2,t5,4
   1cbf2:	010ed5b3          	srl	a1,t4,a6
   1cbf6:	004f8313          	addi	t1,t6,4
   1cbfa:	01c297b3          	sll	a5,t0,t3
   1cbfe:	8ddd                	or	a1,a1,a5
   1cc00:	008f8793          	addi	a5,t6,8
   1cc04:	00bfa023          	sw	a1,0(t6)
   1cc08:	8f9a                	mv	t6,t1
   1cc0a:	8f1e                	mv	t5,t2
   1cc0c:	8e96                	mv	t4,t0
   1cc0e:	fcd7eee3          	bltu	a5,a3,1cbea <_ZN17compiler_builtins3mem6memcpy17h90d0c987d2ef5a79E+0xc6>
   1cc12:	a825                	j	1cc4a <_ZN17compiler_builtins3mem6memcpy17h90d0c987d2ef5a79E+0x126>
   1cc14:	00044783          	lbu	a5,0(s0)
   1cc18:	00f28023          	sb	a5,0(t0)
   1cc1c:	4805                	li	a6,1
   1cc1e:	0023f793          	andi	a5,t2,2
   1cc22:	d7dd                	beqz	a5,1cbd0 <_ZN17compiler_builtins3mem6memcpy17h90d0c987d2ef5a79E+0xac>
   1cc24:	010407b3          	add	a5,s0,a6
   1cc28:	00079783          	lh	a5,0(a5)
   1cc2c:	9816                	add	a6,a6,t0
   1cc2e:	00f81023          	sh	a5,0(a6)
   1cc32:	4ea2                	lw	t4,8(sp)
   1cc34:	00361813          	slli	a6,a2,0x3
   1cc38:	004f8793          	addi	a5,t6,4
   1cc3c:	40c40f33          	sub	t5,s0,a2
   1cc40:	fad7e1e3          	bltu	a5,a3,1cbe2 <_ZN17compiler_builtins3mem6memcpy17h90d0c987d2ef5a79E+0xbe>
   1cc44:	82f6                	mv	t0,t4
   1cc46:	83fa                	mv	t2,t5
   1cc48:	837e                	mv	t1,t6
   1cc4a:	00010223          	sb	zero,4(sp)
   1cc4e:	4785                	li	a5,1
   1cc50:	00010123          	sb	zero,2(sp)
   1cc54:	00f61763          	bne	a2,a5,1cc62 <_ZN17compiler_builtins3mem6memcpy17h90d0c987d2ef5a79E+0x13e>
   1cc58:	4781                	li	a5,0
   1cc5a:	4e01                	li	t3,0
   1cc5c:	4e81                	li	t4,0
   1cc5e:	0050                	addi	a2,sp,4
   1cc60:	a819                	j	1cc76 <_ZN17compiler_builtins3mem6memcpy17h90d0c987d2ef5a79E+0x152>
   1cc62:	0043c783          	lbu	a5,4(t2)
   1cc66:	0053ce03          	lbu	t3,5(t2)
   1cc6a:	4e89                	li	t4,2
   1cc6c:	00f10223          	sb	a5,4(sp)
   1cc70:	0e22                	slli	t3,t3,0x8
   1cc72:	00210613          	addi	a2,sp,2
   1cc76:	00147593          	andi	a1,s0,1
   1cc7a:	e199                	bnez	a1,1cc80 <_ZN17compiler_builtins3mem6memcpy17h90d0c987d2ef5a79E+0x15c>
   1cc7c:	4601                	li	a2,0
   1cc7e:	a821                	j	1cc96 <_ZN17compiler_builtins3mem6memcpy17h90d0c987d2ef5a79E+0x172>
   1cc80:	0391                	addi	t2,t2,4
   1cc82:	93f6                	add	t2,t2,t4
   1cc84:	0003c583          	lbu	a1,0(t2)
   1cc88:	00b60023          	sb	a1,0(a2)
   1cc8c:	00214603          	lbu	a2,2(sp)
   1cc90:	00414783          	lbu	a5,4(sp)
   1cc94:	0642                	slli	a2,a2,0x10
   1cc96:	8e5d                	or	a2,a2,a5
   1cc98:	0102d5b3          	srl	a1,t0,a6
   1cc9c:	410007b3          	neg	a5,a6
   1cca0:	00ce6633          	or	a2,t3,a2
   1cca4:	8be1                	andi	a5,a5,24
   1cca6:	00f61633          	sll	a2,a2,a5
   1ccaa:	8dd1                	or	a1,a1,a2
   1ccac:	00b32023          	sw	a1,0(t1)
   1ccb0:	00e405b3          	add	a1,s0,a4
   1ccb4:	0038f613          	andi	a2,a7,3
   1ccb8:	00c68733          	add	a4,a3,a2
   1ccbc:	ece6efe3          	bltu	a3,a4,1cb9a <_ZN17compiler_builtins3mem6memcpy17h90d0c987d2ef5a79E+0x76>
   1ccc0:	b5ed                	j	1cbaa <_ZN17compiler_builtins3mem6memcpy17h90d0c987d2ef5a79E+0x86>
