
target/riscv32imc-unknown-none-elf/opt-s/examples/complex_dynamic_type:     file format elf32-littleriscv

Sections:
Idx Name          Size      VMA       LMA       File off  Algn
  0 .eh_frame     00000060  000100d4  000100d4  000000d4  2**2
                  CONTENTS, ALLOC, LOAD, READONLY, DATA
  1 .text         0000c7e8  00011134  00011134  00000134  2**1
                  CONTENTS, ALLOC, LOAD, READONLY, CODE
  2 .comment      00000099  00000000  00000000  0000c91c  2**0
                  CONTENTS, READONLY
  3 .riscv.attributes 0000002f  00000000  00000000  0000c9b5  2**0
                  CONTENTS, READONLY

Disassembly of section .text:

00011134 <_ZN20complex_dynamic_type3app17h0badf856b63c0695E>:
   11134:	7131                	addi	sp,sp,-192
   11136:	df06                	sw	ra,188(sp)
   11138:	dd22                	sw	s0,184(sp)
   1113a:	db26                	sw	s1,180(sp)
   1113c:	d94a                	sw	s2,176(sp)
   1113e:	d74e                	sw	s3,172(sp)
   11140:	89aa                	mv	s3,a0
   11142:	4409                	li	s0,2
   11144:	008103a3          	sb	s0,7(sp)
   11148:	0024                	addi	s1,sp,8
   1114a:	05900613          	li	a2,89
   1114e:	8526                	mv	a0,s1
   11150:	0000c097          	auipc	ra,0xc
   11154:	626080e7          	jalr	1574(ra) # 1d776 <memcpy>
   11158:	06210913          	addi	s2,sp,98
   1115c:	04a00613          	li	a2,74
   11160:	854a                	mv	a0,s2
   11162:	4581                	li	a1,0
   11164:	0000c097          	auipc	ra,0xc
   11168:	5a6080e7          	jalr	1446(ra) # 1d70a <memset>
   1116c:	4581                	li	a1,0
   1116e:	8626                	mv	a2,s1
   11170:	068100a3          	sb	s0,97(sp)
   11174:	6505                	lui	a0,0x1
   11176:	4491                	li	s1,4
   11178:	48450793          	addi	a5,a0,1156 # 1484 <.Lline_table_start1+0x1259>
   1117c:	05900693          	li	a3,89
   11180:	4711                	li	a4,4
   11182:	853e                	mv	a0,a5
   11184:	00000073          	ecall
   11188:	00851863          	bne	a0,s0,11198 <_ZN20complex_dynamic_type3app17h0badf856b63c0695E+0x64>
   1118c:	4505                	li	a0,1
   1118e:	00a98023          	sb	a0,0(s3)
   11192:	00b9a223          	sw	a1,4(s3)
   11196:	a0bd                	j	11204 <_ZN20complex_dynamic_type3app17h0badf856b63c0695E+0xd0>
   11198:	853e                	mv	a0,a5
   1119a:	864a                	mv	a2,s2
   1119c:	009103a3          	sb	s1,7(sp)
   111a0:	478d                	li	a5,3
   111a2:	4591                	li	a1,4
   111a4:	04a00693          	li	a3,74
   111a8:	470d                	li	a4,3
   111aa:	00000073          	ecall
   111ae:	00851d63          	bne	a0,s0,111c8 <_ZN20complex_dynamic_type3app17h0badf856b63c0695E+0x94>
   111b2:	06114703          	lbu	a4,97(sp)
   111b6:	4505                	li	a0,1
   111b8:	4609                	li	a2,2
   111ba:	00a98023          	sb	a0,0(s3)
   111be:	00b9a223          	sw	a1,4(s3)
   111c2:	02c71963          	bne	a4,a2,111f4 <_ZN20complex_dynamic_type3app17h0badf856b63c0695E+0xc0>
   111c6:	a83d                	j	11204 <_ZN20complex_dynamic_type3app17h0badf856b63c0695E+0xd0>
   111c8:	4581                	li	a1,0
   111ca:	4681                	li	a3,0
   111cc:	06f100a3          	sb	a5,97(sp)
   111d0:	6505                	lui	a0,0x1
   111d2:	4611                	li	a2,4
   111d4:	4709                	li	a4,2
   111d6:	48450513          	addi	a0,a0,1156 # 1484 <.Lline_table_start1+0x1259>
   111da:	07f00793          	li	a5,127
   111de:	00000073          	ecall
   111e2:	4609                	li	a2,2
   111e4:	04a7e563          	bltu	a5,a0,1122e <_ZN20complex_dynamic_type3app17h0badf856b63c0695E+0xfa>
   111e8:	4505                	li	a0,1
   111ea:	00a98023          	sb	a0,0(s3)
   111ee:	00b9a223          	sw	a1,4(s3)
   111f2:	470d                	li	a4,3
   111f4:	6505                	lui	a0,0x1
   111f6:	48450513          	addi	a0,a0,1156 # 1484 <.Lline_table_start1+0x1259>
   111fa:	4591                	li	a1,4
   111fc:	4601                	li	a2,0
   111fe:	4681                	li	a3,0
   11200:	00000073          	ecall
   11204:	00714483          	lbu	s1,7(sp)
   11208:	4509                	li	a0,2
   1120a:	00a48b63          	beq	s1,a0,11220 <_ZN20complex_dynamic_type3app17h0badf856b63c0695E+0xec>
   1120e:	6505                	lui	a0,0x1
   11210:	48450513          	addi	a0,a0,1156 # 1484 <.Lline_table_start1+0x1259>
   11214:	4581                	li	a1,0
   11216:	4601                	li	a2,0
   11218:	4681                	li	a3,0
   1121a:	8726                	mv	a4,s1
   1121c:	00000073          	ecall
   11220:	50fa                	lw	ra,188(sp)
   11222:	546a                	lw	s0,184(sp)
   11224:	54da                	lw	s1,180(sp)
   11226:	594a                	lw	s2,176(sp)
   11228:	59ba                	lw	s3,172(sp)
   1122a:	6129                	addi	sp,sp,192
   1122c:	8082                	ret
   1122e:	00714703          	lbu	a4,7(sp)
   11232:	00c71463          	bne	a4,a2,1123a <_ZN20complex_dynamic_type3app17h0badf856b63c0695E+0x106>
   11236:	470d                	li	a4,3
   11238:	a825                	j	11270 <_ZN20complex_dynamic_type3app17h0badf856b63c0695E+0x13c>
   1123a:	6505                	lui	a0,0x1
   1123c:	48450513          	addi	a0,a0,1156 # 1484 <.Lline_table_start1+0x1259>
   11240:	4581                	li	a1,0
   11242:	4601                	li	a2,0
   11244:	4681                	li	a3,0
   11246:	00000073          	ecall
   1124a:	06114703          	lbu	a4,97(sp)
   1124e:	4509                	li	a0,2
   11250:	00a103a3          	sb	a0,7(sp)
   11254:	00a71e63          	bne	a4,a0,11270 <_ZN20complex_dynamic_type3app17h0badf856b63c0695E+0x13c>
   11258:	00198513          	addi	a0,s3,1
   1125c:	04a00613          	li	a2,74
   11260:	85ca                	mv	a1,s2
   11262:	0000c097          	auipc	ra,0xc
   11266:	514080e7          	jalr	1300(ra) # 1d776 <memcpy>
   1126a:	00098023          	sb	zero,0(s3)
   1126e:	bf4d                	j	11220 <_ZN20complex_dynamic_type3app17h0badf856b63c0695E+0xec>
   11270:	6505                	lui	a0,0x1
   11272:	48450513          	addi	a0,a0,1156 # 1484 <.Lline_table_start1+0x1259>
   11276:	4591                	li	a1,4
   11278:	4601                	li	a2,0
   1127a:	4681                	li	a3,0
   1127c:	00000073          	ecall
   11280:	00714483          	lbu	s1,7(sp)
   11284:	00198513          	addi	a0,s3,1
   11288:	04a00613          	li	a2,74
   1128c:	85ca                	mv	a1,s2
   1128e:	0000c097          	auipc	ra,0xc
   11292:	4e8080e7          	jalr	1256(ra) # 1d776 <memcpy>
   11296:	4509                	li	a0,2
   11298:	00098023          	sb	zero,0(s3)
   1129c:	f6a499e3          	bne	s1,a0,1120e <_ZN20complex_dynamic_type3app17h0badf856b63c0695E+0xda>
   112a0:	b741                	j	11220 <_ZN20complex_dynamic_type3app17h0badf856b63c0695E+0xec>

000112a2 <_ZN20complex_dynamic_type3app17h0d6286e4a612fda7E>:
   112a2:	7175                	addi	sp,sp,-144
   112a4:	c706                	sw	ra,140(sp)
   112a6:	c522                	sw	s0,136(sp)
   112a8:	c326                	sw	s1,132(sp)
   112aa:	c14a                	sw	s2,128(sp)
   112ac:	dece                	sw	s3,124(sp)
   112ae:	89aa                	mv	s3,a0
   112b0:	4409                	li	s0,2
   112b2:	008107a3          	sb	s0,15(sp)
   112b6:	0804                	addi	s1,sp,16
   112b8:	05000613          	li	a2,80
   112bc:	8526                	mv	a0,s1
   112be:	0000c097          	auipc	ra,0xc
   112c2:	4b8080e7          	jalr	1208(ra) # 1d776 <memcpy>
   112c6:	06110913          	addi	s2,sp,97
   112ca:	466d                	li	a2,27
   112cc:	854a                	mv	a0,s2
   112ce:	4581                	li	a1,0
   112d0:	0000c097          	auipc	ra,0xc
   112d4:	43a080e7          	jalr	1082(ra) # 1d70a <memset>
   112d8:	8626                	mv	a2,s1
   112da:	06810023          	sb	s0,96(sp)
   112de:	4785                	li	a5,1
   112e0:	4491                	li	s1,4
   112e2:	3d900513          	li	a0,985
   112e6:	4585                	li	a1,1
   112e8:	05000693          	li	a3,80
   112ec:	4711                	li	a4,4
   112ee:	00000073          	ecall
   112f2:	00851763          	bne	a0,s0,11300 <_ZN20complex_dynamic_type3app17h0d6286e4a612fda7E+0x5e>
   112f6:	00f98023          	sb	a5,0(s3)
   112fa:	00b9a223          	sw	a1,4(s3)
   112fe:	a0ad                	j	11368 <_ZN20complex_dynamic_type3app17h0d6286e4a612fda7E+0xc6>
   11300:	864a                	mv	a2,s2
   11302:	009107a3          	sb	s1,15(sp)
   11306:	478d                	li	a5,3
   11308:	3d900513          	li	a0,985
   1130c:	4589                	li	a1,2
   1130e:	46ed                	li	a3,27
   11310:	470d                	li	a4,3
   11312:	00000073          	ecall
   11316:	00851d63          	bne	a0,s0,11330 <_ZN20complex_dynamic_type3app17h0d6286e4a612fda7E+0x8e>
   1131a:	06014703          	lbu	a4,96(sp)
   1131e:	4505                	li	a0,1
   11320:	4609                	li	a2,2
   11322:	00a98023          	sb	a0,0(s3)
   11326:	00b9a223          	sw	a1,4(s3)
   1132a:	02c71863          	bne	a4,a2,1135a <_ZN20complex_dynamic_type3app17h0d6286e4a612fda7E+0xb8>
   1132e:	a82d                	j	11368 <_ZN20complex_dynamic_type3app17h0d6286e4a612fda7E+0xc6>
   11330:	4681                	li	a3,0
   11332:	06f10023          	sb	a5,96(sp)
   11336:	4785                	li	a5,1
   11338:	3d900513          	li	a0,985
   1133c:	4585                	li	a1,1
   1133e:	4609                	li	a2,2
   11340:	4709                	li	a4,2
   11342:	07f00493          	li	s1,127
   11346:	00000073          	ecall
   1134a:	4609                	li	a2,2
   1134c:	04a4e263          	bltu	s1,a0,11390 <_ZN20complex_dynamic_type3app17h0d6286e4a612fda7E+0xee>
   11350:	00f98023          	sb	a5,0(s3)
   11354:	00b9a223          	sw	a1,4(s3)
   11358:	470d                	li	a4,3
   1135a:	3d900513          	li	a0,985
   1135e:	4589                	li	a1,2
   11360:	4601                	li	a2,0
   11362:	4681                	li	a3,0
   11364:	00000073          	ecall
   11368:	00f14483          	lbu	s1,15(sp)
   1136c:	4509                	li	a0,2
   1136e:	00a48a63          	beq	s1,a0,11382 <_ZN20complex_dynamic_type3app17h0d6286e4a612fda7E+0xe0>
   11372:	3d900513          	li	a0,985
   11376:	4585                	li	a1,1
   11378:	4601                	li	a2,0
   1137a:	4681                	li	a3,0
   1137c:	8726                	mv	a4,s1
   1137e:	00000073          	ecall
   11382:	40ba                	lw	ra,140(sp)
   11384:	442a                	lw	s0,136(sp)
   11386:	449a                	lw	s1,132(sp)
   11388:	490a                	lw	s2,128(sp)
   1138a:	59f6                	lw	s3,124(sp)
   1138c:	6149                	addi	sp,sp,144
   1138e:	8082                	ret
   11390:	00f14703          	lbu	a4,15(sp)
   11394:	00c71463          	bne	a4,a2,1139c <_ZN20complex_dynamic_type3app17h0d6286e4a612fda7E+0xfa>
   11398:	470d                	li	a4,3
   1139a:	a815                	j	113ce <_ZN20complex_dynamic_type3app17h0d6286e4a612fda7E+0x12c>
   1139c:	3d900513          	li	a0,985
   113a0:	4585                	li	a1,1
   113a2:	4601                	li	a2,0
   113a4:	4681                	li	a3,0
   113a6:	00000073          	ecall
   113aa:	06014703          	lbu	a4,96(sp)
   113ae:	4509                	li	a0,2
   113b0:	00a107a3          	sb	a0,15(sp)
   113b4:	00a71d63          	bne	a4,a0,113ce <_ZN20complex_dynamic_type3app17h0d6286e4a612fda7E+0x12c>
   113b8:	00198513          	addi	a0,s3,1
   113bc:	466d                	li	a2,27
   113be:	85ca                	mv	a1,s2
   113c0:	0000c097          	auipc	ra,0xc
   113c4:	3b6080e7          	jalr	950(ra) # 1d776 <memcpy>
   113c8:	00098023          	sb	zero,0(s3)
   113cc:	bf5d                	j	11382 <_ZN20complex_dynamic_type3app17h0d6286e4a612fda7E+0xe0>
   113ce:	4601                	li	a2,0
   113d0:	4681                	li	a3,0
   113d2:	3d900513          	li	a0,985
   113d6:	4589                	li	a1,2
   113d8:	00000073          	ecall
   113dc:	00f14483          	lbu	s1,15(sp)
   113e0:	4409                	li	s0,2
   113e2:	00198513          	addi	a0,s3,1
   113e6:	466d                	li	a2,27
   113e8:	85ca                	mv	a1,s2
   113ea:	0000c097          	auipc	ra,0xc
   113ee:	38c080e7          	jalr	908(ra) # 1d776 <memcpy>
   113f2:	00098023          	sb	zero,0(s3)
   113f6:	f6849ee3          	bne	s1,s0,11372 <_ZN20complex_dynamic_type3app17h0d6286e4a612fda7E+0xd0>
   113fa:	b761                	j	11382 <_ZN20complex_dynamic_type3app17h0d6286e4a612fda7E+0xe0>

000113fc <_ZN20complex_dynamic_type3app17h0d9b477cc0941f33E>:
   113fc:	7131                	addi	sp,sp,-192
   113fe:	df06                	sw	ra,188(sp)
   11400:	dd22                	sw	s0,184(sp)
   11402:	db26                	sw	s1,180(sp)
   11404:	d94a                	sw	s2,176(sp)
   11406:	d74e                	sw	s3,172(sp)
   11408:	89aa                	mv	s3,a0
   1140a:	4409                	li	s0,2
   1140c:	008105a3          	sb	s0,11(sp)
   11410:	0064                	addi	s1,sp,12
   11412:	05600613          	li	a2,86
   11416:	8526                	mv	a0,s1
   11418:	0000c097          	auipc	ra,0xc
   1141c:	35e080e7          	jalr	862(ra) # 1d776 <memcpy>
   11420:	06310913          	addi	s2,sp,99
   11424:	04900613          	li	a2,73
   11428:	854a                	mv	a0,s2
   1142a:	4581                	li	a1,0
   1142c:	0000c097          	auipc	ra,0xc
   11430:	2de080e7          	jalr	734(ra) # 1d70a <memset>
   11434:	8626                	mv	a2,s1
   11436:	06810123          	sb	s0,98(sp)
   1143a:	6509                	lui	a0,0x2
   1143c:	4491                	li	s1,4
   1143e:	4599                	li	a1,6
   11440:	c6b50793          	addi	a5,a0,-917 # 1c6b <.Lline_table_start1+0x1a40>
   11444:	05600693          	li	a3,86
   11448:	4711                	li	a4,4
   1144a:	853e                	mv	a0,a5
   1144c:	00000073          	ecall
   11450:	00851863          	bne	a0,s0,11460 <_ZN20complex_dynamic_type3app17h0d9b477cc0941f33E+0x64>
   11454:	4505                	li	a0,1
   11456:	00a98023          	sb	a0,0(s3)
   1145a:	00b9a223          	sw	a1,4(s3)
   1145e:	a0bd                	j	114cc <_ZN20complex_dynamic_type3app17h0d9b477cc0941f33E+0xd0>
   11460:	853e                	mv	a0,a5
   11462:	864a                	mv	a2,s2
   11464:	009105a3          	sb	s1,11(sp)
   11468:	478d                	li	a5,3
   1146a:	4599                	li	a1,6
   1146c:	04900693          	li	a3,73
   11470:	470d                	li	a4,3
   11472:	00000073          	ecall
   11476:	00851d63          	bne	a0,s0,11490 <_ZN20complex_dynamic_type3app17h0d9b477cc0941f33E+0x94>
   1147a:	06214703          	lbu	a4,98(sp)
   1147e:	4505                	li	a0,1
   11480:	4609                	li	a2,2
   11482:	00a98023          	sb	a0,0(s3)
   11486:	00b9a223          	sw	a1,4(s3)
   1148a:	02c71963          	bne	a4,a2,114bc <_ZN20complex_dynamic_type3app17h0d9b477cc0941f33E+0xc0>
   1148e:	a83d                	j	114cc <_ZN20complex_dynamic_type3app17h0d9b477cc0941f33E+0xd0>
   11490:	4681                	li	a3,0
   11492:	06f10123          	sb	a5,98(sp)
   11496:	6509                	lui	a0,0x2
   11498:	4599                	li	a1,6
   1149a:	4619                	li	a2,6
   1149c:	4709                	li	a4,2
   1149e:	c6b50513          	addi	a0,a0,-917 # 1c6b <.Lline_table_start1+0x1a40>
   114a2:	07f00793          	li	a5,127
   114a6:	00000073          	ecall
   114aa:	4609                	li	a2,2
   114ac:	04a7e563          	bltu	a5,a0,114f6 <_ZN20complex_dynamic_type3app17h0d9b477cc0941f33E+0xfa>
   114b0:	4505                	li	a0,1
   114b2:	00a98023          	sb	a0,0(s3)
   114b6:	00b9a223          	sw	a1,4(s3)
   114ba:	470d                	li	a4,3
   114bc:	6509                	lui	a0,0x2
   114be:	c6b50513          	addi	a0,a0,-917 # 1c6b <.Lline_table_start1+0x1a40>
   114c2:	4599                	li	a1,6
   114c4:	4601                	li	a2,0
   114c6:	4681                	li	a3,0
   114c8:	00000073          	ecall
   114cc:	00b14483          	lbu	s1,11(sp)
   114d0:	4509                	li	a0,2
   114d2:	00a48b63          	beq	s1,a0,114e8 <_ZN20complex_dynamic_type3app17h0d9b477cc0941f33E+0xec>
   114d6:	6509                	lui	a0,0x2
   114d8:	c6b50513          	addi	a0,a0,-917 # 1c6b <.Lline_table_start1+0x1a40>
   114dc:	4599                	li	a1,6
   114de:	4601                	li	a2,0
   114e0:	4681                	li	a3,0
   114e2:	8726                	mv	a4,s1
   114e4:	00000073          	ecall
   114e8:	50fa                	lw	ra,188(sp)
   114ea:	546a                	lw	s0,184(sp)
   114ec:	54da                	lw	s1,180(sp)
   114ee:	594a                	lw	s2,176(sp)
   114f0:	59ba                	lw	s3,172(sp)
   114f2:	6129                	addi	sp,sp,192
   114f4:	8082                	ret
   114f6:	00b14703          	lbu	a4,11(sp)
   114fa:	00c71463          	bne	a4,a2,11502 <_ZN20complex_dynamic_type3app17h0d9b477cc0941f33E+0x106>
   114fe:	470d                	li	a4,3
   11500:	a825                	j	11538 <_ZN20complex_dynamic_type3app17h0d9b477cc0941f33E+0x13c>
   11502:	6509                	lui	a0,0x2
   11504:	c6b50513          	addi	a0,a0,-917 # 1c6b <.Lline_table_start1+0x1a40>
   11508:	4599                	li	a1,6
   1150a:	4601                	li	a2,0
   1150c:	4681                	li	a3,0
   1150e:	00000073          	ecall
   11512:	06214703          	lbu	a4,98(sp)
   11516:	4509                	li	a0,2
   11518:	00a105a3          	sb	a0,11(sp)
   1151c:	00a71e63          	bne	a4,a0,11538 <_ZN20complex_dynamic_type3app17h0d9b477cc0941f33E+0x13c>
   11520:	00198513          	addi	a0,s3,1
   11524:	04900613          	li	a2,73
   11528:	85ca                	mv	a1,s2
   1152a:	0000c097          	auipc	ra,0xc
   1152e:	24c080e7          	jalr	588(ra) # 1d776 <memcpy>
   11532:	00098023          	sb	zero,0(s3)
   11536:	bf4d                	j	114e8 <_ZN20complex_dynamic_type3app17h0d9b477cc0941f33E+0xec>
   11538:	6509                	lui	a0,0x2
   1153a:	c6b50513          	addi	a0,a0,-917 # 1c6b <.Lline_table_start1+0x1a40>
   1153e:	4599                	li	a1,6
   11540:	4601                	li	a2,0
   11542:	4681                	li	a3,0
   11544:	00000073          	ecall
   11548:	00b14483          	lbu	s1,11(sp)
   1154c:	00198513          	addi	a0,s3,1
   11550:	04900613          	li	a2,73
   11554:	85ca                	mv	a1,s2
   11556:	0000c097          	auipc	ra,0xc
   1155a:	220080e7          	jalr	544(ra) # 1d776 <memcpy>
   1155e:	4509                	li	a0,2
   11560:	00098023          	sb	zero,0(s3)
   11564:	f6a499e3          	bne	s1,a0,114d6 <_ZN20complex_dynamic_type3app17h0d9b477cc0941f33E+0xda>
   11568:	b741                	j	114e8 <_ZN20complex_dynamic_type3app17h0d9b477cc0941f33E+0xec>

0001156a <_ZN20complex_dynamic_type3app17h10ef4236adb518a5E>:
   1156a:	7171                	addi	sp,sp,-176
   1156c:	d706                	sw	ra,172(sp)
   1156e:	d522                	sw	s0,168(sp)
   11570:	d326                	sw	s1,164(sp)
   11572:	d14a                	sw	s2,160(sp)
   11574:	cf4e                	sw	s3,156(sp)
   11576:	89aa                	mv	s3,a0
   11578:	4409                	li	s0,2
   1157a:	008101a3          	sb	s0,3(sp)
   1157e:	0044                	addi	s1,sp,4
   11580:	03a00613          	li	a2,58
   11584:	8526                	mv	a0,s1
   11586:	0000c097          	auipc	ra,0xc
   1158a:	1f0080e7          	jalr	496(ra) # 1d776 <memcpy>
   1158e:	03f10913          	addi	s2,sp,63
   11592:	05d00613          	li	a2,93
   11596:	854a                	mv	a0,s2
   11598:	4581                	li	a1,0
   1159a:	0000c097          	auipc	ra,0xc
   1159e:	170080e7          	jalr	368(ra) # 1d70a <memset>
   115a2:	4581                	li	a1,0
   115a4:	8626                	mv	a2,s1
   115a6:	02810f23          	sb	s0,62(sp)
   115aa:	6505                	lui	a0,0x1
   115ac:	4491                	li	s1,4
   115ae:	4a450793          	addi	a5,a0,1188 # 14a4 <.Lline_table_start1+0x1279>
   115b2:	03a00693          	li	a3,58
   115b6:	4711                	li	a4,4
   115b8:	853e                	mv	a0,a5
   115ba:	00000073          	ecall
   115be:	00851863          	bne	a0,s0,115ce <_ZN20complex_dynamic_type3app17h10ef4236adb518a5E+0x64>
   115c2:	4505                	li	a0,1
   115c4:	00a98023          	sb	a0,0(s3)
   115c8:	00b9a223          	sw	a1,4(s3)
   115cc:	a0bd                	j	1163a <_ZN20complex_dynamic_type3app17h10ef4236adb518a5E+0xd0>
   115ce:	853e                	mv	a0,a5
   115d0:	864a                	mv	a2,s2
   115d2:	009101a3          	sb	s1,3(sp)
   115d6:	478d                	li	a5,3
   115d8:	4595                	li	a1,5
   115da:	05d00693          	li	a3,93
   115de:	470d                	li	a4,3
   115e0:	00000073          	ecall
   115e4:	00851d63          	bne	a0,s0,115fe <_ZN20complex_dynamic_type3app17h10ef4236adb518a5E+0x94>
   115e8:	03e14703          	lbu	a4,62(sp)
   115ec:	4505                	li	a0,1
   115ee:	4609                	li	a2,2
   115f0:	00a98023          	sb	a0,0(s3)
   115f4:	00b9a223          	sw	a1,4(s3)
   115f8:	02c71963          	bne	a4,a2,1162a <_ZN20complex_dynamic_type3app17h10ef4236adb518a5E+0xc0>
   115fc:	a83d                	j	1163a <_ZN20complex_dynamic_type3app17h10ef4236adb518a5E+0xd0>
   115fe:	4581                	li	a1,0
   11600:	4681                	li	a3,0
   11602:	02f10f23          	sb	a5,62(sp)
   11606:	6505                	lui	a0,0x1
   11608:	4615                	li	a2,5
   1160a:	4709                	li	a4,2
   1160c:	4a450513          	addi	a0,a0,1188 # 14a4 <.Lline_table_start1+0x1279>
   11610:	07f00793          	li	a5,127
   11614:	00000073          	ecall
   11618:	4609                	li	a2,2
   1161a:	04a7e563          	bltu	a5,a0,11664 <_ZN20complex_dynamic_type3app17h10ef4236adb518a5E+0xfa>
   1161e:	4505                	li	a0,1
   11620:	00a98023          	sb	a0,0(s3)
   11624:	00b9a223          	sw	a1,4(s3)
   11628:	470d                	li	a4,3
   1162a:	6505                	lui	a0,0x1
   1162c:	4a450513          	addi	a0,a0,1188 # 14a4 <.Lline_table_start1+0x1279>
   11630:	4595                	li	a1,5
   11632:	4601                	li	a2,0
   11634:	4681                	li	a3,0
   11636:	00000073          	ecall
   1163a:	00314483          	lbu	s1,3(sp)
   1163e:	4509                	li	a0,2
   11640:	00a48b63          	beq	s1,a0,11656 <_ZN20complex_dynamic_type3app17h10ef4236adb518a5E+0xec>
   11644:	6505                	lui	a0,0x1
   11646:	4a450513          	addi	a0,a0,1188 # 14a4 <.Lline_table_start1+0x1279>
   1164a:	4581                	li	a1,0
   1164c:	4601                	li	a2,0
   1164e:	4681                	li	a3,0
   11650:	8726                	mv	a4,s1
   11652:	00000073          	ecall
   11656:	50ba                	lw	ra,172(sp)
   11658:	542a                	lw	s0,168(sp)
   1165a:	549a                	lw	s1,164(sp)
   1165c:	590a                	lw	s2,160(sp)
   1165e:	49fa                	lw	s3,156(sp)
   11660:	614d                	addi	sp,sp,176
   11662:	8082                	ret
   11664:	00314703          	lbu	a4,3(sp)
   11668:	00c71463          	bne	a4,a2,11670 <_ZN20complex_dynamic_type3app17h10ef4236adb518a5E+0x106>
   1166c:	470d                	li	a4,3
   1166e:	a825                	j	116a6 <_ZN20complex_dynamic_type3app17h10ef4236adb518a5E+0x13c>
   11670:	6505                	lui	a0,0x1
   11672:	4a450513          	addi	a0,a0,1188 # 14a4 <.Lline_table_start1+0x1279>
   11676:	4581                	li	a1,0
   11678:	4601                	li	a2,0
   1167a:	4681                	li	a3,0
   1167c:	00000073          	ecall
   11680:	03e14703          	lbu	a4,62(sp)
   11684:	4509                	li	a0,2
   11686:	00a101a3          	sb	a0,3(sp)
   1168a:	00a71e63          	bne	a4,a0,116a6 <_ZN20complex_dynamic_type3app17h10ef4236adb518a5E+0x13c>
   1168e:	00198513          	addi	a0,s3,1
   11692:	05d00613          	li	a2,93
   11696:	85ca                	mv	a1,s2
   11698:	0000c097          	auipc	ra,0xc
   1169c:	0de080e7          	jalr	222(ra) # 1d776 <memcpy>
   116a0:	00098023          	sb	zero,0(s3)
   116a4:	bf4d                	j	11656 <_ZN20complex_dynamic_type3app17h10ef4236adb518a5E+0xec>
   116a6:	6505                	lui	a0,0x1
   116a8:	4a450513          	addi	a0,a0,1188 # 14a4 <.Lline_table_start1+0x1279>
   116ac:	4595                	li	a1,5
   116ae:	4601                	li	a2,0
   116b0:	4681                	li	a3,0
   116b2:	00000073          	ecall
   116b6:	00314483          	lbu	s1,3(sp)
   116ba:	00198513          	addi	a0,s3,1
   116be:	05d00613          	li	a2,93
   116c2:	85ca                	mv	a1,s2
   116c4:	0000c097          	auipc	ra,0xc
   116c8:	0b2080e7          	jalr	178(ra) # 1d776 <memcpy>
   116cc:	4509                	li	a0,2
   116ce:	00098023          	sb	zero,0(s3)
   116d2:	f6a499e3          	bne	s1,a0,11644 <_ZN20complex_dynamic_type3app17h10ef4236adb518a5E+0xda>
   116d6:	b741                	j	11656 <_ZN20complex_dynamic_type3app17h10ef4236adb518a5E+0xec>

000116d8 <_ZN20complex_dynamic_type3app17h11c7ad91b9e57df9E>:
   116d8:	7175                	addi	sp,sp,-144
   116da:	c706                	sw	ra,140(sp)
   116dc:	c522                	sw	s0,136(sp)
   116de:	c326                	sw	s1,132(sp)
   116e0:	c14a                	sw	s2,128(sp)
   116e2:	dece                	sw	s3,124(sp)
   116e4:	89aa                	mv	s3,a0
   116e6:	4409                	li	s0,2
   116e8:	008100a3          	sb	s0,1(sp)
   116ec:	00210493          	addi	s1,sp,2
   116f0:	4671                	li	a2,28
   116f2:	8526                	mv	a0,s1
   116f4:	0000c097          	auipc	ra,0xc
   116f8:	082080e7          	jalr	130(ra) # 1d776 <memcpy>
   116fc:	01f10913          	addi	s2,sp,31
   11700:	05d00613          	li	a2,93
   11704:	854a                	mv	a0,s2
   11706:	4581                	li	a1,0
   11708:	0000c097          	auipc	ra,0xc
   1170c:	002080e7          	jalr	2(ra) # 1d70a <memset>
   11710:	8626                	mv	a2,s1
   11712:	00810f23          	sb	s0,30(sp)
   11716:	6505                	lui	a0,0x1
   11718:	4491                	li	s1,4
   1171a:	45a1                	li	a1,8
   1171c:	c3e50793          	addi	a5,a0,-962 # c3e <.Lline_table_start1+0xa13>
   11720:	46f1                	li	a3,28
   11722:	4711                	li	a4,4
   11724:	853e                	mv	a0,a5
   11726:	00000073          	ecall
   1172a:	00851863          	bne	a0,s0,1173a <_ZN20complex_dynamic_type3app17h11c7ad91b9e57df9E+0x62>
   1172e:	4505                	li	a0,1
   11730:	00a98023          	sb	a0,0(s3)
   11734:	00b9a223          	sw	a1,4(s3)
   11738:	a0bd                	j	117a6 <_ZN20complex_dynamic_type3app17h11c7ad91b9e57df9E+0xce>
   1173a:	853e                	mv	a0,a5
   1173c:	864a                	mv	a2,s2
   1173e:	009100a3          	sb	s1,1(sp)
   11742:	478d                	li	a5,3
   11744:	4595                	li	a1,5
   11746:	05d00693          	li	a3,93
   1174a:	470d                	li	a4,3
   1174c:	00000073          	ecall
   11750:	00851d63          	bne	a0,s0,1176a <_ZN20complex_dynamic_type3app17h11c7ad91b9e57df9E+0x92>
   11754:	01e14703          	lbu	a4,30(sp)
   11758:	4505                	li	a0,1
   1175a:	4609                	li	a2,2
   1175c:	00a98023          	sb	a0,0(s3)
   11760:	00b9a223          	sw	a1,4(s3)
   11764:	02c71963          	bne	a4,a2,11796 <_ZN20complex_dynamic_type3app17h11c7ad91b9e57df9E+0xbe>
   11768:	a83d                	j	117a6 <_ZN20complex_dynamic_type3app17h11c7ad91b9e57df9E+0xce>
   1176a:	4681                	li	a3,0
   1176c:	00f10f23          	sb	a5,30(sp)
   11770:	6505                	lui	a0,0x1
   11772:	45a1                	li	a1,8
   11774:	4615                	li	a2,5
   11776:	4709                	li	a4,2
   11778:	c3e50513          	addi	a0,a0,-962 # c3e <.Lline_table_start1+0xa13>
   1177c:	07f00793          	li	a5,127
   11780:	00000073          	ecall
   11784:	4609                	li	a2,2
   11786:	04a7e563          	bltu	a5,a0,117d0 <_ZN20complex_dynamic_type3app17h11c7ad91b9e57df9E+0xf8>
   1178a:	4505                	li	a0,1
   1178c:	00a98023          	sb	a0,0(s3)
   11790:	00b9a223          	sw	a1,4(s3)
   11794:	470d                	li	a4,3
   11796:	6505                	lui	a0,0x1
   11798:	c3e50513          	addi	a0,a0,-962 # c3e <.Lline_table_start1+0xa13>
   1179c:	4595                	li	a1,5
   1179e:	4601                	li	a2,0
   117a0:	4681                	li	a3,0
   117a2:	00000073          	ecall
   117a6:	00114483          	lbu	s1,1(sp)
   117aa:	4509                	li	a0,2
   117ac:	00a48b63          	beq	s1,a0,117c2 <_ZN20complex_dynamic_type3app17h11c7ad91b9e57df9E+0xea>
   117b0:	6505                	lui	a0,0x1
   117b2:	c3e50513          	addi	a0,a0,-962 # c3e <.Lline_table_start1+0xa13>
   117b6:	45a1                	li	a1,8
   117b8:	4601                	li	a2,0
   117ba:	4681                	li	a3,0
   117bc:	8726                	mv	a4,s1
   117be:	00000073          	ecall
   117c2:	40ba                	lw	ra,140(sp)
   117c4:	442a                	lw	s0,136(sp)
   117c6:	449a                	lw	s1,132(sp)
   117c8:	490a                	lw	s2,128(sp)
   117ca:	59f6                	lw	s3,124(sp)
   117cc:	6149                	addi	sp,sp,144
   117ce:	8082                	ret
   117d0:	00114703          	lbu	a4,1(sp)
   117d4:	00c71463          	bne	a4,a2,117dc <_ZN20complex_dynamic_type3app17h11c7ad91b9e57df9E+0x104>
   117d8:	470d                	li	a4,3
   117da:	a825                	j	11812 <_ZN20complex_dynamic_type3app17h11c7ad91b9e57df9E+0x13a>
   117dc:	6505                	lui	a0,0x1
   117de:	c3e50513          	addi	a0,a0,-962 # c3e <.Lline_table_start1+0xa13>
   117e2:	45a1                	li	a1,8
   117e4:	4601                	li	a2,0
   117e6:	4681                	li	a3,0
   117e8:	00000073          	ecall
   117ec:	01e14703          	lbu	a4,30(sp)
   117f0:	4509                	li	a0,2
   117f2:	00a100a3          	sb	a0,1(sp)
   117f6:	00a71e63          	bne	a4,a0,11812 <_ZN20complex_dynamic_type3app17h11c7ad91b9e57df9E+0x13a>
   117fa:	00198513          	addi	a0,s3,1
   117fe:	05d00613          	li	a2,93
   11802:	85ca                	mv	a1,s2
   11804:	0000c097          	auipc	ra,0xc
   11808:	f72080e7          	jalr	-142(ra) # 1d776 <memcpy>
   1180c:	00098023          	sb	zero,0(s3)
   11810:	bf4d                	j	117c2 <_ZN20complex_dynamic_type3app17h11c7ad91b9e57df9E+0xea>
   11812:	6505                	lui	a0,0x1
   11814:	c3e50513          	addi	a0,a0,-962 # c3e <.Lline_table_start1+0xa13>
   11818:	4595                	li	a1,5
   1181a:	4601                	li	a2,0
   1181c:	4681                	li	a3,0
   1181e:	00000073          	ecall
   11822:	00114483          	lbu	s1,1(sp)
   11826:	00198513          	addi	a0,s3,1
   1182a:	05d00613          	li	a2,93
   1182e:	85ca                	mv	a1,s2
   11830:	0000c097          	auipc	ra,0xc
   11834:	f46080e7          	jalr	-186(ra) # 1d776 <memcpy>
   11838:	4509                	li	a0,2
   1183a:	00098023          	sb	zero,0(s3)
   1183e:	f6a499e3          	bne	s1,a0,117b0 <_ZN20complex_dynamic_type3app17h11c7ad91b9e57df9E+0xd8>
   11842:	b741                	j	117c2 <_ZN20complex_dynamic_type3app17h11c7ad91b9e57df9E+0xea>

00011844 <_ZN20complex_dynamic_type3app17h15ff553adfdb5c51E>:
   11844:	7119                	addi	sp,sp,-128
   11846:	de86                	sw	ra,124(sp)
   11848:	dca2                	sw	s0,120(sp)
   1184a:	daa6                	sw	s1,116(sp)
   1184c:	d8ca                	sw	s2,112(sp)
   1184e:	d6ce                	sw	s3,108(sp)
   11850:	89aa                	mv	s3,a0
   11852:	4409                	li	s0,2
   11854:	008101a3          	sb	s0,3(sp)
   11858:	0044                	addi	s1,sp,4
   1185a:	04400613          	li	a2,68
   1185e:	8526                	mv	a0,s1
   11860:	0000c097          	auipc	ra,0xc
   11864:	f16080e7          	jalr	-234(ra) # 1d776 <memcpy>
   11868:	04910913          	addi	s2,sp,73
   1186c:	02300613          	li	a2,35
   11870:	854a                	mv	a0,s2
   11872:	4581                	li	a1,0
   11874:	0000c097          	auipc	ra,0xc
   11878:	e96080e7          	jalr	-362(ra) # 1d70a <memset>
   1187c:	8626                	mv	a2,s1
   1187e:	04810423          	sb	s0,72(sp)
   11882:	6505                	lui	a0,0x1
   11884:	4491                	li	s1,4
   11886:	4599                	li	a1,6
   11888:	9bf50793          	addi	a5,a0,-1601 # 9bf <.Lline_table_start1+0x794>
   1188c:	04400693          	li	a3,68
   11890:	4711                	li	a4,4
   11892:	853e                	mv	a0,a5
   11894:	00000073          	ecall
   11898:	00851863          	bne	a0,s0,118a8 <_ZN20complex_dynamic_type3app17h15ff553adfdb5c51E+0x64>
   1189c:	4505                	li	a0,1
   1189e:	00a98023          	sb	a0,0(s3)
   118a2:	00b9a223          	sw	a1,4(s3)
   118a6:	a0bd                	j	11914 <_ZN20complex_dynamic_type3app17h15ff553adfdb5c51E+0xd0>
   118a8:	853e                	mv	a0,a5
   118aa:	864a                	mv	a2,s2
   118ac:	009101a3          	sb	s1,3(sp)
   118b0:	478d                	li	a5,3
   118b2:	458d                	li	a1,3
   118b4:	02300693          	li	a3,35
   118b8:	470d                	li	a4,3
   118ba:	00000073          	ecall
   118be:	00851d63          	bne	a0,s0,118d8 <_ZN20complex_dynamic_type3app17h15ff553adfdb5c51E+0x94>
   118c2:	04814703          	lbu	a4,72(sp)
   118c6:	4505                	li	a0,1
   118c8:	4609                	li	a2,2
   118ca:	00a98023          	sb	a0,0(s3)
   118ce:	00b9a223          	sw	a1,4(s3)
   118d2:	02c71963          	bne	a4,a2,11904 <_ZN20complex_dynamic_type3app17h15ff553adfdb5c51E+0xc0>
   118d6:	a83d                	j	11914 <_ZN20complex_dynamic_type3app17h15ff553adfdb5c51E+0xd0>
   118d8:	4681                	li	a3,0
   118da:	04f10423          	sb	a5,72(sp)
   118de:	6505                	lui	a0,0x1
   118e0:	4599                	li	a1,6
   118e2:	460d                	li	a2,3
   118e4:	4709                	li	a4,2
   118e6:	9bf50513          	addi	a0,a0,-1601 # 9bf <.Lline_table_start1+0x794>
   118ea:	07f00793          	li	a5,127
   118ee:	00000073          	ecall
   118f2:	4609                	li	a2,2
   118f4:	04a7e563          	bltu	a5,a0,1193e <_ZN20complex_dynamic_type3app17h15ff553adfdb5c51E+0xfa>
   118f8:	4505                	li	a0,1
   118fa:	00a98023          	sb	a0,0(s3)
   118fe:	00b9a223          	sw	a1,4(s3)
   11902:	470d                	li	a4,3
   11904:	6505                	lui	a0,0x1
   11906:	9bf50513          	addi	a0,a0,-1601 # 9bf <.Lline_table_start1+0x794>
   1190a:	458d                	li	a1,3
   1190c:	4601                	li	a2,0
   1190e:	4681                	li	a3,0
   11910:	00000073          	ecall
   11914:	00314483          	lbu	s1,3(sp)
   11918:	4509                	li	a0,2
   1191a:	00a48b63          	beq	s1,a0,11930 <_ZN20complex_dynamic_type3app17h15ff553adfdb5c51E+0xec>
   1191e:	6505                	lui	a0,0x1
   11920:	9bf50513          	addi	a0,a0,-1601 # 9bf <.Lline_table_start1+0x794>
   11924:	4599                	li	a1,6
   11926:	4601                	li	a2,0
   11928:	4681                	li	a3,0
   1192a:	8726                	mv	a4,s1
   1192c:	00000073          	ecall
   11930:	50f6                	lw	ra,124(sp)
   11932:	5466                	lw	s0,120(sp)
   11934:	54d6                	lw	s1,116(sp)
   11936:	5946                	lw	s2,112(sp)
   11938:	59b6                	lw	s3,108(sp)
   1193a:	6109                	addi	sp,sp,128
   1193c:	8082                	ret
   1193e:	00314703          	lbu	a4,3(sp)
   11942:	00c71463          	bne	a4,a2,1194a <_ZN20complex_dynamic_type3app17h15ff553adfdb5c51E+0x106>
   11946:	470d                	li	a4,3
   11948:	a825                	j	11980 <_ZN20complex_dynamic_type3app17h15ff553adfdb5c51E+0x13c>
   1194a:	6505                	lui	a0,0x1
   1194c:	9bf50513          	addi	a0,a0,-1601 # 9bf <.Lline_table_start1+0x794>
   11950:	4599                	li	a1,6
   11952:	4601                	li	a2,0
   11954:	4681                	li	a3,0
   11956:	00000073          	ecall
   1195a:	04814703          	lbu	a4,72(sp)
   1195e:	4509                	li	a0,2
   11960:	00a101a3          	sb	a0,3(sp)
   11964:	00a71e63          	bne	a4,a0,11980 <_ZN20complex_dynamic_type3app17h15ff553adfdb5c51E+0x13c>
   11968:	00198513          	addi	a0,s3,1
   1196c:	02300613          	li	a2,35
   11970:	85ca                	mv	a1,s2
   11972:	0000c097          	auipc	ra,0xc
   11976:	e04080e7          	jalr	-508(ra) # 1d776 <memcpy>
   1197a:	00098023          	sb	zero,0(s3)
   1197e:	bf4d                	j	11930 <_ZN20complex_dynamic_type3app17h15ff553adfdb5c51E+0xec>
   11980:	6505                	lui	a0,0x1
   11982:	9bf50513          	addi	a0,a0,-1601 # 9bf <.Lline_table_start1+0x794>
   11986:	458d                	li	a1,3
   11988:	4601                	li	a2,0
   1198a:	4681                	li	a3,0
   1198c:	00000073          	ecall
   11990:	00314483          	lbu	s1,3(sp)
   11994:	00198513          	addi	a0,s3,1
   11998:	02300613          	li	a2,35
   1199c:	85ca                	mv	a1,s2
   1199e:	0000c097          	auipc	ra,0xc
   119a2:	dd8080e7          	jalr	-552(ra) # 1d776 <memcpy>
   119a6:	4509                	li	a0,2
   119a8:	00098023          	sb	zero,0(s3)
   119ac:	f6a499e3          	bne	s1,a0,1191e <_ZN20complex_dynamic_type3app17h15ff553adfdb5c51E+0xda>
   119b0:	b741                	j	11930 <_ZN20complex_dynamic_type3app17h15ff553adfdb5c51E+0xec>

000119b2 <_ZN20complex_dynamic_type3app17h17831dd61098807cE>:
   119b2:	7135                	addi	sp,sp,-160
   119b4:	cf06                	sw	ra,156(sp)
   119b6:	cd22                	sw	s0,152(sp)
   119b8:	cb26                	sw	s1,148(sp)
   119ba:	c94a                	sw	s2,144(sp)
   119bc:	c74e                	sw	s3,140(sp)
   119be:	89aa                	mv	s3,a0
   119c0:	4409                	li	s0,2
   119c2:	00810023          	sb	s0,0(sp)
   119c6:	00110493          	addi	s1,sp,1
   119ca:	06300613          	li	a2,99
   119ce:	8526                	mv	a0,s1
   119d0:	0000c097          	auipc	ra,0xc
   119d4:	da6080e7          	jalr	-602(ra) # 1d776 <memcpy>
   119d8:	06510913          	addi	s2,sp,101
   119dc:	02700613          	li	a2,39
   119e0:	854a                	mv	a0,s2
   119e2:	4581                	li	a1,0
   119e4:	0000c097          	auipc	ra,0xc
   119e8:	d26080e7          	jalr	-730(ra) # 1d70a <memset>
   119ec:	8626                	mv	a2,s1
   119ee:	06810223          	sb	s0,100(sp)
   119f2:	6509                	lui	a0,0x2
   119f4:	4491                	li	s1,4
   119f6:	459d                	li	a1,7
   119f8:	e5450793          	addi	a5,a0,-428 # 1e54 <.Lline_table_start1+0x1c29>
   119fc:	06300693          	li	a3,99
   11a00:	4711                	li	a4,4
   11a02:	853e                	mv	a0,a5
   11a04:	00000073          	ecall
   11a08:	00851863          	bne	a0,s0,11a18 <_ZN20complex_dynamic_type3app17h17831dd61098807cE+0x66>
   11a0c:	4505                	li	a0,1
   11a0e:	00a98023          	sb	a0,0(s3)
   11a12:	00b9a223          	sw	a1,4(s3)
   11a16:	a0bd                	j	11a84 <_ZN20complex_dynamic_type3app17h17831dd61098807cE+0xd2>
   11a18:	853e                	mv	a0,a5
   11a1a:	4581                	li	a1,0
   11a1c:	864a                	mv	a2,s2
   11a1e:	00910023          	sb	s1,0(sp)
   11a22:	478d                	li	a5,3
   11a24:	02700693          	li	a3,39
   11a28:	470d                	li	a4,3
   11a2a:	00000073          	ecall
   11a2e:	00851d63          	bne	a0,s0,11a48 <_ZN20complex_dynamic_type3app17h17831dd61098807cE+0x96>
   11a32:	06414703          	lbu	a4,100(sp)
   11a36:	4505                	li	a0,1
   11a38:	4609                	li	a2,2
   11a3a:	00a98023          	sb	a0,0(s3)
   11a3e:	00b9a223          	sw	a1,4(s3)
   11a42:	02c71963          	bne	a4,a2,11a74 <_ZN20complex_dynamic_type3app17h17831dd61098807cE+0xc2>
   11a46:	a83d                	j	11a84 <_ZN20complex_dynamic_type3app17h17831dd61098807cE+0xd2>
   11a48:	4601                	li	a2,0
   11a4a:	4681                	li	a3,0
   11a4c:	06f10223          	sb	a5,100(sp)
   11a50:	6509                	lui	a0,0x2
   11a52:	459d                	li	a1,7
   11a54:	4709                	li	a4,2
   11a56:	e5450513          	addi	a0,a0,-428 # 1e54 <.Lline_table_start1+0x1c29>
   11a5a:	07f00793          	li	a5,127
   11a5e:	00000073          	ecall
   11a62:	4609                	li	a2,2
   11a64:	04a7e563          	bltu	a5,a0,11aae <_ZN20complex_dynamic_type3app17h17831dd61098807cE+0xfc>
   11a68:	4505                	li	a0,1
   11a6a:	00a98023          	sb	a0,0(s3)
   11a6e:	00b9a223          	sw	a1,4(s3)
   11a72:	470d                	li	a4,3
   11a74:	6509                	lui	a0,0x2
   11a76:	e5450513          	addi	a0,a0,-428 # 1e54 <.Lline_table_start1+0x1c29>
   11a7a:	4581                	li	a1,0
   11a7c:	4601                	li	a2,0
   11a7e:	4681                	li	a3,0
   11a80:	00000073          	ecall
   11a84:	00014483          	lbu	s1,0(sp)
   11a88:	4509                	li	a0,2
   11a8a:	00a48b63          	beq	s1,a0,11aa0 <_ZN20complex_dynamic_type3app17h17831dd61098807cE+0xee>
   11a8e:	6509                	lui	a0,0x2
   11a90:	e5450513          	addi	a0,a0,-428 # 1e54 <.Lline_table_start1+0x1c29>
   11a94:	459d                	li	a1,7
   11a96:	4601                	li	a2,0
   11a98:	4681                	li	a3,0
   11a9a:	8726                	mv	a4,s1
   11a9c:	00000073          	ecall
   11aa0:	40fa                	lw	ra,156(sp)
   11aa2:	446a                	lw	s0,152(sp)
   11aa4:	44da                	lw	s1,148(sp)
   11aa6:	494a                	lw	s2,144(sp)
   11aa8:	49ba                	lw	s3,140(sp)
   11aaa:	610d                	addi	sp,sp,160
   11aac:	8082                	ret
   11aae:	00014703          	lbu	a4,0(sp)
   11ab2:	00c71463          	bne	a4,a2,11aba <_ZN20complex_dynamic_type3app17h17831dd61098807cE+0x108>
   11ab6:	470d                	li	a4,3
   11ab8:	a825                	j	11af0 <_ZN20complex_dynamic_type3app17h17831dd61098807cE+0x13e>
   11aba:	6509                	lui	a0,0x2
   11abc:	e5450513          	addi	a0,a0,-428 # 1e54 <.Lline_table_start1+0x1c29>
   11ac0:	459d                	li	a1,7
   11ac2:	4601                	li	a2,0
   11ac4:	4681                	li	a3,0
   11ac6:	00000073          	ecall
   11aca:	06414703          	lbu	a4,100(sp)
   11ace:	4509                	li	a0,2
   11ad0:	00a10023          	sb	a0,0(sp)
   11ad4:	00a71e63          	bne	a4,a0,11af0 <_ZN20complex_dynamic_type3app17h17831dd61098807cE+0x13e>
   11ad8:	00198513          	addi	a0,s3,1
   11adc:	02700613          	li	a2,39
   11ae0:	85ca                	mv	a1,s2
   11ae2:	0000c097          	auipc	ra,0xc
   11ae6:	c94080e7          	jalr	-876(ra) # 1d776 <memcpy>
   11aea:	00098023          	sb	zero,0(s3)
   11aee:	bf4d                	j	11aa0 <_ZN20complex_dynamic_type3app17h17831dd61098807cE+0xee>
   11af0:	6509                	lui	a0,0x2
   11af2:	e5450513          	addi	a0,a0,-428 # 1e54 <.Lline_table_start1+0x1c29>
   11af6:	4581                	li	a1,0
   11af8:	4601                	li	a2,0
   11afa:	4681                	li	a3,0
   11afc:	00000073          	ecall
   11b00:	00014483          	lbu	s1,0(sp)
   11b04:	00198513          	addi	a0,s3,1
   11b08:	02700613          	li	a2,39
   11b0c:	85ca                	mv	a1,s2
   11b0e:	0000c097          	auipc	ra,0xc
   11b12:	c68080e7          	jalr	-920(ra) # 1d776 <memcpy>
   11b16:	4509                	li	a0,2
   11b18:	00098023          	sb	zero,0(s3)
   11b1c:	f6a499e3          	bne	s1,a0,11a8e <_ZN20complex_dynamic_type3app17h17831dd61098807cE+0xdc>
   11b20:	b741                	j	11aa0 <_ZN20complex_dynamic_type3app17h17831dd61098807cE+0xee>

00011b22 <_ZN20complex_dynamic_type3app17h17bcd4b216cc5f81E>:
   11b22:	7131                	addi	sp,sp,-192
   11b24:	df06                	sw	ra,188(sp)
   11b26:	dd22                	sw	s0,184(sp)
   11b28:	db26                	sw	s1,180(sp)
   11b2a:	d94a                	sw	s2,176(sp)
   11b2c:	d74e                	sw	s3,172(sp)
   11b2e:	89aa                	mv	s3,a0
   11b30:	4409                	li	s0,2
   11b32:	00810723          	sb	s0,14(sp)
   11b36:	00f10493          	addi	s1,sp,15
   11b3a:	04600613          	li	a2,70
   11b3e:	8526                	mv	a0,s1
   11b40:	0000c097          	auipc	ra,0xc
   11b44:	c36080e7          	jalr	-970(ra) # 1d776 <memcpy>
   11b48:	05610913          	addi	s2,sp,86
   11b4c:	05600613          	li	a2,86
   11b50:	854a                	mv	a0,s2
   11b52:	4581                	li	a1,0
   11b54:	0000c097          	auipc	ra,0xc
   11b58:	bb6080e7          	jalr	-1098(ra) # 1d70a <memset>
   11b5c:	8626                	mv	a2,s1
   11b5e:	04810aa3          	sb	s0,85(sp)
   11b62:	6509                	lui	a0,0x2
   11b64:	4491                	li	s1,4
   11b66:	459d                	li	a1,7
   11b68:	e5050793          	addi	a5,a0,-432 # 1e50 <.Lline_table_start1+0x1c25>
   11b6c:	04600693          	li	a3,70
   11b70:	4711                	li	a4,4
   11b72:	853e                	mv	a0,a5
   11b74:	00000073          	ecall
   11b78:	00851863          	bne	a0,s0,11b88 <_ZN20complex_dynamic_type3app17h17bcd4b216cc5f81E+0x66>
   11b7c:	4505                	li	a0,1
   11b7e:	00a98023          	sb	a0,0(s3)
   11b82:	00b9a223          	sw	a1,4(s3)
   11b86:	a0bd                	j	11bf4 <_ZN20complex_dynamic_type3app17h17bcd4b216cc5f81E+0xd2>
   11b88:	853e                	mv	a0,a5
   11b8a:	864a                	mv	a2,s2
   11b8c:	00910723          	sb	s1,14(sp)
   11b90:	478d                	li	a5,3
   11b92:	458d                	li	a1,3
   11b94:	05600693          	li	a3,86
   11b98:	470d                	li	a4,3
   11b9a:	00000073          	ecall
   11b9e:	00851d63          	bne	a0,s0,11bb8 <_ZN20complex_dynamic_type3app17h17bcd4b216cc5f81E+0x96>
   11ba2:	05514703          	lbu	a4,85(sp)
   11ba6:	4505                	li	a0,1
   11ba8:	4609                	li	a2,2
   11baa:	00a98023          	sb	a0,0(s3)
   11bae:	00b9a223          	sw	a1,4(s3)
   11bb2:	02c71963          	bne	a4,a2,11be4 <_ZN20complex_dynamic_type3app17h17bcd4b216cc5f81E+0xc2>
   11bb6:	a83d                	j	11bf4 <_ZN20complex_dynamic_type3app17h17bcd4b216cc5f81E+0xd2>
   11bb8:	4681                	li	a3,0
   11bba:	04f10aa3          	sb	a5,85(sp)
   11bbe:	6509                	lui	a0,0x2
   11bc0:	459d                	li	a1,7
   11bc2:	460d                	li	a2,3
   11bc4:	4709                	li	a4,2
   11bc6:	e5050513          	addi	a0,a0,-432 # 1e50 <.Lline_table_start1+0x1c25>
   11bca:	07f00793          	li	a5,127
   11bce:	00000073          	ecall
   11bd2:	4609                	li	a2,2
   11bd4:	04a7e563          	bltu	a5,a0,11c1e <_ZN20complex_dynamic_type3app17h17bcd4b216cc5f81E+0xfc>
   11bd8:	4505                	li	a0,1
   11bda:	00a98023          	sb	a0,0(s3)
   11bde:	00b9a223          	sw	a1,4(s3)
   11be2:	470d                	li	a4,3
   11be4:	6509                	lui	a0,0x2
   11be6:	e5050513          	addi	a0,a0,-432 # 1e50 <.Lline_table_start1+0x1c25>
   11bea:	458d                	li	a1,3
   11bec:	4601                	li	a2,0
   11bee:	4681                	li	a3,0
   11bf0:	00000073          	ecall
   11bf4:	00e14483          	lbu	s1,14(sp)
   11bf8:	4509                	li	a0,2
   11bfa:	00a48b63          	beq	s1,a0,11c10 <_ZN20complex_dynamic_type3app17h17bcd4b216cc5f81E+0xee>
   11bfe:	6509                	lui	a0,0x2
   11c00:	e5050513          	addi	a0,a0,-432 # 1e50 <.Lline_table_start1+0x1c25>
   11c04:	459d                	li	a1,7
   11c06:	4601                	li	a2,0
   11c08:	4681                	li	a3,0
   11c0a:	8726                	mv	a4,s1
   11c0c:	00000073          	ecall
   11c10:	50fa                	lw	ra,188(sp)
   11c12:	546a                	lw	s0,184(sp)
   11c14:	54da                	lw	s1,180(sp)
   11c16:	594a                	lw	s2,176(sp)
   11c18:	59ba                	lw	s3,172(sp)
   11c1a:	6129                	addi	sp,sp,192
   11c1c:	8082                	ret
   11c1e:	00e14703          	lbu	a4,14(sp)
   11c22:	00c71463          	bne	a4,a2,11c2a <_ZN20complex_dynamic_type3app17h17bcd4b216cc5f81E+0x108>
   11c26:	470d                	li	a4,3
   11c28:	a825                	j	11c60 <_ZN20complex_dynamic_type3app17h17bcd4b216cc5f81E+0x13e>
   11c2a:	6509                	lui	a0,0x2
   11c2c:	e5050513          	addi	a0,a0,-432 # 1e50 <.Lline_table_start1+0x1c25>
   11c30:	459d                	li	a1,7
   11c32:	4601                	li	a2,0
   11c34:	4681                	li	a3,0
   11c36:	00000073          	ecall
   11c3a:	05514703          	lbu	a4,85(sp)
   11c3e:	4509                	li	a0,2
   11c40:	00a10723          	sb	a0,14(sp)
   11c44:	00a71e63          	bne	a4,a0,11c60 <_ZN20complex_dynamic_type3app17h17bcd4b216cc5f81E+0x13e>
   11c48:	00198513          	addi	a0,s3,1
   11c4c:	05600613          	li	a2,86
   11c50:	85ca                	mv	a1,s2
   11c52:	0000c097          	auipc	ra,0xc
   11c56:	b24080e7          	jalr	-1244(ra) # 1d776 <memcpy>
   11c5a:	00098023          	sb	zero,0(s3)
   11c5e:	bf4d                	j	11c10 <_ZN20complex_dynamic_type3app17h17bcd4b216cc5f81E+0xee>
   11c60:	6509                	lui	a0,0x2
   11c62:	e5050513          	addi	a0,a0,-432 # 1e50 <.Lline_table_start1+0x1c25>
   11c66:	458d                	li	a1,3
   11c68:	4601                	li	a2,0
   11c6a:	4681                	li	a3,0
   11c6c:	00000073          	ecall
   11c70:	00e14483          	lbu	s1,14(sp)
   11c74:	00198513          	addi	a0,s3,1
   11c78:	05600613          	li	a2,86
   11c7c:	85ca                	mv	a1,s2
   11c7e:	0000c097          	auipc	ra,0xc
   11c82:	af8080e7          	jalr	-1288(ra) # 1d776 <memcpy>
   11c86:	4509                	li	a0,2
   11c88:	00098023          	sb	zero,0(s3)
   11c8c:	f6a499e3          	bne	s1,a0,11bfe <_ZN20complex_dynamic_type3app17h17bcd4b216cc5f81E+0xdc>
   11c90:	b741                	j	11c10 <_ZN20complex_dynamic_type3app17h17bcd4b216cc5f81E+0xee>

00011c92 <_ZN20complex_dynamic_type3app17h180787584b2c410fE>:
   11c92:	715d                	addi	sp,sp,-80
   11c94:	c686                	sw	ra,76(sp)
   11c96:	c4a2                	sw	s0,72(sp)
   11c98:	c2a6                	sw	s1,68(sp)
   11c9a:	c0ca                	sw	s2,64(sp)
   11c9c:	de4e                	sw	s3,60(sp)
   11c9e:	89aa                	mv	s3,a0
   11ca0:	4409                	li	s0,2
   11ca2:	00810623          	sb	s0,12(sp)
   11ca6:	00d10493          	addi	s1,sp,13
   11caa:	4635                	li	a2,13
   11cac:	8526                	mv	a0,s1
   11cae:	0000c097          	auipc	ra,0xc
   11cb2:	ac8080e7          	jalr	-1336(ra) # 1d776 <memcpy>
   11cb6:	01b10913          	addi	s2,sp,27
   11cba:	02100613          	li	a2,33
   11cbe:	854a                	mv	a0,s2
   11cc0:	4581                	li	a1,0
   11cc2:	0000c097          	auipc	ra,0xc
   11cc6:	a48080e7          	jalr	-1464(ra) # 1d70a <memset>
   11cca:	4581                	li	a1,0
   11ccc:	8626                	mv	a2,s1
   11cce:	00810d23          	sb	s0,26(sp)
   11cd2:	6505                	lui	a0,0x1
   11cd4:	4491                	li	s1,4
   11cd6:	6b050793          	addi	a5,a0,1712 # 16b0 <.Lline_table_start1+0x1485>
   11cda:	46b5                	li	a3,13
   11cdc:	4711                	li	a4,4
   11cde:	853e                	mv	a0,a5
   11ce0:	00000073          	ecall
   11ce4:	00851863          	bne	a0,s0,11cf4 <_ZN20complex_dynamic_type3app17h180787584b2c410fE+0x62>
   11ce8:	4505                	li	a0,1
   11cea:	00a98023          	sb	a0,0(s3)
   11cee:	00b9a223          	sw	a1,4(s3)
   11cf2:	a0bd                	j	11d60 <_ZN20complex_dynamic_type3app17h180787584b2c410fE+0xce>
   11cf4:	853e                	mv	a0,a5
   11cf6:	4581                	li	a1,0
   11cf8:	864a                	mv	a2,s2
   11cfa:	00910623          	sb	s1,12(sp)
   11cfe:	478d                	li	a5,3
   11d00:	02100693          	li	a3,33
   11d04:	470d                	li	a4,3
   11d06:	00000073          	ecall
   11d0a:	00851d63          	bne	a0,s0,11d24 <_ZN20complex_dynamic_type3app17h180787584b2c410fE+0x92>
   11d0e:	01a14703          	lbu	a4,26(sp)
   11d12:	4505                	li	a0,1
   11d14:	4609                	li	a2,2
   11d16:	00a98023          	sb	a0,0(s3)
   11d1a:	00b9a223          	sw	a1,4(s3)
   11d1e:	02c71963          	bne	a4,a2,11d50 <_ZN20complex_dynamic_type3app17h180787584b2c410fE+0xbe>
   11d22:	a83d                	j	11d60 <_ZN20complex_dynamic_type3app17h180787584b2c410fE+0xce>
   11d24:	4581                	li	a1,0
   11d26:	4601                	li	a2,0
   11d28:	4681                	li	a3,0
   11d2a:	00f10d23          	sb	a5,26(sp)
   11d2e:	6505                	lui	a0,0x1
   11d30:	4709                	li	a4,2
   11d32:	6b050513          	addi	a0,a0,1712 # 16b0 <.Lline_table_start1+0x1485>
   11d36:	07f00793          	li	a5,127
   11d3a:	00000073          	ecall
   11d3e:	4609                	li	a2,2
   11d40:	04a7e563          	bltu	a5,a0,11d8a <_ZN20complex_dynamic_type3app17h180787584b2c410fE+0xf8>
   11d44:	4505                	li	a0,1
   11d46:	00a98023          	sb	a0,0(s3)
   11d4a:	00b9a223          	sw	a1,4(s3)
   11d4e:	470d                	li	a4,3
   11d50:	6505                	lui	a0,0x1
   11d52:	6b050513          	addi	a0,a0,1712 # 16b0 <.Lline_table_start1+0x1485>
   11d56:	4581                	li	a1,0
   11d58:	4601                	li	a2,0
   11d5a:	4681                	li	a3,0
   11d5c:	00000073          	ecall
   11d60:	00c14483          	lbu	s1,12(sp)
   11d64:	4509                	li	a0,2
   11d66:	00a48b63          	beq	s1,a0,11d7c <_ZN20complex_dynamic_type3app17h180787584b2c410fE+0xea>
   11d6a:	6505                	lui	a0,0x1
   11d6c:	6b050513          	addi	a0,a0,1712 # 16b0 <.Lline_table_start1+0x1485>
   11d70:	4581                	li	a1,0
   11d72:	4601                	li	a2,0
   11d74:	4681                	li	a3,0
   11d76:	8726                	mv	a4,s1
   11d78:	00000073          	ecall
   11d7c:	40b6                	lw	ra,76(sp)
   11d7e:	4426                	lw	s0,72(sp)
   11d80:	4496                	lw	s1,68(sp)
   11d82:	4906                	lw	s2,64(sp)
   11d84:	59f2                	lw	s3,60(sp)
   11d86:	6161                	addi	sp,sp,80
   11d88:	8082                	ret
   11d8a:	00c14703          	lbu	a4,12(sp)
   11d8e:	00c71463          	bne	a4,a2,11d96 <_ZN20complex_dynamic_type3app17h180787584b2c410fE+0x104>
   11d92:	470d                	li	a4,3
   11d94:	a825                	j	11dcc <_ZN20complex_dynamic_type3app17h180787584b2c410fE+0x13a>
   11d96:	6505                	lui	a0,0x1
   11d98:	6b050513          	addi	a0,a0,1712 # 16b0 <.Lline_table_start1+0x1485>
   11d9c:	4581                	li	a1,0
   11d9e:	4601                	li	a2,0
   11da0:	4681                	li	a3,0
   11da2:	00000073          	ecall
   11da6:	01a14703          	lbu	a4,26(sp)
   11daa:	4509                	li	a0,2
   11dac:	00a10623          	sb	a0,12(sp)
   11db0:	00a71e63          	bne	a4,a0,11dcc <_ZN20complex_dynamic_type3app17h180787584b2c410fE+0x13a>
   11db4:	00198513          	addi	a0,s3,1
   11db8:	02100613          	li	a2,33
   11dbc:	85ca                	mv	a1,s2
   11dbe:	0000c097          	auipc	ra,0xc
   11dc2:	9b8080e7          	jalr	-1608(ra) # 1d776 <memcpy>
   11dc6:	00098023          	sb	zero,0(s3)
   11dca:	bf4d                	j	11d7c <_ZN20complex_dynamic_type3app17h180787584b2c410fE+0xea>
   11dcc:	6505                	lui	a0,0x1
   11dce:	6b050513          	addi	a0,a0,1712 # 16b0 <.Lline_table_start1+0x1485>
   11dd2:	4581                	li	a1,0
   11dd4:	4601                	li	a2,0
   11dd6:	4681                	li	a3,0
   11dd8:	00000073          	ecall
   11ddc:	00c14483          	lbu	s1,12(sp)
   11de0:	00198513          	addi	a0,s3,1
   11de4:	02100613          	li	a2,33
   11de8:	85ca                	mv	a1,s2
   11dea:	0000c097          	auipc	ra,0xc
   11dee:	98c080e7          	jalr	-1652(ra) # 1d776 <memcpy>
   11df2:	4509                	li	a0,2
   11df4:	00098023          	sb	zero,0(s3)
   11df8:	f6a499e3          	bne	s1,a0,11d6a <_ZN20complex_dynamic_type3app17h180787584b2c410fE+0xd8>
   11dfc:	b741                	j	11d7c <_ZN20complex_dynamic_type3app17h180787584b2c410fE+0xea>

00011dfe <_ZN20complex_dynamic_type3app17h1ad7dd89196e40efE>:
   11dfe:	711d                	addi	sp,sp,-96
   11e00:	ce86                	sw	ra,92(sp)
   11e02:	cca2                	sw	s0,88(sp)
   11e04:	caa6                	sw	s1,84(sp)
   11e06:	c8ca                	sw	s2,80(sp)
   11e08:	c6ce                	sw	s3,76(sp)
   11e0a:	89aa                	mv	s3,a0
   11e0c:	4409                	li	s0,2
   11e0e:	00810423          	sb	s0,8(sp)
   11e12:	00910493          	addi	s1,sp,9
   11e16:	03200613          	li	a2,50
   11e1a:	8526                	mv	a0,s1
   11e1c:	0000c097          	auipc	ra,0xc
   11e20:	95a080e7          	jalr	-1702(ra) # 1d776 <memcpy>
   11e24:	03c10913          	addi	s2,sp,60
   11e28:	4641                	li	a2,16
   11e2a:	854a                	mv	a0,s2
   11e2c:	4581                	li	a1,0
   11e2e:	0000c097          	auipc	ra,0xc
   11e32:	8dc080e7          	jalr	-1828(ra) # 1d70a <memset>
   11e36:	8626                	mv	a2,s1
   11e38:	02810da3          	sb	s0,59(sp)
   11e3c:	6509                	lui	a0,0x2
   11e3e:	4491                	li	s1,4
   11e40:	4591                	li	a1,4
   11e42:	9d650793          	addi	a5,a0,-1578 # 19d6 <.Lline_table_start1+0x17ab>
   11e46:	03200693          	li	a3,50
   11e4a:	4711                	li	a4,4
   11e4c:	853e                	mv	a0,a5
   11e4e:	00000073          	ecall
   11e52:	00851863          	bne	a0,s0,11e62 <_ZN20complex_dynamic_type3app17h1ad7dd89196e40efE+0x64>
   11e56:	4505                	li	a0,1
   11e58:	00a98023          	sb	a0,0(s3)
   11e5c:	00b9a223          	sw	a1,4(s3)
   11e60:	a0b5                	j	11ecc <_ZN20complex_dynamic_type3app17h1ad7dd89196e40efE+0xce>
   11e62:	853e                	mv	a0,a5
   11e64:	864a                	mv	a2,s2
   11e66:	00910423          	sb	s1,8(sp)
   11e6a:	478d                	li	a5,3
   11e6c:	45a5                	li	a1,9
   11e6e:	46c1                	li	a3,16
   11e70:	470d                	li	a4,3
   11e72:	00000073          	ecall
   11e76:	00851d63          	bne	a0,s0,11e90 <_ZN20complex_dynamic_type3app17h1ad7dd89196e40efE+0x92>
   11e7a:	03b14703          	lbu	a4,59(sp)
   11e7e:	4505                	li	a0,1
   11e80:	4609                	li	a2,2
   11e82:	00a98023          	sb	a0,0(s3)
   11e86:	00b9a223          	sw	a1,4(s3)
   11e8a:	02c71963          	bne	a4,a2,11ebc <_ZN20complex_dynamic_type3app17h1ad7dd89196e40efE+0xbe>
   11e8e:	a83d                	j	11ecc <_ZN20complex_dynamic_type3app17h1ad7dd89196e40efE+0xce>
   11e90:	4681                	li	a3,0
   11e92:	02f10da3          	sb	a5,59(sp)
   11e96:	6509                	lui	a0,0x2
   11e98:	4591                	li	a1,4
   11e9a:	4625                	li	a2,9
   11e9c:	4709                	li	a4,2
   11e9e:	9d650513          	addi	a0,a0,-1578 # 19d6 <.Lline_table_start1+0x17ab>
   11ea2:	07f00793          	li	a5,127
   11ea6:	00000073          	ecall
   11eaa:	4609                	li	a2,2
   11eac:	04a7e563          	bltu	a5,a0,11ef6 <_ZN20complex_dynamic_type3app17h1ad7dd89196e40efE+0xf8>
   11eb0:	4505                	li	a0,1
   11eb2:	00a98023          	sb	a0,0(s3)
   11eb6:	00b9a223          	sw	a1,4(s3)
   11eba:	470d                	li	a4,3
   11ebc:	6509                	lui	a0,0x2
   11ebe:	9d650513          	addi	a0,a0,-1578 # 19d6 <.Lline_table_start1+0x17ab>
   11ec2:	45a5                	li	a1,9
   11ec4:	4601                	li	a2,0
   11ec6:	4681                	li	a3,0
   11ec8:	00000073          	ecall
   11ecc:	00814483          	lbu	s1,8(sp)
   11ed0:	4509                	li	a0,2
   11ed2:	00a48b63          	beq	s1,a0,11ee8 <_ZN20complex_dynamic_type3app17h1ad7dd89196e40efE+0xea>
   11ed6:	6509                	lui	a0,0x2
   11ed8:	9d650513          	addi	a0,a0,-1578 # 19d6 <.Lline_table_start1+0x17ab>
   11edc:	4591                	li	a1,4
   11ede:	4601                	li	a2,0
   11ee0:	4681                	li	a3,0
   11ee2:	8726                	mv	a4,s1
   11ee4:	00000073          	ecall
   11ee8:	40f6                	lw	ra,92(sp)
   11eea:	4466                	lw	s0,88(sp)
   11eec:	44d6                	lw	s1,84(sp)
   11eee:	4946                	lw	s2,80(sp)
   11ef0:	49b6                	lw	s3,76(sp)
   11ef2:	6125                	addi	sp,sp,96
   11ef4:	8082                	ret
   11ef6:	00814703          	lbu	a4,8(sp)
   11efa:	00c71463          	bne	a4,a2,11f02 <_ZN20complex_dynamic_type3app17h1ad7dd89196e40efE+0x104>
   11efe:	470d                	li	a4,3
   11f00:	a81d                	j	11f36 <_ZN20complex_dynamic_type3app17h1ad7dd89196e40efE+0x138>
   11f02:	6509                	lui	a0,0x2
   11f04:	9d650513          	addi	a0,a0,-1578 # 19d6 <.Lline_table_start1+0x17ab>
   11f08:	4591                	li	a1,4
   11f0a:	4601                	li	a2,0
   11f0c:	4681                	li	a3,0
   11f0e:	00000073          	ecall
   11f12:	03b14703          	lbu	a4,59(sp)
   11f16:	4509                	li	a0,2
   11f18:	00a10423          	sb	a0,8(sp)
   11f1c:	00a71d63          	bne	a4,a0,11f36 <_ZN20complex_dynamic_type3app17h1ad7dd89196e40efE+0x138>
   11f20:	00198513          	addi	a0,s3,1
   11f24:	4641                	li	a2,16
   11f26:	85ca                	mv	a1,s2
   11f28:	0000c097          	auipc	ra,0xc
   11f2c:	84e080e7          	jalr	-1970(ra) # 1d776 <memcpy>
   11f30:	00098023          	sb	zero,0(s3)
   11f34:	bf55                	j	11ee8 <_ZN20complex_dynamic_type3app17h1ad7dd89196e40efE+0xea>
   11f36:	6509                	lui	a0,0x2
   11f38:	9d650513          	addi	a0,a0,-1578 # 19d6 <.Lline_table_start1+0x17ab>
   11f3c:	45a5                	li	a1,9
   11f3e:	4601                	li	a2,0
   11f40:	4681                	li	a3,0
   11f42:	00000073          	ecall
   11f46:	00814483          	lbu	s1,8(sp)
   11f4a:	00198513          	addi	a0,s3,1
   11f4e:	4641                	li	a2,16
   11f50:	85ca                	mv	a1,s2
   11f52:	0000c097          	auipc	ra,0xc
   11f56:	824080e7          	jalr	-2012(ra) # 1d776 <memcpy>
   11f5a:	4509                	li	a0,2
   11f5c:	00098023          	sb	zero,0(s3)
   11f60:	f6a49be3          	bne	s1,a0,11ed6 <_ZN20complex_dynamic_type3app17h1ad7dd89196e40efE+0xd8>
   11f64:	b751                	j	11ee8 <_ZN20complex_dynamic_type3app17h1ad7dd89196e40efE+0xea>

00011f66 <_ZN20complex_dynamic_type3app17h226beaebc5764b06E>:
   11f66:	7171                	addi	sp,sp,-176
   11f68:	d706                	sw	ra,172(sp)
   11f6a:	d522                	sw	s0,168(sp)
   11f6c:	d326                	sw	s1,164(sp)
   11f6e:	d14a                	sw	s2,160(sp)
   11f70:	cf4e                	sw	s3,156(sp)
   11f72:	89aa                	mv	s3,a0
   11f74:	4409                	li	s0,2
   11f76:	008106a3          	sb	s0,13(sp)
   11f7a:	00e10493          	addi	s1,sp,14
   11f7e:	05300613          	li	a2,83
   11f82:	8526                	mv	a0,s1
   11f84:	0000b097          	auipc	ra,0xb
   11f88:	7f2080e7          	jalr	2034(ra) # 1d776 <memcpy>
   11f8c:	06210913          	addi	s2,sp,98
   11f90:	03a00613          	li	a2,58
   11f94:	854a                	mv	a0,s2
   11f96:	4581                	li	a1,0
   11f98:	0000b097          	auipc	ra,0xb
   11f9c:	772080e7          	jalr	1906(ra) # 1d70a <memset>
   11fa0:	8626                	mv	a2,s1
   11fa2:	068100a3          	sb	s0,97(sp)
   11fa6:	6509                	lui	a0,0x2
   11fa8:	4491                	li	s1,4
   11faa:	4599                	li	a1,6
   11fac:	64550793          	addi	a5,a0,1605 # 2645 <.Lline_table_start1+0x241a>
   11fb0:	05300693          	li	a3,83
   11fb4:	4711                	li	a4,4
   11fb6:	853e                	mv	a0,a5
   11fb8:	00000073          	ecall
   11fbc:	00851863          	bne	a0,s0,11fcc <_ZN20complex_dynamic_type3app17h226beaebc5764b06E+0x66>
   11fc0:	4505                	li	a0,1
   11fc2:	00a98023          	sb	a0,0(s3)
   11fc6:	00b9a223          	sw	a1,4(s3)
   11fca:	a0bd                	j	12038 <_ZN20complex_dynamic_type3app17h226beaebc5764b06E+0xd2>
   11fcc:	853e                	mv	a0,a5
   11fce:	864a                	mv	a2,s2
   11fd0:	009106a3          	sb	s1,13(sp)
   11fd4:	478d                	li	a5,3
   11fd6:	459d                	li	a1,7
   11fd8:	03a00693          	li	a3,58
   11fdc:	470d                	li	a4,3
   11fde:	00000073          	ecall
   11fe2:	00851d63          	bne	a0,s0,11ffc <_ZN20complex_dynamic_type3app17h226beaebc5764b06E+0x96>
   11fe6:	06114703          	lbu	a4,97(sp)
   11fea:	4505                	li	a0,1
   11fec:	4609                	li	a2,2
   11fee:	00a98023          	sb	a0,0(s3)
   11ff2:	00b9a223          	sw	a1,4(s3)
   11ff6:	02c71963          	bne	a4,a2,12028 <_ZN20complex_dynamic_type3app17h226beaebc5764b06E+0xc2>
   11ffa:	a83d                	j	12038 <_ZN20complex_dynamic_type3app17h226beaebc5764b06E+0xd2>
   11ffc:	4681                	li	a3,0
   11ffe:	06f100a3          	sb	a5,97(sp)
   12002:	6509                	lui	a0,0x2
   12004:	4599                	li	a1,6
   12006:	461d                	li	a2,7
   12008:	4709                	li	a4,2
   1200a:	64550513          	addi	a0,a0,1605 # 2645 <.Lline_table_start1+0x241a>
   1200e:	07f00793          	li	a5,127
   12012:	00000073          	ecall
   12016:	4609                	li	a2,2
   12018:	04a7e563          	bltu	a5,a0,12062 <_ZN20complex_dynamic_type3app17h226beaebc5764b06E+0xfc>
   1201c:	4505                	li	a0,1
   1201e:	00a98023          	sb	a0,0(s3)
   12022:	00b9a223          	sw	a1,4(s3)
   12026:	470d                	li	a4,3
   12028:	6509                	lui	a0,0x2
   1202a:	64550513          	addi	a0,a0,1605 # 2645 <.Lline_table_start1+0x241a>
   1202e:	459d                	li	a1,7
   12030:	4601                	li	a2,0
   12032:	4681                	li	a3,0
   12034:	00000073          	ecall
   12038:	00d14483          	lbu	s1,13(sp)
   1203c:	4509                	li	a0,2
   1203e:	00a48b63          	beq	s1,a0,12054 <_ZN20complex_dynamic_type3app17h226beaebc5764b06E+0xee>
   12042:	6509                	lui	a0,0x2
   12044:	64550513          	addi	a0,a0,1605 # 2645 <.Lline_table_start1+0x241a>
   12048:	4599                	li	a1,6
   1204a:	4601                	li	a2,0
   1204c:	4681                	li	a3,0
   1204e:	8726                	mv	a4,s1
   12050:	00000073          	ecall
   12054:	50ba                	lw	ra,172(sp)
   12056:	542a                	lw	s0,168(sp)
   12058:	549a                	lw	s1,164(sp)
   1205a:	590a                	lw	s2,160(sp)
   1205c:	49fa                	lw	s3,156(sp)
   1205e:	614d                	addi	sp,sp,176
   12060:	8082                	ret
   12062:	00d14703          	lbu	a4,13(sp)
   12066:	00c71463          	bne	a4,a2,1206e <_ZN20complex_dynamic_type3app17h226beaebc5764b06E+0x108>
   1206a:	470d                	li	a4,3
   1206c:	a825                	j	120a4 <_ZN20complex_dynamic_type3app17h226beaebc5764b06E+0x13e>
   1206e:	6509                	lui	a0,0x2
   12070:	64550513          	addi	a0,a0,1605 # 2645 <.Lline_table_start1+0x241a>
   12074:	4599                	li	a1,6
   12076:	4601                	li	a2,0
   12078:	4681                	li	a3,0
   1207a:	00000073          	ecall
   1207e:	06114703          	lbu	a4,97(sp)
   12082:	4509                	li	a0,2
   12084:	00a106a3          	sb	a0,13(sp)
   12088:	00a71e63          	bne	a4,a0,120a4 <_ZN20complex_dynamic_type3app17h226beaebc5764b06E+0x13e>
   1208c:	00198513          	addi	a0,s3,1
   12090:	03a00613          	li	a2,58
   12094:	85ca                	mv	a1,s2
   12096:	0000b097          	auipc	ra,0xb
   1209a:	6e0080e7          	jalr	1760(ra) # 1d776 <memcpy>
   1209e:	00098023          	sb	zero,0(s3)
   120a2:	bf4d                	j	12054 <_ZN20complex_dynamic_type3app17h226beaebc5764b06E+0xee>
   120a4:	6509                	lui	a0,0x2
   120a6:	64550513          	addi	a0,a0,1605 # 2645 <.Lline_table_start1+0x241a>
   120aa:	459d                	li	a1,7
   120ac:	4601                	li	a2,0
   120ae:	4681                	li	a3,0
   120b0:	00000073          	ecall
   120b4:	00d14483          	lbu	s1,13(sp)
   120b8:	00198513          	addi	a0,s3,1
   120bc:	03a00613          	li	a2,58
   120c0:	85ca                	mv	a1,s2
   120c2:	0000b097          	auipc	ra,0xb
   120c6:	6b4080e7          	jalr	1716(ra) # 1d776 <memcpy>
   120ca:	4509                	li	a0,2
   120cc:	00098023          	sb	zero,0(s3)
   120d0:	f6a499e3          	bne	s1,a0,12042 <_ZN20complex_dynamic_type3app17h226beaebc5764b06E+0xdc>
   120d4:	b741                	j	12054 <_ZN20complex_dynamic_type3app17h226beaebc5764b06E+0xee>

000120d6 <_ZN20complex_dynamic_type3app17h2b2087206ad6f723E>:
   120d6:	7135                	addi	sp,sp,-160
   120d8:	cf06                	sw	ra,156(sp)
   120da:	cd22                	sw	s0,152(sp)
   120dc:	cb26                	sw	s1,148(sp)
   120de:	c94a                	sw	s2,144(sp)
   120e0:	c74e                	sw	s3,140(sp)
   120e2:	89aa                	mv	s3,a0
   120e4:	4409                	li	s0,2
   120e6:	008105a3          	sb	s0,11(sp)
   120ea:	0064                	addi	s1,sp,12
   120ec:	06100613          	li	a2,97
   120f0:	8526                	mv	a0,s1
   120f2:	0000b097          	auipc	ra,0xb
   120f6:	684080e7          	jalr	1668(ra) # 1d776 <memcpy>
   120fa:	06e10913          	addi	s2,sp,110
   120fe:	4679                	li	a2,30
   12100:	854a                	mv	a0,s2
   12102:	4581                	li	a1,0
   12104:	0000b097          	auipc	ra,0xb
   12108:	606080e7          	jalr	1542(ra) # 1d70a <memset>
   1210c:	8626                	mv	a2,s1
   1210e:	068106a3          	sb	s0,109(sp)
   12112:	4791                	li	a5,4
   12114:	18800513          	li	a0,392
   12118:	4591                	li	a1,4
   1211a:	06100693          	li	a3,97
   1211e:	4711                	li	a4,4
   12120:	00000073          	ecall
   12124:	00851863          	bne	a0,s0,12134 <_ZN20complex_dynamic_type3app17h2b2087206ad6f723E+0x5e>
   12128:	4505                	li	a0,1
   1212a:	00a98023          	sb	a0,0(s3)
   1212e:	00b9a223          	sw	a1,4(s3)
   12132:	a0ad                	j	1219c <_ZN20complex_dynamic_type3app17h2b2087206ad6f723E+0xc6>
   12134:	864a                	mv	a2,s2
   12136:	00f105a3          	sb	a5,11(sp)
   1213a:	478d                	li	a5,3
   1213c:	18800513          	li	a0,392
   12140:	4599                	li	a1,6
   12142:	46f9                	li	a3,30
   12144:	470d                	li	a4,3
   12146:	00000073          	ecall
   1214a:	00851d63          	bne	a0,s0,12164 <_ZN20complex_dynamic_type3app17h2b2087206ad6f723E+0x8e>
   1214e:	06d14703          	lbu	a4,109(sp)
   12152:	4505                	li	a0,1
   12154:	4609                	li	a2,2
   12156:	00a98023          	sb	a0,0(s3)
   1215a:	00b9a223          	sw	a1,4(s3)
   1215e:	02c71863          	bne	a4,a2,1218e <_ZN20complex_dynamic_type3app17h2b2087206ad6f723E+0xb8>
   12162:	a82d                	j	1219c <_ZN20complex_dynamic_type3app17h2b2087206ad6f723E+0xc6>
   12164:	4681                	li	a3,0
   12166:	06f106a3          	sb	a5,109(sp)
   1216a:	18800513          	li	a0,392
   1216e:	4591                	li	a1,4
   12170:	4619                	li	a2,6
   12172:	4709                	li	a4,2
   12174:	07f00793          	li	a5,127
   12178:	00000073          	ecall
   1217c:	4609                	li	a2,2
   1217e:	04a7e363          	bltu	a5,a0,121c4 <_ZN20complex_dynamic_type3app17h2b2087206ad6f723E+0xee>
   12182:	4505                	li	a0,1
   12184:	00a98023          	sb	a0,0(s3)
   12188:	00b9a223          	sw	a1,4(s3)
   1218c:	470d                	li	a4,3
   1218e:	18800513          	li	a0,392
   12192:	4599                	li	a1,6
   12194:	4601                	li	a2,0
   12196:	4681                	li	a3,0
   12198:	00000073          	ecall
   1219c:	00b14483          	lbu	s1,11(sp)
   121a0:	4509                	li	a0,2
   121a2:	00a48a63          	beq	s1,a0,121b6 <_ZN20complex_dynamic_type3app17h2b2087206ad6f723E+0xe0>
   121a6:	18800513          	li	a0,392
   121aa:	4591                	li	a1,4
   121ac:	4601                	li	a2,0
   121ae:	4681                	li	a3,0
   121b0:	8726                	mv	a4,s1
   121b2:	00000073          	ecall
   121b6:	40fa                	lw	ra,156(sp)
   121b8:	446a                	lw	s0,152(sp)
   121ba:	44da                	lw	s1,148(sp)
   121bc:	494a                	lw	s2,144(sp)
   121be:	49ba                	lw	s3,140(sp)
   121c0:	610d                	addi	sp,sp,160
   121c2:	8082                	ret
   121c4:	00b14703          	lbu	a4,11(sp)
   121c8:	00c71463          	bne	a4,a2,121d0 <_ZN20complex_dynamic_type3app17h2b2087206ad6f723E+0xfa>
   121cc:	470d                	li	a4,3
   121ce:	a815                	j	12202 <_ZN20complex_dynamic_type3app17h2b2087206ad6f723E+0x12c>
   121d0:	18800513          	li	a0,392
   121d4:	4591                	li	a1,4
   121d6:	4601                	li	a2,0
   121d8:	4681                	li	a3,0
   121da:	00000073          	ecall
   121de:	06d14703          	lbu	a4,109(sp)
   121e2:	4509                	li	a0,2
   121e4:	00a105a3          	sb	a0,11(sp)
   121e8:	00a71d63          	bne	a4,a0,12202 <_ZN20complex_dynamic_type3app17h2b2087206ad6f723E+0x12c>
   121ec:	00198513          	addi	a0,s3,1
   121f0:	4679                	li	a2,30
   121f2:	85ca                	mv	a1,s2
   121f4:	0000b097          	auipc	ra,0xb
   121f8:	582080e7          	jalr	1410(ra) # 1d776 <memcpy>
   121fc:	00098023          	sb	zero,0(s3)
   12200:	bf5d                	j	121b6 <_ZN20complex_dynamic_type3app17h2b2087206ad6f723E+0xe0>
   12202:	18800513          	li	a0,392
   12206:	4599                	li	a1,6
   12208:	4601                	li	a2,0
   1220a:	4681                	li	a3,0
   1220c:	00000073          	ecall
   12210:	00b14483          	lbu	s1,11(sp)
   12214:	00198513          	addi	a0,s3,1
   12218:	4679                	li	a2,30
   1221a:	85ca                	mv	a1,s2
   1221c:	0000b097          	auipc	ra,0xb
   12220:	55a080e7          	jalr	1370(ra) # 1d776 <memcpy>
   12224:	4509                	li	a0,2
   12226:	00098023          	sb	zero,0(s3)
   1222a:	f6a49ee3          	bne	s1,a0,121a6 <_ZN20complex_dynamic_type3app17h2b2087206ad6f723E+0xd0>
   1222e:	b761                	j	121b6 <_ZN20complex_dynamic_type3app17h2b2087206ad6f723E+0xe0>

00012230 <_ZN20complex_dynamic_type3app17h2d69aa536abe8cfcE>:
   12230:	715d                	addi	sp,sp,-80
   12232:	c686                	sw	ra,76(sp)
   12234:	c4a2                	sw	s0,72(sp)
   12236:	c2a6                	sw	s1,68(sp)
   12238:	c0ca                	sw	s2,64(sp)
   1223a:	de4e                	sw	s3,60(sp)
   1223c:	89aa                	mv	s3,a0
   1223e:	4409                	li	s0,2
   12240:	008102a3          	sb	s0,5(sp)
   12244:	00610493          	addi	s1,sp,6
   12248:	4669                	li	a2,26
   1224a:	8526                	mv	a0,s1
   1224c:	0000b097          	auipc	ra,0xb
   12250:	52a080e7          	jalr	1322(ra) # 1d776 <memcpy>
   12254:	02110913          	addi	s2,sp,33
   12258:	466d                	li	a2,27
   1225a:	854a                	mv	a0,s2
   1225c:	4581                	li	a1,0
   1225e:	0000b097          	auipc	ra,0xb
   12262:	4ac080e7          	jalr	1196(ra) # 1d70a <memset>
   12266:	8626                	mv	a2,s1
   12268:	02810023          	sb	s0,32(sp)
   1226c:	6509                	lui	a0,0x2
   1226e:	4491                	li	s1,4
   12270:	4595                	li	a1,5
   12272:	cce50793          	addi	a5,a0,-818 # 1cce <.Lline_table_start1+0x1aa3>
   12276:	46e9                	li	a3,26
   12278:	4711                	li	a4,4
   1227a:	853e                	mv	a0,a5
   1227c:	00000073          	ecall
   12280:	00851863          	bne	a0,s0,12290 <_ZN20complex_dynamic_type3app17h2d69aa536abe8cfcE+0x60>
   12284:	4505                	li	a0,1
   12286:	00a98023          	sb	a0,0(s3)
   1228a:	00b9a223          	sw	a1,4(s3)
   1228e:	a0b5                	j	122fa <_ZN20complex_dynamic_type3app17h2d69aa536abe8cfcE+0xca>
   12290:	853e                	mv	a0,a5
   12292:	864a                	mv	a2,s2
   12294:	009102a3          	sb	s1,5(sp)
   12298:	478d                	li	a5,3
   1229a:	4589                	li	a1,2
   1229c:	46ed                	li	a3,27
   1229e:	470d                	li	a4,3
   122a0:	00000073          	ecall
   122a4:	00851d63          	bne	a0,s0,122be <_ZN20complex_dynamic_type3app17h2d69aa536abe8cfcE+0x8e>
   122a8:	02014703          	lbu	a4,32(sp)
   122ac:	4505                	li	a0,1
   122ae:	4609                	li	a2,2
   122b0:	00a98023          	sb	a0,0(s3)
   122b4:	00b9a223          	sw	a1,4(s3)
   122b8:	02c71963          	bne	a4,a2,122ea <_ZN20complex_dynamic_type3app17h2d69aa536abe8cfcE+0xba>
   122bc:	a83d                	j	122fa <_ZN20complex_dynamic_type3app17h2d69aa536abe8cfcE+0xca>
   122be:	4681                	li	a3,0
   122c0:	02f10023          	sb	a5,32(sp)
   122c4:	6509                	lui	a0,0x2
   122c6:	4595                	li	a1,5
   122c8:	4609                	li	a2,2
   122ca:	4709                	li	a4,2
   122cc:	cce50513          	addi	a0,a0,-818 # 1cce <.Lline_table_start1+0x1aa3>
   122d0:	07f00793          	li	a5,127
   122d4:	00000073          	ecall
   122d8:	4609                	li	a2,2
   122da:	04a7e563          	bltu	a5,a0,12324 <_ZN20complex_dynamic_type3app17h2d69aa536abe8cfcE+0xf4>
   122de:	4505                	li	a0,1
   122e0:	00a98023          	sb	a0,0(s3)
   122e4:	00b9a223          	sw	a1,4(s3)
   122e8:	470d                	li	a4,3
   122ea:	6509                	lui	a0,0x2
   122ec:	cce50513          	addi	a0,a0,-818 # 1cce <.Lline_table_start1+0x1aa3>
   122f0:	4589                	li	a1,2
   122f2:	4601                	li	a2,0
   122f4:	4681                	li	a3,0
   122f6:	00000073          	ecall
   122fa:	00514483          	lbu	s1,5(sp)
   122fe:	4509                	li	a0,2
   12300:	00a48b63          	beq	s1,a0,12316 <_ZN20complex_dynamic_type3app17h2d69aa536abe8cfcE+0xe6>
   12304:	6509                	lui	a0,0x2
   12306:	cce50513          	addi	a0,a0,-818 # 1cce <.Lline_table_start1+0x1aa3>
   1230a:	4595                	li	a1,5
   1230c:	4601                	li	a2,0
   1230e:	4681                	li	a3,0
   12310:	8726                	mv	a4,s1
   12312:	00000073          	ecall
   12316:	40b6                	lw	ra,76(sp)
   12318:	4426                	lw	s0,72(sp)
   1231a:	4496                	lw	s1,68(sp)
   1231c:	4906                	lw	s2,64(sp)
   1231e:	59f2                	lw	s3,60(sp)
   12320:	6161                	addi	sp,sp,80
   12322:	8082                	ret
   12324:	00514703          	lbu	a4,5(sp)
   12328:	00c71463          	bne	a4,a2,12330 <_ZN20complex_dynamic_type3app17h2d69aa536abe8cfcE+0x100>
   1232c:	470d                	li	a4,3
   1232e:	a81d                	j	12364 <_ZN20complex_dynamic_type3app17h2d69aa536abe8cfcE+0x134>
   12330:	6509                	lui	a0,0x2
   12332:	cce50513          	addi	a0,a0,-818 # 1cce <.Lline_table_start1+0x1aa3>
   12336:	4595                	li	a1,5
   12338:	4601                	li	a2,0
   1233a:	4681                	li	a3,0
   1233c:	00000073          	ecall
   12340:	02014703          	lbu	a4,32(sp)
   12344:	4509                	li	a0,2
   12346:	00a102a3          	sb	a0,5(sp)
   1234a:	00a71d63          	bne	a4,a0,12364 <_ZN20complex_dynamic_type3app17h2d69aa536abe8cfcE+0x134>
   1234e:	00198513          	addi	a0,s3,1
   12352:	466d                	li	a2,27
   12354:	85ca                	mv	a1,s2
   12356:	0000b097          	auipc	ra,0xb
   1235a:	420080e7          	jalr	1056(ra) # 1d776 <memcpy>
   1235e:	00098023          	sb	zero,0(s3)
   12362:	bf55                	j	12316 <_ZN20complex_dynamic_type3app17h2d69aa536abe8cfcE+0xe6>
   12364:	4601                	li	a2,0
   12366:	4681                	li	a3,0
   12368:	6509                	lui	a0,0x2
   1236a:	cce50513          	addi	a0,a0,-818 # 1cce <.Lline_table_start1+0x1aa3>
   1236e:	4589                	li	a1,2
   12370:	00000073          	ecall
   12374:	00514483          	lbu	s1,5(sp)
   12378:	4409                	li	s0,2
   1237a:	00198513          	addi	a0,s3,1
   1237e:	466d                	li	a2,27
   12380:	85ca                	mv	a1,s2
   12382:	0000b097          	auipc	ra,0xb
   12386:	3f4080e7          	jalr	1012(ra) # 1d776 <memcpy>
   1238a:	00098023          	sb	zero,0(s3)
   1238e:	f6849be3          	bne	s1,s0,12304 <_ZN20complex_dynamic_type3app17h2d69aa536abe8cfcE+0xd4>
   12392:	b751                	j	12316 <_ZN20complex_dynamic_type3app17h2d69aa536abe8cfcE+0xe6>

00012394 <_ZN20complex_dynamic_type3app17h2e28ad12b15e3040E>:
   12394:	7119                	addi	sp,sp,-128
   12396:	de86                	sw	ra,124(sp)
   12398:	dca2                	sw	s0,120(sp)
   1239a:	daa6                	sw	s1,116(sp)
   1239c:	d8ca                	sw	s2,112(sp)
   1239e:	d6ce                	sw	s3,108(sp)
   123a0:	89aa                	mv	s3,a0
   123a2:	4409                	li	s0,2
   123a4:	00810023          	sb	s0,0(sp)
   123a8:	00110493          	addi	s1,sp,1
   123ac:	03600613          	li	a2,54
   123b0:	8526                	mv	a0,s1
   123b2:	0000b097          	auipc	ra,0xb
   123b6:	3c4080e7          	jalr	964(ra) # 1d776 <memcpy>
   123ba:	03810913          	addi	s2,sp,56
   123be:	03400613          	li	a2,52
   123c2:	854a                	mv	a0,s2
   123c4:	4581                	li	a1,0
   123c6:	0000b097          	auipc	ra,0xb
   123ca:	344080e7          	jalr	836(ra) # 1d70a <memset>
   123ce:	8626                	mv	a2,s1
   123d0:	02810ba3          	sb	s0,55(sp)
   123d4:	6509                	lui	a0,0x2
   123d6:	4491                	li	s1,4
   123d8:	4591                	li	a1,4
   123da:	3c650793          	addi	a5,a0,966 # 23c6 <.Lline_table_start1+0x219b>
   123de:	03600693          	li	a3,54
   123e2:	4711                	li	a4,4
   123e4:	853e                	mv	a0,a5
   123e6:	00000073          	ecall
   123ea:	00851863          	bne	a0,s0,123fa <_ZN20complex_dynamic_type3app17h2e28ad12b15e3040E+0x66>
   123ee:	4505                	li	a0,1
   123f0:	00a98023          	sb	a0,0(s3)
   123f4:	00b9a223          	sw	a1,4(s3)
   123f8:	a0bd                	j	12466 <_ZN20complex_dynamic_type3app17h2e28ad12b15e3040E+0xd2>
   123fa:	853e                	mv	a0,a5
   123fc:	864a                	mv	a2,s2
   123fe:	00910023          	sb	s1,0(sp)
   12402:	478d                	li	a5,3
   12404:	4589                	li	a1,2
   12406:	03400693          	li	a3,52
   1240a:	470d                	li	a4,3
   1240c:	00000073          	ecall
   12410:	00851d63          	bne	a0,s0,1242a <_ZN20complex_dynamic_type3app17h2e28ad12b15e3040E+0x96>
   12414:	03714703          	lbu	a4,55(sp)
   12418:	4505                	li	a0,1
   1241a:	4609                	li	a2,2
   1241c:	00a98023          	sb	a0,0(s3)
   12420:	00b9a223          	sw	a1,4(s3)
   12424:	02c71963          	bne	a4,a2,12456 <_ZN20complex_dynamic_type3app17h2e28ad12b15e3040E+0xc2>
   12428:	a83d                	j	12466 <_ZN20complex_dynamic_type3app17h2e28ad12b15e3040E+0xd2>
   1242a:	4681                	li	a3,0
   1242c:	02f10ba3          	sb	a5,55(sp)
   12430:	6509                	lui	a0,0x2
   12432:	4591                	li	a1,4
   12434:	4609                	li	a2,2
   12436:	4709                	li	a4,2
   12438:	3c650513          	addi	a0,a0,966 # 23c6 <.Lline_table_start1+0x219b>
   1243c:	07f00793          	li	a5,127
   12440:	00000073          	ecall
   12444:	4609                	li	a2,2
   12446:	04a7e563          	bltu	a5,a0,12490 <_ZN20complex_dynamic_type3app17h2e28ad12b15e3040E+0xfc>
   1244a:	4505                	li	a0,1
   1244c:	00a98023          	sb	a0,0(s3)
   12450:	00b9a223          	sw	a1,4(s3)
   12454:	470d                	li	a4,3
   12456:	6509                	lui	a0,0x2
   12458:	3c650513          	addi	a0,a0,966 # 23c6 <.Lline_table_start1+0x219b>
   1245c:	4589                	li	a1,2
   1245e:	4601                	li	a2,0
   12460:	4681                	li	a3,0
   12462:	00000073          	ecall
   12466:	00014483          	lbu	s1,0(sp)
   1246a:	4509                	li	a0,2
   1246c:	00a48b63          	beq	s1,a0,12482 <_ZN20complex_dynamic_type3app17h2e28ad12b15e3040E+0xee>
   12470:	6509                	lui	a0,0x2
   12472:	3c650513          	addi	a0,a0,966 # 23c6 <.Lline_table_start1+0x219b>
   12476:	4591                	li	a1,4
   12478:	4601                	li	a2,0
   1247a:	4681                	li	a3,0
   1247c:	8726                	mv	a4,s1
   1247e:	00000073          	ecall
   12482:	50f6                	lw	ra,124(sp)
   12484:	5466                	lw	s0,120(sp)
   12486:	54d6                	lw	s1,116(sp)
   12488:	5946                	lw	s2,112(sp)
   1248a:	59b6                	lw	s3,108(sp)
   1248c:	6109                	addi	sp,sp,128
   1248e:	8082                	ret
   12490:	00014703          	lbu	a4,0(sp)
   12494:	00c71463          	bne	a4,a2,1249c <_ZN20complex_dynamic_type3app17h2e28ad12b15e3040E+0x108>
   12498:	470d                	li	a4,3
   1249a:	a825                	j	124d2 <_ZN20complex_dynamic_type3app17h2e28ad12b15e3040E+0x13e>
   1249c:	6509                	lui	a0,0x2
   1249e:	3c650513          	addi	a0,a0,966 # 23c6 <.Lline_table_start1+0x219b>
   124a2:	4591                	li	a1,4
   124a4:	4601                	li	a2,0
   124a6:	4681                	li	a3,0
   124a8:	00000073          	ecall
   124ac:	03714703          	lbu	a4,55(sp)
   124b0:	4509                	li	a0,2
   124b2:	00a10023          	sb	a0,0(sp)
   124b6:	00a71e63          	bne	a4,a0,124d2 <_ZN20complex_dynamic_type3app17h2e28ad12b15e3040E+0x13e>
   124ba:	00198513          	addi	a0,s3,1
   124be:	03400613          	li	a2,52
   124c2:	85ca                	mv	a1,s2
   124c4:	0000b097          	auipc	ra,0xb
   124c8:	2b2080e7          	jalr	690(ra) # 1d776 <memcpy>
   124cc:	00098023          	sb	zero,0(s3)
   124d0:	bf4d                	j	12482 <_ZN20complex_dynamic_type3app17h2e28ad12b15e3040E+0xee>
   124d2:	4601                	li	a2,0
   124d4:	4681                	li	a3,0
   124d6:	6509                	lui	a0,0x2
   124d8:	3c650513          	addi	a0,a0,966 # 23c6 <.Lline_table_start1+0x219b>
   124dc:	4589                	li	a1,2
   124de:	00000073          	ecall
   124e2:	00014483          	lbu	s1,0(sp)
   124e6:	4409                	li	s0,2
   124e8:	00198513          	addi	a0,s3,1
   124ec:	03400613          	li	a2,52
   124f0:	85ca                	mv	a1,s2
   124f2:	0000b097          	auipc	ra,0xb
   124f6:	284080e7          	jalr	644(ra) # 1d776 <memcpy>
   124fa:	00098023          	sb	zero,0(s3)
   124fe:	f68499e3          	bne	s1,s0,12470 <_ZN20complex_dynamic_type3app17h2e28ad12b15e3040E+0xdc>
   12502:	b741                	j	12482 <_ZN20complex_dynamic_type3app17h2e28ad12b15e3040E+0xee>

00012504 <_ZN20complex_dynamic_type3app17h2e92926e94ec7464E>:
   12504:	7171                	addi	sp,sp,-176
   12506:	d706                	sw	ra,172(sp)
   12508:	d522                	sw	s0,168(sp)
   1250a:	d326                	sw	s1,164(sp)
   1250c:	d14a                	sw	s2,160(sp)
   1250e:	cf4e                	sw	s3,156(sp)
   12510:	89aa                	mv	s3,a0
   12512:	4409                	li	s0,2
   12514:	008106a3          	sb	s0,13(sp)
   12518:	00e10493          	addi	s1,sp,14
   1251c:	02f00613          	li	a2,47
   12520:	8526                	mv	a0,s1
   12522:	0000b097          	auipc	ra,0xb
   12526:	254080e7          	jalr	596(ra) # 1d776 <memcpy>
   1252a:	03e10913          	addi	s2,sp,62
   1252e:	05e00613          	li	a2,94
   12532:	854a                	mv	a0,s2
   12534:	4581                	li	a1,0
   12536:	0000b097          	auipc	ra,0xb
   1253a:	1d4080e7          	jalr	468(ra) # 1d70a <memset>
   1253e:	8626                	mv	a2,s1
   12540:	02810ea3          	sb	s0,61(sp)
   12544:	4791                	li	a5,4
   12546:	22b00513          	li	a0,555
   1254a:	4595                	li	a1,5
   1254c:	02f00693          	li	a3,47
   12550:	4711                	li	a4,4
   12552:	00000073          	ecall
   12556:	00851863          	bne	a0,s0,12566 <_ZN20complex_dynamic_type3app17h2e92926e94ec7464E+0x62>
   1255a:	4505                	li	a0,1
   1255c:	00a98023          	sb	a0,0(s3)
   12560:	00b9a223          	sw	a1,4(s3)
   12564:	a0b5                	j	125d0 <_ZN20complex_dynamic_type3app17h2e92926e94ec7464E+0xcc>
   12566:	864a                	mv	a2,s2
   12568:	00f106a3          	sb	a5,13(sp)
   1256c:	478d                	li	a5,3
   1256e:	22b00513          	li	a0,555
   12572:	4589                	li	a1,2
   12574:	05e00693          	li	a3,94
   12578:	470d                	li	a4,3
   1257a:	00000073          	ecall
   1257e:	00851d63          	bne	a0,s0,12598 <_ZN20complex_dynamic_type3app17h2e92926e94ec7464E+0x94>
   12582:	03d14703          	lbu	a4,61(sp)
   12586:	4505                	li	a0,1
   12588:	4609                	li	a2,2
   1258a:	00a98023          	sb	a0,0(s3)
   1258e:	00b9a223          	sw	a1,4(s3)
   12592:	02c71863          	bne	a4,a2,125c2 <_ZN20complex_dynamic_type3app17h2e92926e94ec7464E+0xbe>
   12596:	a82d                	j	125d0 <_ZN20complex_dynamic_type3app17h2e92926e94ec7464E+0xcc>
   12598:	4681                	li	a3,0
   1259a:	02f10ea3          	sb	a5,61(sp)
   1259e:	22b00513          	li	a0,555
   125a2:	4595                	li	a1,5
   125a4:	4609                	li	a2,2
   125a6:	4709                	li	a4,2
   125a8:	07f00793          	li	a5,127
   125ac:	00000073          	ecall
   125b0:	4609                	li	a2,2
   125b2:	04a7e363          	bltu	a5,a0,125f8 <_ZN20complex_dynamic_type3app17h2e92926e94ec7464E+0xf4>
   125b6:	4505                	li	a0,1
   125b8:	00a98023          	sb	a0,0(s3)
   125bc:	00b9a223          	sw	a1,4(s3)
   125c0:	470d                	li	a4,3
   125c2:	22b00513          	li	a0,555
   125c6:	4589                	li	a1,2
   125c8:	4601                	li	a2,0
   125ca:	4681                	li	a3,0
   125cc:	00000073          	ecall
   125d0:	00d14483          	lbu	s1,13(sp)
   125d4:	4509                	li	a0,2
   125d6:	00a48a63          	beq	s1,a0,125ea <_ZN20complex_dynamic_type3app17h2e92926e94ec7464E+0xe6>
   125da:	22b00513          	li	a0,555
   125de:	4595                	li	a1,5
   125e0:	4601                	li	a2,0
   125e2:	4681                	li	a3,0
   125e4:	8726                	mv	a4,s1
   125e6:	00000073          	ecall
   125ea:	50ba                	lw	ra,172(sp)
   125ec:	542a                	lw	s0,168(sp)
   125ee:	549a                	lw	s1,164(sp)
   125f0:	590a                	lw	s2,160(sp)
   125f2:	49fa                	lw	s3,156(sp)
   125f4:	614d                	addi	sp,sp,176
   125f6:	8082                	ret
   125f8:	00d14703          	lbu	a4,13(sp)
   125fc:	00c71463          	bne	a4,a2,12604 <_ZN20complex_dynamic_type3app17h2e92926e94ec7464E+0x100>
   12600:	470d                	li	a4,3
   12602:	a81d                	j	12638 <_ZN20complex_dynamic_type3app17h2e92926e94ec7464E+0x134>
   12604:	22b00513          	li	a0,555
   12608:	4595                	li	a1,5
   1260a:	4601                	li	a2,0
   1260c:	4681                	li	a3,0
   1260e:	00000073          	ecall
   12612:	03d14703          	lbu	a4,61(sp)
   12616:	4509                	li	a0,2
   12618:	00a106a3          	sb	a0,13(sp)
   1261c:	00a71e63          	bne	a4,a0,12638 <_ZN20complex_dynamic_type3app17h2e92926e94ec7464E+0x134>
   12620:	00198513          	addi	a0,s3,1
   12624:	05e00613          	li	a2,94
   12628:	85ca                	mv	a1,s2
   1262a:	0000b097          	auipc	ra,0xb
   1262e:	14c080e7          	jalr	332(ra) # 1d776 <memcpy>
   12632:	00098023          	sb	zero,0(s3)
   12636:	bf55                	j	125ea <_ZN20complex_dynamic_type3app17h2e92926e94ec7464E+0xe6>
   12638:	4601                	li	a2,0
   1263a:	4681                	li	a3,0
   1263c:	22b00513          	li	a0,555
   12640:	4589                	li	a1,2
   12642:	00000073          	ecall
   12646:	00d14483          	lbu	s1,13(sp)
   1264a:	4409                	li	s0,2
   1264c:	00198513          	addi	a0,s3,1
   12650:	05e00613          	li	a2,94
   12654:	85ca                	mv	a1,s2
   12656:	0000b097          	auipc	ra,0xb
   1265a:	120080e7          	jalr	288(ra) # 1d776 <memcpy>
   1265e:	00098023          	sb	zero,0(s3)
   12662:	f6849ce3          	bne	s1,s0,125da <_ZN20complex_dynamic_type3app17h2e92926e94ec7464E+0xd6>
   12666:	b751                	j	125ea <_ZN20complex_dynamic_type3app17h2e92926e94ec7464E+0xe6>

00012668 <_ZN20complex_dynamic_type3app17h31aa0c8951ed768fE>:
   12668:	7119                	addi	sp,sp,-128
   1266a:	de86                	sw	ra,124(sp)
   1266c:	dca2                	sw	s0,120(sp)
   1266e:	daa6                	sw	s1,116(sp)
   12670:	d8ca                	sw	s2,112(sp)
   12672:	d6ce                	sw	s3,108(sp)
   12674:	89aa                	mv	s3,a0
   12676:	4409                	li	s0,2
   12678:	00810423          	sb	s0,8(sp)
   1267c:	00910493          	addi	s1,sp,9
   12680:	03400613          	li	a2,52
   12684:	8526                	mv	a0,s1
   12686:	0000b097          	auipc	ra,0xb
   1268a:	0f0080e7          	jalr	240(ra) # 1d776 <memcpy>
   1268e:	03e10913          	addi	s2,sp,62
   12692:	02e00613          	li	a2,46
   12696:	854a                	mv	a0,s2
   12698:	4581                	li	a1,0
   1269a:	0000b097          	auipc	ra,0xb
   1269e:	070080e7          	jalr	112(ra) # 1d70a <memset>
   126a2:	8626                	mv	a2,s1
   126a4:	02810ea3          	sb	s0,61(sp)
   126a8:	4791                	li	a5,4
   126aa:	20900513          	li	a0,521
   126ae:	4589                	li	a1,2
   126b0:	03400693          	li	a3,52
   126b4:	4711                	li	a4,4
   126b6:	00000073          	ecall
   126ba:	00851863          	bne	a0,s0,126ca <_ZN20complex_dynamic_type3app17h31aa0c8951ed768fE+0x62>
   126be:	4505                	li	a0,1
   126c0:	00a98023          	sb	a0,0(s3)
   126c4:	00b9a223          	sw	a1,4(s3)
   126c8:	a0b5                	j	12734 <_ZN20complex_dynamic_type3app17h31aa0c8951ed768fE+0xcc>
   126ca:	864a                	mv	a2,s2
   126cc:	00f10423          	sb	a5,8(sp)
   126d0:	478d                	li	a5,3
   126d2:	20900513          	li	a0,521
   126d6:	45a1                	li	a1,8
   126d8:	02e00693          	li	a3,46
   126dc:	470d                	li	a4,3
   126de:	00000073          	ecall
   126e2:	00851d63          	bne	a0,s0,126fc <_ZN20complex_dynamic_type3app17h31aa0c8951ed768fE+0x94>
   126e6:	03d14703          	lbu	a4,61(sp)
   126ea:	4505                	li	a0,1
   126ec:	4609                	li	a2,2
   126ee:	00a98023          	sb	a0,0(s3)
   126f2:	00b9a223          	sw	a1,4(s3)
   126f6:	02c71863          	bne	a4,a2,12726 <_ZN20complex_dynamic_type3app17h31aa0c8951ed768fE+0xbe>
   126fa:	a82d                	j	12734 <_ZN20complex_dynamic_type3app17h31aa0c8951ed768fE+0xcc>
   126fc:	4681                	li	a3,0
   126fe:	02f10ea3          	sb	a5,61(sp)
   12702:	20900513          	li	a0,521
   12706:	4589                	li	a1,2
   12708:	4621                	li	a2,8
   1270a:	4709                	li	a4,2
   1270c:	07f00793          	li	a5,127
   12710:	00000073          	ecall
   12714:	4609                	li	a2,2
   12716:	04a7e363          	bltu	a5,a0,1275c <_ZN20complex_dynamic_type3app17h31aa0c8951ed768fE+0xf4>
   1271a:	4505                	li	a0,1
   1271c:	00a98023          	sb	a0,0(s3)
   12720:	00b9a223          	sw	a1,4(s3)
   12724:	470d                	li	a4,3
   12726:	20900513          	li	a0,521
   1272a:	45a1                	li	a1,8
   1272c:	4601                	li	a2,0
   1272e:	4681                	li	a3,0
   12730:	00000073          	ecall
   12734:	00814483          	lbu	s1,8(sp)
   12738:	4509                	li	a0,2
   1273a:	00a48a63          	beq	s1,a0,1274e <_ZN20complex_dynamic_type3app17h31aa0c8951ed768fE+0xe6>
   1273e:	20900513          	li	a0,521
   12742:	4589                	li	a1,2
   12744:	4601                	li	a2,0
   12746:	4681                	li	a3,0
   12748:	8726                	mv	a4,s1
   1274a:	00000073          	ecall
   1274e:	50f6                	lw	ra,124(sp)
   12750:	5466                	lw	s0,120(sp)
   12752:	54d6                	lw	s1,116(sp)
   12754:	5946                	lw	s2,112(sp)
   12756:	59b6                	lw	s3,108(sp)
   12758:	6109                	addi	sp,sp,128
   1275a:	8082                	ret
   1275c:	00814703          	lbu	a4,8(sp)
   12760:	00c71463          	bne	a4,a2,12768 <_ZN20complex_dynamic_type3app17h31aa0c8951ed768fE+0x100>
   12764:	470d                	li	a4,3
   12766:	a81d                	j	1279c <_ZN20complex_dynamic_type3app17h31aa0c8951ed768fE+0x134>
   12768:	20900513          	li	a0,521
   1276c:	4589                	li	a1,2
   1276e:	4601                	li	a2,0
   12770:	4681                	li	a3,0
   12772:	00000073          	ecall
   12776:	03d14703          	lbu	a4,61(sp)
   1277a:	4509                	li	a0,2
   1277c:	00a10423          	sb	a0,8(sp)
   12780:	00a71e63          	bne	a4,a0,1279c <_ZN20complex_dynamic_type3app17h31aa0c8951ed768fE+0x134>
   12784:	00198513          	addi	a0,s3,1
   12788:	02e00613          	li	a2,46
   1278c:	85ca                	mv	a1,s2
   1278e:	0000b097          	auipc	ra,0xb
   12792:	fe8080e7          	jalr	-24(ra) # 1d776 <memcpy>
   12796:	00098023          	sb	zero,0(s3)
   1279a:	bf55                	j	1274e <_ZN20complex_dynamic_type3app17h31aa0c8951ed768fE+0xe6>
   1279c:	20900513          	li	a0,521
   127a0:	45a1                	li	a1,8
   127a2:	4601                	li	a2,0
   127a4:	4681                	li	a3,0
   127a6:	00000073          	ecall
   127aa:	00814483          	lbu	s1,8(sp)
   127ae:	00198513          	addi	a0,s3,1
   127b2:	02e00613          	li	a2,46
   127b6:	85ca                	mv	a1,s2
   127b8:	0000b097          	auipc	ra,0xb
   127bc:	fbe080e7          	jalr	-66(ra) # 1d776 <memcpy>
   127c0:	4509                	li	a0,2
   127c2:	00098023          	sb	zero,0(s3)
   127c6:	f6a49ce3          	bne	s1,a0,1273e <_ZN20complex_dynamic_type3app17h31aa0c8951ed768fE+0xd6>
   127ca:	b751                	j	1274e <_ZN20complex_dynamic_type3app17h31aa0c8951ed768fE+0xe6>

000127cc <_ZN20complex_dynamic_type3app17h34a8d12121633390E>:
   127cc:	7175                	addi	sp,sp,-144
   127ce:	c706                	sw	ra,140(sp)
   127d0:	c522                	sw	s0,136(sp)
   127d2:	c326                	sw	s1,132(sp)
   127d4:	c14a                	sw	s2,128(sp)
   127d6:	dece                	sw	s3,124(sp)
   127d8:	89aa                	mv	s3,a0
   127da:	4409                	li	s0,2
   127dc:	00810323          	sb	s0,6(sp)
   127e0:	00710493          	addi	s1,sp,7
   127e4:	02100613          	li	a2,33
   127e8:	8526                	mv	a0,s1
   127ea:	0000b097          	auipc	ra,0xb
   127ee:	f8c080e7          	jalr	-116(ra) # 1d776 <memcpy>
   127f2:	02910913          	addi	s2,sp,41
   127f6:	05300613          	li	a2,83
   127fa:	854a                	mv	a0,s2
   127fc:	4581                	li	a1,0
   127fe:	0000b097          	auipc	ra,0xb
   12802:	f0c080e7          	jalr	-244(ra) # 1d70a <memset>
   12806:	8626                	mv	a2,s1
   12808:	02810423          	sb	s0,40(sp)
   1280c:	6509                	lui	a0,0x2
   1280e:	4491                	li	s1,4
   12810:	4589                	li	a1,2
   12812:	53e50793          	addi	a5,a0,1342 # 253e <.Lline_table_start1+0x2313>
   12816:	02100693          	li	a3,33
   1281a:	4711                	li	a4,4
   1281c:	853e                	mv	a0,a5
   1281e:	00000073          	ecall
   12822:	00851863          	bne	a0,s0,12832 <_ZN20complex_dynamic_type3app17h34a8d12121633390E+0x66>
   12826:	4505                	li	a0,1
   12828:	00a98023          	sb	a0,0(s3)
   1282c:	00b9a223          	sw	a1,4(s3)
   12830:	a0bd                	j	1289e <_ZN20complex_dynamic_type3app17h34a8d12121633390E+0xd2>
   12832:	853e                	mv	a0,a5
   12834:	864a                	mv	a2,s2
   12836:	00910323          	sb	s1,6(sp)
   1283a:	478d                	li	a5,3
   1283c:	45a1                	li	a1,8
   1283e:	05300693          	li	a3,83
   12842:	470d                	li	a4,3
   12844:	00000073          	ecall
   12848:	00851d63          	bne	a0,s0,12862 <_ZN20complex_dynamic_type3app17h34a8d12121633390E+0x96>
   1284c:	02814703          	lbu	a4,40(sp)
   12850:	4505                	li	a0,1
   12852:	4609                	li	a2,2
   12854:	00a98023          	sb	a0,0(s3)
   12858:	00b9a223          	sw	a1,4(s3)
   1285c:	02c71963          	bne	a4,a2,1288e <_ZN20complex_dynamic_type3app17h34a8d12121633390E+0xc2>
   12860:	a83d                	j	1289e <_ZN20complex_dynamic_type3app17h34a8d12121633390E+0xd2>
   12862:	4681                	li	a3,0
   12864:	02f10423          	sb	a5,40(sp)
   12868:	6509                	lui	a0,0x2
   1286a:	4589                	li	a1,2
   1286c:	4621                	li	a2,8
   1286e:	4709                	li	a4,2
   12870:	53e50513          	addi	a0,a0,1342 # 253e <.Lline_table_start1+0x2313>
   12874:	07f00793          	li	a5,127
   12878:	00000073          	ecall
   1287c:	4609                	li	a2,2
   1287e:	04a7e563          	bltu	a5,a0,128c8 <_ZN20complex_dynamic_type3app17h34a8d12121633390E+0xfc>
   12882:	4505                	li	a0,1
   12884:	00a98023          	sb	a0,0(s3)
   12888:	00b9a223          	sw	a1,4(s3)
   1288c:	470d                	li	a4,3
   1288e:	6509                	lui	a0,0x2
   12890:	53e50513          	addi	a0,a0,1342 # 253e <.Lline_table_start1+0x2313>
   12894:	45a1                	li	a1,8
   12896:	4601                	li	a2,0
   12898:	4681                	li	a3,0
   1289a:	00000073          	ecall
   1289e:	00614483          	lbu	s1,6(sp)
   128a2:	4509                	li	a0,2
   128a4:	00a48b63          	beq	s1,a0,128ba <_ZN20complex_dynamic_type3app17h34a8d12121633390E+0xee>
   128a8:	6509                	lui	a0,0x2
   128aa:	53e50513          	addi	a0,a0,1342 # 253e <.Lline_table_start1+0x2313>
   128ae:	4589                	li	a1,2
   128b0:	4601                	li	a2,0
   128b2:	4681                	li	a3,0
   128b4:	8726                	mv	a4,s1
   128b6:	00000073          	ecall
   128ba:	40ba                	lw	ra,140(sp)
   128bc:	442a                	lw	s0,136(sp)
   128be:	449a                	lw	s1,132(sp)
   128c0:	490a                	lw	s2,128(sp)
   128c2:	59f6                	lw	s3,124(sp)
   128c4:	6149                	addi	sp,sp,144
   128c6:	8082                	ret
   128c8:	00614703          	lbu	a4,6(sp)
   128cc:	00c71463          	bne	a4,a2,128d4 <_ZN20complex_dynamic_type3app17h34a8d12121633390E+0x108>
   128d0:	470d                	li	a4,3
   128d2:	a825                	j	1290a <_ZN20complex_dynamic_type3app17h34a8d12121633390E+0x13e>
   128d4:	6509                	lui	a0,0x2
   128d6:	53e50513          	addi	a0,a0,1342 # 253e <.Lline_table_start1+0x2313>
   128da:	4589                	li	a1,2
   128dc:	4601                	li	a2,0
   128de:	4681                	li	a3,0
   128e0:	00000073          	ecall
   128e4:	02814703          	lbu	a4,40(sp)
   128e8:	4509                	li	a0,2
   128ea:	00a10323          	sb	a0,6(sp)
   128ee:	00a71e63          	bne	a4,a0,1290a <_ZN20complex_dynamic_type3app17h34a8d12121633390E+0x13e>
   128f2:	00198513          	addi	a0,s3,1
   128f6:	05300613          	li	a2,83
   128fa:	85ca                	mv	a1,s2
   128fc:	0000b097          	auipc	ra,0xb
   12900:	e7a080e7          	jalr	-390(ra) # 1d776 <memcpy>
   12904:	00098023          	sb	zero,0(s3)
   12908:	bf4d                	j	128ba <_ZN20complex_dynamic_type3app17h34a8d12121633390E+0xee>
   1290a:	6509                	lui	a0,0x2
   1290c:	53e50513          	addi	a0,a0,1342 # 253e <.Lline_table_start1+0x2313>
   12910:	45a1                	li	a1,8
   12912:	4601                	li	a2,0
   12914:	4681                	li	a3,0
   12916:	00000073          	ecall
   1291a:	00614483          	lbu	s1,6(sp)
   1291e:	00198513          	addi	a0,s3,1
   12922:	05300613          	li	a2,83
   12926:	85ca                	mv	a1,s2
   12928:	0000b097          	auipc	ra,0xb
   1292c:	e4e080e7          	jalr	-434(ra) # 1d776 <memcpy>
   12930:	4509                	li	a0,2
   12932:	00098023          	sb	zero,0(s3)
   12936:	f6a499e3          	bne	s1,a0,128a8 <_ZN20complex_dynamic_type3app17h34a8d12121633390E+0xdc>
   1293a:	b741                	j	128ba <_ZN20complex_dynamic_type3app17h34a8d12121633390E+0xee>

0001293c <_ZN20complex_dynamic_type3app17h36d6f7007c1d6699E>:
   1293c:	711d                	addi	sp,sp,-96
   1293e:	ce86                	sw	ra,92(sp)
   12940:	cca2                	sw	s0,88(sp)
   12942:	caa6                	sw	s1,84(sp)
   12944:	c8ca                	sw	s2,80(sp)
   12946:	c6ce                	sw	s3,76(sp)
   12948:	89aa                	mv	s3,a0
   1294a:	4409                	li	s0,2
   1294c:	008102a3          	sb	s0,5(sp)
   12950:	00610493          	addi	s1,sp,6
   12954:	02700613          	li	a2,39
   12958:	8526                	mv	a0,s1
   1295a:	0000b097          	auipc	ra,0xb
   1295e:	e1c080e7          	jalr	-484(ra) # 1d776 <memcpy>
   12962:	02e10913          	addi	s2,sp,46
   12966:	4679                	li	a2,30
   12968:	854a                	mv	a0,s2
   1296a:	4581                	li	a1,0
   1296c:	0000b097          	auipc	ra,0xb
   12970:	d9e080e7          	jalr	-610(ra) # 1d70a <memset>
   12974:	8626                	mv	a2,s1
   12976:	028106a3          	sb	s0,45(sp)
   1297a:	6505                	lui	a0,0x1
   1297c:	4491                	li	s1,4
   1297e:	458d                	li	a1,3
   12980:	0e250793          	addi	a5,a0,226 # 10e2 <.Lline_table_start1+0xeb7>
   12984:	02700693          	li	a3,39
   12988:	4711                	li	a4,4
   1298a:	853e                	mv	a0,a5
   1298c:	00000073          	ecall
   12990:	00851863          	bne	a0,s0,129a0 <_ZN20complex_dynamic_type3app17h36d6f7007c1d6699E+0x64>
   12994:	4505                	li	a0,1
   12996:	00a98023          	sb	a0,0(s3)
   1299a:	00b9a223          	sw	a1,4(s3)
   1299e:	a0b5                	j	12a0a <_ZN20complex_dynamic_type3app17h36d6f7007c1d6699E+0xce>
   129a0:	853e                	mv	a0,a5
   129a2:	864a                	mv	a2,s2
   129a4:	009102a3          	sb	s1,5(sp)
   129a8:	478d                	li	a5,3
   129aa:	458d                	li	a1,3
   129ac:	46f9                	li	a3,30
   129ae:	470d                	li	a4,3
   129b0:	00000073          	ecall
   129b4:	00851d63          	bne	a0,s0,129ce <_ZN20complex_dynamic_type3app17h36d6f7007c1d6699E+0x92>
   129b8:	02d14703          	lbu	a4,45(sp)
   129bc:	4505                	li	a0,1
   129be:	4609                	li	a2,2
   129c0:	00a98023          	sb	a0,0(s3)
   129c4:	00b9a223          	sw	a1,4(s3)
   129c8:	02c71963          	bne	a4,a2,129fa <_ZN20complex_dynamic_type3app17h36d6f7007c1d6699E+0xbe>
   129cc:	a83d                	j	12a0a <_ZN20complex_dynamic_type3app17h36d6f7007c1d6699E+0xce>
   129ce:	4681                	li	a3,0
   129d0:	02f106a3          	sb	a5,45(sp)
   129d4:	6505                	lui	a0,0x1
   129d6:	458d                	li	a1,3
   129d8:	460d                	li	a2,3
   129da:	4709                	li	a4,2
   129dc:	0e250513          	addi	a0,a0,226 # 10e2 <.Lline_table_start1+0xeb7>
   129e0:	07f00793          	li	a5,127
   129e4:	00000073          	ecall
   129e8:	4609                	li	a2,2
   129ea:	04a7e563          	bltu	a5,a0,12a34 <_ZN20complex_dynamic_type3app17h36d6f7007c1d6699E+0xf8>
   129ee:	4505                	li	a0,1
   129f0:	00a98023          	sb	a0,0(s3)
   129f4:	00b9a223          	sw	a1,4(s3)
   129f8:	470d                	li	a4,3
   129fa:	6505                	lui	a0,0x1
   129fc:	0e250513          	addi	a0,a0,226 # 10e2 <.Lline_table_start1+0xeb7>
   12a00:	458d                	li	a1,3
   12a02:	4601                	li	a2,0
   12a04:	4681                	li	a3,0
   12a06:	00000073          	ecall
   12a0a:	00514483          	lbu	s1,5(sp)
   12a0e:	4509                	li	a0,2
   12a10:	00a48b63          	beq	s1,a0,12a26 <_ZN20complex_dynamic_type3app17h36d6f7007c1d6699E+0xea>
   12a14:	6505                	lui	a0,0x1
   12a16:	0e250513          	addi	a0,a0,226 # 10e2 <.Lline_table_start1+0xeb7>
   12a1a:	458d                	li	a1,3
   12a1c:	4601                	li	a2,0
   12a1e:	4681                	li	a3,0
   12a20:	8726                	mv	a4,s1
   12a22:	00000073          	ecall
   12a26:	40f6                	lw	ra,92(sp)
   12a28:	4466                	lw	s0,88(sp)
   12a2a:	44d6                	lw	s1,84(sp)
   12a2c:	4946                	lw	s2,80(sp)
   12a2e:	49b6                	lw	s3,76(sp)
   12a30:	6125                	addi	sp,sp,96
   12a32:	8082                	ret
   12a34:	00514703          	lbu	a4,5(sp)
   12a38:	00c71463          	bne	a4,a2,12a40 <_ZN20complex_dynamic_type3app17h36d6f7007c1d6699E+0x104>
   12a3c:	470d                	li	a4,3
   12a3e:	a81d                	j	12a74 <_ZN20complex_dynamic_type3app17h36d6f7007c1d6699E+0x138>
   12a40:	6505                	lui	a0,0x1
   12a42:	0e250513          	addi	a0,a0,226 # 10e2 <.Lline_table_start1+0xeb7>
   12a46:	458d                	li	a1,3
   12a48:	4601                	li	a2,0
   12a4a:	4681                	li	a3,0
   12a4c:	00000073          	ecall
   12a50:	02d14703          	lbu	a4,45(sp)
   12a54:	4509                	li	a0,2
   12a56:	00a102a3          	sb	a0,5(sp)
   12a5a:	00a71d63          	bne	a4,a0,12a74 <_ZN20complex_dynamic_type3app17h36d6f7007c1d6699E+0x138>
   12a5e:	00198513          	addi	a0,s3,1
   12a62:	4679                	li	a2,30
   12a64:	85ca                	mv	a1,s2
   12a66:	0000b097          	auipc	ra,0xb
   12a6a:	d10080e7          	jalr	-752(ra) # 1d776 <memcpy>
   12a6e:	00098023          	sb	zero,0(s3)
   12a72:	bf55                	j	12a26 <_ZN20complex_dynamic_type3app17h36d6f7007c1d6699E+0xea>
   12a74:	6505                	lui	a0,0x1
   12a76:	0e250513          	addi	a0,a0,226 # 10e2 <.Lline_table_start1+0xeb7>
   12a7a:	458d                	li	a1,3
   12a7c:	4601                	li	a2,0
   12a7e:	4681                	li	a3,0
   12a80:	00000073          	ecall
   12a84:	00514483          	lbu	s1,5(sp)
   12a88:	00198513          	addi	a0,s3,1
   12a8c:	4679                	li	a2,30
   12a8e:	85ca                	mv	a1,s2
   12a90:	0000b097          	auipc	ra,0xb
   12a94:	ce6080e7          	jalr	-794(ra) # 1d776 <memcpy>
   12a98:	4509                	li	a0,2
   12a9a:	00098023          	sb	zero,0(s3)
   12a9e:	f6a49be3          	bne	s1,a0,12a14 <_ZN20complex_dynamic_type3app17h36d6f7007c1d6699E+0xd8>
   12aa2:	b751                	j	12a26 <_ZN20complex_dynamic_type3app17h36d6f7007c1d6699E+0xea>

00012aa4 <_ZN20complex_dynamic_type3app17h3778b739e63dd9c8E>:
   12aa4:	715d                	addi	sp,sp,-80
   12aa6:	c686                	sw	ra,76(sp)
   12aa8:	c4a2                	sw	s0,72(sp)
   12aaa:	c2a6                	sw	s1,68(sp)
   12aac:	c0ca                	sw	s2,64(sp)
   12aae:	de4e                	sw	s3,60(sp)
   12ab0:	89aa                	mv	s3,a0
   12ab2:	4409                	li	s0,2
   12ab4:	00810223          	sb	s0,4(sp)
   12ab8:	00510493          	addi	s1,sp,5
   12abc:	4661                	li	a2,24
   12abe:	8526                	mv	a0,s1
   12ac0:	0000b097          	auipc	ra,0xb
   12ac4:	cb6080e7          	jalr	-842(ra) # 1d776 <memcpy>
   12ac8:	01e10913          	addi	s2,sp,30
   12acc:	4679                	li	a2,30
   12ace:	854a                	mv	a0,s2
   12ad0:	4581                	li	a1,0
   12ad2:	0000b097          	auipc	ra,0xb
   12ad6:	c38080e7          	jalr	-968(ra) # 1d70a <memset>
   12ada:	8626                	mv	a2,s1
   12adc:	00810ea3          	sb	s0,29(sp)
   12ae0:	6505                	lui	a0,0x1
   12ae2:	4491                	li	s1,4
   12ae4:	45a5                	li	a1,9
   12ae6:	cbb50793          	addi	a5,a0,-837 # cbb <.Lline_table_start1+0xa90>
   12aea:	46e1                	li	a3,24
   12aec:	4711                	li	a4,4
   12aee:	853e                	mv	a0,a5
   12af0:	00000073          	ecall
   12af4:	00851863          	bne	a0,s0,12b04 <_ZN20complex_dynamic_type3app17h3778b739e63dd9c8E+0x60>
   12af8:	4505                	li	a0,1
   12afa:	00a98023          	sb	a0,0(s3)
   12afe:	00b9a223          	sw	a1,4(s3)
   12b02:	a0b5                	j	12b6e <_ZN20complex_dynamic_type3app17h3778b739e63dd9c8E+0xca>
   12b04:	853e                	mv	a0,a5
   12b06:	864a                	mv	a2,s2
   12b08:	00910223          	sb	s1,4(sp)
   12b0c:	478d                	li	a5,3
   12b0e:	4595                	li	a1,5
   12b10:	46f9                	li	a3,30
   12b12:	470d                	li	a4,3
   12b14:	00000073          	ecall
   12b18:	00851d63          	bne	a0,s0,12b32 <_ZN20complex_dynamic_type3app17h3778b739e63dd9c8E+0x8e>
   12b1c:	01d14703          	lbu	a4,29(sp)
   12b20:	4505                	li	a0,1
   12b22:	4609                	li	a2,2
   12b24:	00a98023          	sb	a0,0(s3)
   12b28:	00b9a223          	sw	a1,4(s3)
   12b2c:	02c71963          	bne	a4,a2,12b5e <_ZN20complex_dynamic_type3app17h3778b739e63dd9c8E+0xba>
   12b30:	a83d                	j	12b6e <_ZN20complex_dynamic_type3app17h3778b739e63dd9c8E+0xca>
   12b32:	4681                	li	a3,0
   12b34:	00f10ea3          	sb	a5,29(sp)
   12b38:	6505                	lui	a0,0x1
   12b3a:	45a5                	li	a1,9
   12b3c:	4615                	li	a2,5
   12b3e:	4709                	li	a4,2
   12b40:	cbb50513          	addi	a0,a0,-837 # cbb <.Lline_table_start1+0xa90>
   12b44:	07f00793          	li	a5,127
   12b48:	00000073          	ecall
   12b4c:	4609                	li	a2,2
   12b4e:	04a7e563          	bltu	a5,a0,12b98 <_ZN20complex_dynamic_type3app17h3778b739e63dd9c8E+0xf4>
   12b52:	4505                	li	a0,1
   12b54:	00a98023          	sb	a0,0(s3)
   12b58:	00b9a223          	sw	a1,4(s3)
   12b5c:	470d                	li	a4,3
   12b5e:	6505                	lui	a0,0x1
   12b60:	cbb50513          	addi	a0,a0,-837 # cbb <.Lline_table_start1+0xa90>
   12b64:	4595                	li	a1,5
   12b66:	4601                	li	a2,0
   12b68:	4681                	li	a3,0
   12b6a:	00000073          	ecall
   12b6e:	00414483          	lbu	s1,4(sp)
   12b72:	4509                	li	a0,2
   12b74:	00a48b63          	beq	s1,a0,12b8a <_ZN20complex_dynamic_type3app17h3778b739e63dd9c8E+0xe6>
   12b78:	6505                	lui	a0,0x1
   12b7a:	cbb50513          	addi	a0,a0,-837 # cbb <.Lline_table_start1+0xa90>
   12b7e:	45a5                	li	a1,9
   12b80:	4601                	li	a2,0
   12b82:	4681                	li	a3,0
   12b84:	8726                	mv	a4,s1
   12b86:	00000073          	ecall
   12b8a:	40b6                	lw	ra,76(sp)
   12b8c:	4426                	lw	s0,72(sp)
   12b8e:	4496                	lw	s1,68(sp)
   12b90:	4906                	lw	s2,64(sp)
   12b92:	59f2                	lw	s3,60(sp)
   12b94:	6161                	addi	sp,sp,80
   12b96:	8082                	ret
   12b98:	00414703          	lbu	a4,4(sp)
   12b9c:	00c71463          	bne	a4,a2,12ba4 <_ZN20complex_dynamic_type3app17h3778b739e63dd9c8E+0x100>
   12ba0:	470d                	li	a4,3
   12ba2:	a81d                	j	12bd8 <_ZN20complex_dynamic_type3app17h3778b739e63dd9c8E+0x134>
   12ba4:	6505                	lui	a0,0x1
   12ba6:	cbb50513          	addi	a0,a0,-837 # cbb <.Lline_table_start1+0xa90>
   12baa:	45a5                	li	a1,9
   12bac:	4601                	li	a2,0
   12bae:	4681                	li	a3,0
   12bb0:	00000073          	ecall
   12bb4:	01d14703          	lbu	a4,29(sp)
   12bb8:	4509                	li	a0,2
   12bba:	00a10223          	sb	a0,4(sp)
   12bbe:	00a71d63          	bne	a4,a0,12bd8 <_ZN20complex_dynamic_type3app17h3778b739e63dd9c8E+0x134>
   12bc2:	00198513          	addi	a0,s3,1
   12bc6:	4679                	li	a2,30
   12bc8:	85ca                	mv	a1,s2
   12bca:	0000b097          	auipc	ra,0xb
   12bce:	bac080e7          	jalr	-1108(ra) # 1d776 <memcpy>
   12bd2:	00098023          	sb	zero,0(s3)
   12bd6:	bf55                	j	12b8a <_ZN20complex_dynamic_type3app17h3778b739e63dd9c8E+0xe6>
   12bd8:	6505                	lui	a0,0x1
   12bda:	cbb50513          	addi	a0,a0,-837 # cbb <.Lline_table_start1+0xa90>
   12bde:	4595                	li	a1,5
   12be0:	4601                	li	a2,0
   12be2:	4681                	li	a3,0
   12be4:	00000073          	ecall
   12be8:	00414483          	lbu	s1,4(sp)
   12bec:	00198513          	addi	a0,s3,1
   12bf0:	4679                	li	a2,30
   12bf2:	85ca                	mv	a1,s2
   12bf4:	0000b097          	auipc	ra,0xb
   12bf8:	b82080e7          	jalr	-1150(ra) # 1d776 <memcpy>
   12bfc:	4509                	li	a0,2
   12bfe:	00098023          	sb	zero,0(s3)
   12c02:	f6a49be3          	bne	s1,a0,12b78 <_ZN20complex_dynamic_type3app17h3778b739e63dd9c8E+0xd4>
   12c06:	b751                	j	12b8a <_ZN20complex_dynamic_type3app17h3778b739e63dd9c8E+0xe6>

00012c08 <_ZN20complex_dynamic_type3app17h377dd998ac008051E>:
   12c08:	711d                	addi	sp,sp,-96
   12c0a:	ce86                	sw	ra,92(sp)
   12c0c:	cca2                	sw	s0,88(sp)
   12c0e:	caa6                	sw	s1,84(sp)
   12c10:	c8ca                	sw	s2,80(sp)
   12c12:	c6ce                	sw	s3,76(sp)
   12c14:	89aa                	mv	s3,a0
   12c16:	4409                	li	s0,2
   12c18:	008101a3          	sb	s0,3(sp)
   12c1c:	0044                	addi	s1,sp,4
   12c1e:	02300613          	li	a2,35
   12c22:	8526                	mv	a0,s1
   12c24:	0000b097          	auipc	ra,0xb
   12c28:	b52080e7          	jalr	-1198(ra) # 1d776 <memcpy>
   12c2c:	02810913          	addi	s2,sp,40
   12c30:	02400613          	li	a2,36
   12c34:	854a                	mv	a0,s2
   12c36:	4581                	li	a1,0
   12c38:	0000b097          	auipc	ra,0xb
   12c3c:	ad2080e7          	jalr	-1326(ra) # 1d70a <memset>
   12c40:	8626                	mv	a2,s1
   12c42:	028103a3          	sb	s0,39(sp)
   12c46:	6509                	lui	a0,0x2
   12c48:	4491                	li	s1,4
   12c4a:	4591                	li	a1,4
   12c4c:	bd650793          	addi	a5,a0,-1066 # 1bd6 <.Lline_table_start1+0x19ab>
   12c50:	02300693          	li	a3,35
   12c54:	4711                	li	a4,4
   12c56:	853e                	mv	a0,a5
   12c58:	00000073          	ecall
   12c5c:	00851863          	bne	a0,s0,12c6c <_ZN20complex_dynamic_type3app17h377dd998ac008051E+0x64>
   12c60:	4505                	li	a0,1
   12c62:	00a98023          	sb	a0,0(s3)
   12c66:	00b9a223          	sw	a1,4(s3)
   12c6a:	a0bd                	j	12cd8 <_ZN20complex_dynamic_type3app17h377dd998ac008051E+0xd0>
   12c6c:	853e                	mv	a0,a5
   12c6e:	864a                	mv	a2,s2
   12c70:	009101a3          	sb	s1,3(sp)
   12c74:	478d                	li	a5,3
   12c76:	45a1                	li	a1,8
   12c78:	02400693          	li	a3,36
   12c7c:	470d                	li	a4,3
   12c7e:	00000073          	ecall
   12c82:	00851d63          	bne	a0,s0,12c9c <_ZN20complex_dynamic_type3app17h377dd998ac008051E+0x94>
   12c86:	02714703          	lbu	a4,39(sp)
   12c8a:	4505                	li	a0,1
   12c8c:	4609                	li	a2,2
   12c8e:	00a98023          	sb	a0,0(s3)
   12c92:	00b9a223          	sw	a1,4(s3)
   12c96:	02c71963          	bne	a4,a2,12cc8 <_ZN20complex_dynamic_type3app17h377dd998ac008051E+0xc0>
   12c9a:	a83d                	j	12cd8 <_ZN20complex_dynamic_type3app17h377dd998ac008051E+0xd0>
   12c9c:	4681                	li	a3,0
   12c9e:	02f103a3          	sb	a5,39(sp)
   12ca2:	6509                	lui	a0,0x2
   12ca4:	4591                	li	a1,4
   12ca6:	4621                	li	a2,8
   12ca8:	4709                	li	a4,2
   12caa:	bd650513          	addi	a0,a0,-1066 # 1bd6 <.Lline_table_start1+0x19ab>
   12cae:	07f00793          	li	a5,127
   12cb2:	00000073          	ecall
   12cb6:	4609                	li	a2,2
   12cb8:	04a7e563          	bltu	a5,a0,12d02 <_ZN20complex_dynamic_type3app17h377dd998ac008051E+0xfa>
   12cbc:	4505                	li	a0,1
   12cbe:	00a98023          	sb	a0,0(s3)
   12cc2:	00b9a223          	sw	a1,4(s3)
   12cc6:	470d                	li	a4,3
   12cc8:	6509                	lui	a0,0x2
   12cca:	bd650513          	addi	a0,a0,-1066 # 1bd6 <.Lline_table_start1+0x19ab>
   12cce:	45a1                	li	a1,8
   12cd0:	4601                	li	a2,0
   12cd2:	4681                	li	a3,0
   12cd4:	00000073          	ecall
   12cd8:	00314483          	lbu	s1,3(sp)
   12cdc:	4509                	li	a0,2
   12cde:	00a48b63          	beq	s1,a0,12cf4 <_ZN20complex_dynamic_type3app17h377dd998ac008051E+0xec>
   12ce2:	6509                	lui	a0,0x2
   12ce4:	bd650513          	addi	a0,a0,-1066 # 1bd6 <.Lline_table_start1+0x19ab>
   12ce8:	4591                	li	a1,4
   12cea:	4601                	li	a2,0
   12cec:	4681                	li	a3,0
   12cee:	8726                	mv	a4,s1
   12cf0:	00000073          	ecall
   12cf4:	40f6                	lw	ra,92(sp)
   12cf6:	4466                	lw	s0,88(sp)
   12cf8:	44d6                	lw	s1,84(sp)
   12cfa:	4946                	lw	s2,80(sp)
   12cfc:	49b6                	lw	s3,76(sp)
   12cfe:	6125                	addi	sp,sp,96
   12d00:	8082                	ret
   12d02:	00314703          	lbu	a4,3(sp)
   12d06:	00c71463          	bne	a4,a2,12d0e <_ZN20complex_dynamic_type3app17h377dd998ac008051E+0x106>
   12d0a:	470d                	li	a4,3
   12d0c:	a825                	j	12d44 <_ZN20complex_dynamic_type3app17h377dd998ac008051E+0x13c>
   12d0e:	6509                	lui	a0,0x2
   12d10:	bd650513          	addi	a0,a0,-1066 # 1bd6 <.Lline_table_start1+0x19ab>
   12d14:	4591                	li	a1,4
   12d16:	4601                	li	a2,0
   12d18:	4681                	li	a3,0
   12d1a:	00000073          	ecall
   12d1e:	02714703          	lbu	a4,39(sp)
   12d22:	4509                	li	a0,2
   12d24:	00a101a3          	sb	a0,3(sp)
   12d28:	00a71e63          	bne	a4,a0,12d44 <_ZN20complex_dynamic_type3app17h377dd998ac008051E+0x13c>
   12d2c:	00198513          	addi	a0,s3,1
   12d30:	02400613          	li	a2,36
   12d34:	85ca                	mv	a1,s2
   12d36:	0000b097          	auipc	ra,0xb
   12d3a:	a40080e7          	jalr	-1472(ra) # 1d776 <memcpy>
   12d3e:	00098023          	sb	zero,0(s3)
   12d42:	bf4d                	j	12cf4 <_ZN20complex_dynamic_type3app17h377dd998ac008051E+0xec>
   12d44:	6509                	lui	a0,0x2
   12d46:	bd650513          	addi	a0,a0,-1066 # 1bd6 <.Lline_table_start1+0x19ab>
   12d4a:	45a1                	li	a1,8
   12d4c:	4601                	li	a2,0
   12d4e:	4681                	li	a3,0
   12d50:	00000073          	ecall
   12d54:	00314483          	lbu	s1,3(sp)
   12d58:	00198513          	addi	a0,s3,1
   12d5c:	02400613          	li	a2,36
   12d60:	85ca                	mv	a1,s2
   12d62:	0000b097          	auipc	ra,0xb
   12d66:	a14080e7          	jalr	-1516(ra) # 1d776 <memcpy>
   12d6a:	4509                	li	a0,2
   12d6c:	00098023          	sb	zero,0(s3)
   12d70:	f6a499e3          	bne	s1,a0,12ce2 <_ZN20complex_dynamic_type3app17h377dd998ac008051E+0xda>
   12d74:	b741                	j	12cf4 <_ZN20complex_dynamic_type3app17h377dd998ac008051E+0xec>

00012d76 <_ZN20complex_dynamic_type3app17h37c1b71c2320af89E>:
   12d76:	7119                	addi	sp,sp,-128
   12d78:	de86                	sw	ra,124(sp)
   12d7a:	dca2                	sw	s0,120(sp)
   12d7c:	daa6                	sw	s1,116(sp)
   12d7e:	d8ca                	sw	s2,112(sp)
   12d80:	d6ce                	sw	s3,108(sp)
   12d82:	89aa                	mv	s3,a0
   12d84:	4409                	li	s0,2
   12d86:	008107a3          	sb	s0,15(sp)
   12d8a:	0804                	addi	s1,sp,16
   12d8c:	03f00613          	li	a2,63
   12d90:	8526                	mv	a0,s1
   12d92:	0000b097          	auipc	ra,0xb
   12d96:	9e4080e7          	jalr	-1564(ra) # 1d776 <memcpy>
   12d9a:	05010913          	addi	s2,sp,80
   12d9e:	4671                	li	a2,28
   12da0:	854a                	mv	a0,s2
   12da2:	4581                	li	a1,0
   12da4:	0000b097          	auipc	ra,0xb
   12da8:	966080e7          	jalr	-1690(ra) # 1d70a <memset>
   12dac:	8626                	mv	a2,s1
   12dae:	048107a3          	sb	s0,79(sp)
   12db2:	6505                	lui	a0,0x1
   12db4:	4491                	li	s1,4
   12db6:	4595                	li	a1,5
   12db8:	69450793          	addi	a5,a0,1684 # 1694 <.Lline_table_start1+0x1469>
   12dbc:	03f00693          	li	a3,63
   12dc0:	4711                	li	a4,4
   12dc2:	853e                	mv	a0,a5
   12dc4:	00000073          	ecall
   12dc8:	00851863          	bne	a0,s0,12dd8 <_ZN20complex_dynamic_type3app17h37c1b71c2320af89E+0x62>
   12dcc:	4505                	li	a0,1
   12dce:	00a98023          	sb	a0,0(s3)
   12dd2:	00b9a223          	sw	a1,4(s3)
   12dd6:	a0b5                	j	12e42 <_ZN20complex_dynamic_type3app17h37c1b71c2320af89E+0xcc>
   12dd8:	853e                	mv	a0,a5
   12dda:	864a                	mv	a2,s2
   12ddc:	009107a3          	sb	s1,15(sp)
   12de0:	478d                	li	a5,3
   12de2:	45a5                	li	a1,9
   12de4:	46f1                	li	a3,28
   12de6:	470d                	li	a4,3
   12de8:	00000073          	ecall
   12dec:	00851d63          	bne	a0,s0,12e06 <_ZN20complex_dynamic_type3app17h37c1b71c2320af89E+0x90>
   12df0:	04f14703          	lbu	a4,79(sp)
   12df4:	4505                	li	a0,1
   12df6:	4609                	li	a2,2
   12df8:	00a98023          	sb	a0,0(s3)
   12dfc:	00b9a223          	sw	a1,4(s3)
   12e00:	02c71963          	bne	a4,a2,12e32 <_ZN20complex_dynamic_type3app17h37c1b71c2320af89E+0xbc>
   12e04:	a83d                	j	12e42 <_ZN20complex_dynamic_type3app17h37c1b71c2320af89E+0xcc>
   12e06:	4681                	li	a3,0
   12e08:	04f107a3          	sb	a5,79(sp)
   12e0c:	6505                	lui	a0,0x1
   12e0e:	4595                	li	a1,5
   12e10:	4625                	li	a2,9
   12e12:	4709                	li	a4,2
   12e14:	69450513          	addi	a0,a0,1684 # 1694 <.Lline_table_start1+0x1469>
   12e18:	07f00793          	li	a5,127
   12e1c:	00000073          	ecall
   12e20:	4609                	li	a2,2
   12e22:	04a7e563          	bltu	a5,a0,12e6c <_ZN20complex_dynamic_type3app17h37c1b71c2320af89E+0xf6>
   12e26:	4505                	li	a0,1
   12e28:	00a98023          	sb	a0,0(s3)
   12e2c:	00b9a223          	sw	a1,4(s3)
   12e30:	470d                	li	a4,3
   12e32:	6505                	lui	a0,0x1
   12e34:	69450513          	addi	a0,a0,1684 # 1694 <.Lline_table_start1+0x1469>
   12e38:	45a5                	li	a1,9
   12e3a:	4601                	li	a2,0
   12e3c:	4681                	li	a3,0
   12e3e:	00000073          	ecall
   12e42:	00f14483          	lbu	s1,15(sp)
   12e46:	4509                	li	a0,2
   12e48:	00a48b63          	beq	s1,a0,12e5e <_ZN20complex_dynamic_type3app17h37c1b71c2320af89E+0xe8>
   12e4c:	6505                	lui	a0,0x1
   12e4e:	69450513          	addi	a0,a0,1684 # 1694 <.Lline_table_start1+0x1469>
   12e52:	4595                	li	a1,5
   12e54:	4601                	li	a2,0
   12e56:	4681                	li	a3,0
   12e58:	8726                	mv	a4,s1
   12e5a:	00000073          	ecall
   12e5e:	50f6                	lw	ra,124(sp)
   12e60:	5466                	lw	s0,120(sp)
   12e62:	54d6                	lw	s1,116(sp)
   12e64:	5946                	lw	s2,112(sp)
   12e66:	59b6                	lw	s3,108(sp)
   12e68:	6109                	addi	sp,sp,128
   12e6a:	8082                	ret
   12e6c:	00f14703          	lbu	a4,15(sp)
   12e70:	00c71463          	bne	a4,a2,12e78 <_ZN20complex_dynamic_type3app17h37c1b71c2320af89E+0x102>
   12e74:	470d                	li	a4,3
   12e76:	a81d                	j	12eac <_ZN20complex_dynamic_type3app17h37c1b71c2320af89E+0x136>
   12e78:	6505                	lui	a0,0x1
   12e7a:	69450513          	addi	a0,a0,1684 # 1694 <.Lline_table_start1+0x1469>
   12e7e:	4595                	li	a1,5
   12e80:	4601                	li	a2,0
   12e82:	4681                	li	a3,0
   12e84:	00000073          	ecall
   12e88:	04f14703          	lbu	a4,79(sp)
   12e8c:	4509                	li	a0,2
   12e8e:	00a107a3          	sb	a0,15(sp)
   12e92:	00a71d63          	bne	a4,a0,12eac <_ZN20complex_dynamic_type3app17h37c1b71c2320af89E+0x136>
   12e96:	00198513          	addi	a0,s3,1
   12e9a:	4671                	li	a2,28
   12e9c:	85ca                	mv	a1,s2
   12e9e:	0000b097          	auipc	ra,0xb
   12ea2:	8d8080e7          	jalr	-1832(ra) # 1d776 <memcpy>
   12ea6:	00098023          	sb	zero,0(s3)
   12eaa:	bf55                	j	12e5e <_ZN20complex_dynamic_type3app17h37c1b71c2320af89E+0xe8>
   12eac:	6505                	lui	a0,0x1
   12eae:	69450513          	addi	a0,a0,1684 # 1694 <.Lline_table_start1+0x1469>
   12eb2:	45a5                	li	a1,9
   12eb4:	4601                	li	a2,0
   12eb6:	4681                	li	a3,0
   12eb8:	00000073          	ecall
   12ebc:	00f14483          	lbu	s1,15(sp)
   12ec0:	00198513          	addi	a0,s3,1
   12ec4:	4671                	li	a2,28
   12ec6:	85ca                	mv	a1,s2
   12ec8:	0000b097          	auipc	ra,0xb
   12ecc:	8ae080e7          	jalr	-1874(ra) # 1d776 <memcpy>
   12ed0:	4509                	li	a0,2
   12ed2:	00098023          	sb	zero,0(s3)
   12ed6:	f6a49be3          	bne	s1,a0,12e4c <_ZN20complex_dynamic_type3app17h37c1b71c2320af89E+0xd6>
   12eda:	b751                	j	12e5e <_ZN20complex_dynamic_type3app17h37c1b71c2320af89E+0xe8>

00012edc <_ZN20complex_dynamic_type3app17h3d78bd97982c9a47E>:
   12edc:	7119                	addi	sp,sp,-128
   12ede:	de86                	sw	ra,124(sp)
   12ee0:	dca2                	sw	s0,120(sp)
   12ee2:	daa6                	sw	s1,116(sp)
   12ee4:	d8ca                	sw	s2,112(sp)
   12ee6:	d6ce                	sw	s3,108(sp)
   12ee8:	89aa                	mv	s3,a0
   12eea:	4409                	li	s0,2
   12eec:	00810323          	sb	s0,6(sp)
   12ef0:	00710493          	addi	s1,sp,7
   12ef4:	03200613          	li	a2,50
   12ef8:	8526                	mv	a0,s1
   12efa:	0000b097          	auipc	ra,0xb
   12efe:	87c080e7          	jalr	-1924(ra) # 1d776 <memcpy>
   12f02:	03a10913          	addi	s2,sp,58
   12f06:	03200613          	li	a2,50
   12f0a:	854a                	mv	a0,s2
   12f0c:	4581                	li	a1,0
   12f0e:	0000a097          	auipc	ra,0xa
   12f12:	7fc080e7          	jalr	2044(ra) # 1d70a <memset>
   12f16:	8626                	mv	a2,s1
   12f18:	02810ca3          	sb	s0,57(sp)
   12f1c:	6509                	lui	a0,0x2
   12f1e:	4491                	li	s1,4
   12f20:	458d                	li	a1,3
   12f22:	f0750793          	addi	a5,a0,-249 # 1f07 <.Lline_table_start1+0x1cdc>
   12f26:	03200693          	li	a3,50
   12f2a:	4711                	li	a4,4
   12f2c:	853e                	mv	a0,a5
   12f2e:	00000073          	ecall
   12f32:	00851863          	bne	a0,s0,12f42 <_ZN20complex_dynamic_type3app17h3d78bd97982c9a47E+0x66>
   12f36:	4505                	li	a0,1
   12f38:	00a98023          	sb	a0,0(s3)
   12f3c:	00b9a223          	sw	a1,4(s3)
   12f40:	a0bd                	j	12fae <_ZN20complex_dynamic_type3app17h3d78bd97982c9a47E+0xd2>
   12f42:	853e                	mv	a0,a5
   12f44:	864a                	mv	a2,s2
   12f46:	00910323          	sb	s1,6(sp)
   12f4a:	4785                	li	a5,1
   12f4c:	448d                	li	s1,3
   12f4e:	4585                	li	a1,1
   12f50:	03200693          	li	a3,50
   12f54:	470d                	li	a4,3
   12f56:	00000073          	ecall
   12f5a:	00851c63          	bne	a0,s0,12f72 <_ZN20complex_dynamic_type3app17h3d78bd97982c9a47E+0x96>
   12f5e:	03914703          	lbu	a4,57(sp)
   12f62:	4509                	li	a0,2
   12f64:	00f98023          	sb	a5,0(s3)
   12f68:	00b9a223          	sw	a1,4(s3)
   12f6c:	02a71963          	bne	a4,a0,12f9e <_ZN20complex_dynamic_type3app17h3d78bd97982c9a47E+0xc2>
   12f70:	a83d                	j	12fae <_ZN20complex_dynamic_type3app17h3d78bd97982c9a47E+0xd2>
   12f72:	4681                	li	a3,0
   12f74:	02910ca3          	sb	s1,57(sp)
   12f78:	6509                	lui	a0,0x2
   12f7a:	4785                	li	a5,1
   12f7c:	458d                	li	a1,3
   12f7e:	4605                	li	a2,1
   12f80:	4709                	li	a4,2
   12f82:	f0750513          	addi	a0,a0,-249 # 1f07 <.Lline_table_start1+0x1cdc>
   12f86:	07f00493          	li	s1,127
   12f8a:	00000073          	ecall
   12f8e:	4609                	li	a2,2
   12f90:	04a4e463          	bltu	s1,a0,12fd8 <_ZN20complex_dynamic_type3app17h3d78bd97982c9a47E+0xfc>
   12f94:	00f98023          	sb	a5,0(s3)
   12f98:	00b9a223          	sw	a1,4(s3)
   12f9c:	470d                	li	a4,3
   12f9e:	6509                	lui	a0,0x2
   12fa0:	f0750513          	addi	a0,a0,-249 # 1f07 <.Lline_table_start1+0x1cdc>
   12fa4:	4585                	li	a1,1
   12fa6:	4601                	li	a2,0
   12fa8:	4681                	li	a3,0
   12faa:	00000073          	ecall
   12fae:	00614483          	lbu	s1,6(sp)
   12fb2:	4509                	li	a0,2
   12fb4:	00a48b63          	beq	s1,a0,12fca <_ZN20complex_dynamic_type3app17h3d78bd97982c9a47E+0xee>
   12fb8:	6509                	lui	a0,0x2
   12fba:	f0750513          	addi	a0,a0,-249 # 1f07 <.Lline_table_start1+0x1cdc>
   12fbe:	458d                	li	a1,3
   12fc0:	4601                	li	a2,0
   12fc2:	4681                	li	a3,0
   12fc4:	8726                	mv	a4,s1
   12fc6:	00000073          	ecall
   12fca:	50f6                	lw	ra,124(sp)
   12fcc:	5466                	lw	s0,120(sp)
   12fce:	54d6                	lw	s1,116(sp)
   12fd0:	5946                	lw	s2,112(sp)
   12fd2:	59b6                	lw	s3,108(sp)
   12fd4:	6109                	addi	sp,sp,128
   12fd6:	8082                	ret
   12fd8:	00614703          	lbu	a4,6(sp)
   12fdc:	00c71463          	bne	a4,a2,12fe4 <_ZN20complex_dynamic_type3app17h3d78bd97982c9a47E+0x108>
   12fe0:	470d                	li	a4,3
   12fe2:	a825                	j	1301a <_ZN20complex_dynamic_type3app17h3d78bd97982c9a47E+0x13e>
   12fe4:	6509                	lui	a0,0x2
   12fe6:	f0750513          	addi	a0,a0,-249 # 1f07 <.Lline_table_start1+0x1cdc>
   12fea:	458d                	li	a1,3
   12fec:	4601                	li	a2,0
   12fee:	4681                	li	a3,0
   12ff0:	00000073          	ecall
   12ff4:	03914703          	lbu	a4,57(sp)
   12ff8:	4509                	li	a0,2
   12ffa:	00a10323          	sb	a0,6(sp)
   12ffe:	00a71e63          	bne	a4,a0,1301a <_ZN20complex_dynamic_type3app17h3d78bd97982c9a47E+0x13e>
   13002:	00198513          	addi	a0,s3,1
   13006:	03200613          	li	a2,50
   1300a:	85ca                	mv	a1,s2
   1300c:	0000a097          	auipc	ra,0xa
   13010:	76a080e7          	jalr	1898(ra) # 1d776 <memcpy>
   13014:	00098023          	sb	zero,0(s3)
   13018:	bf4d                	j	12fca <_ZN20complex_dynamic_type3app17h3d78bd97982c9a47E+0xee>
   1301a:	6509                	lui	a0,0x2
   1301c:	f0750513          	addi	a0,a0,-249 # 1f07 <.Lline_table_start1+0x1cdc>
   13020:	4585                	li	a1,1
   13022:	4601                	li	a2,0
   13024:	4681                	li	a3,0
   13026:	00000073          	ecall
   1302a:	00614483          	lbu	s1,6(sp)
   1302e:	00198513          	addi	a0,s3,1
   13032:	03200613          	li	a2,50
   13036:	85ca                	mv	a1,s2
   13038:	0000a097          	auipc	ra,0xa
   1303c:	73e080e7          	jalr	1854(ra) # 1d776 <memcpy>
   13040:	4509                	li	a0,2
   13042:	00098023          	sb	zero,0(s3)
   13046:	f6a499e3          	bne	s1,a0,12fb8 <_ZN20complex_dynamic_type3app17h3d78bd97982c9a47E+0xdc>
   1304a:	b741                	j	12fca <_ZN20complex_dynamic_type3app17h3d78bd97982c9a47E+0xee>

0001304c <_ZN20complex_dynamic_type3app17h3e2af9fa9e28f01cE>:
   1304c:	711d                	addi	sp,sp,-96
   1304e:	ce86                	sw	ra,92(sp)
   13050:	cca2                	sw	s0,88(sp)
   13052:	caa6                	sw	s1,84(sp)
   13054:	c8ca                	sw	s2,80(sp)
   13056:	c6ce                	sw	s3,76(sp)
   13058:	89aa                	mv	s3,a0
   1305a:	4409                	li	s0,2
   1305c:	00810223          	sb	s0,4(sp)
   13060:	00510493          	addi	s1,sp,5
   13064:	4641                	li	a2,16
   13066:	8526                	mv	a0,s1
   13068:	0000a097          	auipc	ra,0xa
   1306c:	70e080e7          	jalr	1806(ra) # 1d776 <memcpy>
   13070:	01610913          	addi	s2,sp,22
   13074:	03600613          	li	a2,54
   13078:	854a                	mv	a0,s2
   1307a:	4581                	li	a1,0
   1307c:	0000a097          	auipc	ra,0xa
   13080:	68e080e7          	jalr	1678(ra) # 1d70a <memset>
   13084:	8626                	mv	a2,s1
   13086:	00810aa3          	sb	s0,21(sp)
   1308a:	6509                	lui	a0,0x2
   1308c:	4805                	li	a6,1
   1308e:	4491                	li	s1,4
   13090:	4585                	li	a1,1
   13092:	98950793          	addi	a5,a0,-1655 # 1989 <.Lline_table_start1+0x175e>
   13096:	46c1                	li	a3,16
   13098:	4711                	li	a4,4
   1309a:	853e                	mv	a0,a5
   1309c:	00000073          	ecall
   130a0:	00851763          	bne	a0,s0,130ae <_ZN20complex_dynamic_type3app17h3e2af9fa9e28f01cE+0x62>
   130a4:	01098023          	sb	a6,0(s3)
   130a8:	00b9a223          	sw	a1,4(s3)
   130ac:	a0bd                	j	1311a <_ZN20complex_dynamic_type3app17h3e2af9fa9e28f01cE+0xce>
   130ae:	853e                	mv	a0,a5
   130b0:	864a                	mv	a2,s2
   130b2:	00910223          	sb	s1,4(sp)
   130b6:	478d                	li	a5,3
   130b8:	459d                	li	a1,7
   130ba:	03600693          	li	a3,54
   130be:	470d                	li	a4,3
   130c0:	00000073          	ecall
   130c4:	00851d63          	bne	a0,s0,130de <_ZN20complex_dynamic_type3app17h3e2af9fa9e28f01cE+0x92>
   130c8:	01514703          	lbu	a4,21(sp)
   130cc:	4505                	li	a0,1
   130ce:	4609                	li	a2,2
   130d0:	00a98023          	sb	a0,0(s3)
   130d4:	00b9a223          	sw	a1,4(s3)
   130d8:	02c71963          	bne	a4,a2,1310a <_ZN20complex_dynamic_type3app17h3e2af9fa9e28f01cE+0xbe>
   130dc:	a83d                	j	1311a <_ZN20complex_dynamic_type3app17h3e2af9fa9e28f01cE+0xce>
   130de:	4681                	li	a3,0
   130e0:	00f10aa3          	sb	a5,21(sp)
   130e4:	6509                	lui	a0,0x2
   130e6:	4785                	li	a5,1
   130e8:	4585                	li	a1,1
   130ea:	461d                	li	a2,7
   130ec:	4709                	li	a4,2
   130ee:	98950513          	addi	a0,a0,-1655 # 1989 <.Lline_table_start1+0x175e>
   130f2:	07f00493          	li	s1,127
   130f6:	00000073          	ecall
   130fa:	4609                	li	a2,2
   130fc:	04a4e463          	bltu	s1,a0,13144 <_ZN20complex_dynamic_type3app17h3e2af9fa9e28f01cE+0xf8>
   13100:	00f98023          	sb	a5,0(s3)
   13104:	00b9a223          	sw	a1,4(s3)
   13108:	470d                	li	a4,3
   1310a:	6509                	lui	a0,0x2
   1310c:	98950513          	addi	a0,a0,-1655 # 1989 <.Lline_table_start1+0x175e>
   13110:	459d                	li	a1,7
   13112:	4601                	li	a2,0
   13114:	4681                	li	a3,0
   13116:	00000073          	ecall
   1311a:	00414483          	lbu	s1,4(sp)
   1311e:	4509                	li	a0,2
   13120:	00a48b63          	beq	s1,a0,13136 <_ZN20complex_dynamic_type3app17h3e2af9fa9e28f01cE+0xea>
   13124:	6509                	lui	a0,0x2
   13126:	98950513          	addi	a0,a0,-1655 # 1989 <.Lline_table_start1+0x175e>
   1312a:	4585                	li	a1,1
   1312c:	4601                	li	a2,0
   1312e:	4681                	li	a3,0
   13130:	8726                	mv	a4,s1
   13132:	00000073          	ecall
   13136:	40f6                	lw	ra,92(sp)
   13138:	4466                	lw	s0,88(sp)
   1313a:	44d6                	lw	s1,84(sp)
   1313c:	4946                	lw	s2,80(sp)
   1313e:	49b6                	lw	s3,76(sp)
   13140:	6125                	addi	sp,sp,96
   13142:	8082                	ret
   13144:	00414703          	lbu	a4,4(sp)
   13148:	00c71463          	bne	a4,a2,13150 <_ZN20complex_dynamic_type3app17h3e2af9fa9e28f01cE+0x104>
   1314c:	470d                	li	a4,3
   1314e:	a825                	j	13186 <_ZN20complex_dynamic_type3app17h3e2af9fa9e28f01cE+0x13a>
   13150:	6509                	lui	a0,0x2
   13152:	98950513          	addi	a0,a0,-1655 # 1989 <.Lline_table_start1+0x175e>
   13156:	4585                	li	a1,1
   13158:	4601                	li	a2,0
   1315a:	4681                	li	a3,0
   1315c:	00000073          	ecall
   13160:	01514703          	lbu	a4,21(sp)
   13164:	4509                	li	a0,2
   13166:	00a10223          	sb	a0,4(sp)
   1316a:	00a71e63          	bne	a4,a0,13186 <_ZN20complex_dynamic_type3app17h3e2af9fa9e28f01cE+0x13a>
   1316e:	00198513          	addi	a0,s3,1
   13172:	03600613          	li	a2,54
   13176:	85ca                	mv	a1,s2
   13178:	0000a097          	auipc	ra,0xa
   1317c:	5fe080e7          	jalr	1534(ra) # 1d776 <memcpy>
   13180:	00098023          	sb	zero,0(s3)
   13184:	bf4d                	j	13136 <_ZN20complex_dynamic_type3app17h3e2af9fa9e28f01cE+0xea>
   13186:	6509                	lui	a0,0x2
   13188:	98950513          	addi	a0,a0,-1655 # 1989 <.Lline_table_start1+0x175e>
   1318c:	459d                	li	a1,7
   1318e:	4601                	li	a2,0
   13190:	4681                	li	a3,0
   13192:	00000073          	ecall
   13196:	00414483          	lbu	s1,4(sp)
   1319a:	00198513          	addi	a0,s3,1
   1319e:	03600613          	li	a2,54
   131a2:	85ca                	mv	a1,s2
   131a4:	0000a097          	auipc	ra,0xa
   131a8:	5d2080e7          	jalr	1490(ra) # 1d776 <memcpy>
   131ac:	4509                	li	a0,2
   131ae:	00098023          	sb	zero,0(s3)
   131b2:	f6a499e3          	bne	s1,a0,13124 <_ZN20complex_dynamic_type3app17h3e2af9fa9e28f01cE+0xd8>
   131b6:	b741                	j	13136 <_ZN20complex_dynamic_type3app17h3e2af9fa9e28f01cE+0xea>

000131b8 <_ZN20complex_dynamic_type3app17h4089eb4394539928E>:
   131b8:	7175                	addi	sp,sp,-144
   131ba:	c706                	sw	ra,140(sp)
   131bc:	c522                	sw	s0,136(sp)
   131be:	c326                	sw	s1,132(sp)
   131c0:	c14a                	sw	s2,128(sp)
   131c2:	dece                	sw	s3,124(sp)
   131c4:	89aa                	mv	s3,a0
   131c6:	4409                	li	s0,2
   131c8:	00810723          	sb	s0,14(sp)
   131cc:	00f10493          	addi	s1,sp,15
   131d0:	03800613          	li	a2,56
   131d4:	8526                	mv	a0,s1
   131d6:	0000a097          	auipc	ra,0xa
   131da:	5a0080e7          	jalr	1440(ra) # 1d776 <memcpy>
   131de:	04810913          	addi	s2,sp,72
   131e2:	03400613          	li	a2,52
   131e6:	854a                	mv	a0,s2
   131e8:	4581                	li	a1,0
   131ea:	0000a097          	auipc	ra,0xa
   131ee:	520080e7          	jalr	1312(ra) # 1d70a <memset>
   131f2:	8626                	mv	a2,s1
   131f4:	048103a3          	sb	s0,71(sp)
   131f8:	4791                	li	a5,4
   131fa:	12e00513          	li	a0,302
   131fe:	45a1                	li	a1,8
   13200:	03800693          	li	a3,56
   13204:	4711                	li	a4,4
   13206:	00000073          	ecall
   1320a:	00851863          	bne	a0,s0,1321a <_ZN20complex_dynamic_type3app17h4089eb4394539928E+0x62>
   1320e:	4505                	li	a0,1
   13210:	00a98023          	sb	a0,0(s3)
   13214:	00b9a223          	sw	a1,4(s3)
   13218:	a0b5                	j	13284 <_ZN20complex_dynamic_type3app17h4089eb4394539928E+0xcc>
   1321a:	864a                	mv	a2,s2
   1321c:	00f10723          	sb	a5,14(sp)
   13220:	478d                	li	a5,3
   13222:	12e00513          	li	a0,302
   13226:	458d                	li	a1,3
   13228:	03400693          	li	a3,52
   1322c:	470d                	li	a4,3
   1322e:	00000073          	ecall
   13232:	00851d63          	bne	a0,s0,1324c <_ZN20complex_dynamic_type3app17h4089eb4394539928E+0x94>
   13236:	04714703          	lbu	a4,71(sp)
   1323a:	4505                	li	a0,1
   1323c:	4609                	li	a2,2
   1323e:	00a98023          	sb	a0,0(s3)
   13242:	00b9a223          	sw	a1,4(s3)
   13246:	02c71863          	bne	a4,a2,13276 <_ZN20complex_dynamic_type3app17h4089eb4394539928E+0xbe>
   1324a:	a82d                	j	13284 <_ZN20complex_dynamic_type3app17h4089eb4394539928E+0xcc>
   1324c:	4681                	li	a3,0
   1324e:	04f103a3          	sb	a5,71(sp)
   13252:	12e00513          	li	a0,302
   13256:	45a1                	li	a1,8
   13258:	460d                	li	a2,3
   1325a:	4709                	li	a4,2
   1325c:	07f00793          	li	a5,127
   13260:	00000073          	ecall
   13264:	4609                	li	a2,2
   13266:	04a7e363          	bltu	a5,a0,132ac <_ZN20complex_dynamic_type3app17h4089eb4394539928E+0xf4>
   1326a:	4505                	li	a0,1
   1326c:	00a98023          	sb	a0,0(s3)
   13270:	00b9a223          	sw	a1,4(s3)
   13274:	470d                	li	a4,3
   13276:	12e00513          	li	a0,302
   1327a:	458d                	li	a1,3
   1327c:	4601                	li	a2,0
   1327e:	4681                	li	a3,0
   13280:	00000073          	ecall
   13284:	00e14483          	lbu	s1,14(sp)
   13288:	4509                	li	a0,2
   1328a:	00a48a63          	beq	s1,a0,1329e <_ZN20complex_dynamic_type3app17h4089eb4394539928E+0xe6>
   1328e:	12e00513          	li	a0,302
   13292:	45a1                	li	a1,8
   13294:	4601                	li	a2,0
   13296:	4681                	li	a3,0
   13298:	8726                	mv	a4,s1
   1329a:	00000073          	ecall
   1329e:	40ba                	lw	ra,140(sp)
   132a0:	442a                	lw	s0,136(sp)
   132a2:	449a                	lw	s1,132(sp)
   132a4:	490a                	lw	s2,128(sp)
   132a6:	59f6                	lw	s3,124(sp)
   132a8:	6149                	addi	sp,sp,144
   132aa:	8082                	ret
   132ac:	00e14703          	lbu	a4,14(sp)
   132b0:	00c71463          	bne	a4,a2,132b8 <_ZN20complex_dynamic_type3app17h4089eb4394539928E+0x100>
   132b4:	470d                	li	a4,3
   132b6:	a81d                	j	132ec <_ZN20complex_dynamic_type3app17h4089eb4394539928E+0x134>
   132b8:	12e00513          	li	a0,302
   132bc:	45a1                	li	a1,8
   132be:	4601                	li	a2,0
   132c0:	4681                	li	a3,0
   132c2:	00000073          	ecall
   132c6:	04714703          	lbu	a4,71(sp)
   132ca:	4509                	li	a0,2
   132cc:	00a10723          	sb	a0,14(sp)
   132d0:	00a71e63          	bne	a4,a0,132ec <_ZN20complex_dynamic_type3app17h4089eb4394539928E+0x134>
   132d4:	00198513          	addi	a0,s3,1
   132d8:	03400613          	li	a2,52
   132dc:	85ca                	mv	a1,s2
   132de:	0000a097          	auipc	ra,0xa
   132e2:	498080e7          	jalr	1176(ra) # 1d776 <memcpy>
   132e6:	00098023          	sb	zero,0(s3)
   132ea:	bf55                	j	1329e <_ZN20complex_dynamic_type3app17h4089eb4394539928E+0xe6>
   132ec:	12e00513          	li	a0,302
   132f0:	458d                	li	a1,3
   132f2:	4601                	li	a2,0
   132f4:	4681                	li	a3,0
   132f6:	00000073          	ecall
   132fa:	00e14483          	lbu	s1,14(sp)
   132fe:	00198513          	addi	a0,s3,1
   13302:	03400613          	li	a2,52
   13306:	85ca                	mv	a1,s2
   13308:	0000a097          	auipc	ra,0xa
   1330c:	46e080e7          	jalr	1134(ra) # 1d776 <memcpy>
   13310:	4509                	li	a0,2
   13312:	00098023          	sb	zero,0(s3)
   13316:	f6a49ce3          	bne	s1,a0,1328e <_ZN20complex_dynamic_type3app17h4089eb4394539928E+0xd6>
   1331a:	b751                	j	1329e <_ZN20complex_dynamic_type3app17h4089eb4394539928E+0xe6>

0001331c <_ZN20complex_dynamic_type3app17h44e45ae3c8ebd4cfE>:
   1331c:	7159                	addi	sp,sp,-112
   1331e:	d686                	sw	ra,108(sp)
   13320:	d4a2                	sw	s0,104(sp)
   13322:	d2a6                	sw	s1,100(sp)
   13324:	d0ca                	sw	s2,96(sp)
   13326:	cece                	sw	s3,92(sp)
   13328:	89aa                	mv	s3,a0
   1332a:	4409                	li	s0,2
   1332c:	008102a3          	sb	s0,5(sp)
   13330:	00610493          	addi	s1,sp,6
   13334:	463d                	li	a2,15
   13336:	8526                	mv	a0,s1
   13338:	0000a097          	auipc	ra,0xa
   1333c:	43e080e7          	jalr	1086(ra) # 1d776 <memcpy>
   13340:	01610913          	addi	s2,sp,22
   13344:	04600613          	li	a2,70
   13348:	854a                	mv	a0,s2
   1334a:	4581                	li	a1,0
   1334c:	0000a097          	auipc	ra,0xa
   13350:	3be080e7          	jalr	958(ra) # 1d70a <memset>
   13354:	8626                	mv	a2,s1
   13356:	00810aa3          	sb	s0,21(sp)
   1335a:	6509                	lui	a0,0x2
   1335c:	4491                	li	s1,4
   1335e:	45a5                	li	a1,9
   13360:	d7e50793          	addi	a5,a0,-642 # 1d7e <.Lline_table_start1+0x1b53>
   13364:	46bd                	li	a3,15
   13366:	4711                	li	a4,4
   13368:	853e                	mv	a0,a5
   1336a:	00000073          	ecall
   1336e:	00851863          	bne	a0,s0,1337e <_ZN20complex_dynamic_type3app17h44e45ae3c8ebd4cfE+0x62>
   13372:	4505                	li	a0,1
   13374:	00a98023          	sb	a0,0(s3)
   13378:	00b9a223          	sw	a1,4(s3)
   1337c:	a0bd                	j	133ea <_ZN20complex_dynamic_type3app17h44e45ae3c8ebd4cfE+0xce>
   1337e:	853e                	mv	a0,a5
   13380:	864a                	mv	a2,s2
   13382:	009102a3          	sb	s1,5(sp)
   13386:	478d                	li	a5,3
   13388:	4589                	li	a1,2
   1338a:	04600693          	li	a3,70
   1338e:	470d                	li	a4,3
   13390:	00000073          	ecall
   13394:	00851d63          	bne	a0,s0,133ae <_ZN20complex_dynamic_type3app17h44e45ae3c8ebd4cfE+0x92>
   13398:	01514703          	lbu	a4,21(sp)
   1339c:	4505                	li	a0,1
   1339e:	4609                	li	a2,2
   133a0:	00a98023          	sb	a0,0(s3)
   133a4:	00b9a223          	sw	a1,4(s3)
   133a8:	02c71963          	bne	a4,a2,133da <_ZN20complex_dynamic_type3app17h44e45ae3c8ebd4cfE+0xbe>
   133ac:	a83d                	j	133ea <_ZN20complex_dynamic_type3app17h44e45ae3c8ebd4cfE+0xce>
   133ae:	4681                	li	a3,0
   133b0:	00f10aa3          	sb	a5,21(sp)
   133b4:	6509                	lui	a0,0x2
   133b6:	45a5                	li	a1,9
   133b8:	4609                	li	a2,2
   133ba:	4709                	li	a4,2
   133bc:	d7e50513          	addi	a0,a0,-642 # 1d7e <.Lline_table_start1+0x1b53>
   133c0:	07f00793          	li	a5,127
   133c4:	00000073          	ecall
   133c8:	4609                	li	a2,2
   133ca:	04a7e563          	bltu	a5,a0,13414 <_ZN20complex_dynamic_type3app17h44e45ae3c8ebd4cfE+0xf8>
   133ce:	4505                	li	a0,1
   133d0:	00a98023          	sb	a0,0(s3)
   133d4:	00b9a223          	sw	a1,4(s3)
   133d8:	470d                	li	a4,3
   133da:	6509                	lui	a0,0x2
   133dc:	d7e50513          	addi	a0,a0,-642 # 1d7e <.Lline_table_start1+0x1b53>
   133e0:	4589                	li	a1,2
   133e2:	4601                	li	a2,0
   133e4:	4681                	li	a3,0
   133e6:	00000073          	ecall
   133ea:	00514483          	lbu	s1,5(sp)
   133ee:	4509                	li	a0,2
   133f0:	00a48b63          	beq	s1,a0,13406 <_ZN20complex_dynamic_type3app17h44e45ae3c8ebd4cfE+0xea>
   133f4:	6509                	lui	a0,0x2
   133f6:	d7e50513          	addi	a0,a0,-642 # 1d7e <.Lline_table_start1+0x1b53>
   133fa:	45a5                	li	a1,9
   133fc:	4601                	li	a2,0
   133fe:	4681                	li	a3,0
   13400:	8726                	mv	a4,s1
   13402:	00000073          	ecall
   13406:	50b6                	lw	ra,108(sp)
   13408:	5426                	lw	s0,104(sp)
   1340a:	5496                	lw	s1,100(sp)
   1340c:	5906                	lw	s2,96(sp)
   1340e:	49f6                	lw	s3,92(sp)
   13410:	6165                	addi	sp,sp,112
   13412:	8082                	ret
   13414:	00514703          	lbu	a4,5(sp)
   13418:	00c71463          	bne	a4,a2,13420 <_ZN20complex_dynamic_type3app17h44e45ae3c8ebd4cfE+0x104>
   1341c:	470d                	li	a4,3
   1341e:	a825                	j	13456 <_ZN20complex_dynamic_type3app17h44e45ae3c8ebd4cfE+0x13a>
   13420:	6509                	lui	a0,0x2
   13422:	d7e50513          	addi	a0,a0,-642 # 1d7e <.Lline_table_start1+0x1b53>
   13426:	45a5                	li	a1,9
   13428:	4601                	li	a2,0
   1342a:	4681                	li	a3,0
   1342c:	00000073          	ecall
   13430:	01514703          	lbu	a4,21(sp)
   13434:	4509                	li	a0,2
   13436:	00a102a3          	sb	a0,5(sp)
   1343a:	00a71e63          	bne	a4,a0,13456 <_ZN20complex_dynamic_type3app17h44e45ae3c8ebd4cfE+0x13a>
   1343e:	00198513          	addi	a0,s3,1
   13442:	04600613          	li	a2,70
   13446:	85ca                	mv	a1,s2
   13448:	0000a097          	auipc	ra,0xa
   1344c:	32e080e7          	jalr	814(ra) # 1d776 <memcpy>
   13450:	00098023          	sb	zero,0(s3)
   13454:	bf4d                	j	13406 <_ZN20complex_dynamic_type3app17h44e45ae3c8ebd4cfE+0xea>
   13456:	4601                	li	a2,0
   13458:	4681                	li	a3,0
   1345a:	6509                	lui	a0,0x2
   1345c:	d7e50513          	addi	a0,a0,-642 # 1d7e <.Lline_table_start1+0x1b53>
   13460:	4589                	li	a1,2
   13462:	00000073          	ecall
   13466:	00514483          	lbu	s1,5(sp)
   1346a:	4409                	li	s0,2
   1346c:	00198513          	addi	a0,s3,1
   13470:	04600613          	li	a2,70
   13474:	85ca                	mv	a1,s2
   13476:	0000a097          	auipc	ra,0xa
   1347a:	300080e7          	jalr	768(ra) # 1d776 <memcpy>
   1347e:	00098023          	sb	zero,0(s3)
   13482:	f68499e3          	bne	s1,s0,133f4 <_ZN20complex_dynamic_type3app17h44e45ae3c8ebd4cfE+0xd8>
   13486:	b741                	j	13406 <_ZN20complex_dynamic_type3app17h44e45ae3c8ebd4cfE+0xea>

00013488 <_ZN20complex_dynamic_type3app17h4845bccc5b67c170E>:
   13488:	7159                	addi	sp,sp,-112
   1348a:	d686                	sw	ra,108(sp)
   1348c:	d4a2                	sw	s0,104(sp)
   1348e:	d2a6                	sw	s1,100(sp)
   13490:	d0ca                	sw	s2,96(sp)
   13492:	cece                	sw	s3,92(sp)
   13494:	89aa                	mv	s3,a0
   13496:	4409                	li	s0,2
   13498:	008101a3          	sb	s0,3(sp)
   1349c:	0044                	addi	s1,sp,4
   1349e:	04800613          	li	a2,72
   134a2:	8526                	mv	a0,s1
   134a4:	0000a097          	auipc	ra,0xa
   134a8:	2d2080e7          	jalr	722(ra) # 1d776 <memcpy>
   134ac:	04d10913          	addi	s2,sp,77
   134b0:	463d                	li	a2,15
   134b2:	854a                	mv	a0,s2
   134b4:	4581                	li	a1,0
   134b6:	0000a097          	auipc	ra,0xa
   134ba:	254080e7          	jalr	596(ra) # 1d70a <memset>
   134be:	8626                	mv	a2,s1
   134c0:	04810623          	sb	s0,76(sp)
   134c4:	6505                	lui	a0,0x1
   134c6:	4491                	li	s1,4
   134c8:	45a1                	li	a1,8
   134ca:	11d50793          	addi	a5,a0,285 # 111d <.Lline_table_start1+0xef2>
   134ce:	04800693          	li	a3,72
   134d2:	4711                	li	a4,4
   134d4:	853e                	mv	a0,a5
   134d6:	00000073          	ecall
   134da:	00851863          	bne	a0,s0,134ea <_ZN20complex_dynamic_type3app17h4845bccc5b67c170E+0x62>
   134de:	4505                	li	a0,1
   134e0:	00a98023          	sb	a0,0(s3)
   134e4:	00b9a223          	sw	a1,4(s3)
   134e8:	a0b5                	j	13554 <_ZN20complex_dynamic_type3app17h4845bccc5b67c170E+0xcc>
   134ea:	853e                	mv	a0,a5
   134ec:	864a                	mv	a2,s2
   134ee:	009101a3          	sb	s1,3(sp)
   134f2:	478d                	li	a5,3
   134f4:	45a5                	li	a1,9
   134f6:	46bd                	li	a3,15
   134f8:	470d                	li	a4,3
   134fa:	00000073          	ecall
   134fe:	00851d63          	bne	a0,s0,13518 <_ZN20complex_dynamic_type3app17h4845bccc5b67c170E+0x90>
   13502:	04c14703          	lbu	a4,76(sp)
   13506:	4505                	li	a0,1
   13508:	4609                	li	a2,2
   1350a:	00a98023          	sb	a0,0(s3)
   1350e:	00b9a223          	sw	a1,4(s3)
   13512:	02c71963          	bne	a4,a2,13544 <_ZN20complex_dynamic_type3app17h4845bccc5b67c170E+0xbc>
   13516:	a83d                	j	13554 <_ZN20complex_dynamic_type3app17h4845bccc5b67c170E+0xcc>
   13518:	4681                	li	a3,0
   1351a:	04f10623          	sb	a5,76(sp)
   1351e:	6505                	lui	a0,0x1
   13520:	45a1                	li	a1,8
   13522:	4625                	li	a2,9
   13524:	4709                	li	a4,2
   13526:	11d50513          	addi	a0,a0,285 # 111d <.Lline_table_start1+0xef2>
   1352a:	07f00793          	li	a5,127
   1352e:	00000073          	ecall
   13532:	4609                	li	a2,2
   13534:	04a7e563          	bltu	a5,a0,1357e <_ZN20complex_dynamic_type3app17h4845bccc5b67c170E+0xf6>
   13538:	4505                	li	a0,1
   1353a:	00a98023          	sb	a0,0(s3)
   1353e:	00b9a223          	sw	a1,4(s3)
   13542:	470d                	li	a4,3
   13544:	6505                	lui	a0,0x1
   13546:	11d50513          	addi	a0,a0,285 # 111d <.Lline_table_start1+0xef2>
   1354a:	45a5                	li	a1,9
   1354c:	4601                	li	a2,0
   1354e:	4681                	li	a3,0
   13550:	00000073          	ecall
   13554:	00314483          	lbu	s1,3(sp)
   13558:	4509                	li	a0,2
   1355a:	00a48b63          	beq	s1,a0,13570 <_ZN20complex_dynamic_type3app17h4845bccc5b67c170E+0xe8>
   1355e:	6505                	lui	a0,0x1
   13560:	11d50513          	addi	a0,a0,285 # 111d <.Lline_table_start1+0xef2>
   13564:	45a1                	li	a1,8
   13566:	4601                	li	a2,0
   13568:	4681                	li	a3,0
   1356a:	8726                	mv	a4,s1
   1356c:	00000073          	ecall
   13570:	50b6                	lw	ra,108(sp)
   13572:	5426                	lw	s0,104(sp)
   13574:	5496                	lw	s1,100(sp)
   13576:	5906                	lw	s2,96(sp)
   13578:	49f6                	lw	s3,92(sp)
   1357a:	6165                	addi	sp,sp,112
   1357c:	8082                	ret
   1357e:	00314703          	lbu	a4,3(sp)
   13582:	00c71463          	bne	a4,a2,1358a <_ZN20complex_dynamic_type3app17h4845bccc5b67c170E+0x102>
   13586:	470d                	li	a4,3
   13588:	a81d                	j	135be <_ZN20complex_dynamic_type3app17h4845bccc5b67c170E+0x136>
   1358a:	6505                	lui	a0,0x1
   1358c:	11d50513          	addi	a0,a0,285 # 111d <.Lline_table_start1+0xef2>
   13590:	45a1                	li	a1,8
   13592:	4601                	li	a2,0
   13594:	4681                	li	a3,0
   13596:	00000073          	ecall
   1359a:	04c14703          	lbu	a4,76(sp)
   1359e:	4509                	li	a0,2
   135a0:	00a101a3          	sb	a0,3(sp)
   135a4:	00a71d63          	bne	a4,a0,135be <_ZN20complex_dynamic_type3app17h4845bccc5b67c170E+0x136>
   135a8:	00198513          	addi	a0,s3,1
   135ac:	463d                	li	a2,15
   135ae:	85ca                	mv	a1,s2
   135b0:	0000a097          	auipc	ra,0xa
   135b4:	1c6080e7          	jalr	454(ra) # 1d776 <memcpy>
   135b8:	00098023          	sb	zero,0(s3)
   135bc:	bf55                	j	13570 <_ZN20complex_dynamic_type3app17h4845bccc5b67c170E+0xe8>
   135be:	6505                	lui	a0,0x1
   135c0:	11d50513          	addi	a0,a0,285 # 111d <.Lline_table_start1+0xef2>
   135c4:	45a5                	li	a1,9
   135c6:	4601                	li	a2,0
   135c8:	4681                	li	a3,0
   135ca:	00000073          	ecall
   135ce:	00314483          	lbu	s1,3(sp)
   135d2:	00198513          	addi	a0,s3,1
   135d6:	463d                	li	a2,15
   135d8:	85ca                	mv	a1,s2
   135da:	0000a097          	auipc	ra,0xa
   135de:	19c080e7          	jalr	412(ra) # 1d776 <memcpy>
   135e2:	4509                	li	a0,2
   135e4:	00098023          	sb	zero,0(s3)
   135e8:	f6a49be3          	bne	s1,a0,1355e <_ZN20complex_dynamic_type3app17h4845bccc5b67c170E+0xd6>
   135ec:	b751                	j	13570 <_ZN20complex_dynamic_type3app17h4845bccc5b67c170E+0xe8>

000135ee <_ZN20complex_dynamic_type3app17h4b30faaa9e0808dfE>:
   135ee:	7155                	addi	sp,sp,-208
   135f0:	c786                	sw	ra,204(sp)
   135f2:	c5a2                	sw	s0,200(sp)
   135f4:	c3a6                	sw	s1,196(sp)
   135f6:	c1ca                	sw	s2,192(sp)
   135f8:	df4e                	sw	s3,188(sp)
   135fa:	89aa                	mv	s3,a0
   135fc:	4409                	li	s0,2
   135fe:	008103a3          	sb	s0,7(sp)
   13602:	0024                	addi	s1,sp,8
   13604:	05e00613          	li	a2,94
   13608:	8526                	mv	a0,s1
   1360a:	0000a097          	auipc	ra,0xa
   1360e:	16c080e7          	jalr	364(ra) # 1d776 <memcpy>
   13612:	06710913          	addi	s2,sp,103
   13616:	05500613          	li	a2,85
   1361a:	854a                	mv	a0,s2
   1361c:	4581                	li	a1,0
   1361e:	0000a097          	auipc	ra,0xa
   13622:	0ec080e7          	jalr	236(ra) # 1d70a <memset>
   13626:	8626                	mv	a2,s1
   13628:	06810323          	sb	s0,102(sp)
   1362c:	6505                	lui	a0,0x1
   1362e:	4491                	li	s1,4
   13630:	459d                	li	a1,7
   13632:	78a50793          	addi	a5,a0,1930 # 178a <.Lline_table_start1+0x155f>
   13636:	05e00693          	li	a3,94
   1363a:	4711                	li	a4,4
   1363c:	853e                	mv	a0,a5
   1363e:	00000073          	ecall
   13642:	00851863          	bne	a0,s0,13652 <_ZN20complex_dynamic_type3app17h4b30faaa9e0808dfE+0x64>
   13646:	4505                	li	a0,1
   13648:	00a98023          	sb	a0,0(s3)
   1364c:	00b9a223          	sw	a1,4(s3)
   13650:	a0bd                	j	136be <_ZN20complex_dynamic_type3app17h4b30faaa9e0808dfE+0xd0>
   13652:	853e                	mv	a0,a5
   13654:	864a                	mv	a2,s2
   13656:	009103a3          	sb	s1,7(sp)
   1365a:	478d                	li	a5,3
   1365c:	458d                	li	a1,3
   1365e:	05500693          	li	a3,85
   13662:	470d                	li	a4,3
   13664:	00000073          	ecall
   13668:	00851d63          	bne	a0,s0,13682 <_ZN20complex_dynamic_type3app17h4b30faaa9e0808dfE+0x94>
   1366c:	06614703          	lbu	a4,102(sp)
   13670:	4505                	li	a0,1
   13672:	4609                	li	a2,2
   13674:	00a98023          	sb	a0,0(s3)
   13678:	00b9a223          	sw	a1,4(s3)
   1367c:	02c71963          	bne	a4,a2,136ae <_ZN20complex_dynamic_type3app17h4b30faaa9e0808dfE+0xc0>
   13680:	a83d                	j	136be <_ZN20complex_dynamic_type3app17h4b30faaa9e0808dfE+0xd0>
   13682:	4681                	li	a3,0
   13684:	06f10323          	sb	a5,102(sp)
   13688:	6505                	lui	a0,0x1
   1368a:	459d                	li	a1,7
   1368c:	460d                	li	a2,3
   1368e:	4709                	li	a4,2
   13690:	78a50513          	addi	a0,a0,1930 # 178a <.Lline_table_start1+0x155f>
   13694:	07f00793          	li	a5,127
   13698:	00000073          	ecall
   1369c:	4609                	li	a2,2
   1369e:	04a7e563          	bltu	a5,a0,136e8 <_ZN20complex_dynamic_type3app17h4b30faaa9e0808dfE+0xfa>
   136a2:	4505                	li	a0,1
   136a4:	00a98023          	sb	a0,0(s3)
   136a8:	00b9a223          	sw	a1,4(s3)
   136ac:	470d                	li	a4,3
   136ae:	6505                	lui	a0,0x1
   136b0:	78a50513          	addi	a0,a0,1930 # 178a <.Lline_table_start1+0x155f>
   136b4:	458d                	li	a1,3
   136b6:	4601                	li	a2,0
   136b8:	4681                	li	a3,0
   136ba:	00000073          	ecall
   136be:	00714483          	lbu	s1,7(sp)
   136c2:	4509                	li	a0,2
   136c4:	00a48b63          	beq	s1,a0,136da <_ZN20complex_dynamic_type3app17h4b30faaa9e0808dfE+0xec>
   136c8:	6505                	lui	a0,0x1
   136ca:	78a50513          	addi	a0,a0,1930 # 178a <.Lline_table_start1+0x155f>
   136ce:	459d                	li	a1,7
   136d0:	4601                	li	a2,0
   136d2:	4681                	li	a3,0
   136d4:	8726                	mv	a4,s1
   136d6:	00000073          	ecall
   136da:	40be                	lw	ra,204(sp)
   136dc:	442e                	lw	s0,200(sp)
   136de:	449e                	lw	s1,196(sp)
   136e0:	490e                	lw	s2,192(sp)
   136e2:	59fa                	lw	s3,188(sp)
   136e4:	6169                	addi	sp,sp,208
   136e6:	8082                	ret
   136e8:	00714703          	lbu	a4,7(sp)
   136ec:	00c71463          	bne	a4,a2,136f4 <_ZN20complex_dynamic_type3app17h4b30faaa9e0808dfE+0x106>
   136f0:	470d                	li	a4,3
   136f2:	a825                	j	1372a <_ZN20complex_dynamic_type3app17h4b30faaa9e0808dfE+0x13c>
   136f4:	6505                	lui	a0,0x1
   136f6:	78a50513          	addi	a0,a0,1930 # 178a <.Lline_table_start1+0x155f>
   136fa:	459d                	li	a1,7
   136fc:	4601                	li	a2,0
   136fe:	4681                	li	a3,0
   13700:	00000073          	ecall
   13704:	06614703          	lbu	a4,102(sp)
   13708:	4509                	li	a0,2
   1370a:	00a103a3          	sb	a0,7(sp)
   1370e:	00a71e63          	bne	a4,a0,1372a <_ZN20complex_dynamic_type3app17h4b30faaa9e0808dfE+0x13c>
   13712:	00198513          	addi	a0,s3,1
   13716:	05500613          	li	a2,85
   1371a:	85ca                	mv	a1,s2
   1371c:	0000a097          	auipc	ra,0xa
   13720:	05a080e7          	jalr	90(ra) # 1d776 <memcpy>
   13724:	00098023          	sb	zero,0(s3)
   13728:	bf4d                	j	136da <_ZN20complex_dynamic_type3app17h4b30faaa9e0808dfE+0xec>
   1372a:	6505                	lui	a0,0x1
   1372c:	78a50513          	addi	a0,a0,1930 # 178a <.Lline_table_start1+0x155f>
   13730:	458d                	li	a1,3
   13732:	4601                	li	a2,0
   13734:	4681                	li	a3,0
   13736:	00000073          	ecall
   1373a:	00714483          	lbu	s1,7(sp)
   1373e:	00198513          	addi	a0,s3,1
   13742:	05500613          	li	a2,85
   13746:	85ca                	mv	a1,s2
   13748:	0000a097          	auipc	ra,0xa
   1374c:	02e080e7          	jalr	46(ra) # 1d776 <memcpy>
   13750:	4509                	li	a0,2
   13752:	00098023          	sb	zero,0(s3)
   13756:	f6a499e3          	bne	s1,a0,136c8 <_ZN20complex_dynamic_type3app17h4b30faaa9e0808dfE+0xda>
   1375a:	b741                	j	136da <_ZN20complex_dynamic_type3app17h4b30faaa9e0808dfE+0xec>

0001375c <_ZN20complex_dynamic_type3app17h4e546576173efaaaE>:
   1375c:	711d                	addi	sp,sp,-96
   1375e:	ce86                	sw	ra,92(sp)
   13760:	cca2                	sw	s0,88(sp)
   13762:	caa6                	sw	s1,84(sp)
   13764:	c8ca                	sw	s2,80(sp)
   13766:	c6ce                	sw	s3,76(sp)
   13768:	89aa                	mv	s3,a0
   1376a:	4409                	li	s0,2
   1376c:	008107a3          	sb	s0,15(sp)
   13770:	0804                	addi	s1,sp,16
   13772:	02700613          	li	a2,39
   13776:	8526                	mv	a0,s1
   13778:	0000a097          	auipc	ra,0xa
   1377c:	ffe080e7          	jalr	-2(ra) # 1d776 <memcpy>
   13780:	03810913          	addi	s2,sp,56
   13784:	4651                	li	a2,20
   13786:	854a                	mv	a0,s2
   13788:	4581                	li	a1,0
   1378a:	0000a097          	auipc	ra,0xa
   1378e:	f80080e7          	jalr	-128(ra) # 1d70a <memset>
   13792:	8626                	mv	a2,s1
   13794:	02810ba3          	sb	s0,55(sp)
   13798:	6509                	lui	a0,0x2
   1379a:	4491                	li	s1,4
   1379c:	4599                	li	a1,6
   1379e:	2c950793          	addi	a5,a0,713 # 22c9 <.Lline_table_start1+0x209e>
   137a2:	02700693          	li	a3,39
   137a6:	4711                	li	a4,4
   137a8:	853e                	mv	a0,a5
   137aa:	00000073          	ecall
   137ae:	00851863          	bne	a0,s0,137be <_ZN20complex_dynamic_type3app17h4e546576173efaaaE+0x62>
   137b2:	4505                	li	a0,1
   137b4:	00a98023          	sb	a0,0(s3)
   137b8:	00b9a223          	sw	a1,4(s3)
   137bc:	a0b5                	j	13828 <_ZN20complex_dynamic_type3app17h4e546576173efaaaE+0xcc>
   137be:	853e                	mv	a0,a5
   137c0:	864a                	mv	a2,s2
   137c2:	009107a3          	sb	s1,15(sp)
   137c6:	478d                	li	a5,3
   137c8:	4595                	li	a1,5
   137ca:	46d1                	li	a3,20
   137cc:	470d                	li	a4,3
   137ce:	00000073          	ecall
   137d2:	00851d63          	bne	a0,s0,137ec <_ZN20complex_dynamic_type3app17h4e546576173efaaaE+0x90>
   137d6:	03714703          	lbu	a4,55(sp)
   137da:	4505                	li	a0,1
   137dc:	4609                	li	a2,2
   137de:	00a98023          	sb	a0,0(s3)
   137e2:	00b9a223          	sw	a1,4(s3)
   137e6:	02c71963          	bne	a4,a2,13818 <_ZN20complex_dynamic_type3app17h4e546576173efaaaE+0xbc>
   137ea:	a83d                	j	13828 <_ZN20complex_dynamic_type3app17h4e546576173efaaaE+0xcc>
   137ec:	4681                	li	a3,0
   137ee:	02f10ba3          	sb	a5,55(sp)
   137f2:	6509                	lui	a0,0x2
   137f4:	4599                	li	a1,6
   137f6:	4615                	li	a2,5
   137f8:	4709                	li	a4,2
   137fa:	2c950513          	addi	a0,a0,713 # 22c9 <.Lline_table_start1+0x209e>
   137fe:	07f00793          	li	a5,127
   13802:	00000073          	ecall
   13806:	4609                	li	a2,2
   13808:	04a7e563          	bltu	a5,a0,13852 <_ZN20complex_dynamic_type3app17h4e546576173efaaaE+0xf6>
   1380c:	4505                	li	a0,1
   1380e:	00a98023          	sb	a0,0(s3)
   13812:	00b9a223          	sw	a1,4(s3)
   13816:	470d                	li	a4,3
   13818:	6509                	lui	a0,0x2
   1381a:	2c950513          	addi	a0,a0,713 # 22c9 <.Lline_table_start1+0x209e>
   1381e:	4595                	li	a1,5
   13820:	4601                	li	a2,0
   13822:	4681                	li	a3,0
   13824:	00000073          	ecall
   13828:	00f14483          	lbu	s1,15(sp)
   1382c:	4509                	li	a0,2
   1382e:	00a48b63          	beq	s1,a0,13844 <_ZN20complex_dynamic_type3app17h4e546576173efaaaE+0xe8>
   13832:	6509                	lui	a0,0x2
   13834:	2c950513          	addi	a0,a0,713 # 22c9 <.Lline_table_start1+0x209e>
   13838:	4599                	li	a1,6
   1383a:	4601                	li	a2,0
   1383c:	4681                	li	a3,0
   1383e:	8726                	mv	a4,s1
   13840:	00000073          	ecall
   13844:	40f6                	lw	ra,92(sp)
   13846:	4466                	lw	s0,88(sp)
   13848:	44d6                	lw	s1,84(sp)
   1384a:	4946                	lw	s2,80(sp)
   1384c:	49b6                	lw	s3,76(sp)
   1384e:	6125                	addi	sp,sp,96
   13850:	8082                	ret
   13852:	00f14703          	lbu	a4,15(sp)
   13856:	00c71463          	bne	a4,a2,1385e <_ZN20complex_dynamic_type3app17h4e546576173efaaaE+0x102>
   1385a:	470d                	li	a4,3
   1385c:	a81d                	j	13892 <_ZN20complex_dynamic_type3app17h4e546576173efaaaE+0x136>
   1385e:	6509                	lui	a0,0x2
   13860:	2c950513          	addi	a0,a0,713 # 22c9 <.Lline_table_start1+0x209e>
   13864:	4599                	li	a1,6
   13866:	4601                	li	a2,0
   13868:	4681                	li	a3,0
   1386a:	00000073          	ecall
   1386e:	03714703          	lbu	a4,55(sp)
   13872:	4509                	li	a0,2
   13874:	00a107a3          	sb	a0,15(sp)
   13878:	00a71d63          	bne	a4,a0,13892 <_ZN20complex_dynamic_type3app17h4e546576173efaaaE+0x136>
   1387c:	00198513          	addi	a0,s3,1
   13880:	4651                	li	a2,20
   13882:	85ca                	mv	a1,s2
   13884:	0000a097          	auipc	ra,0xa
   13888:	ef2080e7          	jalr	-270(ra) # 1d776 <memcpy>
   1388c:	00098023          	sb	zero,0(s3)
   13890:	bf55                	j	13844 <_ZN20complex_dynamic_type3app17h4e546576173efaaaE+0xe8>
   13892:	6509                	lui	a0,0x2
   13894:	2c950513          	addi	a0,a0,713 # 22c9 <.Lline_table_start1+0x209e>
   13898:	4595                	li	a1,5
   1389a:	4601                	li	a2,0
   1389c:	4681                	li	a3,0
   1389e:	00000073          	ecall
   138a2:	00f14483          	lbu	s1,15(sp)
   138a6:	00198513          	addi	a0,s3,1
   138aa:	4651                	li	a2,20
   138ac:	85ca                	mv	a1,s2
   138ae:	0000a097          	auipc	ra,0xa
   138b2:	ec8080e7          	jalr	-312(ra) # 1d776 <memcpy>
   138b6:	4509                	li	a0,2
   138b8:	00098023          	sb	zero,0(s3)
   138bc:	f6a49be3          	bne	s1,a0,13832 <_ZN20complex_dynamic_type3app17h4e546576173efaaaE+0xd6>
   138c0:	b751                	j	13844 <_ZN20complex_dynamic_type3app17h4e546576173efaaaE+0xe8>

000138c2 <_ZN20complex_dynamic_type3app17h4f6622a3d3191dacE>:
   138c2:	7159                	addi	sp,sp,-112
   138c4:	d686                	sw	ra,108(sp)
   138c6:	d4a2                	sw	s0,104(sp)
   138c8:	d2a6                	sw	s1,100(sp)
   138ca:	d0ca                	sw	s2,96(sp)
   138cc:	cece                	sw	s3,92(sp)
   138ce:	89aa                	mv	s3,a0
   138d0:	4409                	li	s0,2
   138d2:	00810223          	sb	s0,4(sp)
   138d6:	00510493          	addi	s1,sp,5
   138da:	4649                	li	a2,18
   138dc:	8526                	mv	a0,s1
   138de:	0000a097          	auipc	ra,0xa
   138e2:	e98080e7          	jalr	-360(ra) # 1d776 <memcpy>
   138e6:	01810913          	addi	s2,sp,24
   138ea:	04400613          	li	a2,68
   138ee:	854a                	mv	a0,s2
   138f0:	4581                	li	a1,0
   138f2:	0000a097          	auipc	ra,0xa
   138f6:	e18080e7          	jalr	-488(ra) # 1d70a <memset>
   138fa:	8626                	mv	a2,s1
   138fc:	00810ba3          	sb	s0,23(sp)
   13900:	6509                	lui	a0,0x2
   13902:	4491                	li	s1,4
   13904:	4589                	li	a1,2
   13906:	43250793          	addi	a5,a0,1074 # 2432 <.Lline_table_start1+0x2207>
   1390a:	46c9                	li	a3,18
   1390c:	4711                	li	a4,4
   1390e:	853e                	mv	a0,a5
   13910:	00000073          	ecall
   13914:	00851863          	bne	a0,s0,13924 <_ZN20complex_dynamic_type3app17h4f6622a3d3191dacE+0x62>
   13918:	4505                	li	a0,1
   1391a:	00a98023          	sb	a0,0(s3)
   1391e:	00b9a223          	sw	a1,4(s3)
   13922:	a0bd                	j	13990 <_ZN20complex_dynamic_type3app17h4f6622a3d3191dacE+0xce>
   13924:	853e                	mv	a0,a5
   13926:	864a                	mv	a2,s2
   13928:	00910223          	sb	s1,4(sp)
   1392c:	478d                	li	a5,3
   1392e:	45a5                	li	a1,9
   13930:	04400693          	li	a3,68
   13934:	470d                	li	a4,3
   13936:	00000073          	ecall
   1393a:	00851d63          	bne	a0,s0,13954 <_ZN20complex_dynamic_type3app17h4f6622a3d3191dacE+0x92>
   1393e:	01714703          	lbu	a4,23(sp)
   13942:	4505                	li	a0,1
   13944:	4609                	li	a2,2
   13946:	00a98023          	sb	a0,0(s3)
   1394a:	00b9a223          	sw	a1,4(s3)
   1394e:	02c71963          	bne	a4,a2,13980 <_ZN20complex_dynamic_type3app17h4f6622a3d3191dacE+0xbe>
   13952:	a83d                	j	13990 <_ZN20complex_dynamic_type3app17h4f6622a3d3191dacE+0xce>
   13954:	4681                	li	a3,0
   13956:	00f10ba3          	sb	a5,23(sp)
   1395a:	6509                	lui	a0,0x2
   1395c:	4589                	li	a1,2
   1395e:	4625                	li	a2,9
   13960:	4709                	li	a4,2
   13962:	43250513          	addi	a0,a0,1074 # 2432 <.Lline_table_start1+0x2207>
   13966:	07f00793          	li	a5,127
   1396a:	00000073          	ecall
   1396e:	4609                	li	a2,2
   13970:	04a7e563          	bltu	a5,a0,139ba <_ZN20complex_dynamic_type3app17h4f6622a3d3191dacE+0xf8>
   13974:	4505                	li	a0,1
   13976:	00a98023          	sb	a0,0(s3)
   1397a:	00b9a223          	sw	a1,4(s3)
   1397e:	470d                	li	a4,3
   13980:	6509                	lui	a0,0x2
   13982:	43250513          	addi	a0,a0,1074 # 2432 <.Lline_table_start1+0x2207>
   13986:	45a5                	li	a1,9
   13988:	4601                	li	a2,0
   1398a:	4681                	li	a3,0
   1398c:	00000073          	ecall
   13990:	00414483          	lbu	s1,4(sp)
   13994:	4509                	li	a0,2
   13996:	00a48b63          	beq	s1,a0,139ac <_ZN20complex_dynamic_type3app17h4f6622a3d3191dacE+0xea>
   1399a:	6509                	lui	a0,0x2
   1399c:	43250513          	addi	a0,a0,1074 # 2432 <.Lline_table_start1+0x2207>
   139a0:	4589                	li	a1,2
   139a2:	4601                	li	a2,0
   139a4:	4681                	li	a3,0
   139a6:	8726                	mv	a4,s1
   139a8:	00000073          	ecall
   139ac:	50b6                	lw	ra,108(sp)
   139ae:	5426                	lw	s0,104(sp)
   139b0:	5496                	lw	s1,100(sp)
   139b2:	5906                	lw	s2,96(sp)
   139b4:	49f6                	lw	s3,92(sp)
   139b6:	6165                	addi	sp,sp,112
   139b8:	8082                	ret
   139ba:	00414703          	lbu	a4,4(sp)
   139be:	00c71463          	bne	a4,a2,139c6 <_ZN20complex_dynamic_type3app17h4f6622a3d3191dacE+0x104>
   139c2:	470d                	li	a4,3
   139c4:	a825                	j	139fc <_ZN20complex_dynamic_type3app17h4f6622a3d3191dacE+0x13a>
   139c6:	6509                	lui	a0,0x2
   139c8:	43250513          	addi	a0,a0,1074 # 2432 <.Lline_table_start1+0x2207>
   139cc:	4589                	li	a1,2
   139ce:	4601                	li	a2,0
   139d0:	4681                	li	a3,0
   139d2:	00000073          	ecall
   139d6:	01714703          	lbu	a4,23(sp)
   139da:	4509                	li	a0,2
   139dc:	00a10223          	sb	a0,4(sp)
   139e0:	00a71e63          	bne	a4,a0,139fc <_ZN20complex_dynamic_type3app17h4f6622a3d3191dacE+0x13a>
   139e4:	00198513          	addi	a0,s3,1
   139e8:	04400613          	li	a2,68
   139ec:	85ca                	mv	a1,s2
   139ee:	0000a097          	auipc	ra,0xa
   139f2:	d88080e7          	jalr	-632(ra) # 1d776 <memcpy>
   139f6:	00098023          	sb	zero,0(s3)
   139fa:	bf4d                	j	139ac <_ZN20complex_dynamic_type3app17h4f6622a3d3191dacE+0xea>
   139fc:	6509                	lui	a0,0x2
   139fe:	43250513          	addi	a0,a0,1074 # 2432 <.Lline_table_start1+0x2207>
   13a02:	45a5                	li	a1,9
   13a04:	4601                	li	a2,0
   13a06:	4681                	li	a3,0
   13a08:	00000073          	ecall
   13a0c:	00414483          	lbu	s1,4(sp)
   13a10:	00198513          	addi	a0,s3,1
   13a14:	04400613          	li	a2,68
   13a18:	85ca                	mv	a1,s2
   13a1a:	0000a097          	auipc	ra,0xa
   13a1e:	d5c080e7          	jalr	-676(ra) # 1d776 <memcpy>
   13a22:	4509                	li	a0,2
   13a24:	00098023          	sb	zero,0(s3)
   13a28:	f6a499e3          	bne	s1,a0,1399a <_ZN20complex_dynamic_type3app17h4f6622a3d3191dacE+0xd8>
   13a2c:	b741                	j	139ac <_ZN20complex_dynamic_type3app17h4f6622a3d3191dacE+0xea>

00013a2e <_ZN20complex_dynamic_type3app17h55e9e824e5f95e89E>:
   13a2e:	7175                	addi	sp,sp,-144
   13a30:	c706                	sw	ra,140(sp)
   13a32:	c522                	sw	s0,136(sp)
   13a34:	c326                	sw	s1,132(sp)
   13a36:	c14a                	sw	s2,128(sp)
   13a38:	dece                	sw	s3,124(sp)
   13a3a:	89aa                	mv	s3,a0
   13a3c:	4409                	li	s0,2
   13a3e:	008101a3          	sb	s0,3(sp)
   13a42:	0044                	addi	s1,sp,4
   13a44:	04a00613          	li	a2,74
   13a48:	8526                	mv	a0,s1
   13a4a:	0000a097          	auipc	ra,0xa
   13a4e:	d2c080e7          	jalr	-724(ra) # 1d776 <memcpy>
   13a52:	04f10913          	addi	s2,sp,79
   13a56:	02d00613          	li	a2,45
   13a5a:	854a                	mv	a0,s2
   13a5c:	4581                	li	a1,0
   13a5e:	0000a097          	auipc	ra,0xa
   13a62:	cac080e7          	jalr	-852(ra) # 1d70a <memset>
   13a66:	8626                	mv	a2,s1
   13a68:	04810723          	sb	s0,78(sp)
   13a6c:	6505                	lui	a0,0x1
   13a6e:	4491                	li	s1,4
   13a70:	4589                	li	a1,2
   13a72:	e3d50793          	addi	a5,a0,-451 # e3d <.Lline_table_start1+0xc12>
   13a76:	04a00693          	li	a3,74
   13a7a:	4711                	li	a4,4
   13a7c:	853e                	mv	a0,a5
   13a7e:	00000073          	ecall
   13a82:	00851863          	bne	a0,s0,13a92 <_ZN20complex_dynamic_type3app17h55e9e824e5f95e89E+0x64>
   13a86:	4505                	li	a0,1
   13a88:	00a98023          	sb	a0,0(s3)
   13a8c:	00b9a223          	sw	a1,4(s3)
   13a90:	a0bd                	j	13afe <_ZN20complex_dynamic_type3app17h55e9e824e5f95e89E+0xd0>
   13a92:	853e                	mv	a0,a5
   13a94:	864a                	mv	a2,s2
   13a96:	009101a3          	sb	s1,3(sp)
   13a9a:	478d                	li	a5,3
   13a9c:	458d                	li	a1,3
   13a9e:	02d00693          	li	a3,45
   13aa2:	470d                	li	a4,3
   13aa4:	00000073          	ecall
   13aa8:	00851d63          	bne	a0,s0,13ac2 <_ZN20complex_dynamic_type3app17h55e9e824e5f95e89E+0x94>
   13aac:	04e14703          	lbu	a4,78(sp)
   13ab0:	4505                	li	a0,1
   13ab2:	4609                	li	a2,2
   13ab4:	00a98023          	sb	a0,0(s3)
   13ab8:	00b9a223          	sw	a1,4(s3)
   13abc:	02c71963          	bne	a4,a2,13aee <_ZN20complex_dynamic_type3app17h55e9e824e5f95e89E+0xc0>
   13ac0:	a83d                	j	13afe <_ZN20complex_dynamic_type3app17h55e9e824e5f95e89E+0xd0>
   13ac2:	4681                	li	a3,0
   13ac4:	04f10723          	sb	a5,78(sp)
   13ac8:	6505                	lui	a0,0x1
   13aca:	4589                	li	a1,2
   13acc:	460d                	li	a2,3
   13ace:	4709                	li	a4,2
   13ad0:	e3d50513          	addi	a0,a0,-451 # e3d <.Lline_table_start1+0xc12>
   13ad4:	07f00793          	li	a5,127
   13ad8:	00000073          	ecall
   13adc:	4609                	li	a2,2
   13ade:	04a7e563          	bltu	a5,a0,13b28 <_ZN20complex_dynamic_type3app17h55e9e824e5f95e89E+0xfa>
   13ae2:	4505                	li	a0,1
   13ae4:	00a98023          	sb	a0,0(s3)
   13ae8:	00b9a223          	sw	a1,4(s3)
   13aec:	470d                	li	a4,3
   13aee:	6505                	lui	a0,0x1
   13af0:	e3d50513          	addi	a0,a0,-451 # e3d <.Lline_table_start1+0xc12>
   13af4:	458d                	li	a1,3
   13af6:	4601                	li	a2,0
   13af8:	4681                	li	a3,0
   13afa:	00000073          	ecall
   13afe:	00314483          	lbu	s1,3(sp)
   13b02:	4509                	li	a0,2
   13b04:	00a48b63          	beq	s1,a0,13b1a <_ZN20complex_dynamic_type3app17h55e9e824e5f95e89E+0xec>
   13b08:	6505                	lui	a0,0x1
   13b0a:	e3d50513          	addi	a0,a0,-451 # e3d <.Lline_table_start1+0xc12>
   13b0e:	4589                	li	a1,2
   13b10:	4601                	li	a2,0
   13b12:	4681                	li	a3,0
   13b14:	8726                	mv	a4,s1
   13b16:	00000073          	ecall
   13b1a:	40ba                	lw	ra,140(sp)
   13b1c:	442a                	lw	s0,136(sp)
   13b1e:	449a                	lw	s1,132(sp)
   13b20:	490a                	lw	s2,128(sp)
   13b22:	59f6                	lw	s3,124(sp)
   13b24:	6149                	addi	sp,sp,144
   13b26:	8082                	ret
   13b28:	00314703          	lbu	a4,3(sp)
   13b2c:	00c71463          	bne	a4,a2,13b34 <_ZN20complex_dynamic_type3app17h55e9e824e5f95e89E+0x106>
   13b30:	470d                	li	a4,3
   13b32:	a825                	j	13b6a <_ZN20complex_dynamic_type3app17h55e9e824e5f95e89E+0x13c>
   13b34:	6505                	lui	a0,0x1
   13b36:	e3d50513          	addi	a0,a0,-451 # e3d <.Lline_table_start1+0xc12>
   13b3a:	4589                	li	a1,2
   13b3c:	4601                	li	a2,0
   13b3e:	4681                	li	a3,0
   13b40:	00000073          	ecall
   13b44:	04e14703          	lbu	a4,78(sp)
   13b48:	4509                	li	a0,2
   13b4a:	00a101a3          	sb	a0,3(sp)
   13b4e:	00a71e63          	bne	a4,a0,13b6a <_ZN20complex_dynamic_type3app17h55e9e824e5f95e89E+0x13c>
   13b52:	00198513          	addi	a0,s3,1
   13b56:	02d00613          	li	a2,45
   13b5a:	85ca                	mv	a1,s2
   13b5c:	0000a097          	auipc	ra,0xa
   13b60:	c1a080e7          	jalr	-998(ra) # 1d776 <memcpy>
   13b64:	00098023          	sb	zero,0(s3)
   13b68:	bf4d                	j	13b1a <_ZN20complex_dynamic_type3app17h55e9e824e5f95e89E+0xec>
   13b6a:	6505                	lui	a0,0x1
   13b6c:	e3d50513          	addi	a0,a0,-451 # e3d <.Lline_table_start1+0xc12>
   13b70:	458d                	li	a1,3
   13b72:	4601                	li	a2,0
   13b74:	4681                	li	a3,0
   13b76:	00000073          	ecall
   13b7a:	00314483          	lbu	s1,3(sp)
   13b7e:	00198513          	addi	a0,s3,1
   13b82:	02d00613          	li	a2,45
   13b86:	85ca                	mv	a1,s2
   13b88:	0000a097          	auipc	ra,0xa
   13b8c:	bee080e7          	jalr	-1042(ra) # 1d776 <memcpy>
   13b90:	4509                	li	a0,2
   13b92:	00098023          	sb	zero,0(s3)
   13b96:	f6a499e3          	bne	s1,a0,13b08 <_ZN20complex_dynamic_type3app17h55e9e824e5f95e89E+0xda>
   13b9a:	b741                	j	13b1a <_ZN20complex_dynamic_type3app17h55e9e824e5f95e89E+0xec>

00013b9c <_ZN20complex_dynamic_type3app17h5666c67ee1260a18E>:
   13b9c:	7135                	addi	sp,sp,-160
   13b9e:	cf06                	sw	ra,156(sp)
   13ba0:	cd22                	sw	s0,152(sp)
   13ba2:	cb26                	sw	s1,148(sp)
   13ba4:	c94a                	sw	s2,144(sp)
   13ba6:	c74e                	sw	s3,140(sp)
   13ba8:	89aa                	mv	s3,a0
   13baa:	4409                	li	s0,2
   13bac:	00810623          	sb	s0,12(sp)
   13bb0:	00d10493          	addi	s1,sp,13
   13bb4:	466d                	li	a2,27
   13bb6:	8526                	mv	a0,s1
   13bb8:	0000a097          	auipc	ra,0xa
   13bbc:	bbe080e7          	jalr	-1090(ra) # 1d776 <memcpy>
   13bc0:	02910913          	addi	s2,sp,41
   13bc4:	06300613          	li	a2,99
   13bc8:	854a                	mv	a0,s2
   13bca:	4581                	li	a1,0
   13bcc:	0000a097          	auipc	ra,0xa
   13bd0:	b3e080e7          	jalr	-1218(ra) # 1d70a <memset>
   13bd4:	8626                	mv	a2,s1
   13bd6:	02810423          	sb	s0,40(sp)
   13bda:	6509                	lui	a0,0x2
   13bdc:	4491                	li	s1,4
   13bde:	458d                	li	a1,3
   13be0:	54850793          	addi	a5,a0,1352 # 2548 <.Lline_table_start1+0x231d>
   13be4:	46ed                	li	a3,27
   13be6:	4711                	li	a4,4
   13be8:	853e                	mv	a0,a5
   13bea:	00000073          	ecall
   13bee:	00851863          	bne	a0,s0,13bfe <_ZN20complex_dynamic_type3app17h5666c67ee1260a18E+0x62>
   13bf2:	4505                	li	a0,1
   13bf4:	00a98023          	sb	a0,0(s3)
   13bf8:	00b9a223          	sw	a1,4(s3)
   13bfc:	a0bd                	j	13c6a <_ZN20complex_dynamic_type3app17h5666c67ee1260a18E+0xce>
   13bfe:	853e                	mv	a0,a5
   13c00:	864a                	mv	a2,s2
   13c02:	00910623          	sb	s1,12(sp)
   13c06:	478d                	li	a5,3
   13c08:	458d                	li	a1,3
   13c0a:	06300693          	li	a3,99
   13c0e:	470d                	li	a4,3
   13c10:	00000073          	ecall
   13c14:	00851d63          	bne	a0,s0,13c2e <_ZN20complex_dynamic_type3app17h5666c67ee1260a18E+0x92>
   13c18:	02814703          	lbu	a4,40(sp)
   13c1c:	4505                	li	a0,1
   13c1e:	4609                	li	a2,2
   13c20:	00a98023          	sb	a0,0(s3)
   13c24:	00b9a223          	sw	a1,4(s3)
   13c28:	02c71963          	bne	a4,a2,13c5a <_ZN20complex_dynamic_type3app17h5666c67ee1260a18E+0xbe>
   13c2c:	a83d                	j	13c6a <_ZN20complex_dynamic_type3app17h5666c67ee1260a18E+0xce>
   13c2e:	4681                	li	a3,0
   13c30:	02f10423          	sb	a5,40(sp)
   13c34:	6509                	lui	a0,0x2
   13c36:	458d                	li	a1,3
   13c38:	460d                	li	a2,3
   13c3a:	4709                	li	a4,2
   13c3c:	54850513          	addi	a0,a0,1352 # 2548 <.Lline_table_start1+0x231d>
   13c40:	07f00793          	li	a5,127
   13c44:	00000073          	ecall
   13c48:	4609                	li	a2,2
   13c4a:	04a7e563          	bltu	a5,a0,13c94 <_ZN20complex_dynamic_type3app17h5666c67ee1260a18E+0xf8>
   13c4e:	4505                	li	a0,1
   13c50:	00a98023          	sb	a0,0(s3)
   13c54:	00b9a223          	sw	a1,4(s3)
   13c58:	470d                	li	a4,3
   13c5a:	6509                	lui	a0,0x2
   13c5c:	54850513          	addi	a0,a0,1352 # 2548 <.Lline_table_start1+0x231d>
   13c60:	458d                	li	a1,3
   13c62:	4601                	li	a2,0
   13c64:	4681                	li	a3,0
   13c66:	00000073          	ecall
   13c6a:	00c14483          	lbu	s1,12(sp)
   13c6e:	4509                	li	a0,2
   13c70:	00a48b63          	beq	s1,a0,13c86 <_ZN20complex_dynamic_type3app17h5666c67ee1260a18E+0xea>
   13c74:	6509                	lui	a0,0x2
   13c76:	54850513          	addi	a0,a0,1352 # 2548 <.Lline_table_start1+0x231d>
   13c7a:	458d                	li	a1,3
   13c7c:	4601                	li	a2,0
   13c7e:	4681                	li	a3,0
   13c80:	8726                	mv	a4,s1
   13c82:	00000073          	ecall
   13c86:	40fa                	lw	ra,156(sp)
   13c88:	446a                	lw	s0,152(sp)
   13c8a:	44da                	lw	s1,148(sp)
   13c8c:	494a                	lw	s2,144(sp)
   13c8e:	49ba                	lw	s3,140(sp)
   13c90:	610d                	addi	sp,sp,160
   13c92:	8082                	ret
   13c94:	00c14703          	lbu	a4,12(sp)
   13c98:	00c71463          	bne	a4,a2,13ca0 <_ZN20complex_dynamic_type3app17h5666c67ee1260a18E+0x104>
   13c9c:	470d                	li	a4,3
   13c9e:	a825                	j	13cd6 <_ZN20complex_dynamic_type3app17h5666c67ee1260a18E+0x13a>
   13ca0:	6509                	lui	a0,0x2
   13ca2:	54850513          	addi	a0,a0,1352 # 2548 <.Lline_table_start1+0x231d>
   13ca6:	458d                	li	a1,3
   13ca8:	4601                	li	a2,0
   13caa:	4681                	li	a3,0
   13cac:	00000073          	ecall
   13cb0:	02814703          	lbu	a4,40(sp)
   13cb4:	4509                	li	a0,2
   13cb6:	00a10623          	sb	a0,12(sp)
   13cba:	00a71e63          	bne	a4,a0,13cd6 <_ZN20complex_dynamic_type3app17h5666c67ee1260a18E+0x13a>
   13cbe:	00198513          	addi	a0,s3,1
   13cc2:	06300613          	li	a2,99
   13cc6:	85ca                	mv	a1,s2
   13cc8:	0000a097          	auipc	ra,0xa
   13ccc:	aae080e7          	jalr	-1362(ra) # 1d776 <memcpy>
   13cd0:	00098023          	sb	zero,0(s3)
   13cd4:	bf4d                	j	13c86 <_ZN20complex_dynamic_type3app17h5666c67ee1260a18E+0xea>
   13cd6:	6509                	lui	a0,0x2
   13cd8:	54850513          	addi	a0,a0,1352 # 2548 <.Lline_table_start1+0x231d>
   13cdc:	458d                	li	a1,3
   13cde:	4601                	li	a2,0
   13ce0:	4681                	li	a3,0
   13ce2:	00000073          	ecall
   13ce6:	00c14483          	lbu	s1,12(sp)
   13cea:	00198513          	addi	a0,s3,1
   13cee:	06300613          	li	a2,99
   13cf2:	85ca                	mv	a1,s2
   13cf4:	0000a097          	auipc	ra,0xa
   13cf8:	a82080e7          	jalr	-1406(ra) # 1d776 <memcpy>
   13cfc:	4509                	li	a0,2
   13cfe:	00098023          	sb	zero,0(s3)
   13d02:	f6a499e3          	bne	s1,a0,13c74 <_ZN20complex_dynamic_type3app17h5666c67ee1260a18E+0xd8>
   13d06:	b741                	j	13c86 <_ZN20complex_dynamic_type3app17h5666c67ee1260a18E+0xea>

00013d08 <_ZN20complex_dynamic_type3app17h5864a3813bee3ad3E>:
   13d08:	711d                	addi	sp,sp,-96
   13d0a:	ce86                	sw	ra,92(sp)
   13d0c:	cca2                	sw	s0,88(sp)
   13d0e:	caa6                	sw	s1,84(sp)
   13d10:	c8ca                	sw	s2,80(sp)
   13d12:	c6ce                	sw	s3,76(sp)
   13d14:	89aa                	mv	s3,a0
   13d16:	4409                	li	s0,2
   13d18:	008106a3          	sb	s0,13(sp)
   13d1c:	00e10493          	addi	s1,sp,14
   13d20:	02500613          	li	a2,37
   13d24:	8526                	mv	a0,s1
   13d26:	0000a097          	auipc	ra,0xa
   13d2a:	a50080e7          	jalr	-1456(ra) # 1d776 <memcpy>
   13d2e:	03410913          	addi	s2,sp,52
   13d32:	4661                	li	a2,24
   13d34:	854a                	mv	a0,s2
   13d36:	4581                	li	a1,0
   13d38:	0000a097          	auipc	ra,0xa
   13d3c:	9d2080e7          	jalr	-1582(ra) # 1d70a <memset>
   13d40:	8626                	mv	a2,s1
   13d42:	028109a3          	sb	s0,51(sp)
   13d46:	6505                	lui	a0,0x1
   13d48:	4491                	li	s1,4
   13d4a:	45a5                	li	a1,9
   13d4c:	a7050793          	addi	a5,a0,-1424 # a70 <.Lline_table_start1+0x845>
   13d50:	02500693          	li	a3,37
   13d54:	4711                	li	a4,4
   13d56:	853e                	mv	a0,a5
   13d58:	00000073          	ecall
   13d5c:	00851863          	bne	a0,s0,13d6c <_ZN20complex_dynamic_type3app17h5864a3813bee3ad3E+0x64>
   13d60:	4505                	li	a0,1
   13d62:	00a98023          	sb	a0,0(s3)
   13d66:	00b9a223          	sw	a1,4(s3)
   13d6a:	a0b5                	j	13dd6 <_ZN20complex_dynamic_type3app17h5864a3813bee3ad3E+0xce>
   13d6c:	853e                	mv	a0,a5
   13d6e:	864a                	mv	a2,s2
   13d70:	009106a3          	sb	s1,13(sp)
   13d74:	478d                	li	a5,3
   13d76:	45a1                	li	a1,8
   13d78:	46e1                	li	a3,24
   13d7a:	470d                	li	a4,3
   13d7c:	00000073          	ecall
   13d80:	00851d63          	bne	a0,s0,13d9a <_ZN20complex_dynamic_type3app17h5864a3813bee3ad3E+0x92>
   13d84:	03314703          	lbu	a4,51(sp)
   13d88:	4505                	li	a0,1
   13d8a:	4609                	li	a2,2
   13d8c:	00a98023          	sb	a0,0(s3)
   13d90:	00b9a223          	sw	a1,4(s3)
   13d94:	02c71963          	bne	a4,a2,13dc6 <_ZN20complex_dynamic_type3app17h5864a3813bee3ad3E+0xbe>
   13d98:	a83d                	j	13dd6 <_ZN20complex_dynamic_type3app17h5864a3813bee3ad3E+0xce>
   13d9a:	4681                	li	a3,0
   13d9c:	02f109a3          	sb	a5,51(sp)
   13da0:	6505                	lui	a0,0x1
   13da2:	45a5                	li	a1,9
   13da4:	4621                	li	a2,8
   13da6:	4709                	li	a4,2
   13da8:	a7050513          	addi	a0,a0,-1424 # a70 <.Lline_table_start1+0x845>
   13dac:	07f00793          	li	a5,127
   13db0:	00000073          	ecall
   13db4:	4609                	li	a2,2
   13db6:	04a7e563          	bltu	a5,a0,13e00 <_ZN20complex_dynamic_type3app17h5864a3813bee3ad3E+0xf8>
   13dba:	4505                	li	a0,1
   13dbc:	00a98023          	sb	a0,0(s3)
   13dc0:	00b9a223          	sw	a1,4(s3)
   13dc4:	470d                	li	a4,3
   13dc6:	6505                	lui	a0,0x1
   13dc8:	a7050513          	addi	a0,a0,-1424 # a70 <.Lline_table_start1+0x845>
   13dcc:	45a1                	li	a1,8
   13dce:	4601                	li	a2,0
   13dd0:	4681                	li	a3,0
   13dd2:	00000073          	ecall
   13dd6:	00d14483          	lbu	s1,13(sp)
   13dda:	4509                	li	a0,2
   13ddc:	00a48b63          	beq	s1,a0,13df2 <_ZN20complex_dynamic_type3app17h5864a3813bee3ad3E+0xea>
   13de0:	6505                	lui	a0,0x1
   13de2:	a7050513          	addi	a0,a0,-1424 # a70 <.Lline_table_start1+0x845>
   13de6:	45a5                	li	a1,9
   13de8:	4601                	li	a2,0
   13dea:	4681                	li	a3,0
   13dec:	8726                	mv	a4,s1
   13dee:	00000073          	ecall
   13df2:	40f6                	lw	ra,92(sp)
   13df4:	4466                	lw	s0,88(sp)
   13df6:	44d6                	lw	s1,84(sp)
   13df8:	4946                	lw	s2,80(sp)
   13dfa:	49b6                	lw	s3,76(sp)
   13dfc:	6125                	addi	sp,sp,96
   13dfe:	8082                	ret
   13e00:	00d14703          	lbu	a4,13(sp)
   13e04:	00c71463          	bne	a4,a2,13e0c <_ZN20complex_dynamic_type3app17h5864a3813bee3ad3E+0x104>
   13e08:	470d                	li	a4,3
   13e0a:	a81d                	j	13e40 <_ZN20complex_dynamic_type3app17h5864a3813bee3ad3E+0x138>
   13e0c:	6505                	lui	a0,0x1
   13e0e:	a7050513          	addi	a0,a0,-1424 # a70 <.Lline_table_start1+0x845>
   13e12:	45a5                	li	a1,9
   13e14:	4601                	li	a2,0
   13e16:	4681                	li	a3,0
   13e18:	00000073          	ecall
   13e1c:	03314703          	lbu	a4,51(sp)
   13e20:	4509                	li	a0,2
   13e22:	00a106a3          	sb	a0,13(sp)
   13e26:	00a71d63          	bne	a4,a0,13e40 <_ZN20complex_dynamic_type3app17h5864a3813bee3ad3E+0x138>
   13e2a:	00198513          	addi	a0,s3,1
   13e2e:	4661                	li	a2,24
   13e30:	85ca                	mv	a1,s2
   13e32:	0000a097          	auipc	ra,0xa
   13e36:	944080e7          	jalr	-1724(ra) # 1d776 <memcpy>
   13e3a:	00098023          	sb	zero,0(s3)
   13e3e:	bf55                	j	13df2 <_ZN20complex_dynamic_type3app17h5864a3813bee3ad3E+0xea>
   13e40:	6505                	lui	a0,0x1
   13e42:	a7050513          	addi	a0,a0,-1424 # a70 <.Lline_table_start1+0x845>
   13e46:	45a1                	li	a1,8
   13e48:	4601                	li	a2,0
   13e4a:	4681                	li	a3,0
   13e4c:	00000073          	ecall
   13e50:	00d14483          	lbu	s1,13(sp)
   13e54:	00198513          	addi	a0,s3,1
   13e58:	4661                	li	a2,24
   13e5a:	85ca                	mv	a1,s2
   13e5c:	0000a097          	auipc	ra,0xa
   13e60:	91a080e7          	jalr	-1766(ra) # 1d776 <memcpy>
   13e64:	4509                	li	a0,2
   13e66:	00098023          	sb	zero,0(s3)
   13e6a:	f6a49be3          	bne	s1,a0,13de0 <_ZN20complex_dynamic_type3app17h5864a3813bee3ad3E+0xd8>
   13e6e:	b751                	j	13df2 <_ZN20complex_dynamic_type3app17h5864a3813bee3ad3E+0xea>

00013e70 <_ZN20complex_dynamic_type3app17h58ba2ea6d6ef7569E>:
   13e70:	711d                	addi	sp,sp,-96
   13e72:	ce86                	sw	ra,92(sp)
   13e74:	cca2                	sw	s0,88(sp)
   13e76:	caa6                	sw	s1,84(sp)
   13e78:	c8ca                	sw	s2,80(sp)
   13e7a:	c6ce                	sw	s3,76(sp)
   13e7c:	89aa                	mv	s3,a0
   13e7e:	4409                	li	s0,2
   13e80:	008105a3          	sb	s0,11(sp)
   13e84:	0064                	addi	s1,sp,12
   13e86:	4651                	li	a2,20
   13e88:	8526                	mv	a0,s1
   13e8a:	0000a097          	auipc	ra,0xa
   13e8e:	8ec080e7          	jalr	-1812(ra) # 1d776 <memcpy>
   13e92:	02110913          	addi	s2,sp,33
   13e96:	02b00613          	li	a2,43
   13e9a:	854a                	mv	a0,s2
   13e9c:	4581                	li	a1,0
   13e9e:	0000a097          	auipc	ra,0xa
   13ea2:	86c080e7          	jalr	-1940(ra) # 1d70a <memset>
   13ea6:	8626                	mv	a2,s1
   13ea8:	02810023          	sb	s0,32(sp)
   13eac:	6509                	lui	a0,0x2
   13eae:	4491                	li	s1,4
   13eb0:	45a1                	li	a1,8
   13eb2:	39f50793          	addi	a5,a0,927 # 239f <.Lline_table_start1+0x2174>
   13eb6:	46d1                	li	a3,20
   13eb8:	4711                	li	a4,4
   13eba:	853e                	mv	a0,a5
   13ebc:	00000073          	ecall
   13ec0:	00851863          	bne	a0,s0,13ed0 <_ZN20complex_dynamic_type3app17h58ba2ea6d6ef7569E+0x60>
   13ec4:	4505                	li	a0,1
   13ec6:	00a98023          	sb	a0,0(s3)
   13eca:	00b9a223          	sw	a1,4(s3)
   13ece:	a0bd                	j	13f3c <_ZN20complex_dynamic_type3app17h58ba2ea6d6ef7569E+0xcc>
   13ed0:	853e                	mv	a0,a5
   13ed2:	864a                	mv	a2,s2
   13ed4:	009105a3          	sb	s1,11(sp)
   13ed8:	478d                	li	a5,3
   13eda:	4591                	li	a1,4
   13edc:	02b00693          	li	a3,43
   13ee0:	470d                	li	a4,3
   13ee2:	00000073          	ecall
   13ee6:	00851d63          	bne	a0,s0,13f00 <_ZN20complex_dynamic_type3app17h58ba2ea6d6ef7569E+0x90>
   13eea:	02014703          	lbu	a4,32(sp)
   13eee:	4505                	li	a0,1
   13ef0:	4609                	li	a2,2
   13ef2:	00a98023          	sb	a0,0(s3)
   13ef6:	00b9a223          	sw	a1,4(s3)
   13efa:	02c71963          	bne	a4,a2,13f2c <_ZN20complex_dynamic_type3app17h58ba2ea6d6ef7569E+0xbc>
   13efe:	a83d                	j	13f3c <_ZN20complex_dynamic_type3app17h58ba2ea6d6ef7569E+0xcc>
   13f00:	4681                	li	a3,0
   13f02:	02f10023          	sb	a5,32(sp)
   13f06:	6509                	lui	a0,0x2
   13f08:	45a1                	li	a1,8
   13f0a:	4611                	li	a2,4
   13f0c:	4709                	li	a4,2
   13f0e:	39f50513          	addi	a0,a0,927 # 239f <.Lline_table_start1+0x2174>
   13f12:	07f00793          	li	a5,127
   13f16:	00000073          	ecall
   13f1a:	4609                	li	a2,2
   13f1c:	04a7e563          	bltu	a5,a0,13f66 <_ZN20complex_dynamic_type3app17h58ba2ea6d6ef7569E+0xf6>
   13f20:	4505                	li	a0,1
   13f22:	00a98023          	sb	a0,0(s3)
   13f26:	00b9a223          	sw	a1,4(s3)
   13f2a:	470d                	li	a4,3
   13f2c:	6509                	lui	a0,0x2
   13f2e:	39f50513          	addi	a0,a0,927 # 239f <.Lline_table_start1+0x2174>
   13f32:	4591                	li	a1,4
   13f34:	4601                	li	a2,0
   13f36:	4681                	li	a3,0
   13f38:	00000073          	ecall
   13f3c:	00b14483          	lbu	s1,11(sp)
   13f40:	4509                	li	a0,2
   13f42:	00a48b63          	beq	s1,a0,13f58 <_ZN20complex_dynamic_type3app17h58ba2ea6d6ef7569E+0xe8>
   13f46:	6509                	lui	a0,0x2
   13f48:	39f50513          	addi	a0,a0,927 # 239f <.Lline_table_start1+0x2174>
   13f4c:	45a1                	li	a1,8
   13f4e:	4601                	li	a2,0
   13f50:	4681                	li	a3,0
   13f52:	8726                	mv	a4,s1
   13f54:	00000073          	ecall
   13f58:	40f6                	lw	ra,92(sp)
   13f5a:	4466                	lw	s0,88(sp)
   13f5c:	44d6                	lw	s1,84(sp)
   13f5e:	4946                	lw	s2,80(sp)
   13f60:	49b6                	lw	s3,76(sp)
   13f62:	6125                	addi	sp,sp,96
   13f64:	8082                	ret
   13f66:	00b14703          	lbu	a4,11(sp)
   13f6a:	00c71463          	bne	a4,a2,13f72 <_ZN20complex_dynamic_type3app17h58ba2ea6d6ef7569E+0x102>
   13f6e:	470d                	li	a4,3
   13f70:	a825                	j	13fa8 <_ZN20complex_dynamic_type3app17h58ba2ea6d6ef7569E+0x138>
   13f72:	6509                	lui	a0,0x2
   13f74:	39f50513          	addi	a0,a0,927 # 239f <.Lline_table_start1+0x2174>
   13f78:	45a1                	li	a1,8
   13f7a:	4601                	li	a2,0
   13f7c:	4681                	li	a3,0
   13f7e:	00000073          	ecall
   13f82:	02014703          	lbu	a4,32(sp)
   13f86:	4509                	li	a0,2
   13f88:	00a105a3          	sb	a0,11(sp)
   13f8c:	00a71e63          	bne	a4,a0,13fa8 <_ZN20complex_dynamic_type3app17h58ba2ea6d6ef7569E+0x138>
   13f90:	00198513          	addi	a0,s3,1
   13f94:	02b00613          	li	a2,43
   13f98:	85ca                	mv	a1,s2
   13f9a:	00009097          	auipc	ra,0x9
   13f9e:	7dc080e7          	jalr	2012(ra) # 1d776 <memcpy>
   13fa2:	00098023          	sb	zero,0(s3)
   13fa6:	bf4d                	j	13f58 <_ZN20complex_dynamic_type3app17h58ba2ea6d6ef7569E+0xe8>
   13fa8:	6509                	lui	a0,0x2
   13faa:	39f50513          	addi	a0,a0,927 # 239f <.Lline_table_start1+0x2174>
   13fae:	4591                	li	a1,4
   13fb0:	4601                	li	a2,0
   13fb2:	4681                	li	a3,0
   13fb4:	00000073          	ecall
   13fb8:	00b14483          	lbu	s1,11(sp)
   13fbc:	00198513          	addi	a0,s3,1
   13fc0:	02b00613          	li	a2,43
   13fc4:	85ca                	mv	a1,s2
   13fc6:	00009097          	auipc	ra,0x9
   13fca:	7b0080e7          	jalr	1968(ra) # 1d776 <memcpy>
   13fce:	4509                	li	a0,2
   13fd0:	00098023          	sb	zero,0(s3)
   13fd4:	f6a499e3          	bne	s1,a0,13f46 <_ZN20complex_dynamic_type3app17h58ba2ea6d6ef7569E+0xd6>
   13fd8:	b741                	j	13f58 <_ZN20complex_dynamic_type3app17h58ba2ea6d6ef7569E+0xe8>

00013fda <_ZN20complex_dynamic_type3app17h5c43998b847a66c5E>:
   13fda:	711d                	addi	sp,sp,-96
   13fdc:	ce86                	sw	ra,92(sp)
   13fde:	cca2                	sw	s0,88(sp)
   13fe0:	caa6                	sw	s1,84(sp)
   13fe2:	c8ca                	sw	s2,80(sp)
   13fe4:	c6ce                	sw	s3,76(sp)
   13fe6:	89aa                	mv	s3,a0
   13fe8:	4409                	li	s0,2
   13fea:	008105a3          	sb	s0,11(sp)
   13fee:	0064                	addi	s1,sp,12
   13ff0:	4679                	li	a2,30
   13ff2:	8526                	mv	a0,s1
   13ff4:	00009097          	auipc	ra,0x9
   13ff8:	782080e7          	jalr	1922(ra) # 1d776 <memcpy>
   13ffc:	02b10913          	addi	s2,sp,43
   14000:	02100613          	li	a2,33
   14004:	854a                	mv	a0,s2
   14006:	4581                	li	a1,0
   14008:	00009097          	auipc	ra,0x9
   1400c:	702080e7          	jalr	1794(ra) # 1d70a <memset>
   14010:	8626                	mv	a2,s1
   14012:	02810523          	sb	s0,42(sp)
   14016:	6509                	lui	a0,0x2
   14018:	4491                	li	s1,4
   1401a:	4599                	li	a1,6
   1401c:	9b550793          	addi	a5,a0,-1611 # 19b5 <.Lline_table_start1+0x178a>
   14020:	46f9                	li	a3,30
   14022:	4711                	li	a4,4
   14024:	853e                	mv	a0,a5
   14026:	00000073          	ecall
   1402a:	00851863          	bne	a0,s0,1403a <_ZN20complex_dynamic_type3app17h5c43998b847a66c5E+0x60>
   1402e:	4505                	li	a0,1
   14030:	00a98023          	sb	a0,0(s3)
   14034:	00b9a223          	sw	a1,4(s3)
   14038:	a0bd                	j	140a6 <_ZN20complex_dynamic_type3app17h5c43998b847a66c5E+0xcc>
   1403a:	853e                	mv	a0,a5
   1403c:	864a                	mv	a2,s2
   1403e:	009105a3          	sb	s1,11(sp)
   14042:	478d                	li	a5,3
   14044:	45a5                	li	a1,9
   14046:	02100693          	li	a3,33
   1404a:	470d                	li	a4,3
   1404c:	00000073          	ecall
   14050:	00851d63          	bne	a0,s0,1406a <_ZN20complex_dynamic_type3app17h5c43998b847a66c5E+0x90>
   14054:	02a14703          	lbu	a4,42(sp)
   14058:	4505                	li	a0,1
   1405a:	4609                	li	a2,2
   1405c:	00a98023          	sb	a0,0(s3)
   14060:	00b9a223          	sw	a1,4(s3)
   14064:	02c71963          	bne	a4,a2,14096 <_ZN20complex_dynamic_type3app17h5c43998b847a66c5E+0xbc>
   14068:	a83d                	j	140a6 <_ZN20complex_dynamic_type3app17h5c43998b847a66c5E+0xcc>
   1406a:	4681                	li	a3,0
   1406c:	02f10523          	sb	a5,42(sp)
   14070:	6509                	lui	a0,0x2
   14072:	4599                	li	a1,6
   14074:	4625                	li	a2,9
   14076:	4709                	li	a4,2
   14078:	9b550513          	addi	a0,a0,-1611 # 19b5 <.Lline_table_start1+0x178a>
   1407c:	07f00793          	li	a5,127
   14080:	00000073          	ecall
   14084:	4609                	li	a2,2
   14086:	04a7e563          	bltu	a5,a0,140d0 <_ZN20complex_dynamic_type3app17h5c43998b847a66c5E+0xf6>
   1408a:	4505                	li	a0,1
   1408c:	00a98023          	sb	a0,0(s3)
   14090:	00b9a223          	sw	a1,4(s3)
   14094:	470d                	li	a4,3
   14096:	6509                	lui	a0,0x2
   14098:	9b550513          	addi	a0,a0,-1611 # 19b5 <.Lline_table_start1+0x178a>
   1409c:	45a5                	li	a1,9
   1409e:	4601                	li	a2,0
   140a0:	4681                	li	a3,0
   140a2:	00000073          	ecall
   140a6:	00b14483          	lbu	s1,11(sp)
   140aa:	4509                	li	a0,2
   140ac:	00a48b63          	beq	s1,a0,140c2 <_ZN20complex_dynamic_type3app17h5c43998b847a66c5E+0xe8>
   140b0:	6509                	lui	a0,0x2
   140b2:	9b550513          	addi	a0,a0,-1611 # 19b5 <.Lline_table_start1+0x178a>
   140b6:	4599                	li	a1,6
   140b8:	4601                	li	a2,0
   140ba:	4681                	li	a3,0
   140bc:	8726                	mv	a4,s1
   140be:	00000073          	ecall
   140c2:	40f6                	lw	ra,92(sp)
   140c4:	4466                	lw	s0,88(sp)
   140c6:	44d6                	lw	s1,84(sp)
   140c8:	4946                	lw	s2,80(sp)
   140ca:	49b6                	lw	s3,76(sp)
   140cc:	6125                	addi	sp,sp,96
   140ce:	8082                	ret
   140d0:	00b14703          	lbu	a4,11(sp)
   140d4:	00c71463          	bne	a4,a2,140dc <_ZN20complex_dynamic_type3app17h5c43998b847a66c5E+0x102>
   140d8:	470d                	li	a4,3
   140da:	a825                	j	14112 <_ZN20complex_dynamic_type3app17h5c43998b847a66c5E+0x138>
   140dc:	6509                	lui	a0,0x2
   140de:	9b550513          	addi	a0,a0,-1611 # 19b5 <.Lline_table_start1+0x178a>
   140e2:	4599                	li	a1,6
   140e4:	4601                	li	a2,0
   140e6:	4681                	li	a3,0
   140e8:	00000073          	ecall
   140ec:	02a14703          	lbu	a4,42(sp)
   140f0:	4509                	li	a0,2
   140f2:	00a105a3          	sb	a0,11(sp)
   140f6:	00a71e63          	bne	a4,a0,14112 <_ZN20complex_dynamic_type3app17h5c43998b847a66c5E+0x138>
   140fa:	00198513          	addi	a0,s3,1
   140fe:	02100613          	li	a2,33
   14102:	85ca                	mv	a1,s2
   14104:	00009097          	auipc	ra,0x9
   14108:	672080e7          	jalr	1650(ra) # 1d776 <memcpy>
   1410c:	00098023          	sb	zero,0(s3)
   14110:	bf4d                	j	140c2 <_ZN20complex_dynamic_type3app17h5c43998b847a66c5E+0xe8>
   14112:	6509                	lui	a0,0x2
   14114:	9b550513          	addi	a0,a0,-1611 # 19b5 <.Lline_table_start1+0x178a>
   14118:	45a5                	li	a1,9
   1411a:	4601                	li	a2,0
   1411c:	4681                	li	a3,0
   1411e:	00000073          	ecall
   14122:	00b14483          	lbu	s1,11(sp)
   14126:	00198513          	addi	a0,s3,1
   1412a:	02100613          	li	a2,33
   1412e:	85ca                	mv	a1,s2
   14130:	00009097          	auipc	ra,0x9
   14134:	646080e7          	jalr	1606(ra) # 1d776 <memcpy>
   14138:	4509                	li	a0,2
   1413a:	00098023          	sb	zero,0(s3)
   1413e:	f6a499e3          	bne	s1,a0,140b0 <_ZN20complex_dynamic_type3app17h5c43998b847a66c5E+0xd6>
   14142:	b741                	j	140c2 <_ZN20complex_dynamic_type3app17h5c43998b847a66c5E+0xe8>

00014144 <_ZN20complex_dynamic_type3app17h5dac077b4e6581d1E>:
   14144:	7159                	addi	sp,sp,-112
   14146:	d686                	sw	ra,108(sp)
   14148:	d4a2                	sw	s0,104(sp)
   1414a:	d2a6                	sw	s1,100(sp)
   1414c:	d0ca                	sw	s2,96(sp)
   1414e:	cece                	sw	s3,92(sp)
   14150:	89aa                	mv	s3,a0
   14152:	4409                	li	s0,2
   14154:	008100a3          	sb	s0,1(sp)
   14158:	00210493          	addi	s1,sp,2
   1415c:	04100613          	li	a2,65
   14160:	8526                	mv	a0,s1
   14162:	00009097          	auipc	ra,0x9
   14166:	614080e7          	jalr	1556(ra) # 1d776 <memcpy>
   1416a:	04410913          	addi	s2,sp,68
   1416e:	4661                	li	a2,24
   14170:	854a                	mv	a0,s2
   14172:	4581                	li	a1,0
   14174:	00009097          	auipc	ra,0x9
   14178:	596080e7          	jalr	1430(ra) # 1d70a <memset>
   1417c:	8626                	mv	a2,s1
   1417e:	048101a3          	sb	s0,67(sp)
   14182:	6509                	lui	a0,0x2
   14184:	4805                	li	a6,1
   14186:	4491                	li	s1,4
   14188:	4585                	li	a1,1
   1418a:	15650793          	addi	a5,a0,342 # 2156 <.Lline_table_start1+0x1f2b>
   1418e:	04100693          	li	a3,65
   14192:	4711                	li	a4,4
   14194:	853e                	mv	a0,a5
   14196:	00000073          	ecall
   1419a:	00851763          	bne	a0,s0,141a8 <_ZN20complex_dynamic_type3app17h5dac077b4e6581d1E+0x64>
   1419e:	01098023          	sb	a6,0(s3)
   141a2:	00b9a223          	sw	a1,4(s3)
   141a6:	a0b5                	j	14212 <_ZN20complex_dynamic_type3app17h5dac077b4e6581d1E+0xce>
   141a8:	853e                	mv	a0,a5
   141aa:	864a                	mv	a2,s2
   141ac:	009100a3          	sb	s1,1(sp)
   141b0:	478d                	li	a5,3
   141b2:	45a5                	li	a1,9
   141b4:	46e1                	li	a3,24
   141b6:	470d                	li	a4,3
   141b8:	00000073          	ecall
   141bc:	00851d63          	bne	a0,s0,141d6 <_ZN20complex_dynamic_type3app17h5dac077b4e6581d1E+0x92>
   141c0:	04314703          	lbu	a4,67(sp)
   141c4:	4505                	li	a0,1
   141c6:	4609                	li	a2,2
   141c8:	00a98023          	sb	a0,0(s3)
   141cc:	00b9a223          	sw	a1,4(s3)
   141d0:	02c71963          	bne	a4,a2,14202 <_ZN20complex_dynamic_type3app17h5dac077b4e6581d1E+0xbe>
   141d4:	a83d                	j	14212 <_ZN20complex_dynamic_type3app17h5dac077b4e6581d1E+0xce>
   141d6:	4681                	li	a3,0
   141d8:	04f101a3          	sb	a5,67(sp)
   141dc:	6509                	lui	a0,0x2
   141de:	4785                	li	a5,1
   141e0:	4585                	li	a1,1
   141e2:	4625                	li	a2,9
   141e4:	4709                	li	a4,2
   141e6:	15650513          	addi	a0,a0,342 # 2156 <.Lline_table_start1+0x1f2b>
   141ea:	07f00493          	li	s1,127
   141ee:	00000073          	ecall
   141f2:	4609                	li	a2,2
   141f4:	04a4e463          	bltu	s1,a0,1423c <_ZN20complex_dynamic_type3app17h5dac077b4e6581d1E+0xf8>
   141f8:	00f98023          	sb	a5,0(s3)
   141fc:	00b9a223          	sw	a1,4(s3)
   14200:	470d                	li	a4,3
   14202:	6509                	lui	a0,0x2
   14204:	15650513          	addi	a0,a0,342 # 2156 <.Lline_table_start1+0x1f2b>
   14208:	45a5                	li	a1,9
   1420a:	4601                	li	a2,0
   1420c:	4681                	li	a3,0
   1420e:	00000073          	ecall
   14212:	00114483          	lbu	s1,1(sp)
   14216:	4509                	li	a0,2
   14218:	00a48b63          	beq	s1,a0,1422e <_ZN20complex_dynamic_type3app17h5dac077b4e6581d1E+0xea>
   1421c:	6509                	lui	a0,0x2
   1421e:	15650513          	addi	a0,a0,342 # 2156 <.Lline_table_start1+0x1f2b>
   14222:	4585                	li	a1,1
   14224:	4601                	li	a2,0
   14226:	4681                	li	a3,0
   14228:	8726                	mv	a4,s1
   1422a:	00000073          	ecall
   1422e:	50b6                	lw	ra,108(sp)
   14230:	5426                	lw	s0,104(sp)
   14232:	5496                	lw	s1,100(sp)
   14234:	5906                	lw	s2,96(sp)
   14236:	49f6                	lw	s3,92(sp)
   14238:	6165                	addi	sp,sp,112
   1423a:	8082                	ret
   1423c:	00114703          	lbu	a4,1(sp)
   14240:	00c71463          	bne	a4,a2,14248 <_ZN20complex_dynamic_type3app17h5dac077b4e6581d1E+0x104>
   14244:	470d                	li	a4,3
   14246:	a81d                	j	1427c <_ZN20complex_dynamic_type3app17h5dac077b4e6581d1E+0x138>
   14248:	6509                	lui	a0,0x2
   1424a:	15650513          	addi	a0,a0,342 # 2156 <.Lline_table_start1+0x1f2b>
   1424e:	4585                	li	a1,1
   14250:	4601                	li	a2,0
   14252:	4681                	li	a3,0
   14254:	00000073          	ecall
   14258:	04314703          	lbu	a4,67(sp)
   1425c:	4509                	li	a0,2
   1425e:	00a100a3          	sb	a0,1(sp)
   14262:	00a71d63          	bne	a4,a0,1427c <_ZN20complex_dynamic_type3app17h5dac077b4e6581d1E+0x138>
   14266:	00198513          	addi	a0,s3,1
   1426a:	4661                	li	a2,24
   1426c:	85ca                	mv	a1,s2
   1426e:	00009097          	auipc	ra,0x9
   14272:	508080e7          	jalr	1288(ra) # 1d776 <memcpy>
   14276:	00098023          	sb	zero,0(s3)
   1427a:	bf55                	j	1422e <_ZN20complex_dynamic_type3app17h5dac077b4e6581d1E+0xea>
   1427c:	6509                	lui	a0,0x2
   1427e:	15650513          	addi	a0,a0,342 # 2156 <.Lline_table_start1+0x1f2b>
   14282:	45a5                	li	a1,9
   14284:	4601                	li	a2,0
   14286:	4681                	li	a3,0
   14288:	00000073          	ecall
   1428c:	00114483          	lbu	s1,1(sp)
   14290:	00198513          	addi	a0,s3,1
   14294:	4661                	li	a2,24
   14296:	85ca                	mv	a1,s2
   14298:	00009097          	auipc	ra,0x9
   1429c:	4de080e7          	jalr	1246(ra) # 1d776 <memcpy>
   142a0:	4509                	li	a0,2
   142a2:	00098023          	sb	zero,0(s3)
   142a6:	f6a49be3          	bne	s1,a0,1421c <_ZN20complex_dynamic_type3app17h5dac077b4e6581d1E+0xd8>
   142aa:	b751                	j	1422e <_ZN20complex_dynamic_type3app17h5dac077b4e6581d1E+0xea>

000142ac <_ZN20complex_dynamic_type3app17h5f2f69985eda1b8cE>:
   142ac:	7119                	addi	sp,sp,-128
   142ae:	de86                	sw	ra,124(sp)
   142b0:	dca2                	sw	s0,120(sp)
   142b2:	daa6                	sw	s1,116(sp)
   142b4:	d8ca                	sw	s2,112(sp)
   142b6:	d6ce                	sw	s3,108(sp)
   142b8:	89aa                	mv	s3,a0
   142ba:	4409                	li	s0,2
   142bc:	008105a3          	sb	s0,11(sp)
   142c0:	0064                	addi	s1,sp,12
   142c2:	03800613          	li	a2,56
   142c6:	8526                	mv	a0,s1
   142c8:	00009097          	auipc	ra,0x9
   142cc:	4ae080e7          	jalr	1198(ra) # 1d776 <memcpy>
   142d0:	04510913          	addi	s2,sp,69
   142d4:	02700613          	li	a2,39
   142d8:	854a                	mv	a0,s2
   142da:	4581                	li	a1,0
   142dc:	00009097          	auipc	ra,0x9
   142e0:	42e080e7          	jalr	1070(ra) # 1d70a <memset>
   142e4:	8626                	mv	a2,s1
   142e6:	04810223          	sb	s0,68(sp)
   142ea:	6505                	lui	a0,0x1
   142ec:	4491                	li	s1,4
   142ee:	4589                	li	a1,2
   142f0:	e2b50793          	addi	a5,a0,-469 # e2b <.Lline_table_start1+0xc00>
   142f4:	03800693          	li	a3,56
   142f8:	4711                	li	a4,4
   142fa:	853e                	mv	a0,a5
   142fc:	00000073          	ecall
   14300:	00851863          	bne	a0,s0,14310 <_ZN20complex_dynamic_type3app17h5f2f69985eda1b8cE+0x64>
   14304:	4505                	li	a0,1
   14306:	00a98023          	sb	a0,0(s3)
   1430a:	00b9a223          	sw	a1,4(s3)
   1430e:	a0bd                	j	1437c <_ZN20complex_dynamic_type3app17h5f2f69985eda1b8cE+0xd0>
   14310:	853e                	mv	a0,a5
   14312:	864a                	mv	a2,s2
   14314:	009105a3          	sb	s1,11(sp)
   14318:	478d                	li	a5,3
   1431a:	45a1                	li	a1,8
   1431c:	02700693          	li	a3,39
   14320:	470d                	li	a4,3
   14322:	00000073          	ecall
   14326:	00851d63          	bne	a0,s0,14340 <_ZN20complex_dynamic_type3app17h5f2f69985eda1b8cE+0x94>
   1432a:	04414703          	lbu	a4,68(sp)
   1432e:	4505                	li	a0,1
   14330:	4609                	li	a2,2
   14332:	00a98023          	sb	a0,0(s3)
   14336:	00b9a223          	sw	a1,4(s3)
   1433a:	02c71963          	bne	a4,a2,1436c <_ZN20complex_dynamic_type3app17h5f2f69985eda1b8cE+0xc0>
   1433e:	a83d                	j	1437c <_ZN20complex_dynamic_type3app17h5f2f69985eda1b8cE+0xd0>
   14340:	4681                	li	a3,0
   14342:	04f10223          	sb	a5,68(sp)
   14346:	6505                	lui	a0,0x1
   14348:	4589                	li	a1,2
   1434a:	4621                	li	a2,8
   1434c:	4709                	li	a4,2
   1434e:	e2b50513          	addi	a0,a0,-469 # e2b <.Lline_table_start1+0xc00>
   14352:	07f00793          	li	a5,127
   14356:	00000073          	ecall
   1435a:	4609                	li	a2,2
   1435c:	04a7e563          	bltu	a5,a0,143a6 <_ZN20complex_dynamic_type3app17h5f2f69985eda1b8cE+0xfa>
   14360:	4505                	li	a0,1
   14362:	00a98023          	sb	a0,0(s3)
   14366:	00b9a223          	sw	a1,4(s3)
   1436a:	470d                	li	a4,3
   1436c:	6505                	lui	a0,0x1
   1436e:	e2b50513          	addi	a0,a0,-469 # e2b <.Lline_table_start1+0xc00>
   14372:	45a1                	li	a1,8
   14374:	4601                	li	a2,0
   14376:	4681                	li	a3,0
   14378:	00000073          	ecall
   1437c:	00b14483          	lbu	s1,11(sp)
   14380:	4509                	li	a0,2
   14382:	00a48b63          	beq	s1,a0,14398 <_ZN20complex_dynamic_type3app17h5f2f69985eda1b8cE+0xec>
   14386:	6505                	lui	a0,0x1
   14388:	e2b50513          	addi	a0,a0,-469 # e2b <.Lline_table_start1+0xc00>
   1438c:	4589                	li	a1,2
   1438e:	4601                	li	a2,0
   14390:	4681                	li	a3,0
   14392:	8726                	mv	a4,s1
   14394:	00000073          	ecall
   14398:	50f6                	lw	ra,124(sp)
   1439a:	5466                	lw	s0,120(sp)
   1439c:	54d6                	lw	s1,116(sp)
   1439e:	5946                	lw	s2,112(sp)
   143a0:	59b6                	lw	s3,108(sp)
   143a2:	6109                	addi	sp,sp,128
   143a4:	8082                	ret
   143a6:	00b14703          	lbu	a4,11(sp)
   143aa:	00c71463          	bne	a4,a2,143b2 <_ZN20complex_dynamic_type3app17h5f2f69985eda1b8cE+0x106>
   143ae:	470d                	li	a4,3
   143b0:	a825                	j	143e8 <_ZN20complex_dynamic_type3app17h5f2f69985eda1b8cE+0x13c>
   143b2:	6505                	lui	a0,0x1
   143b4:	e2b50513          	addi	a0,a0,-469 # e2b <.Lline_table_start1+0xc00>
   143b8:	4589                	li	a1,2
   143ba:	4601                	li	a2,0
   143bc:	4681                	li	a3,0
   143be:	00000073          	ecall
   143c2:	04414703          	lbu	a4,68(sp)
   143c6:	4509                	li	a0,2
   143c8:	00a105a3          	sb	a0,11(sp)
   143cc:	00a71e63          	bne	a4,a0,143e8 <_ZN20complex_dynamic_type3app17h5f2f69985eda1b8cE+0x13c>
   143d0:	00198513          	addi	a0,s3,1
   143d4:	02700613          	li	a2,39
   143d8:	85ca                	mv	a1,s2
   143da:	00009097          	auipc	ra,0x9
   143de:	39c080e7          	jalr	924(ra) # 1d776 <memcpy>
   143e2:	00098023          	sb	zero,0(s3)
   143e6:	bf4d                	j	14398 <_ZN20complex_dynamic_type3app17h5f2f69985eda1b8cE+0xec>
   143e8:	6505                	lui	a0,0x1
   143ea:	e2b50513          	addi	a0,a0,-469 # e2b <.Lline_table_start1+0xc00>
   143ee:	45a1                	li	a1,8
   143f0:	4601                	li	a2,0
   143f2:	4681                	li	a3,0
   143f4:	00000073          	ecall
   143f8:	00b14483          	lbu	s1,11(sp)
   143fc:	00198513          	addi	a0,s3,1
   14400:	02700613          	li	a2,39
   14404:	85ca                	mv	a1,s2
   14406:	00009097          	auipc	ra,0x9
   1440a:	370080e7          	jalr	880(ra) # 1d776 <memcpy>
   1440e:	4509                	li	a0,2
   14410:	00098023          	sb	zero,0(s3)
   14414:	f6a499e3          	bne	s1,a0,14386 <_ZN20complex_dynamic_type3app17h5f2f69985eda1b8cE+0xda>
   14418:	b741                	j	14398 <_ZN20complex_dynamic_type3app17h5f2f69985eda1b8cE+0xec>

0001441a <_ZN20complex_dynamic_type3app17h656285e52eaef598E>:
   1441a:	7135                	addi	sp,sp,-160
   1441c:	cf06                	sw	ra,156(sp)
   1441e:	cd22                	sw	s0,152(sp)
   14420:	cb26                	sw	s1,148(sp)
   14422:	c94a                	sw	s2,144(sp)
   14424:	c74e                	sw	s3,140(sp)
   14426:	89aa                	mv	s3,a0
   14428:	4409                	li	s0,2
   1442a:	008101a3          	sb	s0,3(sp)
   1442e:	0044                	addi	s1,sp,4
   14430:	05500613          	li	a2,85
   14434:	8526                	mv	a0,s1
   14436:	00009097          	auipc	ra,0x9
   1443a:	340080e7          	jalr	832(ra) # 1d776 <memcpy>
   1443e:	05a10913          	addi	s2,sp,90
   14442:	03200613          	li	a2,50
   14446:	854a                	mv	a0,s2
   14448:	4581                	li	a1,0
   1444a:	00009097          	auipc	ra,0x9
   1444e:	2c0080e7          	jalr	704(ra) # 1d70a <memset>
   14452:	8626                	mv	a2,s1
   14454:	04810ca3          	sb	s0,89(sp)
   14458:	6509                	lui	a0,0x2
   1445a:	4491                	li	s1,4
   1445c:	45a1                	li	a1,8
   1445e:	09550793          	addi	a5,a0,149 # 2095 <.Lline_table_start1+0x1e6a>
   14462:	05500693          	li	a3,85
   14466:	4711                	li	a4,4
   14468:	853e                	mv	a0,a5
   1446a:	00000073          	ecall
   1446e:	00851863          	bne	a0,s0,1447e <_ZN20complex_dynamic_type3app17h656285e52eaef598E+0x64>
   14472:	4505                	li	a0,1
   14474:	00a98023          	sb	a0,0(s3)
   14478:	00b9a223          	sw	a1,4(s3)
   1447c:	a0bd                	j	144ea <_ZN20complex_dynamic_type3app17h656285e52eaef598E+0xd0>
   1447e:	853e                	mv	a0,a5
   14480:	864a                	mv	a2,s2
   14482:	009101a3          	sb	s1,3(sp)
   14486:	478d                	li	a5,3
   14488:	45a1                	li	a1,8
   1448a:	03200693          	li	a3,50
   1448e:	470d                	li	a4,3
   14490:	00000073          	ecall
   14494:	00851d63          	bne	a0,s0,144ae <_ZN20complex_dynamic_type3app17h656285e52eaef598E+0x94>
   14498:	05914703          	lbu	a4,89(sp)
   1449c:	4505                	li	a0,1
   1449e:	4609                	li	a2,2
   144a0:	00a98023          	sb	a0,0(s3)
   144a4:	00b9a223          	sw	a1,4(s3)
   144a8:	02c71963          	bne	a4,a2,144da <_ZN20complex_dynamic_type3app17h656285e52eaef598E+0xc0>
   144ac:	a83d                	j	144ea <_ZN20complex_dynamic_type3app17h656285e52eaef598E+0xd0>
   144ae:	4681                	li	a3,0
   144b0:	04f10ca3          	sb	a5,89(sp)
   144b4:	6509                	lui	a0,0x2
   144b6:	45a1                	li	a1,8
   144b8:	4621                	li	a2,8
   144ba:	4709                	li	a4,2
   144bc:	09550513          	addi	a0,a0,149 # 2095 <.Lline_table_start1+0x1e6a>
   144c0:	07f00793          	li	a5,127
   144c4:	00000073          	ecall
   144c8:	4609                	li	a2,2
   144ca:	04a7e563          	bltu	a5,a0,14514 <_ZN20complex_dynamic_type3app17h656285e52eaef598E+0xfa>
   144ce:	4505                	li	a0,1
   144d0:	00a98023          	sb	a0,0(s3)
   144d4:	00b9a223          	sw	a1,4(s3)
   144d8:	470d                	li	a4,3
   144da:	6509                	lui	a0,0x2
   144dc:	09550513          	addi	a0,a0,149 # 2095 <.Lline_table_start1+0x1e6a>
   144e0:	45a1                	li	a1,8
   144e2:	4601                	li	a2,0
   144e4:	4681                	li	a3,0
   144e6:	00000073          	ecall
   144ea:	00314483          	lbu	s1,3(sp)
   144ee:	4509                	li	a0,2
   144f0:	00a48b63          	beq	s1,a0,14506 <_ZN20complex_dynamic_type3app17h656285e52eaef598E+0xec>
   144f4:	6509                	lui	a0,0x2
   144f6:	09550513          	addi	a0,a0,149 # 2095 <.Lline_table_start1+0x1e6a>
   144fa:	45a1                	li	a1,8
   144fc:	4601                	li	a2,0
   144fe:	4681                	li	a3,0
   14500:	8726                	mv	a4,s1
   14502:	00000073          	ecall
   14506:	40fa                	lw	ra,156(sp)
   14508:	446a                	lw	s0,152(sp)
   1450a:	44da                	lw	s1,148(sp)
   1450c:	494a                	lw	s2,144(sp)
   1450e:	49ba                	lw	s3,140(sp)
   14510:	610d                	addi	sp,sp,160
   14512:	8082                	ret
   14514:	00314703          	lbu	a4,3(sp)
   14518:	00c71463          	bne	a4,a2,14520 <_ZN20complex_dynamic_type3app17h656285e52eaef598E+0x106>
   1451c:	470d                	li	a4,3
   1451e:	a825                	j	14556 <_ZN20complex_dynamic_type3app17h656285e52eaef598E+0x13c>
   14520:	6509                	lui	a0,0x2
   14522:	09550513          	addi	a0,a0,149 # 2095 <.Lline_table_start1+0x1e6a>
   14526:	45a1                	li	a1,8
   14528:	4601                	li	a2,0
   1452a:	4681                	li	a3,0
   1452c:	00000073          	ecall
   14530:	05914703          	lbu	a4,89(sp)
   14534:	4509                	li	a0,2
   14536:	00a101a3          	sb	a0,3(sp)
   1453a:	00a71e63          	bne	a4,a0,14556 <_ZN20complex_dynamic_type3app17h656285e52eaef598E+0x13c>
   1453e:	00198513          	addi	a0,s3,1
   14542:	03200613          	li	a2,50
   14546:	85ca                	mv	a1,s2
   14548:	00009097          	auipc	ra,0x9
   1454c:	22e080e7          	jalr	558(ra) # 1d776 <memcpy>
   14550:	00098023          	sb	zero,0(s3)
   14554:	bf4d                	j	14506 <_ZN20complex_dynamic_type3app17h656285e52eaef598E+0xec>
   14556:	6509                	lui	a0,0x2
   14558:	09550513          	addi	a0,a0,149 # 2095 <.Lline_table_start1+0x1e6a>
   1455c:	45a1                	li	a1,8
   1455e:	4601                	li	a2,0
   14560:	4681                	li	a3,0
   14562:	00000073          	ecall
   14566:	00314483          	lbu	s1,3(sp)
   1456a:	00198513          	addi	a0,s3,1
   1456e:	03200613          	li	a2,50
   14572:	85ca                	mv	a1,s2
   14574:	00009097          	auipc	ra,0x9
   14578:	202080e7          	jalr	514(ra) # 1d776 <memcpy>
   1457c:	4509                	li	a0,2
   1457e:	00098023          	sb	zero,0(s3)
   14582:	f6a499e3          	bne	s1,a0,144f4 <_ZN20complex_dynamic_type3app17h656285e52eaef598E+0xda>
   14586:	b741                	j	14506 <_ZN20complex_dynamic_type3app17h656285e52eaef598E+0xec>

00014588 <_ZN20complex_dynamic_type3app17h66df63ae646208d7E>:
   14588:	7171                	addi	sp,sp,-176
   1458a:	d706                	sw	ra,172(sp)
   1458c:	d522                	sw	s0,168(sp)
   1458e:	d326                	sw	s1,164(sp)
   14590:	d14a                	sw	s2,160(sp)
   14592:	cf4e                	sw	s3,156(sp)
   14594:	89aa                	mv	s3,a0
   14596:	4409                	li	s0,2
   14598:	008105a3          	sb	s0,11(sp)
   1459c:	0064                	addi	s1,sp,12
   1459e:	06300613          	li	a2,99
   145a2:	8526                	mv	a0,s1
   145a4:	00009097          	auipc	ra,0x9
   145a8:	1d2080e7          	jalr	466(ra) # 1d776 <memcpy>
   145ac:	07010913          	addi	s2,sp,112
   145b0:	02c00613          	li	a2,44
   145b4:	854a                	mv	a0,s2
   145b6:	4581                	li	a1,0
   145b8:	00009097          	auipc	ra,0x9
   145bc:	152080e7          	jalr	338(ra) # 1d70a <memset>
   145c0:	8626                	mv	a2,s1
   145c2:	068107a3          	sb	s0,111(sp)
   145c6:	4791                	li	a5,4
   145c8:	4561                	li	a0,24
   145ca:	4595                	li	a1,5
   145cc:	06300693          	li	a3,99
   145d0:	4711                	li	a4,4
   145d2:	00000073          	ecall
   145d6:	00851863          	bne	a0,s0,145e6 <_ZN20complex_dynamic_type3app17h66df63ae646208d7E+0x5e>
   145da:	4505                	li	a0,1
   145dc:	00a98023          	sb	a0,0(s3)
   145e0:	00b9a223          	sw	a1,4(s3)
   145e4:	a09d                	j	1464a <_ZN20complex_dynamic_type3app17h66df63ae646208d7E+0xc2>
   145e6:	864a                	mv	a2,s2
   145e8:	00f105a3          	sb	a5,11(sp)
   145ec:	478d                	li	a5,3
   145ee:	4561                	li	a0,24
   145f0:	458d                	li	a1,3
   145f2:	02c00693          	li	a3,44
   145f6:	470d                	li	a4,3
   145f8:	00000073          	ecall
   145fc:	00851d63          	bne	a0,s0,14616 <_ZN20complex_dynamic_type3app17h66df63ae646208d7E+0x8e>
   14600:	06f14703          	lbu	a4,111(sp)
   14604:	4505                	li	a0,1
   14606:	4609                	li	a2,2
   14608:	00a98023          	sb	a0,0(s3)
   1460c:	00b9a223          	sw	a1,4(s3)
   14610:	02c71763          	bne	a4,a2,1463e <_ZN20complex_dynamic_type3app17h66df63ae646208d7E+0xb6>
   14614:	a81d                	j	1464a <_ZN20complex_dynamic_type3app17h66df63ae646208d7E+0xc2>
   14616:	4681                	li	a3,0
   14618:	06f107a3          	sb	a5,111(sp)
   1461c:	4561                	li	a0,24
   1461e:	4595                	li	a1,5
   14620:	460d                	li	a2,3
   14622:	4709                	li	a4,2
   14624:	07f00793          	li	a5,127
   14628:	00000073          	ecall
   1462c:	4609                	li	a2,2
   1462e:	04a7e163          	bltu	a5,a0,14670 <_ZN20complex_dynamic_type3app17h66df63ae646208d7E+0xe8>
   14632:	4505                	li	a0,1
   14634:	00a98023          	sb	a0,0(s3)
   14638:	00b9a223          	sw	a1,4(s3)
   1463c:	470d                	li	a4,3
   1463e:	4561                	li	a0,24
   14640:	458d                	li	a1,3
   14642:	4601                	li	a2,0
   14644:	4681                	li	a3,0
   14646:	00000073          	ecall
   1464a:	00b14483          	lbu	s1,11(sp)
   1464e:	4509                	li	a0,2
   14650:	00a48963          	beq	s1,a0,14662 <_ZN20complex_dynamic_type3app17h66df63ae646208d7E+0xda>
   14654:	4561                	li	a0,24
   14656:	4595                	li	a1,5
   14658:	4601                	li	a2,0
   1465a:	4681                	li	a3,0
   1465c:	8726                	mv	a4,s1
   1465e:	00000073          	ecall
   14662:	50ba                	lw	ra,172(sp)
   14664:	542a                	lw	s0,168(sp)
   14666:	549a                	lw	s1,164(sp)
   14668:	590a                	lw	s2,160(sp)
   1466a:	49fa                	lw	s3,156(sp)
   1466c:	614d                	addi	sp,sp,176
   1466e:	8082                	ret
   14670:	00b14703          	lbu	a4,11(sp)
   14674:	00c71463          	bne	a4,a2,1467c <_ZN20complex_dynamic_type3app17h66df63ae646208d7E+0xf4>
   14678:	470d                	li	a4,3
   1467a:	a815                	j	146ae <_ZN20complex_dynamic_type3app17h66df63ae646208d7E+0x126>
   1467c:	4561                	li	a0,24
   1467e:	4595                	li	a1,5
   14680:	4601                	li	a2,0
   14682:	4681                	li	a3,0
   14684:	00000073          	ecall
   14688:	06f14703          	lbu	a4,111(sp)
   1468c:	4509                	li	a0,2
   1468e:	00a105a3          	sb	a0,11(sp)
   14692:	00a71e63          	bne	a4,a0,146ae <_ZN20complex_dynamic_type3app17h66df63ae646208d7E+0x126>
   14696:	00198513          	addi	a0,s3,1
   1469a:	02c00613          	li	a2,44
   1469e:	85ca                	mv	a1,s2
   146a0:	00009097          	auipc	ra,0x9
   146a4:	0d6080e7          	jalr	214(ra) # 1d776 <memcpy>
   146a8:	00098023          	sb	zero,0(s3)
   146ac:	bf5d                	j	14662 <_ZN20complex_dynamic_type3app17h66df63ae646208d7E+0xda>
   146ae:	4561                	li	a0,24
   146b0:	458d                	li	a1,3
   146b2:	4601                	li	a2,0
   146b4:	4681                	li	a3,0
   146b6:	00000073          	ecall
   146ba:	00b14483          	lbu	s1,11(sp)
   146be:	00198513          	addi	a0,s3,1
   146c2:	02c00613          	li	a2,44
   146c6:	85ca                	mv	a1,s2
   146c8:	00009097          	auipc	ra,0x9
   146cc:	0ae080e7          	jalr	174(ra) # 1d776 <memcpy>
   146d0:	4509                	li	a0,2
   146d2:	00098023          	sb	zero,0(s3)
   146d6:	f6a49fe3          	bne	s1,a0,14654 <_ZN20complex_dynamic_type3app17h66df63ae646208d7E+0xcc>
   146da:	b761                	j	14662 <_ZN20complex_dynamic_type3app17h66df63ae646208d7E+0xda>

000146dc <_ZN20complex_dynamic_type3app17h678235a16cedfcb4E>:
   146dc:	7175                	addi	sp,sp,-144
   146de:	c706                	sw	ra,140(sp)
   146e0:	c522                	sw	s0,136(sp)
   146e2:	c326                	sw	s1,132(sp)
   146e4:	c14a                	sw	s2,128(sp)
   146e6:	dece                	sw	s3,124(sp)
   146e8:	89aa                	mv	s3,a0
   146ea:	4409                	li	s0,2
   146ec:	008104a3          	sb	s0,9(sp)
   146f0:	00a10493          	addi	s1,sp,10
   146f4:	04000613          	li	a2,64
   146f8:	8526                	mv	a0,s1
   146fa:	00009097          	auipc	ra,0x9
   146fe:	07c080e7          	jalr	124(ra) # 1d776 <memcpy>
   14702:	04b10913          	addi	s2,sp,75
   14706:	03100613          	li	a2,49
   1470a:	854a                	mv	a0,s2
   1470c:	4581                	li	a1,0
   1470e:	00009097          	auipc	ra,0x9
   14712:	ffc080e7          	jalr	-4(ra) # 1d70a <memset>
   14716:	8626                	mv	a2,s1
   14718:	04810523          	sb	s0,74(sp)
   1471c:	6505                	lui	a0,0x1
   1471e:	4491                	li	s1,4
   14720:	45a1                	li	a1,8
   14722:	fce50793          	addi	a5,a0,-50 # fce <.Lline_table_start1+0xda3>
   14726:	04000693          	li	a3,64
   1472a:	4711                	li	a4,4
   1472c:	853e                	mv	a0,a5
   1472e:	00000073          	ecall
   14732:	00851863          	bne	a0,s0,14742 <_ZN20complex_dynamic_type3app17h678235a16cedfcb4E+0x66>
   14736:	4505                	li	a0,1
   14738:	00a98023          	sb	a0,0(s3)
   1473c:	00b9a223          	sw	a1,4(s3)
   14740:	a0bd                	j	147ae <_ZN20complex_dynamic_type3app17h678235a16cedfcb4E+0xd2>
   14742:	853e                	mv	a0,a5
   14744:	864a                	mv	a2,s2
   14746:	009104a3          	sb	s1,9(sp)
   1474a:	478d                	li	a5,3
   1474c:	4595                	li	a1,5
   1474e:	03100693          	li	a3,49
   14752:	470d                	li	a4,3
   14754:	00000073          	ecall
   14758:	00851d63          	bne	a0,s0,14772 <_ZN20complex_dynamic_type3app17h678235a16cedfcb4E+0x96>
   1475c:	04a14703          	lbu	a4,74(sp)
   14760:	4505                	li	a0,1
   14762:	4609                	li	a2,2
   14764:	00a98023          	sb	a0,0(s3)
   14768:	00b9a223          	sw	a1,4(s3)
   1476c:	02c71963          	bne	a4,a2,1479e <_ZN20complex_dynamic_type3app17h678235a16cedfcb4E+0xc2>
   14770:	a83d                	j	147ae <_ZN20complex_dynamic_type3app17h678235a16cedfcb4E+0xd2>
   14772:	4681                	li	a3,0
   14774:	04f10523          	sb	a5,74(sp)
   14778:	6505                	lui	a0,0x1
   1477a:	45a1                	li	a1,8
   1477c:	4615                	li	a2,5
   1477e:	4709                	li	a4,2
   14780:	fce50513          	addi	a0,a0,-50 # fce <.Lline_table_start1+0xda3>
   14784:	07f00793          	li	a5,127
   14788:	00000073          	ecall
   1478c:	4609                	li	a2,2
   1478e:	04a7e563          	bltu	a5,a0,147d8 <_ZN20complex_dynamic_type3app17h678235a16cedfcb4E+0xfc>
   14792:	4505                	li	a0,1
   14794:	00a98023          	sb	a0,0(s3)
   14798:	00b9a223          	sw	a1,4(s3)
   1479c:	470d                	li	a4,3
   1479e:	6505                	lui	a0,0x1
   147a0:	fce50513          	addi	a0,a0,-50 # fce <.Lline_table_start1+0xda3>
   147a4:	4595                	li	a1,5
   147a6:	4601                	li	a2,0
   147a8:	4681                	li	a3,0
   147aa:	00000073          	ecall
   147ae:	00914483          	lbu	s1,9(sp)
   147b2:	4509                	li	a0,2
   147b4:	00a48b63          	beq	s1,a0,147ca <_ZN20complex_dynamic_type3app17h678235a16cedfcb4E+0xee>
   147b8:	6505                	lui	a0,0x1
   147ba:	fce50513          	addi	a0,a0,-50 # fce <.Lline_table_start1+0xda3>
   147be:	45a1                	li	a1,8
   147c0:	4601                	li	a2,0
   147c2:	4681                	li	a3,0
   147c4:	8726                	mv	a4,s1
   147c6:	00000073          	ecall
   147ca:	40ba                	lw	ra,140(sp)
   147cc:	442a                	lw	s0,136(sp)
   147ce:	449a                	lw	s1,132(sp)
   147d0:	490a                	lw	s2,128(sp)
   147d2:	59f6                	lw	s3,124(sp)
   147d4:	6149                	addi	sp,sp,144
   147d6:	8082                	ret
   147d8:	00914703          	lbu	a4,9(sp)
   147dc:	00c71463          	bne	a4,a2,147e4 <_ZN20complex_dynamic_type3app17h678235a16cedfcb4E+0x108>
   147e0:	470d                	li	a4,3
   147e2:	a825                	j	1481a <_ZN20complex_dynamic_type3app17h678235a16cedfcb4E+0x13e>
   147e4:	6505                	lui	a0,0x1
   147e6:	fce50513          	addi	a0,a0,-50 # fce <.Lline_table_start1+0xda3>
   147ea:	45a1                	li	a1,8
   147ec:	4601                	li	a2,0
   147ee:	4681                	li	a3,0
   147f0:	00000073          	ecall
   147f4:	04a14703          	lbu	a4,74(sp)
   147f8:	4509                	li	a0,2
   147fa:	00a104a3          	sb	a0,9(sp)
   147fe:	00a71e63          	bne	a4,a0,1481a <_ZN20complex_dynamic_type3app17h678235a16cedfcb4E+0x13e>
   14802:	00198513          	addi	a0,s3,1
   14806:	03100613          	li	a2,49
   1480a:	85ca                	mv	a1,s2
   1480c:	00009097          	auipc	ra,0x9
   14810:	f6a080e7          	jalr	-150(ra) # 1d776 <memcpy>
   14814:	00098023          	sb	zero,0(s3)
   14818:	bf4d                	j	147ca <_ZN20complex_dynamic_type3app17h678235a16cedfcb4E+0xee>
   1481a:	6505                	lui	a0,0x1
   1481c:	fce50513          	addi	a0,a0,-50 # fce <.Lline_table_start1+0xda3>
   14820:	4595                	li	a1,5
   14822:	4601                	li	a2,0
   14824:	4681                	li	a3,0
   14826:	00000073          	ecall
   1482a:	00914483          	lbu	s1,9(sp)
   1482e:	00198513          	addi	a0,s3,1
   14832:	03100613          	li	a2,49
   14836:	85ca                	mv	a1,s2
   14838:	00009097          	auipc	ra,0x9
   1483c:	f3e080e7          	jalr	-194(ra) # 1d776 <memcpy>
   14840:	4509                	li	a0,2
   14842:	00098023          	sb	zero,0(s3)
   14846:	f6a499e3          	bne	s1,a0,147b8 <_ZN20complex_dynamic_type3app17h678235a16cedfcb4E+0xdc>
   1484a:	b741                	j	147ca <_ZN20complex_dynamic_type3app17h678235a16cedfcb4E+0xee>

0001484c <_ZN20complex_dynamic_type3app17h678947e650d19487E>:
   1484c:	7159                	addi	sp,sp,-112
   1484e:	d686                	sw	ra,108(sp)
   14850:	d4a2                	sw	s0,104(sp)
   14852:	d2a6                	sw	s1,100(sp)
   14854:	d0ca                	sw	s2,96(sp)
   14856:	cece                	sw	s3,92(sp)
   14858:	89aa                	mv	s3,a0
   1485a:	4409                	li	s0,2
   1485c:	00810523          	sb	s0,10(sp)
   14860:	00b10493          	addi	s1,sp,11
   14864:	03f00613          	li	a2,63
   14868:	8526                	mv	a0,s1
   1486a:	00009097          	auipc	ra,0x9
   1486e:	f0c080e7          	jalr	-244(ra) # 1d776 <memcpy>
   14872:	04b10913          	addi	s2,sp,75
   14876:	4645                	li	a2,17
   14878:	854a                	mv	a0,s2
   1487a:	4581                	li	a1,0
   1487c:	00009097          	auipc	ra,0x9
   14880:	e8e080e7          	jalr	-370(ra) # 1d70a <memset>
   14884:	8626                	mv	a2,s1
   14886:	04810523          	sb	s0,74(sp)
   1488a:	6505                	lui	a0,0x1
   1488c:	4491                	li	s1,4
   1488e:	4591                	li	a1,4
   14890:	4d750793          	addi	a5,a0,1239 # 14d7 <.Lline_table_start1+0x12ac>
   14894:	03f00693          	li	a3,63
   14898:	4711                	li	a4,4
   1489a:	853e                	mv	a0,a5
   1489c:	00000073          	ecall
   148a0:	00851863          	bne	a0,s0,148b0 <_ZN20complex_dynamic_type3app17h678947e650d19487E+0x64>
   148a4:	4505                	li	a0,1
   148a6:	00a98023          	sb	a0,0(s3)
   148aa:	00b9a223          	sw	a1,4(s3)
   148ae:	a0b5                	j	1491a <_ZN20complex_dynamic_type3app17h678947e650d19487E+0xce>
   148b0:	853e                	mv	a0,a5
   148b2:	864a                	mv	a2,s2
   148b4:	00910523          	sb	s1,10(sp)
   148b8:	478d                	li	a5,3
   148ba:	458d                	li	a1,3
   148bc:	46c5                	li	a3,17
   148be:	470d                	li	a4,3
   148c0:	00000073          	ecall
   148c4:	00851d63          	bne	a0,s0,148de <_ZN20complex_dynamic_type3app17h678947e650d19487E+0x92>
   148c8:	04a14703          	lbu	a4,74(sp)
   148cc:	4505                	li	a0,1
   148ce:	4609                	li	a2,2
   148d0:	00a98023          	sb	a0,0(s3)
   148d4:	00b9a223          	sw	a1,4(s3)
   148d8:	02c71963          	bne	a4,a2,1490a <_ZN20complex_dynamic_type3app17h678947e650d19487E+0xbe>
   148dc:	a83d                	j	1491a <_ZN20complex_dynamic_type3app17h678947e650d19487E+0xce>
   148de:	4681                	li	a3,0
   148e0:	04f10523          	sb	a5,74(sp)
   148e4:	6505                	lui	a0,0x1
   148e6:	4591                	li	a1,4
   148e8:	460d                	li	a2,3
   148ea:	4709                	li	a4,2
   148ec:	4d750513          	addi	a0,a0,1239 # 14d7 <.Lline_table_start1+0x12ac>
   148f0:	07f00793          	li	a5,127
   148f4:	00000073          	ecall
   148f8:	4609                	li	a2,2
   148fa:	04a7e563          	bltu	a5,a0,14944 <_ZN20complex_dynamic_type3app17h678947e650d19487E+0xf8>
   148fe:	4505                	li	a0,1
   14900:	00a98023          	sb	a0,0(s3)
   14904:	00b9a223          	sw	a1,4(s3)
   14908:	470d                	li	a4,3
   1490a:	6505                	lui	a0,0x1
   1490c:	4d750513          	addi	a0,a0,1239 # 14d7 <.Lline_table_start1+0x12ac>
   14910:	458d                	li	a1,3
   14912:	4601                	li	a2,0
   14914:	4681                	li	a3,0
   14916:	00000073          	ecall
   1491a:	00a14483          	lbu	s1,10(sp)
   1491e:	4509                	li	a0,2
   14920:	00a48b63          	beq	s1,a0,14936 <_ZN20complex_dynamic_type3app17h678947e650d19487E+0xea>
   14924:	6505                	lui	a0,0x1
   14926:	4d750513          	addi	a0,a0,1239 # 14d7 <.Lline_table_start1+0x12ac>
   1492a:	4591                	li	a1,4
   1492c:	4601                	li	a2,0
   1492e:	4681                	li	a3,0
   14930:	8726                	mv	a4,s1
   14932:	00000073          	ecall
   14936:	50b6                	lw	ra,108(sp)
   14938:	5426                	lw	s0,104(sp)
   1493a:	5496                	lw	s1,100(sp)
   1493c:	5906                	lw	s2,96(sp)
   1493e:	49f6                	lw	s3,92(sp)
   14940:	6165                	addi	sp,sp,112
   14942:	8082                	ret
   14944:	00a14703          	lbu	a4,10(sp)
   14948:	00c71463          	bne	a4,a2,14950 <_ZN20complex_dynamic_type3app17h678947e650d19487E+0x104>
   1494c:	470d                	li	a4,3
   1494e:	a81d                	j	14984 <_ZN20complex_dynamic_type3app17h678947e650d19487E+0x138>
   14950:	6505                	lui	a0,0x1
   14952:	4d750513          	addi	a0,a0,1239 # 14d7 <.Lline_table_start1+0x12ac>
   14956:	4591                	li	a1,4
   14958:	4601                	li	a2,0
   1495a:	4681                	li	a3,0
   1495c:	00000073          	ecall
   14960:	04a14703          	lbu	a4,74(sp)
   14964:	4509                	li	a0,2
   14966:	00a10523          	sb	a0,10(sp)
   1496a:	00a71d63          	bne	a4,a0,14984 <_ZN20complex_dynamic_type3app17h678947e650d19487E+0x138>
   1496e:	00198513          	addi	a0,s3,1
   14972:	4645                	li	a2,17
   14974:	85ca                	mv	a1,s2
   14976:	00009097          	auipc	ra,0x9
   1497a:	e00080e7          	jalr	-512(ra) # 1d776 <memcpy>
   1497e:	00098023          	sb	zero,0(s3)
   14982:	bf55                	j	14936 <_ZN20complex_dynamic_type3app17h678947e650d19487E+0xea>
   14984:	6505                	lui	a0,0x1
   14986:	4d750513          	addi	a0,a0,1239 # 14d7 <.Lline_table_start1+0x12ac>
   1498a:	458d                	li	a1,3
   1498c:	4601                	li	a2,0
   1498e:	4681                	li	a3,0
   14990:	00000073          	ecall
   14994:	00a14483          	lbu	s1,10(sp)
   14998:	00198513          	addi	a0,s3,1
   1499c:	4645                	li	a2,17
   1499e:	85ca                	mv	a1,s2
   149a0:	00009097          	auipc	ra,0x9
   149a4:	dd6080e7          	jalr	-554(ra) # 1d776 <memcpy>
   149a8:	4509                	li	a0,2
   149aa:	00098023          	sb	zero,0(s3)
   149ae:	f6a49be3          	bne	s1,a0,14924 <_ZN20complex_dynamic_type3app17h678947e650d19487E+0xd8>
   149b2:	b751                	j	14936 <_ZN20complex_dynamic_type3app17h678947e650d19487E+0xea>

000149b4 <_ZN20complex_dynamic_type3app17h6a42e6bd5daf3350E>:
   149b4:	711d                	addi	sp,sp,-96
   149b6:	ce86                	sw	ra,92(sp)
   149b8:	cca2                	sw	s0,88(sp)
   149ba:	caa6                	sw	s1,84(sp)
   149bc:	c8ca                	sw	s2,80(sp)
   149be:	c6ce                	sw	s3,76(sp)
   149c0:	89aa                	mv	s3,a0
   149c2:	4409                	li	s0,2
   149c4:	008100a3          	sb	s0,1(sp)
   149c8:	00210493          	addi	s1,sp,2
   149cc:	02b00613          	li	a2,43
   149d0:	8526                	mv	a0,s1
   149d2:	00009097          	auipc	ra,0x9
   149d6:	da4080e7          	jalr	-604(ra) # 1d776 <memcpy>
   149da:	02e10913          	addi	s2,sp,46
   149de:	4679                	li	a2,30
   149e0:	854a                	mv	a0,s2
   149e2:	4581                	li	a1,0
   149e4:	00009097          	auipc	ra,0x9
   149e8:	d26080e7          	jalr	-730(ra) # 1d70a <memset>
   149ec:	8626                	mv	a2,s1
   149ee:	028106a3          	sb	s0,45(sp)
   149f2:	4791                	li	a5,4
   149f4:	7e300513          	li	a0,2019
   149f8:	459d                	li	a1,7
   149fa:	02b00693          	li	a3,43
   149fe:	4711                	li	a4,4
   14a00:	00000073          	ecall
   14a04:	00851863          	bne	a0,s0,14a14 <_ZN20complex_dynamic_type3app17h6a42e6bd5daf3350E+0x60>
   14a08:	4505                	li	a0,1
   14a0a:	00a98023          	sb	a0,0(s3)
   14a0e:	00b9a223          	sw	a1,4(s3)
   14a12:	a0ad                	j	14a7c <_ZN20complex_dynamic_type3app17h6a42e6bd5daf3350E+0xc8>
   14a14:	864a                	mv	a2,s2
   14a16:	00f100a3          	sb	a5,1(sp)
   14a1a:	478d                	li	a5,3
   14a1c:	7e300513          	li	a0,2019
   14a20:	45a1                	li	a1,8
   14a22:	46f9                	li	a3,30
   14a24:	470d                	li	a4,3
   14a26:	00000073          	ecall
   14a2a:	00851d63          	bne	a0,s0,14a44 <_ZN20complex_dynamic_type3app17h6a42e6bd5daf3350E+0x90>
   14a2e:	02d14703          	lbu	a4,45(sp)
   14a32:	4505                	li	a0,1
   14a34:	4609                	li	a2,2
   14a36:	00a98023          	sb	a0,0(s3)
   14a3a:	00b9a223          	sw	a1,4(s3)
   14a3e:	02c71863          	bne	a4,a2,14a6e <_ZN20complex_dynamic_type3app17h6a42e6bd5daf3350E+0xba>
   14a42:	a82d                	j	14a7c <_ZN20complex_dynamic_type3app17h6a42e6bd5daf3350E+0xc8>
   14a44:	4681                	li	a3,0
   14a46:	02f106a3          	sb	a5,45(sp)
   14a4a:	7e300513          	li	a0,2019
   14a4e:	459d                	li	a1,7
   14a50:	4621                	li	a2,8
   14a52:	4709                	li	a4,2
   14a54:	07f00793          	li	a5,127
   14a58:	00000073          	ecall
   14a5c:	4609                	li	a2,2
   14a5e:	04a7e363          	bltu	a5,a0,14aa4 <_ZN20complex_dynamic_type3app17h6a42e6bd5daf3350E+0xf0>
   14a62:	4505                	li	a0,1
   14a64:	00a98023          	sb	a0,0(s3)
   14a68:	00b9a223          	sw	a1,4(s3)
   14a6c:	470d                	li	a4,3
   14a6e:	7e300513          	li	a0,2019
   14a72:	45a1                	li	a1,8
   14a74:	4601                	li	a2,0
   14a76:	4681                	li	a3,0
   14a78:	00000073          	ecall
   14a7c:	00114483          	lbu	s1,1(sp)
   14a80:	4509                	li	a0,2
   14a82:	00a48a63          	beq	s1,a0,14a96 <_ZN20complex_dynamic_type3app17h6a42e6bd5daf3350E+0xe2>
   14a86:	7e300513          	li	a0,2019
   14a8a:	459d                	li	a1,7
   14a8c:	4601                	li	a2,0
   14a8e:	4681                	li	a3,0
   14a90:	8726                	mv	a4,s1
   14a92:	00000073          	ecall
   14a96:	40f6                	lw	ra,92(sp)
   14a98:	4466                	lw	s0,88(sp)
   14a9a:	44d6                	lw	s1,84(sp)
   14a9c:	4946                	lw	s2,80(sp)
   14a9e:	49b6                	lw	s3,76(sp)
   14aa0:	6125                	addi	sp,sp,96
   14aa2:	8082                	ret
   14aa4:	00114703          	lbu	a4,1(sp)
   14aa8:	00c71463          	bne	a4,a2,14ab0 <_ZN20complex_dynamic_type3app17h6a42e6bd5daf3350E+0xfc>
   14aac:	470d                	li	a4,3
   14aae:	a815                	j	14ae2 <_ZN20complex_dynamic_type3app17h6a42e6bd5daf3350E+0x12e>
   14ab0:	7e300513          	li	a0,2019
   14ab4:	459d                	li	a1,7
   14ab6:	4601                	li	a2,0
   14ab8:	4681                	li	a3,0
   14aba:	00000073          	ecall
   14abe:	02d14703          	lbu	a4,45(sp)
   14ac2:	4509                	li	a0,2
   14ac4:	00a100a3          	sb	a0,1(sp)
   14ac8:	00a71d63          	bne	a4,a0,14ae2 <_ZN20complex_dynamic_type3app17h6a42e6bd5daf3350E+0x12e>
   14acc:	00198513          	addi	a0,s3,1
   14ad0:	4679                	li	a2,30
   14ad2:	85ca                	mv	a1,s2
   14ad4:	00009097          	auipc	ra,0x9
   14ad8:	ca2080e7          	jalr	-862(ra) # 1d776 <memcpy>
   14adc:	00098023          	sb	zero,0(s3)
   14ae0:	bf5d                	j	14a96 <_ZN20complex_dynamic_type3app17h6a42e6bd5daf3350E+0xe2>
   14ae2:	7e300513          	li	a0,2019
   14ae6:	45a1                	li	a1,8
   14ae8:	4601                	li	a2,0
   14aea:	4681                	li	a3,0
   14aec:	00000073          	ecall
   14af0:	00114483          	lbu	s1,1(sp)
   14af4:	00198513          	addi	a0,s3,1
   14af8:	4679                	li	a2,30
   14afa:	85ca                	mv	a1,s2
   14afc:	00009097          	auipc	ra,0x9
   14b00:	c7a080e7          	jalr	-902(ra) # 1d776 <memcpy>
   14b04:	4509                	li	a0,2
   14b06:	00098023          	sb	zero,0(s3)
   14b0a:	f6a49ee3          	bne	s1,a0,14a86 <_ZN20complex_dynamic_type3app17h6a42e6bd5daf3350E+0xd2>
   14b0e:	b761                	j	14a96 <_ZN20complex_dynamic_type3app17h6a42e6bd5daf3350E+0xe2>

00014b10 <_ZN20complex_dynamic_type3app17h74a3aa7bae93e5f1E>:
   14b10:	7159                	addi	sp,sp,-112
   14b12:	d686                	sw	ra,108(sp)
   14b14:	d4a2                	sw	s0,104(sp)
   14b16:	d2a6                	sw	s1,100(sp)
   14b18:	d0ca                	sw	s2,96(sp)
   14b1a:	cece                	sw	s3,92(sp)
   14b1c:	89aa                	mv	s3,a0
   14b1e:	4409                	li	s0,2
   14b20:	008107a3          	sb	s0,15(sp)
   14b24:	0804                	addi	s1,sp,16
   14b26:	02100613          	li	a2,33
   14b2a:	8526                	mv	a0,s1
   14b2c:	00009097          	auipc	ra,0x9
   14b30:	c4a080e7          	jalr	-950(ra) # 1d776 <memcpy>
   14b34:	03210913          	addi	s2,sp,50
   14b38:	02a00613          	li	a2,42
   14b3c:	854a                	mv	a0,s2
   14b3e:	4581                	li	a1,0
   14b40:	00009097          	auipc	ra,0x9
   14b44:	bca080e7          	jalr	-1078(ra) # 1d70a <memset>
   14b48:	8626                	mv	a2,s1
   14b4a:	028108a3          	sb	s0,49(sp)
   14b4e:	6505                	lui	a0,0x1
   14b50:	4805                	li	a6,1
   14b52:	4491                	li	s1,4
   14b54:	4585                	li	a1,1
   14b56:	5f350793          	addi	a5,a0,1523 # 15f3 <.Lline_table_start1+0x13c8>
   14b5a:	02100693          	li	a3,33
   14b5e:	4711                	li	a4,4
   14b60:	853e                	mv	a0,a5
   14b62:	00000073          	ecall
   14b66:	00851763          	bne	a0,s0,14b74 <_ZN20complex_dynamic_type3app17h74a3aa7bae93e5f1E+0x64>
   14b6a:	01098023          	sb	a6,0(s3)
   14b6e:	00b9a223          	sw	a1,4(s3)
   14b72:	a0bd                	j	14be0 <_ZN20complex_dynamic_type3app17h74a3aa7bae93e5f1E+0xd0>
   14b74:	853e                	mv	a0,a5
   14b76:	864a                	mv	a2,s2
   14b78:	009107a3          	sb	s1,15(sp)
   14b7c:	478d                	li	a5,3
   14b7e:	458d                	li	a1,3
   14b80:	02a00693          	li	a3,42
   14b84:	470d                	li	a4,3
   14b86:	00000073          	ecall
   14b8a:	00851d63          	bne	a0,s0,14ba4 <_ZN20complex_dynamic_type3app17h74a3aa7bae93e5f1E+0x94>
   14b8e:	03114703          	lbu	a4,49(sp)
   14b92:	4505                	li	a0,1
   14b94:	4609                	li	a2,2
   14b96:	00a98023          	sb	a0,0(s3)
   14b9a:	00b9a223          	sw	a1,4(s3)
   14b9e:	02c71963          	bne	a4,a2,14bd0 <_ZN20complex_dynamic_type3app17h74a3aa7bae93e5f1E+0xc0>
   14ba2:	a83d                	j	14be0 <_ZN20complex_dynamic_type3app17h74a3aa7bae93e5f1E+0xd0>
   14ba4:	4681                	li	a3,0
   14ba6:	02f108a3          	sb	a5,49(sp)
   14baa:	6505                	lui	a0,0x1
   14bac:	4785                	li	a5,1
   14bae:	4585                	li	a1,1
   14bb0:	460d                	li	a2,3
   14bb2:	4709                	li	a4,2
   14bb4:	5f350513          	addi	a0,a0,1523 # 15f3 <.Lline_table_start1+0x13c8>
   14bb8:	07f00493          	li	s1,127
   14bbc:	00000073          	ecall
   14bc0:	4609                	li	a2,2
   14bc2:	04a4e463          	bltu	s1,a0,14c0a <_ZN20complex_dynamic_type3app17h74a3aa7bae93e5f1E+0xfa>
   14bc6:	00f98023          	sb	a5,0(s3)
   14bca:	00b9a223          	sw	a1,4(s3)
   14bce:	470d                	li	a4,3
   14bd0:	6505                	lui	a0,0x1
   14bd2:	5f350513          	addi	a0,a0,1523 # 15f3 <.Lline_table_start1+0x13c8>
   14bd6:	458d                	li	a1,3
   14bd8:	4601                	li	a2,0
   14bda:	4681                	li	a3,0
   14bdc:	00000073          	ecall
   14be0:	00f14483          	lbu	s1,15(sp)
   14be4:	4509                	li	a0,2
   14be6:	00a48b63          	beq	s1,a0,14bfc <_ZN20complex_dynamic_type3app17h74a3aa7bae93e5f1E+0xec>
   14bea:	6505                	lui	a0,0x1
   14bec:	5f350513          	addi	a0,a0,1523 # 15f3 <.Lline_table_start1+0x13c8>
   14bf0:	4585                	li	a1,1
   14bf2:	4601                	li	a2,0
   14bf4:	4681                	li	a3,0
   14bf6:	8726                	mv	a4,s1
   14bf8:	00000073          	ecall
   14bfc:	50b6                	lw	ra,108(sp)
   14bfe:	5426                	lw	s0,104(sp)
   14c00:	5496                	lw	s1,100(sp)
   14c02:	5906                	lw	s2,96(sp)
   14c04:	49f6                	lw	s3,92(sp)
   14c06:	6165                	addi	sp,sp,112
   14c08:	8082                	ret
   14c0a:	00f14703          	lbu	a4,15(sp)
   14c0e:	00c71463          	bne	a4,a2,14c16 <_ZN20complex_dynamic_type3app17h74a3aa7bae93e5f1E+0x106>
   14c12:	470d                	li	a4,3
   14c14:	a825                	j	14c4c <_ZN20complex_dynamic_type3app17h74a3aa7bae93e5f1E+0x13c>
   14c16:	6505                	lui	a0,0x1
   14c18:	5f350513          	addi	a0,a0,1523 # 15f3 <.Lline_table_start1+0x13c8>
   14c1c:	4585                	li	a1,1
   14c1e:	4601                	li	a2,0
   14c20:	4681                	li	a3,0
   14c22:	00000073          	ecall
   14c26:	03114703          	lbu	a4,49(sp)
   14c2a:	4509                	li	a0,2
   14c2c:	00a107a3          	sb	a0,15(sp)
   14c30:	00a71e63          	bne	a4,a0,14c4c <_ZN20complex_dynamic_type3app17h74a3aa7bae93e5f1E+0x13c>
   14c34:	00198513          	addi	a0,s3,1
   14c38:	02a00613          	li	a2,42
   14c3c:	85ca                	mv	a1,s2
   14c3e:	00009097          	auipc	ra,0x9
   14c42:	b38080e7          	jalr	-1224(ra) # 1d776 <memcpy>
   14c46:	00098023          	sb	zero,0(s3)
   14c4a:	bf4d                	j	14bfc <_ZN20complex_dynamic_type3app17h74a3aa7bae93e5f1E+0xec>
   14c4c:	6505                	lui	a0,0x1
   14c4e:	5f350513          	addi	a0,a0,1523 # 15f3 <.Lline_table_start1+0x13c8>
   14c52:	458d                	li	a1,3
   14c54:	4601                	li	a2,0
   14c56:	4681                	li	a3,0
   14c58:	00000073          	ecall
   14c5c:	00f14483          	lbu	s1,15(sp)
   14c60:	00198513          	addi	a0,s3,1
   14c64:	02a00613          	li	a2,42
   14c68:	85ca                	mv	a1,s2
   14c6a:	00009097          	auipc	ra,0x9
   14c6e:	b0c080e7          	jalr	-1268(ra) # 1d776 <memcpy>
   14c72:	4509                	li	a0,2
   14c74:	00098023          	sb	zero,0(s3)
   14c78:	f6a499e3          	bne	s1,a0,14bea <_ZN20complex_dynamic_type3app17h74a3aa7bae93e5f1E+0xda>
   14c7c:	b741                	j	14bfc <_ZN20complex_dynamic_type3app17h74a3aa7bae93e5f1E+0xec>

00014c7e <_ZN20complex_dynamic_type3app17h7fafeb4a0857247cE>:
   14c7e:	7131                	addi	sp,sp,-192
   14c80:	df06                	sw	ra,188(sp)
   14c82:	dd22                	sw	s0,184(sp)
   14c84:	db26                	sw	s1,180(sp)
   14c86:	d94a                	sw	s2,176(sp)
   14c88:	d74e                	sw	s3,172(sp)
   14c8a:	89aa                	mv	s3,a0
   14c8c:	4409                	li	s0,2
   14c8e:	00810523          	sb	s0,10(sp)
   14c92:	00b10493          	addi	s1,sp,11
   14c96:	05100613          	li	a2,81
   14c9a:	8526                	mv	a0,s1
   14c9c:	00009097          	auipc	ra,0x9
   14ca0:	ada080e7          	jalr	-1318(ra) # 1d776 <memcpy>
   14ca4:	05d10913          	addi	s2,sp,93
   14ca8:	04f00613          	li	a2,79
   14cac:	854a                	mv	a0,s2
   14cae:	4581                	li	a1,0
   14cb0:	00009097          	auipc	ra,0x9
   14cb4:	a5a080e7          	jalr	-1446(ra) # 1d70a <memset>
   14cb8:	8626                	mv	a2,s1
   14cba:	04810e23          	sb	s0,92(sp)
   14cbe:	6509                	lui	a0,0x2
   14cc0:	4491                	li	s1,4
   14cc2:	4591                	li	a1,4
   14cc4:	0ee50793          	addi	a5,a0,238 # 20ee <.Lline_table_start1+0x1ec3>
   14cc8:	05100693          	li	a3,81
   14ccc:	4711                	li	a4,4
   14cce:	853e                	mv	a0,a5
   14cd0:	00000073          	ecall
   14cd4:	00851863          	bne	a0,s0,14ce4 <_ZN20complex_dynamic_type3app17h7fafeb4a0857247cE+0x66>
   14cd8:	4505                	li	a0,1
   14cda:	00a98023          	sb	a0,0(s3)
   14cde:	00b9a223          	sw	a1,4(s3)
   14ce2:	a0bd                	j	14d50 <_ZN20complex_dynamic_type3app17h7fafeb4a0857247cE+0xd2>
   14ce4:	853e                	mv	a0,a5
   14ce6:	864a                	mv	a2,s2
   14ce8:	00910523          	sb	s1,10(sp)
   14cec:	478d                	li	a5,3
   14cee:	45a5                	li	a1,9
   14cf0:	04f00693          	li	a3,79
   14cf4:	470d                	li	a4,3
   14cf6:	00000073          	ecall
   14cfa:	00851d63          	bne	a0,s0,14d14 <_ZN20complex_dynamic_type3app17h7fafeb4a0857247cE+0x96>
   14cfe:	05c14703          	lbu	a4,92(sp)
   14d02:	4505                	li	a0,1
   14d04:	4609                	li	a2,2
   14d06:	00a98023          	sb	a0,0(s3)
   14d0a:	00b9a223          	sw	a1,4(s3)
   14d0e:	02c71963          	bne	a4,a2,14d40 <_ZN20complex_dynamic_type3app17h7fafeb4a0857247cE+0xc2>
   14d12:	a83d                	j	14d50 <_ZN20complex_dynamic_type3app17h7fafeb4a0857247cE+0xd2>
   14d14:	4681                	li	a3,0
   14d16:	04f10e23          	sb	a5,92(sp)
   14d1a:	6509                	lui	a0,0x2
   14d1c:	4591                	li	a1,4
   14d1e:	4625                	li	a2,9
   14d20:	4709                	li	a4,2
   14d22:	0ee50513          	addi	a0,a0,238 # 20ee <.Lline_table_start1+0x1ec3>
   14d26:	07f00793          	li	a5,127
   14d2a:	00000073          	ecall
   14d2e:	4609                	li	a2,2
   14d30:	04a7e563          	bltu	a5,a0,14d7a <_ZN20complex_dynamic_type3app17h7fafeb4a0857247cE+0xfc>
   14d34:	4505                	li	a0,1
   14d36:	00a98023          	sb	a0,0(s3)
   14d3a:	00b9a223          	sw	a1,4(s3)
   14d3e:	470d                	li	a4,3
   14d40:	6509                	lui	a0,0x2
   14d42:	0ee50513          	addi	a0,a0,238 # 20ee <.Lline_table_start1+0x1ec3>
   14d46:	45a5                	li	a1,9
   14d48:	4601                	li	a2,0
   14d4a:	4681                	li	a3,0
   14d4c:	00000073          	ecall
   14d50:	00a14483          	lbu	s1,10(sp)
   14d54:	4509                	li	a0,2
   14d56:	00a48b63          	beq	s1,a0,14d6c <_ZN20complex_dynamic_type3app17h7fafeb4a0857247cE+0xee>
   14d5a:	6509                	lui	a0,0x2
   14d5c:	0ee50513          	addi	a0,a0,238 # 20ee <.Lline_table_start1+0x1ec3>
   14d60:	4591                	li	a1,4
   14d62:	4601                	li	a2,0
   14d64:	4681                	li	a3,0
   14d66:	8726                	mv	a4,s1
   14d68:	00000073          	ecall
   14d6c:	50fa                	lw	ra,188(sp)
   14d6e:	546a                	lw	s0,184(sp)
   14d70:	54da                	lw	s1,180(sp)
   14d72:	594a                	lw	s2,176(sp)
   14d74:	59ba                	lw	s3,172(sp)
   14d76:	6129                	addi	sp,sp,192
   14d78:	8082                	ret
   14d7a:	00a14703          	lbu	a4,10(sp)
   14d7e:	00c71463          	bne	a4,a2,14d86 <_ZN20complex_dynamic_type3app17h7fafeb4a0857247cE+0x108>
   14d82:	470d                	li	a4,3
   14d84:	a825                	j	14dbc <_ZN20complex_dynamic_type3app17h7fafeb4a0857247cE+0x13e>
   14d86:	6509                	lui	a0,0x2
   14d88:	0ee50513          	addi	a0,a0,238 # 20ee <.Lline_table_start1+0x1ec3>
   14d8c:	4591                	li	a1,4
   14d8e:	4601                	li	a2,0
   14d90:	4681                	li	a3,0
   14d92:	00000073          	ecall
   14d96:	05c14703          	lbu	a4,92(sp)
   14d9a:	4509                	li	a0,2
   14d9c:	00a10523          	sb	a0,10(sp)
   14da0:	00a71e63          	bne	a4,a0,14dbc <_ZN20complex_dynamic_type3app17h7fafeb4a0857247cE+0x13e>
   14da4:	00198513          	addi	a0,s3,1
   14da8:	04f00613          	li	a2,79
   14dac:	85ca                	mv	a1,s2
   14dae:	00009097          	auipc	ra,0x9
   14db2:	9c8080e7          	jalr	-1592(ra) # 1d776 <memcpy>
   14db6:	00098023          	sb	zero,0(s3)
   14dba:	bf4d                	j	14d6c <_ZN20complex_dynamic_type3app17h7fafeb4a0857247cE+0xee>
   14dbc:	6509                	lui	a0,0x2
   14dbe:	0ee50513          	addi	a0,a0,238 # 20ee <.Lline_table_start1+0x1ec3>
   14dc2:	45a5                	li	a1,9
   14dc4:	4601                	li	a2,0
   14dc6:	4681                	li	a3,0
   14dc8:	00000073          	ecall
   14dcc:	00a14483          	lbu	s1,10(sp)
   14dd0:	00198513          	addi	a0,s3,1
   14dd4:	04f00613          	li	a2,79
   14dd8:	85ca                	mv	a1,s2
   14dda:	00009097          	auipc	ra,0x9
   14dde:	99c080e7          	jalr	-1636(ra) # 1d776 <memcpy>
   14de2:	4509                	li	a0,2
   14de4:	00098023          	sb	zero,0(s3)
   14de8:	f6a499e3          	bne	s1,a0,14d5a <_ZN20complex_dynamic_type3app17h7fafeb4a0857247cE+0xdc>
   14dec:	b741                	j	14d6c <_ZN20complex_dynamic_type3app17h7fafeb4a0857247cE+0xee>

00014dee <_ZN20complex_dynamic_type3app17h872068b99b137cc6E>:
   14dee:	7159                	addi	sp,sp,-112
   14df0:	d686                	sw	ra,108(sp)
   14df2:	d4a2                	sw	s0,104(sp)
   14df4:	d2a6                	sw	s1,100(sp)
   14df6:	d0ca                	sw	s2,96(sp)
   14df8:	cece                	sw	s3,92(sp)
   14dfa:	89aa                	mv	s3,a0
   14dfc:	4409                	li	s0,2
   14dfe:	00810623          	sb	s0,12(sp)
   14e02:	00d10493          	addi	s1,sp,13
   14e06:	03400613          	li	a2,52
   14e0a:	8526                	mv	a0,s1
   14e0c:	00009097          	auipc	ra,0x9
   14e10:	96a080e7          	jalr	-1686(ra) # 1d776 <memcpy>
   14e14:	04210913          	addi	s2,sp,66
   14e18:	4669                	li	a2,26
   14e1a:	854a                	mv	a0,s2
   14e1c:	4581                	li	a1,0
   14e1e:	00009097          	auipc	ra,0x9
   14e22:	8ec080e7          	jalr	-1812(ra) # 1d70a <memset>
   14e26:	4581                	li	a1,0
   14e28:	8626                	mv	a2,s1
   14e2a:	048100a3          	sb	s0,65(sp)
   14e2e:	6505                	lui	a0,0x1
   14e30:	4491                	li	s1,4
   14e32:	2cc50793          	addi	a5,a0,716 # 12cc <.Lline_table_start1+0x10a1>
   14e36:	03400693          	li	a3,52
   14e3a:	4711                	li	a4,4
   14e3c:	853e                	mv	a0,a5
   14e3e:	00000073          	ecall
   14e42:	00851863          	bne	a0,s0,14e52 <_ZN20complex_dynamic_type3app17h872068b99b137cc6E+0x64>
   14e46:	4505                	li	a0,1
   14e48:	00a98023          	sb	a0,0(s3)
   14e4c:	00b9a223          	sw	a1,4(s3)
   14e50:	a0b5                	j	14ebc <_ZN20complex_dynamic_type3app17h872068b99b137cc6E+0xce>
   14e52:	853e                	mv	a0,a5
   14e54:	864a                	mv	a2,s2
   14e56:	00910623          	sb	s1,12(sp)
   14e5a:	478d                	li	a5,3
   14e5c:	4595                	li	a1,5
   14e5e:	46e9                	li	a3,26
   14e60:	470d                	li	a4,3
   14e62:	00000073          	ecall
   14e66:	00851d63          	bne	a0,s0,14e80 <_ZN20complex_dynamic_type3app17h872068b99b137cc6E+0x92>
   14e6a:	04114703          	lbu	a4,65(sp)
   14e6e:	4505                	li	a0,1
   14e70:	4609                	li	a2,2
   14e72:	00a98023          	sb	a0,0(s3)
   14e76:	00b9a223          	sw	a1,4(s3)
   14e7a:	02c71963          	bne	a4,a2,14eac <_ZN20complex_dynamic_type3app17h872068b99b137cc6E+0xbe>
   14e7e:	a83d                	j	14ebc <_ZN20complex_dynamic_type3app17h872068b99b137cc6E+0xce>
   14e80:	4581                	li	a1,0
   14e82:	4681                	li	a3,0
   14e84:	04f100a3          	sb	a5,65(sp)
   14e88:	6505                	lui	a0,0x1
   14e8a:	4615                	li	a2,5
   14e8c:	4709                	li	a4,2
   14e8e:	2cc50513          	addi	a0,a0,716 # 12cc <.Lline_table_start1+0x10a1>
   14e92:	07f00793          	li	a5,127
   14e96:	00000073          	ecall
   14e9a:	4609                	li	a2,2
   14e9c:	04a7e563          	bltu	a5,a0,14ee6 <_ZN20complex_dynamic_type3app17h872068b99b137cc6E+0xf8>
   14ea0:	4505                	li	a0,1
   14ea2:	00a98023          	sb	a0,0(s3)
   14ea6:	00b9a223          	sw	a1,4(s3)
   14eaa:	470d                	li	a4,3
   14eac:	6505                	lui	a0,0x1
   14eae:	2cc50513          	addi	a0,a0,716 # 12cc <.Lline_table_start1+0x10a1>
   14eb2:	4595                	li	a1,5
   14eb4:	4601                	li	a2,0
   14eb6:	4681                	li	a3,0
   14eb8:	00000073          	ecall
   14ebc:	00c14483          	lbu	s1,12(sp)
   14ec0:	4509                	li	a0,2
   14ec2:	00a48b63          	beq	s1,a0,14ed8 <_ZN20complex_dynamic_type3app17h872068b99b137cc6E+0xea>
   14ec6:	6505                	lui	a0,0x1
   14ec8:	2cc50513          	addi	a0,a0,716 # 12cc <.Lline_table_start1+0x10a1>
   14ecc:	4581                	li	a1,0
   14ece:	4601                	li	a2,0
   14ed0:	4681                	li	a3,0
   14ed2:	8726                	mv	a4,s1
   14ed4:	00000073          	ecall
   14ed8:	50b6                	lw	ra,108(sp)
   14eda:	5426                	lw	s0,104(sp)
   14edc:	5496                	lw	s1,100(sp)
   14ede:	5906                	lw	s2,96(sp)
   14ee0:	49f6                	lw	s3,92(sp)
   14ee2:	6165                	addi	sp,sp,112
   14ee4:	8082                	ret
   14ee6:	00c14703          	lbu	a4,12(sp)
   14eea:	00c71463          	bne	a4,a2,14ef2 <_ZN20complex_dynamic_type3app17h872068b99b137cc6E+0x104>
   14eee:	470d                	li	a4,3
   14ef0:	a81d                	j	14f26 <_ZN20complex_dynamic_type3app17h872068b99b137cc6E+0x138>
   14ef2:	6505                	lui	a0,0x1
   14ef4:	2cc50513          	addi	a0,a0,716 # 12cc <.Lline_table_start1+0x10a1>
   14ef8:	4581                	li	a1,0
   14efa:	4601                	li	a2,0
   14efc:	4681                	li	a3,0
   14efe:	00000073          	ecall
   14f02:	04114703          	lbu	a4,65(sp)
   14f06:	4509                	li	a0,2
   14f08:	00a10623          	sb	a0,12(sp)
   14f0c:	00a71d63          	bne	a4,a0,14f26 <_ZN20complex_dynamic_type3app17h872068b99b137cc6E+0x138>
   14f10:	00198513          	addi	a0,s3,1
   14f14:	4669                	li	a2,26
   14f16:	85ca                	mv	a1,s2
   14f18:	00009097          	auipc	ra,0x9
   14f1c:	85e080e7          	jalr	-1954(ra) # 1d776 <memcpy>
   14f20:	00098023          	sb	zero,0(s3)
   14f24:	bf55                	j	14ed8 <_ZN20complex_dynamic_type3app17h872068b99b137cc6E+0xea>
   14f26:	6505                	lui	a0,0x1
   14f28:	2cc50513          	addi	a0,a0,716 # 12cc <.Lline_table_start1+0x10a1>
   14f2c:	4595                	li	a1,5
   14f2e:	4601                	li	a2,0
   14f30:	4681                	li	a3,0
   14f32:	00000073          	ecall
   14f36:	00c14483          	lbu	s1,12(sp)
   14f3a:	00198513          	addi	a0,s3,1
   14f3e:	4669                	li	a2,26
   14f40:	85ca                	mv	a1,s2
   14f42:	00009097          	auipc	ra,0x9
   14f46:	834080e7          	jalr	-1996(ra) # 1d776 <memcpy>
   14f4a:	4509                	li	a0,2
   14f4c:	00098023          	sb	zero,0(s3)
   14f50:	f6a49be3          	bne	s1,a0,14ec6 <_ZN20complex_dynamic_type3app17h872068b99b137cc6E+0xd8>
   14f54:	b751                	j	14ed8 <_ZN20complex_dynamic_type3app17h872068b99b137cc6E+0xea>

00014f56 <_ZN20complex_dynamic_type3app17h885d4c9cdf1d3a5eE>:
   14f56:	7175                	addi	sp,sp,-144
   14f58:	c706                	sw	ra,140(sp)
   14f5a:	c522                	sw	s0,136(sp)
   14f5c:	c326                	sw	s1,132(sp)
   14f5e:	c14a                	sw	s2,128(sp)
   14f60:	dece                	sw	s3,124(sp)
   14f62:	89aa                	mv	s3,a0
   14f64:	4409                	li	s0,2
   14f66:	008103a3          	sb	s0,7(sp)
   14f6a:	0024                	addi	s1,sp,8
   14f6c:	03200613          	li	a2,50
   14f70:	8526                	mv	a0,s1
   14f72:	00009097          	auipc	ra,0x9
   14f76:	804080e7          	jalr	-2044(ra) # 1d776 <memcpy>
   14f7a:	03b10913          	addi	s2,sp,59
   14f7e:	04100613          	li	a2,65
   14f82:	854a                	mv	a0,s2
   14f84:	4581                	li	a1,0
   14f86:	00008097          	auipc	ra,0x8
   14f8a:	784080e7          	jalr	1924(ra) # 1d70a <memset>
   14f8e:	8626                	mv	a2,s1
   14f90:	02810d23          	sb	s0,58(sp)
   14f94:	6505                	lui	a0,0x1
   14f96:	4491                	li	s1,4
   14f98:	459d                	li	a1,7
   14f9a:	91d50793          	addi	a5,a0,-1763 # 91d <.Lline_table_start1+0x6f2>
   14f9e:	03200693          	li	a3,50
   14fa2:	4711                	li	a4,4
   14fa4:	853e                	mv	a0,a5
   14fa6:	00000073          	ecall
   14faa:	00851863          	bne	a0,s0,14fba <_ZN20complex_dynamic_type3app17h885d4c9cdf1d3a5eE+0x64>
   14fae:	4505                	li	a0,1
   14fb0:	00a98023          	sb	a0,0(s3)
   14fb4:	00b9a223          	sw	a1,4(s3)
   14fb8:	a0bd                	j	15026 <_ZN20complex_dynamic_type3app17h885d4c9cdf1d3a5eE+0xd0>
   14fba:	853e                	mv	a0,a5
   14fbc:	864a                	mv	a2,s2
   14fbe:	009103a3          	sb	s1,7(sp)
   14fc2:	478d                	li	a5,3
   14fc4:	4595                	li	a1,5
   14fc6:	04100693          	li	a3,65
   14fca:	470d                	li	a4,3
   14fcc:	00000073          	ecall
   14fd0:	00851d63          	bne	a0,s0,14fea <_ZN20complex_dynamic_type3app17h885d4c9cdf1d3a5eE+0x94>
   14fd4:	03a14703          	lbu	a4,58(sp)
   14fd8:	4505                	li	a0,1
   14fda:	4609                	li	a2,2
   14fdc:	00a98023          	sb	a0,0(s3)
   14fe0:	00b9a223          	sw	a1,4(s3)
   14fe4:	02c71963          	bne	a4,a2,15016 <_ZN20complex_dynamic_type3app17h885d4c9cdf1d3a5eE+0xc0>
   14fe8:	a83d                	j	15026 <_ZN20complex_dynamic_type3app17h885d4c9cdf1d3a5eE+0xd0>
   14fea:	4681                	li	a3,0
   14fec:	02f10d23          	sb	a5,58(sp)
   14ff0:	6505                	lui	a0,0x1
   14ff2:	459d                	li	a1,7
   14ff4:	4615                	li	a2,5
   14ff6:	4709                	li	a4,2
   14ff8:	91d50513          	addi	a0,a0,-1763 # 91d <.Lline_table_start1+0x6f2>
   14ffc:	07f00793          	li	a5,127
   15000:	00000073          	ecall
   15004:	4609                	li	a2,2
   15006:	04a7e563          	bltu	a5,a0,15050 <_ZN20complex_dynamic_type3app17h885d4c9cdf1d3a5eE+0xfa>
   1500a:	4505                	li	a0,1
   1500c:	00a98023          	sb	a0,0(s3)
   15010:	00b9a223          	sw	a1,4(s3)
   15014:	470d                	li	a4,3
   15016:	6505                	lui	a0,0x1
   15018:	91d50513          	addi	a0,a0,-1763 # 91d <.Lline_table_start1+0x6f2>
   1501c:	4595                	li	a1,5
   1501e:	4601                	li	a2,0
   15020:	4681                	li	a3,0
   15022:	00000073          	ecall
   15026:	00714483          	lbu	s1,7(sp)
   1502a:	4509                	li	a0,2
   1502c:	00a48b63          	beq	s1,a0,15042 <_ZN20complex_dynamic_type3app17h885d4c9cdf1d3a5eE+0xec>
   15030:	6505                	lui	a0,0x1
   15032:	91d50513          	addi	a0,a0,-1763 # 91d <.Lline_table_start1+0x6f2>
   15036:	459d                	li	a1,7
   15038:	4601                	li	a2,0
   1503a:	4681                	li	a3,0
   1503c:	8726                	mv	a4,s1
   1503e:	00000073          	ecall
   15042:	40ba                	lw	ra,140(sp)
   15044:	442a                	lw	s0,136(sp)
   15046:	449a                	lw	s1,132(sp)
   15048:	490a                	lw	s2,128(sp)
   1504a:	59f6                	lw	s3,124(sp)
   1504c:	6149                	addi	sp,sp,144
   1504e:	8082                	ret
   15050:	00714703          	lbu	a4,7(sp)
   15054:	00c71463          	bne	a4,a2,1505c <_ZN20complex_dynamic_type3app17h885d4c9cdf1d3a5eE+0x106>
   15058:	470d                	li	a4,3
   1505a:	a825                	j	15092 <_ZN20complex_dynamic_type3app17h885d4c9cdf1d3a5eE+0x13c>
   1505c:	6505                	lui	a0,0x1
   1505e:	91d50513          	addi	a0,a0,-1763 # 91d <.Lline_table_start1+0x6f2>
   15062:	459d                	li	a1,7
   15064:	4601                	li	a2,0
   15066:	4681                	li	a3,0
   15068:	00000073          	ecall
   1506c:	03a14703          	lbu	a4,58(sp)
   15070:	4509                	li	a0,2
   15072:	00a103a3          	sb	a0,7(sp)
   15076:	00a71e63          	bne	a4,a0,15092 <_ZN20complex_dynamic_type3app17h885d4c9cdf1d3a5eE+0x13c>
   1507a:	00198513          	addi	a0,s3,1
   1507e:	04100613          	li	a2,65
   15082:	85ca                	mv	a1,s2
   15084:	00008097          	auipc	ra,0x8
   15088:	6f2080e7          	jalr	1778(ra) # 1d776 <memcpy>
   1508c:	00098023          	sb	zero,0(s3)
   15090:	bf4d                	j	15042 <_ZN20complex_dynamic_type3app17h885d4c9cdf1d3a5eE+0xec>
   15092:	6505                	lui	a0,0x1
   15094:	91d50513          	addi	a0,a0,-1763 # 91d <.Lline_table_start1+0x6f2>
   15098:	4595                	li	a1,5
   1509a:	4601                	li	a2,0
   1509c:	4681                	li	a3,0
   1509e:	00000073          	ecall
   150a2:	00714483          	lbu	s1,7(sp)
   150a6:	00198513          	addi	a0,s3,1
   150aa:	04100613          	li	a2,65
   150ae:	85ca                	mv	a1,s2
   150b0:	00008097          	auipc	ra,0x8
   150b4:	6c6080e7          	jalr	1734(ra) # 1d776 <memcpy>
   150b8:	4509                	li	a0,2
   150ba:	00098023          	sb	zero,0(s3)
   150be:	f6a499e3          	bne	s1,a0,15030 <_ZN20complex_dynamic_type3app17h885d4c9cdf1d3a5eE+0xda>
   150c2:	b741                	j	15042 <_ZN20complex_dynamic_type3app17h885d4c9cdf1d3a5eE+0xec>

000150c4 <_ZN20complex_dynamic_type3app17h8a043483d25fec35E>:
   150c4:	715d                	addi	sp,sp,-80
   150c6:	c686                	sw	ra,76(sp)
   150c8:	c4a2                	sw	s0,72(sp)
   150ca:	c2a6                	sw	s1,68(sp)
   150cc:	c0ca                	sw	s2,64(sp)
   150ce:	de4e                	sw	s3,60(sp)
   150d0:	89aa                	mv	s3,a0
   150d2:	4409                	li	s0,2
   150d4:	00810323          	sb	s0,6(sp)
   150d8:	00710493          	addi	s1,sp,7
   150dc:	463d                	li	a2,15
   150de:	8526                	mv	a0,s1
   150e0:	00008097          	auipc	ra,0x8
   150e4:	696080e7          	jalr	1686(ra) # 1d776 <memcpy>
   150e8:	01710913          	addi	s2,sp,23
   150ec:	02500613          	li	a2,37
   150f0:	854a                	mv	a0,s2
   150f2:	4581                	li	a1,0
   150f4:	00008097          	auipc	ra,0x8
   150f8:	616080e7          	jalr	1558(ra) # 1d70a <memset>
   150fc:	8626                	mv	a2,s1
   150fe:	00810b23          	sb	s0,22(sp)
   15102:	4791                	li	a5,4
   15104:	0a200513          	li	a0,162
   15108:	45a1                	li	a1,8
   1510a:	46bd                	li	a3,15
   1510c:	4711                	li	a4,4
   1510e:	00000073          	ecall
   15112:	00851863          	bne	a0,s0,15122 <_ZN20complex_dynamic_type3app17h8a043483d25fec35E+0x5e>
   15116:	4505                	li	a0,1
   15118:	00a98023          	sb	a0,0(s3)
   1511c:	00b9a223          	sw	a1,4(s3)
   15120:	a0b5                	j	1518c <_ZN20complex_dynamic_type3app17h8a043483d25fec35E+0xc8>
   15122:	4581                	li	a1,0
   15124:	864a                	mv	a2,s2
   15126:	00f10323          	sb	a5,6(sp)
   1512a:	478d                	li	a5,3
   1512c:	0a200513          	li	a0,162
   15130:	02500693          	li	a3,37
   15134:	470d                	li	a4,3
   15136:	00000073          	ecall
   1513a:	00851d63          	bne	a0,s0,15154 <_ZN20complex_dynamic_type3app17h8a043483d25fec35E+0x90>
   1513e:	01614703          	lbu	a4,22(sp)
   15142:	4505                	li	a0,1
   15144:	4609                	li	a2,2
   15146:	00a98023          	sb	a0,0(s3)
   1514a:	00b9a223          	sw	a1,4(s3)
   1514e:	02c71863          	bne	a4,a2,1517e <_ZN20complex_dynamic_type3app17h8a043483d25fec35E+0xba>
   15152:	a82d                	j	1518c <_ZN20complex_dynamic_type3app17h8a043483d25fec35E+0xc8>
   15154:	4601                	li	a2,0
   15156:	4681                	li	a3,0
   15158:	00f10b23          	sb	a5,22(sp)
   1515c:	0a200513          	li	a0,162
   15160:	45a1                	li	a1,8
   15162:	4709                	li	a4,2
   15164:	07f00793          	li	a5,127
   15168:	00000073          	ecall
   1516c:	4609                	li	a2,2
   1516e:	04a7e363          	bltu	a5,a0,151b4 <_ZN20complex_dynamic_type3app17h8a043483d25fec35E+0xf0>
   15172:	4505                	li	a0,1
   15174:	00a98023          	sb	a0,0(s3)
   15178:	00b9a223          	sw	a1,4(s3)
   1517c:	470d                	li	a4,3
   1517e:	0a200513          	li	a0,162
   15182:	4581                	li	a1,0
   15184:	4601                	li	a2,0
   15186:	4681                	li	a3,0
   15188:	00000073          	ecall
   1518c:	00614483          	lbu	s1,6(sp)
   15190:	4509                	li	a0,2
   15192:	00a48a63          	beq	s1,a0,151a6 <_ZN20complex_dynamic_type3app17h8a043483d25fec35E+0xe2>
   15196:	0a200513          	li	a0,162
   1519a:	45a1                	li	a1,8
   1519c:	4601                	li	a2,0
   1519e:	4681                	li	a3,0
   151a0:	8726                	mv	a4,s1
   151a2:	00000073          	ecall
   151a6:	40b6                	lw	ra,76(sp)
   151a8:	4426                	lw	s0,72(sp)
   151aa:	4496                	lw	s1,68(sp)
   151ac:	4906                	lw	s2,64(sp)
   151ae:	59f2                	lw	s3,60(sp)
   151b0:	6161                	addi	sp,sp,80
   151b2:	8082                	ret
   151b4:	00614703          	lbu	a4,6(sp)
   151b8:	00c71463          	bne	a4,a2,151c0 <_ZN20complex_dynamic_type3app17h8a043483d25fec35E+0xfc>
   151bc:	470d                	li	a4,3
   151be:	a81d                	j	151f4 <_ZN20complex_dynamic_type3app17h8a043483d25fec35E+0x130>
   151c0:	0a200513          	li	a0,162
   151c4:	45a1                	li	a1,8
   151c6:	4601                	li	a2,0
   151c8:	4681                	li	a3,0
   151ca:	00000073          	ecall
   151ce:	01614703          	lbu	a4,22(sp)
   151d2:	4509                	li	a0,2
   151d4:	00a10323          	sb	a0,6(sp)
   151d8:	00a71e63          	bne	a4,a0,151f4 <_ZN20complex_dynamic_type3app17h8a043483d25fec35E+0x130>
   151dc:	00198513          	addi	a0,s3,1
   151e0:	02500613          	li	a2,37
   151e4:	85ca                	mv	a1,s2
   151e6:	00008097          	auipc	ra,0x8
   151ea:	590080e7          	jalr	1424(ra) # 1d776 <memcpy>
   151ee:	00098023          	sb	zero,0(s3)
   151f2:	bf55                	j	151a6 <_ZN20complex_dynamic_type3app17h8a043483d25fec35E+0xe2>
   151f4:	0a200513          	li	a0,162
   151f8:	4581                	li	a1,0
   151fa:	4601                	li	a2,0
   151fc:	4681                	li	a3,0
   151fe:	00000073          	ecall
   15202:	00614483          	lbu	s1,6(sp)
   15206:	00198513          	addi	a0,s3,1
   1520a:	02500613          	li	a2,37
   1520e:	85ca                	mv	a1,s2
   15210:	00008097          	auipc	ra,0x8
   15214:	566080e7          	jalr	1382(ra) # 1d776 <memcpy>
   15218:	4509                	li	a0,2
   1521a:	00098023          	sb	zero,0(s3)
   1521e:	f6a49ce3          	bne	s1,a0,15196 <_ZN20complex_dynamic_type3app17h8a043483d25fec35E+0xd2>
   15222:	b751                	j	151a6 <_ZN20complex_dynamic_type3app17h8a043483d25fec35E+0xe2>

00015224 <_ZN20complex_dynamic_type3app17h8f95bb1629456b7cE>:
   15224:	7119                	addi	sp,sp,-128
   15226:	de86                	sw	ra,124(sp)
   15228:	dca2                	sw	s0,120(sp)
   1522a:	daa6                	sw	s1,116(sp)
   1522c:	d8ca                	sw	s2,112(sp)
   1522e:	d6ce                	sw	s3,108(sp)
   15230:	89aa                	mv	s3,a0
   15232:	4409                	li	s0,2
   15234:	00810023          	sb	s0,0(sp)
   15238:	00110493          	addi	s1,sp,1
   1523c:	4669                	li	a2,26
   1523e:	8526                	mv	a0,s1
   15240:	00008097          	auipc	ra,0x8
   15244:	536080e7          	jalr	1334(ra) # 1d776 <memcpy>
   15248:	01c10913          	addi	s2,sp,28
   1524c:	05000613          	li	a2,80
   15250:	854a                	mv	a0,s2
   15252:	4581                	li	a1,0
   15254:	00008097          	auipc	ra,0x8
   15258:	4b6080e7          	jalr	1206(ra) # 1d70a <memset>
   1525c:	8626                	mv	a2,s1
   1525e:	00810da3          	sb	s0,27(sp)
   15262:	6505                	lui	a0,0x1
   15264:	4491                	li	s1,4
   15266:	459d                	li	a1,7
   15268:	aee50793          	addi	a5,a0,-1298 # aee <.Lline_table_start1+0x8c3>
   1526c:	46e9                	li	a3,26
   1526e:	4711                	li	a4,4
   15270:	853e                	mv	a0,a5
   15272:	00000073          	ecall
   15276:	00851863          	bne	a0,s0,15286 <_ZN20complex_dynamic_type3app17h8f95bb1629456b7cE+0x62>
   1527a:	4505                	li	a0,1
   1527c:	00a98023          	sb	a0,0(s3)
   15280:	00b9a223          	sw	a1,4(s3)
   15284:	a0bd                	j	152f2 <_ZN20complex_dynamic_type3app17h8f95bb1629456b7cE+0xce>
   15286:	853e                	mv	a0,a5
   15288:	864a                	mv	a2,s2
   1528a:	00910023          	sb	s1,0(sp)
   1528e:	478d                	li	a5,3
   15290:	4591                	li	a1,4
   15292:	05000693          	li	a3,80
   15296:	470d                	li	a4,3
   15298:	00000073          	ecall
   1529c:	00851d63          	bne	a0,s0,152b6 <_ZN20complex_dynamic_type3app17h8f95bb1629456b7cE+0x92>
   152a0:	01b14703          	lbu	a4,27(sp)
   152a4:	4505                	li	a0,1
   152a6:	4609                	li	a2,2
   152a8:	00a98023          	sb	a0,0(s3)
   152ac:	00b9a223          	sw	a1,4(s3)
   152b0:	02c71963          	bne	a4,a2,152e2 <_ZN20complex_dynamic_type3app17h8f95bb1629456b7cE+0xbe>
   152b4:	a83d                	j	152f2 <_ZN20complex_dynamic_type3app17h8f95bb1629456b7cE+0xce>
   152b6:	4681                	li	a3,0
   152b8:	00f10da3          	sb	a5,27(sp)
   152bc:	6505                	lui	a0,0x1
   152be:	459d                	li	a1,7
   152c0:	4611                	li	a2,4
   152c2:	4709                	li	a4,2
   152c4:	aee50513          	addi	a0,a0,-1298 # aee <.Lline_table_start1+0x8c3>
   152c8:	07f00793          	li	a5,127
   152cc:	00000073          	ecall
   152d0:	4609                	li	a2,2
   152d2:	04a7e563          	bltu	a5,a0,1531c <_ZN20complex_dynamic_type3app17h8f95bb1629456b7cE+0xf8>
   152d6:	4505                	li	a0,1
   152d8:	00a98023          	sb	a0,0(s3)
   152dc:	00b9a223          	sw	a1,4(s3)
   152e0:	470d                	li	a4,3
   152e2:	6505                	lui	a0,0x1
   152e4:	aee50513          	addi	a0,a0,-1298 # aee <.Lline_table_start1+0x8c3>
   152e8:	4591                	li	a1,4
   152ea:	4601                	li	a2,0
   152ec:	4681                	li	a3,0
   152ee:	00000073          	ecall
   152f2:	00014483          	lbu	s1,0(sp)
   152f6:	4509                	li	a0,2
   152f8:	00a48b63          	beq	s1,a0,1530e <_ZN20complex_dynamic_type3app17h8f95bb1629456b7cE+0xea>
   152fc:	6505                	lui	a0,0x1
   152fe:	aee50513          	addi	a0,a0,-1298 # aee <.Lline_table_start1+0x8c3>
   15302:	459d                	li	a1,7
   15304:	4601                	li	a2,0
   15306:	4681                	li	a3,0
   15308:	8726                	mv	a4,s1
   1530a:	00000073          	ecall
   1530e:	50f6                	lw	ra,124(sp)
   15310:	5466                	lw	s0,120(sp)
   15312:	54d6                	lw	s1,116(sp)
   15314:	5946                	lw	s2,112(sp)
   15316:	59b6                	lw	s3,108(sp)
   15318:	6109                	addi	sp,sp,128
   1531a:	8082                	ret
   1531c:	00014703          	lbu	a4,0(sp)
   15320:	00c71463          	bne	a4,a2,15328 <_ZN20complex_dynamic_type3app17h8f95bb1629456b7cE+0x104>
   15324:	470d                	li	a4,3
   15326:	a825                	j	1535e <_ZN20complex_dynamic_type3app17h8f95bb1629456b7cE+0x13a>
   15328:	6505                	lui	a0,0x1
   1532a:	aee50513          	addi	a0,a0,-1298 # aee <.Lline_table_start1+0x8c3>
   1532e:	459d                	li	a1,7
   15330:	4601                	li	a2,0
   15332:	4681                	li	a3,0
   15334:	00000073          	ecall
   15338:	01b14703          	lbu	a4,27(sp)
   1533c:	4509                	li	a0,2
   1533e:	00a10023          	sb	a0,0(sp)
   15342:	00a71e63          	bne	a4,a0,1535e <_ZN20complex_dynamic_type3app17h8f95bb1629456b7cE+0x13a>
   15346:	00198513          	addi	a0,s3,1
   1534a:	05000613          	li	a2,80
   1534e:	85ca                	mv	a1,s2
   15350:	00008097          	auipc	ra,0x8
   15354:	426080e7          	jalr	1062(ra) # 1d776 <memcpy>
   15358:	00098023          	sb	zero,0(s3)
   1535c:	bf4d                	j	1530e <_ZN20complex_dynamic_type3app17h8f95bb1629456b7cE+0xea>
   1535e:	6505                	lui	a0,0x1
   15360:	aee50513          	addi	a0,a0,-1298 # aee <.Lline_table_start1+0x8c3>
   15364:	4591                	li	a1,4
   15366:	4601                	li	a2,0
   15368:	4681                	li	a3,0
   1536a:	00000073          	ecall
   1536e:	00014483          	lbu	s1,0(sp)
   15372:	00198513          	addi	a0,s3,1
   15376:	05000613          	li	a2,80
   1537a:	85ca                	mv	a1,s2
   1537c:	00008097          	auipc	ra,0x8
   15380:	3fa080e7          	jalr	1018(ra) # 1d776 <memcpy>
   15384:	4509                	li	a0,2
   15386:	00098023          	sb	zero,0(s3)
   1538a:	f6a499e3          	bne	s1,a0,152fc <_ZN20complex_dynamic_type3app17h8f95bb1629456b7cE+0xd8>
   1538e:	b741                	j	1530e <_ZN20complex_dynamic_type3app17h8f95bb1629456b7cE+0xea>

00015390 <_ZN20complex_dynamic_type3app17h8f9972421bb95b4bE>:
   15390:	7159                	addi	sp,sp,-112
   15392:	d686                	sw	ra,108(sp)
   15394:	d4a2                	sw	s0,104(sp)
   15396:	d2a6                	sw	s1,100(sp)
   15398:	d0ca                	sw	s2,96(sp)
   1539a:	cece                	sw	s3,92(sp)
   1539c:	89aa                	mv	s3,a0
   1539e:	4409                	li	s0,2
   153a0:	00810423          	sb	s0,8(sp)
   153a4:	00910493          	addi	s1,sp,9
   153a8:	02a00613          	li	a2,42
   153ac:	8526                	mv	a0,s1
   153ae:	00008097          	auipc	ra,0x8
   153b2:	3c8080e7          	jalr	968(ra) # 1d776 <memcpy>
   153b6:	03410913          	addi	s2,sp,52
   153ba:	02800613          	li	a2,40
   153be:	854a                	mv	a0,s2
   153c0:	4581                	li	a1,0
   153c2:	00008097          	auipc	ra,0x8
   153c6:	348080e7          	jalr	840(ra) # 1d70a <memset>
   153ca:	8626                	mv	a2,s1
   153cc:	028109a3          	sb	s0,51(sp)
   153d0:	6509                	lui	a0,0x2
   153d2:	4491                	li	s1,4
   153d4:	4591                	li	a1,4
   153d6:	efa50793          	addi	a5,a0,-262 # 1efa <.Lline_table_start1+0x1ccf>
   153da:	02a00693          	li	a3,42
   153de:	4711                	li	a4,4
   153e0:	853e                	mv	a0,a5
   153e2:	00000073          	ecall
   153e6:	00851863          	bne	a0,s0,153f6 <_ZN20complex_dynamic_type3app17h8f9972421bb95b4bE+0x66>
   153ea:	4505                	li	a0,1
   153ec:	00a98023          	sb	a0,0(s3)
   153f0:	00b9a223          	sw	a1,4(s3)
   153f4:	a0bd                	j	15462 <_ZN20complex_dynamic_type3app17h8f9972421bb95b4bE+0xd2>
   153f6:	853e                	mv	a0,a5
   153f8:	864a                	mv	a2,s2
   153fa:	00910423          	sb	s1,8(sp)
   153fe:	478d                	li	a5,3
   15400:	45a1                	li	a1,8
   15402:	02800693          	li	a3,40
   15406:	470d                	li	a4,3
   15408:	00000073          	ecall
   1540c:	00851d63          	bne	a0,s0,15426 <_ZN20complex_dynamic_type3app17h8f9972421bb95b4bE+0x96>
   15410:	03314703          	lbu	a4,51(sp)
   15414:	4505                	li	a0,1
   15416:	4609                	li	a2,2
   15418:	00a98023          	sb	a0,0(s3)
   1541c:	00b9a223          	sw	a1,4(s3)
   15420:	02c71963          	bne	a4,a2,15452 <_ZN20complex_dynamic_type3app17h8f9972421bb95b4bE+0xc2>
   15424:	a83d                	j	15462 <_ZN20complex_dynamic_type3app17h8f9972421bb95b4bE+0xd2>
   15426:	4681                	li	a3,0
   15428:	02f109a3          	sb	a5,51(sp)
   1542c:	6509                	lui	a0,0x2
   1542e:	4591                	li	a1,4
   15430:	4621                	li	a2,8
   15432:	4709                	li	a4,2
   15434:	efa50513          	addi	a0,a0,-262 # 1efa <.Lline_table_start1+0x1ccf>
   15438:	07f00793          	li	a5,127
   1543c:	00000073          	ecall
   15440:	4609                	li	a2,2
   15442:	04a7e563          	bltu	a5,a0,1548c <_ZN20complex_dynamic_type3app17h8f9972421bb95b4bE+0xfc>
   15446:	4505                	li	a0,1
   15448:	00a98023          	sb	a0,0(s3)
   1544c:	00b9a223          	sw	a1,4(s3)
   15450:	470d                	li	a4,3
   15452:	6509                	lui	a0,0x2
   15454:	efa50513          	addi	a0,a0,-262 # 1efa <.Lline_table_start1+0x1ccf>
   15458:	45a1                	li	a1,8
   1545a:	4601                	li	a2,0
   1545c:	4681                	li	a3,0
   1545e:	00000073          	ecall
   15462:	00814483          	lbu	s1,8(sp)
   15466:	4509                	li	a0,2
   15468:	00a48b63          	beq	s1,a0,1547e <_ZN20complex_dynamic_type3app17h8f9972421bb95b4bE+0xee>
   1546c:	6509                	lui	a0,0x2
   1546e:	efa50513          	addi	a0,a0,-262 # 1efa <.Lline_table_start1+0x1ccf>
   15472:	4591                	li	a1,4
   15474:	4601                	li	a2,0
   15476:	4681                	li	a3,0
   15478:	8726                	mv	a4,s1
   1547a:	00000073          	ecall
   1547e:	50b6                	lw	ra,108(sp)
   15480:	5426                	lw	s0,104(sp)
   15482:	5496                	lw	s1,100(sp)
   15484:	5906                	lw	s2,96(sp)
   15486:	49f6                	lw	s3,92(sp)
   15488:	6165                	addi	sp,sp,112
   1548a:	8082                	ret
   1548c:	00814703          	lbu	a4,8(sp)
   15490:	00c71463          	bne	a4,a2,15498 <_ZN20complex_dynamic_type3app17h8f9972421bb95b4bE+0x108>
   15494:	470d                	li	a4,3
   15496:	a825                	j	154ce <_ZN20complex_dynamic_type3app17h8f9972421bb95b4bE+0x13e>
   15498:	6509                	lui	a0,0x2
   1549a:	efa50513          	addi	a0,a0,-262 # 1efa <.Lline_table_start1+0x1ccf>
   1549e:	4591                	li	a1,4
   154a0:	4601                	li	a2,0
   154a2:	4681                	li	a3,0
   154a4:	00000073          	ecall
   154a8:	03314703          	lbu	a4,51(sp)
   154ac:	4509                	li	a0,2
   154ae:	00a10423          	sb	a0,8(sp)
   154b2:	00a71e63          	bne	a4,a0,154ce <_ZN20complex_dynamic_type3app17h8f9972421bb95b4bE+0x13e>
   154b6:	00198513          	addi	a0,s3,1
   154ba:	02800613          	li	a2,40
   154be:	85ca                	mv	a1,s2
   154c0:	00008097          	auipc	ra,0x8
   154c4:	2b6080e7          	jalr	694(ra) # 1d776 <memcpy>
   154c8:	00098023          	sb	zero,0(s3)
   154cc:	bf4d                	j	1547e <_ZN20complex_dynamic_type3app17h8f9972421bb95b4bE+0xee>
   154ce:	6509                	lui	a0,0x2
   154d0:	efa50513          	addi	a0,a0,-262 # 1efa <.Lline_table_start1+0x1ccf>
   154d4:	45a1                	li	a1,8
   154d6:	4601                	li	a2,0
   154d8:	4681                	li	a3,0
   154da:	00000073          	ecall
   154de:	00814483          	lbu	s1,8(sp)
   154e2:	00198513          	addi	a0,s3,1
   154e6:	02800613          	li	a2,40
   154ea:	85ca                	mv	a1,s2
   154ec:	00008097          	auipc	ra,0x8
   154f0:	28a080e7          	jalr	650(ra) # 1d776 <memcpy>
   154f4:	4509                	li	a0,2
   154f6:	00098023          	sb	zero,0(s3)
   154fa:	f6a499e3          	bne	s1,a0,1546c <_ZN20complex_dynamic_type3app17h8f9972421bb95b4bE+0xdc>
   154fe:	b741                	j	1547e <_ZN20complex_dynamic_type3app17h8f9972421bb95b4bE+0xee>

00015500 <_ZN20complex_dynamic_type3app17h91fb1343466ee327E>:
   15500:	7119                	addi	sp,sp,-128
   15502:	de86                	sw	ra,124(sp)
   15504:	dca2                	sw	s0,120(sp)
   15506:	daa6                	sw	s1,116(sp)
   15508:	d8ca                	sw	s2,112(sp)
   1550a:	d6ce                	sw	s3,108(sp)
   1550c:	89aa                	mv	s3,a0
   1550e:	4409                	li	s0,2
   15510:	00810423          	sb	s0,8(sp)
   15514:	00910493          	addi	s1,sp,9
   15518:	03b00613          	li	a2,59
   1551c:	8526                	mv	a0,s1
   1551e:	00008097          	auipc	ra,0x8
   15522:	258080e7          	jalr	600(ra) # 1d776 <memcpy>
   15526:	04510913          	addi	s2,sp,69
   1552a:	02700613          	li	a2,39
   1552e:	854a                	mv	a0,s2
   15530:	4581                	li	a1,0
   15532:	00008097          	auipc	ra,0x8
   15536:	1d8080e7          	jalr	472(ra) # 1d70a <memset>
   1553a:	8626                	mv	a2,s1
   1553c:	04810223          	sb	s0,68(sp)
   15540:	6505                	lui	a0,0x1
   15542:	4491                	li	s1,4
   15544:	4595                	li	a1,5
   15546:	bd350793          	addi	a5,a0,-1069 # bd3 <.Lline_table_start1+0x9a8>
   1554a:	03b00693          	li	a3,59
   1554e:	4711                	li	a4,4
   15550:	853e                	mv	a0,a5
   15552:	00000073          	ecall
   15556:	00851863          	bne	a0,s0,15566 <_ZN20complex_dynamic_type3app17h91fb1343466ee327E+0x66>
   1555a:	4505                	li	a0,1
   1555c:	00a98023          	sb	a0,0(s3)
   15560:	00b9a223          	sw	a1,4(s3)
   15564:	a0bd                	j	155d2 <_ZN20complex_dynamic_type3app17h91fb1343466ee327E+0xd2>
   15566:	853e                	mv	a0,a5
   15568:	864a                	mv	a2,s2
   1556a:	00910423          	sb	s1,8(sp)
   1556e:	478d                	li	a5,3
   15570:	458d                	li	a1,3
   15572:	02700693          	li	a3,39
   15576:	470d                	li	a4,3
   15578:	00000073          	ecall
   1557c:	00851d63          	bne	a0,s0,15596 <_ZN20complex_dynamic_type3app17h91fb1343466ee327E+0x96>
   15580:	04414703          	lbu	a4,68(sp)
   15584:	4505                	li	a0,1
   15586:	4609                	li	a2,2
   15588:	00a98023          	sb	a0,0(s3)
   1558c:	00b9a223          	sw	a1,4(s3)
   15590:	02c71963          	bne	a4,a2,155c2 <_ZN20complex_dynamic_type3app17h91fb1343466ee327E+0xc2>
   15594:	a83d                	j	155d2 <_ZN20complex_dynamic_type3app17h91fb1343466ee327E+0xd2>
   15596:	4681                	li	a3,0
   15598:	04f10223          	sb	a5,68(sp)
   1559c:	6505                	lui	a0,0x1
   1559e:	4595                	li	a1,5
   155a0:	460d                	li	a2,3
   155a2:	4709                	li	a4,2
   155a4:	bd350513          	addi	a0,a0,-1069 # bd3 <.Lline_table_start1+0x9a8>
   155a8:	07f00793          	li	a5,127
   155ac:	00000073          	ecall
   155b0:	4609                	li	a2,2
   155b2:	04a7e563          	bltu	a5,a0,155fc <_ZN20complex_dynamic_type3app17h91fb1343466ee327E+0xfc>
   155b6:	4505                	li	a0,1
   155b8:	00a98023          	sb	a0,0(s3)
   155bc:	00b9a223          	sw	a1,4(s3)
   155c0:	470d                	li	a4,3
   155c2:	6505                	lui	a0,0x1
   155c4:	bd350513          	addi	a0,a0,-1069 # bd3 <.Lline_table_start1+0x9a8>
   155c8:	458d                	li	a1,3
   155ca:	4601                	li	a2,0
   155cc:	4681                	li	a3,0
   155ce:	00000073          	ecall
   155d2:	00814483          	lbu	s1,8(sp)
   155d6:	4509                	li	a0,2
   155d8:	00a48b63          	beq	s1,a0,155ee <_ZN20complex_dynamic_type3app17h91fb1343466ee327E+0xee>
   155dc:	6505                	lui	a0,0x1
   155de:	bd350513          	addi	a0,a0,-1069 # bd3 <.Lline_table_start1+0x9a8>
   155e2:	4595                	li	a1,5
   155e4:	4601                	li	a2,0
   155e6:	4681                	li	a3,0
   155e8:	8726                	mv	a4,s1
   155ea:	00000073          	ecall
   155ee:	50f6                	lw	ra,124(sp)
   155f0:	5466                	lw	s0,120(sp)
   155f2:	54d6                	lw	s1,116(sp)
   155f4:	5946                	lw	s2,112(sp)
   155f6:	59b6                	lw	s3,108(sp)
   155f8:	6109                	addi	sp,sp,128
   155fa:	8082                	ret
   155fc:	00814703          	lbu	a4,8(sp)
   15600:	00c71463          	bne	a4,a2,15608 <_ZN20complex_dynamic_type3app17h91fb1343466ee327E+0x108>
   15604:	470d                	li	a4,3
   15606:	a825                	j	1563e <_ZN20complex_dynamic_type3app17h91fb1343466ee327E+0x13e>
   15608:	6505                	lui	a0,0x1
   1560a:	bd350513          	addi	a0,a0,-1069 # bd3 <.Lline_table_start1+0x9a8>
   1560e:	4595                	li	a1,5
   15610:	4601                	li	a2,0
   15612:	4681                	li	a3,0
   15614:	00000073          	ecall
   15618:	04414703          	lbu	a4,68(sp)
   1561c:	4509                	li	a0,2
   1561e:	00a10423          	sb	a0,8(sp)
   15622:	00a71e63          	bne	a4,a0,1563e <_ZN20complex_dynamic_type3app17h91fb1343466ee327E+0x13e>
   15626:	00198513          	addi	a0,s3,1
   1562a:	02700613          	li	a2,39
   1562e:	85ca                	mv	a1,s2
   15630:	00008097          	auipc	ra,0x8
   15634:	146080e7          	jalr	326(ra) # 1d776 <memcpy>
   15638:	00098023          	sb	zero,0(s3)
   1563c:	bf4d                	j	155ee <_ZN20complex_dynamic_type3app17h91fb1343466ee327E+0xee>
   1563e:	6505                	lui	a0,0x1
   15640:	bd350513          	addi	a0,a0,-1069 # bd3 <.Lline_table_start1+0x9a8>
   15644:	458d                	li	a1,3
   15646:	4601                	li	a2,0
   15648:	4681                	li	a3,0
   1564a:	00000073          	ecall
   1564e:	00814483          	lbu	s1,8(sp)
   15652:	00198513          	addi	a0,s3,1
   15656:	02700613          	li	a2,39
   1565a:	85ca                	mv	a1,s2
   1565c:	00008097          	auipc	ra,0x8
   15660:	11a080e7          	jalr	282(ra) # 1d776 <memcpy>
   15664:	4509                	li	a0,2
   15666:	00098023          	sb	zero,0(s3)
   1566a:	f6a499e3          	bne	s1,a0,155dc <_ZN20complex_dynamic_type3app17h91fb1343466ee327E+0xdc>
   1566e:	b741                	j	155ee <_ZN20complex_dynamic_type3app17h91fb1343466ee327E+0xee>

00015670 <_ZN20complex_dynamic_type3app17h94b4e2ab1fec56bbE>:
   15670:	7159                	addi	sp,sp,-112
   15672:	d686                	sw	ra,108(sp)
   15674:	d4a2                	sw	s0,104(sp)
   15676:	d2a6                	sw	s1,100(sp)
   15678:	d0ca                	sw	s2,96(sp)
   1567a:	cece                	sw	s3,92(sp)
   1567c:	89aa                	mv	s3,a0
   1567e:	4409                	li	s0,2
   15680:	00810023          	sb	s0,0(sp)
   15684:	00110493          	addi	s1,sp,1
   15688:	4679                	li	a2,30
   1568a:	8526                	mv	a0,s1
   1568c:	00008097          	auipc	ra,0x8
   15690:	0ea080e7          	jalr	234(ra) # 1d776 <memcpy>
   15694:	02010913          	addi	s2,sp,32
   15698:	03c00613          	li	a2,60
   1569c:	854a                	mv	a0,s2
   1569e:	4581                	li	a1,0
   156a0:	00008097          	auipc	ra,0x8
   156a4:	06a080e7          	jalr	106(ra) # 1d70a <memset>
   156a8:	8626                	mv	a2,s1
   156aa:	00810fa3          	sb	s0,31(sp)
   156ae:	6505                	lui	a0,0x1
   156b0:	4491                	li	s1,4
   156b2:	4589                	li	a1,2
   156b4:	b3c50793          	addi	a5,a0,-1220 # b3c <.Lline_table_start1+0x911>
   156b8:	46f9                	li	a3,30
   156ba:	4711                	li	a4,4
   156bc:	853e                	mv	a0,a5
   156be:	00000073          	ecall
   156c2:	00851863          	bne	a0,s0,156d2 <_ZN20complex_dynamic_type3app17h94b4e2ab1fec56bbE+0x62>
   156c6:	4505                	li	a0,1
   156c8:	00a98023          	sb	a0,0(s3)
   156cc:	00b9a223          	sw	a1,4(s3)
   156d0:	a0bd                	j	1573e <_ZN20complex_dynamic_type3app17h94b4e2ab1fec56bbE+0xce>
   156d2:	853e                	mv	a0,a5
   156d4:	864a                	mv	a2,s2
   156d6:	00910023          	sb	s1,0(sp)
   156da:	478d                	li	a5,3
   156dc:	458d                	li	a1,3
   156de:	03c00693          	li	a3,60
   156e2:	470d                	li	a4,3
   156e4:	00000073          	ecall
   156e8:	00851d63          	bne	a0,s0,15702 <_ZN20complex_dynamic_type3app17h94b4e2ab1fec56bbE+0x92>
   156ec:	01f14703          	lbu	a4,31(sp)
   156f0:	4505                	li	a0,1
   156f2:	4609                	li	a2,2
   156f4:	00a98023          	sb	a0,0(s3)
   156f8:	00b9a223          	sw	a1,4(s3)
   156fc:	02c71963          	bne	a4,a2,1572e <_ZN20complex_dynamic_type3app17h94b4e2ab1fec56bbE+0xbe>
   15700:	a83d                	j	1573e <_ZN20complex_dynamic_type3app17h94b4e2ab1fec56bbE+0xce>
   15702:	4681                	li	a3,0
   15704:	00f10fa3          	sb	a5,31(sp)
   15708:	6505                	lui	a0,0x1
   1570a:	4589                	li	a1,2
   1570c:	460d                	li	a2,3
   1570e:	4709                	li	a4,2
   15710:	b3c50513          	addi	a0,a0,-1220 # b3c <.Lline_table_start1+0x911>
   15714:	07f00793          	li	a5,127
   15718:	00000073          	ecall
   1571c:	4609                	li	a2,2
   1571e:	04a7e563          	bltu	a5,a0,15768 <_ZN20complex_dynamic_type3app17h94b4e2ab1fec56bbE+0xf8>
   15722:	4505                	li	a0,1
   15724:	00a98023          	sb	a0,0(s3)
   15728:	00b9a223          	sw	a1,4(s3)
   1572c:	470d                	li	a4,3
   1572e:	6505                	lui	a0,0x1
   15730:	b3c50513          	addi	a0,a0,-1220 # b3c <.Lline_table_start1+0x911>
   15734:	458d                	li	a1,3
   15736:	4601                	li	a2,0
   15738:	4681                	li	a3,0
   1573a:	00000073          	ecall
   1573e:	00014483          	lbu	s1,0(sp)
   15742:	4509                	li	a0,2
   15744:	00a48b63          	beq	s1,a0,1575a <_ZN20complex_dynamic_type3app17h94b4e2ab1fec56bbE+0xea>
   15748:	6505                	lui	a0,0x1
   1574a:	b3c50513          	addi	a0,a0,-1220 # b3c <.Lline_table_start1+0x911>
   1574e:	4589                	li	a1,2
   15750:	4601                	li	a2,0
   15752:	4681                	li	a3,0
   15754:	8726                	mv	a4,s1
   15756:	00000073          	ecall
   1575a:	50b6                	lw	ra,108(sp)
   1575c:	5426                	lw	s0,104(sp)
   1575e:	5496                	lw	s1,100(sp)
   15760:	5906                	lw	s2,96(sp)
   15762:	49f6                	lw	s3,92(sp)
   15764:	6165                	addi	sp,sp,112
   15766:	8082                	ret
   15768:	00014703          	lbu	a4,0(sp)
   1576c:	00c71463          	bne	a4,a2,15774 <_ZN20complex_dynamic_type3app17h94b4e2ab1fec56bbE+0x104>
   15770:	470d                	li	a4,3
   15772:	a825                	j	157aa <_ZN20complex_dynamic_type3app17h94b4e2ab1fec56bbE+0x13a>
   15774:	6505                	lui	a0,0x1
   15776:	b3c50513          	addi	a0,a0,-1220 # b3c <.Lline_table_start1+0x911>
   1577a:	4589                	li	a1,2
   1577c:	4601                	li	a2,0
   1577e:	4681                	li	a3,0
   15780:	00000073          	ecall
   15784:	01f14703          	lbu	a4,31(sp)
   15788:	4509                	li	a0,2
   1578a:	00a10023          	sb	a0,0(sp)
   1578e:	00a71e63          	bne	a4,a0,157aa <_ZN20complex_dynamic_type3app17h94b4e2ab1fec56bbE+0x13a>
   15792:	00198513          	addi	a0,s3,1
   15796:	03c00613          	li	a2,60
   1579a:	85ca                	mv	a1,s2
   1579c:	00008097          	auipc	ra,0x8
   157a0:	fda080e7          	jalr	-38(ra) # 1d776 <memcpy>
   157a4:	00098023          	sb	zero,0(s3)
   157a8:	bf4d                	j	1575a <_ZN20complex_dynamic_type3app17h94b4e2ab1fec56bbE+0xea>
   157aa:	6505                	lui	a0,0x1
   157ac:	b3c50513          	addi	a0,a0,-1220 # b3c <.Lline_table_start1+0x911>
   157b0:	458d                	li	a1,3
   157b2:	4601                	li	a2,0
   157b4:	4681                	li	a3,0
   157b6:	00000073          	ecall
   157ba:	00014483          	lbu	s1,0(sp)
   157be:	00198513          	addi	a0,s3,1
   157c2:	03c00613          	li	a2,60
   157c6:	85ca                	mv	a1,s2
   157c8:	00008097          	auipc	ra,0x8
   157cc:	fae080e7          	jalr	-82(ra) # 1d776 <memcpy>
   157d0:	4509                	li	a0,2
   157d2:	00098023          	sb	zero,0(s3)
   157d6:	f6a499e3          	bne	s1,a0,15748 <_ZN20complex_dynamic_type3app17h94b4e2ab1fec56bbE+0xd8>
   157da:	b741                	j	1575a <_ZN20complex_dynamic_type3app17h94b4e2ab1fec56bbE+0xea>

000157dc <_ZN20complex_dynamic_type3app17h96c9eb30e0e0da62E>:
   157dc:	7175                	addi	sp,sp,-144
   157de:	c706                	sw	ra,140(sp)
   157e0:	c522                	sw	s0,136(sp)
   157e2:	c326                	sw	s1,132(sp)
   157e4:	c14a                	sw	s2,128(sp)
   157e6:	dece                	sw	s3,124(sp)
   157e8:	89aa                	mv	s3,a0
   157ea:	4409                	li	s0,2
   157ec:	008103a3          	sb	s0,7(sp)
   157f0:	0024                	addi	s1,sp,8
   157f2:	02200613          	li	a2,34
   157f6:	8526                	mv	a0,s1
   157f8:	00008097          	auipc	ra,0x8
   157fc:	f7e080e7          	jalr	-130(ra) # 1d776 <memcpy>
   15800:	02b10913          	addi	s2,sp,43
   15804:	05100613          	li	a2,81
   15808:	854a                	mv	a0,s2
   1580a:	4581                	li	a1,0
   1580c:	00008097          	auipc	ra,0x8
   15810:	efe080e7          	jalr	-258(ra) # 1d70a <memset>
   15814:	8626                	mv	a2,s1
   15816:	02810523          	sb	s0,42(sp)
   1581a:	4791                	li	a5,4
   1581c:	55e00513          	li	a0,1374
   15820:	45a5                	li	a1,9
   15822:	02200693          	li	a3,34
   15826:	4711                	li	a4,4
   15828:	00000073          	ecall
   1582c:	00851863          	bne	a0,s0,1583c <_ZN20complex_dynamic_type3app17h96c9eb30e0e0da62E+0x60>
   15830:	4505                	li	a0,1
   15832:	00a98023          	sb	a0,0(s3)
   15836:	00b9a223          	sw	a1,4(s3)
   1583a:	a0b5                	j	158a6 <_ZN20complex_dynamic_type3app17h96c9eb30e0e0da62E+0xca>
   1583c:	864a                	mv	a2,s2
   1583e:	00f103a3          	sb	a5,7(sp)
   15842:	478d                	li	a5,3
   15844:	55e00513          	li	a0,1374
   15848:	45a5                	li	a1,9
   1584a:	05100693          	li	a3,81
   1584e:	470d                	li	a4,3
   15850:	00000073          	ecall
   15854:	00851d63          	bne	a0,s0,1586e <_ZN20complex_dynamic_type3app17h96c9eb30e0e0da62E+0x92>
   15858:	02a14703          	lbu	a4,42(sp)
   1585c:	4505                	li	a0,1
   1585e:	4609                	li	a2,2
   15860:	00a98023          	sb	a0,0(s3)
   15864:	00b9a223          	sw	a1,4(s3)
   15868:	02c71863          	bne	a4,a2,15898 <_ZN20complex_dynamic_type3app17h96c9eb30e0e0da62E+0xbc>
   1586c:	a82d                	j	158a6 <_ZN20complex_dynamic_type3app17h96c9eb30e0e0da62E+0xca>
   1586e:	4681                	li	a3,0
   15870:	02f10523          	sb	a5,42(sp)
   15874:	55e00513          	li	a0,1374
   15878:	45a5                	li	a1,9
   1587a:	4625                	li	a2,9
   1587c:	4709                	li	a4,2
   1587e:	07f00793          	li	a5,127
   15882:	00000073          	ecall
   15886:	4609                	li	a2,2
   15888:	04a7e363          	bltu	a5,a0,158ce <_ZN20complex_dynamic_type3app17h96c9eb30e0e0da62E+0xf2>
   1588c:	4505                	li	a0,1
   1588e:	00a98023          	sb	a0,0(s3)
   15892:	00b9a223          	sw	a1,4(s3)
   15896:	470d                	li	a4,3
   15898:	55e00513          	li	a0,1374
   1589c:	45a5                	li	a1,9
   1589e:	4601                	li	a2,0
   158a0:	4681                	li	a3,0
   158a2:	00000073          	ecall
   158a6:	00714483          	lbu	s1,7(sp)
   158aa:	4509                	li	a0,2
   158ac:	00a48a63          	beq	s1,a0,158c0 <_ZN20complex_dynamic_type3app17h96c9eb30e0e0da62E+0xe4>
   158b0:	55e00513          	li	a0,1374
   158b4:	45a5                	li	a1,9
   158b6:	4601                	li	a2,0
   158b8:	4681                	li	a3,0
   158ba:	8726                	mv	a4,s1
   158bc:	00000073          	ecall
   158c0:	40ba                	lw	ra,140(sp)
   158c2:	442a                	lw	s0,136(sp)
   158c4:	449a                	lw	s1,132(sp)
   158c6:	490a                	lw	s2,128(sp)
   158c8:	59f6                	lw	s3,124(sp)
   158ca:	6149                	addi	sp,sp,144
   158cc:	8082                	ret
   158ce:	00714703          	lbu	a4,7(sp)
   158d2:	00c71463          	bne	a4,a2,158da <_ZN20complex_dynamic_type3app17h96c9eb30e0e0da62E+0xfe>
   158d6:	470d                	li	a4,3
   158d8:	a81d                	j	1590e <_ZN20complex_dynamic_type3app17h96c9eb30e0e0da62E+0x132>
   158da:	55e00513          	li	a0,1374
   158de:	45a5                	li	a1,9
   158e0:	4601                	li	a2,0
   158e2:	4681                	li	a3,0
   158e4:	00000073          	ecall
   158e8:	02a14703          	lbu	a4,42(sp)
   158ec:	4509                	li	a0,2
   158ee:	00a103a3          	sb	a0,7(sp)
   158f2:	00a71e63          	bne	a4,a0,1590e <_ZN20complex_dynamic_type3app17h96c9eb30e0e0da62E+0x132>
   158f6:	00198513          	addi	a0,s3,1
   158fa:	05100613          	li	a2,81
   158fe:	85ca                	mv	a1,s2
   15900:	00008097          	auipc	ra,0x8
   15904:	e76080e7          	jalr	-394(ra) # 1d776 <memcpy>
   15908:	00098023          	sb	zero,0(s3)
   1590c:	bf55                	j	158c0 <_ZN20complex_dynamic_type3app17h96c9eb30e0e0da62E+0xe4>
   1590e:	55e00513          	li	a0,1374
   15912:	45a5                	li	a1,9
   15914:	4601                	li	a2,0
   15916:	4681                	li	a3,0
   15918:	00000073          	ecall
   1591c:	00714483          	lbu	s1,7(sp)
   15920:	00198513          	addi	a0,s3,1
   15924:	05100613          	li	a2,81
   15928:	85ca                	mv	a1,s2
   1592a:	00008097          	auipc	ra,0x8
   1592e:	e4c080e7          	jalr	-436(ra) # 1d776 <memcpy>
   15932:	4509                	li	a0,2
   15934:	00098023          	sb	zero,0(s3)
   15938:	f6a49ce3          	bne	s1,a0,158b0 <_ZN20complex_dynamic_type3app17h96c9eb30e0e0da62E+0xd4>
   1593c:	b751                	j	158c0 <_ZN20complex_dynamic_type3app17h96c9eb30e0e0da62E+0xe4>

0001593e <_ZN20complex_dynamic_type3app17h97b0869ddd161d19E>:
   1593e:	7131                	addi	sp,sp,-192
   15940:	df06                	sw	ra,188(sp)
   15942:	dd22                	sw	s0,184(sp)
   15944:	db26                	sw	s1,180(sp)
   15946:	d94a                	sw	s2,176(sp)
   15948:	d74e                	sw	s3,172(sp)
   1594a:	89aa                	mv	s3,a0
   1594c:	4409                	li	s0,2
   1594e:	00810523          	sb	s0,10(sp)
   15952:	00b10493          	addi	s1,sp,11
   15956:	05100613          	li	a2,81
   1595a:	8526                	mv	a0,s1
   1595c:	00008097          	auipc	ra,0x8
   15960:	e1a080e7          	jalr	-486(ra) # 1d776 <memcpy>
   15964:	05d10913          	addi	s2,sp,93
   15968:	04f00613          	li	a2,79
   1596c:	854a                	mv	a0,s2
   1596e:	4581                	li	a1,0
   15970:	00008097          	auipc	ra,0x8
   15974:	d9a080e7          	jalr	-614(ra) # 1d70a <memset>
   15978:	8626                	mv	a2,s1
   1597a:	04810e23          	sb	s0,92(sp)
   1597e:	6505                	lui	a0,0x1
   15980:	4491                	li	s1,4
   15982:	4589                	li	a1,2
   15984:	e1650793          	addi	a5,a0,-490 # e16 <.Lline_table_start1+0xbeb>
   15988:	05100693          	li	a3,81
   1598c:	4711                	li	a4,4
   1598e:	853e                	mv	a0,a5
   15990:	00000073          	ecall
   15994:	00851863          	bne	a0,s0,159a4 <_ZN20complex_dynamic_type3app17h97b0869ddd161d19E+0x66>
   15998:	4505                	li	a0,1
   1599a:	00a98023          	sb	a0,0(s3)
   1599e:	00b9a223          	sw	a1,4(s3)
   159a2:	a0bd                	j	15a10 <_ZN20complex_dynamic_type3app17h97b0869ddd161d19E+0xd2>
   159a4:	853e                	mv	a0,a5
   159a6:	864a                	mv	a2,s2
   159a8:	00910523          	sb	s1,10(sp)
   159ac:	478d                	li	a5,3
   159ae:	4591                	li	a1,4
   159b0:	04f00693          	li	a3,79
   159b4:	470d                	li	a4,3
   159b6:	00000073          	ecall
   159ba:	00851d63          	bne	a0,s0,159d4 <_ZN20complex_dynamic_type3app17h97b0869ddd161d19E+0x96>
   159be:	05c14703          	lbu	a4,92(sp)
   159c2:	4505                	li	a0,1
   159c4:	4609                	li	a2,2
   159c6:	00a98023          	sb	a0,0(s3)
   159ca:	00b9a223          	sw	a1,4(s3)
   159ce:	02c71963          	bne	a4,a2,15a00 <_ZN20complex_dynamic_type3app17h97b0869ddd161d19E+0xc2>
   159d2:	a83d                	j	15a10 <_ZN20complex_dynamic_type3app17h97b0869ddd161d19E+0xd2>
   159d4:	4681                	li	a3,0
   159d6:	04f10e23          	sb	a5,92(sp)
   159da:	6505                	lui	a0,0x1
   159dc:	4589                	li	a1,2
   159de:	4611                	li	a2,4
   159e0:	4709                	li	a4,2
   159e2:	e1650513          	addi	a0,a0,-490 # e16 <.Lline_table_start1+0xbeb>
   159e6:	07f00793          	li	a5,127
   159ea:	00000073          	ecall
   159ee:	4609                	li	a2,2
   159f0:	04a7e563          	bltu	a5,a0,15a3a <_ZN20complex_dynamic_type3app17h97b0869ddd161d19E+0xfc>
   159f4:	4505                	li	a0,1
   159f6:	00a98023          	sb	a0,0(s3)
   159fa:	00b9a223          	sw	a1,4(s3)
   159fe:	470d                	li	a4,3
   15a00:	6505                	lui	a0,0x1
   15a02:	e1650513          	addi	a0,a0,-490 # e16 <.Lline_table_start1+0xbeb>
   15a06:	4591                	li	a1,4
   15a08:	4601                	li	a2,0
   15a0a:	4681                	li	a3,0
   15a0c:	00000073          	ecall
   15a10:	00a14483          	lbu	s1,10(sp)
   15a14:	4509                	li	a0,2
   15a16:	00a48b63          	beq	s1,a0,15a2c <_ZN20complex_dynamic_type3app17h97b0869ddd161d19E+0xee>
   15a1a:	6505                	lui	a0,0x1
   15a1c:	e1650513          	addi	a0,a0,-490 # e16 <.Lline_table_start1+0xbeb>
   15a20:	4589                	li	a1,2
   15a22:	4601                	li	a2,0
   15a24:	4681                	li	a3,0
   15a26:	8726                	mv	a4,s1
   15a28:	00000073          	ecall
   15a2c:	50fa                	lw	ra,188(sp)
   15a2e:	546a                	lw	s0,184(sp)
   15a30:	54da                	lw	s1,180(sp)
   15a32:	594a                	lw	s2,176(sp)
   15a34:	59ba                	lw	s3,172(sp)
   15a36:	6129                	addi	sp,sp,192
   15a38:	8082                	ret
   15a3a:	00a14703          	lbu	a4,10(sp)
   15a3e:	00c71463          	bne	a4,a2,15a46 <_ZN20complex_dynamic_type3app17h97b0869ddd161d19E+0x108>
   15a42:	470d                	li	a4,3
   15a44:	a825                	j	15a7c <_ZN20complex_dynamic_type3app17h97b0869ddd161d19E+0x13e>
   15a46:	6505                	lui	a0,0x1
   15a48:	e1650513          	addi	a0,a0,-490 # e16 <.Lline_table_start1+0xbeb>
   15a4c:	4589                	li	a1,2
   15a4e:	4601                	li	a2,0
   15a50:	4681                	li	a3,0
   15a52:	00000073          	ecall
   15a56:	05c14703          	lbu	a4,92(sp)
   15a5a:	4509                	li	a0,2
   15a5c:	00a10523          	sb	a0,10(sp)
   15a60:	00a71e63          	bne	a4,a0,15a7c <_ZN20complex_dynamic_type3app17h97b0869ddd161d19E+0x13e>
   15a64:	00198513          	addi	a0,s3,1
   15a68:	04f00613          	li	a2,79
   15a6c:	85ca                	mv	a1,s2
   15a6e:	00008097          	auipc	ra,0x8
   15a72:	d08080e7          	jalr	-760(ra) # 1d776 <memcpy>
   15a76:	00098023          	sb	zero,0(s3)
   15a7a:	bf4d                	j	15a2c <_ZN20complex_dynamic_type3app17h97b0869ddd161d19E+0xee>
   15a7c:	6505                	lui	a0,0x1
   15a7e:	e1650513          	addi	a0,a0,-490 # e16 <.Lline_table_start1+0xbeb>
   15a82:	4591                	li	a1,4
   15a84:	4601                	li	a2,0
   15a86:	4681                	li	a3,0
   15a88:	00000073          	ecall
   15a8c:	00a14483          	lbu	s1,10(sp)
   15a90:	00198513          	addi	a0,s3,1
   15a94:	04f00613          	li	a2,79
   15a98:	85ca                	mv	a1,s2
   15a9a:	00008097          	auipc	ra,0x8
   15a9e:	cdc080e7          	jalr	-804(ra) # 1d776 <memcpy>
   15aa2:	4509                	li	a0,2
   15aa4:	00098023          	sb	zero,0(s3)
   15aa8:	f6a499e3          	bne	s1,a0,15a1a <_ZN20complex_dynamic_type3app17h97b0869ddd161d19E+0xdc>
   15aac:	b741                	j	15a2c <_ZN20complex_dynamic_type3app17h97b0869ddd161d19E+0xee>

00015aae <_ZN20complex_dynamic_type3app17h9b7400620d8baa10E>:
   15aae:	7159                	addi	sp,sp,-112
   15ab0:	d686                	sw	ra,108(sp)
   15ab2:	d4a2                	sw	s0,104(sp)
   15ab4:	d2a6                	sw	s1,100(sp)
   15ab6:	d0ca                	sw	s2,96(sp)
   15ab8:	cece                	sw	s3,92(sp)
   15aba:	89aa                	mv	s3,a0
   15abc:	4409                	li	s0,2
   15abe:	00810223          	sb	s0,4(sp)
   15ac2:	00510493          	addi	s1,sp,5
   15ac6:	02c00613          	li	a2,44
   15aca:	8526                	mv	a0,s1
   15acc:	00008097          	auipc	ra,0x8
   15ad0:	caa080e7          	jalr	-854(ra) # 1d776 <memcpy>
   15ad4:	03210913          	addi	s2,sp,50
   15ad8:	02a00613          	li	a2,42
   15adc:	854a                	mv	a0,s2
   15ade:	4581                	li	a1,0
   15ae0:	00008097          	auipc	ra,0x8
   15ae4:	c2a080e7          	jalr	-982(ra) # 1d70a <memset>
   15ae8:	8626                	mv	a2,s1
   15aea:	028108a3          	sb	s0,49(sp)
   15aee:	6509                	lui	a0,0x2
   15af0:	4491                	li	s1,4
   15af2:	458d                	li	a1,3
   15af4:	4f050793          	addi	a5,a0,1264 # 24f0 <.Lline_table_start1+0x22c5>
   15af8:	02c00693          	li	a3,44
   15afc:	4711                	li	a4,4
   15afe:	853e                	mv	a0,a5
   15b00:	00000073          	ecall
   15b04:	00851863          	bne	a0,s0,15b14 <_ZN20complex_dynamic_type3app17h9b7400620d8baa10E+0x66>
   15b08:	4505                	li	a0,1
   15b0a:	00a98023          	sb	a0,0(s3)
   15b0e:	00b9a223          	sw	a1,4(s3)
   15b12:	a0bd                	j	15b80 <_ZN20complex_dynamic_type3app17h9b7400620d8baa10E+0xd2>
   15b14:	853e                	mv	a0,a5
   15b16:	4581                	li	a1,0
   15b18:	864a                	mv	a2,s2
   15b1a:	00910223          	sb	s1,4(sp)
   15b1e:	478d                	li	a5,3
   15b20:	02a00693          	li	a3,42
   15b24:	470d                	li	a4,3
   15b26:	00000073          	ecall
   15b2a:	00851d63          	bne	a0,s0,15b44 <_ZN20complex_dynamic_type3app17h9b7400620d8baa10E+0x96>
   15b2e:	03114703          	lbu	a4,49(sp)
   15b32:	4505                	li	a0,1
   15b34:	4609                	li	a2,2
   15b36:	00a98023          	sb	a0,0(s3)
   15b3a:	00b9a223          	sw	a1,4(s3)
   15b3e:	02c71963          	bne	a4,a2,15b70 <_ZN20complex_dynamic_type3app17h9b7400620d8baa10E+0xc2>
   15b42:	a83d                	j	15b80 <_ZN20complex_dynamic_type3app17h9b7400620d8baa10E+0xd2>
   15b44:	4601                	li	a2,0
   15b46:	4681                	li	a3,0
   15b48:	02f108a3          	sb	a5,49(sp)
   15b4c:	6509                	lui	a0,0x2
   15b4e:	458d                	li	a1,3
   15b50:	4709                	li	a4,2
   15b52:	4f050513          	addi	a0,a0,1264 # 24f0 <.Lline_table_start1+0x22c5>
   15b56:	07f00793          	li	a5,127
   15b5a:	00000073          	ecall
   15b5e:	4609                	li	a2,2
   15b60:	04a7e563          	bltu	a5,a0,15baa <_ZN20complex_dynamic_type3app17h9b7400620d8baa10E+0xfc>
   15b64:	4505                	li	a0,1
   15b66:	00a98023          	sb	a0,0(s3)
   15b6a:	00b9a223          	sw	a1,4(s3)
   15b6e:	470d                	li	a4,3
   15b70:	6509                	lui	a0,0x2
   15b72:	4f050513          	addi	a0,a0,1264 # 24f0 <.Lline_table_start1+0x22c5>
   15b76:	4581                	li	a1,0
   15b78:	4601                	li	a2,0
   15b7a:	4681                	li	a3,0
   15b7c:	00000073          	ecall
   15b80:	00414483          	lbu	s1,4(sp)
   15b84:	4509                	li	a0,2
   15b86:	00a48b63          	beq	s1,a0,15b9c <_ZN20complex_dynamic_type3app17h9b7400620d8baa10E+0xee>
   15b8a:	6509                	lui	a0,0x2
   15b8c:	4f050513          	addi	a0,a0,1264 # 24f0 <.Lline_table_start1+0x22c5>
   15b90:	458d                	li	a1,3
   15b92:	4601                	li	a2,0
   15b94:	4681                	li	a3,0
   15b96:	8726                	mv	a4,s1
   15b98:	00000073          	ecall
   15b9c:	50b6                	lw	ra,108(sp)
   15b9e:	5426                	lw	s0,104(sp)
   15ba0:	5496                	lw	s1,100(sp)
   15ba2:	5906                	lw	s2,96(sp)
   15ba4:	49f6                	lw	s3,92(sp)
   15ba6:	6165                	addi	sp,sp,112
   15ba8:	8082                	ret
   15baa:	00414703          	lbu	a4,4(sp)
   15bae:	00c71463          	bne	a4,a2,15bb6 <_ZN20complex_dynamic_type3app17h9b7400620d8baa10E+0x108>
   15bb2:	470d                	li	a4,3
   15bb4:	a825                	j	15bec <_ZN20complex_dynamic_type3app17h9b7400620d8baa10E+0x13e>
   15bb6:	6509                	lui	a0,0x2
   15bb8:	4f050513          	addi	a0,a0,1264 # 24f0 <.Lline_table_start1+0x22c5>
   15bbc:	458d                	li	a1,3
   15bbe:	4601                	li	a2,0
   15bc0:	4681                	li	a3,0
   15bc2:	00000073          	ecall
   15bc6:	03114703          	lbu	a4,49(sp)
   15bca:	4509                	li	a0,2
   15bcc:	00a10223          	sb	a0,4(sp)
   15bd0:	00a71e63          	bne	a4,a0,15bec <_ZN20complex_dynamic_type3app17h9b7400620d8baa10E+0x13e>
   15bd4:	00198513          	addi	a0,s3,1
   15bd8:	02a00613          	li	a2,42
   15bdc:	85ca                	mv	a1,s2
   15bde:	00008097          	auipc	ra,0x8
   15be2:	b98080e7          	jalr	-1128(ra) # 1d776 <memcpy>
   15be6:	00098023          	sb	zero,0(s3)
   15bea:	bf4d                	j	15b9c <_ZN20complex_dynamic_type3app17h9b7400620d8baa10E+0xee>
   15bec:	6509                	lui	a0,0x2
   15bee:	4f050513          	addi	a0,a0,1264 # 24f0 <.Lline_table_start1+0x22c5>
   15bf2:	4581                	li	a1,0
   15bf4:	4601                	li	a2,0
   15bf6:	4681                	li	a3,0
   15bf8:	00000073          	ecall
   15bfc:	00414483          	lbu	s1,4(sp)
   15c00:	00198513          	addi	a0,s3,1
   15c04:	02a00613          	li	a2,42
   15c08:	85ca                	mv	a1,s2
   15c0a:	00008097          	auipc	ra,0x8
   15c0e:	b6c080e7          	jalr	-1172(ra) # 1d776 <memcpy>
   15c12:	4509                	li	a0,2
   15c14:	00098023          	sb	zero,0(s3)
   15c18:	f6a499e3          	bne	s1,a0,15b8a <_ZN20complex_dynamic_type3app17h9b7400620d8baa10E+0xdc>
   15c1c:	b741                	j	15b9c <_ZN20complex_dynamic_type3app17h9b7400620d8baa10E+0xee>

00015c1e <_ZN20complex_dynamic_type3app17h9fe0a83faebe0245E>:
   15c1e:	7119                	addi	sp,sp,-128
   15c20:	de86                	sw	ra,124(sp)
   15c22:	dca2                	sw	s0,120(sp)
   15c24:	daa6                	sw	s1,116(sp)
   15c26:	d8ca                	sw	s2,112(sp)
   15c28:	d6ce                	sw	s3,108(sp)
   15c2a:	89aa                	mv	s3,a0
   15c2c:	4409                	li	s0,2
   15c2e:	008103a3          	sb	s0,7(sp)
   15c32:	0024                	addi	s1,sp,8
   15c34:	04100613          	li	a2,65
   15c38:	8526                	mv	a0,s1
   15c3a:	00008097          	auipc	ra,0x8
   15c3e:	b3c080e7          	jalr	-1220(ra) # 1d776 <memcpy>
   15c42:	04a10913          	addi	s2,sp,74
   15c46:	02200613          	li	a2,34
   15c4a:	854a                	mv	a0,s2
   15c4c:	4581                	li	a1,0
   15c4e:	00008097          	auipc	ra,0x8
   15c52:	abc080e7          	jalr	-1348(ra) # 1d70a <memset>
   15c56:	8626                	mv	a2,s1
   15c58:	048104a3          	sb	s0,73(sp)
   15c5c:	6509                	lui	a0,0x2
   15c5e:	4485                	li	s1,1
   15c60:	4811                	li	a6,4
   15c62:	4585                	li	a1,1
   15c64:	47c50793          	addi	a5,a0,1148 # 247c <.Lline_table_start1+0x2251>
   15c68:	04100693          	li	a3,65
   15c6c:	4711                	li	a4,4
   15c6e:	853e                	mv	a0,a5
   15c70:	00000073          	ecall
   15c74:	00851763          	bne	a0,s0,15c82 <_ZN20complex_dynamic_type3app17h9fe0a83faebe0245E+0x64>
   15c78:	00998023          	sb	s1,0(s3)
   15c7c:	00b9a223          	sw	a1,4(s3)
   15c80:	a0bd                	j	15cee <_ZN20complex_dynamic_type3app17h9fe0a83faebe0245E+0xd0>
   15c82:	853e                	mv	a0,a5
   15c84:	4581                	li	a1,0
   15c86:	864a                	mv	a2,s2
   15c88:	010103a3          	sb	a6,7(sp)
   15c8c:	478d                	li	a5,3
   15c8e:	02200693          	li	a3,34
   15c92:	470d                	li	a4,3
   15c94:	00000073          	ecall
   15c98:	00851d63          	bne	a0,s0,15cb2 <_ZN20complex_dynamic_type3app17h9fe0a83faebe0245E+0x94>
   15c9c:	04914703          	lbu	a4,73(sp)
   15ca0:	4505                	li	a0,1
   15ca2:	4609                	li	a2,2
   15ca4:	00a98023          	sb	a0,0(s3)
   15ca8:	00b9a223          	sw	a1,4(s3)
   15cac:	02c71963          	bne	a4,a2,15cde <_ZN20complex_dynamic_type3app17h9fe0a83faebe0245E+0xc0>
   15cb0:	a83d                	j	15cee <_ZN20complex_dynamic_type3app17h9fe0a83faebe0245E+0xd0>
   15cb2:	4601                	li	a2,0
   15cb4:	4681                	li	a3,0
   15cb6:	04f104a3          	sb	a5,73(sp)
   15cba:	6509                	lui	a0,0x2
   15cbc:	4785                	li	a5,1
   15cbe:	4585                	li	a1,1
   15cc0:	4709                	li	a4,2
   15cc2:	47c50513          	addi	a0,a0,1148 # 247c <.Lline_table_start1+0x2251>
   15cc6:	07f00493          	li	s1,127
   15cca:	00000073          	ecall
   15cce:	4609                	li	a2,2
   15cd0:	04a4e463          	bltu	s1,a0,15d18 <_ZN20complex_dynamic_type3app17h9fe0a83faebe0245E+0xfa>
   15cd4:	00f98023          	sb	a5,0(s3)
   15cd8:	00b9a223          	sw	a1,4(s3)
   15cdc:	470d                	li	a4,3
   15cde:	6509                	lui	a0,0x2
   15ce0:	47c50513          	addi	a0,a0,1148 # 247c <.Lline_table_start1+0x2251>
   15ce4:	4581                	li	a1,0
   15ce6:	4601                	li	a2,0
   15ce8:	4681                	li	a3,0
   15cea:	00000073          	ecall
   15cee:	00714483          	lbu	s1,7(sp)
   15cf2:	4509                	li	a0,2
   15cf4:	00a48b63          	beq	s1,a0,15d0a <_ZN20complex_dynamic_type3app17h9fe0a83faebe0245E+0xec>
   15cf8:	6509                	lui	a0,0x2
   15cfa:	47c50513          	addi	a0,a0,1148 # 247c <.Lline_table_start1+0x2251>
   15cfe:	4585                	li	a1,1
   15d00:	4601                	li	a2,0
   15d02:	4681                	li	a3,0
   15d04:	8726                	mv	a4,s1
   15d06:	00000073          	ecall
   15d0a:	50f6                	lw	ra,124(sp)
   15d0c:	5466                	lw	s0,120(sp)
   15d0e:	54d6                	lw	s1,116(sp)
   15d10:	5946                	lw	s2,112(sp)
   15d12:	59b6                	lw	s3,108(sp)
   15d14:	6109                	addi	sp,sp,128
   15d16:	8082                	ret
   15d18:	00714703          	lbu	a4,7(sp)
   15d1c:	00c71463          	bne	a4,a2,15d24 <_ZN20complex_dynamic_type3app17h9fe0a83faebe0245E+0x106>
   15d20:	470d                	li	a4,3
   15d22:	a825                	j	15d5a <_ZN20complex_dynamic_type3app17h9fe0a83faebe0245E+0x13c>
   15d24:	6509                	lui	a0,0x2
   15d26:	47c50513          	addi	a0,a0,1148 # 247c <.Lline_table_start1+0x2251>
   15d2a:	4585                	li	a1,1
   15d2c:	4601                	li	a2,0
   15d2e:	4681                	li	a3,0
   15d30:	00000073          	ecall
   15d34:	04914703          	lbu	a4,73(sp)
   15d38:	4509                	li	a0,2
   15d3a:	00a103a3          	sb	a0,7(sp)
   15d3e:	00a71e63          	bne	a4,a0,15d5a <_ZN20complex_dynamic_type3app17h9fe0a83faebe0245E+0x13c>
   15d42:	00198513          	addi	a0,s3,1
   15d46:	02200613          	li	a2,34
   15d4a:	85ca                	mv	a1,s2
   15d4c:	00008097          	auipc	ra,0x8
   15d50:	a2a080e7          	jalr	-1494(ra) # 1d776 <memcpy>
   15d54:	00098023          	sb	zero,0(s3)
   15d58:	bf4d                	j	15d0a <_ZN20complex_dynamic_type3app17h9fe0a83faebe0245E+0xec>
   15d5a:	6509                	lui	a0,0x2
   15d5c:	47c50513          	addi	a0,a0,1148 # 247c <.Lline_table_start1+0x2251>
   15d60:	4581                	li	a1,0
   15d62:	4601                	li	a2,0
   15d64:	4681                	li	a3,0
   15d66:	00000073          	ecall
   15d6a:	00714483          	lbu	s1,7(sp)
   15d6e:	00198513          	addi	a0,s3,1
   15d72:	02200613          	li	a2,34
   15d76:	85ca                	mv	a1,s2
   15d78:	00008097          	auipc	ra,0x8
   15d7c:	9fe080e7          	jalr	-1538(ra) # 1d776 <memcpy>
   15d80:	4509                	li	a0,2
   15d82:	00098023          	sb	zero,0(s3)
   15d86:	f6a499e3          	bne	s1,a0,15cf8 <_ZN20complex_dynamic_type3app17h9fe0a83faebe0245E+0xda>
   15d8a:	b741                	j	15d0a <_ZN20complex_dynamic_type3app17h9fe0a83faebe0245E+0xec>

00015d8c <_ZN20complex_dynamic_type3app17ha2b219ace2820c85E>:
   15d8c:	711d                	addi	sp,sp,-96
   15d8e:	ce86                	sw	ra,92(sp)
   15d90:	cca2                	sw	s0,88(sp)
   15d92:	caa6                	sw	s1,84(sp)
   15d94:	c8ca                	sw	s2,80(sp)
   15d96:	c6ce                	sw	s3,76(sp)
   15d98:	89aa                	mv	s3,a0
   15d9a:	4409                	li	s0,2
   15d9c:	00810023          	sb	s0,0(sp)
   15da0:	00110493          	addi	s1,sp,1
   15da4:	4679                	li	a2,30
   15da6:	8526                	mv	a0,s1
   15da8:	00008097          	auipc	ra,0x8
   15dac:	9ce080e7          	jalr	-1586(ra) # 1d776 <memcpy>
   15db0:	02010913          	addi	s2,sp,32
   15db4:	02c00613          	li	a2,44
   15db8:	854a                	mv	a0,s2
   15dba:	4581                	li	a1,0
   15dbc:	00008097          	auipc	ra,0x8
   15dc0:	94e080e7          	jalr	-1714(ra) # 1d70a <memset>
   15dc4:	8626                	mv	a2,s1
   15dc6:	00810fa3          	sb	s0,31(sp)
   15dca:	4791                	li	a5,4
   15dcc:	3fb00513          	li	a0,1019
   15dd0:	459d                	li	a1,7
   15dd2:	46f9                	li	a3,30
   15dd4:	4711                	li	a4,4
   15dd6:	00000073          	ecall
   15dda:	00851863          	bne	a0,s0,15dea <_ZN20complex_dynamic_type3app17ha2b219ace2820c85E+0x5e>
   15dde:	4505                	li	a0,1
   15de0:	00a98023          	sb	a0,0(s3)
   15de4:	00b9a223          	sw	a1,4(s3)
   15de8:	a0b5                	j	15e54 <_ZN20complex_dynamic_type3app17ha2b219ace2820c85E+0xc8>
   15dea:	4581                	li	a1,0
   15dec:	864a                	mv	a2,s2
   15dee:	00f10023          	sb	a5,0(sp)
   15df2:	478d                	li	a5,3
   15df4:	3fb00513          	li	a0,1019
   15df8:	02c00693          	li	a3,44
   15dfc:	470d                	li	a4,3
   15dfe:	00000073          	ecall
   15e02:	00851d63          	bne	a0,s0,15e1c <_ZN20complex_dynamic_type3app17ha2b219ace2820c85E+0x90>
   15e06:	01f14703          	lbu	a4,31(sp)
   15e0a:	4505                	li	a0,1
   15e0c:	4609                	li	a2,2
   15e0e:	00a98023          	sb	a0,0(s3)
   15e12:	00b9a223          	sw	a1,4(s3)
   15e16:	02c71863          	bne	a4,a2,15e46 <_ZN20complex_dynamic_type3app17ha2b219ace2820c85E+0xba>
   15e1a:	a82d                	j	15e54 <_ZN20complex_dynamic_type3app17ha2b219ace2820c85E+0xc8>
   15e1c:	4601                	li	a2,0
   15e1e:	4681                	li	a3,0
   15e20:	00f10fa3          	sb	a5,31(sp)
   15e24:	3fb00513          	li	a0,1019
   15e28:	459d                	li	a1,7
   15e2a:	4709                	li	a4,2
   15e2c:	07f00793          	li	a5,127
   15e30:	00000073          	ecall
   15e34:	4609                	li	a2,2
   15e36:	04a7e363          	bltu	a5,a0,15e7c <_ZN20complex_dynamic_type3app17ha2b219ace2820c85E+0xf0>
   15e3a:	4505                	li	a0,1
   15e3c:	00a98023          	sb	a0,0(s3)
   15e40:	00b9a223          	sw	a1,4(s3)
   15e44:	470d                	li	a4,3
   15e46:	3fb00513          	li	a0,1019
   15e4a:	4581                	li	a1,0
   15e4c:	4601                	li	a2,0
   15e4e:	4681                	li	a3,0
   15e50:	00000073          	ecall
   15e54:	00014483          	lbu	s1,0(sp)
   15e58:	4509                	li	a0,2
   15e5a:	00a48a63          	beq	s1,a0,15e6e <_ZN20complex_dynamic_type3app17ha2b219ace2820c85E+0xe2>
   15e5e:	3fb00513          	li	a0,1019
   15e62:	459d                	li	a1,7
   15e64:	4601                	li	a2,0
   15e66:	4681                	li	a3,0
   15e68:	8726                	mv	a4,s1
   15e6a:	00000073          	ecall
   15e6e:	40f6                	lw	ra,92(sp)
   15e70:	4466                	lw	s0,88(sp)
   15e72:	44d6                	lw	s1,84(sp)
   15e74:	4946                	lw	s2,80(sp)
   15e76:	49b6                	lw	s3,76(sp)
   15e78:	6125                	addi	sp,sp,96
   15e7a:	8082                	ret
   15e7c:	00014703          	lbu	a4,0(sp)
   15e80:	00c71463          	bne	a4,a2,15e88 <_ZN20complex_dynamic_type3app17ha2b219ace2820c85E+0xfc>
   15e84:	470d                	li	a4,3
   15e86:	a81d                	j	15ebc <_ZN20complex_dynamic_type3app17ha2b219ace2820c85E+0x130>
   15e88:	3fb00513          	li	a0,1019
   15e8c:	459d                	li	a1,7
   15e8e:	4601                	li	a2,0
   15e90:	4681                	li	a3,0
   15e92:	00000073          	ecall
   15e96:	01f14703          	lbu	a4,31(sp)
   15e9a:	4509                	li	a0,2
   15e9c:	00a10023          	sb	a0,0(sp)
   15ea0:	00a71e63          	bne	a4,a0,15ebc <_ZN20complex_dynamic_type3app17ha2b219ace2820c85E+0x130>
   15ea4:	00198513          	addi	a0,s3,1
   15ea8:	02c00613          	li	a2,44
   15eac:	85ca                	mv	a1,s2
   15eae:	00008097          	auipc	ra,0x8
   15eb2:	8c8080e7          	jalr	-1848(ra) # 1d776 <memcpy>
   15eb6:	00098023          	sb	zero,0(s3)
   15eba:	bf55                	j	15e6e <_ZN20complex_dynamic_type3app17ha2b219ace2820c85E+0xe2>
   15ebc:	3fb00513          	li	a0,1019
   15ec0:	4581                	li	a1,0
   15ec2:	4601                	li	a2,0
   15ec4:	4681                	li	a3,0
   15ec6:	00000073          	ecall
   15eca:	00014483          	lbu	s1,0(sp)
   15ece:	00198513          	addi	a0,s3,1
   15ed2:	02c00613          	li	a2,44
   15ed6:	85ca                	mv	a1,s2
   15ed8:	00008097          	auipc	ra,0x8
   15edc:	89e080e7          	jalr	-1890(ra) # 1d776 <memcpy>
   15ee0:	4509                	li	a0,2
   15ee2:	00098023          	sb	zero,0(s3)
   15ee6:	f6a49ce3          	bne	s1,a0,15e5e <_ZN20complex_dynamic_type3app17ha2b219ace2820c85E+0xd2>
   15eea:	b751                	j	15e6e <_ZN20complex_dynamic_type3app17ha2b219ace2820c85E+0xe2>

00015eec <_ZN20complex_dynamic_type3app17ha33a30f9daa6f7f3E>:
   15eec:	7175                	addi	sp,sp,-144
   15eee:	c706                	sw	ra,140(sp)
   15ef0:	c522                	sw	s0,136(sp)
   15ef2:	c326                	sw	s1,132(sp)
   15ef4:	c14a                	sw	s2,128(sp)
   15ef6:	dece                	sw	s3,124(sp)
   15ef8:	89aa                	mv	s3,a0
   15efa:	4409                	li	s0,2
   15efc:	00810723          	sb	s0,14(sp)
   15f00:	00f10493          	addi	s1,sp,15
   15f04:	04900613          	li	a2,73
   15f08:	8526                	mv	a0,s1
   15f0a:	00008097          	auipc	ra,0x8
   15f0e:	86c080e7          	jalr	-1940(ra) # 1d776 <memcpy>
   15f12:	05910913          	addi	s2,sp,89
   15f16:	02300613          	li	a2,35
   15f1a:	854a                	mv	a0,s2
   15f1c:	4581                	li	a1,0
   15f1e:	00007097          	auipc	ra,0x7
   15f22:	7ec080e7          	jalr	2028(ra) # 1d70a <memset>
   15f26:	8626                	mv	a2,s1
   15f28:	04810c23          	sb	s0,88(sp)
   15f2c:	6505                	lui	a0,0x1
   15f2e:	4491                	li	s1,4
   15f30:	459d                	li	a1,7
   15f32:	55150793          	addi	a5,a0,1361 # 1551 <.Lline_table_start1+0x1326>
   15f36:	04900693          	li	a3,73
   15f3a:	4711                	li	a4,4
   15f3c:	853e                	mv	a0,a5
   15f3e:	00000073          	ecall
   15f42:	00851863          	bne	a0,s0,15f52 <_ZN20complex_dynamic_type3app17ha33a30f9daa6f7f3E+0x66>
   15f46:	4505                	li	a0,1
   15f48:	00a98023          	sb	a0,0(s3)
   15f4c:	00b9a223          	sw	a1,4(s3)
   15f50:	a0bd                	j	15fbe <_ZN20complex_dynamic_type3app17ha33a30f9daa6f7f3E+0xd2>
   15f52:	853e                	mv	a0,a5
   15f54:	864a                	mv	a2,s2
   15f56:	00910723          	sb	s1,14(sp)
   15f5a:	4785                	li	a5,1
   15f5c:	448d                	li	s1,3
   15f5e:	4585                	li	a1,1
   15f60:	02300693          	li	a3,35
   15f64:	470d                	li	a4,3
   15f66:	00000073          	ecall
   15f6a:	00851c63          	bne	a0,s0,15f82 <_ZN20complex_dynamic_type3app17ha33a30f9daa6f7f3E+0x96>
   15f6e:	05814703          	lbu	a4,88(sp)
   15f72:	4509                	li	a0,2
   15f74:	00f98023          	sb	a5,0(s3)
   15f78:	00b9a223          	sw	a1,4(s3)
   15f7c:	02a71963          	bne	a4,a0,15fae <_ZN20complex_dynamic_type3app17ha33a30f9daa6f7f3E+0xc2>
   15f80:	a83d                	j	15fbe <_ZN20complex_dynamic_type3app17ha33a30f9daa6f7f3E+0xd2>
   15f82:	4681                	li	a3,0
   15f84:	04910c23          	sb	s1,88(sp)
   15f88:	6505                	lui	a0,0x1
   15f8a:	4785                	li	a5,1
   15f8c:	459d                	li	a1,7
   15f8e:	4605                	li	a2,1
   15f90:	4709                	li	a4,2
   15f92:	55150513          	addi	a0,a0,1361 # 1551 <.Lline_table_start1+0x1326>
   15f96:	07f00493          	li	s1,127
   15f9a:	00000073          	ecall
   15f9e:	4609                	li	a2,2
   15fa0:	04a4e463          	bltu	s1,a0,15fe8 <_ZN20complex_dynamic_type3app17ha33a30f9daa6f7f3E+0xfc>
   15fa4:	00f98023          	sb	a5,0(s3)
   15fa8:	00b9a223          	sw	a1,4(s3)
   15fac:	470d                	li	a4,3
   15fae:	6505                	lui	a0,0x1
   15fb0:	55150513          	addi	a0,a0,1361 # 1551 <.Lline_table_start1+0x1326>
   15fb4:	4585                	li	a1,1
   15fb6:	4601                	li	a2,0
   15fb8:	4681                	li	a3,0
   15fba:	00000073          	ecall
   15fbe:	00e14483          	lbu	s1,14(sp)
   15fc2:	4509                	li	a0,2
   15fc4:	00a48b63          	beq	s1,a0,15fda <_ZN20complex_dynamic_type3app17ha33a30f9daa6f7f3E+0xee>
   15fc8:	6505                	lui	a0,0x1
   15fca:	55150513          	addi	a0,a0,1361 # 1551 <.Lline_table_start1+0x1326>
   15fce:	459d                	li	a1,7
   15fd0:	4601                	li	a2,0
   15fd2:	4681                	li	a3,0
   15fd4:	8726                	mv	a4,s1
   15fd6:	00000073          	ecall
   15fda:	40ba                	lw	ra,140(sp)
   15fdc:	442a                	lw	s0,136(sp)
   15fde:	449a                	lw	s1,132(sp)
   15fe0:	490a                	lw	s2,128(sp)
   15fe2:	59f6                	lw	s3,124(sp)
   15fe4:	6149                	addi	sp,sp,144
   15fe6:	8082                	ret
   15fe8:	00e14703          	lbu	a4,14(sp)
   15fec:	00c71463          	bne	a4,a2,15ff4 <_ZN20complex_dynamic_type3app17ha33a30f9daa6f7f3E+0x108>
   15ff0:	470d                	li	a4,3
   15ff2:	a825                	j	1602a <_ZN20complex_dynamic_type3app17ha33a30f9daa6f7f3E+0x13e>
   15ff4:	6505                	lui	a0,0x1
   15ff6:	55150513          	addi	a0,a0,1361 # 1551 <.Lline_table_start1+0x1326>
   15ffa:	459d                	li	a1,7
   15ffc:	4601                	li	a2,0
   15ffe:	4681                	li	a3,0
   16000:	00000073          	ecall
   16004:	05814703          	lbu	a4,88(sp)
   16008:	4509                	li	a0,2
   1600a:	00a10723          	sb	a0,14(sp)
   1600e:	00a71e63          	bne	a4,a0,1602a <_ZN20complex_dynamic_type3app17ha33a30f9daa6f7f3E+0x13e>
   16012:	00198513          	addi	a0,s3,1
   16016:	02300613          	li	a2,35
   1601a:	85ca                	mv	a1,s2
   1601c:	00007097          	auipc	ra,0x7
   16020:	75a080e7          	jalr	1882(ra) # 1d776 <memcpy>
   16024:	00098023          	sb	zero,0(s3)
   16028:	bf4d                	j	15fda <_ZN20complex_dynamic_type3app17ha33a30f9daa6f7f3E+0xee>
   1602a:	6505                	lui	a0,0x1
   1602c:	55150513          	addi	a0,a0,1361 # 1551 <.Lline_table_start1+0x1326>
   16030:	4585                	li	a1,1
   16032:	4601                	li	a2,0
   16034:	4681                	li	a3,0
   16036:	00000073          	ecall
   1603a:	00e14483          	lbu	s1,14(sp)
   1603e:	00198513          	addi	a0,s3,1
   16042:	02300613          	li	a2,35
   16046:	85ca                	mv	a1,s2
   16048:	00007097          	auipc	ra,0x7
   1604c:	72e080e7          	jalr	1838(ra) # 1d776 <memcpy>
   16050:	4509                	li	a0,2
   16052:	00098023          	sb	zero,0(s3)
   16056:	f6a499e3          	bne	s1,a0,15fc8 <_ZN20complex_dynamic_type3app17ha33a30f9daa6f7f3E+0xdc>
   1605a:	b741                	j	15fda <_ZN20complex_dynamic_type3app17ha33a30f9daa6f7f3E+0xee>

0001605c <_ZN20complex_dynamic_type3app17ha8dc78e5d1033f44E>:
   1605c:	7175                	addi	sp,sp,-144
   1605e:	c706                	sw	ra,140(sp)
   16060:	c522                	sw	s0,136(sp)
   16062:	c326                	sw	s1,132(sp)
   16064:	c14a                	sw	s2,128(sp)
   16066:	dece                	sw	s3,124(sp)
   16068:	89aa                	mv	s3,a0
   1606a:	4409                	li	s0,2
   1606c:	00810623          	sb	s0,12(sp)
   16070:	00d10493          	addi	s1,sp,13
   16074:	03c00613          	li	a2,60
   16078:	8526                	mv	a0,s1
   1607a:	00007097          	auipc	ra,0x7
   1607e:	6fc080e7          	jalr	1788(ra) # 1d776 <memcpy>
   16082:	04a10913          	addi	s2,sp,74
   16086:	03200613          	li	a2,50
   1608a:	854a                	mv	a0,s2
   1608c:	4581                	li	a1,0
   1608e:	00007097          	auipc	ra,0x7
   16092:	67c080e7          	jalr	1660(ra) # 1d70a <memset>
   16096:	8626                	mv	a2,s1
   16098:	048104a3          	sb	s0,73(sp)
   1609c:	6509                	lui	a0,0x2
   1609e:	4491                	li	s1,4
   160a0:	4599                	li	a1,6
   160a2:	b1e50793          	addi	a5,a0,-1250 # 1b1e <.Lline_table_start1+0x18f3>
   160a6:	03c00693          	li	a3,60
   160aa:	4711                	li	a4,4
   160ac:	853e                	mv	a0,a5
   160ae:	00000073          	ecall
   160b2:	00851863          	bne	a0,s0,160c2 <_ZN20complex_dynamic_type3app17ha8dc78e5d1033f44E+0x66>
   160b6:	4505                	li	a0,1
   160b8:	00a98023          	sb	a0,0(s3)
   160bc:	00b9a223          	sw	a1,4(s3)
   160c0:	a0bd                	j	1612e <_ZN20complex_dynamic_type3app17ha8dc78e5d1033f44E+0xd2>
   160c2:	853e                	mv	a0,a5
   160c4:	864a                	mv	a2,s2
   160c6:	00910623          	sb	s1,12(sp)
   160ca:	478d                	li	a5,3
   160cc:	45a1                	li	a1,8
   160ce:	03200693          	li	a3,50
   160d2:	470d                	li	a4,3
   160d4:	00000073          	ecall
   160d8:	00851d63          	bne	a0,s0,160f2 <_ZN20complex_dynamic_type3app17ha8dc78e5d1033f44E+0x96>
   160dc:	04914703          	lbu	a4,73(sp)
   160e0:	4505                	li	a0,1
   160e2:	4609                	li	a2,2
   160e4:	00a98023          	sb	a0,0(s3)
   160e8:	00b9a223          	sw	a1,4(s3)
   160ec:	02c71963          	bne	a4,a2,1611e <_ZN20complex_dynamic_type3app17ha8dc78e5d1033f44E+0xc2>
   160f0:	a83d                	j	1612e <_ZN20complex_dynamic_type3app17ha8dc78e5d1033f44E+0xd2>
   160f2:	4681                	li	a3,0
   160f4:	04f104a3          	sb	a5,73(sp)
   160f8:	6509                	lui	a0,0x2
   160fa:	4599                	li	a1,6
   160fc:	4621                	li	a2,8
   160fe:	4709                	li	a4,2
   16100:	b1e50513          	addi	a0,a0,-1250 # 1b1e <.Lline_table_start1+0x18f3>
   16104:	07f00793          	li	a5,127
   16108:	00000073          	ecall
   1610c:	4609                	li	a2,2
   1610e:	04a7e563          	bltu	a5,a0,16158 <_ZN20complex_dynamic_type3app17ha8dc78e5d1033f44E+0xfc>
   16112:	4505                	li	a0,1
   16114:	00a98023          	sb	a0,0(s3)
   16118:	00b9a223          	sw	a1,4(s3)
   1611c:	470d                	li	a4,3
   1611e:	6509                	lui	a0,0x2
   16120:	b1e50513          	addi	a0,a0,-1250 # 1b1e <.Lline_table_start1+0x18f3>
   16124:	45a1                	li	a1,8
   16126:	4601                	li	a2,0
   16128:	4681                	li	a3,0
   1612a:	00000073          	ecall
   1612e:	00c14483          	lbu	s1,12(sp)
   16132:	4509                	li	a0,2
   16134:	00a48b63          	beq	s1,a0,1614a <_ZN20complex_dynamic_type3app17ha8dc78e5d1033f44E+0xee>
   16138:	6509                	lui	a0,0x2
   1613a:	b1e50513          	addi	a0,a0,-1250 # 1b1e <.Lline_table_start1+0x18f3>
   1613e:	4599                	li	a1,6
   16140:	4601                	li	a2,0
   16142:	4681                	li	a3,0
   16144:	8726                	mv	a4,s1
   16146:	00000073          	ecall
   1614a:	40ba                	lw	ra,140(sp)
   1614c:	442a                	lw	s0,136(sp)
   1614e:	449a                	lw	s1,132(sp)
   16150:	490a                	lw	s2,128(sp)
   16152:	59f6                	lw	s3,124(sp)
   16154:	6149                	addi	sp,sp,144
   16156:	8082                	ret
   16158:	00c14703          	lbu	a4,12(sp)
   1615c:	00c71463          	bne	a4,a2,16164 <_ZN20complex_dynamic_type3app17ha8dc78e5d1033f44E+0x108>
   16160:	470d                	li	a4,3
   16162:	a825                	j	1619a <_ZN20complex_dynamic_type3app17ha8dc78e5d1033f44E+0x13e>
   16164:	6509                	lui	a0,0x2
   16166:	b1e50513          	addi	a0,a0,-1250 # 1b1e <.Lline_table_start1+0x18f3>
   1616a:	4599                	li	a1,6
   1616c:	4601                	li	a2,0
   1616e:	4681                	li	a3,0
   16170:	00000073          	ecall
   16174:	04914703          	lbu	a4,73(sp)
   16178:	4509                	li	a0,2
   1617a:	00a10623          	sb	a0,12(sp)
   1617e:	00a71e63          	bne	a4,a0,1619a <_ZN20complex_dynamic_type3app17ha8dc78e5d1033f44E+0x13e>
   16182:	00198513          	addi	a0,s3,1
   16186:	03200613          	li	a2,50
   1618a:	85ca                	mv	a1,s2
   1618c:	00007097          	auipc	ra,0x7
   16190:	5ea080e7          	jalr	1514(ra) # 1d776 <memcpy>
   16194:	00098023          	sb	zero,0(s3)
   16198:	bf4d                	j	1614a <_ZN20complex_dynamic_type3app17ha8dc78e5d1033f44E+0xee>
   1619a:	6509                	lui	a0,0x2
   1619c:	b1e50513          	addi	a0,a0,-1250 # 1b1e <.Lline_table_start1+0x18f3>
   161a0:	45a1                	li	a1,8
   161a2:	4601                	li	a2,0
   161a4:	4681                	li	a3,0
   161a6:	00000073          	ecall
   161aa:	00c14483          	lbu	s1,12(sp)
   161ae:	00198513          	addi	a0,s3,1
   161b2:	03200613          	li	a2,50
   161b6:	85ca                	mv	a1,s2
   161b8:	00007097          	auipc	ra,0x7
   161bc:	5be080e7          	jalr	1470(ra) # 1d776 <memcpy>
   161c0:	4509                	li	a0,2
   161c2:	00098023          	sb	zero,0(s3)
   161c6:	f6a499e3          	bne	s1,a0,16138 <_ZN20complex_dynamic_type3app17ha8dc78e5d1033f44E+0xdc>
   161ca:	b741                	j	1614a <_ZN20complex_dynamic_type3app17ha8dc78e5d1033f44E+0xee>

000161cc <_ZN20complex_dynamic_type3app17ha9c73ca69003319dE>:
   161cc:	7139                	addi	sp,sp,-64
   161ce:	de06                	sw	ra,60(sp)
   161d0:	dc22                	sw	s0,56(sp)
   161d2:	da26                	sw	s1,52(sp)
   161d4:	d84a                	sw	s2,48(sp)
   161d6:	d64e                	sw	s3,44(sp)
   161d8:	89aa                	mv	s3,a0
   161da:	4409                	li	s0,2
   161dc:	00810423          	sb	s0,8(sp)
   161e0:	00910493          	addi	s1,sp,9
   161e4:	463d                	li	a2,15
   161e6:	8526                	mv	a0,s1
   161e8:	00007097          	auipc	ra,0x7
   161ec:	58e080e7          	jalr	1422(ra) # 1d776 <memcpy>
   161f0:	01910913          	addi	s2,sp,25
   161f4:	464d                	li	a2,19
   161f6:	854a                	mv	a0,s2
   161f8:	4581                	li	a1,0
   161fa:	00007097          	auipc	ra,0x7
   161fe:	510080e7          	jalr	1296(ra) # 1d70a <memset>
   16202:	8626                	mv	a2,s1
   16204:	00810c23          	sb	s0,24(sp)
   16208:	6509                	lui	a0,0x2
   1620a:	4491                	li	s1,4
   1620c:	458d                	li	a1,3
   1620e:	e4b50793          	addi	a5,a0,-437 # 1e4b <.Lline_table_start1+0x1c20>
   16212:	46bd                	li	a3,15
   16214:	4711                	li	a4,4
   16216:	853e                	mv	a0,a5
   16218:	00000073          	ecall
   1621c:	00851863          	bne	a0,s0,1622c <_ZN20complex_dynamic_type3app17ha9c73ca69003319dE+0x60>
   16220:	4505                	li	a0,1
   16222:	00a98023          	sb	a0,0(s3)
   16226:	00b9a223          	sw	a1,4(s3)
   1622a:	a0b5                	j	16296 <_ZN20complex_dynamic_type3app17ha9c73ca69003319dE+0xca>
   1622c:	853e                	mv	a0,a5
   1622e:	4581                	li	a1,0
   16230:	864a                	mv	a2,s2
   16232:	00910423          	sb	s1,8(sp)
   16236:	478d                	li	a5,3
   16238:	46cd                	li	a3,19
   1623a:	470d                	li	a4,3
   1623c:	00000073          	ecall
   16240:	00851d63          	bne	a0,s0,1625a <_ZN20complex_dynamic_type3app17ha9c73ca69003319dE+0x8e>
   16244:	01814703          	lbu	a4,24(sp)
   16248:	4505                	li	a0,1
   1624a:	4609                	li	a2,2
   1624c:	00a98023          	sb	a0,0(s3)
   16250:	00b9a223          	sw	a1,4(s3)
   16254:	02c71963          	bne	a4,a2,16286 <_ZN20complex_dynamic_type3app17ha9c73ca69003319dE+0xba>
   16258:	a83d                	j	16296 <_ZN20complex_dynamic_type3app17ha9c73ca69003319dE+0xca>
   1625a:	4601                	li	a2,0
   1625c:	4681                	li	a3,0
   1625e:	00f10c23          	sb	a5,24(sp)
   16262:	6509                	lui	a0,0x2
   16264:	458d                	li	a1,3
   16266:	4709                	li	a4,2
   16268:	e4b50513          	addi	a0,a0,-437 # 1e4b <.Lline_table_start1+0x1c20>
   1626c:	07f00793          	li	a5,127
   16270:	00000073          	ecall
   16274:	4609                	li	a2,2
   16276:	04a7e563          	bltu	a5,a0,162c0 <_ZN20complex_dynamic_type3app17ha9c73ca69003319dE+0xf4>
   1627a:	4505                	li	a0,1
   1627c:	00a98023          	sb	a0,0(s3)
   16280:	00b9a223          	sw	a1,4(s3)
   16284:	470d                	li	a4,3
   16286:	6509                	lui	a0,0x2
   16288:	e4b50513          	addi	a0,a0,-437 # 1e4b <.Lline_table_start1+0x1c20>
   1628c:	4581                	li	a1,0
   1628e:	4601                	li	a2,0
   16290:	4681                	li	a3,0
   16292:	00000073          	ecall
   16296:	00814483          	lbu	s1,8(sp)
   1629a:	4509                	li	a0,2
   1629c:	00a48b63          	beq	s1,a0,162b2 <_ZN20complex_dynamic_type3app17ha9c73ca69003319dE+0xe6>
   162a0:	6509                	lui	a0,0x2
   162a2:	e4b50513          	addi	a0,a0,-437 # 1e4b <.Lline_table_start1+0x1c20>
   162a6:	458d                	li	a1,3
   162a8:	4601                	li	a2,0
   162aa:	4681                	li	a3,0
   162ac:	8726                	mv	a4,s1
   162ae:	00000073          	ecall
   162b2:	50f2                	lw	ra,60(sp)
   162b4:	5462                	lw	s0,56(sp)
   162b6:	54d2                	lw	s1,52(sp)
   162b8:	5942                	lw	s2,48(sp)
   162ba:	59b2                	lw	s3,44(sp)
   162bc:	6121                	addi	sp,sp,64
   162be:	8082                	ret
   162c0:	00814703          	lbu	a4,8(sp)
   162c4:	00c71463          	bne	a4,a2,162cc <_ZN20complex_dynamic_type3app17ha9c73ca69003319dE+0x100>
   162c8:	470d                	li	a4,3
   162ca:	a81d                	j	16300 <_ZN20complex_dynamic_type3app17ha9c73ca69003319dE+0x134>
   162cc:	6509                	lui	a0,0x2
   162ce:	e4b50513          	addi	a0,a0,-437 # 1e4b <.Lline_table_start1+0x1c20>
   162d2:	458d                	li	a1,3
   162d4:	4601                	li	a2,0
   162d6:	4681                	li	a3,0
   162d8:	00000073          	ecall
   162dc:	01814703          	lbu	a4,24(sp)
   162e0:	4509                	li	a0,2
   162e2:	00a10423          	sb	a0,8(sp)
   162e6:	00a71d63          	bne	a4,a0,16300 <_ZN20complex_dynamic_type3app17ha9c73ca69003319dE+0x134>
   162ea:	00198513          	addi	a0,s3,1
   162ee:	464d                	li	a2,19
   162f0:	85ca                	mv	a1,s2
   162f2:	00007097          	auipc	ra,0x7
   162f6:	484080e7          	jalr	1156(ra) # 1d776 <memcpy>
   162fa:	00098023          	sb	zero,0(s3)
   162fe:	bf55                	j	162b2 <_ZN20complex_dynamic_type3app17ha9c73ca69003319dE+0xe6>
   16300:	6509                	lui	a0,0x2
   16302:	e4b50513          	addi	a0,a0,-437 # 1e4b <.Lline_table_start1+0x1c20>
   16306:	4581                	li	a1,0
   16308:	4601                	li	a2,0
   1630a:	4681                	li	a3,0
   1630c:	00000073          	ecall
   16310:	00814483          	lbu	s1,8(sp)
   16314:	00198513          	addi	a0,s3,1
   16318:	464d                	li	a2,19
   1631a:	85ca                	mv	a1,s2
   1631c:	00007097          	auipc	ra,0x7
   16320:	45a080e7          	jalr	1114(ra) # 1d776 <memcpy>
   16324:	4509                	li	a0,2
   16326:	00098023          	sb	zero,0(s3)
   1632a:	f6a49be3          	bne	s1,a0,162a0 <_ZN20complex_dynamic_type3app17ha9c73ca69003319dE+0xd4>
   1632e:	b751                	j	162b2 <_ZN20complex_dynamic_type3app17ha9c73ca69003319dE+0xe6>

00016330 <_ZN20complex_dynamic_type3app17hae15be0f89d7c9c2E>:
   16330:	7175                	addi	sp,sp,-144
   16332:	c706                	sw	ra,140(sp)
   16334:	c522                	sw	s0,136(sp)
   16336:	c326                	sw	s1,132(sp)
   16338:	c14a                	sw	s2,128(sp)
   1633a:	dece                	sw	s3,124(sp)
   1633c:	89aa                	mv	s3,a0
   1633e:	4409                	li	s0,2
   16340:	008104a3          	sb	s0,9(sp)
   16344:	00a10493          	addi	s1,sp,10
   16348:	04800613          	li	a2,72
   1634c:	8526                	mv	a0,s1
   1634e:	00007097          	auipc	ra,0x7
   16352:	428080e7          	jalr	1064(ra) # 1d776 <memcpy>
   16356:	05310913          	addi	s2,sp,83
   1635a:	02900613          	li	a2,41
   1635e:	854a                	mv	a0,s2
   16360:	4581                	li	a1,0
   16362:	00007097          	auipc	ra,0x7
   16366:	3a8080e7          	jalr	936(ra) # 1d70a <memset>
   1636a:	8626                	mv	a2,s1
   1636c:	04810923          	sb	s0,82(sp)
   16370:	6509                	lui	a0,0x2
   16372:	4491                	li	s1,4
   16374:	458d                	li	a1,3
   16376:	6a450793          	addi	a5,a0,1700 # 26a4 <.Lline_table_start1+0x2479>
   1637a:	04800693          	li	a3,72
   1637e:	4711                	li	a4,4
   16380:	853e                	mv	a0,a5
   16382:	00000073          	ecall
   16386:	00851863          	bne	a0,s0,16396 <_ZN20complex_dynamic_type3app17hae15be0f89d7c9c2E+0x66>
   1638a:	4505                	li	a0,1
   1638c:	00a98023          	sb	a0,0(s3)
   16390:	00b9a223          	sw	a1,4(s3)
   16394:	a0bd                	j	16402 <_ZN20complex_dynamic_type3app17hae15be0f89d7c9c2E+0xd2>
   16396:	853e                	mv	a0,a5
   16398:	864a                	mv	a2,s2
   1639a:	009104a3          	sb	s1,9(sp)
   1639e:	478d                	li	a5,3
   163a0:	4591                	li	a1,4
   163a2:	02900693          	li	a3,41
   163a6:	470d                	li	a4,3
   163a8:	00000073          	ecall
   163ac:	00851d63          	bne	a0,s0,163c6 <_ZN20complex_dynamic_type3app17hae15be0f89d7c9c2E+0x96>
   163b0:	05214703          	lbu	a4,82(sp)
   163b4:	4505                	li	a0,1
   163b6:	4609                	li	a2,2
   163b8:	00a98023          	sb	a0,0(s3)
   163bc:	00b9a223          	sw	a1,4(s3)
   163c0:	02c71963          	bne	a4,a2,163f2 <_ZN20complex_dynamic_type3app17hae15be0f89d7c9c2E+0xc2>
   163c4:	a83d                	j	16402 <_ZN20complex_dynamic_type3app17hae15be0f89d7c9c2E+0xd2>
   163c6:	4681                	li	a3,0
   163c8:	04f10923          	sb	a5,82(sp)
   163cc:	6509                	lui	a0,0x2
   163ce:	458d                	li	a1,3
   163d0:	4611                	li	a2,4
   163d2:	4709                	li	a4,2
   163d4:	6a450513          	addi	a0,a0,1700 # 26a4 <.Lline_table_start1+0x2479>
   163d8:	07f00793          	li	a5,127
   163dc:	00000073          	ecall
   163e0:	4609                	li	a2,2
   163e2:	04a7e563          	bltu	a5,a0,1642c <_ZN20complex_dynamic_type3app17hae15be0f89d7c9c2E+0xfc>
   163e6:	4505                	li	a0,1
   163e8:	00a98023          	sb	a0,0(s3)
   163ec:	00b9a223          	sw	a1,4(s3)
   163f0:	470d                	li	a4,3
   163f2:	6509                	lui	a0,0x2
   163f4:	6a450513          	addi	a0,a0,1700 # 26a4 <.Lline_table_start1+0x2479>
   163f8:	4591                	li	a1,4
   163fa:	4601                	li	a2,0
   163fc:	4681                	li	a3,0
   163fe:	00000073          	ecall
   16402:	00914483          	lbu	s1,9(sp)
   16406:	4509                	li	a0,2
   16408:	00a48b63          	beq	s1,a0,1641e <_ZN20complex_dynamic_type3app17hae15be0f89d7c9c2E+0xee>
   1640c:	6509                	lui	a0,0x2
   1640e:	6a450513          	addi	a0,a0,1700 # 26a4 <.Lline_table_start1+0x2479>
   16412:	458d                	li	a1,3
   16414:	4601                	li	a2,0
   16416:	4681                	li	a3,0
   16418:	8726                	mv	a4,s1
   1641a:	00000073          	ecall
   1641e:	40ba                	lw	ra,140(sp)
   16420:	442a                	lw	s0,136(sp)
   16422:	449a                	lw	s1,132(sp)
   16424:	490a                	lw	s2,128(sp)
   16426:	59f6                	lw	s3,124(sp)
   16428:	6149                	addi	sp,sp,144
   1642a:	8082                	ret
   1642c:	00914703          	lbu	a4,9(sp)
   16430:	00c71463          	bne	a4,a2,16438 <_ZN20complex_dynamic_type3app17hae15be0f89d7c9c2E+0x108>
   16434:	470d                	li	a4,3
   16436:	a825                	j	1646e <_ZN20complex_dynamic_type3app17hae15be0f89d7c9c2E+0x13e>
   16438:	6509                	lui	a0,0x2
   1643a:	6a450513          	addi	a0,a0,1700 # 26a4 <.Lline_table_start1+0x2479>
   1643e:	458d                	li	a1,3
   16440:	4601                	li	a2,0
   16442:	4681                	li	a3,0
   16444:	00000073          	ecall
   16448:	05214703          	lbu	a4,82(sp)
   1644c:	4509                	li	a0,2
   1644e:	00a104a3          	sb	a0,9(sp)
   16452:	00a71e63          	bne	a4,a0,1646e <_ZN20complex_dynamic_type3app17hae15be0f89d7c9c2E+0x13e>
   16456:	00198513          	addi	a0,s3,1
   1645a:	02900613          	li	a2,41
   1645e:	85ca                	mv	a1,s2
   16460:	00007097          	auipc	ra,0x7
   16464:	316080e7          	jalr	790(ra) # 1d776 <memcpy>
   16468:	00098023          	sb	zero,0(s3)
   1646c:	bf4d                	j	1641e <_ZN20complex_dynamic_type3app17hae15be0f89d7c9c2E+0xee>
   1646e:	6509                	lui	a0,0x2
   16470:	6a450513          	addi	a0,a0,1700 # 26a4 <.Lline_table_start1+0x2479>
   16474:	4591                	li	a1,4
   16476:	4601                	li	a2,0
   16478:	4681                	li	a3,0
   1647a:	00000073          	ecall
   1647e:	00914483          	lbu	s1,9(sp)
   16482:	00198513          	addi	a0,s3,1
   16486:	02900613          	li	a2,41
   1648a:	85ca                	mv	a1,s2
   1648c:	00007097          	auipc	ra,0x7
   16490:	2ea080e7          	jalr	746(ra) # 1d776 <memcpy>
   16494:	4509                	li	a0,2
   16496:	00098023          	sb	zero,0(s3)
   1649a:	f6a499e3          	bne	s1,a0,1640c <_ZN20complex_dynamic_type3app17hae15be0f89d7c9c2E+0xdc>
   1649e:	b741                	j	1641e <_ZN20complex_dynamic_type3app17hae15be0f89d7c9c2E+0xee>

000164a0 <_ZN20complex_dynamic_type3app17haf0302e14b77e438E>:
   164a0:	7119                	addi	sp,sp,-128
   164a2:	de86                	sw	ra,124(sp)
   164a4:	dca2                	sw	s0,120(sp)
   164a6:	daa6                	sw	s1,116(sp)
   164a8:	d8ca                	sw	s2,112(sp)
   164aa:	d6ce                	sw	s3,108(sp)
   164ac:	89aa                	mv	s3,a0
   164ae:	4409                	li	s0,2
   164b0:	00810123          	sb	s0,2(sp)
   164b4:	00310493          	addi	s1,sp,3
   164b8:	464d                	li	a2,19
   164ba:	8526                	mv	a0,s1
   164bc:	00007097          	auipc	ra,0x7
   164c0:	2ba080e7          	jalr	698(ra) # 1d776 <memcpy>
   164c4:	01710913          	addi	s2,sp,23
   164c8:	05500613          	li	a2,85
   164cc:	854a                	mv	a0,s2
   164ce:	4581                	li	a1,0
   164d0:	00007097          	auipc	ra,0x7
   164d4:	23a080e7          	jalr	570(ra) # 1d70a <memset>
   164d8:	8626                	mv	a2,s1
   164da:	00810b23          	sb	s0,22(sp)
   164de:	4791                	li	a5,4
   164e0:	32e00513          	li	a0,814
   164e4:	45a5                	li	a1,9
   164e6:	46cd                	li	a3,19
   164e8:	4711                	li	a4,4
   164ea:	00000073          	ecall
   164ee:	00851863          	bne	a0,s0,164fe <_ZN20complex_dynamic_type3app17haf0302e14b77e438E+0x5e>
   164f2:	4505                	li	a0,1
   164f4:	00a98023          	sb	a0,0(s3)
   164f8:	00b9a223          	sw	a1,4(s3)
   164fc:	a0b5                	j	16568 <_ZN20complex_dynamic_type3app17haf0302e14b77e438E+0xc8>
   164fe:	864a                	mv	a2,s2
   16500:	00f10123          	sb	a5,2(sp)
   16504:	478d                	li	a5,3
   16506:	32e00513          	li	a0,814
   1650a:	459d                	li	a1,7
   1650c:	05500693          	li	a3,85
   16510:	470d                	li	a4,3
   16512:	00000073          	ecall
   16516:	00851d63          	bne	a0,s0,16530 <_ZN20complex_dynamic_type3app17haf0302e14b77e438E+0x90>
   1651a:	01614703          	lbu	a4,22(sp)
   1651e:	4505                	li	a0,1
   16520:	4609                	li	a2,2
   16522:	00a98023          	sb	a0,0(s3)
   16526:	00b9a223          	sw	a1,4(s3)
   1652a:	02c71863          	bne	a4,a2,1655a <_ZN20complex_dynamic_type3app17haf0302e14b77e438E+0xba>
   1652e:	a82d                	j	16568 <_ZN20complex_dynamic_type3app17haf0302e14b77e438E+0xc8>
   16530:	4681                	li	a3,0
   16532:	00f10b23          	sb	a5,22(sp)
   16536:	32e00513          	li	a0,814
   1653a:	45a5                	li	a1,9
   1653c:	461d                	li	a2,7
   1653e:	4709                	li	a4,2
   16540:	07f00793          	li	a5,127
   16544:	00000073          	ecall
   16548:	4609                	li	a2,2
   1654a:	04a7e363          	bltu	a5,a0,16590 <_ZN20complex_dynamic_type3app17haf0302e14b77e438E+0xf0>
   1654e:	4505                	li	a0,1
   16550:	00a98023          	sb	a0,0(s3)
   16554:	00b9a223          	sw	a1,4(s3)
   16558:	470d                	li	a4,3
   1655a:	32e00513          	li	a0,814
   1655e:	459d                	li	a1,7
   16560:	4601                	li	a2,0
   16562:	4681                	li	a3,0
   16564:	00000073          	ecall
   16568:	00214483          	lbu	s1,2(sp)
   1656c:	4509                	li	a0,2
   1656e:	00a48a63          	beq	s1,a0,16582 <_ZN20complex_dynamic_type3app17haf0302e14b77e438E+0xe2>
   16572:	32e00513          	li	a0,814
   16576:	45a5                	li	a1,9
   16578:	4601                	li	a2,0
   1657a:	4681                	li	a3,0
   1657c:	8726                	mv	a4,s1
   1657e:	00000073          	ecall
   16582:	50f6                	lw	ra,124(sp)
   16584:	5466                	lw	s0,120(sp)
   16586:	54d6                	lw	s1,116(sp)
   16588:	5946                	lw	s2,112(sp)
   1658a:	59b6                	lw	s3,108(sp)
   1658c:	6109                	addi	sp,sp,128
   1658e:	8082                	ret
   16590:	00214703          	lbu	a4,2(sp)
   16594:	00c71463          	bne	a4,a2,1659c <_ZN20complex_dynamic_type3app17haf0302e14b77e438E+0xfc>
   16598:	470d                	li	a4,3
   1659a:	a81d                	j	165d0 <_ZN20complex_dynamic_type3app17haf0302e14b77e438E+0x130>
   1659c:	32e00513          	li	a0,814
   165a0:	45a5                	li	a1,9
   165a2:	4601                	li	a2,0
   165a4:	4681                	li	a3,0
   165a6:	00000073          	ecall
   165aa:	01614703          	lbu	a4,22(sp)
   165ae:	4509                	li	a0,2
   165b0:	00a10123          	sb	a0,2(sp)
   165b4:	00a71e63          	bne	a4,a0,165d0 <_ZN20complex_dynamic_type3app17haf0302e14b77e438E+0x130>
   165b8:	00198513          	addi	a0,s3,1
   165bc:	05500613          	li	a2,85
   165c0:	85ca                	mv	a1,s2
   165c2:	00007097          	auipc	ra,0x7
   165c6:	1b4080e7          	jalr	436(ra) # 1d776 <memcpy>
   165ca:	00098023          	sb	zero,0(s3)
   165ce:	bf55                	j	16582 <_ZN20complex_dynamic_type3app17haf0302e14b77e438E+0xe2>
   165d0:	32e00513          	li	a0,814
   165d4:	459d                	li	a1,7
   165d6:	4601                	li	a2,0
   165d8:	4681                	li	a3,0
   165da:	00000073          	ecall
   165de:	00214483          	lbu	s1,2(sp)
   165e2:	00198513          	addi	a0,s3,1
   165e6:	05500613          	li	a2,85
   165ea:	85ca                	mv	a1,s2
   165ec:	00007097          	auipc	ra,0x7
   165f0:	18a080e7          	jalr	394(ra) # 1d776 <memcpy>
   165f4:	4509                	li	a0,2
   165f6:	00098023          	sb	zero,0(s3)
   165fa:	f6a49ce3          	bne	s1,a0,16572 <_ZN20complex_dynamic_type3app17haf0302e14b77e438E+0xd2>
   165fe:	b751                	j	16582 <_ZN20complex_dynamic_type3app17haf0302e14b77e438E+0xe2>

00016600 <_ZN20complex_dynamic_type3app17hb7a052c6aaa1f362E>:
   16600:	7135                	addi	sp,sp,-160
   16602:	cf06                	sw	ra,156(sp)
   16604:	cd22                	sw	s0,152(sp)
   16606:	cb26                	sw	s1,148(sp)
   16608:	c94a                	sw	s2,144(sp)
   1660a:	c74e                	sw	s3,140(sp)
   1660c:	89aa                	mv	s3,a0
   1660e:	4409                	li	s0,2
   16610:	008103a3          	sb	s0,7(sp)
   16614:	0024                	addi	s1,sp,8
   16616:	02a00613          	li	a2,42
   1661a:	8526                	mv	a0,s1
   1661c:	00007097          	auipc	ra,0x7
   16620:	15a080e7          	jalr	346(ra) # 1d776 <memcpy>
   16624:	03310913          	addi	s2,sp,51
   16628:	05900613          	li	a2,89
   1662c:	854a                	mv	a0,s2
   1662e:	4581                	li	a1,0
   16630:	00007097          	auipc	ra,0x7
   16634:	0da080e7          	jalr	218(ra) # 1d70a <memset>
   16638:	8626                	mv	a2,s1
   1663a:	02810923          	sb	s0,50(sp)
   1663e:	6505                	lui	a0,0x1
   16640:	4805                	li	a6,1
   16642:	4491                	li	s1,4
   16644:	4585                	li	a1,1
   16646:	ed250793          	addi	a5,a0,-302 # ed2 <.Lline_table_start1+0xca7>
   1664a:	02a00693          	li	a3,42
   1664e:	4711                	li	a4,4
   16650:	853e                	mv	a0,a5
   16652:	00000073          	ecall
   16656:	00851763          	bne	a0,s0,16664 <_ZN20complex_dynamic_type3app17hb7a052c6aaa1f362E+0x64>
   1665a:	01098023          	sb	a6,0(s3)
   1665e:	00b9a223          	sw	a1,4(s3)
   16662:	a0bd                	j	166d0 <_ZN20complex_dynamic_type3app17hb7a052c6aaa1f362E+0xd0>
   16664:	853e                	mv	a0,a5
   16666:	864a                	mv	a2,s2
   16668:	009103a3          	sb	s1,7(sp)
   1666c:	478d                	li	a5,3
   1666e:	458d                	li	a1,3
   16670:	05900693          	li	a3,89
   16674:	470d                	li	a4,3
   16676:	00000073          	ecall
   1667a:	00851d63          	bne	a0,s0,16694 <_ZN20complex_dynamic_type3app17hb7a052c6aaa1f362E+0x94>
   1667e:	03214703          	lbu	a4,50(sp)
   16682:	4505                	li	a0,1
   16684:	4609                	li	a2,2
   16686:	00a98023          	sb	a0,0(s3)
   1668a:	00b9a223          	sw	a1,4(s3)
   1668e:	02c71963          	bne	a4,a2,166c0 <_ZN20complex_dynamic_type3app17hb7a052c6aaa1f362E+0xc0>
   16692:	a83d                	j	166d0 <_ZN20complex_dynamic_type3app17hb7a052c6aaa1f362E+0xd0>
   16694:	4681                	li	a3,0
   16696:	02f10923          	sb	a5,50(sp)
   1669a:	6505                	lui	a0,0x1
   1669c:	4785                	li	a5,1
   1669e:	4585                	li	a1,1
   166a0:	460d                	li	a2,3
   166a2:	4709                	li	a4,2
   166a4:	ed250513          	addi	a0,a0,-302 # ed2 <.Lline_table_start1+0xca7>
   166a8:	07f00493          	li	s1,127
   166ac:	00000073          	ecall
   166b0:	4609                	li	a2,2
   166b2:	04a4e463          	bltu	s1,a0,166fa <_ZN20complex_dynamic_type3app17hb7a052c6aaa1f362E+0xfa>
   166b6:	00f98023          	sb	a5,0(s3)
   166ba:	00b9a223          	sw	a1,4(s3)
   166be:	470d                	li	a4,3
   166c0:	6505                	lui	a0,0x1
   166c2:	ed250513          	addi	a0,a0,-302 # ed2 <.Lline_table_start1+0xca7>
   166c6:	458d                	li	a1,3
   166c8:	4601                	li	a2,0
   166ca:	4681                	li	a3,0
   166cc:	00000073          	ecall
   166d0:	00714483          	lbu	s1,7(sp)
   166d4:	4509                	li	a0,2
   166d6:	00a48b63          	beq	s1,a0,166ec <_ZN20complex_dynamic_type3app17hb7a052c6aaa1f362E+0xec>
   166da:	6505                	lui	a0,0x1
   166dc:	ed250513          	addi	a0,a0,-302 # ed2 <.Lline_table_start1+0xca7>
   166e0:	4585                	li	a1,1
   166e2:	4601                	li	a2,0
   166e4:	4681                	li	a3,0
   166e6:	8726                	mv	a4,s1
   166e8:	00000073          	ecall
   166ec:	40fa                	lw	ra,156(sp)
   166ee:	446a                	lw	s0,152(sp)
   166f0:	44da                	lw	s1,148(sp)
   166f2:	494a                	lw	s2,144(sp)
   166f4:	49ba                	lw	s3,140(sp)
   166f6:	610d                	addi	sp,sp,160
   166f8:	8082                	ret
   166fa:	00714703          	lbu	a4,7(sp)
   166fe:	00c71463          	bne	a4,a2,16706 <_ZN20complex_dynamic_type3app17hb7a052c6aaa1f362E+0x106>
   16702:	470d                	li	a4,3
   16704:	a825                	j	1673c <_ZN20complex_dynamic_type3app17hb7a052c6aaa1f362E+0x13c>
   16706:	6505                	lui	a0,0x1
   16708:	ed250513          	addi	a0,a0,-302 # ed2 <.Lline_table_start1+0xca7>
   1670c:	4585                	li	a1,1
   1670e:	4601                	li	a2,0
   16710:	4681                	li	a3,0
   16712:	00000073          	ecall
   16716:	03214703          	lbu	a4,50(sp)
   1671a:	4509                	li	a0,2
   1671c:	00a103a3          	sb	a0,7(sp)
   16720:	00a71e63          	bne	a4,a0,1673c <_ZN20complex_dynamic_type3app17hb7a052c6aaa1f362E+0x13c>
   16724:	00198513          	addi	a0,s3,1
   16728:	05900613          	li	a2,89
   1672c:	85ca                	mv	a1,s2
   1672e:	00007097          	auipc	ra,0x7
   16732:	048080e7          	jalr	72(ra) # 1d776 <memcpy>
   16736:	00098023          	sb	zero,0(s3)
   1673a:	bf4d                	j	166ec <_ZN20complex_dynamic_type3app17hb7a052c6aaa1f362E+0xec>
   1673c:	6505                	lui	a0,0x1
   1673e:	ed250513          	addi	a0,a0,-302 # ed2 <.Lline_table_start1+0xca7>
   16742:	458d                	li	a1,3
   16744:	4601                	li	a2,0
   16746:	4681                	li	a3,0
   16748:	00000073          	ecall
   1674c:	00714483          	lbu	s1,7(sp)
   16750:	00198513          	addi	a0,s3,1
   16754:	05900613          	li	a2,89
   16758:	85ca                	mv	a1,s2
   1675a:	00007097          	auipc	ra,0x7
   1675e:	01c080e7          	jalr	28(ra) # 1d776 <memcpy>
   16762:	4509                	li	a0,2
   16764:	00098023          	sb	zero,0(s3)
   16768:	f6a499e3          	bne	s1,a0,166da <_ZN20complex_dynamic_type3app17hb7a052c6aaa1f362E+0xda>
   1676c:	b741                	j	166ec <_ZN20complex_dynamic_type3app17hb7a052c6aaa1f362E+0xec>

0001676e <_ZN20complex_dynamic_type3app17hb9108298ad84c89dE>:
   1676e:	711d                	addi	sp,sp,-96
   16770:	ce86                	sw	ra,92(sp)
   16772:	cca2                	sw	s0,88(sp)
   16774:	caa6                	sw	s1,84(sp)
   16776:	c8ca                	sw	s2,80(sp)
   16778:	c6ce                	sw	s3,76(sp)
   1677a:	89aa                	mv	s3,a0
   1677c:	4409                	li	s0,2
   1677e:	008103a3          	sb	s0,7(sp)
   16782:	0024                	addi	s1,sp,8
   16784:	02900613          	li	a2,41
   16788:	8526                	mv	a0,s1
   1678a:	00007097          	auipc	ra,0x7
   1678e:	fec080e7          	jalr	-20(ra) # 1d776 <memcpy>
   16792:	03210913          	addi	s2,sp,50
   16796:	4669                	li	a2,26
   16798:	854a                	mv	a0,s2
   1679a:	4581                	li	a1,0
   1679c:	00007097          	auipc	ra,0x7
   167a0:	f6e080e7          	jalr	-146(ra) # 1d70a <memset>
   167a4:	8626                	mv	a2,s1
   167a6:	028108a3          	sb	s0,49(sp)
   167aa:	6509                	lui	a0,0x2
   167ac:	4491                	li	s1,4
   167ae:	4595                	li	a1,5
   167b0:	04850793          	addi	a5,a0,72 # 2048 <.Lline_table_start1+0x1e1d>
   167b4:	02900693          	li	a3,41
   167b8:	4711                	li	a4,4
   167ba:	853e                	mv	a0,a5
   167bc:	00000073          	ecall
   167c0:	00851863          	bne	a0,s0,167d0 <_ZN20complex_dynamic_type3app17hb9108298ad84c89dE+0x62>
   167c4:	4505                	li	a0,1
   167c6:	00a98023          	sb	a0,0(s3)
   167ca:	00b9a223          	sw	a1,4(s3)
   167ce:	a0b5                	j	1683a <_ZN20complex_dynamic_type3app17hb9108298ad84c89dE+0xcc>
   167d0:	853e                	mv	a0,a5
   167d2:	864a                	mv	a2,s2
   167d4:	009103a3          	sb	s1,7(sp)
   167d8:	478d                	li	a5,3
   167da:	458d                	li	a1,3
   167dc:	46e9                	li	a3,26
   167de:	470d                	li	a4,3
   167e0:	00000073          	ecall
   167e4:	00851d63          	bne	a0,s0,167fe <_ZN20complex_dynamic_type3app17hb9108298ad84c89dE+0x90>
   167e8:	03114703          	lbu	a4,49(sp)
   167ec:	4505                	li	a0,1
   167ee:	4609                	li	a2,2
   167f0:	00a98023          	sb	a0,0(s3)
   167f4:	00b9a223          	sw	a1,4(s3)
   167f8:	02c71963          	bne	a4,a2,1682a <_ZN20complex_dynamic_type3app17hb9108298ad84c89dE+0xbc>
   167fc:	a83d                	j	1683a <_ZN20complex_dynamic_type3app17hb9108298ad84c89dE+0xcc>
   167fe:	4681                	li	a3,0
   16800:	02f108a3          	sb	a5,49(sp)
   16804:	6509                	lui	a0,0x2
   16806:	4595                	li	a1,5
   16808:	460d                	li	a2,3
   1680a:	4709                	li	a4,2
   1680c:	04850513          	addi	a0,a0,72 # 2048 <.Lline_table_start1+0x1e1d>
   16810:	07f00793          	li	a5,127
   16814:	00000073          	ecall
   16818:	4609                	li	a2,2
   1681a:	04a7e563          	bltu	a5,a0,16864 <_ZN20complex_dynamic_type3app17hb9108298ad84c89dE+0xf6>
   1681e:	4505                	li	a0,1
   16820:	00a98023          	sb	a0,0(s3)
   16824:	00b9a223          	sw	a1,4(s3)
   16828:	470d                	li	a4,3
   1682a:	6509                	lui	a0,0x2
   1682c:	04850513          	addi	a0,a0,72 # 2048 <.Lline_table_start1+0x1e1d>
   16830:	458d                	li	a1,3
   16832:	4601                	li	a2,0
   16834:	4681                	li	a3,0
   16836:	00000073          	ecall
   1683a:	00714483          	lbu	s1,7(sp)
   1683e:	4509                	li	a0,2
   16840:	00a48b63          	beq	s1,a0,16856 <_ZN20complex_dynamic_type3app17hb9108298ad84c89dE+0xe8>
   16844:	6509                	lui	a0,0x2
   16846:	04850513          	addi	a0,a0,72 # 2048 <.Lline_table_start1+0x1e1d>
   1684a:	4595                	li	a1,5
   1684c:	4601                	li	a2,0
   1684e:	4681                	li	a3,0
   16850:	8726                	mv	a4,s1
   16852:	00000073          	ecall
   16856:	40f6                	lw	ra,92(sp)
   16858:	4466                	lw	s0,88(sp)
   1685a:	44d6                	lw	s1,84(sp)
   1685c:	4946                	lw	s2,80(sp)
   1685e:	49b6                	lw	s3,76(sp)
   16860:	6125                	addi	sp,sp,96
   16862:	8082                	ret
   16864:	00714703          	lbu	a4,7(sp)
   16868:	00c71463          	bne	a4,a2,16870 <_ZN20complex_dynamic_type3app17hb9108298ad84c89dE+0x102>
   1686c:	470d                	li	a4,3
   1686e:	a81d                	j	168a4 <_ZN20complex_dynamic_type3app17hb9108298ad84c89dE+0x136>
   16870:	6509                	lui	a0,0x2
   16872:	04850513          	addi	a0,a0,72 # 2048 <.Lline_table_start1+0x1e1d>
   16876:	4595                	li	a1,5
   16878:	4601                	li	a2,0
   1687a:	4681                	li	a3,0
   1687c:	00000073          	ecall
   16880:	03114703          	lbu	a4,49(sp)
   16884:	4509                	li	a0,2
   16886:	00a103a3          	sb	a0,7(sp)
   1688a:	00a71d63          	bne	a4,a0,168a4 <_ZN20complex_dynamic_type3app17hb9108298ad84c89dE+0x136>
   1688e:	00198513          	addi	a0,s3,1
   16892:	4669                	li	a2,26
   16894:	85ca                	mv	a1,s2
   16896:	00007097          	auipc	ra,0x7
   1689a:	ee0080e7          	jalr	-288(ra) # 1d776 <memcpy>
   1689e:	00098023          	sb	zero,0(s3)
   168a2:	bf55                	j	16856 <_ZN20complex_dynamic_type3app17hb9108298ad84c89dE+0xe8>
   168a4:	6509                	lui	a0,0x2
   168a6:	04850513          	addi	a0,a0,72 # 2048 <.Lline_table_start1+0x1e1d>
   168aa:	458d                	li	a1,3
   168ac:	4601                	li	a2,0
   168ae:	4681                	li	a3,0
   168b0:	00000073          	ecall
   168b4:	00714483          	lbu	s1,7(sp)
   168b8:	00198513          	addi	a0,s3,1
   168bc:	4669                	li	a2,26
   168be:	85ca                	mv	a1,s2
   168c0:	00007097          	auipc	ra,0x7
   168c4:	eb6080e7          	jalr	-330(ra) # 1d776 <memcpy>
   168c8:	4509                	li	a0,2
   168ca:	00098023          	sb	zero,0(s3)
   168ce:	f6a49be3          	bne	s1,a0,16844 <_ZN20complex_dynamic_type3app17hb9108298ad84c89dE+0xd6>
   168d2:	b751                	j	16856 <_ZN20complex_dynamic_type3app17hb9108298ad84c89dE+0xe8>

000168d4 <_ZN20complex_dynamic_type3app17hb9e06452d03a431aE>:
   168d4:	7159                	addi	sp,sp,-112
   168d6:	d686                	sw	ra,108(sp)
   168d8:	d4a2                	sw	s0,104(sp)
   168da:	d2a6                	sw	s1,100(sp)
   168dc:	d0ca                	sw	s2,96(sp)
   168de:	cece                	sw	s3,92(sp)
   168e0:	89aa                	mv	s3,a0
   168e2:	4409                	li	s0,2
   168e4:	008105a3          	sb	s0,11(sp)
   168e8:	0064                	addi	s1,sp,12
   168ea:	02500613          	li	a2,37
   168ee:	8526                	mv	a0,s1
   168f0:	00007097          	auipc	ra,0x7
   168f4:	e86080e7          	jalr	-378(ra) # 1d776 <memcpy>
   168f8:	03210913          	addi	s2,sp,50
   168fc:	02a00613          	li	a2,42
   16900:	854a                	mv	a0,s2
   16902:	4581                	li	a1,0
   16904:	00007097          	auipc	ra,0x7
   16908:	e06080e7          	jalr	-506(ra) # 1d70a <memset>
   1690c:	4581                	li	a1,0
   1690e:	8626                	mv	a2,s1
   16910:	028108a3          	sb	s0,49(sp)
   16914:	6505                	lui	a0,0x1
   16916:	4491                	li	s1,4
   16918:	93c50793          	addi	a5,a0,-1732 # 93c <.Lline_table_start1+0x711>
   1691c:	02500693          	li	a3,37
   16920:	4711                	li	a4,4
   16922:	853e                	mv	a0,a5
   16924:	00000073          	ecall
   16928:	00851863          	bne	a0,s0,16938 <_ZN20complex_dynamic_type3app17hb9e06452d03a431aE+0x64>
   1692c:	4505                	li	a0,1
   1692e:	00a98023          	sb	a0,0(s3)
   16932:	00b9a223          	sw	a1,4(s3)
   16936:	a0bd                	j	169a4 <_ZN20complex_dynamic_type3app17hb9e06452d03a431aE+0xd0>
   16938:	853e                	mv	a0,a5
   1693a:	864a                	mv	a2,s2
   1693c:	009105a3          	sb	s1,11(sp)
   16940:	478d                	li	a5,3
   16942:	458d                	li	a1,3
   16944:	02a00693          	li	a3,42
   16948:	470d                	li	a4,3
   1694a:	00000073          	ecall
   1694e:	00851d63          	bne	a0,s0,16968 <_ZN20complex_dynamic_type3app17hb9e06452d03a431aE+0x94>
   16952:	03114703          	lbu	a4,49(sp)
   16956:	4505                	li	a0,1
   16958:	4609                	li	a2,2
   1695a:	00a98023          	sb	a0,0(s3)
   1695e:	00b9a223          	sw	a1,4(s3)
   16962:	02c71963          	bne	a4,a2,16994 <_ZN20complex_dynamic_type3app17hb9e06452d03a431aE+0xc0>
   16966:	a83d                	j	169a4 <_ZN20complex_dynamic_type3app17hb9e06452d03a431aE+0xd0>
   16968:	4581                	li	a1,0
   1696a:	4681                	li	a3,0
   1696c:	02f108a3          	sb	a5,49(sp)
   16970:	6505                	lui	a0,0x1
   16972:	460d                	li	a2,3
   16974:	4709                	li	a4,2
   16976:	93c50513          	addi	a0,a0,-1732 # 93c <.Lline_table_start1+0x711>
   1697a:	07f00793          	li	a5,127
   1697e:	00000073          	ecall
   16982:	4609                	li	a2,2
   16984:	04a7e563          	bltu	a5,a0,169ce <_ZN20complex_dynamic_type3app17hb9e06452d03a431aE+0xfa>
   16988:	4505                	li	a0,1
   1698a:	00a98023          	sb	a0,0(s3)
   1698e:	00b9a223          	sw	a1,4(s3)
   16992:	470d                	li	a4,3
   16994:	6505                	lui	a0,0x1
   16996:	93c50513          	addi	a0,a0,-1732 # 93c <.Lline_table_start1+0x711>
   1699a:	458d                	li	a1,3
   1699c:	4601                	li	a2,0
   1699e:	4681                	li	a3,0
   169a0:	00000073          	ecall
   169a4:	00b14483          	lbu	s1,11(sp)
   169a8:	4509                	li	a0,2
   169aa:	00a48b63          	beq	s1,a0,169c0 <_ZN20complex_dynamic_type3app17hb9e06452d03a431aE+0xec>
   169ae:	6505                	lui	a0,0x1
   169b0:	93c50513          	addi	a0,a0,-1732 # 93c <.Lline_table_start1+0x711>
   169b4:	4581                	li	a1,0
   169b6:	4601                	li	a2,0
   169b8:	4681                	li	a3,0
   169ba:	8726                	mv	a4,s1
   169bc:	00000073          	ecall
   169c0:	50b6                	lw	ra,108(sp)
   169c2:	5426                	lw	s0,104(sp)
   169c4:	5496                	lw	s1,100(sp)
   169c6:	5906                	lw	s2,96(sp)
   169c8:	49f6                	lw	s3,92(sp)
   169ca:	6165                	addi	sp,sp,112
   169cc:	8082                	ret
   169ce:	00b14703          	lbu	a4,11(sp)
   169d2:	00c71463          	bne	a4,a2,169da <_ZN20complex_dynamic_type3app17hb9e06452d03a431aE+0x106>
   169d6:	470d                	li	a4,3
   169d8:	a825                	j	16a10 <_ZN20complex_dynamic_type3app17hb9e06452d03a431aE+0x13c>
   169da:	6505                	lui	a0,0x1
   169dc:	93c50513          	addi	a0,a0,-1732 # 93c <.Lline_table_start1+0x711>
   169e0:	4581                	li	a1,0
   169e2:	4601                	li	a2,0
   169e4:	4681                	li	a3,0
   169e6:	00000073          	ecall
   169ea:	03114703          	lbu	a4,49(sp)
   169ee:	4509                	li	a0,2
   169f0:	00a105a3          	sb	a0,11(sp)
   169f4:	00a71e63          	bne	a4,a0,16a10 <_ZN20complex_dynamic_type3app17hb9e06452d03a431aE+0x13c>
   169f8:	00198513          	addi	a0,s3,1
   169fc:	02a00613          	li	a2,42
   16a00:	85ca                	mv	a1,s2
   16a02:	00007097          	auipc	ra,0x7
   16a06:	d74080e7          	jalr	-652(ra) # 1d776 <memcpy>
   16a0a:	00098023          	sb	zero,0(s3)
   16a0e:	bf4d                	j	169c0 <_ZN20complex_dynamic_type3app17hb9e06452d03a431aE+0xec>
   16a10:	6505                	lui	a0,0x1
   16a12:	93c50513          	addi	a0,a0,-1732 # 93c <.Lline_table_start1+0x711>
   16a16:	458d                	li	a1,3
   16a18:	4601                	li	a2,0
   16a1a:	4681                	li	a3,0
   16a1c:	00000073          	ecall
   16a20:	00b14483          	lbu	s1,11(sp)
   16a24:	00198513          	addi	a0,s3,1
   16a28:	02a00613          	li	a2,42
   16a2c:	85ca                	mv	a1,s2
   16a2e:	00007097          	auipc	ra,0x7
   16a32:	d48080e7          	jalr	-696(ra) # 1d776 <memcpy>
   16a36:	4509                	li	a0,2
   16a38:	00098023          	sb	zero,0(s3)
   16a3c:	f6a499e3          	bne	s1,a0,169ae <_ZN20complex_dynamic_type3app17hb9e06452d03a431aE+0xda>
   16a40:	b741                	j	169c0 <_ZN20complex_dynamic_type3app17hb9e06452d03a431aE+0xec>

00016a42 <_ZN20complex_dynamic_type3app17hbb8ce8a9cb56decfE>:
   16a42:	7171                	addi	sp,sp,-176
   16a44:	d706                	sw	ra,172(sp)
   16a46:	d522                	sw	s0,168(sp)
   16a48:	d326                	sw	s1,164(sp)
   16a4a:	d14a                	sw	s2,160(sp)
   16a4c:	cf4e                	sw	s3,156(sp)
   16a4e:	89aa                	mv	s3,a0
   16a50:	4409                	li	s0,2
   16a52:	00810723          	sb	s0,14(sp)
   16a56:	00f10493          	addi	s1,sp,15
   16a5a:	05000613          	li	a2,80
   16a5e:	8526                	mv	a0,s1
   16a60:	00007097          	auipc	ra,0x7
   16a64:	d16080e7          	jalr	-746(ra) # 1d776 <memcpy>
   16a68:	06010913          	addi	s2,sp,96
   16a6c:	03c00613          	li	a2,60
   16a70:	854a                	mv	a0,s2
   16a72:	4581                	li	a1,0
   16a74:	00007097          	auipc	ra,0x7
   16a78:	c96080e7          	jalr	-874(ra) # 1d70a <memset>
   16a7c:	8626                	mv	a2,s1
   16a7e:	04810fa3          	sb	s0,95(sp)
   16a82:	6505                	lui	a0,0x1
   16a84:	4491                	li	s1,4
   16a86:	458d                	li	a1,3
   16a88:	d7a50793          	addi	a5,a0,-646 # d7a <.Lline_table_start1+0xb4f>
   16a8c:	05000693          	li	a3,80
   16a90:	4711                	li	a4,4
   16a92:	853e                	mv	a0,a5
   16a94:	00000073          	ecall
   16a98:	00851863          	bne	a0,s0,16aa8 <_ZN20complex_dynamic_type3app17hbb8ce8a9cb56decfE+0x66>
   16a9c:	4505                	li	a0,1
   16a9e:	00a98023          	sb	a0,0(s3)
   16aa2:	00b9a223          	sw	a1,4(s3)
   16aa6:	a0bd                	j	16b14 <_ZN20complex_dynamic_type3app17hbb8ce8a9cb56decfE+0xd2>
   16aa8:	853e                	mv	a0,a5
   16aaa:	864a                	mv	a2,s2
   16aac:	00910723          	sb	s1,14(sp)
   16ab0:	478d                	li	a5,3
   16ab2:	45a5                	li	a1,9
   16ab4:	03c00693          	li	a3,60
   16ab8:	470d                	li	a4,3
   16aba:	00000073          	ecall
   16abe:	00851d63          	bne	a0,s0,16ad8 <_ZN20complex_dynamic_type3app17hbb8ce8a9cb56decfE+0x96>
   16ac2:	05f14703          	lbu	a4,95(sp)
   16ac6:	4505                	li	a0,1
   16ac8:	4609                	li	a2,2
   16aca:	00a98023          	sb	a0,0(s3)
   16ace:	00b9a223          	sw	a1,4(s3)
   16ad2:	02c71963          	bne	a4,a2,16b04 <_ZN20complex_dynamic_type3app17hbb8ce8a9cb56decfE+0xc2>
   16ad6:	a83d                	j	16b14 <_ZN20complex_dynamic_type3app17hbb8ce8a9cb56decfE+0xd2>
   16ad8:	4681                	li	a3,0
   16ada:	04f10fa3          	sb	a5,95(sp)
   16ade:	6505                	lui	a0,0x1
   16ae0:	458d                	li	a1,3
   16ae2:	4625                	li	a2,9
   16ae4:	4709                	li	a4,2
   16ae6:	d7a50513          	addi	a0,a0,-646 # d7a <.Lline_table_start1+0xb4f>
   16aea:	07f00793          	li	a5,127
   16aee:	00000073          	ecall
   16af2:	4609                	li	a2,2
   16af4:	04a7e563          	bltu	a5,a0,16b3e <_ZN20complex_dynamic_type3app17hbb8ce8a9cb56decfE+0xfc>
   16af8:	4505                	li	a0,1
   16afa:	00a98023          	sb	a0,0(s3)
   16afe:	00b9a223          	sw	a1,4(s3)
   16b02:	470d                	li	a4,3
   16b04:	6505                	lui	a0,0x1
   16b06:	d7a50513          	addi	a0,a0,-646 # d7a <.Lline_table_start1+0xb4f>
   16b0a:	45a5                	li	a1,9
   16b0c:	4601                	li	a2,0
   16b0e:	4681                	li	a3,0
   16b10:	00000073          	ecall
   16b14:	00e14483          	lbu	s1,14(sp)
   16b18:	4509                	li	a0,2
   16b1a:	00a48b63          	beq	s1,a0,16b30 <_ZN20complex_dynamic_type3app17hbb8ce8a9cb56decfE+0xee>
   16b1e:	6505                	lui	a0,0x1
   16b20:	d7a50513          	addi	a0,a0,-646 # d7a <.Lline_table_start1+0xb4f>
   16b24:	458d                	li	a1,3
   16b26:	4601                	li	a2,0
   16b28:	4681                	li	a3,0
   16b2a:	8726                	mv	a4,s1
   16b2c:	00000073          	ecall
   16b30:	50ba                	lw	ra,172(sp)
   16b32:	542a                	lw	s0,168(sp)
   16b34:	549a                	lw	s1,164(sp)
   16b36:	590a                	lw	s2,160(sp)
   16b38:	49fa                	lw	s3,156(sp)
   16b3a:	614d                	addi	sp,sp,176
   16b3c:	8082                	ret
   16b3e:	00e14703          	lbu	a4,14(sp)
   16b42:	00c71463          	bne	a4,a2,16b4a <_ZN20complex_dynamic_type3app17hbb8ce8a9cb56decfE+0x108>
   16b46:	470d                	li	a4,3
   16b48:	a825                	j	16b80 <_ZN20complex_dynamic_type3app17hbb8ce8a9cb56decfE+0x13e>
   16b4a:	6505                	lui	a0,0x1
   16b4c:	d7a50513          	addi	a0,a0,-646 # d7a <.Lline_table_start1+0xb4f>
   16b50:	458d                	li	a1,3
   16b52:	4601                	li	a2,0
   16b54:	4681                	li	a3,0
   16b56:	00000073          	ecall
   16b5a:	05f14703          	lbu	a4,95(sp)
   16b5e:	4509                	li	a0,2
   16b60:	00a10723          	sb	a0,14(sp)
   16b64:	00a71e63          	bne	a4,a0,16b80 <_ZN20complex_dynamic_type3app17hbb8ce8a9cb56decfE+0x13e>
   16b68:	00198513          	addi	a0,s3,1
   16b6c:	03c00613          	li	a2,60
   16b70:	85ca                	mv	a1,s2
   16b72:	00007097          	auipc	ra,0x7
   16b76:	c04080e7          	jalr	-1020(ra) # 1d776 <memcpy>
   16b7a:	00098023          	sb	zero,0(s3)
   16b7e:	bf4d                	j	16b30 <_ZN20complex_dynamic_type3app17hbb8ce8a9cb56decfE+0xee>
   16b80:	6505                	lui	a0,0x1
   16b82:	d7a50513          	addi	a0,a0,-646 # d7a <.Lline_table_start1+0xb4f>
   16b86:	45a5                	li	a1,9
   16b88:	4601                	li	a2,0
   16b8a:	4681                	li	a3,0
   16b8c:	00000073          	ecall
   16b90:	00e14483          	lbu	s1,14(sp)
   16b94:	00198513          	addi	a0,s3,1
   16b98:	03c00613          	li	a2,60
   16b9c:	85ca                	mv	a1,s2
   16b9e:	00007097          	auipc	ra,0x7
   16ba2:	bd8080e7          	jalr	-1064(ra) # 1d776 <memcpy>
   16ba6:	4509                	li	a0,2
   16ba8:	00098023          	sb	zero,0(s3)
   16bac:	f6a499e3          	bne	s1,a0,16b1e <_ZN20complex_dynamic_type3app17hbb8ce8a9cb56decfE+0xdc>
   16bb0:	b741                	j	16b30 <_ZN20complex_dynamic_type3app17hbb8ce8a9cb56decfE+0xee>

00016bb2 <_ZN20complex_dynamic_type3app17hbbd4d598de420c38E>:
   16bb2:	7175                	addi	sp,sp,-144
   16bb4:	c706                	sw	ra,140(sp)
   16bb6:	c522                	sw	s0,136(sp)
   16bb8:	c326                	sw	s1,132(sp)
   16bba:	c14a                	sw	s2,128(sp)
   16bbc:	dece                	sw	s3,124(sp)
   16bbe:	89aa                	mv	s3,a0
   16bc0:	4409                	li	s0,2
   16bc2:	008100a3          	sb	s0,1(sp)
   16bc6:	00210493          	addi	s1,sp,2
   16bca:	03100613          	li	a2,49
   16bce:	8526                	mv	a0,s1
   16bd0:	00007097          	auipc	ra,0x7
   16bd4:	ba6080e7          	jalr	-1114(ra) # 1d776 <memcpy>
   16bd8:	03410913          	addi	s2,sp,52
   16bdc:	04800613          	li	a2,72
   16be0:	854a                	mv	a0,s2
   16be2:	4581                	li	a1,0
   16be4:	00007097          	auipc	ra,0x7
   16be8:	b26080e7          	jalr	-1242(ra) # 1d70a <memset>
   16bec:	8626                	mv	a2,s1
   16bee:	028109a3          	sb	s0,51(sp)
   16bf2:	6509                	lui	a0,0x2
   16bf4:	4491                	li	s1,4
   16bf6:	4591                	li	a1,4
   16bf8:	80e50793          	addi	a5,a0,-2034 # 180e <.Lline_table_start1+0x15e3>
   16bfc:	03100693          	li	a3,49
   16c00:	4711                	li	a4,4
   16c02:	853e                	mv	a0,a5
   16c04:	00000073          	ecall
   16c08:	00851863          	bne	a0,s0,16c18 <_ZN20complex_dynamic_type3app17hbbd4d598de420c38E+0x66>
   16c0c:	4505                	li	a0,1
   16c0e:	00a98023          	sb	a0,0(s3)
   16c12:	00b9a223          	sw	a1,4(s3)
   16c16:	a0bd                	j	16c84 <_ZN20complex_dynamic_type3app17hbbd4d598de420c38E+0xd2>
   16c18:	853e                	mv	a0,a5
   16c1a:	864a                	mv	a2,s2
   16c1c:	009100a3          	sb	s1,1(sp)
   16c20:	478d                	li	a5,3
   16c22:	458d                	li	a1,3
   16c24:	04800693          	li	a3,72
   16c28:	470d                	li	a4,3
   16c2a:	00000073          	ecall
   16c2e:	00851d63          	bne	a0,s0,16c48 <_ZN20complex_dynamic_type3app17hbbd4d598de420c38E+0x96>
   16c32:	03314703          	lbu	a4,51(sp)
   16c36:	4505                	li	a0,1
   16c38:	4609                	li	a2,2
   16c3a:	00a98023          	sb	a0,0(s3)
   16c3e:	00b9a223          	sw	a1,4(s3)
   16c42:	02c71963          	bne	a4,a2,16c74 <_ZN20complex_dynamic_type3app17hbbd4d598de420c38E+0xc2>
   16c46:	a83d                	j	16c84 <_ZN20complex_dynamic_type3app17hbbd4d598de420c38E+0xd2>
   16c48:	4681                	li	a3,0
   16c4a:	02f109a3          	sb	a5,51(sp)
   16c4e:	6509                	lui	a0,0x2
   16c50:	4591                	li	a1,4
   16c52:	460d                	li	a2,3
   16c54:	4709                	li	a4,2
   16c56:	80e50513          	addi	a0,a0,-2034 # 180e <.Lline_table_start1+0x15e3>
   16c5a:	07f00793          	li	a5,127
   16c5e:	00000073          	ecall
   16c62:	4609                	li	a2,2
   16c64:	04a7e563          	bltu	a5,a0,16cae <_ZN20complex_dynamic_type3app17hbbd4d598de420c38E+0xfc>
   16c68:	4505                	li	a0,1
   16c6a:	00a98023          	sb	a0,0(s3)
   16c6e:	00b9a223          	sw	a1,4(s3)
   16c72:	470d                	li	a4,3
   16c74:	6509                	lui	a0,0x2
   16c76:	80e50513          	addi	a0,a0,-2034 # 180e <.Lline_table_start1+0x15e3>
   16c7a:	458d                	li	a1,3
   16c7c:	4601                	li	a2,0
   16c7e:	4681                	li	a3,0
   16c80:	00000073          	ecall
   16c84:	00114483          	lbu	s1,1(sp)
   16c88:	4509                	li	a0,2
   16c8a:	00a48b63          	beq	s1,a0,16ca0 <_ZN20complex_dynamic_type3app17hbbd4d598de420c38E+0xee>
   16c8e:	6509                	lui	a0,0x2
   16c90:	80e50513          	addi	a0,a0,-2034 # 180e <.Lline_table_start1+0x15e3>
   16c94:	4591                	li	a1,4
   16c96:	4601                	li	a2,0
   16c98:	4681                	li	a3,0
   16c9a:	8726                	mv	a4,s1
   16c9c:	00000073          	ecall
   16ca0:	40ba                	lw	ra,140(sp)
   16ca2:	442a                	lw	s0,136(sp)
   16ca4:	449a                	lw	s1,132(sp)
   16ca6:	490a                	lw	s2,128(sp)
   16ca8:	59f6                	lw	s3,124(sp)
   16caa:	6149                	addi	sp,sp,144
   16cac:	8082                	ret
   16cae:	00114703          	lbu	a4,1(sp)
   16cb2:	00c71463          	bne	a4,a2,16cba <_ZN20complex_dynamic_type3app17hbbd4d598de420c38E+0x108>
   16cb6:	470d                	li	a4,3
   16cb8:	a825                	j	16cf0 <_ZN20complex_dynamic_type3app17hbbd4d598de420c38E+0x13e>
   16cba:	6509                	lui	a0,0x2
   16cbc:	80e50513          	addi	a0,a0,-2034 # 180e <.Lline_table_start1+0x15e3>
   16cc0:	4591                	li	a1,4
   16cc2:	4601                	li	a2,0
   16cc4:	4681                	li	a3,0
   16cc6:	00000073          	ecall
   16cca:	03314703          	lbu	a4,51(sp)
   16cce:	4509                	li	a0,2
   16cd0:	00a100a3          	sb	a0,1(sp)
   16cd4:	00a71e63          	bne	a4,a0,16cf0 <_ZN20complex_dynamic_type3app17hbbd4d598de420c38E+0x13e>
   16cd8:	00198513          	addi	a0,s3,1
   16cdc:	04800613          	li	a2,72
   16ce0:	85ca                	mv	a1,s2
   16ce2:	00007097          	auipc	ra,0x7
   16ce6:	a94080e7          	jalr	-1388(ra) # 1d776 <memcpy>
   16cea:	00098023          	sb	zero,0(s3)
   16cee:	bf4d                	j	16ca0 <_ZN20complex_dynamic_type3app17hbbd4d598de420c38E+0xee>
   16cf0:	6509                	lui	a0,0x2
   16cf2:	80e50513          	addi	a0,a0,-2034 # 180e <.Lline_table_start1+0x15e3>
   16cf6:	458d                	li	a1,3
   16cf8:	4601                	li	a2,0
   16cfa:	4681                	li	a3,0
   16cfc:	00000073          	ecall
   16d00:	00114483          	lbu	s1,1(sp)
   16d04:	00198513          	addi	a0,s3,1
   16d08:	04800613          	li	a2,72
   16d0c:	85ca                	mv	a1,s2
   16d0e:	00007097          	auipc	ra,0x7
   16d12:	a68080e7          	jalr	-1432(ra) # 1d776 <memcpy>
   16d16:	4509                	li	a0,2
   16d18:	00098023          	sb	zero,0(s3)
   16d1c:	f6a499e3          	bne	s1,a0,16c8e <_ZN20complex_dynamic_type3app17hbbd4d598de420c38E+0xdc>
   16d20:	b741                	j	16ca0 <_ZN20complex_dynamic_type3app17hbbd4d598de420c38E+0xee>

00016d22 <_ZN20complex_dynamic_type3app17hbc3c001d6342a7d5E>:
   16d22:	711d                	addi	sp,sp,-96
   16d24:	ce86                	sw	ra,92(sp)
   16d26:	cca2                	sw	s0,88(sp)
   16d28:	caa6                	sw	s1,84(sp)
   16d2a:	c8ca                	sw	s2,80(sp)
   16d2c:	c6ce                	sw	s3,76(sp)
   16d2e:	89aa                	mv	s3,a0
   16d30:	4409                	li	s0,2
   16d32:	008102a3          	sb	s0,5(sp)
   16d36:	00610493          	addi	s1,sp,6
   16d3a:	03600613          	li	a2,54
   16d3e:	8526                	mv	a0,s1
   16d40:	00007097          	auipc	ra,0x7
   16d44:	a36080e7          	jalr	-1482(ra) # 1d776 <memcpy>
   16d48:	03d10913          	addi	s2,sp,61
   16d4c:	463d                	li	a2,15
   16d4e:	854a                	mv	a0,s2
   16d50:	4581                	li	a1,0
   16d52:	00007097          	auipc	ra,0x7
   16d56:	9b8080e7          	jalr	-1608(ra) # 1d70a <memset>
   16d5a:	8626                	mv	a2,s1
   16d5c:	02810e23          	sb	s0,60(sp)
   16d60:	4791                	li	a5,4
   16d62:	65300513          	li	a0,1619
   16d66:	4595                	li	a1,5
   16d68:	03600693          	li	a3,54
   16d6c:	4711                	li	a4,4
   16d6e:	00000073          	ecall
   16d72:	00851863          	bne	a0,s0,16d82 <_ZN20complex_dynamic_type3app17hbc3c001d6342a7d5E+0x60>
   16d76:	4505                	li	a0,1
   16d78:	00a98023          	sb	a0,0(s3)
   16d7c:	00b9a223          	sw	a1,4(s3)
   16d80:	a0ad                	j	16dea <_ZN20complex_dynamic_type3app17hbc3c001d6342a7d5E+0xc8>
   16d82:	864a                	mv	a2,s2
   16d84:	00f102a3          	sb	a5,5(sp)
   16d88:	478d                	li	a5,3
   16d8a:	65300513          	li	a0,1619
   16d8e:	458d                	li	a1,3
   16d90:	46bd                	li	a3,15
   16d92:	470d                	li	a4,3
   16d94:	00000073          	ecall
   16d98:	00851d63          	bne	a0,s0,16db2 <_ZN20complex_dynamic_type3app17hbc3c001d6342a7d5E+0x90>
   16d9c:	03c14703          	lbu	a4,60(sp)
   16da0:	4505                	li	a0,1
   16da2:	4609                	li	a2,2
   16da4:	00a98023          	sb	a0,0(s3)
   16da8:	00b9a223          	sw	a1,4(s3)
   16dac:	02c71863          	bne	a4,a2,16ddc <_ZN20complex_dynamic_type3app17hbc3c001d6342a7d5E+0xba>
   16db0:	a82d                	j	16dea <_ZN20complex_dynamic_type3app17hbc3c001d6342a7d5E+0xc8>
   16db2:	4681                	li	a3,0
   16db4:	02f10e23          	sb	a5,60(sp)
   16db8:	65300513          	li	a0,1619
   16dbc:	4595                	li	a1,5
   16dbe:	460d                	li	a2,3
   16dc0:	4709                	li	a4,2
   16dc2:	07f00793          	li	a5,127
   16dc6:	00000073          	ecall
   16dca:	4609                	li	a2,2
   16dcc:	04a7e363          	bltu	a5,a0,16e12 <_ZN20complex_dynamic_type3app17hbc3c001d6342a7d5E+0xf0>
   16dd0:	4505                	li	a0,1
   16dd2:	00a98023          	sb	a0,0(s3)
   16dd6:	00b9a223          	sw	a1,4(s3)
   16dda:	470d                	li	a4,3
   16ddc:	65300513          	li	a0,1619
   16de0:	458d                	li	a1,3
   16de2:	4601                	li	a2,0
   16de4:	4681                	li	a3,0
   16de6:	00000073          	ecall
   16dea:	00514483          	lbu	s1,5(sp)
   16dee:	4509                	li	a0,2
   16df0:	00a48a63          	beq	s1,a0,16e04 <_ZN20complex_dynamic_type3app17hbc3c001d6342a7d5E+0xe2>
   16df4:	65300513          	li	a0,1619
   16df8:	4595                	li	a1,5
   16dfa:	4601                	li	a2,0
   16dfc:	4681                	li	a3,0
   16dfe:	8726                	mv	a4,s1
   16e00:	00000073          	ecall
   16e04:	40f6                	lw	ra,92(sp)
   16e06:	4466                	lw	s0,88(sp)
   16e08:	44d6                	lw	s1,84(sp)
   16e0a:	4946                	lw	s2,80(sp)
   16e0c:	49b6                	lw	s3,76(sp)
   16e0e:	6125                	addi	sp,sp,96
   16e10:	8082                	ret
   16e12:	00514703          	lbu	a4,5(sp)
   16e16:	00c71463          	bne	a4,a2,16e1e <_ZN20complex_dynamic_type3app17hbc3c001d6342a7d5E+0xfc>
   16e1a:	470d                	li	a4,3
   16e1c:	a815                	j	16e50 <_ZN20complex_dynamic_type3app17hbc3c001d6342a7d5E+0x12e>
   16e1e:	65300513          	li	a0,1619
   16e22:	4595                	li	a1,5
   16e24:	4601                	li	a2,0
   16e26:	4681                	li	a3,0
   16e28:	00000073          	ecall
   16e2c:	03c14703          	lbu	a4,60(sp)
   16e30:	4509                	li	a0,2
   16e32:	00a102a3          	sb	a0,5(sp)
   16e36:	00a71d63          	bne	a4,a0,16e50 <_ZN20complex_dynamic_type3app17hbc3c001d6342a7d5E+0x12e>
   16e3a:	00198513          	addi	a0,s3,1
   16e3e:	463d                	li	a2,15
   16e40:	85ca                	mv	a1,s2
   16e42:	00007097          	auipc	ra,0x7
   16e46:	934080e7          	jalr	-1740(ra) # 1d776 <memcpy>
   16e4a:	00098023          	sb	zero,0(s3)
   16e4e:	bf5d                	j	16e04 <_ZN20complex_dynamic_type3app17hbc3c001d6342a7d5E+0xe2>
   16e50:	65300513          	li	a0,1619
   16e54:	458d                	li	a1,3
   16e56:	4601                	li	a2,0
   16e58:	4681                	li	a3,0
   16e5a:	00000073          	ecall
   16e5e:	00514483          	lbu	s1,5(sp)
   16e62:	00198513          	addi	a0,s3,1
   16e66:	463d                	li	a2,15
   16e68:	85ca                	mv	a1,s2
   16e6a:	00007097          	auipc	ra,0x7
   16e6e:	90c080e7          	jalr	-1780(ra) # 1d776 <memcpy>
   16e72:	4509                	li	a0,2
   16e74:	00098023          	sb	zero,0(s3)
   16e78:	f6a49ee3          	bne	s1,a0,16df4 <_ZN20complex_dynamic_type3app17hbc3c001d6342a7d5E+0xd2>
   16e7c:	b761                	j	16e04 <_ZN20complex_dynamic_type3app17hbc3c001d6342a7d5E+0xe2>

00016e7e <_ZN20complex_dynamic_type3app17hc061f10eb108410aE>:
   16e7e:	7155                	addi	sp,sp,-208
   16e80:	c786                	sw	ra,204(sp)
   16e82:	c5a2                	sw	s0,200(sp)
   16e84:	c3a6                	sw	s1,196(sp)
   16e86:	c1ca                	sw	s2,192(sp)
   16e88:	df4e                	sw	s3,188(sp)
   16e8a:	89aa                	mv	s3,a0
   16e8c:	4409                	li	s0,2
   16e8e:	00810523          	sb	s0,10(sp)
   16e92:	00b10493          	addi	s1,sp,11
   16e96:	04f00613          	li	a2,79
   16e9a:	8526                	mv	a0,s1
   16e9c:	00007097          	auipc	ra,0x7
   16ea0:	8da080e7          	jalr	-1830(ra) # 1d776 <memcpy>
   16ea4:	05b10913          	addi	s2,sp,91
   16ea8:	06100613          	li	a2,97
   16eac:	854a                	mv	a0,s2
   16eae:	4581                	li	a1,0
   16eb0:	00007097          	auipc	ra,0x7
   16eb4:	85a080e7          	jalr	-1958(ra) # 1d70a <memset>
   16eb8:	8626                	mv	a2,s1
   16eba:	04810d23          	sb	s0,90(sp)
   16ebe:	4791                	li	a5,4
   16ec0:	1b600513          	li	a0,438
   16ec4:	4589                	li	a1,2
   16ec6:	04f00693          	li	a3,79
   16eca:	4711                	li	a4,4
   16ecc:	00000073          	ecall
   16ed0:	00851863          	bne	a0,s0,16ee0 <_ZN20complex_dynamic_type3app17hc061f10eb108410aE+0x62>
   16ed4:	4505                	li	a0,1
   16ed6:	00a98023          	sb	a0,0(s3)
   16eda:	00b9a223          	sw	a1,4(s3)
   16ede:	a0b5                	j	16f4a <_ZN20complex_dynamic_type3app17hc061f10eb108410aE+0xcc>
   16ee0:	864a                	mv	a2,s2
   16ee2:	00f10523          	sb	a5,10(sp)
   16ee6:	478d                	li	a5,3
   16ee8:	1b600513          	li	a0,438
   16eec:	45a1                	li	a1,8
   16eee:	06100693          	li	a3,97
   16ef2:	470d                	li	a4,3
   16ef4:	00000073          	ecall
   16ef8:	00851d63          	bne	a0,s0,16f12 <_ZN20complex_dynamic_type3app17hc061f10eb108410aE+0x94>
   16efc:	05a14703          	lbu	a4,90(sp)
   16f00:	4505                	li	a0,1
   16f02:	4609                	li	a2,2
   16f04:	00a98023          	sb	a0,0(s3)
   16f08:	00b9a223          	sw	a1,4(s3)
   16f0c:	02c71863          	bne	a4,a2,16f3c <_ZN20complex_dynamic_type3app17hc061f10eb108410aE+0xbe>
   16f10:	a82d                	j	16f4a <_ZN20complex_dynamic_type3app17hc061f10eb108410aE+0xcc>
   16f12:	4681                	li	a3,0
   16f14:	04f10d23          	sb	a5,90(sp)
   16f18:	1b600513          	li	a0,438
   16f1c:	4589                	li	a1,2
   16f1e:	4621                	li	a2,8
   16f20:	4709                	li	a4,2
   16f22:	07f00793          	li	a5,127
   16f26:	00000073          	ecall
   16f2a:	4609                	li	a2,2
   16f2c:	04a7e363          	bltu	a5,a0,16f72 <_ZN20complex_dynamic_type3app17hc061f10eb108410aE+0xf4>
   16f30:	4505                	li	a0,1
   16f32:	00a98023          	sb	a0,0(s3)
   16f36:	00b9a223          	sw	a1,4(s3)
   16f3a:	470d                	li	a4,3
   16f3c:	1b600513          	li	a0,438
   16f40:	45a1                	li	a1,8
   16f42:	4601                	li	a2,0
   16f44:	4681                	li	a3,0
   16f46:	00000073          	ecall
   16f4a:	00a14483          	lbu	s1,10(sp)
   16f4e:	4509                	li	a0,2
   16f50:	00a48a63          	beq	s1,a0,16f64 <_ZN20complex_dynamic_type3app17hc061f10eb108410aE+0xe6>
   16f54:	1b600513          	li	a0,438
   16f58:	4589                	li	a1,2
   16f5a:	4601                	li	a2,0
   16f5c:	4681                	li	a3,0
   16f5e:	8726                	mv	a4,s1
   16f60:	00000073          	ecall
   16f64:	40be                	lw	ra,204(sp)
   16f66:	442e                	lw	s0,200(sp)
   16f68:	449e                	lw	s1,196(sp)
   16f6a:	490e                	lw	s2,192(sp)
   16f6c:	59fa                	lw	s3,188(sp)
   16f6e:	6169                	addi	sp,sp,208
   16f70:	8082                	ret
   16f72:	00a14703          	lbu	a4,10(sp)
   16f76:	00c71463          	bne	a4,a2,16f7e <_ZN20complex_dynamic_type3app17hc061f10eb108410aE+0x100>
   16f7a:	470d                	li	a4,3
   16f7c:	a81d                	j	16fb2 <_ZN20complex_dynamic_type3app17hc061f10eb108410aE+0x134>
   16f7e:	1b600513          	li	a0,438
   16f82:	4589                	li	a1,2
   16f84:	4601                	li	a2,0
   16f86:	4681                	li	a3,0
   16f88:	00000073          	ecall
   16f8c:	05a14703          	lbu	a4,90(sp)
   16f90:	4509                	li	a0,2
   16f92:	00a10523          	sb	a0,10(sp)
   16f96:	00a71e63          	bne	a4,a0,16fb2 <_ZN20complex_dynamic_type3app17hc061f10eb108410aE+0x134>
   16f9a:	00198513          	addi	a0,s3,1
   16f9e:	06100613          	li	a2,97
   16fa2:	85ca                	mv	a1,s2
   16fa4:	00006097          	auipc	ra,0x6
   16fa8:	7d2080e7          	jalr	2002(ra) # 1d776 <memcpy>
   16fac:	00098023          	sb	zero,0(s3)
   16fb0:	bf55                	j	16f64 <_ZN20complex_dynamic_type3app17hc061f10eb108410aE+0xe6>
   16fb2:	1b600513          	li	a0,438
   16fb6:	45a1                	li	a1,8
   16fb8:	4601                	li	a2,0
   16fba:	4681                	li	a3,0
   16fbc:	00000073          	ecall
   16fc0:	00a14483          	lbu	s1,10(sp)
   16fc4:	00198513          	addi	a0,s3,1
   16fc8:	06100613          	li	a2,97
   16fcc:	85ca                	mv	a1,s2
   16fce:	00006097          	auipc	ra,0x6
   16fd2:	7a8080e7          	jalr	1960(ra) # 1d776 <memcpy>
   16fd6:	4509                	li	a0,2
   16fd8:	00098023          	sb	zero,0(s3)
   16fdc:	f6a49ce3          	bne	s1,a0,16f54 <_ZN20complex_dynamic_type3app17hc061f10eb108410aE+0xd6>
   16fe0:	b751                	j	16f64 <_ZN20complex_dynamic_type3app17hc061f10eb108410aE+0xe6>

00016fe2 <_ZN20complex_dynamic_type3app17hca41afe10b8665d2E>:
   16fe2:	7175                	addi	sp,sp,-144
   16fe4:	c706                	sw	ra,140(sp)
   16fe6:	c522                	sw	s0,136(sp)
   16fe8:	c326                	sw	s1,132(sp)
   16fea:	c14a                	sw	s2,128(sp)
   16fec:	dece                	sw	s3,124(sp)
   16fee:	89aa                	mv	s3,a0
   16ff0:	4409                	li	s0,2
   16ff2:	00810323          	sb	s0,6(sp)
   16ff6:	00710493          	addi	s1,sp,7
   16ffa:	03c00613          	li	a2,60
   16ffe:	8526                	mv	a0,s1
   17000:	00006097          	auipc	ra,0x6
   17004:	776080e7          	jalr	1910(ra) # 1d776 <memcpy>
   17008:	04410913          	addi	s2,sp,68
   1700c:	03800613          	li	a2,56
   17010:	854a                	mv	a0,s2
   17012:	4581                	li	a1,0
   17014:	00006097          	auipc	ra,0x6
   17018:	6f6080e7          	jalr	1782(ra) # 1d70a <memset>
   1701c:	8626                	mv	a2,s1
   1701e:	048101a3          	sb	s0,67(sp)
   17022:	6509                	lui	a0,0x2
   17024:	4491                	li	s1,4
   17026:	458d                	li	a1,3
   17028:	d1950793          	addi	a5,a0,-743 # 1d19 <.Lline_table_start1+0x1aee>
   1702c:	03c00693          	li	a3,60
   17030:	4711                	li	a4,4
   17032:	853e                	mv	a0,a5
   17034:	00000073          	ecall
   17038:	00851863          	bne	a0,s0,17048 <_ZN20complex_dynamic_type3app17hca41afe10b8665d2E+0x66>
   1703c:	4505                	li	a0,1
   1703e:	00a98023          	sb	a0,0(s3)
   17042:	00b9a223          	sw	a1,4(s3)
   17046:	a0bd                	j	170b4 <_ZN20complex_dynamic_type3app17hca41afe10b8665d2E+0xd2>
   17048:	853e                	mv	a0,a5
   1704a:	864a                	mv	a2,s2
   1704c:	00910323          	sb	s1,6(sp)
   17050:	478d                	li	a5,3
   17052:	458d                	li	a1,3
   17054:	03800693          	li	a3,56
   17058:	470d                	li	a4,3
   1705a:	00000073          	ecall
   1705e:	00851d63          	bne	a0,s0,17078 <_ZN20complex_dynamic_type3app17hca41afe10b8665d2E+0x96>
   17062:	04314703          	lbu	a4,67(sp)
   17066:	4505                	li	a0,1
   17068:	4609                	li	a2,2
   1706a:	00a98023          	sb	a0,0(s3)
   1706e:	00b9a223          	sw	a1,4(s3)
   17072:	02c71963          	bne	a4,a2,170a4 <_ZN20complex_dynamic_type3app17hca41afe10b8665d2E+0xc2>
   17076:	a83d                	j	170b4 <_ZN20complex_dynamic_type3app17hca41afe10b8665d2E+0xd2>
   17078:	4681                	li	a3,0
   1707a:	04f101a3          	sb	a5,67(sp)
   1707e:	6509                	lui	a0,0x2
   17080:	458d                	li	a1,3
   17082:	460d                	li	a2,3
   17084:	4709                	li	a4,2
   17086:	d1950513          	addi	a0,a0,-743 # 1d19 <.Lline_table_start1+0x1aee>
   1708a:	07f00793          	li	a5,127
   1708e:	00000073          	ecall
   17092:	4609                	li	a2,2
   17094:	04a7e563          	bltu	a5,a0,170de <_ZN20complex_dynamic_type3app17hca41afe10b8665d2E+0xfc>
   17098:	4505                	li	a0,1
   1709a:	00a98023          	sb	a0,0(s3)
   1709e:	00b9a223          	sw	a1,4(s3)
   170a2:	470d                	li	a4,3
   170a4:	6509                	lui	a0,0x2
   170a6:	d1950513          	addi	a0,a0,-743 # 1d19 <.Lline_table_start1+0x1aee>
   170aa:	458d                	li	a1,3
   170ac:	4601                	li	a2,0
   170ae:	4681                	li	a3,0
   170b0:	00000073          	ecall
   170b4:	00614483          	lbu	s1,6(sp)
   170b8:	4509                	li	a0,2
   170ba:	00a48b63          	beq	s1,a0,170d0 <_ZN20complex_dynamic_type3app17hca41afe10b8665d2E+0xee>
   170be:	6509                	lui	a0,0x2
   170c0:	d1950513          	addi	a0,a0,-743 # 1d19 <.Lline_table_start1+0x1aee>
   170c4:	458d                	li	a1,3
   170c6:	4601                	li	a2,0
   170c8:	4681                	li	a3,0
   170ca:	8726                	mv	a4,s1
   170cc:	00000073          	ecall
   170d0:	40ba                	lw	ra,140(sp)
   170d2:	442a                	lw	s0,136(sp)
   170d4:	449a                	lw	s1,132(sp)
   170d6:	490a                	lw	s2,128(sp)
   170d8:	59f6                	lw	s3,124(sp)
   170da:	6149                	addi	sp,sp,144
   170dc:	8082                	ret
   170de:	00614703          	lbu	a4,6(sp)
   170e2:	00c71463          	bne	a4,a2,170ea <_ZN20complex_dynamic_type3app17hca41afe10b8665d2E+0x108>
   170e6:	470d                	li	a4,3
   170e8:	a825                	j	17120 <_ZN20complex_dynamic_type3app17hca41afe10b8665d2E+0x13e>
   170ea:	6509                	lui	a0,0x2
   170ec:	d1950513          	addi	a0,a0,-743 # 1d19 <.Lline_table_start1+0x1aee>
   170f0:	458d                	li	a1,3
   170f2:	4601                	li	a2,0
   170f4:	4681                	li	a3,0
   170f6:	00000073          	ecall
   170fa:	04314703          	lbu	a4,67(sp)
   170fe:	4509                	li	a0,2
   17100:	00a10323          	sb	a0,6(sp)
   17104:	00a71e63          	bne	a4,a0,17120 <_ZN20complex_dynamic_type3app17hca41afe10b8665d2E+0x13e>
   17108:	00198513          	addi	a0,s3,1
   1710c:	03800613          	li	a2,56
   17110:	85ca                	mv	a1,s2
   17112:	00006097          	auipc	ra,0x6
   17116:	664080e7          	jalr	1636(ra) # 1d776 <memcpy>
   1711a:	00098023          	sb	zero,0(s3)
   1711e:	bf4d                	j	170d0 <_ZN20complex_dynamic_type3app17hca41afe10b8665d2E+0xee>
   17120:	6509                	lui	a0,0x2
   17122:	d1950513          	addi	a0,a0,-743 # 1d19 <.Lline_table_start1+0x1aee>
   17126:	458d                	li	a1,3
   17128:	4601                	li	a2,0
   1712a:	4681                	li	a3,0
   1712c:	00000073          	ecall
   17130:	00614483          	lbu	s1,6(sp)
   17134:	00198513          	addi	a0,s3,1
   17138:	03800613          	li	a2,56
   1713c:	85ca                	mv	a1,s2
   1713e:	00006097          	auipc	ra,0x6
   17142:	638080e7          	jalr	1592(ra) # 1d776 <memcpy>
   17146:	4509                	li	a0,2
   17148:	00098023          	sb	zero,0(s3)
   1714c:	f6a499e3          	bne	s1,a0,170be <_ZN20complex_dynamic_type3app17hca41afe10b8665d2E+0xdc>
   17150:	b741                	j	170d0 <_ZN20complex_dynamic_type3app17hca41afe10b8665d2E+0xee>

00017152 <_ZN20complex_dynamic_type3app17hccdcc8bbb55d234fE>:
   17152:	7119                	addi	sp,sp,-128
   17154:	de86                	sw	ra,124(sp)
   17156:	dca2                	sw	s0,120(sp)
   17158:	daa6                	sw	s1,116(sp)
   1715a:	d8ca                	sw	s2,112(sp)
   1715c:	d6ce                	sw	s3,108(sp)
   1715e:	89aa                	mv	s3,a0
   17160:	4409                	li	s0,2
   17162:	00810723          	sb	s0,14(sp)
   17166:	00f10493          	addi	s1,sp,15
   1716a:	466d                	li	a2,27
   1716c:	8526                	mv	a0,s1
   1716e:	00006097          	auipc	ra,0x6
   17172:	608080e7          	jalr	1544(ra) # 1d776 <memcpy>
   17176:	02b10913          	addi	s2,sp,43
   1717a:	04100613          	li	a2,65
   1717e:	854a                	mv	a0,s2
   17180:	4581                	li	a1,0
   17182:	00006097          	auipc	ra,0x6
   17186:	588080e7          	jalr	1416(ra) # 1d70a <memset>
   1718a:	8626                	mv	a2,s1
   1718c:	02810523          	sb	s0,42(sp)
   17190:	4791                	li	a5,4
   17192:	14000513          	li	a0,320
   17196:	45a1                	li	a1,8
   17198:	46ed                	li	a3,27
   1719a:	4711                	li	a4,4
   1719c:	00000073          	ecall
   171a0:	00851863          	bne	a0,s0,171b0 <_ZN20complex_dynamic_type3app17hccdcc8bbb55d234fE+0x5e>
   171a4:	4505                	li	a0,1
   171a6:	00a98023          	sb	a0,0(s3)
   171aa:	00b9a223          	sw	a1,4(s3)
   171ae:	a0b5                	j	1721a <_ZN20complex_dynamic_type3app17hccdcc8bbb55d234fE+0xc8>
   171b0:	864a                	mv	a2,s2
   171b2:	00f10723          	sb	a5,14(sp)
   171b6:	478d                	li	a5,3
   171b8:	14000513          	li	a0,320
   171bc:	45a5                	li	a1,9
   171be:	04100693          	li	a3,65
   171c2:	470d                	li	a4,3
   171c4:	00000073          	ecall
   171c8:	00851d63          	bne	a0,s0,171e2 <_ZN20complex_dynamic_type3app17hccdcc8bbb55d234fE+0x90>
   171cc:	02a14703          	lbu	a4,42(sp)
   171d0:	4505                	li	a0,1
   171d2:	4609                	li	a2,2
   171d4:	00a98023          	sb	a0,0(s3)
   171d8:	00b9a223          	sw	a1,4(s3)
   171dc:	02c71863          	bne	a4,a2,1720c <_ZN20complex_dynamic_type3app17hccdcc8bbb55d234fE+0xba>
   171e0:	a82d                	j	1721a <_ZN20complex_dynamic_type3app17hccdcc8bbb55d234fE+0xc8>
   171e2:	4681                	li	a3,0
   171e4:	02f10523          	sb	a5,42(sp)
   171e8:	14000513          	li	a0,320
   171ec:	45a1                	li	a1,8
   171ee:	4625                	li	a2,9
   171f0:	4709                	li	a4,2
   171f2:	07f00793          	li	a5,127
   171f6:	00000073          	ecall
   171fa:	4609                	li	a2,2
   171fc:	04a7e363          	bltu	a5,a0,17242 <_ZN20complex_dynamic_type3app17hccdcc8bbb55d234fE+0xf0>
   17200:	4505                	li	a0,1
   17202:	00a98023          	sb	a0,0(s3)
   17206:	00b9a223          	sw	a1,4(s3)
   1720a:	470d                	li	a4,3
   1720c:	14000513          	li	a0,320
   17210:	45a5                	li	a1,9
   17212:	4601                	li	a2,0
   17214:	4681                	li	a3,0
   17216:	00000073          	ecall
   1721a:	00e14483          	lbu	s1,14(sp)
   1721e:	4509                	li	a0,2
   17220:	00a48a63          	beq	s1,a0,17234 <_ZN20complex_dynamic_type3app17hccdcc8bbb55d234fE+0xe2>
   17224:	14000513          	li	a0,320
   17228:	45a1                	li	a1,8
   1722a:	4601                	li	a2,0
   1722c:	4681                	li	a3,0
   1722e:	8726                	mv	a4,s1
   17230:	00000073          	ecall
   17234:	50f6                	lw	ra,124(sp)
   17236:	5466                	lw	s0,120(sp)
   17238:	54d6                	lw	s1,116(sp)
   1723a:	5946                	lw	s2,112(sp)
   1723c:	59b6                	lw	s3,108(sp)
   1723e:	6109                	addi	sp,sp,128
   17240:	8082                	ret
   17242:	00e14703          	lbu	a4,14(sp)
   17246:	00c71463          	bne	a4,a2,1724e <_ZN20complex_dynamic_type3app17hccdcc8bbb55d234fE+0xfc>
   1724a:	470d                	li	a4,3
   1724c:	a81d                	j	17282 <_ZN20complex_dynamic_type3app17hccdcc8bbb55d234fE+0x130>
   1724e:	14000513          	li	a0,320
   17252:	45a1                	li	a1,8
   17254:	4601                	li	a2,0
   17256:	4681                	li	a3,0
   17258:	00000073          	ecall
   1725c:	02a14703          	lbu	a4,42(sp)
   17260:	4509                	li	a0,2
   17262:	00a10723          	sb	a0,14(sp)
   17266:	00a71e63          	bne	a4,a0,17282 <_ZN20complex_dynamic_type3app17hccdcc8bbb55d234fE+0x130>
   1726a:	00198513          	addi	a0,s3,1
   1726e:	04100613          	li	a2,65
   17272:	85ca                	mv	a1,s2
   17274:	00006097          	auipc	ra,0x6
   17278:	502080e7          	jalr	1282(ra) # 1d776 <memcpy>
   1727c:	00098023          	sb	zero,0(s3)
   17280:	bf55                	j	17234 <_ZN20complex_dynamic_type3app17hccdcc8bbb55d234fE+0xe2>
   17282:	14000513          	li	a0,320
   17286:	45a5                	li	a1,9
   17288:	4601                	li	a2,0
   1728a:	4681                	li	a3,0
   1728c:	00000073          	ecall
   17290:	00e14483          	lbu	s1,14(sp)
   17294:	00198513          	addi	a0,s3,1
   17298:	04100613          	li	a2,65
   1729c:	85ca                	mv	a1,s2
   1729e:	00006097          	auipc	ra,0x6
   172a2:	4d8080e7          	jalr	1240(ra) # 1d776 <memcpy>
   172a6:	4509                	li	a0,2
   172a8:	00098023          	sb	zero,0(s3)
   172ac:	f6a49ce3          	bne	s1,a0,17224 <_ZN20complex_dynamic_type3app17hccdcc8bbb55d234fE+0xd2>
   172b0:	b751                	j	17234 <_ZN20complex_dynamic_type3app17hccdcc8bbb55d234fE+0xe2>

000172b2 <_ZN20complex_dynamic_type3app17hcd2000040373da29E>:
   172b2:	7171                	addi	sp,sp,-176
   172b4:	d706                	sw	ra,172(sp)
   172b6:	d522                	sw	s0,168(sp)
   172b8:	d326                	sw	s1,164(sp)
   172ba:	d14a                	sw	s2,160(sp)
   172bc:	cf4e                	sw	s3,156(sp)
   172be:	89aa                	mv	s3,a0
   172c0:	4409                	li	s0,2
   172c2:	008106a3          	sb	s0,13(sp)
   172c6:	00e10493          	addi	s1,sp,14
   172ca:	02a00613          	li	a2,42
   172ce:	8526                	mv	a0,s1
   172d0:	00006097          	auipc	ra,0x6
   172d4:	4a6080e7          	jalr	1190(ra) # 1d776 <memcpy>
   172d8:	03910913          	addi	s2,sp,57
   172dc:	06300613          	li	a2,99
   172e0:	854a                	mv	a0,s2
   172e2:	4581                	li	a1,0
   172e4:	00006097          	auipc	ra,0x6
   172e8:	426080e7          	jalr	1062(ra) # 1d70a <memset>
   172ec:	8626                	mv	a2,s1
   172ee:	02810c23          	sb	s0,56(sp)
   172f2:	6509                	lui	a0,0x2
   172f4:	4491                	li	s1,4
   172f6:	4591                	li	a1,4
   172f8:	c7c50793          	addi	a5,a0,-900 # 1c7c <.Lline_table_start1+0x1a51>
   172fc:	02a00693          	li	a3,42
   17300:	4711                	li	a4,4
   17302:	853e                	mv	a0,a5
   17304:	00000073          	ecall
   17308:	00851863          	bne	a0,s0,17318 <_ZN20complex_dynamic_type3app17hcd2000040373da29E+0x66>
   1730c:	4505                	li	a0,1
   1730e:	00a98023          	sb	a0,0(s3)
   17312:	00b9a223          	sw	a1,4(s3)
   17316:	a0bd                	j	17384 <_ZN20complex_dynamic_type3app17hcd2000040373da29E+0xd2>
   17318:	853e                	mv	a0,a5
   1731a:	4581                	li	a1,0
   1731c:	864a                	mv	a2,s2
   1731e:	009106a3          	sb	s1,13(sp)
   17322:	478d                	li	a5,3
   17324:	06300693          	li	a3,99
   17328:	470d                	li	a4,3
   1732a:	00000073          	ecall
   1732e:	00851d63          	bne	a0,s0,17348 <_ZN20complex_dynamic_type3app17hcd2000040373da29E+0x96>
   17332:	03814703          	lbu	a4,56(sp)
   17336:	4505                	li	a0,1
   17338:	4609                	li	a2,2
   1733a:	00a98023          	sb	a0,0(s3)
   1733e:	00b9a223          	sw	a1,4(s3)
   17342:	02c71963          	bne	a4,a2,17374 <_ZN20complex_dynamic_type3app17hcd2000040373da29E+0xc2>
   17346:	a83d                	j	17384 <_ZN20complex_dynamic_type3app17hcd2000040373da29E+0xd2>
   17348:	4601                	li	a2,0
   1734a:	4681                	li	a3,0
   1734c:	02f10c23          	sb	a5,56(sp)
   17350:	6509                	lui	a0,0x2
   17352:	4591                	li	a1,4
   17354:	4709                	li	a4,2
   17356:	c7c50513          	addi	a0,a0,-900 # 1c7c <.Lline_table_start1+0x1a51>
   1735a:	07f00793          	li	a5,127
   1735e:	00000073          	ecall
   17362:	4609                	li	a2,2
   17364:	04a7e563          	bltu	a5,a0,173ae <_ZN20complex_dynamic_type3app17hcd2000040373da29E+0xfc>
   17368:	4505                	li	a0,1
   1736a:	00a98023          	sb	a0,0(s3)
   1736e:	00b9a223          	sw	a1,4(s3)
   17372:	470d                	li	a4,3
   17374:	6509                	lui	a0,0x2
   17376:	c7c50513          	addi	a0,a0,-900 # 1c7c <.Lline_table_start1+0x1a51>
   1737a:	4581                	li	a1,0
   1737c:	4601                	li	a2,0
   1737e:	4681                	li	a3,0
   17380:	00000073          	ecall
   17384:	00d14483          	lbu	s1,13(sp)
   17388:	4509                	li	a0,2
   1738a:	00a48b63          	beq	s1,a0,173a0 <_ZN20complex_dynamic_type3app17hcd2000040373da29E+0xee>
   1738e:	6509                	lui	a0,0x2
   17390:	c7c50513          	addi	a0,a0,-900 # 1c7c <.Lline_table_start1+0x1a51>
   17394:	4591                	li	a1,4
   17396:	4601                	li	a2,0
   17398:	4681                	li	a3,0
   1739a:	8726                	mv	a4,s1
   1739c:	00000073          	ecall
   173a0:	50ba                	lw	ra,172(sp)
   173a2:	542a                	lw	s0,168(sp)
   173a4:	549a                	lw	s1,164(sp)
   173a6:	590a                	lw	s2,160(sp)
   173a8:	49fa                	lw	s3,156(sp)
   173aa:	614d                	addi	sp,sp,176
   173ac:	8082                	ret
   173ae:	00d14703          	lbu	a4,13(sp)
   173b2:	00c71463          	bne	a4,a2,173ba <_ZN20complex_dynamic_type3app17hcd2000040373da29E+0x108>
   173b6:	470d                	li	a4,3
   173b8:	a825                	j	173f0 <_ZN20complex_dynamic_type3app17hcd2000040373da29E+0x13e>
   173ba:	6509                	lui	a0,0x2
   173bc:	c7c50513          	addi	a0,a0,-900 # 1c7c <.Lline_table_start1+0x1a51>
   173c0:	4591                	li	a1,4
   173c2:	4601                	li	a2,0
   173c4:	4681                	li	a3,0
   173c6:	00000073          	ecall
   173ca:	03814703          	lbu	a4,56(sp)
   173ce:	4509                	li	a0,2
   173d0:	00a106a3          	sb	a0,13(sp)
   173d4:	00a71e63          	bne	a4,a0,173f0 <_ZN20complex_dynamic_type3app17hcd2000040373da29E+0x13e>
   173d8:	00198513          	addi	a0,s3,1
   173dc:	06300613          	li	a2,99
   173e0:	85ca                	mv	a1,s2
   173e2:	00006097          	auipc	ra,0x6
   173e6:	394080e7          	jalr	916(ra) # 1d776 <memcpy>
   173ea:	00098023          	sb	zero,0(s3)
   173ee:	bf4d                	j	173a0 <_ZN20complex_dynamic_type3app17hcd2000040373da29E+0xee>
   173f0:	6509                	lui	a0,0x2
   173f2:	c7c50513          	addi	a0,a0,-900 # 1c7c <.Lline_table_start1+0x1a51>
   173f6:	4581                	li	a1,0
   173f8:	4601                	li	a2,0
   173fa:	4681                	li	a3,0
   173fc:	00000073          	ecall
   17400:	00d14483          	lbu	s1,13(sp)
   17404:	00198513          	addi	a0,s3,1
   17408:	06300613          	li	a2,99
   1740c:	85ca                	mv	a1,s2
   1740e:	00006097          	auipc	ra,0x6
   17412:	368080e7          	jalr	872(ra) # 1d776 <memcpy>
   17416:	4509                	li	a0,2
   17418:	00098023          	sb	zero,0(s3)
   1741c:	f6a499e3          	bne	s1,a0,1738e <_ZN20complex_dynamic_type3app17hcd2000040373da29E+0xdc>
   17420:	b741                	j	173a0 <_ZN20complex_dynamic_type3app17hcd2000040373da29E+0xee>

00017422 <_ZN20complex_dynamic_type3app17hd0025d3ac9de1c55E>:
   17422:	7131                	addi	sp,sp,-192
   17424:	df06                	sw	ra,188(sp)
   17426:	dd22                	sw	s0,184(sp)
   17428:	db26                	sw	s1,180(sp)
   1742a:	d94a                	sw	s2,176(sp)
   1742c:	d74e                	sw	s3,172(sp)
   1742e:	89aa                	mv	s3,a0
   17430:	4409                	li	s0,2
   17432:	008106a3          	sb	s0,13(sp)
   17436:	00e10493          	addi	s1,sp,14
   1743a:	05d00613          	li	a2,93
   1743e:	8526                	mv	a0,s1
   17440:	00006097          	auipc	ra,0x6
   17444:	336080e7          	jalr	822(ra) # 1d776 <memcpy>
   17448:	06c10913          	addi	s2,sp,108
   1744c:	04000613          	li	a2,64
   17450:	854a                	mv	a0,s2
   17452:	4581                	li	a1,0
   17454:	00006097          	auipc	ra,0x6
   17458:	2b6080e7          	jalr	694(ra) # 1d70a <memset>
   1745c:	8626                	mv	a2,s1
   1745e:	068105a3          	sb	s0,107(sp)
   17462:	6505                	lui	a0,0x1
   17464:	4491                	li	s1,4
   17466:	45a1                	li	a1,8
   17468:	02850793          	addi	a5,a0,40 # 1028 <.Lline_table_start1+0xdfd>
   1746c:	05d00693          	li	a3,93
   17470:	4711                	li	a4,4
   17472:	853e                	mv	a0,a5
   17474:	00000073          	ecall
   17478:	00851863          	bne	a0,s0,17488 <_ZN20complex_dynamic_type3app17hd0025d3ac9de1c55E+0x66>
   1747c:	4505                	li	a0,1
   1747e:	00a98023          	sb	a0,0(s3)
   17482:	00b9a223          	sw	a1,4(s3)
   17486:	a0bd                	j	174f4 <_ZN20complex_dynamic_type3app17hd0025d3ac9de1c55E+0xd2>
   17488:	853e                	mv	a0,a5
   1748a:	864a                	mv	a2,s2
   1748c:	009106a3          	sb	s1,13(sp)
   17490:	478d                	li	a5,3
   17492:	4591                	li	a1,4
   17494:	04000693          	li	a3,64
   17498:	470d                	li	a4,3
   1749a:	00000073          	ecall
   1749e:	00851d63          	bne	a0,s0,174b8 <_ZN20complex_dynamic_type3app17hd0025d3ac9de1c55E+0x96>
   174a2:	06b14703          	lbu	a4,107(sp)
   174a6:	4505                	li	a0,1
   174a8:	4609                	li	a2,2
   174aa:	00a98023          	sb	a0,0(s3)
   174ae:	00b9a223          	sw	a1,4(s3)
   174b2:	02c71963          	bne	a4,a2,174e4 <_ZN20complex_dynamic_type3app17hd0025d3ac9de1c55E+0xc2>
   174b6:	a83d                	j	174f4 <_ZN20complex_dynamic_type3app17hd0025d3ac9de1c55E+0xd2>
   174b8:	4681                	li	a3,0
   174ba:	06f105a3          	sb	a5,107(sp)
   174be:	6505                	lui	a0,0x1
   174c0:	45a1                	li	a1,8
   174c2:	4611                	li	a2,4
   174c4:	4709                	li	a4,2
   174c6:	02850513          	addi	a0,a0,40 # 1028 <.Lline_table_start1+0xdfd>
   174ca:	07f00793          	li	a5,127
   174ce:	00000073          	ecall
   174d2:	4609                	li	a2,2
   174d4:	04a7e563          	bltu	a5,a0,1751e <_ZN20complex_dynamic_type3app17hd0025d3ac9de1c55E+0xfc>
   174d8:	4505                	li	a0,1
   174da:	00a98023          	sb	a0,0(s3)
   174de:	00b9a223          	sw	a1,4(s3)
   174e2:	470d                	li	a4,3
   174e4:	6505                	lui	a0,0x1
   174e6:	02850513          	addi	a0,a0,40 # 1028 <.Lline_table_start1+0xdfd>
   174ea:	4591                	li	a1,4
   174ec:	4601                	li	a2,0
   174ee:	4681                	li	a3,0
   174f0:	00000073          	ecall
   174f4:	00d14483          	lbu	s1,13(sp)
   174f8:	4509                	li	a0,2
   174fa:	00a48b63          	beq	s1,a0,17510 <_ZN20complex_dynamic_type3app17hd0025d3ac9de1c55E+0xee>
   174fe:	6505                	lui	a0,0x1
   17500:	02850513          	addi	a0,a0,40 # 1028 <.Lline_table_start1+0xdfd>
   17504:	45a1                	li	a1,8
   17506:	4601                	li	a2,0
   17508:	4681                	li	a3,0
   1750a:	8726                	mv	a4,s1
   1750c:	00000073          	ecall
   17510:	50fa                	lw	ra,188(sp)
   17512:	546a                	lw	s0,184(sp)
   17514:	54da                	lw	s1,180(sp)
   17516:	594a                	lw	s2,176(sp)
   17518:	59ba                	lw	s3,172(sp)
   1751a:	6129                	addi	sp,sp,192
   1751c:	8082                	ret
   1751e:	00d14703          	lbu	a4,13(sp)
   17522:	00c71463          	bne	a4,a2,1752a <_ZN20complex_dynamic_type3app17hd0025d3ac9de1c55E+0x108>
   17526:	470d                	li	a4,3
   17528:	a825                	j	17560 <_ZN20complex_dynamic_type3app17hd0025d3ac9de1c55E+0x13e>
   1752a:	6505                	lui	a0,0x1
   1752c:	02850513          	addi	a0,a0,40 # 1028 <.Lline_table_start1+0xdfd>
   17530:	45a1                	li	a1,8
   17532:	4601                	li	a2,0
   17534:	4681                	li	a3,0
   17536:	00000073          	ecall
   1753a:	06b14703          	lbu	a4,107(sp)
   1753e:	4509                	li	a0,2
   17540:	00a106a3          	sb	a0,13(sp)
   17544:	00a71e63          	bne	a4,a0,17560 <_ZN20complex_dynamic_type3app17hd0025d3ac9de1c55E+0x13e>
   17548:	00198513          	addi	a0,s3,1
   1754c:	04000613          	li	a2,64
   17550:	85ca                	mv	a1,s2
   17552:	00006097          	auipc	ra,0x6
   17556:	224080e7          	jalr	548(ra) # 1d776 <memcpy>
   1755a:	00098023          	sb	zero,0(s3)
   1755e:	bf4d                	j	17510 <_ZN20complex_dynamic_type3app17hd0025d3ac9de1c55E+0xee>
   17560:	6505                	lui	a0,0x1
   17562:	02850513          	addi	a0,a0,40 # 1028 <.Lline_table_start1+0xdfd>
   17566:	4591                	li	a1,4
   17568:	4601                	li	a2,0
   1756a:	4681                	li	a3,0
   1756c:	00000073          	ecall
   17570:	00d14483          	lbu	s1,13(sp)
   17574:	00198513          	addi	a0,s3,1
   17578:	04000613          	li	a2,64
   1757c:	85ca                	mv	a1,s2
   1757e:	00006097          	auipc	ra,0x6
   17582:	1f8080e7          	jalr	504(ra) # 1d776 <memcpy>
   17586:	4509                	li	a0,2
   17588:	00098023          	sb	zero,0(s3)
   1758c:	f6a499e3          	bne	s1,a0,174fe <_ZN20complex_dynamic_type3app17hd0025d3ac9de1c55E+0xdc>
   17590:	b741                	j	17510 <_ZN20complex_dynamic_type3app17hd0025d3ac9de1c55E+0xee>

00017592 <_ZN20complex_dynamic_type3app17hd114a63dae150e97E>:
   17592:	7131                	addi	sp,sp,-192
   17594:	df06                	sw	ra,188(sp)
   17596:	dd22                	sw	s0,184(sp)
   17598:	db26                	sw	s1,180(sp)
   1759a:	d94a                	sw	s2,176(sp)
   1759c:	d74e                	sw	s3,172(sp)
   1759e:	89aa                	mv	s3,a0
   175a0:	4409                	li	s0,2
   175a2:	00810523          	sb	s0,10(sp)
   175a6:	00b10493          	addi	s1,sp,11
   175aa:	05300613          	li	a2,83
   175ae:	8526                	mv	a0,s1
   175b0:	00006097          	auipc	ra,0x6
   175b4:	1c6080e7          	jalr	454(ra) # 1d776 <memcpy>
   175b8:	05f10913          	addi	s2,sp,95
   175bc:	04d00613          	li	a2,77
   175c0:	854a                	mv	a0,s2
   175c2:	4581                	li	a1,0
   175c4:	00006097          	auipc	ra,0x6
   175c8:	146080e7          	jalr	326(ra) # 1d70a <memset>
   175cc:	8626                	mv	a2,s1
   175ce:	04810f23          	sb	s0,94(sp)
   175d2:	6505                	lui	a0,0x1
   175d4:	4491                	li	s1,4
   175d6:	45a5                	li	a1,9
   175d8:	6ba50793          	addi	a5,a0,1722 # 16ba <.Lline_table_start1+0x148f>
   175dc:	05300693          	li	a3,83
   175e0:	4711                	li	a4,4
   175e2:	853e                	mv	a0,a5
   175e4:	00000073          	ecall
   175e8:	00851863          	bne	a0,s0,175f8 <_ZN20complex_dynamic_type3app17hd114a63dae150e97E+0x66>
   175ec:	4505                	li	a0,1
   175ee:	00a98023          	sb	a0,0(s3)
   175f2:	00b9a223          	sw	a1,4(s3)
   175f6:	a0bd                	j	17664 <_ZN20complex_dynamic_type3app17hd114a63dae150e97E+0xd2>
   175f8:	853e                	mv	a0,a5
   175fa:	864a                	mv	a2,s2
   175fc:	00910523          	sb	s1,10(sp)
   17600:	478d                	li	a5,3
   17602:	4591                	li	a1,4
   17604:	04d00693          	li	a3,77
   17608:	470d                	li	a4,3
   1760a:	00000073          	ecall
   1760e:	00851d63          	bne	a0,s0,17628 <_ZN20complex_dynamic_type3app17hd114a63dae150e97E+0x96>
   17612:	05e14703          	lbu	a4,94(sp)
   17616:	4505                	li	a0,1
   17618:	4609                	li	a2,2
   1761a:	00a98023          	sb	a0,0(s3)
   1761e:	00b9a223          	sw	a1,4(s3)
   17622:	02c71963          	bne	a4,a2,17654 <_ZN20complex_dynamic_type3app17hd114a63dae150e97E+0xc2>
   17626:	a83d                	j	17664 <_ZN20complex_dynamic_type3app17hd114a63dae150e97E+0xd2>
   17628:	4681                	li	a3,0
   1762a:	04f10f23          	sb	a5,94(sp)
   1762e:	6505                	lui	a0,0x1
   17630:	45a5                	li	a1,9
   17632:	4611                	li	a2,4
   17634:	4709                	li	a4,2
   17636:	6ba50513          	addi	a0,a0,1722 # 16ba <.Lline_table_start1+0x148f>
   1763a:	07f00793          	li	a5,127
   1763e:	00000073          	ecall
   17642:	4609                	li	a2,2
   17644:	04a7e563          	bltu	a5,a0,1768e <_ZN20complex_dynamic_type3app17hd114a63dae150e97E+0xfc>
   17648:	4505                	li	a0,1
   1764a:	00a98023          	sb	a0,0(s3)
   1764e:	00b9a223          	sw	a1,4(s3)
   17652:	470d                	li	a4,3
   17654:	6505                	lui	a0,0x1
   17656:	6ba50513          	addi	a0,a0,1722 # 16ba <.Lline_table_start1+0x148f>
   1765a:	4591                	li	a1,4
   1765c:	4601                	li	a2,0
   1765e:	4681                	li	a3,0
   17660:	00000073          	ecall
   17664:	00a14483          	lbu	s1,10(sp)
   17668:	4509                	li	a0,2
   1766a:	00a48b63          	beq	s1,a0,17680 <_ZN20complex_dynamic_type3app17hd114a63dae150e97E+0xee>
   1766e:	6505                	lui	a0,0x1
   17670:	6ba50513          	addi	a0,a0,1722 # 16ba <.Lline_table_start1+0x148f>
   17674:	45a5                	li	a1,9
   17676:	4601                	li	a2,0
   17678:	4681                	li	a3,0
   1767a:	8726                	mv	a4,s1
   1767c:	00000073          	ecall
   17680:	50fa                	lw	ra,188(sp)
   17682:	546a                	lw	s0,184(sp)
   17684:	54da                	lw	s1,180(sp)
   17686:	594a                	lw	s2,176(sp)
   17688:	59ba                	lw	s3,172(sp)
   1768a:	6129                	addi	sp,sp,192
   1768c:	8082                	ret
   1768e:	00a14703          	lbu	a4,10(sp)
   17692:	00c71463          	bne	a4,a2,1769a <_ZN20complex_dynamic_type3app17hd114a63dae150e97E+0x108>
   17696:	470d                	li	a4,3
   17698:	a825                	j	176d0 <_ZN20complex_dynamic_type3app17hd114a63dae150e97E+0x13e>
   1769a:	6505                	lui	a0,0x1
   1769c:	6ba50513          	addi	a0,a0,1722 # 16ba <.Lline_table_start1+0x148f>
   176a0:	45a5                	li	a1,9
   176a2:	4601                	li	a2,0
   176a4:	4681                	li	a3,0
   176a6:	00000073          	ecall
   176aa:	05e14703          	lbu	a4,94(sp)
   176ae:	4509                	li	a0,2
   176b0:	00a10523          	sb	a0,10(sp)
   176b4:	00a71e63          	bne	a4,a0,176d0 <_ZN20complex_dynamic_type3app17hd114a63dae150e97E+0x13e>
   176b8:	00198513          	addi	a0,s3,1
   176bc:	04d00613          	li	a2,77
   176c0:	85ca                	mv	a1,s2
   176c2:	00006097          	auipc	ra,0x6
   176c6:	0b4080e7          	jalr	180(ra) # 1d776 <memcpy>
   176ca:	00098023          	sb	zero,0(s3)
   176ce:	bf4d                	j	17680 <_ZN20complex_dynamic_type3app17hd114a63dae150e97E+0xee>
   176d0:	6505                	lui	a0,0x1
   176d2:	6ba50513          	addi	a0,a0,1722 # 16ba <.Lline_table_start1+0x148f>
   176d6:	4591                	li	a1,4
   176d8:	4601                	li	a2,0
   176da:	4681                	li	a3,0
   176dc:	00000073          	ecall
   176e0:	00a14483          	lbu	s1,10(sp)
   176e4:	00198513          	addi	a0,s3,1
   176e8:	04d00613          	li	a2,77
   176ec:	85ca                	mv	a1,s2
   176ee:	00006097          	auipc	ra,0x6
   176f2:	088080e7          	jalr	136(ra) # 1d776 <memcpy>
   176f6:	4509                	li	a0,2
   176f8:	00098023          	sb	zero,0(s3)
   176fc:	f6a499e3          	bne	s1,a0,1766e <_ZN20complex_dynamic_type3app17hd114a63dae150e97E+0xdc>
   17700:	b741                	j	17680 <_ZN20complex_dynamic_type3app17hd114a63dae150e97E+0xee>

00017702 <_ZN20complex_dynamic_type3app17hd4e3b7f1a011ddb1E>:
   17702:	7119                	addi	sp,sp,-128
   17704:	de86                	sw	ra,124(sp)
   17706:	dca2                	sw	s0,120(sp)
   17708:	daa6                	sw	s1,116(sp)
   1770a:	d8ca                	sw	s2,112(sp)
   1770c:	d6ce                	sw	s3,108(sp)
   1770e:	89aa                	mv	s3,a0
   17710:	4409                	li	s0,2
   17712:	00810223          	sb	s0,4(sp)
   17716:	00510493          	addi	s1,sp,5
   1771a:	02e00613          	li	a2,46
   1771e:	8526                	mv	a0,s1
   17720:	00006097          	auipc	ra,0x6
   17724:	056080e7          	jalr	86(ra) # 1d776 <memcpy>
   17728:	03410913          	addi	s2,sp,52
   1772c:	03800613          	li	a2,56
   17730:	854a                	mv	a0,s2
   17732:	4581                	li	a1,0
   17734:	00006097          	auipc	ra,0x6
   17738:	fd6080e7          	jalr	-42(ra) # 1d70a <memset>
   1773c:	8626                	mv	a2,s1
   1773e:	028109a3          	sb	s0,51(sp)
   17742:	6505                	lui	a0,0x1
   17744:	4491                	li	s1,4
   17746:	45a5                	li	a1,9
   17748:	a9d50793          	addi	a5,a0,-1379 # a9d <.Lline_table_start1+0x872>
   1774c:	02e00693          	li	a3,46
   17750:	4711                	li	a4,4
   17752:	853e                	mv	a0,a5
   17754:	00000073          	ecall
   17758:	00851863          	bne	a0,s0,17768 <_ZN20complex_dynamic_type3app17hd4e3b7f1a011ddb1E+0x66>
   1775c:	4505                	li	a0,1
   1775e:	00a98023          	sb	a0,0(s3)
   17762:	00b9a223          	sw	a1,4(s3)
   17766:	a0bd                	j	177d4 <_ZN20complex_dynamic_type3app17hd4e3b7f1a011ddb1E+0xd2>
   17768:	853e                	mv	a0,a5
   1776a:	864a                	mv	a2,s2
   1776c:	00910223          	sb	s1,4(sp)
   17770:	478d                	li	a5,3
   17772:	45a5                	li	a1,9
   17774:	03800693          	li	a3,56
   17778:	470d                	li	a4,3
   1777a:	00000073          	ecall
   1777e:	00851d63          	bne	a0,s0,17798 <_ZN20complex_dynamic_type3app17hd4e3b7f1a011ddb1E+0x96>
   17782:	03314703          	lbu	a4,51(sp)
   17786:	4505                	li	a0,1
   17788:	4609                	li	a2,2
   1778a:	00a98023          	sb	a0,0(s3)
   1778e:	00b9a223          	sw	a1,4(s3)
   17792:	02c71963          	bne	a4,a2,177c4 <_ZN20complex_dynamic_type3app17hd4e3b7f1a011ddb1E+0xc2>
   17796:	a83d                	j	177d4 <_ZN20complex_dynamic_type3app17hd4e3b7f1a011ddb1E+0xd2>
   17798:	4681                	li	a3,0
   1779a:	02f109a3          	sb	a5,51(sp)
   1779e:	6505                	lui	a0,0x1
   177a0:	45a5                	li	a1,9
   177a2:	4625                	li	a2,9
   177a4:	4709                	li	a4,2
   177a6:	a9d50513          	addi	a0,a0,-1379 # a9d <.Lline_table_start1+0x872>
   177aa:	07f00793          	li	a5,127
   177ae:	00000073          	ecall
   177b2:	4609                	li	a2,2
   177b4:	04a7e563          	bltu	a5,a0,177fe <_ZN20complex_dynamic_type3app17hd4e3b7f1a011ddb1E+0xfc>
   177b8:	4505                	li	a0,1
   177ba:	00a98023          	sb	a0,0(s3)
   177be:	00b9a223          	sw	a1,4(s3)
   177c2:	470d                	li	a4,3
   177c4:	6505                	lui	a0,0x1
   177c6:	a9d50513          	addi	a0,a0,-1379 # a9d <.Lline_table_start1+0x872>
   177ca:	45a5                	li	a1,9
   177cc:	4601                	li	a2,0
   177ce:	4681                	li	a3,0
   177d0:	00000073          	ecall
   177d4:	00414483          	lbu	s1,4(sp)
   177d8:	4509                	li	a0,2
   177da:	00a48b63          	beq	s1,a0,177f0 <_ZN20complex_dynamic_type3app17hd4e3b7f1a011ddb1E+0xee>
   177de:	6505                	lui	a0,0x1
   177e0:	a9d50513          	addi	a0,a0,-1379 # a9d <.Lline_table_start1+0x872>
   177e4:	45a5                	li	a1,9
   177e6:	4601                	li	a2,0
   177e8:	4681                	li	a3,0
   177ea:	8726                	mv	a4,s1
   177ec:	00000073          	ecall
   177f0:	50f6                	lw	ra,124(sp)
   177f2:	5466                	lw	s0,120(sp)
   177f4:	54d6                	lw	s1,116(sp)
   177f6:	5946                	lw	s2,112(sp)
   177f8:	59b6                	lw	s3,108(sp)
   177fa:	6109                	addi	sp,sp,128
   177fc:	8082                	ret
   177fe:	00414703          	lbu	a4,4(sp)
   17802:	00c71463          	bne	a4,a2,1780a <_ZN20complex_dynamic_type3app17hd4e3b7f1a011ddb1E+0x108>
   17806:	470d                	li	a4,3
   17808:	a825                	j	17840 <_ZN20complex_dynamic_type3app17hd4e3b7f1a011ddb1E+0x13e>
   1780a:	6505                	lui	a0,0x1
   1780c:	a9d50513          	addi	a0,a0,-1379 # a9d <.Lline_table_start1+0x872>
   17810:	45a5                	li	a1,9
   17812:	4601                	li	a2,0
   17814:	4681                	li	a3,0
   17816:	00000073          	ecall
   1781a:	03314703          	lbu	a4,51(sp)
   1781e:	4509                	li	a0,2
   17820:	00a10223          	sb	a0,4(sp)
   17824:	00a71e63          	bne	a4,a0,17840 <_ZN20complex_dynamic_type3app17hd4e3b7f1a011ddb1E+0x13e>
   17828:	00198513          	addi	a0,s3,1
   1782c:	03800613          	li	a2,56
   17830:	85ca                	mv	a1,s2
   17832:	00006097          	auipc	ra,0x6
   17836:	f44080e7          	jalr	-188(ra) # 1d776 <memcpy>
   1783a:	00098023          	sb	zero,0(s3)
   1783e:	bf4d                	j	177f0 <_ZN20complex_dynamic_type3app17hd4e3b7f1a011ddb1E+0xee>
   17840:	6505                	lui	a0,0x1
   17842:	a9d50513          	addi	a0,a0,-1379 # a9d <.Lline_table_start1+0x872>
   17846:	45a5                	li	a1,9
   17848:	4601                	li	a2,0
   1784a:	4681                	li	a3,0
   1784c:	00000073          	ecall
   17850:	00414483          	lbu	s1,4(sp)
   17854:	00198513          	addi	a0,s3,1
   17858:	03800613          	li	a2,56
   1785c:	85ca                	mv	a1,s2
   1785e:	00006097          	auipc	ra,0x6
   17862:	f18080e7          	jalr	-232(ra) # 1d776 <memcpy>
   17866:	4509                	li	a0,2
   17868:	00098023          	sb	zero,0(s3)
   1786c:	f6a499e3          	bne	s1,a0,177de <_ZN20complex_dynamic_type3app17hd4e3b7f1a011ddb1E+0xdc>
   17870:	b741                	j	177f0 <_ZN20complex_dynamic_type3app17hd4e3b7f1a011ddb1E+0xee>

00017872 <_ZN20complex_dynamic_type3app17hd6cbe878f5a6a365E>:
   17872:	7175                	addi	sp,sp,-144
   17874:	c706                	sw	ra,140(sp)
   17876:	c522                	sw	s0,136(sp)
   17878:	c326                	sw	s1,132(sp)
   1787a:	c14a                	sw	s2,128(sp)
   1787c:	dece                	sw	s3,124(sp)
   1787e:	89aa                	mv	s3,a0
   17880:	4409                	li	s0,2
   17882:	008105a3          	sb	s0,11(sp)
   17886:	0064                	addi	s1,sp,12
   17888:	4679                	li	a2,30
   1788a:	8526                	mv	a0,s1
   1788c:	00006097          	auipc	ra,0x6
   17890:	eea080e7          	jalr	-278(ra) # 1d776 <memcpy>
   17894:	02b10913          	addi	s2,sp,43
   17898:	05100613          	li	a2,81
   1789c:	854a                	mv	a0,s2
   1789e:	4581                	li	a1,0
   178a0:	00006097          	auipc	ra,0x6
   178a4:	e6a080e7          	jalr	-406(ra) # 1d70a <memset>
   178a8:	8626                	mv	a2,s1
   178aa:	02810523          	sb	s0,42(sp)
   178ae:	6509                	lui	a0,0x2
   178b0:	4491                	li	s1,4
   178b2:	4589                	li	a1,2
   178b4:	96b50793          	addi	a5,a0,-1685 # 196b <.Lline_table_start1+0x1740>
   178b8:	46f9                	li	a3,30
   178ba:	4711                	li	a4,4
   178bc:	853e                	mv	a0,a5
   178be:	00000073          	ecall
   178c2:	00851863          	bne	a0,s0,178d2 <_ZN20complex_dynamic_type3app17hd6cbe878f5a6a365E+0x60>
   178c6:	4505                	li	a0,1
   178c8:	00a98023          	sb	a0,0(s3)
   178cc:	00b9a223          	sw	a1,4(s3)
   178d0:	a0bd                	j	1793e <_ZN20complex_dynamic_type3app17hd6cbe878f5a6a365E+0xcc>
   178d2:	853e                	mv	a0,a5
   178d4:	4581                	li	a1,0
   178d6:	864a                	mv	a2,s2
   178d8:	009105a3          	sb	s1,11(sp)
   178dc:	478d                	li	a5,3
   178de:	05100693          	li	a3,81
   178e2:	470d                	li	a4,3
   178e4:	00000073          	ecall
   178e8:	00851d63          	bne	a0,s0,17902 <_ZN20complex_dynamic_type3app17hd6cbe878f5a6a365E+0x90>
   178ec:	02a14703          	lbu	a4,42(sp)
   178f0:	4505                	li	a0,1
   178f2:	4609                	li	a2,2
   178f4:	00a98023          	sb	a0,0(s3)
   178f8:	00b9a223          	sw	a1,4(s3)
   178fc:	02c71963          	bne	a4,a2,1792e <_ZN20complex_dynamic_type3app17hd6cbe878f5a6a365E+0xbc>
   17900:	a83d                	j	1793e <_ZN20complex_dynamic_type3app17hd6cbe878f5a6a365E+0xcc>
   17902:	4601                	li	a2,0
   17904:	4681                	li	a3,0
   17906:	02f10523          	sb	a5,42(sp)
   1790a:	6509                	lui	a0,0x2
   1790c:	4589                	li	a1,2
   1790e:	4709                	li	a4,2
   17910:	96b50513          	addi	a0,a0,-1685 # 196b <.Lline_table_start1+0x1740>
   17914:	07f00793          	li	a5,127
   17918:	00000073          	ecall
   1791c:	4609                	li	a2,2
   1791e:	04a7e563          	bltu	a5,a0,17968 <_ZN20complex_dynamic_type3app17hd6cbe878f5a6a365E+0xf6>
   17922:	4505                	li	a0,1
   17924:	00a98023          	sb	a0,0(s3)
   17928:	00b9a223          	sw	a1,4(s3)
   1792c:	470d                	li	a4,3
   1792e:	6509                	lui	a0,0x2
   17930:	96b50513          	addi	a0,a0,-1685 # 196b <.Lline_table_start1+0x1740>
   17934:	4581                	li	a1,0
   17936:	4601                	li	a2,0
   17938:	4681                	li	a3,0
   1793a:	00000073          	ecall
   1793e:	00b14483          	lbu	s1,11(sp)
   17942:	4509                	li	a0,2
   17944:	00a48b63          	beq	s1,a0,1795a <_ZN20complex_dynamic_type3app17hd6cbe878f5a6a365E+0xe8>
   17948:	6509                	lui	a0,0x2
   1794a:	96b50513          	addi	a0,a0,-1685 # 196b <.Lline_table_start1+0x1740>
   1794e:	4589                	li	a1,2
   17950:	4601                	li	a2,0
   17952:	4681                	li	a3,0
   17954:	8726                	mv	a4,s1
   17956:	00000073          	ecall
   1795a:	40ba                	lw	ra,140(sp)
   1795c:	442a                	lw	s0,136(sp)
   1795e:	449a                	lw	s1,132(sp)
   17960:	490a                	lw	s2,128(sp)
   17962:	59f6                	lw	s3,124(sp)
   17964:	6149                	addi	sp,sp,144
   17966:	8082                	ret
   17968:	00b14703          	lbu	a4,11(sp)
   1796c:	00c71463          	bne	a4,a2,17974 <_ZN20complex_dynamic_type3app17hd6cbe878f5a6a365E+0x102>
   17970:	470d                	li	a4,3
   17972:	a825                	j	179aa <_ZN20complex_dynamic_type3app17hd6cbe878f5a6a365E+0x138>
   17974:	6509                	lui	a0,0x2
   17976:	96b50513          	addi	a0,a0,-1685 # 196b <.Lline_table_start1+0x1740>
   1797a:	4589                	li	a1,2
   1797c:	4601                	li	a2,0
   1797e:	4681                	li	a3,0
   17980:	00000073          	ecall
   17984:	02a14703          	lbu	a4,42(sp)
   17988:	4509                	li	a0,2
   1798a:	00a105a3          	sb	a0,11(sp)
   1798e:	00a71e63          	bne	a4,a0,179aa <_ZN20complex_dynamic_type3app17hd6cbe878f5a6a365E+0x138>
   17992:	00198513          	addi	a0,s3,1
   17996:	05100613          	li	a2,81
   1799a:	85ca                	mv	a1,s2
   1799c:	00006097          	auipc	ra,0x6
   179a0:	dda080e7          	jalr	-550(ra) # 1d776 <memcpy>
   179a4:	00098023          	sb	zero,0(s3)
   179a8:	bf4d                	j	1795a <_ZN20complex_dynamic_type3app17hd6cbe878f5a6a365E+0xe8>
   179aa:	6509                	lui	a0,0x2
   179ac:	96b50513          	addi	a0,a0,-1685 # 196b <.Lline_table_start1+0x1740>
   179b0:	4581                	li	a1,0
   179b2:	4601                	li	a2,0
   179b4:	4681                	li	a3,0
   179b6:	00000073          	ecall
   179ba:	00b14483          	lbu	s1,11(sp)
   179be:	00198513          	addi	a0,s3,1
   179c2:	05100613          	li	a2,81
   179c6:	85ca                	mv	a1,s2
   179c8:	00006097          	auipc	ra,0x6
   179cc:	dae080e7          	jalr	-594(ra) # 1d776 <memcpy>
   179d0:	4509                	li	a0,2
   179d2:	00098023          	sb	zero,0(s3)
   179d6:	f6a499e3          	bne	s1,a0,17948 <_ZN20complex_dynamic_type3app17hd6cbe878f5a6a365E+0xd6>
   179da:	b741                	j	1795a <_ZN20complex_dynamic_type3app17hd6cbe878f5a6a365E+0xe8>

000179dc <_ZN20complex_dynamic_type3app17hdb2e64ec1c0853ccE>:
   179dc:	7135                	addi	sp,sp,-160
   179de:	cf06                	sw	ra,156(sp)
   179e0:	cd22                	sw	s0,152(sp)
   179e2:	cb26                	sw	s1,148(sp)
   179e4:	c94a                	sw	s2,144(sp)
   179e6:	c74e                	sw	s3,140(sp)
   179e8:	89aa                	mv	s3,a0
   179ea:	4409                	li	s0,2
   179ec:	00810023          	sb	s0,0(sp)
   179f0:	00110493          	addi	s1,sp,1
   179f4:	04f00613          	li	a2,79
   179f8:	8526                	mv	a0,s1
   179fa:	00006097          	auipc	ra,0x6
   179fe:	d7c080e7          	jalr	-644(ra) # 1d776 <memcpy>
   17a02:	05110913          	addi	s2,sp,81
   17a06:	03b00613          	li	a2,59
   17a0a:	854a                	mv	a0,s2
   17a0c:	4581                	li	a1,0
   17a0e:	00006097          	auipc	ra,0x6
   17a12:	cfc080e7          	jalr	-772(ra) # 1d70a <memset>
   17a16:	8626                	mv	a2,s1
   17a18:	04810823          	sb	s0,80(sp)
   17a1c:	6505                	lui	a0,0x1
   17a1e:	4491                	li	s1,4
   17a20:	45a1                	li	a1,8
   17a22:	a0650793          	addi	a5,a0,-1530 # a06 <.Lline_table_start1+0x7db>
   17a26:	04f00693          	li	a3,79
   17a2a:	4711                	li	a4,4
   17a2c:	853e                	mv	a0,a5
   17a2e:	00000073          	ecall
   17a32:	00851863          	bne	a0,s0,17a42 <_ZN20complex_dynamic_type3app17hdb2e64ec1c0853ccE+0x66>
   17a36:	4505                	li	a0,1
   17a38:	00a98023          	sb	a0,0(s3)
   17a3c:	00b9a223          	sw	a1,4(s3)
   17a40:	a0bd                	j	17aae <_ZN20complex_dynamic_type3app17hdb2e64ec1c0853ccE+0xd2>
   17a42:	853e                	mv	a0,a5
   17a44:	864a                	mv	a2,s2
   17a46:	00910023          	sb	s1,0(sp)
   17a4a:	478d                	li	a5,3
   17a4c:	4595                	li	a1,5
   17a4e:	03b00693          	li	a3,59
   17a52:	470d                	li	a4,3
   17a54:	00000073          	ecall
   17a58:	00851d63          	bne	a0,s0,17a72 <_ZN20complex_dynamic_type3app17hdb2e64ec1c0853ccE+0x96>
   17a5c:	05014703          	lbu	a4,80(sp)
   17a60:	4505                	li	a0,1
   17a62:	4609                	li	a2,2
   17a64:	00a98023          	sb	a0,0(s3)
   17a68:	00b9a223          	sw	a1,4(s3)
   17a6c:	02c71963          	bne	a4,a2,17a9e <_ZN20complex_dynamic_type3app17hdb2e64ec1c0853ccE+0xc2>
   17a70:	a83d                	j	17aae <_ZN20complex_dynamic_type3app17hdb2e64ec1c0853ccE+0xd2>
   17a72:	4681                	li	a3,0
   17a74:	04f10823          	sb	a5,80(sp)
   17a78:	6505                	lui	a0,0x1
   17a7a:	45a1                	li	a1,8
   17a7c:	4615                	li	a2,5
   17a7e:	4709                	li	a4,2
   17a80:	a0650513          	addi	a0,a0,-1530 # a06 <.Lline_table_start1+0x7db>
   17a84:	07f00793          	li	a5,127
   17a88:	00000073          	ecall
   17a8c:	4609                	li	a2,2
   17a8e:	04a7e563          	bltu	a5,a0,17ad8 <_ZN20complex_dynamic_type3app17hdb2e64ec1c0853ccE+0xfc>
   17a92:	4505                	li	a0,1
   17a94:	00a98023          	sb	a0,0(s3)
   17a98:	00b9a223          	sw	a1,4(s3)
   17a9c:	470d                	li	a4,3
   17a9e:	6505                	lui	a0,0x1
   17aa0:	a0650513          	addi	a0,a0,-1530 # a06 <.Lline_table_start1+0x7db>
   17aa4:	4595                	li	a1,5
   17aa6:	4601                	li	a2,0
   17aa8:	4681                	li	a3,0
   17aaa:	00000073          	ecall
   17aae:	00014483          	lbu	s1,0(sp)
   17ab2:	4509                	li	a0,2
   17ab4:	00a48b63          	beq	s1,a0,17aca <_ZN20complex_dynamic_type3app17hdb2e64ec1c0853ccE+0xee>
   17ab8:	6505                	lui	a0,0x1
   17aba:	a0650513          	addi	a0,a0,-1530 # a06 <.Lline_table_start1+0x7db>
   17abe:	45a1                	li	a1,8
   17ac0:	4601                	li	a2,0
   17ac2:	4681                	li	a3,0
   17ac4:	8726                	mv	a4,s1
   17ac6:	00000073          	ecall
   17aca:	40fa                	lw	ra,156(sp)
   17acc:	446a                	lw	s0,152(sp)
   17ace:	44da                	lw	s1,148(sp)
   17ad0:	494a                	lw	s2,144(sp)
   17ad2:	49ba                	lw	s3,140(sp)
   17ad4:	610d                	addi	sp,sp,160
   17ad6:	8082                	ret
   17ad8:	00014703          	lbu	a4,0(sp)
   17adc:	00c71463          	bne	a4,a2,17ae4 <_ZN20complex_dynamic_type3app17hdb2e64ec1c0853ccE+0x108>
   17ae0:	470d                	li	a4,3
   17ae2:	a825                	j	17b1a <_ZN20complex_dynamic_type3app17hdb2e64ec1c0853ccE+0x13e>
   17ae4:	6505                	lui	a0,0x1
   17ae6:	a0650513          	addi	a0,a0,-1530 # a06 <.Lline_table_start1+0x7db>
   17aea:	45a1                	li	a1,8
   17aec:	4601                	li	a2,0
   17aee:	4681                	li	a3,0
   17af0:	00000073          	ecall
   17af4:	05014703          	lbu	a4,80(sp)
   17af8:	4509                	li	a0,2
   17afa:	00a10023          	sb	a0,0(sp)
   17afe:	00a71e63          	bne	a4,a0,17b1a <_ZN20complex_dynamic_type3app17hdb2e64ec1c0853ccE+0x13e>
   17b02:	00198513          	addi	a0,s3,1
   17b06:	03b00613          	li	a2,59
   17b0a:	85ca                	mv	a1,s2
   17b0c:	00006097          	auipc	ra,0x6
   17b10:	c6a080e7          	jalr	-918(ra) # 1d776 <memcpy>
   17b14:	00098023          	sb	zero,0(s3)
   17b18:	bf4d                	j	17aca <_ZN20complex_dynamic_type3app17hdb2e64ec1c0853ccE+0xee>
   17b1a:	6505                	lui	a0,0x1
   17b1c:	a0650513          	addi	a0,a0,-1530 # a06 <.Lline_table_start1+0x7db>
   17b20:	4595                	li	a1,5
   17b22:	4601                	li	a2,0
   17b24:	4681                	li	a3,0
   17b26:	00000073          	ecall
   17b2a:	00014483          	lbu	s1,0(sp)
   17b2e:	00198513          	addi	a0,s3,1
   17b32:	03b00613          	li	a2,59
   17b36:	85ca                	mv	a1,s2
   17b38:	00006097          	auipc	ra,0x6
   17b3c:	c3e080e7          	jalr	-962(ra) # 1d776 <memcpy>
   17b40:	4509                	li	a0,2
   17b42:	00098023          	sb	zero,0(s3)
   17b46:	f6a499e3          	bne	s1,a0,17ab8 <_ZN20complex_dynamic_type3app17hdb2e64ec1c0853ccE+0xdc>
   17b4a:	b741                	j	17aca <_ZN20complex_dynamic_type3app17hdb2e64ec1c0853ccE+0xee>

00017b4c <_ZN20complex_dynamic_type3app17hdcb42b6cf388c110E>:
   17b4c:	7175                	addi	sp,sp,-144
   17b4e:	c706                	sw	ra,140(sp)
   17b50:	c522                	sw	s0,136(sp)
   17b52:	c326                	sw	s1,132(sp)
   17b54:	c14a                	sw	s2,128(sp)
   17b56:	dece                	sw	s3,124(sp)
   17b58:	89aa                	mv	s3,a0
   17b5a:	4409                	li	s0,2
   17b5c:	00810123          	sb	s0,2(sp)
   17b60:	00310493          	addi	s1,sp,3
   17b64:	02700613          	li	a2,39
   17b68:	8526                	mv	a0,s1
   17b6a:	00006097          	auipc	ra,0x6
   17b6e:	c0c080e7          	jalr	-1012(ra) # 1d776 <memcpy>
   17b72:	02b10913          	addi	s2,sp,43
   17b76:	05100613          	li	a2,81
   17b7a:	854a                	mv	a0,s2
   17b7c:	4581                	li	a1,0
   17b7e:	00006097          	auipc	ra,0x6
   17b82:	b8c080e7          	jalr	-1140(ra) # 1d70a <memset>
   17b86:	4581                	li	a1,0
   17b88:	8626                	mv	a2,s1
   17b8a:	02810523          	sb	s0,42(sp)
   17b8e:	6505                	lui	a0,0x1
   17b90:	4491                	li	s1,4
   17b92:	a3650793          	addi	a5,a0,-1482 # a36 <.Lline_table_start1+0x80b>
   17b96:	02700693          	li	a3,39
   17b9a:	4711                	li	a4,4
   17b9c:	853e                	mv	a0,a5
   17b9e:	00000073          	ecall
   17ba2:	00851863          	bne	a0,s0,17bb2 <_ZN20complex_dynamic_type3app17hdcb42b6cf388c110E+0x66>
   17ba6:	4505                	li	a0,1
   17ba8:	00a98023          	sb	a0,0(s3)
   17bac:	00b9a223          	sw	a1,4(s3)
   17bb0:	a0bd                	j	17c1e <_ZN20complex_dynamic_type3app17hdcb42b6cf388c110E+0xd2>
   17bb2:	853e                	mv	a0,a5
   17bb4:	864a                	mv	a2,s2
   17bb6:	00910123          	sb	s1,2(sp)
   17bba:	478d                	li	a5,3
   17bbc:	4591                	li	a1,4
   17bbe:	05100693          	li	a3,81
   17bc2:	470d                	li	a4,3
   17bc4:	00000073          	ecall
   17bc8:	00851d63          	bne	a0,s0,17be2 <_ZN20complex_dynamic_type3app17hdcb42b6cf388c110E+0x96>
   17bcc:	02a14703          	lbu	a4,42(sp)
   17bd0:	4505                	li	a0,1
   17bd2:	4609                	li	a2,2
   17bd4:	00a98023          	sb	a0,0(s3)
   17bd8:	00b9a223          	sw	a1,4(s3)
   17bdc:	02c71963          	bne	a4,a2,17c0e <_ZN20complex_dynamic_type3app17hdcb42b6cf388c110E+0xc2>
   17be0:	a83d                	j	17c1e <_ZN20complex_dynamic_type3app17hdcb42b6cf388c110E+0xd2>
   17be2:	4581                	li	a1,0
   17be4:	4681                	li	a3,0
   17be6:	02f10523          	sb	a5,42(sp)
   17bea:	6505                	lui	a0,0x1
   17bec:	4611                	li	a2,4
   17bee:	4709                	li	a4,2
   17bf0:	a3650513          	addi	a0,a0,-1482 # a36 <.Lline_table_start1+0x80b>
   17bf4:	07f00793          	li	a5,127
   17bf8:	00000073          	ecall
   17bfc:	4609                	li	a2,2
   17bfe:	04a7e563          	bltu	a5,a0,17c48 <_ZN20complex_dynamic_type3app17hdcb42b6cf388c110E+0xfc>
   17c02:	4505                	li	a0,1
   17c04:	00a98023          	sb	a0,0(s3)
   17c08:	00b9a223          	sw	a1,4(s3)
   17c0c:	470d                	li	a4,3
   17c0e:	6505                	lui	a0,0x1
   17c10:	a3650513          	addi	a0,a0,-1482 # a36 <.Lline_table_start1+0x80b>
   17c14:	4591                	li	a1,4
   17c16:	4601                	li	a2,0
   17c18:	4681                	li	a3,0
   17c1a:	00000073          	ecall
   17c1e:	00214483          	lbu	s1,2(sp)
   17c22:	4509                	li	a0,2
   17c24:	00a48b63          	beq	s1,a0,17c3a <_ZN20complex_dynamic_type3app17hdcb42b6cf388c110E+0xee>
   17c28:	6505                	lui	a0,0x1
   17c2a:	a3650513          	addi	a0,a0,-1482 # a36 <.Lline_table_start1+0x80b>
   17c2e:	4581                	li	a1,0
   17c30:	4601                	li	a2,0
   17c32:	4681                	li	a3,0
   17c34:	8726                	mv	a4,s1
   17c36:	00000073          	ecall
   17c3a:	40ba                	lw	ra,140(sp)
   17c3c:	442a                	lw	s0,136(sp)
   17c3e:	449a                	lw	s1,132(sp)
   17c40:	490a                	lw	s2,128(sp)
   17c42:	59f6                	lw	s3,124(sp)
   17c44:	6149                	addi	sp,sp,144
   17c46:	8082                	ret
   17c48:	00214703          	lbu	a4,2(sp)
   17c4c:	00c71463          	bne	a4,a2,17c54 <_ZN20complex_dynamic_type3app17hdcb42b6cf388c110E+0x108>
   17c50:	470d                	li	a4,3
   17c52:	a825                	j	17c8a <_ZN20complex_dynamic_type3app17hdcb42b6cf388c110E+0x13e>
   17c54:	6505                	lui	a0,0x1
   17c56:	a3650513          	addi	a0,a0,-1482 # a36 <.Lline_table_start1+0x80b>
   17c5a:	4581                	li	a1,0
   17c5c:	4601                	li	a2,0
   17c5e:	4681                	li	a3,0
   17c60:	00000073          	ecall
   17c64:	02a14703          	lbu	a4,42(sp)
   17c68:	4509                	li	a0,2
   17c6a:	00a10123          	sb	a0,2(sp)
   17c6e:	00a71e63          	bne	a4,a0,17c8a <_ZN20complex_dynamic_type3app17hdcb42b6cf388c110E+0x13e>
   17c72:	00198513          	addi	a0,s3,1
   17c76:	05100613          	li	a2,81
   17c7a:	85ca                	mv	a1,s2
   17c7c:	00006097          	auipc	ra,0x6
   17c80:	afa080e7          	jalr	-1286(ra) # 1d776 <memcpy>
   17c84:	00098023          	sb	zero,0(s3)
   17c88:	bf4d                	j	17c3a <_ZN20complex_dynamic_type3app17hdcb42b6cf388c110E+0xee>
   17c8a:	6505                	lui	a0,0x1
   17c8c:	a3650513          	addi	a0,a0,-1482 # a36 <.Lline_table_start1+0x80b>
   17c90:	4591                	li	a1,4
   17c92:	4601                	li	a2,0
   17c94:	4681                	li	a3,0
   17c96:	00000073          	ecall
   17c9a:	00214483          	lbu	s1,2(sp)
   17c9e:	00198513          	addi	a0,s3,1
   17ca2:	05100613          	li	a2,81
   17ca6:	85ca                	mv	a1,s2
   17ca8:	00006097          	auipc	ra,0x6
   17cac:	ace080e7          	jalr	-1330(ra) # 1d776 <memcpy>
   17cb0:	4509                	li	a0,2
   17cb2:	00098023          	sb	zero,0(s3)
   17cb6:	f6a499e3          	bne	s1,a0,17c28 <_ZN20complex_dynamic_type3app17hdcb42b6cf388c110E+0xdc>
   17cba:	b741                	j	17c3a <_ZN20complex_dynamic_type3app17hdcb42b6cf388c110E+0xee>

00017cbc <_ZN20complex_dynamic_type3app17hdd9d5378d0c7fb98E>:
   17cbc:	7119                	addi	sp,sp,-128
   17cbe:	de86                	sw	ra,124(sp)
   17cc0:	dca2                	sw	s0,120(sp)
   17cc2:	daa6                	sw	s1,116(sp)
   17cc4:	d8ca                	sw	s2,112(sp)
   17cc6:	d6ce                	sw	s3,108(sp)
   17cc8:	89aa                	mv	s3,a0
   17cca:	4409                	li	s0,2
   17ccc:	008104a3          	sb	s0,9(sp)
   17cd0:	00a10493          	addi	s1,sp,10
   17cd4:	4645                	li	a2,17
   17cd6:	8526                	mv	a0,s1
   17cd8:	00006097          	auipc	ra,0x6
   17cdc:	a9e080e7          	jalr	-1378(ra) # 1d776 <memcpy>
   17ce0:	01c10913          	addi	s2,sp,28
   17ce4:	05000613          	li	a2,80
   17ce8:	854a                	mv	a0,s2
   17cea:	4581                	li	a1,0
   17cec:	00006097          	auipc	ra,0x6
   17cf0:	a1e080e7          	jalr	-1506(ra) # 1d70a <memset>
   17cf4:	8626                	mv	a2,s1
   17cf6:	00810da3          	sb	s0,27(sp)
   17cfa:	6509                	lui	a0,0x2
   17cfc:	4491                	li	s1,4
   17cfe:	4599                	li	a1,6
   17d00:	aa950793          	addi	a5,a0,-1367 # 1aa9 <.Lline_table_start1+0x187e>
   17d04:	46c5                	li	a3,17
   17d06:	4711                	li	a4,4
   17d08:	853e                	mv	a0,a5
   17d0a:	00000073          	ecall
   17d0e:	00851863          	bne	a0,s0,17d1e <_ZN20complex_dynamic_type3app17hdd9d5378d0c7fb98E+0x62>
   17d12:	4505                	li	a0,1
   17d14:	00a98023          	sb	a0,0(s3)
   17d18:	00b9a223          	sw	a1,4(s3)
   17d1c:	a0bd                	j	17d8a <_ZN20complex_dynamic_type3app17hdd9d5378d0c7fb98E+0xce>
   17d1e:	853e                	mv	a0,a5
   17d20:	864a                	mv	a2,s2
   17d22:	009104a3          	sb	s1,9(sp)
   17d26:	478d                	li	a5,3
   17d28:	4595                	li	a1,5
   17d2a:	05000693          	li	a3,80
   17d2e:	470d                	li	a4,3
   17d30:	00000073          	ecall
   17d34:	00851d63          	bne	a0,s0,17d4e <_ZN20complex_dynamic_type3app17hdd9d5378d0c7fb98E+0x92>
   17d38:	01b14703          	lbu	a4,27(sp)
   17d3c:	4505                	li	a0,1
   17d3e:	4609                	li	a2,2
   17d40:	00a98023          	sb	a0,0(s3)
   17d44:	00b9a223          	sw	a1,4(s3)
   17d48:	02c71963          	bne	a4,a2,17d7a <_ZN20complex_dynamic_type3app17hdd9d5378d0c7fb98E+0xbe>
   17d4c:	a83d                	j	17d8a <_ZN20complex_dynamic_type3app17hdd9d5378d0c7fb98E+0xce>
   17d4e:	4681                	li	a3,0
   17d50:	00f10da3          	sb	a5,27(sp)
   17d54:	6509                	lui	a0,0x2
   17d56:	4599                	li	a1,6
   17d58:	4615                	li	a2,5
   17d5a:	4709                	li	a4,2
   17d5c:	aa950513          	addi	a0,a0,-1367 # 1aa9 <.Lline_table_start1+0x187e>
   17d60:	07f00793          	li	a5,127
   17d64:	00000073          	ecall
   17d68:	4609                	li	a2,2
   17d6a:	04a7e563          	bltu	a5,a0,17db4 <_ZN20complex_dynamic_type3app17hdd9d5378d0c7fb98E+0xf8>
   17d6e:	4505                	li	a0,1
   17d70:	00a98023          	sb	a0,0(s3)
   17d74:	00b9a223          	sw	a1,4(s3)
   17d78:	470d                	li	a4,3
   17d7a:	6509                	lui	a0,0x2
   17d7c:	aa950513          	addi	a0,a0,-1367 # 1aa9 <.Lline_table_start1+0x187e>
   17d80:	4595                	li	a1,5
   17d82:	4601                	li	a2,0
   17d84:	4681                	li	a3,0
   17d86:	00000073          	ecall
   17d8a:	00914483          	lbu	s1,9(sp)
   17d8e:	4509                	li	a0,2
   17d90:	00a48b63          	beq	s1,a0,17da6 <_ZN20complex_dynamic_type3app17hdd9d5378d0c7fb98E+0xea>
   17d94:	6509                	lui	a0,0x2
   17d96:	aa950513          	addi	a0,a0,-1367 # 1aa9 <.Lline_table_start1+0x187e>
   17d9a:	4599                	li	a1,6
   17d9c:	4601                	li	a2,0
   17d9e:	4681                	li	a3,0
   17da0:	8726                	mv	a4,s1
   17da2:	00000073          	ecall
   17da6:	50f6                	lw	ra,124(sp)
   17da8:	5466                	lw	s0,120(sp)
   17daa:	54d6                	lw	s1,116(sp)
   17dac:	5946                	lw	s2,112(sp)
   17dae:	59b6                	lw	s3,108(sp)
   17db0:	6109                	addi	sp,sp,128
   17db2:	8082                	ret
   17db4:	00914703          	lbu	a4,9(sp)
   17db8:	00c71463          	bne	a4,a2,17dc0 <_ZN20complex_dynamic_type3app17hdd9d5378d0c7fb98E+0x104>
   17dbc:	470d                	li	a4,3
   17dbe:	a825                	j	17df6 <_ZN20complex_dynamic_type3app17hdd9d5378d0c7fb98E+0x13a>
   17dc0:	6509                	lui	a0,0x2
   17dc2:	aa950513          	addi	a0,a0,-1367 # 1aa9 <.Lline_table_start1+0x187e>
   17dc6:	4599                	li	a1,6
   17dc8:	4601                	li	a2,0
   17dca:	4681                	li	a3,0
   17dcc:	00000073          	ecall
   17dd0:	01b14703          	lbu	a4,27(sp)
   17dd4:	4509                	li	a0,2
   17dd6:	00a104a3          	sb	a0,9(sp)
   17dda:	00a71e63          	bne	a4,a0,17df6 <_ZN20complex_dynamic_type3app17hdd9d5378d0c7fb98E+0x13a>
   17dde:	00198513          	addi	a0,s3,1
   17de2:	05000613          	li	a2,80
   17de6:	85ca                	mv	a1,s2
   17de8:	00006097          	auipc	ra,0x6
   17dec:	98e080e7          	jalr	-1650(ra) # 1d776 <memcpy>
   17df0:	00098023          	sb	zero,0(s3)
   17df4:	bf4d                	j	17da6 <_ZN20complex_dynamic_type3app17hdd9d5378d0c7fb98E+0xea>
   17df6:	6509                	lui	a0,0x2
   17df8:	aa950513          	addi	a0,a0,-1367 # 1aa9 <.Lline_table_start1+0x187e>
   17dfc:	4595                	li	a1,5
   17dfe:	4601                	li	a2,0
   17e00:	4681                	li	a3,0
   17e02:	00000073          	ecall
   17e06:	00914483          	lbu	s1,9(sp)
   17e0a:	00198513          	addi	a0,s3,1
   17e0e:	05000613          	li	a2,80
   17e12:	85ca                	mv	a1,s2
   17e14:	00006097          	auipc	ra,0x6
   17e18:	962080e7          	jalr	-1694(ra) # 1d776 <memcpy>
   17e1c:	4509                	li	a0,2
   17e1e:	00098023          	sb	zero,0(s3)
   17e22:	f6a499e3          	bne	s1,a0,17d94 <_ZN20complex_dynamic_type3app17hdd9d5378d0c7fb98E+0xd8>
   17e26:	b741                	j	17da6 <_ZN20complex_dynamic_type3app17hdd9d5378d0c7fb98E+0xea>

00017e28 <_ZN20complex_dynamic_type3app17hddf3bb3e5ae0ec40E>:
   17e28:	715d                	addi	sp,sp,-80
   17e2a:	c686                	sw	ra,76(sp)
   17e2c:	c4a2                	sw	s0,72(sp)
   17e2e:	c2a6                	sw	s1,68(sp)
   17e30:	c0ca                	sw	s2,64(sp)
   17e32:	de4e                	sw	s3,60(sp)
   17e34:	89aa                	mv	s3,a0
   17e36:	4409                	li	s0,2
   17e38:	00810123          	sb	s0,2(sp)
   17e3c:	00310493          	addi	s1,sp,3
   17e40:	02b00613          	li	a2,43
   17e44:	8526                	mv	a0,s1
   17e46:	00006097          	auipc	ra,0x6
   17e4a:	930080e7          	jalr	-1744(ra) # 1d776 <memcpy>
   17e4e:	02f10913          	addi	s2,sp,47
   17e52:	4635                	li	a2,13
   17e54:	854a                	mv	a0,s2
   17e56:	4581                	li	a1,0
   17e58:	00006097          	auipc	ra,0x6
   17e5c:	8b2080e7          	jalr	-1870(ra) # 1d70a <memset>
   17e60:	8626                	mv	a2,s1
   17e62:	02810723          	sb	s0,46(sp)
   17e66:	6505                	lui	a0,0x1
   17e68:	4491                	li	s1,4
   17e6a:	4599                	li	a1,6
   17e6c:	46550793          	addi	a5,a0,1125 # 1465 <.Lline_table_start1+0x123a>
   17e70:	02b00693          	li	a3,43
   17e74:	4711                	li	a4,4
   17e76:	853e                	mv	a0,a5
   17e78:	00000073          	ecall
   17e7c:	00851863          	bne	a0,s0,17e8c <_ZN20complex_dynamic_type3app17hddf3bb3e5ae0ec40E+0x64>
   17e80:	4505                	li	a0,1
   17e82:	00a98023          	sb	a0,0(s3)
   17e86:	00b9a223          	sw	a1,4(s3)
   17e8a:	a0b5                	j	17ef6 <_ZN20complex_dynamic_type3app17hddf3bb3e5ae0ec40E+0xce>
   17e8c:	853e                	mv	a0,a5
   17e8e:	4581                	li	a1,0
   17e90:	864a                	mv	a2,s2
   17e92:	00910123          	sb	s1,2(sp)
   17e96:	478d                	li	a5,3
   17e98:	46b5                	li	a3,13
   17e9a:	470d                	li	a4,3
   17e9c:	00000073          	ecall
   17ea0:	00851d63          	bne	a0,s0,17eba <_ZN20complex_dynamic_type3app17hddf3bb3e5ae0ec40E+0x92>
   17ea4:	02e14703          	lbu	a4,46(sp)
   17ea8:	4505                	li	a0,1
   17eaa:	4609                	li	a2,2
   17eac:	00a98023          	sb	a0,0(s3)
   17eb0:	00b9a223          	sw	a1,4(s3)
   17eb4:	02c71963          	bne	a4,a2,17ee6 <_ZN20complex_dynamic_type3app17hddf3bb3e5ae0ec40E+0xbe>
   17eb8:	a83d                	j	17ef6 <_ZN20complex_dynamic_type3app17hddf3bb3e5ae0ec40E+0xce>
   17eba:	4601                	li	a2,0
   17ebc:	4681                	li	a3,0
   17ebe:	02f10723          	sb	a5,46(sp)
   17ec2:	6505                	lui	a0,0x1
   17ec4:	4599                	li	a1,6
   17ec6:	4709                	li	a4,2
   17ec8:	46550513          	addi	a0,a0,1125 # 1465 <.Lline_table_start1+0x123a>
   17ecc:	07f00793          	li	a5,127
   17ed0:	00000073          	ecall
   17ed4:	4609                	li	a2,2
   17ed6:	04a7e563          	bltu	a5,a0,17f20 <_ZN20complex_dynamic_type3app17hddf3bb3e5ae0ec40E+0xf8>
   17eda:	4505                	li	a0,1
   17edc:	00a98023          	sb	a0,0(s3)
   17ee0:	00b9a223          	sw	a1,4(s3)
   17ee4:	470d                	li	a4,3
   17ee6:	6505                	lui	a0,0x1
   17ee8:	46550513          	addi	a0,a0,1125 # 1465 <.Lline_table_start1+0x123a>
   17eec:	4581                	li	a1,0
   17eee:	4601                	li	a2,0
   17ef0:	4681                	li	a3,0
   17ef2:	00000073          	ecall
   17ef6:	00214483          	lbu	s1,2(sp)
   17efa:	4509                	li	a0,2
   17efc:	00a48b63          	beq	s1,a0,17f12 <_ZN20complex_dynamic_type3app17hddf3bb3e5ae0ec40E+0xea>
   17f00:	6505                	lui	a0,0x1
   17f02:	46550513          	addi	a0,a0,1125 # 1465 <.Lline_table_start1+0x123a>
   17f06:	4599                	li	a1,6
   17f08:	4601                	li	a2,0
   17f0a:	4681                	li	a3,0
   17f0c:	8726                	mv	a4,s1
   17f0e:	00000073          	ecall
   17f12:	40b6                	lw	ra,76(sp)
   17f14:	4426                	lw	s0,72(sp)
   17f16:	4496                	lw	s1,68(sp)
   17f18:	4906                	lw	s2,64(sp)
   17f1a:	59f2                	lw	s3,60(sp)
   17f1c:	6161                	addi	sp,sp,80
   17f1e:	8082                	ret
   17f20:	00214703          	lbu	a4,2(sp)
   17f24:	00c71463          	bne	a4,a2,17f2c <_ZN20complex_dynamic_type3app17hddf3bb3e5ae0ec40E+0x104>
   17f28:	470d                	li	a4,3
   17f2a:	a81d                	j	17f60 <_ZN20complex_dynamic_type3app17hddf3bb3e5ae0ec40E+0x138>
   17f2c:	6505                	lui	a0,0x1
   17f2e:	46550513          	addi	a0,a0,1125 # 1465 <.Lline_table_start1+0x123a>
   17f32:	4599                	li	a1,6
   17f34:	4601                	li	a2,0
   17f36:	4681                	li	a3,0
   17f38:	00000073          	ecall
   17f3c:	02e14703          	lbu	a4,46(sp)
   17f40:	4509                	li	a0,2
   17f42:	00a10123          	sb	a0,2(sp)
   17f46:	00a71d63          	bne	a4,a0,17f60 <_ZN20complex_dynamic_type3app17hddf3bb3e5ae0ec40E+0x138>
   17f4a:	00198513          	addi	a0,s3,1
   17f4e:	4635                	li	a2,13
   17f50:	85ca                	mv	a1,s2
   17f52:	00006097          	auipc	ra,0x6
   17f56:	824080e7          	jalr	-2012(ra) # 1d776 <memcpy>
   17f5a:	00098023          	sb	zero,0(s3)
   17f5e:	bf55                	j	17f12 <_ZN20complex_dynamic_type3app17hddf3bb3e5ae0ec40E+0xea>
   17f60:	6505                	lui	a0,0x1
   17f62:	46550513          	addi	a0,a0,1125 # 1465 <.Lline_table_start1+0x123a>
   17f66:	4581                	li	a1,0
   17f68:	4601                	li	a2,0
   17f6a:	4681                	li	a3,0
   17f6c:	00000073          	ecall
   17f70:	00214483          	lbu	s1,2(sp)
   17f74:	00198513          	addi	a0,s3,1
   17f78:	4635                	li	a2,13
   17f7a:	85ca                	mv	a1,s2
   17f7c:	00005097          	auipc	ra,0x5
   17f80:	7fa080e7          	jalr	2042(ra) # 1d776 <memcpy>
   17f84:	4509                	li	a0,2
   17f86:	00098023          	sb	zero,0(s3)
   17f8a:	f6a49be3          	bne	s1,a0,17f00 <_ZN20complex_dynamic_type3app17hddf3bb3e5ae0ec40E+0xd8>
   17f8e:	b751                	j	17f12 <_ZN20complex_dynamic_type3app17hddf3bb3e5ae0ec40E+0xea>

00017f90 <_ZN20complex_dynamic_type3app17hde6a40a429c2c285E>:
   17f90:	7159                	addi	sp,sp,-112
   17f92:	d686                	sw	ra,108(sp)
   17f94:	d4a2                	sw	s0,104(sp)
   17f96:	d2a6                	sw	s1,100(sp)
   17f98:	d0ca                	sw	s2,96(sp)
   17f9a:	cece                	sw	s3,92(sp)
   17f9c:	89aa                	mv	s3,a0
   17f9e:	4409                	li	s0,2
   17fa0:	008103a3          	sb	s0,7(sp)
   17fa4:	0024                	addi	s1,sp,8
   17fa6:	02400613          	li	a2,36
   17faa:	8526                	mv	a0,s1
   17fac:	00005097          	auipc	ra,0x5
   17fb0:	7ca080e7          	jalr	1994(ra) # 1d776 <memcpy>
   17fb4:	02d10913          	addi	s2,sp,45
   17fb8:	02f00613          	li	a2,47
   17fbc:	854a                	mv	a0,s2
   17fbe:	4581                	li	a1,0
   17fc0:	00005097          	auipc	ra,0x5
   17fc4:	74a080e7          	jalr	1866(ra) # 1d70a <memset>
   17fc8:	8626                	mv	a2,s1
   17fca:	02810623          	sb	s0,44(sp)
   17fce:	6505                	lui	a0,0x1
   17fd0:	4491                	li	s1,4
   17fd2:	4599                	li	a1,6
   17fd4:	27350793          	addi	a5,a0,627 # 1273 <.Lline_table_start1+0x1048>
   17fd8:	02400693          	li	a3,36
   17fdc:	4711                	li	a4,4
   17fde:	853e                	mv	a0,a5
   17fe0:	00000073          	ecall
   17fe4:	00851863          	bne	a0,s0,17ff4 <_ZN20complex_dynamic_type3app17hde6a40a429c2c285E+0x64>
   17fe8:	4505                	li	a0,1
   17fea:	00a98023          	sb	a0,0(s3)
   17fee:	00b9a223          	sw	a1,4(s3)
   17ff2:	a0bd                	j	18060 <_ZN20complex_dynamic_type3app17hde6a40a429c2c285E+0xd0>
   17ff4:	853e                	mv	a0,a5
   17ff6:	864a                	mv	a2,s2
   17ff8:	009103a3          	sb	s1,7(sp)
   17ffc:	478d                	li	a5,3
   17ffe:	45a5                	li	a1,9
   18000:	02f00693          	li	a3,47
   18004:	470d                	li	a4,3
   18006:	00000073          	ecall
   1800a:	00851d63          	bne	a0,s0,18024 <_ZN20complex_dynamic_type3app17hde6a40a429c2c285E+0x94>
   1800e:	02c14703          	lbu	a4,44(sp)
   18012:	4505                	li	a0,1
   18014:	4609                	li	a2,2
   18016:	00a98023          	sb	a0,0(s3)
   1801a:	00b9a223          	sw	a1,4(s3)
   1801e:	02c71963          	bne	a4,a2,18050 <_ZN20complex_dynamic_type3app17hde6a40a429c2c285E+0xc0>
   18022:	a83d                	j	18060 <_ZN20complex_dynamic_type3app17hde6a40a429c2c285E+0xd0>
   18024:	4681                	li	a3,0
   18026:	02f10623          	sb	a5,44(sp)
   1802a:	6505                	lui	a0,0x1
   1802c:	4599                	li	a1,6
   1802e:	4625                	li	a2,9
   18030:	4709                	li	a4,2
   18032:	27350513          	addi	a0,a0,627 # 1273 <.Lline_table_start1+0x1048>
   18036:	07f00793          	li	a5,127
   1803a:	00000073          	ecall
   1803e:	4609                	li	a2,2
   18040:	04a7e563          	bltu	a5,a0,1808a <_ZN20complex_dynamic_type3app17hde6a40a429c2c285E+0xfa>
   18044:	4505                	li	a0,1
   18046:	00a98023          	sb	a0,0(s3)
   1804a:	00b9a223          	sw	a1,4(s3)
   1804e:	470d                	li	a4,3
   18050:	6505                	lui	a0,0x1
   18052:	27350513          	addi	a0,a0,627 # 1273 <.Lline_table_start1+0x1048>
   18056:	45a5                	li	a1,9
   18058:	4601                	li	a2,0
   1805a:	4681                	li	a3,0
   1805c:	00000073          	ecall
   18060:	00714483          	lbu	s1,7(sp)
   18064:	4509                	li	a0,2
   18066:	00a48b63          	beq	s1,a0,1807c <_ZN20complex_dynamic_type3app17hde6a40a429c2c285E+0xec>
   1806a:	6505                	lui	a0,0x1
   1806c:	27350513          	addi	a0,a0,627 # 1273 <.Lline_table_start1+0x1048>
   18070:	4599                	li	a1,6
   18072:	4601                	li	a2,0
   18074:	4681                	li	a3,0
   18076:	8726                	mv	a4,s1
   18078:	00000073          	ecall
   1807c:	50b6                	lw	ra,108(sp)
   1807e:	5426                	lw	s0,104(sp)
   18080:	5496                	lw	s1,100(sp)
   18082:	5906                	lw	s2,96(sp)
   18084:	49f6                	lw	s3,92(sp)
   18086:	6165                	addi	sp,sp,112
   18088:	8082                	ret
   1808a:	00714703          	lbu	a4,7(sp)
   1808e:	00c71463          	bne	a4,a2,18096 <_ZN20complex_dynamic_type3app17hde6a40a429c2c285E+0x106>
   18092:	470d                	li	a4,3
   18094:	a825                	j	180cc <_ZN20complex_dynamic_type3app17hde6a40a429c2c285E+0x13c>
   18096:	6505                	lui	a0,0x1
   18098:	27350513          	addi	a0,a0,627 # 1273 <.Lline_table_start1+0x1048>
   1809c:	4599                	li	a1,6
   1809e:	4601                	li	a2,0
   180a0:	4681                	li	a3,0
   180a2:	00000073          	ecall
   180a6:	02c14703          	lbu	a4,44(sp)
   180aa:	4509                	li	a0,2
   180ac:	00a103a3          	sb	a0,7(sp)
   180b0:	00a71e63          	bne	a4,a0,180cc <_ZN20complex_dynamic_type3app17hde6a40a429c2c285E+0x13c>
   180b4:	00198513          	addi	a0,s3,1
   180b8:	02f00613          	li	a2,47
   180bc:	85ca                	mv	a1,s2
   180be:	00005097          	auipc	ra,0x5
   180c2:	6b8080e7          	jalr	1720(ra) # 1d776 <memcpy>
   180c6:	00098023          	sb	zero,0(s3)
   180ca:	bf4d                	j	1807c <_ZN20complex_dynamic_type3app17hde6a40a429c2c285E+0xec>
   180cc:	6505                	lui	a0,0x1
   180ce:	27350513          	addi	a0,a0,627 # 1273 <.Lline_table_start1+0x1048>
   180d2:	45a5                	li	a1,9
   180d4:	4601                	li	a2,0
   180d6:	4681                	li	a3,0
   180d8:	00000073          	ecall
   180dc:	00714483          	lbu	s1,7(sp)
   180e0:	00198513          	addi	a0,s3,1
   180e4:	02f00613          	li	a2,47
   180e8:	85ca                	mv	a1,s2
   180ea:	00005097          	auipc	ra,0x5
   180ee:	68c080e7          	jalr	1676(ra) # 1d776 <memcpy>
   180f2:	4509                	li	a0,2
   180f4:	00098023          	sb	zero,0(s3)
   180f8:	f6a499e3          	bne	s1,a0,1806a <_ZN20complex_dynamic_type3app17hde6a40a429c2c285E+0xda>
   180fc:	b741                	j	1807c <_ZN20complex_dynamic_type3app17hde6a40a429c2c285E+0xec>

000180fe <_ZN20complex_dynamic_type3app17hdec7b4ced588e669E>:
   180fe:	7119                	addi	sp,sp,-128
   18100:	de86                	sw	ra,124(sp)
   18102:	dca2                	sw	s0,120(sp)
   18104:	daa6                	sw	s1,116(sp)
   18106:	d8ca                	sw	s2,112(sp)
   18108:	d6ce                	sw	s3,108(sp)
   1810a:	89aa                	mv	s3,a0
   1810c:	4409                	li	s0,2
   1810e:	00810523          	sb	s0,10(sp)
   18112:	00b10493          	addi	s1,sp,11
   18116:	05100613          	li	a2,81
   1811a:	8526                	mv	a0,s1
   1811c:	00005097          	auipc	ra,0x5
   18120:	65a080e7          	jalr	1626(ra) # 1d776 <memcpy>
   18124:	05d10913          	addi	s2,sp,93
   18128:	463d                	li	a2,15
   1812a:	854a                	mv	a0,s2
   1812c:	4581                	li	a1,0
   1812e:	00005097          	auipc	ra,0x5
   18132:	5dc080e7          	jalr	1500(ra) # 1d70a <memset>
   18136:	4581                	li	a1,0
   18138:	8626                	mv	a2,s1
   1813a:	04810e23          	sb	s0,92(sp)
   1813e:	6505                	lui	a0,0x1
   18140:	4491                	li	s1,4
   18142:	3bf50793          	addi	a5,a0,959 # 13bf <.Lline_table_start1+0x1194>
   18146:	05100693          	li	a3,81
   1814a:	4711                	li	a4,4
   1814c:	853e                	mv	a0,a5
   1814e:	00000073          	ecall
   18152:	00851863          	bne	a0,s0,18162 <_ZN20complex_dynamic_type3app17hdec7b4ced588e669E+0x64>
   18156:	4505                	li	a0,1
   18158:	00a98023          	sb	a0,0(s3)
   1815c:	00b9a223          	sw	a1,4(s3)
   18160:	a0b5                	j	181cc <_ZN20complex_dynamic_type3app17hdec7b4ced588e669E+0xce>
   18162:	853e                	mv	a0,a5
   18164:	864a                	mv	a2,s2
   18166:	00910523          	sb	s1,10(sp)
   1816a:	478d                	li	a5,3
   1816c:	458d                	li	a1,3
   1816e:	46bd                	li	a3,15
   18170:	470d                	li	a4,3
   18172:	00000073          	ecall
   18176:	00851d63          	bne	a0,s0,18190 <_ZN20complex_dynamic_type3app17hdec7b4ced588e669E+0x92>
   1817a:	05c14703          	lbu	a4,92(sp)
   1817e:	4505                	li	a0,1
   18180:	4609                	li	a2,2
   18182:	00a98023          	sb	a0,0(s3)
   18186:	00b9a223          	sw	a1,4(s3)
   1818a:	02c71963          	bne	a4,a2,181bc <_ZN20complex_dynamic_type3app17hdec7b4ced588e669E+0xbe>
   1818e:	a83d                	j	181cc <_ZN20complex_dynamic_type3app17hdec7b4ced588e669E+0xce>
   18190:	4581                	li	a1,0
   18192:	4681                	li	a3,0
   18194:	04f10e23          	sb	a5,92(sp)
   18198:	6505                	lui	a0,0x1
   1819a:	460d                	li	a2,3
   1819c:	4709                	li	a4,2
   1819e:	3bf50513          	addi	a0,a0,959 # 13bf <.Lline_table_start1+0x1194>
   181a2:	07f00793          	li	a5,127
   181a6:	00000073          	ecall
   181aa:	4609                	li	a2,2
   181ac:	04a7e563          	bltu	a5,a0,181f6 <_ZN20complex_dynamic_type3app17hdec7b4ced588e669E+0xf8>
   181b0:	4505                	li	a0,1
   181b2:	00a98023          	sb	a0,0(s3)
   181b6:	00b9a223          	sw	a1,4(s3)
   181ba:	470d                	li	a4,3
   181bc:	6505                	lui	a0,0x1
   181be:	3bf50513          	addi	a0,a0,959 # 13bf <.Lline_table_start1+0x1194>
   181c2:	458d                	li	a1,3
   181c4:	4601                	li	a2,0
   181c6:	4681                	li	a3,0
   181c8:	00000073          	ecall
   181cc:	00a14483          	lbu	s1,10(sp)
   181d0:	4509                	li	a0,2
   181d2:	00a48b63          	beq	s1,a0,181e8 <_ZN20complex_dynamic_type3app17hdec7b4ced588e669E+0xea>
   181d6:	6505                	lui	a0,0x1
   181d8:	3bf50513          	addi	a0,a0,959 # 13bf <.Lline_table_start1+0x1194>
   181dc:	4581                	li	a1,0
   181de:	4601                	li	a2,0
   181e0:	4681                	li	a3,0
   181e2:	8726                	mv	a4,s1
   181e4:	00000073          	ecall
   181e8:	50f6                	lw	ra,124(sp)
   181ea:	5466                	lw	s0,120(sp)
   181ec:	54d6                	lw	s1,116(sp)
   181ee:	5946                	lw	s2,112(sp)
   181f0:	59b6                	lw	s3,108(sp)
   181f2:	6109                	addi	sp,sp,128
   181f4:	8082                	ret
   181f6:	00a14703          	lbu	a4,10(sp)
   181fa:	00c71463          	bne	a4,a2,18202 <_ZN20complex_dynamic_type3app17hdec7b4ced588e669E+0x104>
   181fe:	470d                	li	a4,3
   18200:	a81d                	j	18236 <_ZN20complex_dynamic_type3app17hdec7b4ced588e669E+0x138>
   18202:	6505                	lui	a0,0x1
   18204:	3bf50513          	addi	a0,a0,959 # 13bf <.Lline_table_start1+0x1194>
   18208:	4581                	li	a1,0
   1820a:	4601                	li	a2,0
   1820c:	4681                	li	a3,0
   1820e:	00000073          	ecall
   18212:	05c14703          	lbu	a4,92(sp)
   18216:	4509                	li	a0,2
   18218:	00a10523          	sb	a0,10(sp)
   1821c:	00a71d63          	bne	a4,a0,18236 <_ZN20complex_dynamic_type3app17hdec7b4ced588e669E+0x138>
   18220:	00198513          	addi	a0,s3,1
   18224:	463d                	li	a2,15
   18226:	85ca                	mv	a1,s2
   18228:	00005097          	auipc	ra,0x5
   1822c:	54e080e7          	jalr	1358(ra) # 1d776 <memcpy>
   18230:	00098023          	sb	zero,0(s3)
   18234:	bf55                	j	181e8 <_ZN20complex_dynamic_type3app17hdec7b4ced588e669E+0xea>
   18236:	6505                	lui	a0,0x1
   18238:	3bf50513          	addi	a0,a0,959 # 13bf <.Lline_table_start1+0x1194>
   1823c:	458d                	li	a1,3
   1823e:	4601                	li	a2,0
   18240:	4681                	li	a3,0
   18242:	00000073          	ecall
   18246:	00a14483          	lbu	s1,10(sp)
   1824a:	00198513          	addi	a0,s3,1
   1824e:	463d                	li	a2,15
   18250:	85ca                	mv	a1,s2
   18252:	00005097          	auipc	ra,0x5
   18256:	524080e7          	jalr	1316(ra) # 1d776 <memcpy>
   1825a:	4509                	li	a0,2
   1825c:	00098023          	sb	zero,0(s3)
   18260:	f6a49be3          	bne	s1,a0,181d6 <_ZN20complex_dynamic_type3app17hdec7b4ced588e669E+0xd8>
   18264:	b751                	j	181e8 <_ZN20complex_dynamic_type3app17hdec7b4ced588e669E+0xea>

00018266 <_ZN20complex_dynamic_type3app17hdee57943d5c66ba7E>:
   18266:	7175                	addi	sp,sp,-144
   18268:	c706                	sw	ra,140(sp)
   1826a:	c522                	sw	s0,136(sp)
   1826c:	c326                	sw	s1,132(sp)
   1826e:	c14a                	sw	s2,128(sp)
   18270:	dece                	sw	s3,124(sp)
   18272:	89aa                	mv	s3,a0
   18274:	4409                	li	s0,2
   18276:	008105a3          	sb	s0,11(sp)
   1827a:	0064                	addi	s1,sp,12
   1827c:	05d00613          	li	a2,93
   18280:	8526                	mv	a0,s1
   18282:	00005097          	auipc	ra,0x5
   18286:	4f4080e7          	jalr	1268(ra) # 1d776 <memcpy>
   1828a:	06a10913          	addi	s2,sp,106
   1828e:	4649                	li	a2,18
   18290:	854a                	mv	a0,s2
   18292:	4581                	li	a1,0
   18294:	00005097          	auipc	ra,0x5
   18298:	476080e7          	jalr	1142(ra) # 1d70a <memset>
   1829c:	4581                	li	a1,0
   1829e:	8626                	mv	a2,s1
   182a0:	068104a3          	sb	s0,105(sp)
   182a4:	6505                	lui	a0,0x1
   182a6:	4491                	li	s1,4
   182a8:	5f150793          	addi	a5,a0,1521 # 15f1 <.Lline_table_start1+0x13c6>
   182ac:	05d00693          	li	a3,93
   182b0:	4711                	li	a4,4
   182b2:	853e                	mv	a0,a5
   182b4:	00000073          	ecall
   182b8:	00851863          	bne	a0,s0,182c8 <_ZN20complex_dynamic_type3app17hdee57943d5c66ba7E+0x62>
   182bc:	4505                	li	a0,1
   182be:	00a98023          	sb	a0,0(s3)
   182c2:	00b9a223          	sw	a1,4(s3)
   182c6:	a0b5                	j	18332 <_ZN20complex_dynamic_type3app17hdee57943d5c66ba7E+0xcc>
   182c8:	853e                	mv	a0,a5
   182ca:	864a                	mv	a2,s2
   182cc:	009105a3          	sb	s1,11(sp)
   182d0:	478d                	li	a5,3
   182d2:	4589                	li	a1,2
   182d4:	46c9                	li	a3,18
   182d6:	470d                	li	a4,3
   182d8:	00000073          	ecall
   182dc:	00851d63          	bne	a0,s0,182f6 <_ZN20complex_dynamic_type3app17hdee57943d5c66ba7E+0x90>
   182e0:	06914703          	lbu	a4,105(sp)
   182e4:	4505                	li	a0,1
   182e6:	4609                	li	a2,2
   182e8:	00a98023          	sb	a0,0(s3)
   182ec:	00b9a223          	sw	a1,4(s3)
   182f0:	02c71963          	bne	a4,a2,18322 <_ZN20complex_dynamic_type3app17hdee57943d5c66ba7E+0xbc>
   182f4:	a83d                	j	18332 <_ZN20complex_dynamic_type3app17hdee57943d5c66ba7E+0xcc>
   182f6:	4581                	li	a1,0
   182f8:	4681                	li	a3,0
   182fa:	06f104a3          	sb	a5,105(sp)
   182fe:	6505                	lui	a0,0x1
   18300:	4609                	li	a2,2
   18302:	4709                	li	a4,2
   18304:	5f150513          	addi	a0,a0,1521 # 15f1 <.Lline_table_start1+0x13c6>
   18308:	07f00793          	li	a5,127
   1830c:	00000073          	ecall
   18310:	4609                	li	a2,2
   18312:	04a7e563          	bltu	a5,a0,1835c <_ZN20complex_dynamic_type3app17hdee57943d5c66ba7E+0xf6>
   18316:	4505                	li	a0,1
   18318:	00a98023          	sb	a0,0(s3)
   1831c:	00b9a223          	sw	a1,4(s3)
   18320:	470d                	li	a4,3
   18322:	6505                	lui	a0,0x1
   18324:	5f150513          	addi	a0,a0,1521 # 15f1 <.Lline_table_start1+0x13c6>
   18328:	4589                	li	a1,2
   1832a:	4601                	li	a2,0
   1832c:	4681                	li	a3,0
   1832e:	00000073          	ecall
   18332:	00b14483          	lbu	s1,11(sp)
   18336:	4509                	li	a0,2
   18338:	00a48b63          	beq	s1,a0,1834e <_ZN20complex_dynamic_type3app17hdee57943d5c66ba7E+0xe8>
   1833c:	6505                	lui	a0,0x1
   1833e:	5f150513          	addi	a0,a0,1521 # 15f1 <.Lline_table_start1+0x13c6>
   18342:	4581                	li	a1,0
   18344:	4601                	li	a2,0
   18346:	4681                	li	a3,0
   18348:	8726                	mv	a4,s1
   1834a:	00000073          	ecall
   1834e:	40ba                	lw	ra,140(sp)
   18350:	442a                	lw	s0,136(sp)
   18352:	449a                	lw	s1,132(sp)
   18354:	490a                	lw	s2,128(sp)
   18356:	59f6                	lw	s3,124(sp)
   18358:	6149                	addi	sp,sp,144
   1835a:	8082                	ret
   1835c:	00b14703          	lbu	a4,11(sp)
   18360:	00c71463          	bne	a4,a2,18368 <_ZN20complex_dynamic_type3app17hdee57943d5c66ba7E+0x102>
   18364:	470d                	li	a4,3
   18366:	a81d                	j	1839c <_ZN20complex_dynamic_type3app17hdee57943d5c66ba7E+0x136>
   18368:	6505                	lui	a0,0x1
   1836a:	5f150513          	addi	a0,a0,1521 # 15f1 <.Lline_table_start1+0x13c6>
   1836e:	4581                	li	a1,0
   18370:	4601                	li	a2,0
   18372:	4681                	li	a3,0
   18374:	00000073          	ecall
   18378:	06914703          	lbu	a4,105(sp)
   1837c:	4509                	li	a0,2
   1837e:	00a105a3          	sb	a0,11(sp)
   18382:	00a71d63          	bne	a4,a0,1839c <_ZN20complex_dynamic_type3app17hdee57943d5c66ba7E+0x136>
   18386:	00198513          	addi	a0,s3,1
   1838a:	4649                	li	a2,18
   1838c:	85ca                	mv	a1,s2
   1838e:	00005097          	auipc	ra,0x5
   18392:	3e8080e7          	jalr	1000(ra) # 1d776 <memcpy>
   18396:	00098023          	sb	zero,0(s3)
   1839a:	bf55                	j	1834e <_ZN20complex_dynamic_type3app17hdee57943d5c66ba7E+0xe8>
   1839c:	4601                	li	a2,0
   1839e:	4681                	li	a3,0
   183a0:	6505                	lui	a0,0x1
   183a2:	5f150513          	addi	a0,a0,1521 # 15f1 <.Lline_table_start1+0x13c6>
   183a6:	4589                	li	a1,2
   183a8:	00000073          	ecall
   183ac:	00b14483          	lbu	s1,11(sp)
   183b0:	4409                	li	s0,2
   183b2:	00198513          	addi	a0,s3,1
   183b6:	4649                	li	a2,18
   183b8:	85ca                	mv	a1,s2
   183ba:	00005097          	auipc	ra,0x5
   183be:	3bc080e7          	jalr	956(ra) # 1d776 <memcpy>
   183c2:	00098023          	sb	zero,0(s3)
   183c6:	f6849be3          	bne	s1,s0,1833c <_ZN20complex_dynamic_type3app17hdee57943d5c66ba7E+0xd6>
   183ca:	b751                	j	1834e <_ZN20complex_dynamic_type3app17hdee57943d5c66ba7E+0xe8>

000183cc <_ZN20complex_dynamic_type3app17he35853783d7138f3E>:
   183cc:	7119                	addi	sp,sp,-128
   183ce:	de86                	sw	ra,124(sp)
   183d0:	dca2                	sw	s0,120(sp)
   183d2:	daa6                	sw	s1,116(sp)
   183d4:	d8ca                	sw	s2,112(sp)
   183d6:	d6ce                	sw	s3,108(sp)
   183d8:	89aa                	mv	s3,a0
   183da:	4409                	li	s0,2
   183dc:	00810123          	sb	s0,2(sp)
   183e0:	00310493          	addi	s1,sp,3
   183e4:	03c00613          	li	a2,60
   183e8:	8526                	mv	a0,s1
   183ea:	00005097          	auipc	ra,0x5
   183ee:	38c080e7          	jalr	908(ra) # 1d776 <memcpy>
   183f2:	04010913          	addi	s2,sp,64
   183f6:	02c00613          	li	a2,44
   183fa:	854a                	mv	a0,s2
   183fc:	4581                	li	a1,0
   183fe:	00005097          	auipc	ra,0x5
   18402:	30c080e7          	jalr	780(ra) # 1d70a <memset>
   18406:	8626                	mv	a2,s1
   18408:	02810fa3          	sb	s0,63(sp)
   1840c:	6509                	lui	a0,0x2
   1840e:	4491                	li	s1,4
   18410:	4595                	li	a1,5
   18412:	eac50793          	addi	a5,a0,-340 # 1eac <.Lline_table_start1+0x1c81>
   18416:	03c00693          	li	a3,60
   1841a:	4711                	li	a4,4
   1841c:	853e                	mv	a0,a5
   1841e:	00000073          	ecall
   18422:	00851863          	bne	a0,s0,18432 <_ZN20complex_dynamic_type3app17he35853783d7138f3E+0x66>
   18426:	4505                	li	a0,1
   18428:	00a98023          	sb	a0,0(s3)
   1842c:	00b9a223          	sw	a1,4(s3)
   18430:	a0bd                	j	1849e <_ZN20complex_dynamic_type3app17he35853783d7138f3E+0xd2>
   18432:	853e                	mv	a0,a5
   18434:	864a                	mv	a2,s2
   18436:	00910123          	sb	s1,2(sp)
   1843a:	478d                	li	a5,3
   1843c:	459d                	li	a1,7
   1843e:	02c00693          	li	a3,44
   18442:	470d                	li	a4,3
   18444:	00000073          	ecall
   18448:	00851d63          	bne	a0,s0,18462 <_ZN20complex_dynamic_type3app17he35853783d7138f3E+0x96>
   1844c:	03f14703          	lbu	a4,63(sp)
   18450:	4505                	li	a0,1
   18452:	4609                	li	a2,2
   18454:	00a98023          	sb	a0,0(s3)
   18458:	00b9a223          	sw	a1,4(s3)
   1845c:	02c71963          	bne	a4,a2,1848e <_ZN20complex_dynamic_type3app17he35853783d7138f3E+0xc2>
   18460:	a83d                	j	1849e <_ZN20complex_dynamic_type3app17he35853783d7138f3E+0xd2>
   18462:	4681                	li	a3,0
   18464:	02f10fa3          	sb	a5,63(sp)
   18468:	6509                	lui	a0,0x2
   1846a:	4595                	li	a1,5
   1846c:	461d                	li	a2,7
   1846e:	4709                	li	a4,2
   18470:	eac50513          	addi	a0,a0,-340 # 1eac <.Lline_table_start1+0x1c81>
   18474:	07f00793          	li	a5,127
   18478:	00000073          	ecall
   1847c:	4609                	li	a2,2
   1847e:	04a7e563          	bltu	a5,a0,184c8 <_ZN20complex_dynamic_type3app17he35853783d7138f3E+0xfc>
   18482:	4505                	li	a0,1
   18484:	00a98023          	sb	a0,0(s3)
   18488:	00b9a223          	sw	a1,4(s3)
   1848c:	470d                	li	a4,3
   1848e:	6509                	lui	a0,0x2
   18490:	eac50513          	addi	a0,a0,-340 # 1eac <.Lline_table_start1+0x1c81>
   18494:	459d                	li	a1,7
   18496:	4601                	li	a2,0
   18498:	4681                	li	a3,0
   1849a:	00000073          	ecall
   1849e:	00214483          	lbu	s1,2(sp)
   184a2:	4509                	li	a0,2
   184a4:	00a48b63          	beq	s1,a0,184ba <_ZN20complex_dynamic_type3app17he35853783d7138f3E+0xee>
   184a8:	6509                	lui	a0,0x2
   184aa:	eac50513          	addi	a0,a0,-340 # 1eac <.Lline_table_start1+0x1c81>
   184ae:	4595                	li	a1,5
   184b0:	4601                	li	a2,0
   184b2:	4681                	li	a3,0
   184b4:	8726                	mv	a4,s1
   184b6:	00000073          	ecall
   184ba:	50f6                	lw	ra,124(sp)
   184bc:	5466                	lw	s0,120(sp)
   184be:	54d6                	lw	s1,116(sp)
   184c0:	5946                	lw	s2,112(sp)
   184c2:	59b6                	lw	s3,108(sp)
   184c4:	6109                	addi	sp,sp,128
   184c6:	8082                	ret
   184c8:	00214703          	lbu	a4,2(sp)
   184cc:	00c71463          	bne	a4,a2,184d4 <_ZN20complex_dynamic_type3app17he35853783d7138f3E+0x108>
   184d0:	470d                	li	a4,3
   184d2:	a825                	j	1850a <_ZN20complex_dynamic_type3app17he35853783d7138f3E+0x13e>
   184d4:	6509                	lui	a0,0x2
   184d6:	eac50513          	addi	a0,a0,-340 # 1eac <.Lline_table_start1+0x1c81>
   184da:	4595                	li	a1,5
   184dc:	4601                	li	a2,0
   184de:	4681                	li	a3,0
   184e0:	00000073          	ecall
   184e4:	03f14703          	lbu	a4,63(sp)
   184e8:	4509                	li	a0,2
   184ea:	00a10123          	sb	a0,2(sp)
   184ee:	00a71e63          	bne	a4,a0,1850a <_ZN20complex_dynamic_type3app17he35853783d7138f3E+0x13e>
   184f2:	00198513          	addi	a0,s3,1
   184f6:	02c00613          	li	a2,44
   184fa:	85ca                	mv	a1,s2
   184fc:	00005097          	auipc	ra,0x5
   18500:	27a080e7          	jalr	634(ra) # 1d776 <memcpy>
   18504:	00098023          	sb	zero,0(s3)
   18508:	bf4d                	j	184ba <_ZN20complex_dynamic_type3app17he35853783d7138f3E+0xee>
   1850a:	6509                	lui	a0,0x2
   1850c:	eac50513          	addi	a0,a0,-340 # 1eac <.Lline_table_start1+0x1c81>
   18510:	459d                	li	a1,7
   18512:	4601                	li	a2,0
   18514:	4681                	li	a3,0
   18516:	00000073          	ecall
   1851a:	00214483          	lbu	s1,2(sp)
   1851e:	00198513          	addi	a0,s3,1
   18522:	02c00613          	li	a2,44
   18526:	85ca                	mv	a1,s2
   18528:	00005097          	auipc	ra,0x5
   1852c:	24e080e7          	jalr	590(ra) # 1d776 <memcpy>
   18530:	4509                	li	a0,2
   18532:	00098023          	sb	zero,0(s3)
   18536:	f6a499e3          	bne	s1,a0,184a8 <_ZN20complex_dynamic_type3app17he35853783d7138f3E+0xdc>
   1853a:	b741                	j	184ba <_ZN20complex_dynamic_type3app17he35853783d7138f3E+0xee>

0001853c <_ZN20complex_dynamic_type3app17he86b596d8cdc4446E>:
   1853c:	7135                	addi	sp,sp,-160
   1853e:	cf06                	sw	ra,156(sp)
   18540:	cd22                	sw	s0,152(sp)
   18542:	cb26                	sw	s1,148(sp)
   18544:	c94a                	sw	s2,144(sp)
   18546:	c74e                	sw	s3,140(sp)
   18548:	89aa                	mv	s3,a0
   1854a:	4409                	li	s0,2
   1854c:	00810323          	sb	s0,6(sp)
   18550:	00710493          	addi	s1,sp,7
   18554:	04f00613          	li	a2,79
   18558:	8526                	mv	a0,s1
   1855a:	00005097          	auipc	ra,0x5
   1855e:	21c080e7          	jalr	540(ra) # 1d776 <memcpy>
   18562:	05710913          	addi	s2,sp,87
   18566:	03500613          	li	a2,53
   1856a:	854a                	mv	a0,s2
   1856c:	4581                	li	a1,0
   1856e:	00005097          	auipc	ra,0x5
   18572:	19c080e7          	jalr	412(ra) # 1d70a <memset>
   18576:	8626                	mv	a2,s1
   18578:	04810b23          	sb	s0,86(sp)
   1857c:	6505                	lui	a0,0x1
   1857e:	4491                	li	s1,4
   18580:	459d                	li	a1,7
   18582:	6d750793          	addi	a5,a0,1751 # 16d7 <.Lline_table_start1+0x14ac>
   18586:	04f00693          	li	a3,79
   1858a:	4711                	li	a4,4
   1858c:	853e                	mv	a0,a5
   1858e:	00000073          	ecall
   18592:	00851863          	bne	a0,s0,185a2 <_ZN20complex_dynamic_type3app17he86b596d8cdc4446E+0x66>
   18596:	4505                	li	a0,1
   18598:	00a98023          	sb	a0,0(s3)
   1859c:	00b9a223          	sw	a1,4(s3)
   185a0:	a0bd                	j	1860e <_ZN20complex_dynamic_type3app17he86b596d8cdc4446E+0xd2>
   185a2:	853e                	mv	a0,a5
   185a4:	864a                	mv	a2,s2
   185a6:	00910323          	sb	s1,6(sp)
   185aa:	4785                	li	a5,1
   185ac:	448d                	li	s1,3
   185ae:	4585                	li	a1,1
   185b0:	03500693          	li	a3,53
   185b4:	470d                	li	a4,3
   185b6:	00000073          	ecall
   185ba:	00851c63          	bne	a0,s0,185d2 <_ZN20complex_dynamic_type3app17he86b596d8cdc4446E+0x96>
   185be:	05614703          	lbu	a4,86(sp)
   185c2:	4509                	li	a0,2
   185c4:	00f98023          	sb	a5,0(s3)
   185c8:	00b9a223          	sw	a1,4(s3)
   185cc:	02a71963          	bne	a4,a0,185fe <_ZN20complex_dynamic_type3app17he86b596d8cdc4446E+0xc2>
   185d0:	a83d                	j	1860e <_ZN20complex_dynamic_type3app17he86b596d8cdc4446E+0xd2>
   185d2:	4681                	li	a3,0
   185d4:	04910b23          	sb	s1,86(sp)
   185d8:	6505                	lui	a0,0x1
   185da:	4785                	li	a5,1
   185dc:	459d                	li	a1,7
   185de:	4605                	li	a2,1
   185e0:	4709                	li	a4,2
   185e2:	6d750513          	addi	a0,a0,1751 # 16d7 <.Lline_table_start1+0x14ac>
   185e6:	07f00493          	li	s1,127
   185ea:	00000073          	ecall
   185ee:	4609                	li	a2,2
   185f0:	04a4e463          	bltu	s1,a0,18638 <_ZN20complex_dynamic_type3app17he86b596d8cdc4446E+0xfc>
   185f4:	00f98023          	sb	a5,0(s3)
   185f8:	00b9a223          	sw	a1,4(s3)
   185fc:	470d                	li	a4,3
   185fe:	6505                	lui	a0,0x1
   18600:	6d750513          	addi	a0,a0,1751 # 16d7 <.Lline_table_start1+0x14ac>
   18604:	4585                	li	a1,1
   18606:	4601                	li	a2,0
   18608:	4681                	li	a3,0
   1860a:	00000073          	ecall
   1860e:	00614483          	lbu	s1,6(sp)
   18612:	4509                	li	a0,2
   18614:	00a48b63          	beq	s1,a0,1862a <_ZN20complex_dynamic_type3app17he86b596d8cdc4446E+0xee>
   18618:	6505                	lui	a0,0x1
   1861a:	6d750513          	addi	a0,a0,1751 # 16d7 <.Lline_table_start1+0x14ac>
   1861e:	459d                	li	a1,7
   18620:	4601                	li	a2,0
   18622:	4681                	li	a3,0
   18624:	8726                	mv	a4,s1
   18626:	00000073          	ecall
   1862a:	40fa                	lw	ra,156(sp)
   1862c:	446a                	lw	s0,152(sp)
   1862e:	44da                	lw	s1,148(sp)
   18630:	494a                	lw	s2,144(sp)
   18632:	49ba                	lw	s3,140(sp)
   18634:	610d                	addi	sp,sp,160
   18636:	8082                	ret
   18638:	00614703          	lbu	a4,6(sp)
   1863c:	00c71463          	bne	a4,a2,18644 <_ZN20complex_dynamic_type3app17he86b596d8cdc4446E+0x108>
   18640:	470d                	li	a4,3
   18642:	a825                	j	1867a <_ZN20complex_dynamic_type3app17he86b596d8cdc4446E+0x13e>
   18644:	6505                	lui	a0,0x1
   18646:	6d750513          	addi	a0,a0,1751 # 16d7 <.Lline_table_start1+0x14ac>
   1864a:	459d                	li	a1,7
   1864c:	4601                	li	a2,0
   1864e:	4681                	li	a3,0
   18650:	00000073          	ecall
   18654:	05614703          	lbu	a4,86(sp)
   18658:	4509                	li	a0,2
   1865a:	00a10323          	sb	a0,6(sp)
   1865e:	00a71e63          	bne	a4,a0,1867a <_ZN20complex_dynamic_type3app17he86b596d8cdc4446E+0x13e>
   18662:	00198513          	addi	a0,s3,1
   18666:	03500613          	li	a2,53
   1866a:	85ca                	mv	a1,s2
   1866c:	00005097          	auipc	ra,0x5
   18670:	10a080e7          	jalr	266(ra) # 1d776 <memcpy>
   18674:	00098023          	sb	zero,0(s3)
   18678:	bf4d                	j	1862a <_ZN20complex_dynamic_type3app17he86b596d8cdc4446E+0xee>
   1867a:	6505                	lui	a0,0x1
   1867c:	6d750513          	addi	a0,a0,1751 # 16d7 <.Lline_table_start1+0x14ac>
   18680:	4585                	li	a1,1
   18682:	4601                	li	a2,0
   18684:	4681                	li	a3,0
   18686:	00000073          	ecall
   1868a:	00614483          	lbu	s1,6(sp)
   1868e:	00198513          	addi	a0,s3,1
   18692:	03500613          	li	a2,53
   18696:	85ca                	mv	a1,s2
   18698:	00005097          	auipc	ra,0x5
   1869c:	0de080e7          	jalr	222(ra) # 1d776 <memcpy>
   186a0:	4509                	li	a0,2
   186a2:	00098023          	sb	zero,0(s3)
   186a6:	f6a499e3          	bne	s1,a0,18618 <_ZN20complex_dynamic_type3app17he86b596d8cdc4446E+0xdc>
   186aa:	b741                	j	1862a <_ZN20complex_dynamic_type3app17he86b596d8cdc4446E+0xee>

000186ac <_ZN20complex_dynamic_type3app17he94a73e7c43f0bafE>:
   186ac:	7159                	addi	sp,sp,-112
   186ae:	d686                	sw	ra,108(sp)
   186b0:	d4a2                	sw	s0,104(sp)
   186b2:	d2a6                	sw	s1,100(sp)
   186b4:	d0ca                	sw	s2,96(sp)
   186b6:	cece                	sw	s3,92(sp)
   186b8:	89aa                	mv	s3,a0
   186ba:	4409                	li	s0,2
   186bc:	00810623          	sb	s0,12(sp)
   186c0:	00d10493          	addi	s1,sp,13
   186c4:	02300613          	li	a2,35
   186c8:	8526                	mv	a0,s1
   186ca:	00005097          	auipc	ra,0x5
   186ce:	0ac080e7          	jalr	172(ra) # 1d776 <memcpy>
   186d2:	03110913          	addi	s2,sp,49
   186d6:	02b00613          	li	a2,43
   186da:	854a                	mv	a0,s2
   186dc:	4581                	li	a1,0
   186de:	00005097          	auipc	ra,0x5
   186e2:	02c080e7          	jalr	44(ra) # 1d70a <memset>
   186e6:	8626                	mv	a2,s1
   186e8:	02810823          	sb	s0,48(sp)
   186ec:	6505                	lui	a0,0x1
   186ee:	4491                	li	s1,4
   186f0:	4589                	li	a1,2
   186f2:	d5d50793          	addi	a5,a0,-675 # d5d <.Lline_table_start1+0xb32>
   186f6:	02300693          	li	a3,35
   186fa:	4711                	li	a4,4
   186fc:	853e                	mv	a0,a5
   186fe:	00000073          	ecall
   18702:	00851863          	bne	a0,s0,18712 <_ZN20complex_dynamic_type3app17he94a73e7c43f0bafE+0x66>
   18706:	4505                	li	a0,1
   18708:	00a98023          	sb	a0,0(s3)
   1870c:	00b9a223          	sw	a1,4(s3)
   18710:	a0bd                	j	1877e <_ZN20complex_dynamic_type3app17he94a73e7c43f0bafE+0xd2>
   18712:	853e                	mv	a0,a5
   18714:	4581                	li	a1,0
   18716:	864a                	mv	a2,s2
   18718:	00910623          	sb	s1,12(sp)
   1871c:	478d                	li	a5,3
   1871e:	02b00693          	li	a3,43
   18722:	470d                	li	a4,3
   18724:	00000073          	ecall
   18728:	00851d63          	bne	a0,s0,18742 <_ZN20complex_dynamic_type3app17he94a73e7c43f0bafE+0x96>
   1872c:	03014703          	lbu	a4,48(sp)
   18730:	4505                	li	a0,1
   18732:	4609                	li	a2,2
   18734:	00a98023          	sb	a0,0(s3)
   18738:	00b9a223          	sw	a1,4(s3)
   1873c:	02c71963          	bne	a4,a2,1876e <_ZN20complex_dynamic_type3app17he94a73e7c43f0bafE+0xc2>
   18740:	a83d                	j	1877e <_ZN20complex_dynamic_type3app17he94a73e7c43f0bafE+0xd2>
   18742:	4601                	li	a2,0
   18744:	4681                	li	a3,0
   18746:	02f10823          	sb	a5,48(sp)
   1874a:	6505                	lui	a0,0x1
   1874c:	4589                	li	a1,2
   1874e:	4709                	li	a4,2
   18750:	d5d50513          	addi	a0,a0,-675 # d5d <.Lline_table_start1+0xb32>
   18754:	07f00793          	li	a5,127
   18758:	00000073          	ecall
   1875c:	4609                	li	a2,2
   1875e:	04a7e563          	bltu	a5,a0,187a8 <_ZN20complex_dynamic_type3app17he94a73e7c43f0bafE+0xfc>
   18762:	4505                	li	a0,1
   18764:	00a98023          	sb	a0,0(s3)
   18768:	00b9a223          	sw	a1,4(s3)
   1876c:	470d                	li	a4,3
   1876e:	6505                	lui	a0,0x1
   18770:	d5d50513          	addi	a0,a0,-675 # d5d <.Lline_table_start1+0xb32>
   18774:	4581                	li	a1,0
   18776:	4601                	li	a2,0
   18778:	4681                	li	a3,0
   1877a:	00000073          	ecall
   1877e:	00c14483          	lbu	s1,12(sp)
   18782:	4509                	li	a0,2
   18784:	00a48b63          	beq	s1,a0,1879a <_ZN20complex_dynamic_type3app17he94a73e7c43f0bafE+0xee>
   18788:	6505                	lui	a0,0x1
   1878a:	d5d50513          	addi	a0,a0,-675 # d5d <.Lline_table_start1+0xb32>
   1878e:	4589                	li	a1,2
   18790:	4601                	li	a2,0
   18792:	4681                	li	a3,0
   18794:	8726                	mv	a4,s1
   18796:	00000073          	ecall
   1879a:	50b6                	lw	ra,108(sp)
   1879c:	5426                	lw	s0,104(sp)
   1879e:	5496                	lw	s1,100(sp)
   187a0:	5906                	lw	s2,96(sp)
   187a2:	49f6                	lw	s3,92(sp)
   187a4:	6165                	addi	sp,sp,112
   187a6:	8082                	ret
   187a8:	00c14703          	lbu	a4,12(sp)
   187ac:	00c71463          	bne	a4,a2,187b4 <_ZN20complex_dynamic_type3app17he94a73e7c43f0bafE+0x108>
   187b0:	470d                	li	a4,3
   187b2:	a825                	j	187ea <_ZN20complex_dynamic_type3app17he94a73e7c43f0bafE+0x13e>
   187b4:	6505                	lui	a0,0x1
   187b6:	d5d50513          	addi	a0,a0,-675 # d5d <.Lline_table_start1+0xb32>
   187ba:	4589                	li	a1,2
   187bc:	4601                	li	a2,0
   187be:	4681                	li	a3,0
   187c0:	00000073          	ecall
   187c4:	03014703          	lbu	a4,48(sp)
   187c8:	4509                	li	a0,2
   187ca:	00a10623          	sb	a0,12(sp)
   187ce:	00a71e63          	bne	a4,a0,187ea <_ZN20complex_dynamic_type3app17he94a73e7c43f0bafE+0x13e>
   187d2:	00198513          	addi	a0,s3,1
   187d6:	02b00613          	li	a2,43
   187da:	85ca                	mv	a1,s2
   187dc:	00005097          	auipc	ra,0x5
   187e0:	f9a080e7          	jalr	-102(ra) # 1d776 <memcpy>
   187e4:	00098023          	sb	zero,0(s3)
   187e8:	bf4d                	j	1879a <_ZN20complex_dynamic_type3app17he94a73e7c43f0bafE+0xee>
   187ea:	6505                	lui	a0,0x1
   187ec:	d5d50513          	addi	a0,a0,-675 # d5d <.Lline_table_start1+0xb32>
   187f0:	4581                	li	a1,0
   187f2:	4601                	li	a2,0
   187f4:	4681                	li	a3,0
   187f6:	00000073          	ecall
   187fa:	00c14483          	lbu	s1,12(sp)
   187fe:	00198513          	addi	a0,s3,1
   18802:	02b00613          	li	a2,43
   18806:	85ca                	mv	a1,s2
   18808:	00005097          	auipc	ra,0x5
   1880c:	f6e080e7          	jalr	-146(ra) # 1d776 <memcpy>
   18810:	4509                	li	a0,2
   18812:	00098023          	sb	zero,0(s3)
   18816:	f6a499e3          	bne	s1,a0,18788 <_ZN20complex_dynamic_type3app17he94a73e7c43f0bafE+0xdc>
   1881a:	b741                	j	1879a <_ZN20complex_dynamic_type3app17he94a73e7c43f0bafE+0xee>

0001881c <_ZN20complex_dynamic_type3app17hea2f62c56204b332E>:
   1881c:	7159                	addi	sp,sp,-112
   1881e:	d686                	sw	ra,108(sp)
   18820:	d4a2                	sw	s0,104(sp)
   18822:	d2a6                	sw	s1,100(sp)
   18824:	d0ca                	sw	s2,96(sp)
   18826:	cece                	sw	s3,92(sp)
   18828:	89aa                	mv	s3,a0
   1882a:	4409                	li	s0,2
   1882c:	00810523          	sb	s0,10(sp)
   18830:	00b10493          	addi	s1,sp,11
   18834:	4645                	li	a2,17
   18836:	8526                	mv	a0,s1
   18838:	00005097          	auipc	ra,0x5
   1883c:	f3e080e7          	jalr	-194(ra) # 1d776 <memcpy>
   18840:	01d10913          	addi	s2,sp,29
   18844:	03f00613          	li	a2,63
   18848:	854a                	mv	a0,s2
   1884a:	4581                	li	a1,0
   1884c:	00005097          	auipc	ra,0x5
   18850:	ebe080e7          	jalr	-322(ra) # 1d70a <memset>
   18854:	8626                	mv	a2,s1
   18856:	00810e23          	sb	s0,28(sp)
   1885a:	6505                	lui	a0,0x1
   1885c:	4491                	li	s1,4
   1885e:	459d                	li	a1,7
   18860:	cb050793          	addi	a5,a0,-848 # cb0 <.Lline_table_start1+0xa85>
   18864:	46c5                	li	a3,17
   18866:	4711                	li	a4,4
   18868:	853e                	mv	a0,a5
   1886a:	00000073          	ecall
   1886e:	00851863          	bne	a0,s0,1887e <_ZN20complex_dynamic_type3app17hea2f62c56204b332E+0x62>
   18872:	4505                	li	a0,1
   18874:	00a98023          	sb	a0,0(s3)
   18878:	00b9a223          	sw	a1,4(s3)
   1887c:	a0bd                	j	188ea <_ZN20complex_dynamic_type3app17hea2f62c56204b332E+0xce>
   1887e:	853e                	mv	a0,a5
   18880:	864a                	mv	a2,s2
   18882:	00910523          	sb	s1,10(sp)
   18886:	478d                	li	a5,3
   18888:	4591                	li	a1,4
   1888a:	03f00693          	li	a3,63
   1888e:	470d                	li	a4,3
   18890:	00000073          	ecall
   18894:	00851d63          	bne	a0,s0,188ae <_ZN20complex_dynamic_type3app17hea2f62c56204b332E+0x92>
   18898:	01c14703          	lbu	a4,28(sp)
   1889c:	4505                	li	a0,1
   1889e:	4609                	li	a2,2
   188a0:	00a98023          	sb	a0,0(s3)
   188a4:	00b9a223          	sw	a1,4(s3)
   188a8:	02c71963          	bne	a4,a2,188da <_ZN20complex_dynamic_type3app17hea2f62c56204b332E+0xbe>
   188ac:	a83d                	j	188ea <_ZN20complex_dynamic_type3app17hea2f62c56204b332E+0xce>
   188ae:	4681                	li	a3,0
   188b0:	00f10e23          	sb	a5,28(sp)
   188b4:	6505                	lui	a0,0x1
   188b6:	459d                	li	a1,7
   188b8:	4611                	li	a2,4
   188ba:	4709                	li	a4,2
   188bc:	cb050513          	addi	a0,a0,-848 # cb0 <.Lline_table_start1+0xa85>
   188c0:	07f00793          	li	a5,127
   188c4:	00000073          	ecall
   188c8:	4609                	li	a2,2
   188ca:	04a7e563          	bltu	a5,a0,18914 <_ZN20complex_dynamic_type3app17hea2f62c56204b332E+0xf8>
   188ce:	4505                	li	a0,1
   188d0:	00a98023          	sb	a0,0(s3)
   188d4:	00b9a223          	sw	a1,4(s3)
   188d8:	470d                	li	a4,3
   188da:	6505                	lui	a0,0x1
   188dc:	cb050513          	addi	a0,a0,-848 # cb0 <.Lline_table_start1+0xa85>
   188e0:	4591                	li	a1,4
   188e2:	4601                	li	a2,0
   188e4:	4681                	li	a3,0
   188e6:	00000073          	ecall
   188ea:	00a14483          	lbu	s1,10(sp)
   188ee:	4509                	li	a0,2
   188f0:	00a48b63          	beq	s1,a0,18906 <_ZN20complex_dynamic_type3app17hea2f62c56204b332E+0xea>
   188f4:	6505                	lui	a0,0x1
   188f6:	cb050513          	addi	a0,a0,-848 # cb0 <.Lline_table_start1+0xa85>
   188fa:	459d                	li	a1,7
   188fc:	4601                	li	a2,0
   188fe:	4681                	li	a3,0
   18900:	8726                	mv	a4,s1
   18902:	00000073          	ecall
   18906:	50b6                	lw	ra,108(sp)
   18908:	5426                	lw	s0,104(sp)
   1890a:	5496                	lw	s1,100(sp)
   1890c:	5906                	lw	s2,96(sp)
   1890e:	49f6                	lw	s3,92(sp)
   18910:	6165                	addi	sp,sp,112
   18912:	8082                	ret
   18914:	00a14703          	lbu	a4,10(sp)
   18918:	00c71463          	bne	a4,a2,18920 <_ZN20complex_dynamic_type3app17hea2f62c56204b332E+0x104>
   1891c:	470d                	li	a4,3
   1891e:	a825                	j	18956 <_ZN20complex_dynamic_type3app17hea2f62c56204b332E+0x13a>
   18920:	6505                	lui	a0,0x1
   18922:	cb050513          	addi	a0,a0,-848 # cb0 <.Lline_table_start1+0xa85>
   18926:	459d                	li	a1,7
   18928:	4601                	li	a2,0
   1892a:	4681                	li	a3,0
   1892c:	00000073          	ecall
   18930:	01c14703          	lbu	a4,28(sp)
   18934:	4509                	li	a0,2
   18936:	00a10523          	sb	a0,10(sp)
   1893a:	00a71e63          	bne	a4,a0,18956 <_ZN20complex_dynamic_type3app17hea2f62c56204b332E+0x13a>
   1893e:	00198513          	addi	a0,s3,1
   18942:	03f00613          	li	a2,63
   18946:	85ca                	mv	a1,s2
   18948:	00005097          	auipc	ra,0x5
   1894c:	e2e080e7          	jalr	-466(ra) # 1d776 <memcpy>
   18950:	00098023          	sb	zero,0(s3)
   18954:	bf4d                	j	18906 <_ZN20complex_dynamic_type3app17hea2f62c56204b332E+0xea>
   18956:	6505                	lui	a0,0x1
   18958:	cb050513          	addi	a0,a0,-848 # cb0 <.Lline_table_start1+0xa85>
   1895c:	4591                	li	a1,4
   1895e:	4601                	li	a2,0
   18960:	4681                	li	a3,0
   18962:	00000073          	ecall
   18966:	00a14483          	lbu	s1,10(sp)
   1896a:	00198513          	addi	a0,s3,1
   1896e:	03f00613          	li	a2,63
   18972:	85ca                	mv	a1,s2
   18974:	00005097          	auipc	ra,0x5
   18978:	e02080e7          	jalr	-510(ra) # 1d776 <memcpy>
   1897c:	4509                	li	a0,2
   1897e:	00098023          	sb	zero,0(s3)
   18982:	f6a499e3          	bne	s1,a0,188f4 <_ZN20complex_dynamic_type3app17hea2f62c56204b332E+0xd8>
   18986:	b741                	j	18906 <_ZN20complex_dynamic_type3app17hea2f62c56204b332E+0xea>

00018988 <_ZN20complex_dynamic_type3app17hec54c99d602c928bE>:
   18988:	7175                	addi	sp,sp,-144
   1898a:	c706                	sw	ra,140(sp)
   1898c:	c522                	sw	s0,136(sp)
   1898e:	c326                	sw	s1,132(sp)
   18990:	c14a                	sw	s2,128(sp)
   18992:	dece                	sw	s3,124(sp)
   18994:	89aa                	mv	s3,a0
   18996:	4409                	li	s0,2
   18998:	00810223          	sb	s0,4(sp)
   1899c:	00510493          	addi	s1,sp,5
   189a0:	02700613          	li	a2,39
   189a4:	8526                	mv	a0,s1
   189a6:	00005097          	auipc	ra,0x5
   189aa:	dd0080e7          	jalr	-560(ra) # 1d776 <memcpy>
   189ae:	02d10913          	addi	s2,sp,45
   189b2:	04f00613          	li	a2,79
   189b6:	854a                	mv	a0,s2
   189b8:	4581                	li	a1,0
   189ba:	00005097          	auipc	ra,0x5
   189be:	d50080e7          	jalr	-688(ra) # 1d70a <memset>
   189c2:	8626                	mv	a2,s1
   189c4:	02810623          	sb	s0,44(sp)
   189c8:	6505                	lui	a0,0x1
   189ca:	4491                	li	s1,4
   189cc:	45a5                	li	a1,9
   189ce:	b4c50793          	addi	a5,a0,-1204 # b4c <.Lline_table_start1+0x921>
   189d2:	02700693          	li	a3,39
   189d6:	4711                	li	a4,4
   189d8:	853e                	mv	a0,a5
   189da:	00000073          	ecall
   189de:	00851863          	bne	a0,s0,189ee <_ZN20complex_dynamic_type3app17hec54c99d602c928bE+0x66>
   189e2:	4505                	li	a0,1
   189e4:	00a98023          	sb	a0,0(s3)
   189e8:	00b9a223          	sw	a1,4(s3)
   189ec:	a0bd                	j	18a5a <_ZN20complex_dynamic_type3app17hec54c99d602c928bE+0xd2>
   189ee:	853e                	mv	a0,a5
   189f0:	4581                	li	a1,0
   189f2:	864a                	mv	a2,s2
   189f4:	00910223          	sb	s1,4(sp)
   189f8:	478d                	li	a5,3
   189fa:	04f00693          	li	a3,79
   189fe:	470d                	li	a4,3
   18a00:	00000073          	ecall
   18a04:	00851d63          	bne	a0,s0,18a1e <_ZN20complex_dynamic_type3app17hec54c99d602c928bE+0x96>
   18a08:	02c14703          	lbu	a4,44(sp)
   18a0c:	4505                	li	a0,1
   18a0e:	4609                	li	a2,2
   18a10:	00a98023          	sb	a0,0(s3)
   18a14:	00b9a223          	sw	a1,4(s3)
   18a18:	02c71963          	bne	a4,a2,18a4a <_ZN20complex_dynamic_type3app17hec54c99d602c928bE+0xc2>
   18a1c:	a83d                	j	18a5a <_ZN20complex_dynamic_type3app17hec54c99d602c928bE+0xd2>
   18a1e:	4601                	li	a2,0
   18a20:	4681                	li	a3,0
   18a22:	02f10623          	sb	a5,44(sp)
   18a26:	6505                	lui	a0,0x1
   18a28:	45a5                	li	a1,9
   18a2a:	4709                	li	a4,2
   18a2c:	b4c50513          	addi	a0,a0,-1204 # b4c <.Lline_table_start1+0x921>
   18a30:	07f00793          	li	a5,127
   18a34:	00000073          	ecall
   18a38:	4609                	li	a2,2
   18a3a:	04a7e563          	bltu	a5,a0,18a84 <_ZN20complex_dynamic_type3app17hec54c99d602c928bE+0xfc>
   18a3e:	4505                	li	a0,1
   18a40:	00a98023          	sb	a0,0(s3)
   18a44:	00b9a223          	sw	a1,4(s3)
   18a48:	470d                	li	a4,3
   18a4a:	6505                	lui	a0,0x1
   18a4c:	b4c50513          	addi	a0,a0,-1204 # b4c <.Lline_table_start1+0x921>
   18a50:	4581                	li	a1,0
   18a52:	4601                	li	a2,0
   18a54:	4681                	li	a3,0
   18a56:	00000073          	ecall
   18a5a:	00414483          	lbu	s1,4(sp)
   18a5e:	4509                	li	a0,2
   18a60:	00a48b63          	beq	s1,a0,18a76 <_ZN20complex_dynamic_type3app17hec54c99d602c928bE+0xee>
   18a64:	6505                	lui	a0,0x1
   18a66:	b4c50513          	addi	a0,a0,-1204 # b4c <.Lline_table_start1+0x921>
   18a6a:	45a5                	li	a1,9
   18a6c:	4601                	li	a2,0
   18a6e:	4681                	li	a3,0
   18a70:	8726                	mv	a4,s1
   18a72:	00000073          	ecall
   18a76:	40ba                	lw	ra,140(sp)
   18a78:	442a                	lw	s0,136(sp)
   18a7a:	449a                	lw	s1,132(sp)
   18a7c:	490a                	lw	s2,128(sp)
   18a7e:	59f6                	lw	s3,124(sp)
   18a80:	6149                	addi	sp,sp,144
   18a82:	8082                	ret
   18a84:	00414703          	lbu	a4,4(sp)
   18a88:	00c71463          	bne	a4,a2,18a90 <_ZN20complex_dynamic_type3app17hec54c99d602c928bE+0x108>
   18a8c:	470d                	li	a4,3
   18a8e:	a825                	j	18ac6 <_ZN20complex_dynamic_type3app17hec54c99d602c928bE+0x13e>
   18a90:	6505                	lui	a0,0x1
   18a92:	b4c50513          	addi	a0,a0,-1204 # b4c <.Lline_table_start1+0x921>
   18a96:	45a5                	li	a1,9
   18a98:	4601                	li	a2,0
   18a9a:	4681                	li	a3,0
   18a9c:	00000073          	ecall
   18aa0:	02c14703          	lbu	a4,44(sp)
   18aa4:	4509                	li	a0,2
   18aa6:	00a10223          	sb	a0,4(sp)
   18aaa:	00a71e63          	bne	a4,a0,18ac6 <_ZN20complex_dynamic_type3app17hec54c99d602c928bE+0x13e>
   18aae:	00198513          	addi	a0,s3,1
   18ab2:	04f00613          	li	a2,79
   18ab6:	85ca                	mv	a1,s2
   18ab8:	00005097          	auipc	ra,0x5
   18abc:	cbe080e7          	jalr	-834(ra) # 1d776 <memcpy>
   18ac0:	00098023          	sb	zero,0(s3)
   18ac4:	bf4d                	j	18a76 <_ZN20complex_dynamic_type3app17hec54c99d602c928bE+0xee>
   18ac6:	6505                	lui	a0,0x1
   18ac8:	b4c50513          	addi	a0,a0,-1204 # b4c <.Lline_table_start1+0x921>
   18acc:	4581                	li	a1,0
   18ace:	4601                	li	a2,0
   18ad0:	4681                	li	a3,0
   18ad2:	00000073          	ecall
   18ad6:	00414483          	lbu	s1,4(sp)
   18ada:	00198513          	addi	a0,s3,1
   18ade:	04f00613          	li	a2,79
   18ae2:	85ca                	mv	a1,s2
   18ae4:	00005097          	auipc	ra,0x5
   18ae8:	c92080e7          	jalr	-878(ra) # 1d776 <memcpy>
   18aec:	4509                	li	a0,2
   18aee:	00098023          	sb	zero,0(s3)
   18af2:	f6a499e3          	bne	s1,a0,18a64 <_ZN20complex_dynamic_type3app17hec54c99d602c928bE+0xdc>
   18af6:	b741                	j	18a76 <_ZN20complex_dynamic_type3app17hec54c99d602c928bE+0xee>

00018af8 <_ZN20complex_dynamic_type3app17hf00c7892ae7d0bb8E>:
   18af8:	7159                	addi	sp,sp,-112
   18afa:	d686                	sw	ra,108(sp)
   18afc:	d4a2                	sw	s0,104(sp)
   18afe:	d2a6                	sw	s1,100(sp)
   18b00:	d0ca                	sw	s2,96(sp)
   18b02:	cece                	sw	s3,92(sp)
   18b04:	89aa                	mv	s3,a0
   18b06:	4409                	li	s0,2
   18b08:	00810623          	sb	s0,12(sp)
   18b0c:	00d10493          	addi	s1,sp,13
   18b10:	4661                	li	a2,24
   18b12:	8526                	mv	a0,s1
   18b14:	00005097          	auipc	ra,0x5
   18b18:	c62080e7          	jalr	-926(ra) # 1d776 <memcpy>
   18b1c:	02610913          	addi	s2,sp,38
   18b20:	03600613          	li	a2,54
   18b24:	854a                	mv	a0,s2
   18b26:	4581                	li	a1,0
   18b28:	00005097          	auipc	ra,0x5
   18b2c:	be2080e7          	jalr	-1054(ra) # 1d70a <memset>
   18b30:	8626                	mv	a2,s1
   18b32:	028102a3          	sb	s0,37(sp)
   18b36:	4791                	li	a5,4
   18b38:	0f300513          	li	a0,243
   18b3c:	45a1                	li	a1,8
   18b3e:	46e1                	li	a3,24
   18b40:	4711                	li	a4,4
   18b42:	00000073          	ecall
   18b46:	00851863          	bne	a0,s0,18b56 <_ZN20complex_dynamic_type3app17hf00c7892ae7d0bb8E+0x5e>
   18b4a:	4505                	li	a0,1
   18b4c:	00a98023          	sb	a0,0(s3)
   18b50:	00b9a223          	sw	a1,4(s3)
   18b54:	a0b5                	j	18bc0 <_ZN20complex_dynamic_type3app17hf00c7892ae7d0bb8E+0xc8>
   18b56:	864a                	mv	a2,s2
   18b58:	00f10623          	sb	a5,12(sp)
   18b5c:	478d                	li	a5,3
   18b5e:	0f300513          	li	a0,243
   18b62:	4591                	li	a1,4
   18b64:	03600693          	li	a3,54
   18b68:	470d                	li	a4,3
   18b6a:	00000073          	ecall
   18b6e:	00851d63          	bne	a0,s0,18b88 <_ZN20complex_dynamic_type3app17hf00c7892ae7d0bb8E+0x90>
   18b72:	02514703          	lbu	a4,37(sp)
   18b76:	4505                	li	a0,1
   18b78:	4609                	li	a2,2
   18b7a:	00a98023          	sb	a0,0(s3)
   18b7e:	00b9a223          	sw	a1,4(s3)
   18b82:	02c71863          	bne	a4,a2,18bb2 <_ZN20complex_dynamic_type3app17hf00c7892ae7d0bb8E+0xba>
   18b86:	a82d                	j	18bc0 <_ZN20complex_dynamic_type3app17hf00c7892ae7d0bb8E+0xc8>
   18b88:	4681                	li	a3,0
   18b8a:	02f102a3          	sb	a5,37(sp)
   18b8e:	0f300513          	li	a0,243
   18b92:	45a1                	li	a1,8
   18b94:	4611                	li	a2,4
   18b96:	4709                	li	a4,2
   18b98:	07f00793          	li	a5,127
   18b9c:	00000073          	ecall
   18ba0:	4609                	li	a2,2
   18ba2:	04a7e363          	bltu	a5,a0,18be8 <_ZN20complex_dynamic_type3app17hf00c7892ae7d0bb8E+0xf0>
   18ba6:	4505                	li	a0,1
   18ba8:	00a98023          	sb	a0,0(s3)
   18bac:	00b9a223          	sw	a1,4(s3)
   18bb0:	470d                	li	a4,3
   18bb2:	0f300513          	li	a0,243
   18bb6:	4591                	li	a1,4
   18bb8:	4601                	li	a2,0
   18bba:	4681                	li	a3,0
   18bbc:	00000073          	ecall
   18bc0:	00c14483          	lbu	s1,12(sp)
   18bc4:	4509                	li	a0,2
   18bc6:	00a48a63          	beq	s1,a0,18bda <_ZN20complex_dynamic_type3app17hf00c7892ae7d0bb8E+0xe2>
   18bca:	0f300513          	li	a0,243
   18bce:	45a1                	li	a1,8
   18bd0:	4601                	li	a2,0
   18bd2:	4681                	li	a3,0
   18bd4:	8726                	mv	a4,s1
   18bd6:	00000073          	ecall
   18bda:	50b6                	lw	ra,108(sp)
   18bdc:	5426                	lw	s0,104(sp)
   18bde:	5496                	lw	s1,100(sp)
   18be0:	5906                	lw	s2,96(sp)
   18be2:	49f6                	lw	s3,92(sp)
   18be4:	6165                	addi	sp,sp,112
   18be6:	8082                	ret
   18be8:	00c14703          	lbu	a4,12(sp)
   18bec:	00c71463          	bne	a4,a2,18bf4 <_ZN20complex_dynamic_type3app17hf00c7892ae7d0bb8E+0xfc>
   18bf0:	470d                	li	a4,3
   18bf2:	a81d                	j	18c28 <_ZN20complex_dynamic_type3app17hf00c7892ae7d0bb8E+0x130>
   18bf4:	0f300513          	li	a0,243
   18bf8:	45a1                	li	a1,8
   18bfa:	4601                	li	a2,0
   18bfc:	4681                	li	a3,0
   18bfe:	00000073          	ecall
   18c02:	02514703          	lbu	a4,37(sp)
   18c06:	4509                	li	a0,2
   18c08:	00a10623          	sb	a0,12(sp)
   18c0c:	00a71e63          	bne	a4,a0,18c28 <_ZN20complex_dynamic_type3app17hf00c7892ae7d0bb8E+0x130>
   18c10:	00198513          	addi	a0,s3,1
   18c14:	03600613          	li	a2,54
   18c18:	85ca                	mv	a1,s2
   18c1a:	00005097          	auipc	ra,0x5
   18c1e:	b5c080e7          	jalr	-1188(ra) # 1d776 <memcpy>
   18c22:	00098023          	sb	zero,0(s3)
   18c26:	bf55                	j	18bda <_ZN20complex_dynamic_type3app17hf00c7892ae7d0bb8E+0xe2>
   18c28:	0f300513          	li	a0,243
   18c2c:	4591                	li	a1,4
   18c2e:	4601                	li	a2,0
   18c30:	4681                	li	a3,0
   18c32:	00000073          	ecall
   18c36:	00c14483          	lbu	s1,12(sp)
   18c3a:	00198513          	addi	a0,s3,1
   18c3e:	03600613          	li	a2,54
   18c42:	85ca                	mv	a1,s2
   18c44:	00005097          	auipc	ra,0x5
   18c48:	b32080e7          	jalr	-1230(ra) # 1d776 <memcpy>
   18c4c:	4509                	li	a0,2
   18c4e:	00098023          	sb	zero,0(s3)
   18c52:	f6a49ce3          	bne	s1,a0,18bca <_ZN20complex_dynamic_type3app17hf00c7892ae7d0bb8E+0xd2>
   18c56:	b751                	j	18bda <_ZN20complex_dynamic_type3app17hf00c7892ae7d0bb8E+0xe2>

00018c58 <_ZN20complex_dynamic_type3app17hf03d30e66d328eb9E>:
   18c58:	7159                	addi	sp,sp,-112
   18c5a:	d686                	sw	ra,108(sp)
   18c5c:	d4a2                	sw	s0,104(sp)
   18c5e:	d2a6                	sw	s1,100(sp)
   18c60:	d0ca                	sw	s2,96(sp)
   18c62:	cece                	sw	s3,92(sp)
   18c64:	89aa                	mv	s3,a0
   18c66:	4409                	li	s0,2
   18c68:	00810223          	sb	s0,4(sp)
   18c6c:	00510493          	addi	s1,sp,5
   18c70:	4639                	li	a2,14
   18c72:	8526                	mv	a0,s1
   18c74:	00005097          	auipc	ra,0x5
   18c78:	b02080e7          	jalr	-1278(ra) # 1d776 <memcpy>
   18c7c:	01410913          	addi	s2,sp,20
   18c80:	04800613          	li	a2,72
   18c84:	854a                	mv	a0,s2
   18c86:	4581                	li	a1,0
   18c88:	00005097          	auipc	ra,0x5
   18c8c:	a82080e7          	jalr	-1406(ra) # 1d70a <memset>
   18c90:	8626                	mv	a2,s1
   18c92:	008109a3          	sb	s0,19(sp)
   18c96:	6505                	lui	a0,0x1
   18c98:	4491                	li	s1,4
   18c9a:	458d                	li	a1,3
   18c9c:	2d150793          	addi	a5,a0,721 # 12d1 <.Lline_table_start1+0x10a6>
   18ca0:	46b9                	li	a3,14
   18ca2:	4711                	li	a4,4
   18ca4:	853e                	mv	a0,a5
   18ca6:	00000073          	ecall
   18caa:	00851863          	bne	a0,s0,18cba <_ZN20complex_dynamic_type3app17hf03d30e66d328eb9E+0x62>
   18cae:	4505                	li	a0,1
   18cb0:	00a98023          	sb	a0,0(s3)
   18cb4:	00b9a223          	sw	a1,4(s3)
   18cb8:	a0bd                	j	18d26 <_ZN20complex_dynamic_type3app17hf03d30e66d328eb9E+0xce>
   18cba:	853e                	mv	a0,a5
   18cbc:	864a                	mv	a2,s2
   18cbe:	00910223          	sb	s1,4(sp)
   18cc2:	478d                	li	a5,3
   18cc4:	45a1                	li	a1,8
   18cc6:	04800693          	li	a3,72
   18cca:	470d                	li	a4,3
   18ccc:	00000073          	ecall
   18cd0:	00851d63          	bne	a0,s0,18cea <_ZN20complex_dynamic_type3app17hf03d30e66d328eb9E+0x92>
   18cd4:	01314703          	lbu	a4,19(sp)
   18cd8:	4505                	li	a0,1
   18cda:	4609                	li	a2,2
   18cdc:	00a98023          	sb	a0,0(s3)
   18ce0:	00b9a223          	sw	a1,4(s3)
   18ce4:	02c71963          	bne	a4,a2,18d16 <_ZN20complex_dynamic_type3app17hf03d30e66d328eb9E+0xbe>
   18ce8:	a83d                	j	18d26 <_ZN20complex_dynamic_type3app17hf03d30e66d328eb9E+0xce>
   18cea:	4681                	li	a3,0
   18cec:	00f109a3          	sb	a5,19(sp)
   18cf0:	6505                	lui	a0,0x1
   18cf2:	458d                	li	a1,3
   18cf4:	4621                	li	a2,8
   18cf6:	4709                	li	a4,2
   18cf8:	2d150513          	addi	a0,a0,721 # 12d1 <.Lline_table_start1+0x10a6>
   18cfc:	07f00793          	li	a5,127
   18d00:	00000073          	ecall
   18d04:	4609                	li	a2,2
   18d06:	04a7e563          	bltu	a5,a0,18d50 <_ZN20complex_dynamic_type3app17hf03d30e66d328eb9E+0xf8>
   18d0a:	4505                	li	a0,1
   18d0c:	00a98023          	sb	a0,0(s3)
   18d10:	00b9a223          	sw	a1,4(s3)
   18d14:	470d                	li	a4,3
   18d16:	6505                	lui	a0,0x1
   18d18:	2d150513          	addi	a0,a0,721 # 12d1 <.Lline_table_start1+0x10a6>
   18d1c:	45a1                	li	a1,8
   18d1e:	4601                	li	a2,0
   18d20:	4681                	li	a3,0
   18d22:	00000073          	ecall
   18d26:	00414483          	lbu	s1,4(sp)
   18d2a:	4509                	li	a0,2
   18d2c:	00a48b63          	beq	s1,a0,18d42 <_ZN20complex_dynamic_type3app17hf03d30e66d328eb9E+0xea>
   18d30:	6505                	lui	a0,0x1
   18d32:	2d150513          	addi	a0,a0,721 # 12d1 <.Lline_table_start1+0x10a6>
   18d36:	458d                	li	a1,3
   18d38:	4601                	li	a2,0
   18d3a:	4681                	li	a3,0
   18d3c:	8726                	mv	a4,s1
   18d3e:	00000073          	ecall
   18d42:	50b6                	lw	ra,108(sp)
   18d44:	5426                	lw	s0,104(sp)
   18d46:	5496                	lw	s1,100(sp)
   18d48:	5906                	lw	s2,96(sp)
   18d4a:	49f6                	lw	s3,92(sp)
   18d4c:	6165                	addi	sp,sp,112
   18d4e:	8082                	ret
   18d50:	00414703          	lbu	a4,4(sp)
   18d54:	00c71463          	bne	a4,a2,18d5c <_ZN20complex_dynamic_type3app17hf03d30e66d328eb9E+0x104>
   18d58:	470d                	li	a4,3
   18d5a:	a825                	j	18d92 <_ZN20complex_dynamic_type3app17hf03d30e66d328eb9E+0x13a>
   18d5c:	6505                	lui	a0,0x1
   18d5e:	2d150513          	addi	a0,a0,721 # 12d1 <.Lline_table_start1+0x10a6>
   18d62:	458d                	li	a1,3
   18d64:	4601                	li	a2,0
   18d66:	4681                	li	a3,0
   18d68:	00000073          	ecall
   18d6c:	01314703          	lbu	a4,19(sp)
   18d70:	4509                	li	a0,2
   18d72:	00a10223          	sb	a0,4(sp)
   18d76:	00a71e63          	bne	a4,a0,18d92 <_ZN20complex_dynamic_type3app17hf03d30e66d328eb9E+0x13a>
   18d7a:	00198513          	addi	a0,s3,1
   18d7e:	04800613          	li	a2,72
   18d82:	85ca                	mv	a1,s2
   18d84:	00005097          	auipc	ra,0x5
   18d88:	9f2080e7          	jalr	-1550(ra) # 1d776 <memcpy>
   18d8c:	00098023          	sb	zero,0(s3)
   18d90:	bf4d                	j	18d42 <_ZN20complex_dynamic_type3app17hf03d30e66d328eb9E+0xea>
   18d92:	6505                	lui	a0,0x1
   18d94:	2d150513          	addi	a0,a0,721 # 12d1 <.Lline_table_start1+0x10a6>
   18d98:	45a1                	li	a1,8
   18d9a:	4601                	li	a2,0
   18d9c:	4681                	li	a3,0
   18d9e:	00000073          	ecall
   18da2:	00414483          	lbu	s1,4(sp)
   18da6:	00198513          	addi	a0,s3,1
   18daa:	04800613          	li	a2,72
   18dae:	85ca                	mv	a1,s2
   18db0:	00005097          	auipc	ra,0x5
   18db4:	9c6080e7          	jalr	-1594(ra) # 1d776 <memcpy>
   18db8:	4509                	li	a0,2
   18dba:	00098023          	sb	zero,0(s3)
   18dbe:	f6a499e3          	bne	s1,a0,18d30 <_ZN20complex_dynamic_type3app17hf03d30e66d328eb9E+0xd8>
   18dc2:	b741                	j	18d42 <_ZN20complex_dynamic_type3app17hf03d30e66d328eb9E+0xea>

00018dc4 <_ZN20complex_dynamic_type3app17hf244e5509b1bc801E>:
   18dc4:	7135                	addi	sp,sp,-160
   18dc6:	cf06                	sw	ra,156(sp)
   18dc8:	cd22                	sw	s0,152(sp)
   18dca:	cb26                	sw	s1,148(sp)
   18dcc:	c94a                	sw	s2,144(sp)
   18dce:	c74e                	sw	s3,140(sp)
   18dd0:	89aa                	mv	s3,a0
   18dd2:	4409                	li	s0,2
   18dd4:	008100a3          	sb	s0,1(sp)
   18dd8:	00210493          	addi	s1,sp,2
   18ddc:	04d00613          	li	a2,77
   18de0:	8526                	mv	a0,s1
   18de2:	00005097          	auipc	ra,0x5
   18de6:	994080e7          	jalr	-1644(ra) # 1d776 <memcpy>
   18dea:	05010913          	addi	s2,sp,80
   18dee:	03c00613          	li	a2,60
   18df2:	854a                	mv	a0,s2
   18df4:	4581                	li	a1,0
   18df6:	00005097          	auipc	ra,0x5
   18dfa:	914080e7          	jalr	-1772(ra) # 1d70a <memset>
   18dfe:	8626                	mv	a2,s1
   18e00:	048107a3          	sb	s0,79(sp)
   18e04:	6509                	lui	a0,0x2
   18e06:	4491                	li	s1,4
   18e08:	4591                	li	a1,4
   18e0a:	1ab50793          	addi	a5,a0,427 # 21ab <.Lline_table_start1+0x1f80>
   18e0e:	04d00693          	li	a3,77
   18e12:	4711                	li	a4,4
   18e14:	853e                	mv	a0,a5
   18e16:	00000073          	ecall
   18e1a:	00851863          	bne	a0,s0,18e2a <_ZN20complex_dynamic_type3app17hf244e5509b1bc801E+0x66>
   18e1e:	4505                	li	a0,1
   18e20:	00a98023          	sb	a0,0(s3)
   18e24:	00b9a223          	sw	a1,4(s3)
   18e28:	a0bd                	j	18e96 <_ZN20complex_dynamic_type3app17hf244e5509b1bc801E+0xd2>
   18e2a:	853e                	mv	a0,a5
   18e2c:	864a                	mv	a2,s2
   18e2e:	009100a3          	sb	s1,1(sp)
   18e32:	478d                	li	a5,3
   18e34:	45a5                	li	a1,9
   18e36:	03c00693          	li	a3,60
   18e3a:	470d                	li	a4,3
   18e3c:	00000073          	ecall
   18e40:	00851d63          	bne	a0,s0,18e5a <_ZN20complex_dynamic_type3app17hf244e5509b1bc801E+0x96>
   18e44:	04f14703          	lbu	a4,79(sp)
   18e48:	4505                	li	a0,1
   18e4a:	4609                	li	a2,2
   18e4c:	00a98023          	sb	a0,0(s3)
   18e50:	00b9a223          	sw	a1,4(s3)
   18e54:	02c71963          	bne	a4,a2,18e86 <_ZN20complex_dynamic_type3app17hf244e5509b1bc801E+0xc2>
   18e58:	a83d                	j	18e96 <_ZN20complex_dynamic_type3app17hf244e5509b1bc801E+0xd2>
   18e5a:	4681                	li	a3,0
   18e5c:	04f107a3          	sb	a5,79(sp)
   18e60:	6509                	lui	a0,0x2
   18e62:	4591                	li	a1,4
   18e64:	4625                	li	a2,9
   18e66:	4709                	li	a4,2
   18e68:	1ab50513          	addi	a0,a0,427 # 21ab <.Lline_table_start1+0x1f80>
   18e6c:	07f00793          	li	a5,127
   18e70:	00000073          	ecall
   18e74:	4609                	li	a2,2
   18e76:	04a7e563          	bltu	a5,a0,18ec0 <_ZN20complex_dynamic_type3app17hf244e5509b1bc801E+0xfc>
   18e7a:	4505                	li	a0,1
   18e7c:	00a98023          	sb	a0,0(s3)
   18e80:	00b9a223          	sw	a1,4(s3)
   18e84:	470d                	li	a4,3
   18e86:	6509                	lui	a0,0x2
   18e88:	1ab50513          	addi	a0,a0,427 # 21ab <.Lline_table_start1+0x1f80>
   18e8c:	45a5                	li	a1,9
   18e8e:	4601                	li	a2,0
   18e90:	4681                	li	a3,0
   18e92:	00000073          	ecall
   18e96:	00114483          	lbu	s1,1(sp)
   18e9a:	4509                	li	a0,2
   18e9c:	00a48b63          	beq	s1,a0,18eb2 <_ZN20complex_dynamic_type3app17hf244e5509b1bc801E+0xee>
   18ea0:	6509                	lui	a0,0x2
   18ea2:	1ab50513          	addi	a0,a0,427 # 21ab <.Lline_table_start1+0x1f80>
   18ea6:	4591                	li	a1,4
   18ea8:	4601                	li	a2,0
   18eaa:	4681                	li	a3,0
   18eac:	8726                	mv	a4,s1
   18eae:	00000073          	ecall
   18eb2:	40fa                	lw	ra,156(sp)
   18eb4:	446a                	lw	s0,152(sp)
   18eb6:	44da                	lw	s1,148(sp)
   18eb8:	494a                	lw	s2,144(sp)
   18eba:	49ba                	lw	s3,140(sp)
   18ebc:	610d                	addi	sp,sp,160
   18ebe:	8082                	ret
   18ec0:	00114703          	lbu	a4,1(sp)
   18ec4:	00c71463          	bne	a4,a2,18ecc <_ZN20complex_dynamic_type3app17hf244e5509b1bc801E+0x108>
   18ec8:	470d                	li	a4,3
   18eca:	a825                	j	18f02 <_ZN20complex_dynamic_type3app17hf244e5509b1bc801E+0x13e>
   18ecc:	6509                	lui	a0,0x2
   18ece:	1ab50513          	addi	a0,a0,427 # 21ab <.Lline_table_start1+0x1f80>
   18ed2:	4591                	li	a1,4
   18ed4:	4601                	li	a2,0
   18ed6:	4681                	li	a3,0
   18ed8:	00000073          	ecall
   18edc:	04f14703          	lbu	a4,79(sp)
   18ee0:	4509                	li	a0,2
   18ee2:	00a100a3          	sb	a0,1(sp)
   18ee6:	00a71e63          	bne	a4,a0,18f02 <_ZN20complex_dynamic_type3app17hf244e5509b1bc801E+0x13e>
   18eea:	00198513          	addi	a0,s3,1
   18eee:	03c00613          	li	a2,60
   18ef2:	85ca                	mv	a1,s2
   18ef4:	00005097          	auipc	ra,0x5
   18ef8:	882080e7          	jalr	-1918(ra) # 1d776 <memcpy>
   18efc:	00098023          	sb	zero,0(s3)
   18f00:	bf4d                	j	18eb2 <_ZN20complex_dynamic_type3app17hf244e5509b1bc801E+0xee>
   18f02:	6509                	lui	a0,0x2
   18f04:	1ab50513          	addi	a0,a0,427 # 21ab <.Lline_table_start1+0x1f80>
   18f08:	45a5                	li	a1,9
   18f0a:	4601                	li	a2,0
   18f0c:	4681                	li	a3,0
   18f0e:	00000073          	ecall
   18f12:	00114483          	lbu	s1,1(sp)
   18f16:	00198513          	addi	a0,s3,1
   18f1a:	03c00613          	li	a2,60
   18f1e:	85ca                	mv	a1,s2
   18f20:	00005097          	auipc	ra,0x5
   18f24:	856080e7          	jalr	-1962(ra) # 1d776 <memcpy>
   18f28:	4509                	li	a0,2
   18f2a:	00098023          	sb	zero,0(s3)
   18f2e:	f6a499e3          	bne	s1,a0,18ea0 <_ZN20complex_dynamic_type3app17hf244e5509b1bc801E+0xdc>
   18f32:	b741                	j	18eb2 <_ZN20complex_dynamic_type3app17hf244e5509b1bc801E+0xee>

00018f34 <_ZN20complex_dynamic_type3app17hf439ea5421eb2aafE>:
   18f34:	7159                	addi	sp,sp,-112
   18f36:	d686                	sw	ra,108(sp)
   18f38:	d4a2                	sw	s0,104(sp)
   18f3a:	d2a6                	sw	s1,100(sp)
   18f3c:	d0ca                	sw	s2,96(sp)
   18f3e:	cece                	sw	s3,92(sp)
   18f40:	89aa                	mv	s3,a0
   18f42:	4409                	li	s0,2
   18f44:	008104a3          	sb	s0,9(sp)
   18f48:	00a10493          	addi	s1,sp,10
   18f4c:	02c00613          	li	a2,44
   18f50:	8526                	mv	a0,s1
   18f52:	00005097          	auipc	ra,0x5
   18f56:	824080e7          	jalr	-2012(ra) # 1d776 <memcpy>
   18f5a:	03710913          	addi	s2,sp,55
   18f5e:	02500613          	li	a2,37
   18f62:	854a                	mv	a0,s2
   18f64:	4581                	li	a1,0
   18f66:	00004097          	auipc	ra,0x4
   18f6a:	7a4080e7          	jalr	1956(ra) # 1d70a <memset>
   18f6e:	8626                	mv	a2,s1
   18f70:	02810b23          	sb	s0,54(sp)
   18f74:	4791                	li	a5,4
   18f76:	77f00513          	li	a0,1919
   18f7a:	458d                	li	a1,3
   18f7c:	02c00693          	li	a3,44
   18f80:	4711                	li	a4,4
   18f82:	00000073          	ecall
   18f86:	00851863          	bne	a0,s0,18f96 <_ZN20complex_dynamic_type3app17hf439ea5421eb2aafE+0x62>
   18f8a:	4505                	li	a0,1
   18f8c:	00a98023          	sb	a0,0(s3)
   18f90:	00b9a223          	sw	a1,4(s3)
   18f94:	a0b5                	j	19000 <_ZN20complex_dynamic_type3app17hf439ea5421eb2aafE+0xcc>
   18f96:	4581                	li	a1,0
   18f98:	864a                	mv	a2,s2
   18f9a:	00f104a3          	sb	a5,9(sp)
   18f9e:	478d                	li	a5,3
   18fa0:	77f00513          	li	a0,1919
   18fa4:	02500693          	li	a3,37
   18fa8:	470d                	li	a4,3
   18faa:	00000073          	ecall
   18fae:	00851d63          	bne	a0,s0,18fc8 <_ZN20complex_dynamic_type3app17hf439ea5421eb2aafE+0x94>
   18fb2:	03614703          	lbu	a4,54(sp)
   18fb6:	4505                	li	a0,1
   18fb8:	4609                	li	a2,2
   18fba:	00a98023          	sb	a0,0(s3)
   18fbe:	00b9a223          	sw	a1,4(s3)
   18fc2:	02c71863          	bne	a4,a2,18ff2 <_ZN20complex_dynamic_type3app17hf439ea5421eb2aafE+0xbe>
   18fc6:	a82d                	j	19000 <_ZN20complex_dynamic_type3app17hf439ea5421eb2aafE+0xcc>
   18fc8:	4601                	li	a2,0
   18fca:	4681                	li	a3,0
   18fcc:	02f10b23          	sb	a5,54(sp)
   18fd0:	77f00513          	li	a0,1919
   18fd4:	458d                	li	a1,3
   18fd6:	4709                	li	a4,2
   18fd8:	07f00793          	li	a5,127
   18fdc:	00000073          	ecall
   18fe0:	4609                	li	a2,2
   18fe2:	04a7e363          	bltu	a5,a0,19028 <_ZN20complex_dynamic_type3app17hf439ea5421eb2aafE+0xf4>
   18fe6:	4505                	li	a0,1
   18fe8:	00a98023          	sb	a0,0(s3)
   18fec:	00b9a223          	sw	a1,4(s3)
   18ff0:	470d                	li	a4,3
   18ff2:	77f00513          	li	a0,1919
   18ff6:	4581                	li	a1,0
   18ff8:	4601                	li	a2,0
   18ffa:	4681                	li	a3,0
   18ffc:	00000073          	ecall
   19000:	00914483          	lbu	s1,9(sp)
   19004:	4509                	li	a0,2
   19006:	00a48a63          	beq	s1,a0,1901a <_ZN20complex_dynamic_type3app17hf439ea5421eb2aafE+0xe6>
   1900a:	77f00513          	li	a0,1919
   1900e:	458d                	li	a1,3
   19010:	4601                	li	a2,0
   19012:	4681                	li	a3,0
   19014:	8726                	mv	a4,s1
   19016:	00000073          	ecall
   1901a:	50b6                	lw	ra,108(sp)
   1901c:	5426                	lw	s0,104(sp)
   1901e:	5496                	lw	s1,100(sp)
   19020:	5906                	lw	s2,96(sp)
   19022:	49f6                	lw	s3,92(sp)
   19024:	6165                	addi	sp,sp,112
   19026:	8082                	ret
   19028:	00914703          	lbu	a4,9(sp)
   1902c:	00c71463          	bne	a4,a2,19034 <_ZN20complex_dynamic_type3app17hf439ea5421eb2aafE+0x100>
   19030:	470d                	li	a4,3
   19032:	a81d                	j	19068 <_ZN20complex_dynamic_type3app17hf439ea5421eb2aafE+0x134>
   19034:	77f00513          	li	a0,1919
   19038:	458d                	li	a1,3
   1903a:	4601                	li	a2,0
   1903c:	4681                	li	a3,0
   1903e:	00000073          	ecall
   19042:	03614703          	lbu	a4,54(sp)
   19046:	4509                	li	a0,2
   19048:	00a104a3          	sb	a0,9(sp)
   1904c:	00a71e63          	bne	a4,a0,19068 <_ZN20complex_dynamic_type3app17hf439ea5421eb2aafE+0x134>
   19050:	00198513          	addi	a0,s3,1
   19054:	02500613          	li	a2,37
   19058:	85ca                	mv	a1,s2
   1905a:	00004097          	auipc	ra,0x4
   1905e:	71c080e7          	jalr	1820(ra) # 1d776 <memcpy>
   19062:	00098023          	sb	zero,0(s3)
   19066:	bf55                	j	1901a <_ZN20complex_dynamic_type3app17hf439ea5421eb2aafE+0xe6>
   19068:	77f00513          	li	a0,1919
   1906c:	4581                	li	a1,0
   1906e:	4601                	li	a2,0
   19070:	4681                	li	a3,0
   19072:	00000073          	ecall
   19076:	00914483          	lbu	s1,9(sp)
   1907a:	00198513          	addi	a0,s3,1
   1907e:	02500613          	li	a2,37
   19082:	85ca                	mv	a1,s2
   19084:	00004097          	auipc	ra,0x4
   19088:	6f2080e7          	jalr	1778(ra) # 1d776 <memcpy>
   1908c:	4509                	li	a0,2
   1908e:	00098023          	sb	zero,0(s3)
   19092:	f6a49ce3          	bne	s1,a0,1900a <_ZN20complex_dynamic_type3app17hf439ea5421eb2aafE+0xd6>
   19096:	b751                	j	1901a <_ZN20complex_dynamic_type3app17hf439ea5421eb2aafE+0xe6>

00019098 <_ZN20complex_dynamic_type3app17hf9b5536be85dbb87E>:
   19098:	7135                	addi	sp,sp,-160
   1909a:	cf06                	sw	ra,156(sp)
   1909c:	cd22                	sw	s0,152(sp)
   1909e:	cb26                	sw	s1,148(sp)
   190a0:	c94a                	sw	s2,144(sp)
   190a2:	c74e                	sw	s3,140(sp)
   190a4:	89aa                	mv	s3,a0
   190a6:	4409                	li	s0,2
   190a8:	00810523          	sb	s0,10(sp)
   190ac:	00b10493          	addi	s1,sp,11
   190b0:	02d00613          	li	a2,45
   190b4:	8526                	mv	a0,s1
   190b6:	00004097          	auipc	ra,0x4
   190ba:	6c0080e7          	jalr	1728(ra) # 1d776 <memcpy>
   190be:	03910913          	addi	s2,sp,57
   190c2:	05300613          	li	a2,83
   190c6:	854a                	mv	a0,s2
   190c8:	4581                	li	a1,0
   190ca:	00004097          	auipc	ra,0x4
   190ce:	640080e7          	jalr	1600(ra) # 1d70a <memset>
   190d2:	8626                	mv	a2,s1
   190d4:	02810c23          	sb	s0,56(sp)
   190d8:	6505                	lui	a0,0x1
   190da:	4491                	li	s1,4
   190dc:	4589                	li	a1,2
   190de:	ec350793          	addi	a5,a0,-317 # ec3 <.Lline_table_start1+0xc98>
   190e2:	02d00693          	li	a3,45
   190e6:	4711                	li	a4,4
   190e8:	853e                	mv	a0,a5
   190ea:	00000073          	ecall
   190ee:	00851863          	bne	a0,s0,190fe <_ZN20complex_dynamic_type3app17hf9b5536be85dbb87E+0x66>
   190f2:	4505                	li	a0,1
   190f4:	00a98023          	sb	a0,0(s3)
   190f8:	00b9a223          	sw	a1,4(s3)
   190fc:	a0bd                	j	1916a <_ZN20complex_dynamic_type3app17hf9b5536be85dbb87E+0xd2>
   190fe:	853e                	mv	a0,a5
   19100:	864a                	mv	a2,s2
   19102:	00910523          	sb	s1,10(sp)
   19106:	478d                	li	a5,3
   19108:	459d                	li	a1,7
   1910a:	05300693          	li	a3,83
   1910e:	470d                	li	a4,3
   19110:	00000073          	ecall
   19114:	00851d63          	bne	a0,s0,1912e <_ZN20complex_dynamic_type3app17hf9b5536be85dbb87E+0x96>
   19118:	03814703          	lbu	a4,56(sp)
   1911c:	4505                	li	a0,1
   1911e:	4609                	li	a2,2
   19120:	00a98023          	sb	a0,0(s3)
   19124:	00b9a223          	sw	a1,4(s3)
   19128:	02c71963          	bne	a4,a2,1915a <_ZN20complex_dynamic_type3app17hf9b5536be85dbb87E+0xc2>
   1912c:	a83d                	j	1916a <_ZN20complex_dynamic_type3app17hf9b5536be85dbb87E+0xd2>
   1912e:	4681                	li	a3,0
   19130:	02f10c23          	sb	a5,56(sp)
   19134:	6505                	lui	a0,0x1
   19136:	4589                	li	a1,2
   19138:	461d                	li	a2,7
   1913a:	4709                	li	a4,2
   1913c:	ec350513          	addi	a0,a0,-317 # ec3 <.Lline_table_start1+0xc98>
   19140:	07f00793          	li	a5,127
   19144:	00000073          	ecall
   19148:	4609                	li	a2,2
   1914a:	04a7e563          	bltu	a5,a0,19194 <_ZN20complex_dynamic_type3app17hf9b5536be85dbb87E+0xfc>
   1914e:	4505                	li	a0,1
   19150:	00a98023          	sb	a0,0(s3)
   19154:	00b9a223          	sw	a1,4(s3)
   19158:	470d                	li	a4,3
   1915a:	6505                	lui	a0,0x1
   1915c:	ec350513          	addi	a0,a0,-317 # ec3 <.Lline_table_start1+0xc98>
   19160:	459d                	li	a1,7
   19162:	4601                	li	a2,0
   19164:	4681                	li	a3,0
   19166:	00000073          	ecall
   1916a:	00a14483          	lbu	s1,10(sp)
   1916e:	4509                	li	a0,2
   19170:	00a48b63          	beq	s1,a0,19186 <_ZN20complex_dynamic_type3app17hf9b5536be85dbb87E+0xee>
   19174:	6505                	lui	a0,0x1
   19176:	ec350513          	addi	a0,a0,-317 # ec3 <.Lline_table_start1+0xc98>
   1917a:	4589                	li	a1,2
   1917c:	4601                	li	a2,0
   1917e:	4681                	li	a3,0
   19180:	8726                	mv	a4,s1
   19182:	00000073          	ecall
   19186:	40fa                	lw	ra,156(sp)
   19188:	446a                	lw	s0,152(sp)
   1918a:	44da                	lw	s1,148(sp)
   1918c:	494a                	lw	s2,144(sp)
   1918e:	49ba                	lw	s3,140(sp)
   19190:	610d                	addi	sp,sp,160
   19192:	8082                	ret
   19194:	00a14703          	lbu	a4,10(sp)
   19198:	00c71463          	bne	a4,a2,191a0 <_ZN20complex_dynamic_type3app17hf9b5536be85dbb87E+0x108>
   1919c:	470d                	li	a4,3
   1919e:	a825                	j	191d6 <_ZN20complex_dynamic_type3app17hf9b5536be85dbb87E+0x13e>
   191a0:	6505                	lui	a0,0x1
   191a2:	ec350513          	addi	a0,a0,-317 # ec3 <.Lline_table_start1+0xc98>
   191a6:	4589                	li	a1,2
   191a8:	4601                	li	a2,0
   191aa:	4681                	li	a3,0
   191ac:	00000073          	ecall
   191b0:	03814703          	lbu	a4,56(sp)
   191b4:	4509                	li	a0,2
   191b6:	00a10523          	sb	a0,10(sp)
   191ba:	00a71e63          	bne	a4,a0,191d6 <_ZN20complex_dynamic_type3app17hf9b5536be85dbb87E+0x13e>
   191be:	00198513          	addi	a0,s3,1
   191c2:	05300613          	li	a2,83
   191c6:	85ca                	mv	a1,s2
   191c8:	00004097          	auipc	ra,0x4
   191cc:	5ae080e7          	jalr	1454(ra) # 1d776 <memcpy>
   191d0:	00098023          	sb	zero,0(s3)
   191d4:	bf4d                	j	19186 <_ZN20complex_dynamic_type3app17hf9b5536be85dbb87E+0xee>
   191d6:	6505                	lui	a0,0x1
   191d8:	ec350513          	addi	a0,a0,-317 # ec3 <.Lline_table_start1+0xc98>
   191dc:	459d                	li	a1,7
   191de:	4601                	li	a2,0
   191e0:	4681                	li	a3,0
   191e2:	00000073          	ecall
   191e6:	00a14483          	lbu	s1,10(sp)
   191ea:	00198513          	addi	a0,s3,1
   191ee:	05300613          	li	a2,83
   191f2:	85ca                	mv	a1,s2
   191f4:	00004097          	auipc	ra,0x4
   191f8:	582080e7          	jalr	1410(ra) # 1d776 <memcpy>
   191fc:	4509                	li	a0,2
   191fe:	00098023          	sb	zero,0(s3)
   19202:	f6a499e3          	bne	s1,a0,19174 <_ZN20complex_dynamic_type3app17hf9b5536be85dbb87E+0xdc>
   19206:	b741                	j	19186 <_ZN20complex_dynamic_type3app17hf9b5536be85dbb87E+0xee>

00019208 <_ZN20complex_dynamic_type3app17hfbbf692ff8a99e22E>:
   19208:	7159                	addi	sp,sp,-112
   1920a:	d686                	sw	ra,108(sp)
   1920c:	d4a2                	sw	s0,104(sp)
   1920e:	d2a6                	sw	s1,100(sp)
   19210:	d0ca                	sw	s2,96(sp)
   19212:	cece                	sw	s3,92(sp)
   19214:	89aa                	mv	s3,a0
   19216:	4409                	li	s0,2
   19218:	008103a3          	sb	s0,7(sp)
   1921c:	0024                	addi	s1,sp,8
   1921e:	02c00613          	li	a2,44
   19222:	8526                	mv	a0,s1
   19224:	00004097          	auipc	ra,0x4
   19228:	552080e7          	jalr	1362(ra) # 1d776 <memcpy>
   1922c:	03510913          	addi	s2,sp,53
   19230:	02700613          	li	a2,39
   19234:	854a                	mv	a0,s2
   19236:	4581                	li	a1,0
   19238:	00004097          	auipc	ra,0x4
   1923c:	4d2080e7          	jalr	1234(ra) # 1d70a <memset>
   19240:	8626                	mv	a2,s1
   19242:	02810a23          	sb	s0,52(sp)
   19246:	6505                	lui	a0,0x1
   19248:	4491                	li	s1,4
   1924a:	4591                	li	a1,4
   1924c:	1b550793          	addi	a5,a0,437 # 11b5 <.Lline_table_start1+0xf8a>
   19250:	02c00693          	li	a3,44
   19254:	4711                	li	a4,4
   19256:	853e                	mv	a0,a5
   19258:	00000073          	ecall
   1925c:	00851863          	bne	a0,s0,1926c <_ZN20complex_dynamic_type3app17hfbbf692ff8a99e22E+0x64>
   19260:	4505                	li	a0,1
   19262:	00a98023          	sb	a0,0(s3)
   19266:	00b9a223          	sw	a1,4(s3)
   1926a:	a0bd                	j	192d8 <_ZN20complex_dynamic_type3app17hfbbf692ff8a99e22E+0xd0>
   1926c:	853e                	mv	a0,a5
   1926e:	864a                	mv	a2,s2
   19270:	009103a3          	sb	s1,7(sp)
   19274:	478d                	li	a5,3
   19276:	458d                	li	a1,3
   19278:	02700693          	li	a3,39
   1927c:	470d                	li	a4,3
   1927e:	00000073          	ecall
   19282:	00851d63          	bne	a0,s0,1929c <_ZN20complex_dynamic_type3app17hfbbf692ff8a99e22E+0x94>
   19286:	03414703          	lbu	a4,52(sp)
   1928a:	4505                	li	a0,1
   1928c:	4609                	li	a2,2
   1928e:	00a98023          	sb	a0,0(s3)
   19292:	00b9a223          	sw	a1,4(s3)
   19296:	02c71963          	bne	a4,a2,192c8 <_ZN20complex_dynamic_type3app17hfbbf692ff8a99e22E+0xc0>
   1929a:	a83d                	j	192d8 <_ZN20complex_dynamic_type3app17hfbbf692ff8a99e22E+0xd0>
   1929c:	4681                	li	a3,0
   1929e:	02f10a23          	sb	a5,52(sp)
   192a2:	6505                	lui	a0,0x1
   192a4:	4591                	li	a1,4
   192a6:	460d                	li	a2,3
   192a8:	4709                	li	a4,2
   192aa:	1b550513          	addi	a0,a0,437 # 11b5 <.Lline_table_start1+0xf8a>
   192ae:	07f00793          	li	a5,127
   192b2:	00000073          	ecall
   192b6:	4609                	li	a2,2
   192b8:	04a7e563          	bltu	a5,a0,19302 <_ZN20complex_dynamic_type3app17hfbbf692ff8a99e22E+0xfa>
   192bc:	4505                	li	a0,1
   192be:	00a98023          	sb	a0,0(s3)
   192c2:	00b9a223          	sw	a1,4(s3)
   192c6:	470d                	li	a4,3
   192c8:	6505                	lui	a0,0x1
   192ca:	1b550513          	addi	a0,a0,437 # 11b5 <.Lline_table_start1+0xf8a>
   192ce:	458d                	li	a1,3
   192d0:	4601                	li	a2,0
   192d2:	4681                	li	a3,0
   192d4:	00000073          	ecall
   192d8:	00714483          	lbu	s1,7(sp)
   192dc:	4509                	li	a0,2
   192de:	00a48b63          	beq	s1,a0,192f4 <_ZN20complex_dynamic_type3app17hfbbf692ff8a99e22E+0xec>
   192e2:	6505                	lui	a0,0x1
   192e4:	1b550513          	addi	a0,a0,437 # 11b5 <.Lline_table_start1+0xf8a>
   192e8:	4591                	li	a1,4
   192ea:	4601                	li	a2,0
   192ec:	4681                	li	a3,0
   192ee:	8726                	mv	a4,s1
   192f0:	00000073          	ecall
   192f4:	50b6                	lw	ra,108(sp)
   192f6:	5426                	lw	s0,104(sp)
   192f8:	5496                	lw	s1,100(sp)
   192fa:	5906                	lw	s2,96(sp)
   192fc:	49f6                	lw	s3,92(sp)
   192fe:	6165                	addi	sp,sp,112
   19300:	8082                	ret
   19302:	00714703          	lbu	a4,7(sp)
   19306:	00c71463          	bne	a4,a2,1930e <_ZN20complex_dynamic_type3app17hfbbf692ff8a99e22E+0x106>
   1930a:	470d                	li	a4,3
   1930c:	a825                	j	19344 <_ZN20complex_dynamic_type3app17hfbbf692ff8a99e22E+0x13c>
   1930e:	6505                	lui	a0,0x1
   19310:	1b550513          	addi	a0,a0,437 # 11b5 <.Lline_table_start1+0xf8a>
   19314:	4591                	li	a1,4
   19316:	4601                	li	a2,0
   19318:	4681                	li	a3,0
   1931a:	00000073          	ecall
   1931e:	03414703          	lbu	a4,52(sp)
   19322:	4509                	li	a0,2
   19324:	00a103a3          	sb	a0,7(sp)
   19328:	00a71e63          	bne	a4,a0,19344 <_ZN20complex_dynamic_type3app17hfbbf692ff8a99e22E+0x13c>
   1932c:	00198513          	addi	a0,s3,1
   19330:	02700613          	li	a2,39
   19334:	85ca                	mv	a1,s2
   19336:	00004097          	auipc	ra,0x4
   1933a:	440080e7          	jalr	1088(ra) # 1d776 <memcpy>
   1933e:	00098023          	sb	zero,0(s3)
   19342:	bf4d                	j	192f4 <_ZN20complex_dynamic_type3app17hfbbf692ff8a99e22E+0xec>
   19344:	6505                	lui	a0,0x1
   19346:	1b550513          	addi	a0,a0,437 # 11b5 <.Lline_table_start1+0xf8a>
   1934a:	458d                	li	a1,3
   1934c:	4601                	li	a2,0
   1934e:	4681                	li	a3,0
   19350:	00000073          	ecall
   19354:	00714483          	lbu	s1,7(sp)
   19358:	00198513          	addi	a0,s3,1
   1935c:	02700613          	li	a2,39
   19360:	85ca                	mv	a1,s2
   19362:	00004097          	auipc	ra,0x4
   19366:	414080e7          	jalr	1044(ra) # 1d776 <memcpy>
   1936a:	4509                	li	a0,2
   1936c:	00098023          	sb	zero,0(s3)
   19370:	f6a499e3          	bne	s1,a0,192e2 <_ZN20complex_dynamic_type3app17hfbbf692ff8a99e22E+0xda>
   19374:	b741                	j	192f4 <_ZN20complex_dynamic_type3app17hfbbf692ff8a99e22E+0xec>

00019376 <_ZN20complex_dynamic_type3app17hfeb7f2945ece09ceE>:
   19376:	7119                	addi	sp,sp,-128
   19378:	de86                	sw	ra,124(sp)
   1937a:	dca2                	sw	s0,120(sp)
   1937c:	daa6                	sw	s1,116(sp)
   1937e:	d8ca                	sw	s2,112(sp)
   19380:	d6ce                	sw	s3,108(sp)
   19382:	89aa                	mv	s3,a0
   19384:	4409                	li	s0,2
   19386:	00810223          	sb	s0,4(sp)
   1938a:	00510493          	addi	s1,sp,5
   1938e:	05500613          	li	a2,85
   19392:	8526                	mv	a0,s1
   19394:	00004097          	auipc	ra,0x4
   19398:	3e2080e7          	jalr	994(ra) # 1d776 <memcpy>
   1939c:	05b10913          	addi	s2,sp,91
   193a0:	4645                	li	a2,17
   193a2:	854a                	mv	a0,s2
   193a4:	4581                	li	a1,0
   193a6:	00004097          	auipc	ra,0x4
   193aa:	364080e7          	jalr	868(ra) # 1d70a <memset>
   193ae:	8626                	mv	a2,s1
   193b0:	04810d23          	sb	s0,90(sp)
   193b4:	6505                	lui	a0,0x1
   193b6:	4491                	li	s1,4
   193b8:	4589                	li	a1,2
   193ba:	c8950793          	addi	a5,a0,-887 # c89 <.Lline_table_start1+0xa5e>
   193be:	05500693          	li	a3,85
   193c2:	4711                	li	a4,4
   193c4:	853e                	mv	a0,a5
   193c6:	00000073          	ecall
   193ca:	00851863          	bne	a0,s0,193da <_ZN20complex_dynamic_type3app17hfeb7f2945ece09ceE+0x64>
   193ce:	4505                	li	a0,1
   193d0:	00a98023          	sb	a0,0(s3)
   193d4:	00b9a223          	sw	a1,4(s3)
   193d8:	a0b5                	j	19444 <_ZN20complex_dynamic_type3app17hfeb7f2945ece09ceE+0xce>
   193da:	853e                	mv	a0,a5
   193dc:	864a                	mv	a2,s2
   193de:	00910223          	sb	s1,4(sp)
   193e2:	478d                	li	a5,3
   193e4:	4589                	li	a1,2
   193e6:	46c5                	li	a3,17
   193e8:	470d                	li	a4,3
   193ea:	00000073          	ecall
   193ee:	00851d63          	bne	a0,s0,19408 <_ZN20complex_dynamic_type3app17hfeb7f2945ece09ceE+0x92>
   193f2:	05a14703          	lbu	a4,90(sp)
   193f6:	4505                	li	a0,1
   193f8:	4609                	li	a2,2
   193fa:	00a98023          	sb	a0,0(s3)
   193fe:	00b9a223          	sw	a1,4(s3)
   19402:	02c71963          	bne	a4,a2,19434 <_ZN20complex_dynamic_type3app17hfeb7f2945ece09ceE+0xbe>
   19406:	a83d                	j	19444 <_ZN20complex_dynamic_type3app17hfeb7f2945ece09ceE+0xce>
   19408:	4681                	li	a3,0
   1940a:	04f10d23          	sb	a5,90(sp)
   1940e:	6505                	lui	a0,0x1
   19410:	4589                	li	a1,2
   19412:	4609                	li	a2,2
   19414:	4709                	li	a4,2
   19416:	c8950513          	addi	a0,a0,-887 # c89 <.Lline_table_start1+0xa5e>
   1941a:	07f00793          	li	a5,127
   1941e:	00000073          	ecall
   19422:	4609                	li	a2,2
   19424:	04a7e563          	bltu	a5,a0,1946e <_ZN20complex_dynamic_type3app17hfeb7f2945ece09ceE+0xf8>
   19428:	4505                	li	a0,1
   1942a:	00a98023          	sb	a0,0(s3)
   1942e:	00b9a223          	sw	a1,4(s3)
   19432:	470d                	li	a4,3
   19434:	6505                	lui	a0,0x1
   19436:	c8950513          	addi	a0,a0,-887 # c89 <.Lline_table_start1+0xa5e>
   1943a:	4589                	li	a1,2
   1943c:	4601                	li	a2,0
   1943e:	4681                	li	a3,0
   19440:	00000073          	ecall
   19444:	00414483          	lbu	s1,4(sp)
   19448:	4509                	li	a0,2
   1944a:	00a48b63          	beq	s1,a0,19460 <_ZN20complex_dynamic_type3app17hfeb7f2945ece09ceE+0xea>
   1944e:	6505                	lui	a0,0x1
   19450:	c8950513          	addi	a0,a0,-887 # c89 <.Lline_table_start1+0xa5e>
   19454:	4589                	li	a1,2
   19456:	4601                	li	a2,0
   19458:	4681                	li	a3,0
   1945a:	8726                	mv	a4,s1
   1945c:	00000073          	ecall
   19460:	50f6                	lw	ra,124(sp)
   19462:	5466                	lw	s0,120(sp)
   19464:	54d6                	lw	s1,116(sp)
   19466:	5946                	lw	s2,112(sp)
   19468:	59b6                	lw	s3,108(sp)
   1946a:	6109                	addi	sp,sp,128
   1946c:	8082                	ret
   1946e:	00414703          	lbu	a4,4(sp)
   19472:	00c71463          	bne	a4,a2,1947a <_ZN20complex_dynamic_type3app17hfeb7f2945ece09ceE+0x104>
   19476:	470d                	li	a4,3
   19478:	a81d                	j	194ae <_ZN20complex_dynamic_type3app17hfeb7f2945ece09ceE+0x138>
   1947a:	6505                	lui	a0,0x1
   1947c:	c8950513          	addi	a0,a0,-887 # c89 <.Lline_table_start1+0xa5e>
   19480:	4589                	li	a1,2
   19482:	4601                	li	a2,0
   19484:	4681                	li	a3,0
   19486:	00000073          	ecall
   1948a:	05a14703          	lbu	a4,90(sp)
   1948e:	4509                	li	a0,2
   19490:	00a10223          	sb	a0,4(sp)
   19494:	00a71d63          	bne	a4,a0,194ae <_ZN20complex_dynamic_type3app17hfeb7f2945ece09ceE+0x138>
   19498:	00198513          	addi	a0,s3,1
   1949c:	4645                	li	a2,17
   1949e:	85ca                	mv	a1,s2
   194a0:	00004097          	auipc	ra,0x4
   194a4:	2d6080e7          	jalr	726(ra) # 1d776 <memcpy>
   194a8:	00098023          	sb	zero,0(s3)
   194ac:	bf55                	j	19460 <_ZN20complex_dynamic_type3app17hfeb7f2945ece09ceE+0xea>
   194ae:	4601                	li	a2,0
   194b0:	4681                	li	a3,0
   194b2:	6505                	lui	a0,0x1
   194b4:	c8950513          	addi	a0,a0,-887 # c89 <.Lline_table_start1+0xa5e>
   194b8:	4589                	li	a1,2
   194ba:	00000073          	ecall
   194be:	00414483          	lbu	s1,4(sp)
   194c2:	4409                	li	s0,2
   194c4:	00198513          	addi	a0,s3,1
   194c8:	4645                	li	a2,17
   194ca:	85ca                	mv	a1,s2
   194cc:	00004097          	auipc	ra,0x4
   194d0:	2aa080e7          	jalr	682(ra) # 1d776 <memcpy>
   194d4:	00098023          	sb	zero,0(s3)
   194d8:	f6849be3          	bne	s1,s0,1944e <_ZN20complex_dynamic_type3app17hfeb7f2945ece09ceE+0xd8>
   194dc:	b751                	j	19460 <_ZN20complex_dynamic_type3app17hfeb7f2945ece09ceE+0xea>

000194de <_ZN20complex_dynamic_type3app17hffa2d16939792578E>:
   194de:	7175                	addi	sp,sp,-144
   194e0:	c706                	sw	ra,140(sp)
   194e2:	c522                	sw	s0,136(sp)
   194e4:	c326                	sw	s1,132(sp)
   194e6:	c14a                	sw	s2,128(sp)
   194e8:	dece                	sw	s3,124(sp)
   194ea:	89aa                	mv	s3,a0
   194ec:	4409                	li	s0,2
   194ee:	00810323          	sb	s0,6(sp)
   194f2:	00710493          	addi	s1,sp,7
   194f6:	03500613          	li	a2,53
   194fa:	8526                	mv	a0,s1
   194fc:	00004097          	auipc	ra,0x4
   19500:	27a080e7          	jalr	634(ra) # 1d776 <memcpy>
   19504:	03d10913          	addi	s2,sp,61
   19508:	03f00613          	li	a2,63
   1950c:	854a                	mv	a0,s2
   1950e:	4581                	li	a1,0
   19510:	00004097          	auipc	ra,0x4
   19514:	1fa080e7          	jalr	506(ra) # 1d70a <memset>
   19518:	4581                	li	a1,0
   1951a:	8626                	mv	a2,s1
   1951c:	02810e23          	sb	s0,60(sp)
   19520:	6505                	lui	a0,0x1
   19522:	4491                	li	s1,4
   19524:	e5750793          	addi	a5,a0,-425 # e57 <.Lline_table_start1+0xc2c>
   19528:	03500693          	li	a3,53
   1952c:	4711                	li	a4,4
   1952e:	853e                	mv	a0,a5
   19530:	00000073          	ecall
   19534:	00851863          	bne	a0,s0,19544 <_ZN20complex_dynamic_type3app17hffa2d16939792578E+0x66>
   19538:	4505                	li	a0,1
   1953a:	00a98023          	sb	a0,0(s3)
   1953e:	00b9a223          	sw	a1,4(s3)
   19542:	a0bd                	j	195b0 <_ZN20complex_dynamic_type3app17hffa2d16939792578E+0xd2>
   19544:	853e                	mv	a0,a5
   19546:	864a                	mv	a2,s2
   19548:	00910323          	sb	s1,6(sp)
   1954c:	478d                	li	a5,3
   1954e:	458d                	li	a1,3
   19550:	03f00693          	li	a3,63
   19554:	470d                	li	a4,3
   19556:	00000073          	ecall
   1955a:	00851d63          	bne	a0,s0,19574 <_ZN20complex_dynamic_type3app17hffa2d16939792578E+0x96>
   1955e:	03c14703          	lbu	a4,60(sp)
   19562:	4505                	li	a0,1
   19564:	4609                	li	a2,2
   19566:	00a98023          	sb	a0,0(s3)
   1956a:	00b9a223          	sw	a1,4(s3)
   1956e:	02c71963          	bne	a4,a2,195a0 <_ZN20complex_dynamic_type3app17hffa2d16939792578E+0xc2>
   19572:	a83d                	j	195b0 <_ZN20complex_dynamic_type3app17hffa2d16939792578E+0xd2>
   19574:	4581                	li	a1,0
   19576:	4681                	li	a3,0
   19578:	02f10e23          	sb	a5,60(sp)
   1957c:	6505                	lui	a0,0x1
   1957e:	460d                	li	a2,3
   19580:	4709                	li	a4,2
   19582:	e5750513          	addi	a0,a0,-425 # e57 <.Lline_table_start1+0xc2c>
   19586:	07f00793          	li	a5,127
   1958a:	00000073          	ecall
   1958e:	4609                	li	a2,2
   19590:	04a7e563          	bltu	a5,a0,195da <_ZN20complex_dynamic_type3app17hffa2d16939792578E+0xfc>
   19594:	4505                	li	a0,1
   19596:	00a98023          	sb	a0,0(s3)
   1959a:	00b9a223          	sw	a1,4(s3)
   1959e:	470d                	li	a4,3
   195a0:	6505                	lui	a0,0x1
   195a2:	e5750513          	addi	a0,a0,-425 # e57 <.Lline_table_start1+0xc2c>
   195a6:	458d                	li	a1,3
   195a8:	4601                	li	a2,0
   195aa:	4681                	li	a3,0
   195ac:	00000073          	ecall
   195b0:	00614483          	lbu	s1,6(sp)
   195b4:	4509                	li	a0,2
   195b6:	00a48b63          	beq	s1,a0,195cc <_ZN20complex_dynamic_type3app17hffa2d16939792578E+0xee>
   195ba:	6505                	lui	a0,0x1
   195bc:	e5750513          	addi	a0,a0,-425 # e57 <.Lline_table_start1+0xc2c>
   195c0:	4581                	li	a1,0
   195c2:	4601                	li	a2,0
   195c4:	4681                	li	a3,0
   195c6:	8726                	mv	a4,s1
   195c8:	00000073          	ecall
   195cc:	40ba                	lw	ra,140(sp)
   195ce:	442a                	lw	s0,136(sp)
   195d0:	449a                	lw	s1,132(sp)
   195d2:	490a                	lw	s2,128(sp)
   195d4:	59f6                	lw	s3,124(sp)
   195d6:	6149                	addi	sp,sp,144
   195d8:	8082                	ret
   195da:	00614703          	lbu	a4,6(sp)
   195de:	00c71463          	bne	a4,a2,195e6 <_ZN20complex_dynamic_type3app17hffa2d16939792578E+0x108>
   195e2:	470d                	li	a4,3
   195e4:	a825                	j	1961c <_ZN20complex_dynamic_type3app17hffa2d16939792578E+0x13e>
   195e6:	6505                	lui	a0,0x1
   195e8:	e5750513          	addi	a0,a0,-425 # e57 <.Lline_table_start1+0xc2c>
   195ec:	4581                	li	a1,0
   195ee:	4601                	li	a2,0
   195f0:	4681                	li	a3,0
   195f2:	00000073          	ecall
   195f6:	03c14703          	lbu	a4,60(sp)
   195fa:	4509                	li	a0,2
   195fc:	00a10323          	sb	a0,6(sp)
   19600:	00a71e63          	bne	a4,a0,1961c <_ZN20complex_dynamic_type3app17hffa2d16939792578E+0x13e>
   19604:	00198513          	addi	a0,s3,1
   19608:	03f00613          	li	a2,63
   1960c:	85ca                	mv	a1,s2
   1960e:	00004097          	auipc	ra,0x4
   19612:	168080e7          	jalr	360(ra) # 1d776 <memcpy>
   19616:	00098023          	sb	zero,0(s3)
   1961a:	bf4d                	j	195cc <_ZN20complex_dynamic_type3app17hffa2d16939792578E+0xee>
   1961c:	6505                	lui	a0,0x1
   1961e:	e5750513          	addi	a0,a0,-425 # e57 <.Lline_table_start1+0xc2c>
   19622:	458d                	li	a1,3
   19624:	4601                	li	a2,0
   19626:	4681                	li	a3,0
   19628:	00000073          	ecall
   1962c:	00614483          	lbu	s1,6(sp)
   19630:	00198513          	addi	a0,s3,1
   19634:	03f00613          	li	a2,63
   19638:	85ca                	mv	a1,s2
   1963a:	00004097          	auipc	ra,0x4
   1963e:	13c080e7          	jalr	316(ra) # 1d776 <memcpy>
   19642:	4509                	li	a0,2
   19644:	00098023          	sb	zero,0(s3)
   19648:	f6a499e3          	bne	s1,a0,195ba <_ZN20complex_dynamic_type3app17hffa2d16939792578E+0xdc>
   1964c:	b741                	j	195cc <_ZN20complex_dynamic_type3app17hffa2d16939792578E+0xee>

0001964e <_start>:
   1964e:	81010113          	addi	sp,sp,-2032
   19652:	7e112623          	sw	ra,2028(sp)
   19656:	7e812423          	sw	s0,2024(sp)
   1965a:	7e912223          	sw	s1,2020(sp)
   1965e:	7f212023          	sw	s2,2016(sp)
   19662:	7d312e23          	sw	s3,2012(sp)
   19666:	7d412c23          	sw	s4,2008(sp)
   1966a:	7d512a23          	sw	s5,2004(sp)
   1966e:	7d612823          	sw	s6,2000(sp)
   19672:	80010113          	addi	sp,sp,-2048
   19676:	b3010113          	addi	sp,sp,-1232
   1967a:	7ff10a13          	addi	s4,sp,2047
   1967e:	795a0a13          	addi	s4,s4,1941
   19682:	05510493          	addi	s1,sp,85
   19686:	02800613          	li	a2,40
   1968a:	8526                	mv	a0,s1
   1968c:	4581                	li	a1,0
   1968e:	00004097          	auipc	ra,0x4
   19692:	07c080e7          	jalr	124(ra) # 1d70a <memset>
   19696:	4409                	li	s0,2
   19698:	04810a23          	sb	s0,84(sp)
   1969c:	6505                	lui	a0,0x1
   1969e:	38150513          	addi	a0,a0,897 # 1381 <.Lline_table_start1+0x1156>
   196a2:	00a109b3          	add	s3,sp,a0
   196a6:	05100613          	li	a2,81
   196aa:	854e                	mv	a0,s3
   196ac:	4581                	li	a1,0
   196ae:	00004097          	auipc	ra,0x4
   196b2:	05c080e7          	jalr	92(ra) # 1d70a <memset>
   196b6:	8626                	mv	a2,s1
   196b8:	3e8a0623          	sb	s0,1004(s4)
   196bc:	6489                	lui	s1,0x2
   196be:	4791                	li	a5,4
   196c0:	45a5                	li	a1,9
   196c2:	0499                	addi	s1,s1,6 # 2006 <.Lline_table_start1+0x1ddb>
   196c4:	02800693          	li	a3,40
   196c8:	4711                	li	a4,4
   196ca:	8526                	mv	a0,s1
   196cc:	00000073          	ecall
   196d0:	00851463          	bne	a0,s0,196d8 <_start+0x8a>
   196d4:	88ae                	mv	a7,a1
   196d6:	a8a9                	j	19730 <_start+0xe2>
   196d8:	8526                	mv	a0,s1
   196da:	864e                	mv	a2,s3
   196dc:	04f10a23          	sb	a5,84(sp)
   196e0:	478d                	li	a5,3
   196e2:	45a5                	li	a1,9
   196e4:	05100693          	li	a3,81
   196e8:	470d                	li	a4,3
   196ea:	00000073          	ecall
   196ee:	00851963          	bne	a0,s0,19700 <_start+0xb2>
   196f2:	88ae                	mv	a7,a1
   196f4:	3eca4703          	lbu	a4,1004(s4)
   196f8:	4509                	li	a0,2
   196fa:	02a71463          	bne	a4,a0,19722 <_start+0xd4>
   196fe:	a80d                	j	19730 <_start+0xe2>
   19700:	4681                	li	a3,0
   19702:	3efa0623          	sb	a5,1004(s4)
   19706:	6509                	lui	a0,0x2
   19708:	45a5                	li	a1,9
   1970a:	4625                	li	a2,9
   1970c:	4709                	li	a4,2
   1970e:	0519                	addi	a0,a0,6 # 2006 <.Lline_table_start1+0x1ddb>
   19710:	07f00793          	li	a5,127
   19714:	00000073          	ecall
   19718:	88ae                	mv	a7,a1
   1971a:	4589                	li	a1,2
   1971c:	04a7ef63          	bltu	a5,a0,1977a <_start+0x12c>
   19720:	470d                	li	a4,3
   19722:	6509                	lui	a0,0x2
   19724:	0519                	addi	a0,a0,6 # 2006 <.Lline_table_start1+0x1ddb>
   19726:	45a5                	li	a1,9
   19728:	4601                	li	a2,0
   1972a:	4681                	li	a3,0
   1972c:	00000073          	ecall
   19730:	05414703          	lbu	a4,84(sp)
   19734:	4509                	li	a0,2
   19736:	00a70963          	beq	a4,a0,19748 <_start+0xfa>
   1973a:	6509                	lui	a0,0x2
   1973c:	0519                	addi	a0,a0,6 # 2006 <.Lline_table_start1+0x1ddb>
   1973e:	45a5                	li	a1,9
   19740:	4601                	li	a2,0
   19742:	4681                	li	a3,0
   19744:	00000073          	ecall
   19748:	4505                	li	a0,1
   1974a:	85c6                	mv	a1,a7
   1974c:	7f010113          	addi	sp,sp,2032
   19750:	4e010113          	addi	sp,sp,1248
   19754:	7ec12083          	lw	ra,2028(sp)
   19758:	7e812403          	lw	s0,2024(sp)
   1975c:	7e412483          	lw	s1,2020(sp)
   19760:	7e012903          	lw	s2,2016(sp)
   19764:	7dc12983          	lw	s3,2012(sp)
   19768:	7d812a03          	lw	s4,2008(sp)
   1976c:	7d412a83          	lw	s5,2004(sp)
   19770:	7d012b03          	lw	s6,2000(sp)
   19774:	7f010113          	addi	sp,sp,2032
   19778:	8082                	ret
   1977a:	05414703          	lbu	a4,84(sp)
   1977e:	00b71463          	bne	a4,a1,19786 <_start+0x138>
   19782:	470d                	li	a4,3
   19784:	a0bd                	j	197f2 <_start+0x1a4>
   19786:	6509                	lui	a0,0x2
   19788:	0519                	addi	a0,a0,6 # 2006 <.Lline_table_start1+0x1ddb>
   1978a:	45a5                	li	a1,9
   1978c:	4601                	li	a2,0
   1978e:	4681                	li	a3,0
   19790:	00000073          	ecall
   19794:	3eca4703          	lbu	a4,1004(s4)
   19798:	4509                	li	a0,2
   1979a:	04a10a23          	sb	a0,84(sp)
   1979e:	04a71a63          	bne	a4,a0,197f2 <_start+0x1a4>
   197a2:	0019c503          	lbu	a0,1(s3)
   197a6:	0009c583          	lbu	a1,0(s3)
   197aa:	0029c603          	lbu	a2,2(s3)
   197ae:	0522                	slli	a0,a0,0x8
   197b0:	3f0a4683          	lbu	a3,1008(s4)
   197b4:	3f1a4703          	lbu	a4,1009(s4)
   197b8:	8d4d                	or	a0,a0,a1
   197ba:	3f2a4583          	lbu	a1,1010(s4)
   197be:	3f3a4783          	lbu	a5,1011(s4)
   197c2:	0722                	slli	a4,a4,0x8
   197c4:	8ed9                	or	a3,a3,a4
   197c6:	05c2                	slli	a1,a1,0x10
   197c8:	07e2                	slli	a5,a5,0x18
   197ca:	8ddd                	or	a1,a1,a5
   197cc:	08a11a23          	sh	a0,148(sp)
   197d0:	08c10b23          	sb	a2,150(sp)
   197d4:	00d5e4b3          	or	s1,a1,a3
   197d8:	6505                	lui	a0,0x1
   197da:	38850513          	addi	a0,a0,904 # 1388 <.Lline_table_start1+0x115d>
   197de:	00a105b3          	add	a1,sp,a0
   197e2:	0028                	addi	a0,sp,8
   197e4:	04a00613          	li	a2,74
   197e8:	00004097          	auipc	ra,0x4
   197ec:	f8e080e7          	jalr	-114(ra) # 1d776 <memcpy>
   197f0:	a8a5                	j	19868 <_start+0x21a>
   197f2:	4601                	li	a2,0
   197f4:	4681                	li	a3,0
   197f6:	6909                	lui	s2,0x2
   197f8:	0919                	addi	s2,s2,6 # 2006 <.Lline_table_start1+0x1ddb>
   197fa:	45a5                	li	a1,9
   197fc:	854a                	mv	a0,s2
   197fe:	00000073          	ecall
   19802:	0019c503          	lbu	a0,1(s3)
   19806:	0009c583          	lbu	a1,0(s3)
   1980a:	0029c603          	lbu	a2,2(s3)
   1980e:	0522                	slli	a0,a0,0x8
   19810:	3f0a4683          	lbu	a3,1008(s4)
   19814:	3f1a4703          	lbu	a4,1009(s4)
   19818:	8d4d                	or	a0,a0,a1
   1981a:	3f2a4583          	lbu	a1,1010(s4)
   1981e:	3f3a4783          	lbu	a5,1011(s4)
   19822:	0722                	slli	a4,a4,0x8
   19824:	8ed9                	or	a3,a3,a4
   19826:	05414403          	lbu	s0,84(sp)
   1982a:	05c2                	slli	a1,a1,0x10
   1982c:	07e2                	slli	a5,a5,0x18
   1982e:	8ddd                	or	a1,a1,a5
   19830:	08a11a23          	sh	a0,148(sp)
   19834:	08c10b23          	sb	a2,150(sp)
   19838:	00d5e4b3          	or	s1,a1,a3
   1983c:	6505                	lui	a0,0x1
   1983e:	38850513          	addi	a0,a0,904 # 1388 <.Lline_table_start1+0x115d>
   19842:	00a105b3          	add	a1,sp,a0
   19846:	0028                	addi	a0,sp,8
   19848:	04a00613          	li	a2,74
   1984c:	00004097          	auipc	ra,0x4
   19850:	f2a080e7          	jalr	-214(ra) # 1d776 <memcpy>
   19854:	4509                	li	a0,2
   19856:	00a40963          	beq	s0,a0,19868 <_start+0x21a>
   1985a:	45a5                	li	a1,9
   1985c:	854a                	mv	a0,s2
   1985e:	4601                	li	a2,0
   19860:	4681                	li	a3,0
   19862:	8722                	mv	a4,s0
   19864:	00000073          	ecall
   19868:	09414503          	lbu	a0,148(sp)
   1986c:	09514583          	lbu	a1,149(sp)
   19870:	09614603          	lbu	a2,150(sp)
   19874:	6685                	lui	a3,0x1
   19876:	38168693          	addi	a3,a3,897 # 1381 <.Lline_table_start1+0x1156>
   1987a:	00d10933          	add	s2,sp,a3
   1987e:	3eaa06a3          	sb	a0,1005(s4)
   19882:	3eba0723          	sb	a1,1006(s4)
   19886:	3eca07a3          	sb	a2,1007(s4)
   1988a:	6505                	lui	a0,0x1
   1988c:	32450513          	addi	a0,a0,804 # 1324 <.Lline_table_start1+0x10f9>
   19890:	950a                	add	a0,a0,sp
   19892:	002c                	addi	a1,sp,8
   19894:	04a00613          	li	a2,74
   19898:	00004097          	auipc	ra,0x4
   1989c:	ede080e7          	jalr	-290(ra) # 1d776 <memcpy>
   198a0:	6505                	lui	a0,0x1
   198a2:	38850513          	addi	a0,a0,904 # 1388 <.Lline_table_start1+0x115d>
   198a6:	950a                	add	a0,a0,sp
   198a8:	6585                	lui	a1,0x1
   198aa:	32458593          	addi	a1,a1,804 # 1324 <.Lline_table_start1+0x10f9>
   198ae:	958a                	add	a1,a1,sp
   198b0:	04a00613          	li	a2,74
   198b4:	00004097          	auipc	ra,0x4
   198b8:	ec2080e7          	jalr	-318(ra) # 1d776 <memcpy>
   198bc:	4409                	li	s0,2
   198be:	0184d513          	srli	a0,s1,0x18
   198c2:	0104d593          	srli	a1,s1,0x10
   198c6:	3eaa09a3          	sb	a0,1011(s4)
   198ca:	0084d513          	srli	a0,s1,0x8
   198ce:	3e8a0623          	sb	s0,1004(s4)
   198d2:	3e9a0823          	sb	s1,1008(s4)
   198d6:	3eaa08a3          	sb	a0,1009(s4)
   198da:	3eba0923          	sb	a1,1010(s4)
   198de:	6505                	lui	a0,0x1
   198e0:	32550513          	addi	a0,a0,805 # 1325 <.Lline_table_start1+0x10fa>
   198e4:	00a109b3          	add	s3,sp,a0
   198e8:	04600613          	li	a2,70
   198ec:	854e                	mv	a0,s3
   198ee:	4581                	li	a1,0
   198f0:	00004097          	auipc	ra,0x4
   198f4:	e1a080e7          	jalr	-486(ra) # 1d70a <memset>
   198f8:	864a                	mv	a2,s2
   198fa:	388a0823          	sb	s0,912(s4)
   198fe:	6509                	lui	a0,0x2
   19900:	4811                	li	a6,4
   19902:	459d                	li	a1,7
   19904:	0c450493          	addi	s1,a0,196 # 20c4 <.Lline_table_start1+0x1e99>
   19908:	05100693          	li	a3,81
   1990c:	4711                	li	a4,4
   1990e:	8526                	mv	a0,s1
   19910:	00000073          	ecall
   19914:	00851463          	bne	a0,s0,1991c <_start+0x2ce>
   19918:	88ae                	mv	a7,a1
   1991a:	a8b9                	j	19978 <_start+0x32a>
   1991c:	8526                	mv	a0,s1
   1991e:	4581                	li	a1,0
   19920:	864e                	mv	a2,s3
   19922:	3f0a0623          	sb	a6,1004(s4)
   19926:	478d                	li	a5,3
   19928:	04600693          	li	a3,70
   1992c:	470d                	li	a4,3
   1992e:	00000073          	ecall
   19932:	00851963          	bne	a0,s0,19944 <_start+0x2f6>
   19936:	88ae                	mv	a7,a1
   19938:	390a4703          	lbu	a4,912(s4)
   1993c:	4509                	li	a0,2
   1993e:	02a71563          	bne	a4,a0,19968 <_start+0x31a>
   19942:	a81d                	j	19978 <_start+0x32a>
   19944:	4601                	li	a2,0
   19946:	4681                	li	a3,0
   19948:	38fa0823          	sb	a5,912(s4)
   1994c:	6509                	lui	a0,0x2
   1994e:	459d                	li	a1,7
   19950:	4709                	li	a4,2
   19952:	0c450513          	addi	a0,a0,196 # 20c4 <.Lline_table_start1+0x1e99>
   19956:	07f00793          	li	a5,127
   1995a:	00000073          	ecall
   1995e:	88ae                	mv	a7,a1
   19960:	4589                	li	a1,2
   19962:	02a7e963          	bltu	a5,a0,19994 <_start+0x346>
   19966:	470d                	li	a4,3
   19968:	6509                	lui	a0,0x2
   1996a:	0c450513          	addi	a0,a0,196 # 20c4 <.Lline_table_start1+0x1e99>
   1996e:	4581                	li	a1,0
   19970:	4601                	li	a2,0
   19972:	4681                	li	a3,0
   19974:	00000073          	ecall
   19978:	3eca4703          	lbu	a4,1004(s4)
   1997c:	4509                	li	a0,2
   1997e:	dca705e3          	beq	a4,a0,19748 <_start+0xfa>
   19982:	6509                	lui	a0,0x2
   19984:	0c450513          	addi	a0,a0,196 # 20c4 <.Lline_table_start1+0x1e99>
   19988:	459d                	li	a1,7
   1998a:	4601                	li	a2,0
   1998c:	4681                	li	a3,0
   1998e:	00000073          	ecall
   19992:	bb5d                	j	19748 <_start+0xfa>
   19994:	3eca4703          	lbu	a4,1004(s4)
   19998:	00b71463          	bne	a4,a1,199a0 <_start+0x352>
   1999c:	470d                	li	a4,3
   1999e:	a885                	j	19a0e <_start+0x3c0>
   199a0:	6509                	lui	a0,0x2
   199a2:	0c450513          	addi	a0,a0,196 # 20c4 <.Lline_table_start1+0x1e99>
   199a6:	459d                	li	a1,7
   199a8:	4601                	li	a2,0
   199aa:	4681                	li	a3,0
   199ac:	00000073          	ecall
   199b0:	390a4703          	lbu	a4,912(s4)
   199b4:	4509                	li	a0,2
   199b6:	3eaa0623          	sb	a0,1004(s4)
   199ba:	04a71a63          	bne	a4,a0,19a0e <_start+0x3c0>
   199be:	0019c503          	lbu	a0,1(s3)
   199c2:	0009c583          	lbu	a1,0(s3)
   199c6:	0029c603          	lbu	a2,2(s3)
   199ca:	0522                	slli	a0,a0,0x8
   199cc:	394a4683          	lbu	a3,916(s4)
   199d0:	395a4703          	lbu	a4,917(s4)
   199d4:	8d4d                	or	a0,a0,a1
   199d6:	396a4583          	lbu	a1,918(s4)
   199da:	397a4783          	lbu	a5,919(s4)
   199de:	0722                	slli	a4,a4,0x8
   199e0:	8ed9                	or	a3,a3,a4
   199e2:	05c2                	slli	a1,a1,0x10
   199e4:	07e2                	slli	a5,a5,0x18
   199e6:	8ddd                	or	a1,a1,a5
   199e8:	08a11a23          	sh	a0,148(sp)
   199ec:	08c10b23          	sb	a2,150(sp)
   199f0:	00d5e4b3          	or	s1,a1,a3
   199f4:	6505                	lui	a0,0x1
   199f6:	32c50513          	addi	a0,a0,812 # 132c <.Lline_table_start1+0x1101>
   199fa:	00a105b3          	add	a1,sp,a0
   199fe:	08c8                	addi	a0,sp,84
   19a00:	03f00613          	li	a2,63
   19a04:	00004097          	auipc	ra,0x4
   19a08:	d72080e7          	jalr	-654(ra) # 1d776 <memcpy>
   19a0c:	a8ad                	j	19a86 <_start+0x438>
   19a0e:	4581                	li	a1,0
   19a10:	4601                	li	a2,0
   19a12:	4681                	li	a3,0
   19a14:	6509                	lui	a0,0x2
   19a16:	0c450913          	addi	s2,a0,196 # 20c4 <.Lline_table_start1+0x1e99>
   19a1a:	854a                	mv	a0,s2
   19a1c:	00000073          	ecall
   19a20:	0019c503          	lbu	a0,1(s3)
   19a24:	0009c583          	lbu	a1,0(s3)
   19a28:	0029c603          	lbu	a2,2(s3)
   19a2c:	0522                	slli	a0,a0,0x8
   19a2e:	394a4683          	lbu	a3,916(s4)
   19a32:	395a4703          	lbu	a4,917(s4)
   19a36:	8d4d                	or	a0,a0,a1
   19a38:	396a4583          	lbu	a1,918(s4)
   19a3c:	397a4783          	lbu	a5,919(s4)
   19a40:	0722                	slli	a4,a4,0x8
   19a42:	8ed9                	or	a3,a3,a4
   19a44:	05c2                	slli	a1,a1,0x10
   19a46:	07e2                	slli	a5,a5,0x18
   19a48:	8ddd                	or	a1,a1,a5
   19a4a:	3eca4403          	lbu	s0,1004(s4)
   19a4e:	08a11a23          	sh	a0,148(sp)
   19a52:	08c10b23          	sb	a2,150(sp)
   19a56:	00d5e4b3          	or	s1,a1,a3
   19a5a:	6505                	lui	a0,0x1
   19a5c:	32c50513          	addi	a0,a0,812 # 132c <.Lline_table_start1+0x1101>
   19a60:	00a105b3          	add	a1,sp,a0
   19a64:	08c8                	addi	a0,sp,84
   19a66:	03f00613          	li	a2,63
   19a6a:	00004097          	auipc	ra,0x4
   19a6e:	d0c080e7          	jalr	-756(ra) # 1d776 <memcpy>
   19a72:	4509                	li	a0,2
   19a74:	00a40963          	beq	s0,a0,19a86 <_start+0x438>
   19a78:	459d                	li	a1,7
   19a7a:	854a                	mv	a0,s2
   19a7c:	4601                	li	a2,0
   19a7e:	4681                	li	a3,0
   19a80:	8722                	mv	a4,s0
   19a82:	00000073          	ecall
   19a86:	09414503          	lbu	a0,148(sp)
   19a8a:	09514583          	lbu	a1,149(sp)
   19a8e:	09614603          	lbu	a2,150(sp)
   19a92:	6685                	lui	a3,0x1
   19a94:	38168693          	addi	a3,a3,897 # 1381 <.Lline_table_start1+0x1156>
   19a98:	00d10933          	add	s2,sp,a3
   19a9c:	3eaa06a3          	sb	a0,1005(s4)
   19aa0:	3eba0723          	sb	a1,1006(s4)
   19aa4:	3eca07a3          	sb	a2,1007(s4)
   19aa8:	0028                	addi	a0,sp,8
   19aaa:	08cc                	addi	a1,sp,84
   19aac:	03f00613          	li	a2,63
   19ab0:	00004097          	auipc	ra,0x4
   19ab4:	cc6080e7          	jalr	-826(ra) # 1d776 <memcpy>
   19ab8:	6505                	lui	a0,0x1
   19aba:	38850513          	addi	a0,a0,904 # 1388 <.Lline_table_start1+0x115d>
   19abe:	950a                	add	a0,a0,sp
   19ac0:	002c                	addi	a1,sp,8
   19ac2:	03f00613          	li	a2,63
   19ac6:	00004097          	auipc	ra,0x4
   19aca:	cb0080e7          	jalr	-848(ra) # 1d776 <memcpy>
   19ace:	4409                	li	s0,2
   19ad0:	0184d513          	srli	a0,s1,0x18
   19ad4:	0104d593          	srli	a1,s1,0x10
   19ad8:	3eaa09a3          	sb	a0,1011(s4)
   19adc:	0084d513          	srli	a0,s1,0x8
   19ae0:	3e8a0623          	sb	s0,1004(s4)
   19ae4:	3e9a0823          	sb	s1,1008(s4)
   19ae8:	3eaa08a3          	sb	a0,1009(s4)
   19aec:	3eba0923          	sb	a1,1010(s4)
   19af0:	4661                	li	a2,24
   19af2:	854e                	mv	a0,s3
   19af4:	4581                	li	a1,0
   19af6:	00004097          	auipc	ra,0x4
   19afa:	c14080e7          	jalr	-1004(ra) # 1d70a <memset>
   19afe:	864a                	mv	a2,s2
   19b00:	388a0823          	sb	s0,912(s4)
   19b04:	6509                	lui	a0,0x2
   19b06:	4791                	li	a5,4
   19b08:	458d                	li	a1,3
   19b0a:	3cf50493          	addi	s1,a0,975 # 23cf <.Lline_table_start1+0x21a4>
   19b0e:	04600693          	li	a3,70
   19b12:	4711                	li	a4,4
   19b14:	8526                	mv	a0,s1
   19b16:	00000073          	ecall
   19b1a:	00851463          	bne	a0,s0,19b22 <_start+0x4d4>
   19b1e:	88ae                	mv	a7,a1
   19b20:	a8b1                	j	19b7c <_start+0x52e>
   19b22:	8526                	mv	a0,s1
   19b24:	864e                	mv	a2,s3
   19b26:	3efa0623          	sb	a5,1004(s4)
   19b2a:	478d                	li	a5,3
   19b2c:	4589                	li	a1,2
   19b2e:	46e1                	li	a3,24
   19b30:	470d                	li	a4,3
   19b32:	00000073          	ecall
   19b36:	00851963          	bne	a0,s0,19b48 <_start+0x4fa>
   19b3a:	88ae                	mv	a7,a1
   19b3c:	390a4703          	lbu	a4,912(s4)
   19b40:	4509                	li	a0,2
   19b42:	02a71563          	bne	a4,a0,19b6c <_start+0x51e>
   19b46:	a81d                	j	19b7c <_start+0x52e>
   19b48:	4681                	li	a3,0
   19b4a:	38fa0823          	sb	a5,912(s4)
   19b4e:	6509                	lui	a0,0x2
   19b50:	458d                	li	a1,3
   19b52:	4609                	li	a2,2
   19b54:	4709                	li	a4,2
   19b56:	3cf50513          	addi	a0,a0,975 # 23cf <.Lline_table_start1+0x21a4>
   19b5a:	07f00793          	li	a5,127
   19b5e:	00000073          	ecall
   19b62:	88ae                	mv	a7,a1
   19b64:	4589                	li	a1,2
   19b66:	02a7e963          	bltu	a5,a0,19b98 <_start+0x54a>
   19b6a:	470d                	li	a4,3
   19b6c:	6509                	lui	a0,0x2
   19b6e:	3cf50513          	addi	a0,a0,975 # 23cf <.Lline_table_start1+0x21a4>
   19b72:	4589                	li	a1,2
   19b74:	4601                	li	a2,0
   19b76:	4681                	li	a3,0
   19b78:	00000073          	ecall
   19b7c:	3eca4703          	lbu	a4,1004(s4)
   19b80:	4509                	li	a0,2
   19b82:	bca703e3          	beq	a4,a0,19748 <_start+0xfa>
   19b86:	6509                	lui	a0,0x2
   19b88:	3cf50513          	addi	a0,a0,975 # 23cf <.Lline_table_start1+0x21a4>
   19b8c:	458d                	li	a1,3
   19b8e:	4601                	li	a2,0
   19b90:	4681                	li	a3,0
   19b92:	00000073          	ecall
   19b96:	be4d                	j	19748 <_start+0xfa>
   19b98:	3eca4703          	lbu	a4,1004(s4)
   19b9c:	00b71463          	bne	a4,a1,19ba4 <_start+0x556>
   19ba0:	470d                	li	a4,3
   19ba2:	a0bd                	j	19c10 <_start+0x5c2>
   19ba4:	6509                	lui	a0,0x2
   19ba6:	3cf50513          	addi	a0,a0,975 # 23cf <.Lline_table_start1+0x21a4>
   19baa:	458d                	li	a1,3
   19bac:	4601                	li	a2,0
   19bae:	4681                	li	a3,0
   19bb0:	00000073          	ecall
   19bb4:	390a4703          	lbu	a4,912(s4)
   19bb8:	4509                	li	a0,2
   19bba:	3eaa0623          	sb	a0,1004(s4)
   19bbe:	04a71963          	bne	a4,a0,19c10 <_start+0x5c2>
   19bc2:	0019c503          	lbu	a0,1(s3)
   19bc6:	0009c583          	lbu	a1,0(s3)
   19bca:	0029c603          	lbu	a2,2(s3)
   19bce:	0522                	slli	a0,a0,0x8
   19bd0:	394a4683          	lbu	a3,916(s4)
   19bd4:	395a4703          	lbu	a4,917(s4)
   19bd8:	8d4d                	or	a0,a0,a1
   19bda:	396a4583          	lbu	a1,918(s4)
   19bde:	397a4783          	lbu	a5,919(s4)
   19be2:	0722                	slli	a4,a4,0x8
   19be4:	8ed9                	or	a3,a3,a4
   19be6:	05c2                	slli	a1,a1,0x10
   19be8:	07e2                	slli	a5,a5,0x18
   19bea:	8ddd                	or	a1,a1,a5
   19bec:	0aa11423          	sh	a0,168(sp)
   19bf0:	0ac10523          	sb	a2,170(sp)
   19bf4:	00d5e4b3          	or	s1,a1,a3
   19bf8:	6505                	lui	a0,0x1
   19bfa:	32c50513          	addi	a0,a0,812 # 132c <.Lline_table_start1+0x1101>
   19bfe:	00a105b3          	add	a1,sp,a0
   19c02:	0948                	addi	a0,sp,148
   19c04:	4645                	li	a2,17
   19c06:	00004097          	auipc	ra,0x4
   19c0a:	b70080e7          	jalr	-1168(ra) # 1d776 <memcpy>
   19c0e:	a8a5                	j	19c86 <_start+0x638>
   19c10:	4601                	li	a2,0
   19c12:	4681                	li	a3,0
   19c14:	6509                	lui	a0,0x2
   19c16:	3cf50a93          	addi	s5,a0,975 # 23cf <.Lline_table_start1+0x21a4>
   19c1a:	4589                	li	a1,2
   19c1c:	8556                	mv	a0,s5
   19c1e:	00000073          	ecall
   19c22:	0019c503          	lbu	a0,1(s3)
   19c26:	0009c583          	lbu	a1,0(s3)
   19c2a:	0029c603          	lbu	a2,2(s3)
   19c2e:	0522                	slli	a0,a0,0x8
   19c30:	394a4683          	lbu	a3,916(s4)
   19c34:	395a4703          	lbu	a4,917(s4)
   19c38:	8d4d                	or	a0,a0,a1
   19c3a:	396a4583          	lbu	a1,918(s4)
   19c3e:	397a4783          	lbu	a5,919(s4)
   19c42:	0722                	slli	a4,a4,0x8
   19c44:	8ed9                	or	a3,a3,a4
   19c46:	4b09                	li	s6,2
   19c48:	05c2                	slli	a1,a1,0x10
   19c4a:	07e2                	slli	a5,a5,0x18
   19c4c:	8ddd                	or	a1,a1,a5
   19c4e:	3eca4403          	lbu	s0,1004(s4)
   19c52:	0aa11423          	sh	a0,168(sp)
   19c56:	0ac10523          	sb	a2,170(sp)
   19c5a:	00d5e4b3          	or	s1,a1,a3
   19c5e:	6505                	lui	a0,0x1
   19c60:	32c50513          	addi	a0,a0,812 # 132c <.Lline_table_start1+0x1101>
   19c64:	00a105b3          	add	a1,sp,a0
   19c68:	0948                	addi	a0,sp,148
   19c6a:	4645                	li	a2,17
   19c6c:	00004097          	auipc	ra,0x4
   19c70:	b0a080e7          	jalr	-1270(ra) # 1d776 <memcpy>
   19c74:	01640963          	beq	s0,s6,19c86 <_start+0x638>
   19c78:	458d                	li	a1,3
   19c7a:	8556                	mv	a0,s5
   19c7c:	4601                	li	a2,0
   19c7e:	4681                	li	a3,0
   19c80:	8722                	mv	a4,s0
   19c82:	00000073          	ecall
   19c86:	0a814503          	lbu	a0,168(sp)
   19c8a:	0a914583          	lbu	a1,169(sp)
   19c8e:	0aa14603          	lbu	a2,170(sp)
   19c92:	05510a93          	addi	s5,sp,85
   19c96:	04a10aa3          	sb	a0,85(sp)
   19c9a:	04b10b23          	sb	a1,86(sp)
   19c9e:	04c10ba3          	sb	a2,87(sp)
   19ca2:	0028                	addi	a0,sp,8
   19ca4:	094c                	addi	a1,sp,148
   19ca6:	4645                	li	a2,17
   19ca8:	00004097          	auipc	ra,0x4
   19cac:	ace080e7          	jalr	-1330(ra) # 1d776 <memcpy>
   19cb0:	08e8                	addi	a0,sp,92
   19cb2:	002c                	addi	a1,sp,8
   19cb4:	4645                	li	a2,17
   19cb6:	00004097          	auipc	ra,0x4
   19cba:	ac0080e7          	jalr	-1344(ra) # 1d776 <memcpy>
   19cbe:	4409                	li	s0,2
   19cc0:	0184d513          	srli	a0,s1,0x18
   19cc4:	0104d593          	srli	a1,s1,0x10
   19cc8:	04a10da3          	sb	a0,91(sp)
   19ccc:	0084d513          	srli	a0,s1,0x8
   19cd0:	04810a23          	sb	s0,84(sp)
   19cd4:	04910c23          	sb	s1,88(sp)
   19cd8:	04a10ca3          	sb	a0,89(sp)
   19cdc:	04b10d23          	sb	a1,90(sp)
   19ce0:	03600613          	li	a2,54
   19ce4:	854a                	mv	a0,s2
   19ce6:	4581                	li	a1,0
   19ce8:	00004097          	auipc	ra,0x4
   19cec:	a22080e7          	jalr	-1502(ra) # 1d70a <memset>
   19cf0:	4581                	li	a1,0
   19cf2:	8656                	mv	a2,s5
   19cf4:	3e8a0623          	sb	s0,1004(s4)
   19cf8:	4791                	li	a5,4
   19cfa:	21f00513          	li	a0,543
   19cfe:	46e1                	li	a3,24
   19d00:	4711                	li	a4,4
   19d02:	00000073          	ecall
   19d06:	00851463          	bne	a0,s0,19d0e <_start+0x6c0>
   19d0a:	88ae                	mv	a7,a1
   19d0c:	a8b1                	j	19d68 <_start+0x71a>
   19d0e:	864a                	mv	a2,s2
   19d10:	04f10a23          	sb	a5,84(sp)
   19d14:	478d                	li	a5,3
   19d16:	21f00513          	li	a0,543
   19d1a:	459d                	li	a1,7
   19d1c:	03600693          	li	a3,54
   19d20:	470d                	li	a4,3
   19d22:	00000073          	ecall
   19d26:	00851963          	bne	a0,s0,19d38 <_start+0x6ea>
   19d2a:	88ae                	mv	a7,a1
   19d2c:	3eca4703          	lbu	a4,1004(s4)
   19d30:	4509                	li	a0,2
   19d32:	02a71463          	bne	a4,a0,19d5a <_start+0x70c>
   19d36:	a80d                	j	19d68 <_start+0x71a>
   19d38:	4581                	li	a1,0
   19d3a:	4681                	li	a3,0
   19d3c:	3efa0623          	sb	a5,1004(s4)
   19d40:	21f00513          	li	a0,543
   19d44:	461d                	li	a2,7
   19d46:	4709                	li	a4,2
   19d48:	07f00793          	li	a5,127
   19d4c:	00000073          	ecall
   19d50:	88ae                	mv	a7,a1
   19d52:	4589                	li	a1,2
   19d54:	02a7e763          	bltu	a5,a0,19d82 <_start+0x734>
   19d58:	470d                	li	a4,3
   19d5a:	21f00513          	li	a0,543
   19d5e:	459d                	li	a1,7
   19d60:	4601                	li	a2,0
   19d62:	4681                	li	a3,0
   19d64:	00000073          	ecall
   19d68:	05414703          	lbu	a4,84(sp)
   19d6c:	4509                	li	a0,2
   19d6e:	9ca70de3          	beq	a4,a0,19748 <_start+0xfa>
   19d72:	21f00513          	li	a0,543
   19d76:	4581                	li	a1,0
   19d78:	4601                	li	a2,0
   19d7a:	4681                	li	a3,0
   19d7c:	00000073          	ecall
   19d80:	b2e1                	j	19748 <_start+0xfa>
   19d82:	05414703          	lbu	a4,84(sp)
   19d86:	00b71463          	bne	a4,a1,19d8e <_start+0x740>
   19d8a:	470d                	li	a4,3
   19d8c:	a0bd                	j	19dfa <_start+0x7ac>
   19d8e:	21f00513          	li	a0,543
   19d92:	4581                	li	a1,0
   19d94:	4601                	li	a2,0
   19d96:	4681                	li	a3,0
   19d98:	00000073          	ecall
   19d9c:	3eca4703          	lbu	a4,1004(s4)
   19da0:	4509                	li	a0,2
   19da2:	04a10a23          	sb	a0,84(sp)
   19da6:	04a71a63          	bne	a4,a0,19dfa <_start+0x7ac>
   19daa:	00194503          	lbu	a0,1(s2)
   19dae:	00094583          	lbu	a1,0(s2)
   19db2:	00294603          	lbu	a2,2(s2)
   19db6:	0522                	slli	a0,a0,0x8
   19db8:	3f0a4683          	lbu	a3,1008(s4)
   19dbc:	3f1a4703          	lbu	a4,1009(s4)
   19dc0:	8d4d                	or	a0,a0,a1
   19dc2:	3f2a4583          	lbu	a1,1010(s4)
   19dc6:	3f3a4783          	lbu	a5,1011(s4)
   19dca:	0722                	slli	a4,a4,0x8
   19dcc:	8ed9                	or	a3,a3,a4
   19dce:	05c2                	slli	a1,a1,0x10
   19dd0:	07e2                	slli	a5,a5,0x18
   19dd2:	8ddd                	or	a1,a1,a5
   19dd4:	08a11a23          	sh	a0,148(sp)
   19dd8:	08c10b23          	sb	a2,150(sp)
   19ddc:	00d5e433          	or	s0,a1,a3
   19de0:	6505                	lui	a0,0x1
   19de2:	38850513          	addi	a0,a0,904 # 1388 <.Lline_table_start1+0x115d>
   19de6:	00a105b3          	add	a1,sp,a0
   19dea:	0028                	addi	a0,sp,8
   19dec:	02f00613          	li	a2,47
   19df0:	00004097          	auipc	ra,0x4
   19df4:	986080e7          	jalr	-1658(ra) # 1d776 <memcpy>
   19df8:	a8a5                	j	19e70 <_start+0x822>
   19dfa:	4601                	li	a2,0
   19dfc:	4681                	li	a3,0
   19dfe:	21f00513          	li	a0,543
   19e02:	459d                	li	a1,7
   19e04:	00000073          	ecall
   19e08:	00194503          	lbu	a0,1(s2)
   19e0c:	00094583          	lbu	a1,0(s2)
   19e10:	00294603          	lbu	a2,2(s2)
   19e14:	0522                	slli	a0,a0,0x8
   19e16:	3f0a4683          	lbu	a3,1008(s4)
   19e1a:	3f1a4703          	lbu	a4,1009(s4)
   19e1e:	8d4d                	or	a0,a0,a1
   19e20:	3f2a4583          	lbu	a1,1010(s4)
   19e24:	3f3a4783          	lbu	a5,1011(s4)
   19e28:	0722                	slli	a4,a4,0x8
   19e2a:	8ed9                	or	a3,a3,a4
   19e2c:	05414483          	lbu	s1,84(sp)
   19e30:	05c2                	slli	a1,a1,0x10
   19e32:	07e2                	slli	a5,a5,0x18
   19e34:	8ddd                	or	a1,a1,a5
   19e36:	08a11a23          	sh	a0,148(sp)
   19e3a:	08c10b23          	sb	a2,150(sp)
   19e3e:	00d5e433          	or	s0,a1,a3
   19e42:	6505                	lui	a0,0x1
   19e44:	38850513          	addi	a0,a0,904 # 1388 <.Lline_table_start1+0x115d>
   19e48:	00a105b3          	add	a1,sp,a0
   19e4c:	0028                	addi	a0,sp,8
   19e4e:	02f00613          	li	a2,47
   19e52:	00004097          	auipc	ra,0x4
   19e56:	924080e7          	jalr	-1756(ra) # 1d776 <memcpy>
   19e5a:	4509                	li	a0,2
   19e5c:	00a48a63          	beq	s1,a0,19e70 <_start+0x822>
   19e60:	21f00513          	li	a0,543
   19e64:	4581                	li	a1,0
   19e66:	4601                	li	a2,0
   19e68:	4681                	li	a3,0
   19e6a:	8726                	mv	a4,s1
   19e6c:	00000073          	ecall
   19e70:	09414503          	lbu	a0,148(sp)
   19e74:	09514583          	lbu	a1,149(sp)
   19e78:	09614603          	lbu	a2,150(sp)
   19e7c:	6685                	lui	a3,0x1
   19e7e:	38168693          	addi	a3,a3,897 # 1381 <.Lline_table_start1+0x1156>
   19e82:	00d104b3          	add	s1,sp,a3
   19e86:	3eaa06a3          	sb	a0,1005(s4)
   19e8a:	3eba0723          	sb	a1,1006(s4)
   19e8e:	3eca07a3          	sb	a2,1007(s4)
   19e92:	6505                	lui	a0,0x1
   19e94:	32450513          	addi	a0,a0,804 # 1324 <.Lline_table_start1+0x10f9>
   19e98:	950a                	add	a0,a0,sp
   19e9a:	002c                	addi	a1,sp,8
   19e9c:	02f00613          	li	a2,47
   19ea0:	00004097          	auipc	ra,0x4
   19ea4:	8d6080e7          	jalr	-1834(ra) # 1d776 <memcpy>
   19ea8:	6505                	lui	a0,0x1
   19eaa:	38850513          	addi	a0,a0,904 # 1388 <.Lline_table_start1+0x115d>
   19eae:	950a                	add	a0,a0,sp
   19eb0:	6585                	lui	a1,0x1
   19eb2:	32458593          	addi	a1,a1,804 # 1324 <.Lline_table_start1+0x10f9>
   19eb6:	958a                	add	a1,a1,sp
   19eb8:	02f00613          	li	a2,47
   19ebc:	00004097          	auipc	ra,0x4
   19ec0:	8ba080e7          	jalr	-1862(ra) # 1d776 <memcpy>
   19ec4:	4909                	li	s2,2
   19ec6:	01845513          	srli	a0,s0,0x18
   19eca:	01045593          	srli	a1,s0,0x10
   19ece:	3eaa09a3          	sb	a0,1011(s4)
   19ed2:	00845513          	srli	a0,s0,0x8
   19ed6:	3f2a0623          	sb	s2,1004(s4)
   19eda:	3e8a0823          	sb	s0,1008(s4)
   19ede:	3eaa08a3          	sb	a0,1009(s4)
   19ee2:	3eba0923          	sb	a1,1010(s4)
   19ee6:	02500613          	li	a2,37
   19eea:	854e                	mv	a0,s3
   19eec:	4581                	li	a1,0
   19eee:	00004097          	auipc	ra,0x4
   19ef2:	81c080e7          	jalr	-2020(ra) # 1d70a <memset>
   19ef6:	8626                	mv	a2,s1
   19ef8:	392a0823          	sb	s2,912(s4)
   19efc:	6505                	lui	a0,0x1
   19efe:	4411                	li	s0,4
   19f00:	459d                	li	a1,7
   19f02:	59750493          	addi	s1,a0,1431 # 1597 <.Lline_table_start1+0x136c>
   19f06:	03600693          	li	a3,54
   19f0a:	4711                	li	a4,4
   19f0c:	8526                	mv	a0,s1
   19f0e:	00000073          	ecall
   19f12:	01251463          	bne	a0,s2,19f1a <_start+0x8cc>
   19f16:	88ae                	mv	a7,a1
   19f18:	a8b9                	j	19f76 <_start+0x928>
   19f1a:	8526                	mv	a0,s1
   19f1c:	4581                	li	a1,0
   19f1e:	864e                	mv	a2,s3
   19f20:	3e8a0623          	sb	s0,1004(s4)
   19f24:	478d                	li	a5,3
   19f26:	02500693          	li	a3,37
   19f2a:	470d                	li	a4,3
   19f2c:	00000073          	ecall
   19f30:	01251963          	bne	a0,s2,19f42 <_start+0x8f4>
   19f34:	88ae                	mv	a7,a1
   19f36:	390a4703          	lbu	a4,912(s4)
   19f3a:	4509                	li	a0,2
   19f3c:	02a71563          	bne	a4,a0,19f66 <_start+0x918>
   19f40:	a81d                	j	19f76 <_start+0x928>
   19f42:	4601                	li	a2,0
   19f44:	4681                	li	a3,0
   19f46:	38fa0823          	sb	a5,912(s4)
   19f4a:	6505                	lui	a0,0x1
   19f4c:	459d                	li	a1,7
   19f4e:	4709                	li	a4,2
   19f50:	59750513          	addi	a0,a0,1431 # 1597 <.Lline_table_start1+0x136c>
   19f54:	07f00793          	li	a5,127
   19f58:	00000073          	ecall
   19f5c:	88ae                	mv	a7,a1
   19f5e:	4589                	li	a1,2
   19f60:	02a7ea63          	bltu	a5,a0,19f94 <_start+0x946>
   19f64:	470d                	li	a4,3
   19f66:	6505                	lui	a0,0x1
   19f68:	59750513          	addi	a0,a0,1431 # 1597 <.Lline_table_start1+0x136c>
   19f6c:	4581                	li	a1,0
   19f6e:	4601                	li	a2,0
   19f70:	4681                	li	a3,0
   19f72:	00000073          	ecall
   19f76:	3eca4703          	lbu	a4,1004(s4)
   19f7a:	4509                	li	a0,2
   19f7c:	fca70663          	beq	a4,a0,19748 <_start+0xfa>
   19f80:	6505                	lui	a0,0x1
   19f82:	59750513          	addi	a0,a0,1431 # 1597 <.Lline_table_start1+0x136c>
   19f86:	459d                	li	a1,7
   19f88:	4601                	li	a2,0
   19f8a:	4681                	li	a3,0
   19f8c:	00000073          	ecall
   19f90:	fb8ff06f          	j	19748 <_start+0xfa>
   19f94:	3eca4703          	lbu	a4,1004(s4)
   19f98:	00b71463          	bne	a4,a1,19fa0 <_start+0x952>
   19f9c:	470d                	li	a4,3
   19f9e:	a0bd                	j	1a00c <_start+0x9be>
   19fa0:	6505                	lui	a0,0x1
   19fa2:	59750513          	addi	a0,a0,1431 # 1597 <.Lline_table_start1+0x136c>
   19fa6:	459d                	li	a1,7
   19fa8:	4601                	li	a2,0
   19faa:	4681                	li	a3,0
   19fac:	00000073          	ecall
   19fb0:	390a4703          	lbu	a4,912(s4)
   19fb4:	4509                	li	a0,2
   19fb6:	3eaa0623          	sb	a0,1004(s4)
   19fba:	04a71963          	bne	a4,a0,1a00c <_start+0x9be>
   19fbe:	0019c503          	lbu	a0,1(s3)
   19fc2:	0009c583          	lbu	a1,0(s3)
   19fc6:	0029c603          	lbu	a2,2(s3)
   19fca:	0522                	slli	a0,a0,0x8
   19fcc:	394a4683          	lbu	a3,916(s4)
   19fd0:	395a4703          	lbu	a4,917(s4)
   19fd4:	8d4d                	or	a0,a0,a1
   19fd6:	396a4583          	lbu	a1,918(s4)
   19fda:	397a4783          	lbu	a5,919(s4)
   19fde:	0722                	slli	a4,a4,0x8
   19fe0:	8ed9                	or	a3,a3,a4
   19fe2:	05c2                	slli	a1,a1,0x10
   19fe4:	07e2                	slli	a5,a5,0x18
   19fe6:	8ddd                	or	a1,a1,a5
   19fe8:	08a11a23          	sh	a0,148(sp)
   19fec:	08c10b23          	sb	a2,150(sp)
   19ff0:	00d5e4b3          	or	s1,a1,a3
   19ff4:	6505                	lui	a0,0x1
   19ff6:	32c50513          	addi	a0,a0,812 # 132c <.Lline_table_start1+0x1101>
   19ffa:	00a105b3          	add	a1,sp,a0
   19ffe:	08c8                	addi	a0,sp,84
   1a000:	4679                	li	a2,30
   1a002:	00003097          	auipc	ra,0x3
   1a006:	774080e7          	jalr	1908(ra) # 1d776 <memcpy>
   1a00a:	a8a5                	j	1a082 <_start+0xa34>
   1a00c:	4581                	li	a1,0
   1a00e:	4601                	li	a2,0
   1a010:	4681                	li	a3,0
   1a012:	6505                	lui	a0,0x1
   1a014:	59750913          	addi	s2,a0,1431 # 1597 <.Lline_table_start1+0x136c>
   1a018:	854a                	mv	a0,s2
   1a01a:	00000073          	ecall
   1a01e:	0019c503          	lbu	a0,1(s3)
   1a022:	0009c583          	lbu	a1,0(s3)
   1a026:	0029c603          	lbu	a2,2(s3)
   1a02a:	0522                	slli	a0,a0,0x8
   1a02c:	394a4683          	lbu	a3,916(s4)
   1a030:	395a4703          	lbu	a4,917(s4)
   1a034:	8d4d                	or	a0,a0,a1
   1a036:	396a4583          	lbu	a1,918(s4)
   1a03a:	397a4783          	lbu	a5,919(s4)
   1a03e:	0722                	slli	a4,a4,0x8
   1a040:	8ed9                	or	a3,a3,a4
   1a042:	05c2                	slli	a1,a1,0x10
   1a044:	07e2                	slli	a5,a5,0x18
   1a046:	8ddd                	or	a1,a1,a5
   1a048:	3eca4403          	lbu	s0,1004(s4)
   1a04c:	08a11a23          	sh	a0,148(sp)
   1a050:	08c10b23          	sb	a2,150(sp)
   1a054:	00d5e4b3          	or	s1,a1,a3
   1a058:	6505                	lui	a0,0x1
   1a05a:	32c50513          	addi	a0,a0,812 # 132c <.Lline_table_start1+0x1101>
   1a05e:	00a105b3          	add	a1,sp,a0
   1a062:	08c8                	addi	a0,sp,84
   1a064:	4679                	li	a2,30
   1a066:	00003097          	auipc	ra,0x3
   1a06a:	710080e7          	jalr	1808(ra) # 1d776 <memcpy>
   1a06e:	4509                	li	a0,2
   1a070:	00a40963          	beq	s0,a0,1a082 <_start+0xa34>
   1a074:	459d                	li	a1,7
   1a076:	854a                	mv	a0,s2
   1a078:	4601                	li	a2,0
   1a07a:	4681                	li	a3,0
   1a07c:	8722                	mv	a4,s0
   1a07e:	00000073          	ecall
   1a082:	09414503          	lbu	a0,148(sp)
   1a086:	09514583          	lbu	a1,149(sp)
   1a08a:	09614603          	lbu	a2,150(sp)
   1a08e:	6685                	lui	a3,0x1
   1a090:	38168693          	addi	a3,a3,897 # 1381 <.Lline_table_start1+0x1156>
   1a094:	00d10933          	add	s2,sp,a3
   1a098:	3eaa06a3          	sb	a0,1005(s4)
   1a09c:	3eba0723          	sb	a1,1006(s4)
   1a0a0:	3eca07a3          	sb	a2,1007(s4)
   1a0a4:	0028                	addi	a0,sp,8
   1a0a6:	08cc                	addi	a1,sp,84
   1a0a8:	4679                	li	a2,30
   1a0aa:	00003097          	auipc	ra,0x3
   1a0ae:	6cc080e7          	jalr	1740(ra) # 1d776 <memcpy>
   1a0b2:	6505                	lui	a0,0x1
   1a0b4:	38850513          	addi	a0,a0,904 # 1388 <.Lline_table_start1+0x115d>
   1a0b8:	950a                	add	a0,a0,sp
   1a0ba:	002c                	addi	a1,sp,8
   1a0bc:	4679                	li	a2,30
   1a0be:	00003097          	auipc	ra,0x3
   1a0c2:	6b8080e7          	jalr	1720(ra) # 1d776 <memcpy>
   1a0c6:	4409                	li	s0,2
   1a0c8:	0184d513          	srli	a0,s1,0x18
   1a0cc:	0104d593          	srli	a1,s1,0x10
   1a0d0:	3eaa09a3          	sb	a0,1011(s4)
   1a0d4:	0084d513          	srli	a0,s1,0x8
   1a0d8:	3e8a0623          	sb	s0,1004(s4)
   1a0dc:	3e9a0823          	sb	s1,1008(s4)
   1a0e0:	3eaa08a3          	sb	a0,1009(s4)
   1a0e4:	3eba0923          	sb	a1,1010(s4)
   1a0e8:	4639                	li	a2,14
   1a0ea:	854e                	mv	a0,s3
   1a0ec:	4581                	li	a1,0
   1a0ee:	00003097          	auipc	ra,0x3
   1a0f2:	61c080e7          	jalr	1564(ra) # 1d70a <memset>
   1a0f6:	864a                	mv	a2,s2
   1a0f8:	388a0823          	sb	s0,912(s4)
   1a0fc:	4791                	li	a5,4
   1a0fe:	66700513          	li	a0,1639
   1a102:	4589                	li	a1,2
   1a104:	02500693          	li	a3,37
   1a108:	4711                	li	a4,4
   1a10a:	00000073          	ecall
   1a10e:	00851463          	bne	a0,s0,1a116 <_start+0xac8>
   1a112:	88ae                	mv	a7,a1
   1a114:	a8a9                	j	1a16e <_start+0xb20>
   1a116:	864e                	mv	a2,s3
   1a118:	3efa0623          	sb	a5,1004(s4)
   1a11c:	478d                	li	a5,3
   1a11e:	66700513          	li	a0,1639
   1a122:	45a1                	li	a1,8
   1a124:	46b9                	li	a3,14
   1a126:	470d                	li	a4,3
   1a128:	00000073          	ecall
   1a12c:	00851963          	bne	a0,s0,1a13e <_start+0xaf0>
   1a130:	88ae                	mv	a7,a1
   1a132:	390a4703          	lbu	a4,912(s4)
   1a136:	4509                	li	a0,2
   1a138:	02a71463          	bne	a4,a0,1a160 <_start+0xb12>
   1a13c:	a80d                	j	1a16e <_start+0xb20>
   1a13e:	4681                	li	a3,0
   1a140:	38fa0823          	sb	a5,912(s4)
   1a144:	66700513          	li	a0,1639
   1a148:	4589                	li	a1,2
   1a14a:	4621                	li	a2,8
   1a14c:	4709                	li	a4,2
   1a14e:	07f00793          	li	a5,127
   1a152:	00000073          	ecall
   1a156:	88ae                	mv	a7,a1
   1a158:	4589                	li	a1,2
   1a15a:	02a7e863          	bltu	a5,a0,1a18a <_start+0xb3c>
   1a15e:	470d                	li	a4,3
   1a160:	66700513          	li	a0,1639
   1a164:	45a1                	li	a1,8
   1a166:	4601                	li	a2,0
   1a168:	4681                	li	a3,0
   1a16a:	00000073          	ecall
   1a16e:	3eca4703          	lbu	a4,1004(s4)
   1a172:	4509                	li	a0,2
   1a174:	dca70a63          	beq	a4,a0,19748 <_start+0xfa>
   1a178:	66700513          	li	a0,1639
   1a17c:	4589                	li	a1,2
   1a17e:	4601                	li	a2,0
   1a180:	4681                	li	a3,0
   1a182:	00000073          	ecall
   1a186:	dc2ff06f          	j	19748 <_start+0xfa>
   1a18a:	3eca4703          	lbu	a4,1004(s4)
   1a18e:	00b71463          	bne	a4,a1,1a196 <_start+0xb48>
   1a192:	470d                	li	a4,3
   1a194:	a069                	j	1a21e <_start+0xbd0>
   1a196:	66700513          	li	a0,1639
   1a19a:	4589                	li	a1,2
   1a19c:	4601                	li	a2,0
   1a19e:	4681                	li	a3,0
   1a1a0:	00000073          	ecall
   1a1a4:	390a4703          	lbu	a4,912(s4)
   1a1a8:	4509                	li	a0,2
   1a1aa:	3eaa0623          	sb	a0,1004(s4)
   1a1ae:	06a71863          	bne	a4,a0,1a21e <_start+0xbd0>
   1a1b2:	0009c503          	lbu	a0,0(s3)
   1a1b6:	0019c583          	lbu	a1,1(s3)
   1a1ba:	0029c803          	lbu	a6,2(s3)
   1a1be:	394a4683          	lbu	a3,916(s4)
   1a1c2:	395a4703          	lbu	a4,917(s4)
   1a1c6:	396a4783          	lbu	a5,918(s4)
   1a1ca:	397a4483          	lbu	s1,919(s4)
   1a1ce:	39ca4403          	lbu	s0,924(s4)
   1a1d2:	39da4603          	lbu	a2,925(s4)
   1a1d6:	39ea4883          	lbu	a7,926(s4)
   1a1da:	05a2                	slli	a1,a1,0x8
   1a1dc:	0722                	slli	a4,a4,0x8
   1a1de:	07c2                	slli	a5,a5,0x10
   1a1e0:	04e2                	slli	s1,s1,0x18
   1a1e2:	0622                	slli	a2,a2,0x8
   1a1e4:	8d4d                	or	a0,a0,a1
   1a1e6:	8ed9                	or	a3,a3,a4
   1a1e8:	8fc5                	or	a5,a5,s1
   1a1ea:	398a4583          	lbu	a1,920(s4)
   1a1ee:	399a4703          	lbu	a4,921(s4)
   1a1f2:	8e41                	or	a2,a2,s0
   1a1f4:	39aa4483          	lbu	s1,922(s4)
   1a1f8:	39ba4403          	lbu	s0,923(s4)
   1a1fc:	0722                	slli	a4,a4,0x8
   1a1fe:	8dd9                	or	a1,a1,a4
   1a200:	04c2                	slli	s1,s1,0x10
   1a202:	0462                	slli	s0,s0,0x18
   1a204:	8c45                	or	s0,s0,s1
   1a206:	08a11a23          	sh	a0,148(sp)
   1a20a:	09010b23          	sb	a6,150(sp)
   1a20e:	8fd5                	or	a5,a5,a3
   1a210:	8dc1                	or	a1,a1,s0
   1a212:	caae                	sw	a1,84(sp)
   1a214:	04c11c23          	sh	a2,88(sp)
   1a218:	05110d23          	sb	a7,90(sp)
   1a21c:	a849                	j	1a2ae <_start+0xc60>
   1a21e:	4601                	li	a2,0
   1a220:	4681                	li	a3,0
   1a222:	66700513          	li	a0,1639
   1a226:	45a1                	li	a1,8
   1a228:	00000073          	ecall
   1a22c:	0009c503          	lbu	a0,0(s3)
   1a230:	0019c583          	lbu	a1,1(s3)
   1a234:	0029c803          	lbu	a6,2(s3)
   1a238:	394a4683          	lbu	a3,916(s4)
   1a23c:	395a4703          	lbu	a4,917(s4)
   1a240:	396a4783          	lbu	a5,918(s4)
   1a244:	397a4483          	lbu	s1,919(s4)
   1a248:	39ca4403          	lbu	s0,924(s4)
   1a24c:	39da4603          	lbu	a2,925(s4)
   1a250:	39ea4883          	lbu	a7,926(s4)
   1a254:	05a2                	slli	a1,a1,0x8
   1a256:	0722                	slli	a4,a4,0x8
   1a258:	07c2                	slli	a5,a5,0x10
   1a25a:	04e2                	slli	s1,s1,0x18
   1a25c:	0622                	slli	a2,a2,0x8
   1a25e:	8d4d                	or	a0,a0,a1
   1a260:	8ed9                	or	a3,a3,a4
   1a262:	8fc5                	or	a5,a5,s1
   1a264:	398a4583          	lbu	a1,920(s4)
   1a268:	399a4703          	lbu	a4,921(s4)
   1a26c:	8e41                	or	a2,a2,s0
   1a26e:	39aa4483          	lbu	s1,922(s4)
   1a272:	39ba4403          	lbu	s0,923(s4)
   1a276:	0722                	slli	a4,a4,0x8
   1a278:	8dd9                	or	a1,a1,a4
   1a27a:	04c2                	slli	s1,s1,0x10
   1a27c:	0462                	slli	s0,s0,0x18
   1a27e:	8c45                	or	s0,s0,s1
   1a280:	08a11a23          	sh	a0,148(sp)
   1a284:	09010b23          	sb	a6,150(sp)
   1a288:	8fd5                	or	a5,a5,a3
   1a28a:	3eca4703          	lbu	a4,1004(s4)
   1a28e:	8dc1                	or	a1,a1,s0
   1a290:	4509                	li	a0,2
   1a292:	caae                	sw	a1,84(sp)
   1a294:	04c11c23          	sh	a2,88(sp)
   1a298:	05110d23          	sb	a7,90(sp)
   1a29c:	00a70963          	beq	a4,a0,1a2ae <_start+0xc60>
   1a2a0:	66700513          	li	a0,1639
   1a2a4:	4589                	li	a1,2
   1a2a6:	4601                	li	a2,0
   1a2a8:	4681                	li	a3,0
   1a2aa:	00000073          	ecall
   1a2ae:	4556                	lw	a0,84(sp)
   1a2b0:	05811583          	lh	a1,88(sp)
   1a2b4:	05a14603          	lbu	a2,90(sp)
   1a2b8:	0187d693          	srli	a3,a5,0x18
   1a2bc:	0107d713          	srli	a4,a5,0x10
   1a2c0:	0ae108a3          	sb	a4,177(sp)
   1a2c4:	0ad10923          	sb	a3,178(sp)
   1a2c8:	09411683          	lh	a3,148(sp)
   1a2cc:	09614703          	lbu	a4,150(sp)
   1a2d0:	c42a                	sw	a0,8(sp)
   1a2d2:	00b11623          	sh	a1,12(sp)
   1a2d6:	00c10723          	sb	a2,14(sp)
   1a2da:	0087d513          	srli	a0,a5,0x8
   1a2de:	0ad11623          	sh	a3,172(sp)
   1a2e2:	0ae10723          	sb	a4,174(sp)
   1a2e6:	0af107a3          	sb	a5,175(sp)
   1a2ea:	0aa10823          	sb	a0,176(sp)
   1a2ee:	0b310513          	addi	a0,sp,179
   1a2f2:	002c                	addi	a1,sp,8
   1a2f4:	461d                	li	a2,7
   1a2f6:	00003097          	auipc	ra,0x3
   1a2fa:	480080e7          	jalr	1152(ra) # 1d776 <memcpy>
   1a2fe:	6505                	lui	a0,0x1
   1a300:	38050513          	addi	a0,a0,896 # 1380 <.Lline_table_start1+0x1155>
   1a304:	950a                	add	a0,a0,sp
   1a306:	116c                	addi	a1,sp,172
   1a308:	fffff097          	auipc	ra,0xfffff
   1a30c:	950080e7          	jalr	-1712(ra) # 18c58 <_ZN20complex_dynamic_type3app17hf03d30e66d328eb9E>
   1a310:	3eca4503          	lbu	a0,1004(s4)
   1a314:	c119                	beqz	a0,1a31a <_start+0xccc>
   1a316:	3e80306f          	j	1d6fe <_start+0x40b0>
   1a31a:	3eea4503          	lbu	a0,1006(s4)
   1a31e:	3eda4583          	lbu	a1,1005(s4)
   1a322:	3efa4603          	lbu	a2,1007(s4)
   1a326:	3f0a2403          	lw	s0,1008(s4)
   1a32a:	0522                	slli	a0,a0,0x8
   1a32c:	8d4d                	or	a0,a0,a1
   1a32e:	0aa11d23          	sh	a0,186(sp)
   1a332:	0ac10e23          	sb	a2,188(sp)
   1a336:	6505                	lui	a0,0x1
   1a338:	38850513          	addi	a0,a0,904 # 1388 <.Lline_table_start1+0x115d>
   1a33c:	00a105b3          	add	a1,sp,a0
   1a340:	6505                	lui	a0,0x1
   1a342:	32450513          	addi	a0,a0,804 # 1324 <.Lline_table_start1+0x10f9>
   1a346:	950a                	add	a0,a0,sp
   1a348:	04100613          	li	a2,65
   1a34c:	00003097          	auipc	ra,0x3
   1a350:	42a080e7          	jalr	1066(ra) # 1d776 <memcpy>
   1a354:	01845513          	srli	a0,s0,0x18
   1a358:	01045593          	srli	a1,s0,0x10
   1a35c:	00845613          	srli	a2,s0,0x8
   1a360:	0a810ea3          	sb	s0,189(sp)
   1a364:	0ac10f23          	sb	a2,190(sp)
   1a368:	0ab10fa3          	sb	a1,191(sp)
   1a36c:	0ca10023          	sb	a0,192(sp)
   1a370:	0c110513          	addi	a0,sp,193
   1a374:	6585                	lui	a1,0x1
   1a376:	32458593          	addi	a1,a1,804 # 1324 <.Lline_table_start1+0x10f9>
   1a37a:	958a                	add	a1,a1,sp
   1a37c:	04100613          	li	a2,65
   1a380:	00003097          	auipc	ra,0x3
   1a384:	3f6080e7          	jalr	1014(ra) # 1d776 <memcpy>
   1a388:	6505                	lui	a0,0x1
   1a38a:	38050513          	addi	a0,a0,896 # 1380 <.Lline_table_start1+0x1155>
   1a38e:	950a                	add	a0,a0,sp
   1a390:	0ba10593          	addi	a1,sp,186
   1a394:	ffff9097          	auipc	ra,0xffff9
   1a398:	0f4080e7          	jalr	244(ra) # 13488 <_ZN20complex_dynamic_type3app17h4845bccc5b67c170E>
   1a39c:	3eca4503          	lbu	a0,1004(s4)
   1a3a0:	c119                	beqz	a0,1a3a6 <_start+0xd58>
   1a3a2:	35c0306f          	j	1d6fe <_start+0x40b0>
   1a3a6:	3eda4503          	lbu	a0,1005(s4)
   1a3aa:	3eea4583          	lbu	a1,1006(s4)
   1a3ae:	3efa4803          	lbu	a6,1007(s4)
   1a3b2:	3f0a2683          	lw	a3,1008(s4)
   1a3b6:	3f4a2703          	lw	a4,1012(s4)
   1a3ba:	3f8a2783          	lw	a5,1016(s4)
   1a3be:	05a2                	slli	a1,a1,0x8
   1a3c0:	0186d893          	srli	a7,a3,0x18
   1a3c4:	0106d293          	srli	t0,a3,0x10
   1a3c8:	0187d613          	srli	a2,a5,0x18
   1a3cc:	0107d493          	srli	s1,a5,0x10
   1a3d0:	0087d413          	srli	s0,a5,0x8
   1a3d4:	8d4d                	or	a0,a0,a1
   1a3d6:	01875593          	srli	a1,a4,0x18
   1a3da:	109107a3          	sb	s1,271(sp)
   1a3de:	10c10823          	sb	a2,272(sp)
   1a3e2:	01075613          	srli	a2,a4,0x10
   1a3e6:	10c105a3          	sb	a2,267(sp)
   1a3ea:	10b10623          	sb	a1,268(sp)
   1a3ee:	10f106a3          	sb	a5,269(sp)
   1a3f2:	10810723          	sb	s0,270(sp)
   1a3f6:	0086d593          	srli	a1,a3,0x8
   1a3fa:	10a11123          	sh	a0,258(sp)
   1a3fe:	11010223          	sb	a6,260(sp)
   1a402:	10d102a3          	sb	a3,261(sp)
   1a406:	10b10323          	sb	a1,262(sp)
   1a40a:	00875513          	srli	a0,a4,0x8
   1a40e:	105103a3          	sb	t0,263(sp)
   1a412:	11110423          	sb	a7,264(sp)
   1a416:	10e104a3          	sb	a4,265(sp)
   1a41a:	10a10523          	sb	a0,266(sp)
   1a41e:	6505                	lui	a0,0x1
   1a420:	38050513          	addi	a0,a0,896 # 1380 <.Lline_table_start1+0x1155>
   1a424:	950a                	add	a0,a0,sp
   1a426:	10210593          	addi	a1,sp,258
   1a42a:	ffffb097          	auipc	ra,0xffffb
   1a42e:	c9a080e7          	jalr	-870(ra) # 150c4 <_ZN20complex_dynamic_type3app17h8a043483d25fec35E>
   1a432:	3eca4503          	lbu	a0,1004(s4)
   1a436:	c119                	beqz	a0,1a43c <_start+0xdee>
   1a438:	2c60306f          	j	1d6fe <_start+0x40b0>
   1a43c:	3eea4503          	lbu	a0,1006(s4)
   1a440:	3eda4583          	lbu	a1,1005(s4)
   1a444:	3efa4603          	lbu	a2,1007(s4)
   1a448:	3f0a2403          	lw	s0,1008(s4)
   1a44c:	0522                	slli	a0,a0,0x8
   1a44e:	8d4d                	or	a0,a0,a1
   1a450:	10a11923          	sh	a0,274(sp)
   1a454:	10c10a23          	sb	a2,276(sp)
   1a458:	6505                	lui	a0,0x1
   1a45a:	38850513          	addi	a0,a0,904 # 1388 <.Lline_table_start1+0x115d>
   1a45e:	00a105b3          	add	a1,sp,a0
   1a462:	6505                	lui	a0,0x1
   1a464:	32450513          	addi	a0,a0,804 # 1324 <.Lline_table_start1+0x10f9>
   1a468:	950a                	add	a0,a0,sp
   1a46a:	4679                	li	a2,30
   1a46c:	00003097          	auipc	ra,0x3
   1a470:	30a080e7          	jalr	778(ra) # 1d776 <memcpy>
   1a474:	01845513          	srli	a0,s0,0x18
   1a478:	01045593          	srli	a1,s0,0x10
   1a47c:	00845613          	srli	a2,s0,0x8
   1a480:	10810aa3          	sb	s0,277(sp)
   1a484:	10c10b23          	sb	a2,278(sp)
   1a488:	10b10ba3          	sb	a1,279(sp)
   1a48c:	10a10c23          	sb	a0,280(sp)
   1a490:	11910513          	addi	a0,sp,281
   1a494:	6585                	lui	a1,0x1
   1a496:	32458593          	addi	a1,a1,804 # 1324 <.Lline_table_start1+0x10f9>
   1a49a:	958a                	add	a1,a1,sp
   1a49c:	4679                	li	a2,30
   1a49e:	00003097          	auipc	ra,0x3
   1a4a2:	2d8080e7          	jalr	728(ra) # 1d776 <memcpy>
   1a4a6:	6505                	lui	a0,0x1
   1a4a8:	38050513          	addi	a0,a0,896 # 1380 <.Lline_table_start1+0x1155>
   1a4ac:	950a                	add	a0,a0,sp
   1a4ae:	11210593          	addi	a1,sp,274
   1a4b2:	ffffc097          	auipc	ra,0xffffc
   1a4b6:	422080e7          	jalr	1058(ra) # 168d4 <_ZN20complex_dynamic_type3app17hb9e06452d03a431aE>
   1a4ba:	3eca4503          	lbu	a0,1004(s4)
   1a4be:	c119                	beqz	a0,1a4c4 <_start+0xe76>
   1a4c0:	23e0306f          	j	1d6fe <_start+0x40b0>
   1a4c4:	3eea4503          	lbu	a0,1006(s4)
   1a4c8:	3eda4583          	lbu	a1,1005(s4)
   1a4cc:	3efa4603          	lbu	a2,1007(s4)
   1a4d0:	3f0a2403          	lw	s0,1008(s4)
   1a4d4:	0522                	slli	a0,a0,0x8
   1a4d6:	8d4d                	or	a0,a0,a1
   1a4d8:	12a11c23          	sh	a0,312(sp)
   1a4dc:	12c10d23          	sb	a2,314(sp)
   1a4e0:	6505                	lui	a0,0x1
   1a4e2:	38850513          	addi	a0,a0,904 # 1388 <.Lline_table_start1+0x115d>
   1a4e6:	00a105b3          	add	a1,sp,a0
   1a4ea:	6505                	lui	a0,0x1
   1a4ec:	32450513          	addi	a0,a0,804 # 1324 <.Lline_table_start1+0x10f9>
   1a4f0:	950a                	add	a0,a0,sp
   1a4f2:	02300613          	li	a2,35
   1a4f6:	00003097          	auipc	ra,0x3
   1a4fa:	280080e7          	jalr	640(ra) # 1d776 <memcpy>
   1a4fe:	01845513          	srli	a0,s0,0x18
   1a502:	01045593          	srli	a1,s0,0x10
   1a506:	00845613          	srli	a2,s0,0x8
   1a50a:	12810da3          	sb	s0,315(sp)
   1a50e:	12c10e23          	sb	a2,316(sp)
   1a512:	12b10ea3          	sb	a1,317(sp)
   1a516:	12a10f23          	sb	a0,318(sp)
   1a51a:	13f10513          	addi	a0,sp,319
   1a51e:	6585                	lui	a1,0x1
   1a520:	32458593          	addi	a1,a1,804 # 1324 <.Lline_table_start1+0x10f9>
   1a524:	958a                	add	a1,a1,sp
   1a526:	02300613          	li	a2,35
   1a52a:	00003097          	auipc	ra,0x3
   1a52e:	24c080e7          	jalr	588(ra) # 1d776 <memcpy>
   1a532:	6505                	lui	a0,0x1
   1a534:	38050513          	addi	a0,a0,896 # 1380 <.Lline_table_start1+0x1155>
   1a538:	950a                	add	a0,a0,sp
   1a53a:	1a2c                	addi	a1,sp,312
   1a53c:	ffffd097          	auipc	ra,0xffffd
   1a540:	d76080e7          	jalr	-650(ra) # 172b2 <_ZN20complex_dynamic_type3app17hcd2000040373da29E>
   1a544:	3eca4503          	lbu	a0,1004(s4)
   1a548:	c119                	beqz	a0,1a54e <_start+0xf00>
   1a54a:	1b40306f          	j	1d6fe <_start+0x40b0>
   1a54e:	3eea4503          	lbu	a0,1006(s4)
   1a552:	3eda4583          	lbu	a1,1005(s4)
   1a556:	3efa4603          	lbu	a2,1007(s4)
   1a55a:	3f0a2403          	lw	s0,1008(s4)
   1a55e:	0522                	slli	a0,a0,0x8
   1a560:	8d4d                	or	a0,a0,a1
   1a562:	16a11123          	sh	a0,354(sp)
   1a566:	16c10223          	sb	a2,356(sp)
   1a56a:	6505                	lui	a0,0x1
   1a56c:	38850513          	addi	a0,a0,904 # 1388 <.Lline_table_start1+0x115d>
   1a570:	00a105b3          	add	a1,sp,a0
   1a574:	6505                	lui	a0,0x1
   1a576:	32450513          	addi	a0,a0,804 # 1324 <.Lline_table_start1+0x10f9>
   1a57a:	950a                	add	a0,a0,sp
   1a57c:	05c00613          	li	a2,92
   1a580:	00003097          	auipc	ra,0x3
   1a584:	1f6080e7          	jalr	502(ra) # 1d776 <memcpy>
   1a588:	01845513          	srli	a0,s0,0x18
   1a58c:	01045593          	srli	a1,s0,0x10
   1a590:	00845613          	srli	a2,s0,0x8
   1a594:	168102a3          	sb	s0,357(sp)
   1a598:	16c10323          	sb	a2,358(sp)
   1a59c:	16b103a3          	sb	a1,359(sp)
   1a5a0:	16a10423          	sb	a0,360(sp)
   1a5a4:	16910513          	addi	a0,sp,361
   1a5a8:	6585                	lui	a1,0x1
   1a5aa:	32458593          	addi	a1,a1,804 # 1324 <.Lline_table_start1+0x10f9>
   1a5ae:	958a                	add	a1,a1,sp
   1a5b0:	05c00613          	li	a2,92
   1a5b4:	00003097          	auipc	ra,0x3
   1a5b8:	1c2080e7          	jalr	450(ra) # 1d776 <memcpy>
   1a5bc:	6505                	lui	a0,0x1
   1a5be:	38050513          	addi	a0,a0,896 # 1380 <.Lline_table_start1+0x1155>
   1a5c2:	950a                	add	a0,a0,sp
   1a5c4:	16210593          	addi	a1,sp,354
   1a5c8:	ffff7097          	auipc	ra,0xffff7
   1a5cc:	3ea080e7          	jalr	1002(ra) # 119b2 <_ZN20complex_dynamic_type3app17h17831dd61098807cE>
   1a5d0:	3eca4503          	lbu	a0,1004(s4)
   1a5d4:	c119                	beqz	a0,1a5da <_start+0xf8c>
   1a5d6:	1280306f          	j	1d6fe <_start+0x40b0>
   1a5da:	3eea4503          	lbu	a0,1006(s4)
   1a5de:	3eda4583          	lbu	a1,1005(s4)
   1a5e2:	3efa4603          	lbu	a2,1007(s4)
   1a5e6:	3f0a2403          	lw	s0,1008(s4)
   1a5ea:	0522                	slli	a0,a0,0x8
   1a5ec:	8d4d                	or	a0,a0,a1
   1a5ee:	1ca11323          	sh	a0,454(sp)
   1a5f2:	1cc10423          	sb	a2,456(sp)
   1a5f6:	6505                	lui	a0,0x1
   1a5f8:	38850513          	addi	a0,a0,904 # 1388 <.Lline_table_start1+0x115d>
   1a5fc:	00a105b3          	add	a1,sp,a0
   1a600:	6505                	lui	a0,0x1
   1a602:	32450513          	addi	a0,a0,804 # 1324 <.Lline_table_start1+0x10f9>
   1a606:	950a                	add	a0,a0,sp
   1a608:	02000613          	li	a2,32
   1a60c:	00003097          	auipc	ra,0x3
   1a610:	16a080e7          	jalr	362(ra) # 1d776 <memcpy>
   1a614:	01845513          	srli	a0,s0,0x18
   1a618:	01045593          	srli	a1,s0,0x10
   1a61c:	00845613          	srli	a2,s0,0x8
   1a620:	1c8104a3          	sb	s0,457(sp)
   1a624:	1cc10523          	sb	a2,458(sp)
   1a628:	1cb105a3          	sb	a1,459(sp)
   1a62c:	1ca10623          	sb	a0,460(sp)
   1a630:	1cd10513          	addi	a0,sp,461
   1a634:	6585                	lui	a1,0x1
   1a636:	32458593          	addi	a1,a1,804 # 1324 <.Lline_table_start1+0x10f9>
   1a63a:	958a                	add	a1,a1,sp
   1a63c:	02000613          	li	a2,32
   1a640:	00003097          	auipc	ra,0x3
   1a644:	136080e7          	jalr	310(ra) # 1d776 <memcpy>
   1a648:	6505                	lui	a0,0x1
   1a64a:	38050513          	addi	a0,a0,896 # 1380 <.Lline_table_start1+0x1155>
   1a64e:	950a                	add	a0,a0,sp
   1a650:	1c610593          	addi	a1,sp,454
   1a654:	ffff8097          	auipc	ra,0xffff8
   1a658:	2e8080e7          	jalr	744(ra) # 1293c <_ZN20complex_dynamic_type3app17h36d6f7007c1d6699E>
   1a65c:	3eca4503          	lbu	a0,1004(s4)
   1a660:	c119                	beqz	a0,1a666 <_start+0x1018>
   1a662:	09c0306f          	j	1d6fe <_start+0x40b0>
   1a666:	3eea4503          	lbu	a0,1006(s4)
   1a66a:	3eda4583          	lbu	a1,1005(s4)
   1a66e:	3efa4603          	lbu	a2,1007(s4)
   1a672:	3f0a2403          	lw	s0,1008(s4)
   1a676:	0522                	slli	a0,a0,0x8
   1a678:	8d4d                	or	a0,a0,a1
   1a67a:	1ea11723          	sh	a0,494(sp)
   1a67e:	1ec10823          	sb	a2,496(sp)
   1a682:	6505                	lui	a0,0x1
   1a684:	38850513          	addi	a0,a0,904 # 1388 <.Lline_table_start1+0x115d>
   1a688:	00a105b3          	add	a1,sp,a0
   1a68c:	6505                	lui	a0,0x1
   1a68e:	32450513          	addi	a0,a0,804 # 1324 <.Lline_table_start1+0x10f9>
   1a692:	950a                	add	a0,a0,sp
   1a694:	465d                	li	a2,23
   1a696:	00003097          	auipc	ra,0x3
   1a69a:	0e0080e7          	jalr	224(ra) # 1d776 <memcpy>
   1a69e:	01845513          	srli	a0,s0,0x18
   1a6a2:	01045593          	srli	a1,s0,0x10
   1a6a6:	00845613          	srli	a2,s0,0x8
   1a6aa:	1e8108a3          	sb	s0,497(sp)
   1a6ae:	1ec10923          	sb	a2,498(sp)
   1a6b2:	1eb109a3          	sb	a1,499(sp)
   1a6b6:	1ea10a23          	sb	a0,500(sp)
   1a6ba:	1f510513          	addi	a0,sp,501
   1a6be:	6585                	lui	a1,0x1
   1a6c0:	32458593          	addi	a1,a1,804 # 1324 <.Lline_table_start1+0x10f9>
   1a6c4:	958a                	add	a1,a1,sp
   1a6c6:	465d                	li	a2,23
   1a6c8:	00003097          	auipc	ra,0x3
   1a6cc:	0ae080e7          	jalr	174(ra) # 1d776 <memcpy>
   1a6d0:	6505                	lui	a0,0x1
   1a6d2:	38050513          	addi	a0,a0,896 # 1380 <.Lline_table_start1+0x1155>
   1a6d6:	950a                	add	a0,a0,sp
   1a6d8:	1ee10593          	addi	a1,sp,494
   1a6dc:	ffffb097          	auipc	ra,0xffffb
   1a6e0:	6b0080e7          	jalr	1712(ra) # 15d8c <_ZN20complex_dynamic_type3app17ha2b219ace2820c85E>
   1a6e4:	3eca4503          	lbu	a0,1004(s4)
   1a6e8:	c119                	beqz	a0,1a6ee <_start+0x10a0>
   1a6ea:	0140306f          	j	1d6fe <_start+0x40b0>
   1a6ee:	3eea4503          	lbu	a0,1006(s4)
   1a6f2:	3eda4583          	lbu	a1,1005(s4)
   1a6f6:	3efa4603          	lbu	a2,1007(s4)
   1a6fa:	3f0a2403          	lw	s0,1008(s4)
   1a6fe:	0522                	slli	a0,a0,0x8
   1a700:	8d4d                	or	a0,a0,a1
   1a702:	20a11623          	sh	a0,524(sp)
   1a706:	20c10723          	sb	a2,526(sp)
   1a70a:	6505                	lui	a0,0x1
   1a70c:	38850513          	addi	a0,a0,904 # 1388 <.Lline_table_start1+0x115d>
   1a710:	00a105b3          	add	a1,sp,a0
   1a714:	6505                	lui	a0,0x1
   1a716:	32450513          	addi	a0,a0,804 # 1324 <.Lline_table_start1+0x10f9>
   1a71a:	950a                	add	a0,a0,sp
   1a71c:	02500613          	li	a2,37
   1a720:	00003097          	auipc	ra,0x3
   1a724:	056080e7          	jalr	86(ra) # 1d776 <memcpy>
   1a728:	01845513          	srli	a0,s0,0x18
   1a72c:	01045593          	srli	a1,s0,0x10
   1a730:	00845613          	srli	a2,s0,0x8
   1a734:	208107a3          	sb	s0,527(sp)
   1a738:	20c10823          	sb	a2,528(sp)
   1a73c:	20b108a3          	sb	a1,529(sp)
   1a740:	20a10923          	sb	a0,530(sp)
   1a744:	21310513          	addi	a0,sp,531
   1a748:	6585                	lui	a1,0x1
   1a74a:	32458593          	addi	a1,a1,804 # 1324 <.Lline_table_start1+0x10f9>
   1a74e:	958a                	add	a1,a1,sp
   1a750:	02500613          	li	a2,37
   1a754:	00003097          	auipc	ra,0x3
   1a758:	022080e7          	jalr	34(ra) # 1d776 <memcpy>
   1a75c:	6505                	lui	a0,0x1
   1a75e:	38050513          	addi	a0,a0,896 # 1380 <.Lline_table_start1+0x1155>
   1a762:	950a                	add	a0,a0,sp
   1a764:	046c                	addi	a1,sp,524
   1a766:	ffffe097          	auipc	ra,0xffffe
   1a76a:	7ce080e7          	jalr	1998(ra) # 18f34 <_ZN20complex_dynamic_type3app17hf439ea5421eb2aafE>
   1a76e:	3eca4503          	lbu	a0,1004(s4)
   1a772:	c119                	beqz	a0,1a778 <_start+0x112a>
   1a774:	78b0206f          	j	1d6fe <_start+0x40b0>
   1a778:	3eea4503          	lbu	a0,1006(s4)
   1a77c:	3eda4583          	lbu	a1,1005(s4)
   1a780:	3efa4603          	lbu	a2,1007(s4)
   1a784:	3f0a2403          	lw	s0,1008(s4)
   1a788:	0522                	slli	a0,a0,0x8
   1a78a:	8d4d                	or	a0,a0,a1
   1a78c:	22a11c23          	sh	a0,568(sp)
   1a790:	22c10d23          	sb	a2,570(sp)
   1a794:	6505                	lui	a0,0x1
   1a796:	38850513          	addi	a0,a0,904 # 1388 <.Lline_table_start1+0x115d>
   1a79a:	00a105b3          	add	a1,sp,a0
   1a79e:	6505                	lui	a0,0x1
   1a7a0:	32450513          	addi	a0,a0,804 # 1324 <.Lline_table_start1+0x10f9>
   1a7a4:	950a                	add	a0,a0,sp
   1a7a6:	4679                	li	a2,30
   1a7a8:	00003097          	auipc	ra,0x3
   1a7ac:	fce080e7          	jalr	-50(ra) # 1d776 <memcpy>
   1a7b0:	01845513          	srli	a0,s0,0x18
   1a7b4:	01045593          	srli	a1,s0,0x10
   1a7b8:	00845613          	srli	a2,s0,0x8
   1a7bc:	22810da3          	sb	s0,571(sp)
   1a7c0:	22c10e23          	sb	a2,572(sp)
   1a7c4:	22b10ea3          	sb	a1,573(sp)
   1a7c8:	22a10f23          	sb	a0,574(sp)
   1a7cc:	23f10513          	addi	a0,sp,575
   1a7d0:	6585                	lui	a1,0x1
   1a7d2:	32458593          	addi	a1,a1,804 # 1324 <.Lline_table_start1+0x10f9>
   1a7d6:	958a                	add	a1,a1,sp
   1a7d8:	4679                	li	a2,30
   1a7da:	00003097          	auipc	ra,0x3
   1a7de:	f9c080e7          	jalr	-100(ra) # 1d776 <memcpy>
   1a7e2:	6505                	lui	a0,0x1
   1a7e4:	38050513          	addi	a0,a0,896 # 1380 <.Lline_table_start1+0x1155>
   1a7e8:	950a                	add	a0,a0,sp
   1a7ea:	1c2c                	addi	a1,sp,568
   1a7ec:	ffff9097          	auipc	ra,0xffff9
   1a7f0:	51c080e7          	jalr	1308(ra) # 13d08 <_ZN20complex_dynamic_type3app17h5864a3813bee3ad3E>
   1a7f4:	3eca4503          	lbu	a0,1004(s4)
   1a7f8:	c119                	beqz	a0,1a7fe <_start+0x11b0>
   1a7fa:	7050206f          	j	1d6fe <_start+0x40b0>
   1a7fe:	3eea4503          	lbu	a0,1006(s4)
   1a802:	3eda4583          	lbu	a1,1005(s4)
   1a806:	3efa4603          	lbu	a2,1007(s4)
   1a80a:	3f0a2403          	lw	s0,1008(s4)
   1a80e:	0522                	slli	a0,a0,0x8
   1a810:	8d4d                	or	a0,a0,a1
   1a812:	24a11f23          	sh	a0,606(sp)
   1a816:	26c10023          	sb	a2,608(sp)
   1a81a:	6505                	lui	a0,0x1
   1a81c:	38850513          	addi	a0,a0,904 # 1388 <.Lline_table_start1+0x115d>
   1a820:	00a105b3          	add	a1,sp,a0
   1a824:	6505                	lui	a0,0x1
   1a826:	32450513          	addi	a0,a0,804 # 1324 <.Lline_table_start1+0x10f9>
   1a82a:	950a                	add	a0,a0,sp
   1a82c:	4645                	li	a2,17
   1a82e:	00003097          	auipc	ra,0x3
   1a832:	f48080e7          	jalr	-184(ra) # 1d776 <memcpy>
   1a836:	01845513          	srli	a0,s0,0x18
   1a83a:	01045593          	srli	a1,s0,0x10
   1a83e:	00845613          	srli	a2,s0,0x8
   1a842:	268100a3          	sb	s0,609(sp)
   1a846:	26c10123          	sb	a2,610(sp)
   1a84a:	26b101a3          	sb	a1,611(sp)
   1a84e:	26a10223          	sb	a0,612(sp)
   1a852:	26510513          	addi	a0,sp,613
   1a856:	6585                	lui	a1,0x1
   1a858:	32458593          	addi	a1,a1,804 # 1324 <.Lline_table_start1+0x10f9>
   1a85c:	958a                	add	a1,a1,sp
   1a85e:	4645                	li	a2,17
   1a860:	00003097          	auipc	ra,0x3
   1a864:	f16080e7          	jalr	-234(ra) # 1d776 <memcpy>
   1a868:	6505                	lui	a0,0x1
   1a86a:	38050513          	addi	a0,a0,896 # 1380 <.Lline_table_start1+0x1155>
   1a86e:	950a                	add	a0,a0,sp
   1a870:	25e10593          	addi	a1,sp,606
   1a874:	ffffe097          	auipc	ra,0xffffe
   1a878:	284080e7          	jalr	644(ra) # 18af8 <_ZN20complex_dynamic_type3app17hf00c7892ae7d0bb8E>
   1a87c:	3eca4503          	lbu	a0,1004(s4)
   1a880:	c119                	beqz	a0,1a886 <_start+0x1238>
   1a882:	67d0206f          	j	1d6fe <_start+0x40b0>
   1a886:	3eea4503          	lbu	a0,1006(s4)
   1a88a:	3eda4583          	lbu	a1,1005(s4)
   1a88e:	3efa4603          	lbu	a2,1007(s4)
   1a892:	3f0a2403          	lw	s0,1008(s4)
   1a896:	0522                	slli	a0,a0,0x8
   1a898:	8d4d                	or	a0,a0,a1
   1a89a:	26a11b23          	sh	a0,630(sp)
   1a89e:	26c10c23          	sb	a2,632(sp)
   1a8a2:	6505                	lui	a0,0x1
   1a8a4:	38850513          	addi	a0,a0,904 # 1388 <.Lline_table_start1+0x115d>
   1a8a8:	00a105b3          	add	a1,sp,a0
   1a8ac:	6505                	lui	a0,0x1
   1a8ae:	32450513          	addi	a0,a0,804 # 1324 <.Lline_table_start1+0x10f9>
   1a8b2:	950a                	add	a0,a0,sp
   1a8b4:	02f00613          	li	a2,47
   1a8b8:	00003097          	auipc	ra,0x3
   1a8bc:	ebe080e7          	jalr	-322(ra) # 1d776 <memcpy>
   1a8c0:	01845513          	srli	a0,s0,0x18
   1a8c4:	01045593          	srli	a1,s0,0x10
   1a8c8:	00845613          	srli	a2,s0,0x8
   1a8cc:	26810ca3          	sb	s0,633(sp)
   1a8d0:	26c10d23          	sb	a2,634(sp)
   1a8d4:	26b10da3          	sb	a1,635(sp)
   1a8d8:	26a10e23          	sb	a0,636(sp)
   1a8dc:	27d10513          	addi	a0,sp,637
   1a8e0:	6585                	lui	a1,0x1
   1a8e2:	32458593          	addi	a1,a1,804 # 1324 <.Lline_table_start1+0x10f9>
   1a8e6:	958a                	add	a1,a1,sp
   1a8e8:	02f00613          	li	a2,47
   1a8ec:	00003097          	auipc	ra,0x3
   1a8f0:	e8a080e7          	jalr	-374(ra) # 1d776 <memcpy>
   1a8f4:	6505                	lui	a0,0x1
   1a8f6:	38050513          	addi	a0,a0,896 # 1380 <.Lline_table_start1+0x1155>
   1a8fa:	950a                	add	a0,a0,sp
   1a8fc:	27610593          	addi	a1,sp,630
   1a900:	ffff8097          	auipc	ra,0xffff8
   1a904:	a94080e7          	jalr	-1388(ra) # 12394 <_ZN20complex_dynamic_type3app17h2e28ad12b15e3040E>
   1a908:	3eca4503          	lbu	a0,1004(s4)
   1a90c:	c119                	beqz	a0,1a912 <_start+0x12c4>
   1a90e:	5f10206f          	j	1d6fe <_start+0x40b0>
   1a912:	3eea4503          	lbu	a0,1006(s4)
   1a916:	3eda4583          	lbu	a1,1005(s4)
   1a91a:	3efa4603          	lbu	a2,1007(s4)
   1a91e:	3f0a2403          	lw	s0,1008(s4)
   1a922:	0522                	slli	a0,a0,0x8
   1a924:	8d4d                	or	a0,a0,a1
   1a926:	2aa11623          	sh	a0,684(sp)
   1a92a:	2ac10723          	sb	a2,686(sp)
   1a92e:	6505                	lui	a0,0x1
   1a930:	38850513          	addi	a0,a0,904 # 1388 <.Lline_table_start1+0x115d>
   1a934:	00a105b3          	add	a1,sp,a0
   1a938:	6505                	lui	a0,0x1
   1a93a:	32450513          	addi	a0,a0,804 # 1324 <.Lline_table_start1+0x10f9>
   1a93e:	950a                	add	a0,a0,sp
   1a940:	02d00613          	li	a2,45
   1a944:	00003097          	auipc	ra,0x3
   1a948:	e32080e7          	jalr	-462(ra) # 1d776 <memcpy>
   1a94c:	01845513          	srli	a0,s0,0x18
   1a950:	01045593          	srli	a1,s0,0x10
   1a954:	00845613          	srli	a2,s0,0x8
   1a958:	2a8107a3          	sb	s0,687(sp)
   1a95c:	2ac10823          	sb	a2,688(sp)
   1a960:	2ab108a3          	sb	a1,689(sp)
   1a964:	2aa10923          	sb	a0,690(sp)
   1a968:	2b310513          	addi	a0,sp,691
   1a96c:	6585                	lui	a1,0x1
   1a96e:	32458593          	addi	a1,a1,804 # 1324 <.Lline_table_start1+0x10f9>
   1a972:	958a                	add	a1,a1,sp
   1a974:	02d00613          	li	a2,45
   1a978:	00003097          	auipc	ra,0x3
   1a97c:	dfe080e7          	jalr	-514(ra) # 1d776 <memcpy>
   1a980:	6505                	lui	a0,0x1
   1a982:	38050513          	addi	a0,a0,896 # 1380 <.Lline_table_start1+0x1155>
   1a986:	950a                	add	a0,a0,sp
   1a988:	156c                	addi	a1,sp,684
   1a98a:	ffff8097          	auipc	ra,0xffff8
   1a98e:	cde080e7          	jalr	-802(ra) # 12668 <_ZN20complex_dynamic_type3app17h31aa0c8951ed768fE>
   1a992:	3eca4503          	lbu	a0,1004(s4)
   1a996:	c119                	beqz	a0,1a99c <_start+0x134e>
   1a998:	5670206f          	j	1d6fe <_start+0x40b0>
   1a99c:	3eea4503          	lbu	a0,1006(s4)
   1a9a0:	3eda4583          	lbu	a1,1005(s4)
   1a9a4:	3efa4603          	lbu	a2,1007(s4)
   1a9a8:	3f0a2403          	lw	s0,1008(s4)
   1a9ac:	0522                	slli	a0,a0,0x8
   1a9ae:	8d4d                	or	a0,a0,a1
   1a9b0:	2ea11023          	sh	a0,736(sp)
   1a9b4:	2ec10123          	sb	a2,738(sp)
   1a9b8:	6505                	lui	a0,0x1
   1a9ba:	38850513          	addi	a0,a0,904 # 1388 <.Lline_table_start1+0x115d>
   1a9be:	00a105b3          	add	a1,sp,a0
   1a9c2:	6505                	lui	a0,0x1
   1a9c4:	32450513          	addi	a0,a0,804 # 1324 <.Lline_table_start1+0x10f9>
   1a9c8:	950a                	add	a0,a0,sp
   1a9ca:	02700613          	li	a2,39
   1a9ce:	00003097          	auipc	ra,0x3
   1a9d2:	da8080e7          	jalr	-600(ra) # 1d776 <memcpy>
   1a9d6:	01845513          	srli	a0,s0,0x18
   1a9da:	01045593          	srli	a1,s0,0x10
   1a9de:	00845613          	srli	a2,s0,0x8
   1a9e2:	2e8101a3          	sb	s0,739(sp)
   1a9e6:	2ec10223          	sb	a2,740(sp)
   1a9ea:	2eb102a3          	sb	a1,741(sp)
   1a9ee:	2ea10323          	sb	a0,742(sp)
   1a9f2:	2e710513          	addi	a0,sp,743
   1a9f6:	6585                	lui	a1,0x1
   1a9f8:	32458593          	addi	a1,a1,804 # 1324 <.Lline_table_start1+0x10f9>
   1a9fc:	958a                	add	a1,a1,sp
   1a9fe:	02700613          	li	a2,39
   1aa02:	00003097          	auipc	ra,0x3
   1aa06:	d74080e7          	jalr	-652(ra) # 1d776 <memcpy>
   1aa0a:	6505                	lui	a0,0x1
   1aa0c:	38050513          	addi	a0,a0,896 # 1380 <.Lline_table_start1+0x1155>
   1aa10:	950a                	add	a0,a0,sp
   1aa12:	158c                	addi	a1,sp,736
   1aa14:	ffffd097          	auipc	ra,0xffffd
   1aa18:	cee080e7          	jalr	-786(ra) # 17702 <_ZN20complex_dynamic_type3app17hd4e3b7f1a011ddb1E>
   1aa1c:	3eca4503          	lbu	a0,1004(s4)
   1aa20:	c119                	beqz	a0,1aa26 <_start+0x13d8>
   1aa22:	4dd0206f          	j	1d6fe <_start+0x40b0>
   1aa26:	3eea4503          	lbu	a0,1006(s4)
   1aa2a:	3eda4583          	lbu	a1,1005(s4)
   1aa2e:	3efa4603          	lbu	a2,1007(s4)
   1aa32:	3f0a2403          	lw	s0,1008(s4)
   1aa36:	0522                	slli	a0,a0,0x8
   1aa38:	8d4d                	or	a0,a0,a1
   1aa3a:	30a11723          	sh	a0,782(sp)
   1aa3e:	30c10823          	sb	a2,784(sp)
   1aa42:	6505                	lui	a0,0x1
   1aa44:	38850513          	addi	a0,a0,904 # 1388 <.Lline_table_start1+0x115d>
   1aa48:	00a105b3          	add	a1,sp,a0
   1aa4c:	6505                	lui	a0,0x1
   1aa4e:	32450513          	addi	a0,a0,804 # 1324 <.Lline_table_start1+0x10f9>
   1aa52:	950a                	add	a0,a0,sp
   1aa54:	03100613          	li	a2,49
   1aa58:	00003097          	auipc	ra,0x3
   1aa5c:	d1e080e7          	jalr	-738(ra) # 1d776 <memcpy>
   1aa60:	01845513          	srli	a0,s0,0x18
   1aa64:	01045593          	srli	a1,s0,0x10
   1aa68:	00845613          	srli	a2,s0,0x8
   1aa6c:	308108a3          	sb	s0,785(sp)
   1aa70:	30c10923          	sb	a2,786(sp)
   1aa74:	30b109a3          	sb	a1,787(sp)
   1aa78:	30a10a23          	sb	a0,788(sp)
   1aa7c:	31510513          	addi	a0,sp,789
   1aa80:	6585                	lui	a1,0x1
   1aa82:	32458593          	addi	a1,a1,804 # 1324 <.Lline_table_start1+0x10f9>
   1aa86:	958a                	add	a1,a1,sp
   1aa88:	03100613          	li	a2,49
   1aa8c:	00003097          	auipc	ra,0x3
   1aa90:	cea080e7          	jalr	-790(ra) # 1d776 <memcpy>
   1aa94:	6505                	lui	a0,0x1
   1aa96:	38050513          	addi	a0,a0,896 # 1380 <.Lline_table_start1+0x1155>
   1aa9a:	950a                	add	a0,a0,sp
   1aa9c:	30e10593          	addi	a1,sp,782
   1aaa0:	ffff8097          	auipc	ra,0xffff8
   1aaa4:	718080e7          	jalr	1816(ra) # 131b8 <_ZN20complex_dynamic_type3app17h4089eb4394539928E>
   1aaa8:	3eca4503          	lbu	a0,1004(s4)
   1aaac:	c119                	beqz	a0,1aab2 <_start+0x1464>
   1aaae:	4510206f          	j	1d6fe <_start+0x40b0>
   1aab2:	3eea4503          	lbu	a0,1006(s4)
   1aab6:	3eda4583          	lbu	a1,1005(s4)
   1aaba:	3efa4603          	lbu	a2,1007(s4)
   1aabe:	3f0a2403          	lw	s0,1008(s4)
   1aac2:	0522                	slli	a0,a0,0x8
   1aac4:	8d4d                	or	a0,a0,a1
   1aac6:	34a11323          	sh	a0,838(sp)
   1aaca:	34c10423          	sb	a2,840(sp)
   1aace:	6505                	lui	a0,0x1
   1aad0:	38850513          	addi	a0,a0,904 # 1388 <.Lline_table_start1+0x115d>
   1aad4:	00a105b3          	add	a1,sp,a0
   1aad8:	6505                	lui	a0,0x1
   1aada:	32450513          	addi	a0,a0,804 # 1324 <.Lline_table_start1+0x10f9>
   1aade:	950a                	add	a0,a0,sp
   1aae0:	02d00613          	li	a2,45
   1aae4:	00003097          	auipc	ra,0x3
   1aae8:	c92080e7          	jalr	-878(ra) # 1d776 <memcpy>
   1aaec:	01845513          	srli	a0,s0,0x18
   1aaf0:	01045593          	srli	a1,s0,0x10
   1aaf4:	00845613          	srli	a2,s0,0x8
   1aaf8:	348104a3          	sb	s0,841(sp)
   1aafc:	34c10523          	sb	a2,842(sp)
   1ab00:	34b105a3          	sb	a1,843(sp)
   1ab04:	34a10623          	sb	a0,844(sp)
   1ab08:	34d10513          	addi	a0,sp,845
   1ab0c:	6585                	lui	a1,0x1
   1ab0e:	32458593          	addi	a1,a1,804 # 1324 <.Lline_table_start1+0x10f9>
   1ab12:	958a                	add	a1,a1,sp
   1ab14:	02d00613          	li	a2,45
   1ab18:	00003097          	auipc	ra,0x3
   1ab1c:	c5e080e7          	jalr	-930(ra) # 1d776 <memcpy>
   1ab20:	6505                	lui	a0,0x1
   1ab22:	38050513          	addi	a0,a0,896 # 1380 <.Lline_table_start1+0x1155>
   1ab26:	950a                	add	a0,a0,sp
   1ab28:	34610593          	addi	a1,sp,838
   1ab2c:	ffffa097          	auipc	ra,0xffffa
   1ab30:	2c2080e7          	jalr	706(ra) # 14dee <_ZN20complex_dynamic_type3app17h872068b99b137cc6E>
   1ab34:	3eca4503          	lbu	a0,1004(s4)
   1ab38:	c119                	beqz	a0,1ab3e <_start+0x14f0>
   1ab3a:	3c50206f          	j	1d6fe <_start+0x40b0>
   1ab3e:	3eea4503          	lbu	a0,1006(s4)
   1ab42:	3eda4583          	lbu	a1,1005(s4)
   1ab46:	3efa4603          	lbu	a2,1007(s4)
   1ab4a:	3f0a2403          	lw	s0,1008(s4)
   1ab4e:	0522                	slli	a0,a0,0x8
   1ab50:	8d4d                	or	a0,a0,a1
   1ab52:	36a11d23          	sh	a0,890(sp)
   1ab56:	36c10e23          	sb	a2,892(sp)
   1ab5a:	6505                	lui	a0,0x1
   1ab5c:	38850513          	addi	a0,a0,904 # 1388 <.Lline_table_start1+0x115d>
   1ab60:	00a105b3          	add	a1,sp,a0
   1ab64:	6505                	lui	a0,0x1
   1ab66:	32450513          	addi	a0,a0,804 # 1324 <.Lline_table_start1+0x10f9>
   1ab6a:	950a                	add	a0,a0,sp
   1ab6c:	464d                	li	a2,19
   1ab6e:	00003097          	auipc	ra,0x3
   1ab72:	c08080e7          	jalr	-1016(ra) # 1d776 <memcpy>
   1ab76:	01845513          	srli	a0,s0,0x18
   1ab7a:	01045593          	srli	a1,s0,0x10
   1ab7e:	00845613          	srli	a2,s0,0x8
   1ab82:	36810ea3          	sb	s0,893(sp)
   1ab86:	36c10f23          	sb	a2,894(sp)
   1ab8a:	36b10fa3          	sb	a1,895(sp)
   1ab8e:	38a10023          	sb	a0,896(sp)
   1ab92:	38110513          	addi	a0,sp,897
   1ab96:	6585                	lui	a1,0x1
   1ab98:	32458593          	addi	a1,a1,804 # 1324 <.Lline_table_start1+0x10f9>
   1ab9c:	958a                	add	a1,a1,sp
   1ab9e:	464d                	li	a2,19
   1aba0:	00003097          	auipc	ra,0x3
   1aba4:	bd6080e7          	jalr	-1066(ra) # 1d776 <memcpy>
   1aba8:	6505                	lui	a0,0x1
   1abaa:	38050513          	addi	a0,a0,896 # 1380 <.Lline_table_start1+0x1155>
   1abae:	950a                	add	a0,a0,sp
   1abb0:	37a10593          	addi	a1,sp,890
   1abb4:	ffffa097          	auipc	ra,0xffffa
   1abb8:	670080e7          	jalr	1648(ra) # 15224 <_ZN20complex_dynamic_type3app17h8f95bb1629456b7cE>
   1abbc:	3eca4503          	lbu	a0,1004(s4)
   1abc0:	c119                	beqz	a0,1abc6 <_start+0x1578>
   1abc2:	33d0206f          	j	1d6fe <_start+0x40b0>
   1abc6:	3eea4503          	lbu	a0,1006(s4)
   1abca:	3eda4583          	lbu	a1,1005(s4)
   1abce:	3efa4603          	lbu	a2,1007(s4)
   1abd2:	3f0a2403          	lw	s0,1008(s4)
   1abd6:	0522                	slli	a0,a0,0x8
   1abd8:	8d4d                	or	a0,a0,a1
   1abda:	38a11a23          	sh	a0,916(sp)
   1abde:	38c10b23          	sb	a2,918(sp)
   1abe2:	6505                	lui	a0,0x1
   1abe4:	38850513          	addi	a0,a0,904 # 1388 <.Lline_table_start1+0x115d>
   1abe8:	00a105b3          	add	a1,sp,a0
   1abec:	6505                	lui	a0,0x1
   1abee:	32450513          	addi	a0,a0,804 # 1324 <.Lline_table_start1+0x10f9>
   1abf2:	950a                	add	a0,a0,sp
   1abf4:	04900613          	li	a2,73
   1abf8:	00003097          	auipc	ra,0x3
   1abfc:	b7e080e7          	jalr	-1154(ra) # 1d776 <memcpy>
   1ac00:	01845513          	srli	a0,s0,0x18
   1ac04:	01045593          	srli	a1,s0,0x10
   1ac08:	00845613          	srli	a2,s0,0x8
   1ac0c:	38810ba3          	sb	s0,919(sp)
   1ac10:	38c10c23          	sb	a2,920(sp)
   1ac14:	38b10ca3          	sb	a1,921(sp)
   1ac18:	38a10d23          	sb	a0,922(sp)
   1ac1c:	39b10513          	addi	a0,sp,923
   1ac20:	6585                	lui	a1,0x1
   1ac22:	32458593          	addi	a1,a1,804 # 1324 <.Lline_table_start1+0x10f9>
   1ac26:	958a                	add	a1,a1,sp
   1ac28:	04900613          	li	a2,73
   1ac2c:	00003097          	auipc	ra,0x3
   1ac30:	b4a080e7          	jalr	-1206(ra) # 1d776 <memcpy>
   1ac34:	6505                	lui	a0,0x1
   1ac36:	38050513          	addi	a0,a0,896 # 1380 <.Lline_table_start1+0x1155>
   1ac3a:	950a                	add	a0,a0,sp
   1ac3c:	0f4c                	addi	a1,sp,916
   1ac3e:	ffffc097          	auipc	ra,0xffffc
   1ac42:	e04080e7          	jalr	-508(ra) # 16a42 <_ZN20complex_dynamic_type3app17hbb8ce8a9cb56decfE>
   1ac46:	3eca4503          	lbu	a0,1004(s4)
   1ac4a:	c119                	beqz	a0,1ac50 <_start+0x1602>
   1ac4c:	2b30206f          	j	1d6fe <_start+0x40b0>
   1ac50:	3eea4503          	lbu	a0,1006(s4)
   1ac54:	3eda4583          	lbu	a1,1005(s4)
   1ac58:	3efa4603          	lbu	a2,1007(s4)
   1ac5c:	3f0a2403          	lw	s0,1008(s4)
   1ac60:	0522                	slli	a0,a0,0x8
   1ac62:	8d4d                	or	a0,a0,a1
   1ac64:	3ea11223          	sh	a0,996(sp)
   1ac68:	3ec10323          	sb	a2,998(sp)
   1ac6c:	6505                	lui	a0,0x1
   1ac6e:	38850513          	addi	a0,a0,904 # 1388 <.Lline_table_start1+0x115d>
   1ac72:	00a105b3          	add	a1,sp,a0
   1ac76:	6505                	lui	a0,0x1
   1ac78:	32450513          	addi	a0,a0,804 # 1324 <.Lline_table_start1+0x10f9>
   1ac7c:	950a                	add	a0,a0,sp
   1ac7e:	03500613          	li	a2,53
   1ac82:	00003097          	auipc	ra,0x3
   1ac86:	af4080e7          	jalr	-1292(ra) # 1d776 <memcpy>
   1ac8a:	01845513          	srli	a0,s0,0x18
   1ac8e:	01045593          	srli	a1,s0,0x10
   1ac92:	00845613          	srli	a2,s0,0x8
   1ac96:	3e8103a3          	sb	s0,999(sp)
   1ac9a:	3ec10423          	sb	a2,1000(sp)
   1ac9e:	3eb104a3          	sb	a1,1001(sp)
   1aca2:	3ea10523          	sb	a0,1002(sp)
   1aca6:	3eb10513          	addi	a0,sp,1003
   1acaa:	6585                	lui	a1,0x1
   1acac:	32458593          	addi	a1,a1,804 # 1324 <.Lline_table_start1+0x10f9>
   1acb0:	958a                	add	a1,a1,sp
   1acb2:	03500613          	li	a2,53
   1acb6:	00003097          	auipc	ra,0x3
   1acba:	ac0080e7          	jalr	-1344(ra) # 1d776 <memcpy>
   1acbe:	6505                	lui	a0,0x1
   1acc0:	38050513          	addi	a0,a0,896 # 1380 <.Lline_table_start1+0x1155>
   1acc4:	950a                	add	a0,a0,sp
   1acc6:	17cc                	addi	a1,sp,996
   1acc8:	ffffb097          	auipc	ra,0xffffb
   1accc:	394080e7          	jalr	916(ra) # 1605c <_ZN20complex_dynamic_type3app17ha8dc78e5d1033f44E>
   1acd0:	3eca4503          	lbu	a0,1004(s4)
   1acd4:	c119                	beqz	a0,1acda <_start+0x168c>
   1acd6:	2290206f          	j	1d6fe <_start+0x40b0>
   1acda:	3eea4503          	lbu	a0,1006(s4)
   1acde:	3eda4583          	lbu	a1,1005(s4)
   1ace2:	3efa4603          	lbu	a2,1007(s4)
   1ace6:	3f0a2403          	lw	s0,1008(s4)
   1acea:	0522                	slli	a0,a0,0x8
   1acec:	8d4d                	or	a0,a0,a1
   1acee:	42a11023          	sh	a0,1056(sp)
   1acf2:	42c10123          	sb	a2,1058(sp)
   1acf6:	6505                	lui	a0,0x1
   1acf8:	38850513          	addi	a0,a0,904 # 1388 <.Lline_table_start1+0x115d>
   1acfc:	00a105b3          	add	a1,sp,a0
   1ad00:	6505                	lui	a0,0x1
   1ad02:	32450513          	addi	a0,a0,804 # 1324 <.Lline_table_start1+0x10f9>
   1ad06:	950a                	add	a0,a0,sp
   1ad08:	02b00613          	li	a2,43
   1ad0c:	00003097          	auipc	ra,0x3
   1ad10:	a6a080e7          	jalr	-1430(ra) # 1d776 <memcpy>
   1ad14:	01845513          	srli	a0,s0,0x18
   1ad18:	01045593          	srli	a1,s0,0x10
   1ad1c:	00845613          	srli	a2,s0,0x8
   1ad20:	428101a3          	sb	s0,1059(sp)
   1ad24:	42c10223          	sb	a2,1060(sp)
   1ad28:	42b102a3          	sb	a1,1061(sp)
   1ad2c:	42a10323          	sb	a0,1062(sp)
   1ad30:	42710513          	addi	a0,sp,1063
   1ad34:	6585                	lui	a1,0x1
   1ad36:	32458593          	addi	a1,a1,804 # 1324 <.Lline_table_start1+0x10f9>
   1ad3a:	958a                	add	a1,a1,sp
   1ad3c:	02b00613          	li	a2,43
   1ad40:	00003097          	auipc	ra,0x3
   1ad44:	a36080e7          	jalr	-1482(ra) # 1d776 <memcpy>
   1ad48:	6505                	lui	a0,0x1
   1ad4a:	38050513          	addi	a0,a0,896 # 1380 <.Lline_table_start1+0x1155>
   1ad4e:	950a                	add	a0,a0,sp
   1ad50:	42010593          	addi	a1,sp,1056
   1ad54:	ffff8097          	auipc	ra,0xffff8
   1ad58:	188080e7          	jalr	392(ra) # 12edc <_ZN20complex_dynamic_type3app17h3d78bd97982c9a47E>
   1ad5c:	3eca4503          	lbu	a0,1004(s4)
   1ad60:	c119                	beqz	a0,1ad66 <_start+0x1718>
   1ad62:	19d0206f          	j	1d6fe <_start+0x40b0>
   1ad66:	3eea4503          	lbu	a0,1006(s4)
   1ad6a:	3eda4583          	lbu	a1,1005(s4)
   1ad6e:	3efa4603          	lbu	a2,1007(s4)
   1ad72:	3f0a2403          	lw	s0,1008(s4)
   1ad76:	0522                	slli	a0,a0,0x8
   1ad78:	8d4d                	or	a0,a0,a1
   1ad7a:	44a11923          	sh	a0,1106(sp)
   1ad7e:	44c10a23          	sb	a2,1108(sp)
   1ad82:	6505                	lui	a0,0x1
   1ad84:	38850513          	addi	a0,a0,904 # 1388 <.Lline_table_start1+0x115d>
   1ad88:	00a105b3          	add	a1,sp,a0
   1ad8c:	6505                	lui	a0,0x1
   1ad8e:	32450513          	addi	a0,a0,804 # 1324 <.Lline_table_start1+0x10f9>
   1ad92:	950a                	add	a0,a0,sp
   1ad94:	02b00613          	li	a2,43
   1ad98:	00003097          	auipc	ra,0x3
   1ad9c:	9de080e7          	jalr	-1570(ra) # 1d776 <memcpy>
   1ada0:	01845513          	srli	a0,s0,0x18
   1ada4:	01045593          	srli	a1,s0,0x10
   1ada8:	00845613          	srli	a2,s0,0x8
   1adac:	44810aa3          	sb	s0,1109(sp)
   1adb0:	44c10b23          	sb	a2,1110(sp)
   1adb4:	44b10ba3          	sb	a1,1111(sp)
   1adb8:	44a10c23          	sb	a0,1112(sp)
   1adbc:	45910513          	addi	a0,sp,1113
   1adc0:	6585                	lui	a1,0x1
   1adc2:	32458593          	addi	a1,a1,804 # 1324 <.Lline_table_start1+0x10f9>
   1adc6:	958a                	add	a1,a1,sp
   1adc8:	02b00613          	li	a2,43
   1adcc:	00003097          	auipc	ra,0x3
   1add0:	9aa080e7          	jalr	-1622(ra) # 1d776 <memcpy>
   1add4:	6505                	lui	a0,0x1
   1add6:	38050513          	addi	a0,a0,896 # 1380 <.Lline_table_start1+0x1155>
   1adda:	950a                	add	a0,a0,sp
   1addc:	45210593          	addi	a1,sp,1106
   1ade0:	ffff7097          	auipc	ra,0xffff7
   1ade4:	01e080e7          	jalr	30(ra) # 11dfe <_ZN20complex_dynamic_type3app17h1ad7dd89196e40efE>
   1ade8:	3eca4503          	lbu	a0,1004(s4)
   1adec:	c119                	beqz	a0,1adf2 <_start+0x17a4>
   1adee:	1110206f          	j	1d6fe <_start+0x40b0>
   1adf2:	3eda4503          	lbu	a0,1005(s4)
   1adf6:	3eea4583          	lbu	a1,1006(s4)
   1adfa:	3efa4603          	lbu	a2,1007(s4)
   1adfe:	3f0a2683          	lw	a3,1008(s4)
   1ae02:	3f4a2703          	lw	a4,1012(s4)
   1ae06:	3f8a2783          	lw	a5,1016(s4)
   1ae0a:	3fca4483          	lbu	s1,1020(s4)
   1ae0e:	05a2                	slli	a1,a1,0x8
   1ae10:	38ea2823          	sw	a4,912(s4)
   1ae14:	38fa2a23          	sw	a5,916(s4)
   1ae18:	389a0c23          	sb	s1,920(s4)
   1ae1c:	0186d713          	srli	a4,a3,0x18
   1ae20:	8d4d                	or	a0,a0,a1
   1ae22:	0106d593          	srli	a1,a3,0x10
   1ae26:	48b104a3          	sb	a1,1161(sp)
   1ae2a:	48e10523          	sb	a4,1162(sp)
   1ae2e:	0086d593          	srli	a1,a3,0x8
   1ae32:	48a11223          	sh	a0,1156(sp)
   1ae36:	48c10323          	sb	a2,1158(sp)
   1ae3a:	48d103a3          	sb	a3,1159(sp)
   1ae3e:	48b10423          	sb	a1,1160(sp)
   1ae42:	48b10513          	addi	a0,sp,1163
   1ae46:	6585                	lui	a1,0x1
   1ae48:	32458593          	addi	a1,a1,804 # 1324 <.Lline_table_start1+0x10f9>
   1ae4c:	958a                	add	a1,a1,sp
   1ae4e:	4625                	li	a2,9
   1ae50:	00003097          	auipc	ra,0x3
   1ae54:	926080e7          	jalr	-1754(ra) # 1d776 <memcpy>
   1ae58:	6505                	lui	a0,0x1
   1ae5a:	38050513          	addi	a0,a0,896 # 1380 <.Lline_table_start1+0x1155>
   1ae5e:	950a                	add	a0,a0,sp
   1ae60:	48410593          	addi	a1,sp,1156
   1ae64:	ffff8097          	auipc	ra,0xffff8
   1ae68:	1e8080e7          	jalr	488(ra) # 1304c <_ZN20complex_dynamic_type3app17h3e2af9fa9e28f01cE>
   1ae6c:	3eca4503          	lbu	a0,1004(s4)
   1ae70:	c119                	beqz	a0,1ae76 <_start+0x1828>
   1ae72:	08d0206f          	j	1d6fe <_start+0x40b0>
   1ae76:	3eea4503          	lbu	a0,1006(s4)
   1ae7a:	3eda4583          	lbu	a1,1005(s4)
   1ae7e:	3efa4603          	lbu	a2,1007(s4)
   1ae82:	3f0a2403          	lw	s0,1008(s4)
   1ae86:	0522                	slli	a0,a0,0x8
   1ae88:	8d4d                	or	a0,a0,a1
   1ae8a:	48a11a23          	sh	a0,1172(sp)
   1ae8e:	48c10b23          	sb	a2,1174(sp)
   1ae92:	6505                	lui	a0,0x1
   1ae94:	38850513          	addi	a0,a0,904 # 1388 <.Lline_table_start1+0x115d>
   1ae98:	00a105b3          	add	a1,sp,a0
   1ae9c:	6505                	lui	a0,0x1
   1ae9e:	32450513          	addi	a0,a0,804 # 1324 <.Lline_table_start1+0x10f9>
   1aea2:	950a                	add	a0,a0,sp
   1aea4:	02f00613          	li	a2,47
   1aea8:	00003097          	auipc	ra,0x3
   1aeac:	8ce080e7          	jalr	-1842(ra) # 1d776 <memcpy>
   1aeb0:	01845513          	srli	a0,s0,0x18
   1aeb4:	01045593          	srli	a1,s0,0x10
   1aeb8:	00845613          	srli	a2,s0,0x8
   1aebc:	48810ba3          	sb	s0,1175(sp)
   1aec0:	48c10c23          	sb	a2,1176(sp)
   1aec4:	48b10ca3          	sb	a1,1177(sp)
   1aec8:	48a10d23          	sb	a0,1178(sp)
   1aecc:	49b10513          	addi	a0,sp,1179
   1aed0:	6585                	lui	a1,0x1
   1aed2:	32458593          	addi	a1,a1,804 # 1324 <.Lline_table_start1+0x10f9>
   1aed6:	958a                	add	a1,a1,sp
   1aed8:	02f00613          	li	a2,47
   1aedc:	00003097          	auipc	ra,0x3
   1aee0:	89a080e7          	jalr	-1894(ra) # 1d776 <memcpy>
   1aee4:	6505                	lui	a0,0x1
   1aee6:	38050513          	addi	a0,a0,896 # 1380 <.Lline_table_start1+0x1155>
   1aeea:	950a                	add	a0,a0,sp
   1aeec:	49410593          	addi	a1,sp,1172
   1aef0:	ffffc097          	auipc	ra,0xffffc
   1aef4:	e32080e7          	jalr	-462(ra) # 16d22 <_ZN20complex_dynamic_type3app17hbc3c001d6342a7d5E>
   1aef8:	3eca4503          	lbu	a0,1004(s4)
   1aefc:	c119                	beqz	a0,1af02 <_start+0x18b4>
   1aefe:	0010206f          	j	1d6fe <_start+0x40b0>
   1af02:	3eda4503          	lbu	a0,1005(s4)
   1af06:	3eea4583          	lbu	a1,1006(s4)
   1af0a:	3efa4803          	lbu	a6,1007(s4)
   1af0e:	3f0a2683          	lw	a3,1008(s4)
   1af12:	3f4a2703          	lw	a4,1012(s4)
   1af16:	3f8a2783          	lw	a5,1016(s4)
   1af1a:	05a2                	slli	a1,a1,0x8
   1af1c:	0186d893          	srli	a7,a3,0x18
   1af20:	0106d293          	srli	t0,a3,0x10
   1af24:	0187d613          	srli	a2,a5,0x18
   1af28:	0107d493          	srli	s1,a5,0x10
   1af2c:	0087d413          	srli	s0,a5,0x8
   1af30:	8d4d                	or	a0,a0,a1
   1af32:	01875593          	srli	a1,a4,0x18
   1af36:	4c910ba3          	sb	s1,1239(sp)
   1af3a:	4cc10c23          	sb	a2,1240(sp)
   1af3e:	01075613          	srli	a2,a4,0x10
   1af42:	4cc109a3          	sb	a2,1235(sp)
   1af46:	4cb10a23          	sb	a1,1236(sp)
   1af4a:	4cf10aa3          	sb	a5,1237(sp)
   1af4e:	4c810b23          	sb	s0,1238(sp)
   1af52:	0086d593          	srli	a1,a3,0x8
   1af56:	4ca11523          	sh	a0,1226(sp)
   1af5a:	4d010623          	sb	a6,1228(sp)
   1af5e:	4cd106a3          	sb	a3,1229(sp)
   1af62:	4cb10723          	sb	a1,1230(sp)
   1af66:	00875513          	srli	a0,a4,0x8
   1af6a:	4c5107a3          	sb	t0,1231(sp)
   1af6e:	4d110823          	sb	a7,1232(sp)
   1af72:	4ce108a3          	sb	a4,1233(sp)
   1af76:	4ca10923          	sb	a0,1234(sp)
   1af7a:	6505                	lui	a0,0x1
   1af7c:	38050513          	addi	a0,a0,896 # 1380 <.Lline_table_start1+0x1155>
   1af80:	950a                	add	a0,a0,sp
   1af82:	4ca10593          	addi	a1,sp,1226
   1af86:	ffffb097          	auipc	ra,0xffffb
   1af8a:	246080e7          	jalr	582(ra) # 161cc <_ZN20complex_dynamic_type3app17ha9c73ca69003319dE>
   1af8e:	3eca4503          	lbu	a0,1004(s4)
   1af92:	c119                	beqz	a0,1af98 <_start+0x194a>
   1af94:	76a0206f          	j	1d6fe <_start+0x40b0>
   1af98:	3eda4503          	lbu	a0,1005(s4)
   1af9c:	3eea4583          	lbu	a1,1006(s4)
   1afa0:	3efa4603          	lbu	a2,1007(s4)
   1afa4:	3f0a2683          	lw	a3,1008(s4)
   1afa8:	3f4a2703          	lw	a4,1012(s4)
   1afac:	3f8a2783          	lw	a5,1016(s4)
   1afb0:	3fca2483          	lw	s1,1020(s4)
   1afb4:	05a2                	slli	a1,a1,0x8
   1afb6:	38ea2823          	sw	a4,912(s4)
   1afba:	38fa2a23          	sw	a5,916(s4)
   1afbe:	389a2c23          	sw	s1,920(s4)
   1afc2:	0186d713          	srli	a4,a3,0x18
   1afc6:	8d4d                	or	a0,a0,a1
   1afc8:	0106d593          	srli	a1,a3,0x10
   1afcc:	4cb10fa3          	sb	a1,1247(sp)
   1afd0:	4ee10023          	sb	a4,1248(sp)
   1afd4:	0086d593          	srli	a1,a3,0x8
   1afd8:	4ca11d23          	sh	a0,1242(sp)
   1afdc:	4cc10e23          	sb	a2,1244(sp)
   1afe0:	4cd10ea3          	sb	a3,1245(sp)
   1afe4:	4cb10f23          	sb	a1,1246(sp)
   1afe8:	4e110513          	addi	a0,sp,1249
   1afec:	6585                	lui	a1,0x1
   1afee:	32458593          	addi	a1,a1,804 # 1324 <.Lline_table_start1+0x10f9>
   1aff2:	958a                	add	a1,a1,sp
   1aff4:	4631                	li	a2,12
   1aff6:	00002097          	auipc	ra,0x2
   1affa:	780080e7          	jalr	1920(ra) # 1d776 <memcpy>
   1affe:	6505                	lui	a0,0x1
   1b000:	38050513          	addi	a0,a0,896 # 1380 <.Lline_table_start1+0x1155>
   1b004:	950a                	add	a0,a0,sp
   1b006:	4da10593          	addi	a1,sp,1242
   1b00a:	ffffb097          	auipc	ra,0xffffb
   1b00e:	496080e7          	jalr	1174(ra) # 164a0 <_ZN20complex_dynamic_type3app17haf0302e14b77e438E>
   1b012:	3eca4503          	lbu	a0,1004(s4)
   1b016:	c119                	beqz	a0,1b01c <_start+0x19ce>
   1b018:	6e60206f          	j	1d6fe <_start+0x40b0>
   1b01c:	3eea4503          	lbu	a0,1006(s4)
   1b020:	3eda4583          	lbu	a1,1005(s4)
   1b024:	3efa4603          	lbu	a2,1007(s4)
   1b028:	3f0a2403          	lw	s0,1008(s4)
   1b02c:	0522                	slli	a0,a0,0x8
   1b02e:	8d4d                	or	a0,a0,a1
   1b030:	4ea11723          	sh	a0,1262(sp)
   1b034:	4ec10823          	sb	a2,1264(sp)
   1b038:	6505                	lui	a0,0x1
   1b03a:	38850513          	addi	a0,a0,904 # 1388 <.Lline_table_start1+0x115d>
   1b03e:	00a105b3          	add	a1,sp,a0
   1b042:	6505                	lui	a0,0x1
   1b044:	32450513          	addi	a0,a0,804 # 1324 <.Lline_table_start1+0x10f9>
   1b048:	950a                	add	a0,a0,sp
   1b04a:	04e00613          	li	a2,78
   1b04e:	00002097          	auipc	ra,0x2
   1b052:	728080e7          	jalr	1832(ra) # 1d776 <memcpy>
   1b056:	01845513          	srli	a0,s0,0x18
   1b05a:	01045593          	srli	a1,s0,0x10
   1b05e:	00845613          	srli	a2,s0,0x8
   1b062:	4e8108a3          	sb	s0,1265(sp)
   1b066:	4ec10923          	sb	a2,1266(sp)
   1b06a:	4eb109a3          	sb	a1,1267(sp)
   1b06e:	4ea10a23          	sb	a0,1268(sp)
   1b072:	4f510513          	addi	a0,sp,1269
   1b076:	6585                	lui	a1,0x1
   1b078:	32458593          	addi	a1,a1,804 # 1324 <.Lline_table_start1+0x10f9>
   1b07c:	958a                	add	a1,a1,sp
   1b07e:	04e00613          	li	a2,78
   1b082:	00002097          	auipc	ra,0x2
   1b086:	6f4080e7          	jalr	1780(ra) # 1d776 <memcpy>
   1b08a:	6505                	lui	a0,0x1
   1b08c:	38050513          	addi	a0,a0,896 # 1380 <.Lline_table_start1+0x1155>
   1b090:	950a                	add	a0,a0,sp
   1b092:	4ee10593          	addi	a1,sp,1262
   1b096:	ffff9097          	auipc	ra,0xffff9
   1b09a:	384080e7          	jalr	900(ra) # 1441a <_ZN20complex_dynamic_type3app17h656285e52eaef598E>
   1b09e:	3eca4503          	lbu	a0,1004(s4)
   1b0a2:	c119                	beqz	a0,1b0a8 <_start+0x1a5a>
   1b0a4:	65a0206f          	j	1d6fe <_start+0x40b0>
   1b0a8:	3eea4503          	lbu	a0,1006(s4)
   1b0ac:	3eda4583          	lbu	a1,1005(s4)
   1b0b0:	3efa4603          	lbu	a2,1007(s4)
   1b0b4:	3f0a2403          	lw	s0,1008(s4)
   1b0b8:	0522                	slli	a0,a0,0x8
   1b0ba:	8d4d                	or	a0,a0,a1
   1b0bc:	54a11223          	sh	a0,1348(sp)
   1b0c0:	54c10323          	sb	a2,1350(sp)
   1b0c4:	6505                	lui	a0,0x1
   1b0c6:	38850513          	addi	a0,a0,904 # 1388 <.Lline_table_start1+0x115d>
   1b0ca:	00a105b3          	add	a1,sp,a0
   1b0ce:	6505                	lui	a0,0x1
   1b0d0:	32450513          	addi	a0,a0,804 # 1324 <.Lline_table_start1+0x10f9>
   1b0d4:	950a                	add	a0,a0,sp
   1b0d6:	02b00613          	li	a2,43
   1b0da:	00002097          	auipc	ra,0x2
   1b0de:	69c080e7          	jalr	1692(ra) # 1d776 <memcpy>
   1b0e2:	01845513          	srli	a0,s0,0x18
   1b0e6:	01045593          	srli	a1,s0,0x10
   1b0ea:	00845613          	srli	a2,s0,0x8
   1b0ee:	548103a3          	sb	s0,1351(sp)
   1b0f2:	54c10423          	sb	a2,1352(sp)
   1b0f6:	54b104a3          	sb	a1,1353(sp)
   1b0fa:	54a10523          	sb	a0,1354(sp)
   1b0fe:	54b10513          	addi	a0,sp,1355
   1b102:	6585                	lui	a1,0x1
   1b104:	32458593          	addi	a1,a1,804 # 1324 <.Lline_table_start1+0x10f9>
   1b108:	958a                	add	a1,a1,sp
   1b10a:	02b00613          	li	a2,43
   1b10e:	00002097          	auipc	ra,0x2
   1b112:	668080e7          	jalr	1640(ra) # 1d776 <memcpy>
   1b116:	6505                	lui	a0,0x1
   1b118:	38050513          	addi	a0,a0,896 # 1380 <.Lline_table_start1+0x1155>
   1b11c:	950a                	add	a0,a0,sp
   1b11e:	54410593          	addi	a1,sp,1348
   1b122:	ffffa097          	auipc	ra,0xffffa
   1b126:	e34080e7          	jalr	-460(ra) # 14f56 <_ZN20complex_dynamic_type3app17h885d4c9cdf1d3a5eE>
   1b12a:	3eca4503          	lbu	a0,1004(s4)
   1b12e:	c119                	beqz	a0,1b134 <_start+0x1ae6>
   1b130:	5ce0206f          	j	1d6fe <_start+0x40b0>
   1b134:	3eea4503          	lbu	a0,1006(s4)
   1b138:	3eda4583          	lbu	a1,1005(s4)
   1b13c:	3efa4603          	lbu	a2,1007(s4)
   1b140:	3f0a2403          	lw	s0,1008(s4)
   1b144:	0522                	slli	a0,a0,0x8
   1b146:	8d4d                	or	a0,a0,a1
   1b148:	56a11b23          	sh	a0,1398(sp)
   1b14c:	56c10c23          	sb	a2,1400(sp)
   1b150:	6505                	lui	a0,0x1
   1b152:	38850513          	addi	a0,a0,904 # 1388 <.Lline_table_start1+0x115d>
   1b156:	00a105b3          	add	a1,sp,a0
   1b15a:	6505                	lui	a0,0x1
   1b15c:	32450513          	addi	a0,a0,804 # 1324 <.Lline_table_start1+0x10f9>
   1b160:	950a                	add	a0,a0,sp
   1b162:	03a00613          	li	a2,58
   1b166:	00002097          	auipc	ra,0x2
   1b16a:	610080e7          	jalr	1552(ra) # 1d776 <memcpy>
   1b16e:	01845513          	srli	a0,s0,0x18
   1b172:	01045593          	srli	a1,s0,0x10
   1b176:	00845613          	srli	a2,s0,0x8
   1b17a:	56810ca3          	sb	s0,1401(sp)
   1b17e:	56c10d23          	sb	a2,1402(sp)
   1b182:	56b10da3          	sb	a1,1403(sp)
   1b186:	56a10e23          	sb	a0,1404(sp)
   1b18a:	57d10513          	addi	a0,sp,1405
   1b18e:	6585                	lui	a1,0x1
   1b190:	32458593          	addi	a1,a1,804 # 1324 <.Lline_table_start1+0x10f9>
   1b194:	958a                	add	a1,a1,sp
   1b196:	03a00613          	li	a2,58
   1b19a:	00002097          	auipc	ra,0x2
   1b19e:	5dc080e7          	jalr	1500(ra) # 1d776 <memcpy>
   1b1a2:	6505                	lui	a0,0x1
   1b1a4:	38050513          	addi	a0,a0,896 # 1380 <.Lline_table_start1+0x1155>
   1b1a8:	950a                	add	a0,a0,sp
   1b1aa:	57610593          	addi	a1,sp,1398
   1b1ae:	ffffb097          	auipc	ra,0xffffb
   1b1b2:	a70080e7          	jalr	-1424(ra) # 15c1e <_ZN20complex_dynamic_type3app17h9fe0a83faebe0245E>
   1b1b6:	3eca4503          	lbu	a0,1004(s4)
   1b1ba:	c119                	beqz	a0,1b1c0 <_start+0x1b72>
   1b1bc:	5420206f          	j	1d6fe <_start+0x40b0>
   1b1c0:	3eea4503          	lbu	a0,1006(s4)
   1b1c4:	3eda4583          	lbu	a1,1005(s4)
   1b1c8:	3efa4603          	lbu	a2,1007(s4)
   1b1cc:	3f0a2403          	lw	s0,1008(s4)
   1b1d0:	0522                	slli	a0,a0,0x8
   1b1d2:	8d4d                	or	a0,a0,a1
   1b1d4:	5aa11c23          	sh	a0,1464(sp)
   1b1d8:	5ac10d23          	sb	a2,1466(sp)
   1b1dc:	6505                	lui	a0,0x1
   1b1de:	38850513          	addi	a0,a0,904 # 1388 <.Lline_table_start1+0x115d>
   1b1e2:	00a105b3          	add	a1,sp,a0
   1b1e6:	6505                	lui	a0,0x1
   1b1e8:	32450513          	addi	a0,a0,804 # 1324 <.Lline_table_start1+0x10f9>
   1b1ec:	950a                	add	a0,a0,sp
   1b1ee:	466d                	li	a2,27
   1b1f0:	00002097          	auipc	ra,0x2
   1b1f4:	586080e7          	jalr	1414(ra) # 1d776 <memcpy>
   1b1f8:	01845513          	srli	a0,s0,0x18
   1b1fc:	01045593          	srli	a1,s0,0x10
   1b200:	00845613          	srli	a2,s0,0x8
   1b204:	5a810da3          	sb	s0,1467(sp)
   1b208:	5ac10e23          	sb	a2,1468(sp)
   1b20c:	5ab10ea3          	sb	a1,1469(sp)
   1b210:	5aa10f23          	sb	a0,1470(sp)
   1b214:	5bf10513          	addi	a0,sp,1471
   1b218:	6585                	lui	a1,0x1
   1b21a:	32458593          	addi	a1,a1,804 # 1324 <.Lline_table_start1+0x10f9>
   1b21e:	958a                	add	a1,a1,sp
   1b220:	466d                	li	a2,27
   1b222:	00002097          	auipc	ra,0x2
   1b226:	554080e7          	jalr	1364(ra) # 1d776 <memcpy>
   1b22a:	6505                	lui	a0,0x1
   1b22c:	38050513          	addi	a0,a0,896 # 1380 <.Lline_table_start1+0x1155>
   1b230:	950a                	add	a0,a0,sp
   1b232:	5b810593          	addi	a1,sp,1464
   1b236:	ffffa097          	auipc	ra,0xffffa
   1b23a:	5a6080e7          	jalr	1446(ra) # 157dc <_ZN20complex_dynamic_type3app17h96c9eb30e0e0da62E>
   1b23e:	3eca4503          	lbu	a0,1004(s4)
   1b242:	c119                	beqz	a0,1b248 <_start+0x1bfa>
   1b244:	4ba0206f          	j	1d6fe <_start+0x40b0>
   1b248:	3eea4503          	lbu	a0,1006(s4)
   1b24c:	3eda4583          	lbu	a1,1005(s4)
   1b250:	3efa4603          	lbu	a2,1007(s4)
   1b254:	3f0a2403          	lw	s0,1008(s4)
   1b258:	0522                	slli	a0,a0,0x8
   1b25a:	8d4d                	or	a0,a0,a1
   1b25c:	5ca11d23          	sh	a0,1498(sp)
   1b260:	5cc10e23          	sb	a2,1500(sp)
   1b264:	6505                	lui	a0,0x1
   1b266:	38850513          	addi	a0,a0,904 # 1388 <.Lline_table_start1+0x115d>
   1b26a:	00a105b3          	add	a1,sp,a0
   1b26e:	6505                	lui	a0,0x1
   1b270:	32450513          	addi	a0,a0,804 # 1324 <.Lline_table_start1+0x10f9>
   1b274:	950a                	add	a0,a0,sp
   1b276:	04a00613          	li	a2,74
   1b27a:	00002097          	auipc	ra,0x2
   1b27e:	4fc080e7          	jalr	1276(ra) # 1d776 <memcpy>
   1b282:	01845513          	srli	a0,s0,0x18
   1b286:	01045593          	srli	a1,s0,0x10
   1b28a:	00845613          	srli	a2,s0,0x8
   1b28e:	5c810ea3          	sb	s0,1501(sp)
   1b292:	5cc10f23          	sb	a2,1502(sp)
   1b296:	5cb10fa3          	sb	a1,1503(sp)
   1b29a:	5ea10023          	sb	a0,1504(sp)
   1b29e:	5e110513          	addi	a0,sp,1505
   1b2a2:	6585                	lui	a1,0x1
   1b2a4:	32458593          	addi	a1,a1,804 # 1324 <.Lline_table_start1+0x10f9>
   1b2a8:	958a                	add	a1,a1,sp
   1b2aa:	04a00613          	li	a2,74
   1b2ae:	00002097          	auipc	ra,0x2
   1b2b2:	4c8080e7          	jalr	1224(ra) # 1d776 <memcpy>
   1b2b6:	6505                	lui	a0,0x1
   1b2b8:	38050513          	addi	a0,a0,896 # 1380 <.Lline_table_start1+0x1155>
   1b2bc:	950a                	add	a0,a0,sp
   1b2be:	5da10593          	addi	a1,sp,1498
   1b2c2:	ffffa097          	auipc	ra,0xffffa
   1b2c6:	67c080e7          	jalr	1660(ra) # 1593e <_ZN20complex_dynamic_type3app17h97b0869ddd161d19E>
   1b2ca:	3eca4503          	lbu	a0,1004(s4)
   1b2ce:	c119                	beqz	a0,1b2d4 <_start+0x1c86>
   1b2d0:	42e0206f          	j	1d6fe <_start+0x40b0>
   1b2d4:	3eea4503          	lbu	a0,1006(s4)
   1b2d8:	3eda4583          	lbu	a1,1005(s4)
   1b2dc:	3efa4603          	lbu	a2,1007(s4)
   1b2e0:	3f0a2403          	lw	s0,1008(s4)
   1b2e4:	0522                	slli	a0,a0,0x8
   1b2e6:	8d4d                	or	a0,a0,a1
   1b2e8:	62a11623          	sh	a0,1580(sp)
   1b2ec:	62c10723          	sb	a2,1582(sp)
   1b2f0:	6505                	lui	a0,0x1
   1b2f2:	38850513          	addi	a0,a0,904 # 1388 <.Lline_table_start1+0x115d>
   1b2f6:	00a105b3          	add	a1,sp,a0
   1b2fa:	6505                	lui	a0,0x1
   1b2fc:	32450513          	addi	a0,a0,804 # 1324 <.Lline_table_start1+0x10f9>
   1b300:	950a                	add	a0,a0,sp
   1b302:	04800613          	li	a2,72
   1b306:	00002097          	auipc	ra,0x2
   1b30a:	470080e7          	jalr	1136(ra) # 1d776 <memcpy>
   1b30e:	01845513          	srli	a0,s0,0x18
   1b312:	01045593          	srli	a1,s0,0x10
   1b316:	00845613          	srli	a2,s0,0x8
   1b31a:	628107a3          	sb	s0,1583(sp)
   1b31e:	62c10823          	sb	a2,1584(sp)
   1b322:	62b108a3          	sb	a1,1585(sp)
   1b326:	62a10923          	sb	a0,1586(sp)
   1b32a:	63310513          	addi	a0,sp,1587
   1b32e:	6585                	lui	a1,0x1
   1b330:	32458593          	addi	a1,a1,804 # 1324 <.Lline_table_start1+0x10f9>
   1b334:	958a                	add	a1,a1,sp
   1b336:	04800613          	li	a2,72
   1b33a:	00002097          	auipc	ra,0x2
   1b33e:	43c080e7          	jalr	1084(ra) # 1d776 <memcpy>
   1b342:	6505                	lui	a0,0x1
   1b344:	38050513          	addi	a0,a0,896 # 1380 <.Lline_table_start1+0x1155>
   1b348:	950a                	add	a0,a0,sp
   1b34a:	62c10593          	addi	a1,sp,1580
   1b34e:	ffffc097          	auipc	ra,0xffffc
   1b352:	68e080e7          	jalr	1678(ra) # 179dc <_ZN20complex_dynamic_type3app17hdb2e64ec1c0853ccE>
   1b356:	3eca4503          	lbu	a0,1004(s4)
   1b35a:	c119                	beqz	a0,1b360 <_start+0x1d12>
   1b35c:	3a20206f          	j	1d6fe <_start+0x40b0>
   1b360:	3eea4503          	lbu	a0,1006(s4)
   1b364:	3eda4583          	lbu	a1,1005(s4)
   1b368:	3efa4603          	lbu	a2,1007(s4)
   1b36c:	3f0a2403          	lw	s0,1008(s4)
   1b370:	0522                	slli	a0,a0,0x8
   1b372:	8d4d                	or	a0,a0,a1
   1b374:	66a11e23          	sh	a0,1660(sp)
   1b378:	66c10f23          	sb	a2,1662(sp)
   1b37c:	6505                	lui	a0,0x1
   1b37e:	38850513          	addi	a0,a0,904 # 1388 <.Lline_table_start1+0x115d>
   1b382:	00a105b3          	add	a1,sp,a0
   1b386:	6505                	lui	a0,0x1
   1b388:	32450513          	addi	a0,a0,804 # 1324 <.Lline_table_start1+0x10f9>
   1b38c:	950a                	add	a0,a0,sp
   1b38e:	03400613          	li	a2,52
   1b392:	00002097          	auipc	ra,0x2
   1b396:	3e4080e7          	jalr	996(ra) # 1d776 <memcpy>
   1b39a:	01845513          	srli	a0,s0,0x18
   1b39e:	01045593          	srli	a1,s0,0x10
   1b3a2:	00845613          	srli	a2,s0,0x8
   1b3a6:	66810fa3          	sb	s0,1663(sp)
   1b3aa:	68c10023          	sb	a2,1664(sp)
   1b3ae:	68b100a3          	sb	a1,1665(sp)
   1b3b2:	68a10123          	sb	a0,1666(sp)
   1b3b6:	68310513          	addi	a0,sp,1667
   1b3ba:	6585                	lui	a1,0x1
   1b3bc:	32458593          	addi	a1,a1,804 # 1324 <.Lline_table_start1+0x10f9>
   1b3c0:	958a                	add	a1,a1,sp
   1b3c2:	03400613          	li	a2,52
   1b3c6:	00002097          	auipc	ra,0x2
   1b3ca:	3b0080e7          	jalr	944(ra) # 1d776 <memcpy>
   1b3ce:	6505                	lui	a0,0x1
   1b3d0:	38050513          	addi	a0,a0,896 # 1380 <.Lline_table_start1+0x1155>
   1b3d4:	950a                	add	a0,a0,sp
   1b3d6:	67c10593          	addi	a1,sp,1660
   1b3da:	ffffa097          	auipc	ra,0xffffa
   1b3de:	126080e7          	jalr	294(ra) # 15500 <_ZN20complex_dynamic_type3app17h91fb1343466ee327E>
   1b3e2:	3eca4503          	lbu	a0,1004(s4)
   1b3e6:	c119                	beqz	a0,1b3ec <_start+0x1d9e>
   1b3e8:	3160206f          	j	1d6fe <_start+0x40b0>
   1b3ec:	3eea4503          	lbu	a0,1006(s4)
   1b3f0:	3eda4583          	lbu	a1,1005(s4)
   1b3f4:	3efa4603          	lbu	a2,1007(s4)
   1b3f8:	3f0a2403          	lw	s0,1008(s4)
   1b3fc:	0522                	slli	a0,a0,0x8
   1b3fe:	8d4d                	or	a0,a0,a1
   1b400:	6aa11c23          	sh	a0,1720(sp)
   1b404:	6ac10d23          	sb	a2,1722(sp)
   1b408:	6505                	lui	a0,0x1
   1b40a:	38850513          	addi	a0,a0,904 # 1388 <.Lline_table_start1+0x115d>
   1b40e:	00a105b3          	add	a1,sp,a0
   1b412:	6505                	lui	a0,0x1
   1b414:	32450513          	addi	a0,a0,804 # 1324 <.Lline_table_start1+0x10f9>
   1b418:	950a                	add	a0,a0,sp
   1b41a:	02000613          	li	a2,32
   1b41e:	00002097          	auipc	ra,0x2
   1b422:	358080e7          	jalr	856(ra) # 1d776 <memcpy>
   1b426:	01845513          	srli	a0,s0,0x18
   1b42a:	01045593          	srli	a1,s0,0x10
   1b42e:	00845613          	srli	a2,s0,0x8
   1b432:	6a810da3          	sb	s0,1723(sp)
   1b436:	6ac10e23          	sb	a2,1724(sp)
   1b43a:	6ab10ea3          	sb	a1,1725(sp)
   1b43e:	6aa10f23          	sb	a0,1726(sp)
   1b442:	6bf10513          	addi	a0,sp,1727
   1b446:	6585                	lui	a1,0x1
   1b448:	32458593          	addi	a1,a1,804 # 1324 <.Lline_table_start1+0x10f9>
   1b44c:	958a                	add	a1,a1,sp
   1b44e:	02000613          	li	a2,32
   1b452:	00002097          	auipc	ra,0x2
   1b456:	324080e7          	jalr	804(ra) # 1d776 <memcpy>
   1b45a:	6505                	lui	a0,0x1
   1b45c:	38050513          	addi	a0,a0,896 # 1380 <.Lline_table_start1+0x1155>
   1b460:	950a                	add	a0,a0,sp
   1b462:	6b810593          	addi	a1,sp,1720
   1b466:	ffff8097          	auipc	ra,0xffff8
   1b46a:	2f6080e7          	jalr	758(ra) # 1375c <_ZN20complex_dynamic_type3app17h4e546576173efaaaE>
   1b46e:	3eca4503          	lbu	a0,1004(s4)
   1b472:	c119                	beqz	a0,1b478 <_start+0x1e2a>
   1b474:	28a0206f          	j	1d6fe <_start+0x40b0>
   1b478:	3eda4503          	lbu	a0,1005(s4)
   1b47c:	3eea4583          	lbu	a1,1006(s4)
   1b480:	3efa4603          	lbu	a2,1007(s4)
   1b484:	3f0a2683          	lw	a3,1008(s4)
   1b488:	3f4a2703          	lw	a4,1012(s4)
   1b48c:	3f8a2783          	lw	a5,1016(s4)
   1b490:	3fca2483          	lw	s1,1020(s4)
   1b494:	400a4403          	lbu	s0,1024(s4)
   1b498:	05a2                	slli	a1,a1,0x8
   1b49a:	38ea2823          	sw	a4,912(s4)
   1b49e:	38fa2a23          	sw	a5,916(s4)
   1b4a2:	389a2c23          	sw	s1,920(s4)
   1b4a6:	388a0e23          	sb	s0,924(s4)
   1b4aa:	0186d713          	srli	a4,a3,0x18
   1b4ae:	8d4d                	or	a0,a0,a1
   1b4b0:	0106d593          	srli	a1,a3,0x10
   1b4b4:	6eb102a3          	sb	a1,1765(sp)
   1b4b8:	6ee10323          	sb	a4,1766(sp)
   1b4bc:	0086d593          	srli	a1,a3,0x8
   1b4c0:	6ea11023          	sh	a0,1760(sp)
   1b4c4:	6ec10123          	sb	a2,1762(sp)
   1b4c8:	6ed101a3          	sb	a3,1763(sp)
   1b4cc:	6eb10223          	sb	a1,1764(sp)
   1b4d0:	6e710513          	addi	a0,sp,1767
   1b4d4:	6585                	lui	a1,0x1
   1b4d6:	32458593          	addi	a1,a1,804 # 1324 <.Lline_table_start1+0x10f9>
   1b4da:	958a                	add	a1,a1,sp
   1b4dc:	4635                	li	a2,13
   1b4de:	00002097          	auipc	ra,0x2
   1b4e2:	298080e7          	jalr	664(ra) # 1d776 <memcpy>
   1b4e6:	6505                	lui	a0,0x1
   1b4e8:	38050513          	addi	a0,a0,896 # 1380 <.Lline_table_start1+0x1155>
   1b4ec:	950a                	add	a0,a0,sp
   1b4ee:	6e010593          	addi	a1,sp,1760
   1b4f2:	ffff9097          	auipc	ra,0xffff9
   1b4f6:	97e080e7          	jalr	-1666(ra) # 13e70 <_ZN20complex_dynamic_type3app17h58ba2ea6d6ef7569E>
   1b4fa:	3eca4503          	lbu	a0,1004(s4)
   1b4fe:	c119                	beqz	a0,1b504 <_start+0x1eb6>
   1b500:	1fe0206f          	j	1d6fe <_start+0x40b0>
   1b504:	3eea4503          	lbu	a0,1006(s4)
   1b508:	3eda4583          	lbu	a1,1005(s4)
   1b50c:	3efa4603          	lbu	a2,1007(s4)
   1b510:	3f0a2403          	lw	s0,1008(s4)
   1b514:	0522                	slli	a0,a0,0x8
   1b516:	8d4d                	or	a0,a0,a1
   1b518:	6ea11a23          	sh	a0,1780(sp)
   1b51c:	6ec10b23          	sb	a2,1782(sp)
   1b520:	6505                	lui	a0,0x1
   1b522:	38850513          	addi	a0,a0,904 # 1388 <.Lline_table_start1+0x115d>
   1b526:	00a105b3          	add	a1,sp,a0
   1b52a:	6505                	lui	a0,0x1
   1b52c:	32450513          	addi	a0,a0,804 # 1324 <.Lline_table_start1+0x10f9>
   1b530:	950a                	add	a0,a0,sp
   1b532:	02400613          	li	a2,36
   1b536:	00002097          	auipc	ra,0x2
   1b53a:	240080e7          	jalr	576(ra) # 1d776 <memcpy>
   1b53e:	01845513          	srli	a0,s0,0x18
   1b542:	01045593          	srli	a1,s0,0x10
   1b546:	00845613          	srli	a2,s0,0x8
   1b54a:	6e810ba3          	sb	s0,1783(sp)
   1b54e:	6ec10c23          	sb	a2,1784(sp)
   1b552:	6eb10ca3          	sb	a1,1785(sp)
   1b556:	6ea10d23          	sb	a0,1786(sp)
   1b55a:	6fb10513          	addi	a0,sp,1787
   1b55e:	6585                	lui	a1,0x1
   1b560:	32458593          	addi	a1,a1,804 # 1324 <.Lline_table_start1+0x10f9>
   1b564:	958a                	add	a1,a1,sp
   1b566:	02400613          	li	a2,36
   1b56a:	00002097          	auipc	ra,0x2
   1b56e:	20c080e7          	jalr	524(ra) # 1d776 <memcpy>
   1b572:	6505                	lui	a0,0x1
   1b574:	38050513          	addi	a0,a0,896 # 1380 <.Lline_table_start1+0x1155>
   1b578:	950a                	add	a0,a0,sp
   1b57a:	6f410593          	addi	a1,sp,1780
   1b57e:	ffff9097          	auipc	ra,0xffff9
   1b582:	436080e7          	jalr	1078(ra) # 149b4 <_ZN20complex_dynamic_type3app17h6a42e6bd5daf3350E>
   1b586:	3eca4503          	lbu	a0,1004(s4)
   1b58a:	c119                	beqz	a0,1b590 <_start+0x1f42>
   1b58c:	1720206f          	j	1d6fe <_start+0x40b0>
   1b590:	3eea4503          	lbu	a0,1006(s4)
   1b594:	3eda4583          	lbu	a1,1005(s4)
   1b598:	3efa4603          	lbu	a2,1007(s4)
   1b59c:	3f0a2403          	lw	s0,1008(s4)
   1b5a0:	0522                	slli	a0,a0,0x8
   1b5a2:	8d4d                	or	a0,a0,a1
   1b5a4:	72a11023          	sh	a0,1824(sp)
   1b5a8:	72c10123          	sb	a2,1826(sp)
   1b5ac:	6505                	lui	a0,0x1
   1b5ae:	38850513          	addi	a0,a0,904 # 1388 <.Lline_table_start1+0x115d>
   1b5b2:	00a105b3          	add	a1,sp,a0
   1b5b6:	6505                	lui	a0,0x1
   1b5b8:	32450513          	addi	a0,a0,804 # 1324 <.Lline_table_start1+0x10f9>
   1b5bc:	950a                	add	a0,a0,sp
   1b5be:	465d                	li	a2,23
   1b5c0:	00002097          	auipc	ra,0x2
   1b5c4:	1b6080e7          	jalr	438(ra) # 1d776 <memcpy>
   1b5c8:	01845513          	srli	a0,s0,0x18
   1b5cc:	01045593          	srli	a1,s0,0x10
   1b5d0:	00845613          	srli	a2,s0,0x8
   1b5d4:	728101a3          	sb	s0,1827(sp)
   1b5d8:	72c10223          	sb	a2,1828(sp)
   1b5dc:	72b102a3          	sb	a1,1829(sp)
   1b5e0:	72a10323          	sb	a0,1830(sp)
   1b5e4:	72710513          	addi	a0,sp,1831
   1b5e8:	6585                	lui	a1,0x1
   1b5ea:	32458593          	addi	a1,a1,804 # 1324 <.Lline_table_start1+0x10f9>
   1b5ee:	958a                	add	a1,a1,sp
   1b5f0:	465d                	li	a2,23
   1b5f2:	00002097          	auipc	ra,0x2
   1b5f6:	184080e7          	jalr	388(ra) # 1d776 <memcpy>
   1b5fa:	6505                	lui	a0,0x1
   1b5fc:	38050513          	addi	a0,a0,896 # 1380 <.Lline_table_start1+0x1155>
   1b600:	950a                	add	a0,a0,sp
   1b602:	72010593          	addi	a1,sp,1824
   1b606:	ffffc097          	auipc	ra,0xffffc
   1b60a:	26c080e7          	jalr	620(ra) # 17872 <_ZN20complex_dynamic_type3app17hd6cbe878f5a6a365E>
   1b60e:	3eca4503          	lbu	a0,1004(s4)
   1b612:	c119                	beqz	a0,1b618 <_start+0x1fca>
   1b614:	0ea0206f          	j	1d6fe <_start+0x40b0>
   1b618:	3eea4503          	lbu	a0,1006(s4)
   1b61c:	3eda4583          	lbu	a1,1005(s4)
   1b620:	3efa4603          	lbu	a2,1007(s4)
   1b624:	3f0a2403          	lw	s0,1008(s4)
   1b628:	0522                	slli	a0,a0,0x8
   1b62a:	8d4d                	or	a0,a0,a1
   1b62c:	72a11f23          	sh	a0,1854(sp)
   1b630:	74c10023          	sb	a2,1856(sp)
   1b634:	6505                	lui	a0,0x1
   1b636:	38850513          	addi	a0,a0,904 # 1388 <.Lline_table_start1+0x115d>
   1b63a:	00a105b3          	add	a1,sp,a0
   1b63e:	6505                	lui	a0,0x1
   1b640:	32450513          	addi	a0,a0,804 # 1324 <.Lline_table_start1+0x10f9>
   1b644:	950a                	add	a0,a0,sp
   1b646:	04a00613          	li	a2,74
   1b64a:	00002097          	auipc	ra,0x2
   1b64e:	12c080e7          	jalr	300(ra) # 1d776 <memcpy>
   1b652:	01845513          	srli	a0,s0,0x18
   1b656:	01045593          	srli	a1,s0,0x10
   1b65a:	00845613          	srli	a2,s0,0x8
   1b65e:	748100a3          	sb	s0,1857(sp)
   1b662:	74c10123          	sb	a2,1858(sp)
   1b666:	74b101a3          	sb	a1,1859(sp)
   1b66a:	74a10223          	sb	a0,1860(sp)
   1b66e:	74510513          	addi	a0,sp,1861
   1b672:	6585                	lui	a1,0x1
   1b674:	32458593          	addi	a1,a1,804 # 1324 <.Lline_table_start1+0x10f9>
   1b678:	958a                	add	a1,a1,sp
   1b67a:	04a00613          	li	a2,74
   1b67e:	00002097          	auipc	ra,0x2
   1b682:	0f8080e7          	jalr	248(ra) # 1d776 <memcpy>
   1b686:	6505                	lui	a0,0x1
   1b688:	38050513          	addi	a0,a0,896 # 1380 <.Lline_table_start1+0x1155>
   1b68c:	950a                	add	a0,a0,sp
   1b68e:	73e10593          	addi	a1,sp,1854
   1b692:	ffffd097          	auipc	ra,0xffffd
   1b696:	a6c080e7          	jalr	-1428(ra) # 180fe <_ZN20complex_dynamic_type3app17hdec7b4ced588e669E>
   1b69a:	3eca4503          	lbu	a0,1004(s4)
   1b69e:	c119                	beqz	a0,1b6a4 <_start+0x2056>
   1b6a0:	05e0206f          	j	1d6fe <_start+0x40b0>
   1b6a4:	79210413          	addi	s0,sp,1938
   1b6a8:	3eda4303          	lbu	t1,1005(s4)
   1b6ac:	3eea4583          	lbu	a1,1006(s4)
   1b6b0:	3efa4803          	lbu	a6,1007(s4)
   1b6b4:	3f0a2683          	lw	a3,1008(s4)
   1b6b8:	3f4a2703          	lw	a4,1012(s4)
   1b6bc:	3f8a2783          	lw	a5,1016(s4)
   1b6c0:	05a2                	slli	a1,a1,0x8
   1b6c2:	0186d893          	srli	a7,a3,0x18
   1b6c6:	0106d293          	srli	t0,a3,0x10
   1b6ca:	0187d493          	srli	s1,a5,0x18
   1b6ce:	0107d613          	srli	a2,a5,0x10
   1b6d2:	0087d513          	srli	a0,a5,0x8
   1b6d6:	0065e333          	or	t1,a1,t1
   1b6da:	01875593          	srli	a1,a4,0x18
   1b6de:	00c405a3          	sb	a2,11(s0)
   1b6e2:	00940623          	sb	s1,12(s0)
   1b6e6:	01075613          	srli	a2,a4,0x10
   1b6ea:	00c403a3          	sb	a2,7(s0)
   1b6ee:	00b40423          	sb	a1,8(s0)
   1b6f2:	00f404a3          	sb	a5,9(s0)
   1b6f6:	00a40523          	sb	a0,10(s0)
   1b6fa:	0086d513          	srli	a0,a3,0x8
   1b6fe:	fe641f23          	sh	t1,-2(s0)
   1b702:	01040023          	sb	a6,0(s0)
   1b706:	00d400a3          	sb	a3,1(s0)
   1b70a:	00a40123          	sb	a0,2(s0)
   1b70e:	00875513          	srli	a0,a4,0x8
   1b712:	005401a3          	sb	t0,3(s0)
   1b716:	01140223          	sb	a7,4(s0)
   1b71a:	00e402a3          	sb	a4,5(s0)
   1b71e:	00a40323          	sb	a0,6(s0)
   1b722:	6505                	lui	a0,0x1
   1b724:	38050513          	addi	a0,a0,896 # 1380 <.Lline_table_start1+0x1155>
   1b728:	950a                	add	a0,a0,sp
   1b72a:	79010593          	addi	a1,sp,1936
   1b72e:	ffff8097          	auipc	ra,0xffff8
   1b732:	bee080e7          	jalr	-1042(ra) # 1331c <_ZN20complex_dynamic_type3app17h44e45ae3c8ebd4cfE>
   1b736:	3eca4503          	lbu	a0,1004(s4)
   1b73a:	c119                	beqz	a0,1b740 <_start+0x20f2>
   1b73c:	7c30106f          	j	1d6fe <_start+0x40b0>
   1b740:	3eea4503          	lbu	a0,1006(s4)
   1b744:	3eda4583          	lbu	a1,1005(s4)
   1b748:	3efa4603          	lbu	a2,1007(s4)
   1b74c:	3f0a2483          	lw	s1,1008(s4)
   1b750:	0522                	slli	a0,a0,0x8
   1b752:	8d4d                	or	a0,a0,a1
   1b754:	00a41723          	sh	a0,14(s0)
   1b758:	00c40823          	sb	a2,16(s0)
   1b75c:	6505                	lui	a0,0x1
   1b75e:	38850513          	addi	a0,a0,904 # 1388 <.Lline_table_start1+0x115d>
   1b762:	00a105b3          	add	a1,sp,a0
   1b766:	6505                	lui	a0,0x1
   1b768:	32450513          	addi	a0,a0,804 # 1324 <.Lline_table_start1+0x10f9>
   1b76c:	950a                	add	a0,a0,sp
   1b76e:	03f00613          	li	a2,63
   1b772:	00002097          	auipc	ra,0x2
   1b776:	004080e7          	jalr	4(ra) # 1d776 <memcpy>
   1b77a:	0184d513          	srli	a0,s1,0x18
   1b77e:	0104d593          	srli	a1,s1,0x10
   1b782:	0084d613          	srli	a2,s1,0x8
   1b786:	009408a3          	sb	s1,17(s0)
   1b78a:	00c40923          	sb	a2,18(s0)
   1b78e:	00b409a3          	sb	a1,19(s0)
   1b792:	00a40a23          	sb	a0,20(s0)
   1b796:	7a710513          	addi	a0,sp,1959
   1b79a:	6585                	lui	a1,0x1
   1b79c:	32458593          	addi	a1,a1,804 # 1324 <.Lline_table_start1+0x10f9>
   1b7a0:	958a                	add	a1,a1,sp
   1b7a2:	03f00613          	li	a2,63
   1b7a6:	00002097          	auipc	ra,0x2
   1b7aa:	fd0080e7          	jalr	-48(ra) # 1d776 <memcpy>
   1b7ae:	6505                	lui	a0,0x1
   1b7b0:	38050513          	addi	a0,a0,896 # 1380 <.Lline_table_start1+0x1155>
   1b7b4:	950a                	add	a0,a0,sp
   1b7b6:	7a010593          	addi	a1,sp,1952
   1b7ba:	ffff6097          	auipc	ra,0xffff6
   1b7be:	368080e7          	jalr	872(ra) # 11b22 <_ZN20complex_dynamic_type3app17h17bcd4b216cc5f81E>
   1b7c2:	3eca4503          	lbu	a0,1004(s4)
   1b7c6:	c119                	beqz	a0,1b7cc <_start+0x217e>
   1b7c8:	7370106f          	j	1d6fe <_start+0x40b0>
   1b7cc:	3eea4503          	lbu	a0,1006(s4)
   1b7d0:	3eda4583          	lbu	a1,1005(s4)
   1b7d4:	3efa4603          	lbu	a2,1007(s4)
   1b7d8:	3f0a2483          	lw	s1,1008(s4)
   1b7dc:	0522                	slli	a0,a0,0x8
   1b7de:	8d4d                	or	a0,a0,a1
   1b7e0:	04a41a23          	sh	a0,84(s0)
   1b7e4:	04c40b23          	sb	a2,86(s0)
   1b7e8:	6505                	lui	a0,0x1
   1b7ea:	38850513          	addi	a0,a0,904 # 1388 <.Lline_table_start1+0x115d>
   1b7ee:	00a105b3          	add	a1,sp,a0
   1b7f2:	6505                	lui	a0,0x1
   1b7f4:	32450513          	addi	a0,a0,804 # 1324 <.Lline_table_start1+0x10f9>
   1b7f8:	950a                	add	a0,a0,sp
   1b7fa:	04f00613          	li	a2,79
   1b7fe:	00002097          	auipc	ra,0x2
   1b802:	f78080e7          	jalr	-136(ra) # 1d776 <memcpy>
   1b806:	0184d513          	srli	a0,s1,0x18
   1b80a:	0104d593          	srli	a1,s1,0x10
   1b80e:	0084d613          	srli	a2,s1,0x8
   1b812:	04940ba3          	sb	s1,87(s0)
   1b816:	04c40c23          	sb	a2,88(s0)
   1b81a:	04b40ca3          	sb	a1,89(s0)
   1b81e:	04a40d23          	sb	a0,90(s0)
   1b822:	7ed10513          	addi	a0,sp,2029
   1b826:	6585                	lui	a1,0x1
   1b828:	32458593          	addi	a1,a1,804 # 1324 <.Lline_table_start1+0x10f9>
   1b82c:	958a                	add	a1,a1,sp
   1b82e:	04f00613          	li	a2,79
   1b832:	00002097          	auipc	ra,0x2
   1b836:	f44080e7          	jalr	-188(ra) # 1d776 <memcpy>
   1b83a:	6505                	lui	a0,0x1
   1b83c:	38050513          	addi	a0,a0,896 # 1380 <.Lline_table_start1+0x1155>
   1b840:	950a                	add	a0,a0,sp
   1b842:	7e610593          	addi	a1,sp,2022
   1b846:	ffff6097          	auipc	ra,0xffff6
   1b84a:	bb6080e7          	jalr	-1098(ra) # 113fc <_ZN20complex_dynamic_type3app17h0d9b477cc0941f33E>
   1b84e:	3eca4503          	lbu	a0,1004(s4)
   1b852:	c119                	beqz	a0,1b858 <_start+0x220a>
   1b854:	6ab0106f          	j	1d6fe <_start+0x40b0>
   1b858:	3eea4503          	lbu	a0,1006(s4)
   1b85c:	3eda4583          	lbu	a1,1005(s4)
   1b860:	3efa4603          	lbu	a2,1007(s4)
   1b864:	3f0a2483          	lw	s1,1008(s4)
   1b868:	0522                	slli	a0,a0,0x8
   1b86a:	8d4d                	or	a0,a0,a1
   1b86c:	0aa41523          	sh	a0,170(s0)
   1b870:	0ac40623          	sb	a2,172(s0)
   1b874:	6505                	lui	a0,0x1
   1b876:	38850513          	addi	a0,a0,904 # 1388 <.Lline_table_start1+0x115d>
   1b87a:	00a105b3          	add	a1,sp,a0
   1b87e:	6505                	lui	a0,0x1
   1b880:	32450513          	addi	a0,a0,804 # 1324 <.Lline_table_start1+0x10f9>
   1b884:	950a                	add	a0,a0,sp
   1b886:	04200613          	li	a2,66
   1b88a:	00002097          	auipc	ra,0x2
   1b88e:	eec080e7          	jalr	-276(ra) # 1d776 <memcpy>
   1b892:	0184d513          	srli	a0,s1,0x18
   1b896:	0104d593          	srli	a1,s1,0x10
   1b89a:	0084d613          	srli	a2,s1,0x8
   1b89e:	0a9406a3          	sb	s1,173(s0)
   1b8a2:	0ac40723          	sb	a2,174(s0)
   1b8a6:	0ab407a3          	sb	a1,175(s0)
   1b8aa:	0aa40823          	sb	a0,176(s0)
   1b8ae:	7ff10513          	addi	a0,sp,2047
   1b8b2:	04450513          	addi	a0,a0,68
   1b8b6:	6585                	lui	a1,0x1
   1b8b8:	32458593          	addi	a1,a1,804 # 1324 <.Lline_table_start1+0x10f9>
   1b8bc:	958a                	add	a1,a1,sp
   1b8be:	04200613          	li	a2,66
   1b8c2:	00002097          	auipc	ra,0x2
   1b8c6:	eb4080e7          	jalr	-332(ra) # 1d776 <memcpy>
   1b8ca:	6505                	lui	a0,0x1
   1b8cc:	38050513          	addi	a0,a0,896 # 1380 <.Lline_table_start1+0x1155>
   1b8d0:	950a                	add	a0,a0,sp
   1b8d2:	7ff10593          	addi	a1,sp,2047
   1b8d6:	03d58593          	addi	a1,a1,61
   1b8da:	ffffa097          	auipc	ra,0xffffa
   1b8de:	612080e7          	jalr	1554(ra) # 15eec <_ZN20complex_dynamic_type3app17ha33a30f9daa6f7f3E>
   1b8e2:	3eca4503          	lbu	a0,1004(s4)
   1b8e6:	c119                	beqz	a0,1b8ec <_start+0x229e>
   1b8e8:	6170106f          	j	1d6fe <_start+0x40b0>
   1b8ec:	3eea4503          	lbu	a0,1006(s4)
   1b8f0:	3eda4583          	lbu	a1,1005(s4)
   1b8f4:	3efa4603          	lbu	a2,1007(s4)
   1b8f8:	3f0a2483          	lw	s1,1008(s4)
   1b8fc:	0522                	slli	a0,a0,0x8
   1b8fe:	8d4d                	or	a0,a0,a1
   1b900:	0ea41a23          	sh	a0,244(s0)
   1b904:	0ec40b23          	sb	a2,246(s0)
   1b908:	6505                	lui	a0,0x1
   1b90a:	38850513          	addi	a0,a0,904 # 1388 <.Lline_table_start1+0x115d>
   1b90e:	00a105b3          	add	a1,sp,a0
   1b912:	6505                	lui	a0,0x1
   1b914:	32450513          	addi	a0,a0,804 # 1324 <.Lline_table_start1+0x10f9>
   1b918:	950a                	add	a0,a0,sp
   1b91a:	4671                	li	a2,28
   1b91c:	00002097          	auipc	ra,0x2
   1b920:	e5a080e7          	jalr	-422(ra) # 1d776 <memcpy>
   1b924:	0184d513          	srli	a0,s1,0x18
   1b928:	0104d593          	srli	a1,s1,0x10
   1b92c:	0084d613          	srli	a2,s1,0x8
   1b930:	0e940ba3          	sb	s1,247(s0)
   1b934:	0ec40c23          	sb	a2,248(s0)
   1b938:	0eb40ca3          	sb	a1,249(s0)
   1b93c:	0ea40d23          	sb	a0,250(s0)
   1b940:	7ff10513          	addi	a0,sp,2047
   1b944:	08e50513          	addi	a0,a0,142
   1b948:	6585                	lui	a1,0x1
   1b94a:	32458593          	addi	a1,a1,804 # 1324 <.Lline_table_start1+0x10f9>
   1b94e:	958a                	add	a1,a1,sp
   1b950:	4671                	li	a2,28
   1b952:	00002097          	auipc	ra,0x2
   1b956:	e24080e7          	jalr	-476(ra) # 1d776 <memcpy>
   1b95a:	6505                	lui	a0,0x1
   1b95c:	38050513          	addi	a0,a0,896 # 1380 <.Lline_table_start1+0x1155>
   1b960:	950a                	add	a0,a0,sp
   1b962:	7ff10593          	addi	a1,sp,2047
   1b966:	08758593          	addi	a1,a1,135
   1b96a:	ffffd097          	auipc	ra,0xffffd
   1b96e:	d42080e7          	jalr	-702(ra) # 186ac <_ZN20complex_dynamic_type3app17he94a73e7c43f0bafE>
   1b972:	3eca4503          	lbu	a0,1004(s4)
   1b976:	c119                	beqz	a0,1b97c <_start+0x232e>
   1b978:	5870106f          	j	1d6fe <_start+0x40b0>
   1b97c:	3eea4503          	lbu	a0,1006(s4)
   1b980:	3eda4583          	lbu	a1,1005(s4)
   1b984:	3efa4603          	lbu	a2,1007(s4)
   1b988:	3f0a2483          	lw	s1,1008(s4)
   1b98c:	0522                	slli	a0,a0,0x8
   1b98e:	8d4d                	or	a0,a0,a1
   1b990:	10a41c23          	sh	a0,280(s0)
   1b994:	10c40d23          	sb	a2,282(s0)
   1b998:	6505                	lui	a0,0x1
   1b99a:	38850513          	addi	a0,a0,904 # 1388 <.Lline_table_start1+0x115d>
   1b99e:	00a105b3          	add	a1,sp,a0
   1b9a2:	6505                	lui	a0,0x1
   1b9a4:	32450513          	addi	a0,a0,804 # 1324 <.Lline_table_start1+0x10f9>
   1b9a8:	950a                	add	a0,a0,sp
   1b9aa:	02400613          	li	a2,36
   1b9ae:	00002097          	auipc	ra,0x2
   1b9b2:	dc8080e7          	jalr	-568(ra) # 1d776 <memcpy>
   1b9b6:	0184d513          	srli	a0,s1,0x18
   1b9ba:	0104d593          	srli	a1,s1,0x10
   1b9be:	0084d613          	srli	a2,s1,0x8
   1b9c2:	10940da3          	sb	s1,283(s0)
   1b9c6:	10c40e23          	sb	a2,284(s0)
   1b9ca:	10b40ea3          	sb	a1,285(s0)
   1b9ce:	10a40f23          	sb	a0,286(s0)
   1b9d2:	7ff10513          	addi	a0,sp,2047
   1b9d6:	0b250513          	addi	a0,a0,178
   1b9da:	6585                	lui	a1,0x1
   1b9dc:	32458593          	addi	a1,a1,804 # 1324 <.Lline_table_start1+0x10f9>
   1b9e0:	958a                	add	a1,a1,sp
   1b9e2:	02400613          	li	a2,36
   1b9e6:	00002097          	auipc	ra,0x2
   1b9ea:	d90080e7          	jalr	-624(ra) # 1d776 <memcpy>
   1b9ee:	6505                	lui	a0,0x1
   1b9f0:	38050513          	addi	a0,a0,896 # 1380 <.Lline_table_start1+0x1155>
   1b9f4:	950a                	add	a0,a0,sp
   1b9f6:	7ff10593          	addi	a1,sp,2047
   1b9fa:	0ab58593          	addi	a1,a1,171
   1b9fe:	ffffc097          	auipc	ra,0xffffc
   1ba02:	42a080e7          	jalr	1066(ra) # 17e28 <_ZN20complex_dynamic_type3app17hddf3bb3e5ae0ec40E>
   1ba06:	3eca4503          	lbu	a0,1004(s4)
   1ba0a:	c119                	beqz	a0,1ba10 <_start+0x23c2>
   1ba0c:	4f30106f          	j	1d6fe <_start+0x40b0>
   1ba10:	3eda4503          	lbu	a0,1005(s4)
   1ba14:	3eea4583          	lbu	a1,1006(s4)
   1ba18:	3f4a2603          	lw	a2,1012(s4)
   1ba1c:	3f8a1683          	lh	a3,1016(s4)
   1ba20:	3efa4703          	lbu	a4,1007(s4)
   1ba24:	3f0a2783          	lw	a5,1008(s4)
   1ba28:	05a2                	slli	a1,a1,0x8
   1ba2a:	38ca2823          	sw	a2,912(s4)
   1ba2e:	38da1a23          	sh	a3,916(s4)
   1ba32:	0187d613          	srli	a2,a5,0x18
   1ba36:	8d4d                	or	a0,a0,a1
   1ba38:	0107d593          	srli	a1,a5,0x10
   1ba3c:	14b404a3          	sb	a1,329(s0)
   1ba40:	14c40523          	sb	a2,330(s0)
   1ba44:	0087d593          	srli	a1,a5,0x8
   1ba48:	14a41223          	sh	a0,324(s0)
   1ba4c:	14e40323          	sb	a4,326(s0)
   1ba50:	14f403a3          	sb	a5,327(s0)
   1ba54:	14b40423          	sb	a1,328(s0)
   1ba58:	7ff10513          	addi	a0,sp,2047
   1ba5c:	0de50513          	addi	a0,a0,222
   1ba60:	6585                	lui	a1,0x1
   1ba62:	32458593          	addi	a1,a1,804 # 1324 <.Lline_table_start1+0x10f9>
   1ba66:	958a                	add	a1,a1,sp
   1ba68:	4619                	li	a2,6
   1ba6a:	00002097          	auipc	ra,0x2
   1ba6e:	d0c080e7          	jalr	-756(ra) # 1d776 <memcpy>
   1ba72:	6505                	lui	a0,0x1
   1ba74:	38050513          	addi	a0,a0,896 # 1380 <.Lline_table_start1+0x1155>
   1ba78:	950a                	add	a0,a0,sp
   1ba7a:	7ff10593          	addi	a1,sp,2047
   1ba7e:	0d758593          	addi	a1,a1,215
   1ba82:	ffff6097          	auipc	ra,0xffff6
   1ba86:	210080e7          	jalr	528(ra) # 11c92 <_ZN20complex_dynamic_type3app17h180787584b2c410fE>
   1ba8a:	3eca4503          	lbu	a0,1004(s4)
   1ba8e:	c119                	beqz	a0,1ba94 <_start+0x2446>
   1ba90:	46f0106f          	j	1d6fe <_start+0x40b0>
   1ba94:	3eea4503          	lbu	a0,1006(s4)
   1ba98:	3eda4583          	lbu	a1,1005(s4)
   1ba9c:	3efa4603          	lbu	a2,1007(s4)
   1baa0:	3f0a2483          	lw	s1,1008(s4)
   1baa4:	0522                	slli	a0,a0,0x8
   1baa6:	8d4d                	or	a0,a0,a1
   1baa8:	14a41923          	sh	a0,338(s0)
   1baac:	14c40a23          	sb	a2,340(s0)
   1bab0:	6505                	lui	a0,0x1
   1bab2:	38850513          	addi	a0,a0,904 # 1388 <.Lline_table_start1+0x115d>
   1bab6:	00a105b3          	add	a1,sp,a0
   1baba:	6505                	lui	a0,0x1
   1babc:	32450513          	addi	a0,a0,804 # 1324 <.Lline_table_start1+0x10f9>
   1bac0:	950a                	add	a0,a0,sp
   1bac2:	4669                	li	a2,26
   1bac4:	00002097          	auipc	ra,0x2
   1bac8:	cb2080e7          	jalr	-846(ra) # 1d776 <memcpy>
   1bacc:	0184d513          	srli	a0,s1,0x18
   1bad0:	0104d593          	srli	a1,s1,0x10
   1bad4:	0084d613          	srli	a2,s1,0x8
   1bad8:	14940aa3          	sb	s1,341(s0)
   1badc:	14c40b23          	sb	a2,342(s0)
   1bae0:	14b40ba3          	sb	a1,343(s0)
   1bae4:	14a40c23          	sb	a0,344(s0)
   1bae8:	7ff10513          	addi	a0,sp,2047
   1baec:	0ec50513          	addi	a0,a0,236
   1baf0:	6585                	lui	a1,0x1
   1baf2:	32458593          	addi	a1,a1,804 # 1324 <.Lline_table_start1+0x10f9>
   1baf6:	958a                	add	a1,a1,sp
   1baf8:	4669                	li	a2,26
   1bafa:	00002097          	auipc	ra,0x2
   1bafe:	c7c080e7          	jalr	-900(ra) # 1d776 <memcpy>
   1bb02:	6505                	lui	a0,0x1
   1bb04:	38050513          	addi	a0,a0,896 # 1380 <.Lline_table_start1+0x1155>
   1bb08:	950a                	add	a0,a0,sp
   1bb0a:	7ff10593          	addi	a1,sp,2047
   1bb0e:	0e558593          	addi	a1,a1,229
   1bb12:	ffff7097          	auipc	ra,0xffff7
   1bb16:	cba080e7          	jalr	-838(ra) # 127cc <_ZN20complex_dynamic_type3app17h34a8d12121633390E>
   1bb1a:	3eca4503          	lbu	a0,1004(s4)
   1bb1e:	c119                	beqz	a0,1bb24 <_start+0x24d6>
   1bb20:	3df0106f          	j	1d6fe <_start+0x40b0>
   1bb24:	3eea4503          	lbu	a0,1006(s4)
   1bb28:	3eda4583          	lbu	a1,1005(s4)
   1bb2c:	3efa4603          	lbu	a2,1007(s4)
   1bb30:	3f0a2483          	lw	s1,1008(s4)
   1bb34:	0522                	slli	a0,a0,0x8
   1bb36:	8d4d                	or	a0,a0,a1
   1bb38:	16a41a23          	sh	a0,372(s0)
   1bb3c:	16c40b23          	sb	a2,374(s0)
   1bb40:	6505                	lui	a0,0x1
   1bb42:	38850513          	addi	a0,a0,904 # 1388 <.Lline_table_start1+0x115d>
   1bb46:	00a105b3          	add	a1,sp,a0
   1bb4a:	6505                	lui	a0,0x1
   1bb4c:	32450513          	addi	a0,a0,804 # 1324 <.Lline_table_start1+0x10f9>
   1bb50:	950a                	add	a0,a0,sp
   1bb52:	04c00613          	li	a2,76
   1bb56:	00002097          	auipc	ra,0x2
   1bb5a:	c20080e7          	jalr	-992(ra) # 1d776 <memcpy>
   1bb5e:	0184d513          	srli	a0,s1,0x18
   1bb62:	0104d593          	srli	a1,s1,0x10
   1bb66:	0084d613          	srli	a2,s1,0x8
   1bb6a:	16940ba3          	sb	s1,375(s0)
   1bb6e:	16c40c23          	sb	a2,376(s0)
   1bb72:	16b40ca3          	sb	a1,377(s0)
   1bb76:	16a40d23          	sb	a0,378(s0)
   1bb7a:	7ff10513          	addi	a0,sp,2047
   1bb7e:	10e50513          	addi	a0,a0,270
   1bb82:	6585                	lui	a1,0x1
   1bb84:	32458593          	addi	a1,a1,804 # 1324 <.Lline_table_start1+0x10f9>
   1bb88:	958a                	add	a1,a1,sp
   1bb8a:	04c00613          	li	a2,76
   1bb8e:	00002097          	auipc	ra,0x2
   1bb92:	be8080e7          	jalr	-1048(ra) # 1d776 <memcpy>
   1bb96:	6505                	lui	a0,0x1
   1bb98:	38050513          	addi	a0,a0,896 # 1380 <.Lline_table_start1+0x1155>
   1bb9c:	950a                	add	a0,a0,sp
   1bb9e:	7ff10593          	addi	a1,sp,2047
   1bba2:	10758593          	addi	a1,a1,263
   1bba6:	ffffc097          	auipc	ra,0xffffc
   1bbaa:	9ec080e7          	jalr	-1556(ra) # 17592 <_ZN20complex_dynamic_type3app17hd114a63dae150e97E>
   1bbae:	3eca4503          	lbu	a0,1004(s4)
   1bbb2:	c119                	beqz	a0,1bbb8 <_start+0x256a>
   1bbb4:	34b0106f          	j	1d6fe <_start+0x40b0>
   1bbb8:	3eea4503          	lbu	a0,1006(s4)
   1bbbc:	3eda4583          	lbu	a1,1005(s4)
   1bbc0:	3efa4603          	lbu	a2,1007(s4)
   1bbc4:	3f0a2483          	lw	s1,1008(s4)
   1bbc8:	0522                	slli	a0,a0,0x8
   1bbca:	8d4d                	or	a0,a0,a1
   1bbcc:	1ca41423          	sh	a0,456(s0)
   1bbd0:	1cc40523          	sb	a2,458(s0)
   1bbd4:	6505                	lui	a0,0x1
   1bbd6:	38850513          	addi	a0,a0,904 # 1388 <.Lline_table_start1+0x115d>
   1bbda:	00a105b3          	add	a1,sp,a0
   1bbde:	6505                	lui	a0,0x1
   1bbe0:	32450513          	addi	a0,a0,804 # 1324 <.Lline_table_start1+0x10f9>
   1bbe4:	950a                	add	a0,a0,sp
   1bbe6:	04600613          	li	a2,70
   1bbea:	00002097          	auipc	ra,0x2
   1bbee:	b8c080e7          	jalr	-1140(ra) # 1d776 <memcpy>
   1bbf2:	0184d513          	srli	a0,s1,0x18
   1bbf6:	0104d593          	srli	a1,s1,0x10
   1bbfa:	0084d613          	srli	a2,s1,0x8
   1bbfe:	1c9405a3          	sb	s1,459(s0)
   1bc02:	1cc40623          	sb	a2,460(s0)
   1bc06:	1cb406a3          	sb	a1,461(s0)
   1bc0a:	1ca40723          	sb	a0,462(s0)
   1bc0e:	7ff10513          	addi	a0,sp,2047
   1bc12:	16250513          	addi	a0,a0,354
   1bc16:	6585                	lui	a1,0x1
   1bc18:	32458593          	addi	a1,a1,804 # 1324 <.Lline_table_start1+0x10f9>
   1bc1c:	958a                	add	a1,a1,sp
   1bc1e:	04600613          	li	a2,70
   1bc22:	00002097          	auipc	ra,0x2
   1bc26:	b54080e7          	jalr	-1196(ra) # 1d776 <memcpy>
   1bc2a:	6505                	lui	a0,0x1
   1bc2c:	38050513          	addi	a0,a0,896 # 1380 <.Lline_table_start1+0x1155>
   1bc30:	950a                	add	a0,a0,sp
   1bc32:	7ff10593          	addi	a1,sp,2047
   1bc36:	15b58593          	addi	a1,a1,347
   1bc3a:	ffffd097          	auipc	ra,0xffffd
   1bc3e:	18a080e7          	jalr	394(ra) # 18dc4 <_ZN20complex_dynamic_type3app17hf244e5509b1bc801E>
   1bc42:	3eca4503          	lbu	a0,1004(s4)
   1bc46:	c119                	beqz	a0,1bc4c <_start+0x25fe>
   1bc48:	2b70106f          	j	1d6fe <_start+0x40b0>
   1bc4c:	3eea4503          	lbu	a0,1006(s4)
   1bc50:	3eda4583          	lbu	a1,1005(s4)
   1bc54:	3efa4603          	lbu	a2,1007(s4)
   1bc58:	3f0a2483          	lw	s1,1008(s4)
   1bc5c:	0522                	slli	a0,a0,0x8
   1bc5e:	8d4d                	or	a0,a0,a1
   1bc60:	20a41b23          	sh	a0,534(s0)
   1bc64:	20c40c23          	sb	a2,536(s0)
   1bc68:	6505                	lui	a0,0x1
   1bc6a:	38850513          	addi	a0,a0,904 # 1388 <.Lline_table_start1+0x115d>
   1bc6e:	00a105b3          	add	a1,sp,a0
   1bc72:	6505                	lui	a0,0x1
   1bc74:	32450513          	addi	a0,a0,804 # 1324 <.Lline_table_start1+0x10f9>
   1bc78:	950a                	add	a0,a0,sp
   1bc7a:	03500613          	li	a2,53
   1bc7e:	00002097          	auipc	ra,0x2
   1bc82:	af8080e7          	jalr	-1288(ra) # 1d776 <memcpy>
   1bc86:	0184d513          	srli	a0,s1,0x18
   1bc8a:	0104d593          	srli	a1,s1,0x10
   1bc8e:	0084d613          	srli	a2,s1,0x8
   1bc92:	20940ca3          	sb	s1,537(s0)
   1bc96:	20c40d23          	sb	a2,538(s0)
   1bc9a:	20b40da3          	sb	a1,539(s0)
   1bc9e:	20a40e23          	sb	a0,540(s0)
   1bca2:	7ff10513          	addi	a0,sp,2047
   1bca6:	1b050513          	addi	a0,a0,432
   1bcaa:	6585                	lui	a1,0x1
   1bcac:	32458593          	addi	a1,a1,804 # 1324 <.Lline_table_start1+0x10f9>
   1bcb0:	958a                	add	a1,a1,sp
   1bcb2:	03500613          	li	a2,53
   1bcb6:	00002097          	auipc	ra,0x2
   1bcba:	ac0080e7          	jalr	-1344(ra) # 1d776 <memcpy>
   1bcbe:	6505                	lui	a0,0x1
   1bcc0:	38050513          	addi	a0,a0,896 # 1380 <.Lline_table_start1+0x1155>
   1bcc4:	950a                	add	a0,a0,sp
   1bcc6:	7ff10593          	addi	a1,sp,2047
   1bcca:	1a958593          	addi	a1,a1,425
   1bcce:	ffffb097          	auipc	ra,0xffffb
   1bcd2:	314080e7          	jalr	788(ra) # 16fe2 <_ZN20complex_dynamic_type3app17hca41afe10b8665d2E>
   1bcd6:	3eca4503          	lbu	a0,1004(s4)
   1bcda:	c119                	beqz	a0,1bce0 <_start+0x2692>
   1bcdc:	2230106f          	j	1d6fe <_start+0x40b0>
   1bce0:	3eea4503          	lbu	a0,1006(s4)
   1bce4:	3eda4583          	lbu	a1,1005(s4)
   1bce8:	3efa4603          	lbu	a2,1007(s4)
   1bcec:	3f0a2483          	lw	s1,1008(s4)
   1bcf0:	0522                	slli	a0,a0,0x8
   1bcf2:	8d4d                	or	a0,a0,a1
   1bcf4:	24a41923          	sh	a0,594(s0)
   1bcf8:	24c40a23          	sb	a2,596(s0)
   1bcfc:	6505                	lui	a0,0x1
   1bcfe:	38850513          	addi	a0,a0,904 # 1388 <.Lline_table_start1+0x115d>
   1bd02:	00a105b3          	add	a1,sp,a0
   1bd06:	6505                	lui	a0,0x1
   1bd08:	32450513          	addi	a0,a0,804 # 1324 <.Lline_table_start1+0x10f9>
   1bd0c:	950a                	add	a0,a0,sp
   1bd0e:	03100613          	li	a2,49
   1bd12:	00002097          	auipc	ra,0x2
   1bd16:	a64080e7          	jalr	-1436(ra) # 1d776 <memcpy>
   1bd1a:	0184d513          	srli	a0,s1,0x18
   1bd1e:	0104d593          	srli	a1,s1,0x10
   1bd22:	0084d613          	srli	a2,s1,0x8
   1bd26:	24940aa3          	sb	s1,597(s0)
   1bd2a:	24c40b23          	sb	a2,598(s0)
   1bd2e:	24b40ba3          	sb	a1,599(s0)
   1bd32:	24a40c23          	sb	a0,600(s0)
   1bd36:	7ff10513          	addi	a0,sp,2047
   1bd3a:	1ec50513          	addi	a0,a0,492
   1bd3e:	6585                	lui	a1,0x1
   1bd40:	32458593          	addi	a1,a1,804 # 1324 <.Lline_table_start1+0x10f9>
   1bd44:	958a                	add	a1,a1,sp
   1bd46:	03100613          	li	a2,49
   1bd4a:	00002097          	auipc	ra,0x2
   1bd4e:	a2c080e7          	jalr	-1492(ra) # 1d776 <memcpy>
   1bd52:	6505                	lui	a0,0x1
   1bd54:	38050513          	addi	a0,a0,896 # 1380 <.Lline_table_start1+0x1155>
   1bd58:	950a                	add	a0,a0,sp
   1bd5a:	7ff10593          	addi	a1,sp,2047
   1bd5e:	1e558593          	addi	a1,a1,485
   1bd62:	ffff8097          	auipc	ra,0xffff8
   1bd66:	54a080e7          	jalr	1354(ra) # 142ac <_ZN20complex_dynamic_type3app17h5f2f69985eda1b8cE>
   1bd6a:	3eca4503          	lbu	a0,1004(s4)
   1bd6e:	c119                	beqz	a0,1bd74 <_start+0x2726>
   1bd70:	18f0106f          	j	1d6fe <_start+0x40b0>
   1bd74:	3eea4503          	lbu	a0,1006(s4)
   1bd78:	3eda4583          	lbu	a1,1005(s4)
   1bd7c:	3efa4603          	lbu	a2,1007(s4)
   1bd80:	3f0a2483          	lw	s1,1008(s4)
   1bd84:	0522                	slli	a0,a0,0x8
   1bd86:	8d4d                	or	a0,a0,a1
   1bd88:	28a41523          	sh	a0,650(s0)
   1bd8c:	28c40623          	sb	a2,652(s0)
   1bd90:	6505                	lui	a0,0x1
   1bd92:	38850513          	addi	a0,a0,904 # 1388 <.Lline_table_start1+0x115d>
   1bd96:	00a105b3          	add	a1,sp,a0
   1bd9a:	6505                	lui	a0,0x1
   1bd9c:	32450513          	addi	a0,a0,804 # 1324 <.Lline_table_start1+0x10f9>
   1bda0:	950a                	add	a0,a0,sp
   1bda2:	02000613          	li	a2,32
   1bda6:	00002097          	auipc	ra,0x2
   1bdaa:	9d0080e7          	jalr	-1584(ra) # 1d776 <memcpy>
   1bdae:	0184d513          	srli	a0,s1,0x18
   1bdb2:	0104d593          	srli	a1,s1,0x10
   1bdb6:	0084d613          	srli	a2,s1,0x8
   1bdba:	289406a3          	sb	s1,653(s0)
   1bdbe:	28c40723          	sb	a2,654(s0)
   1bdc2:	28b407a3          	sb	a1,655(s0)
   1bdc6:	28a40823          	sb	a0,656(s0)
   1bdca:	7ff10513          	addi	a0,sp,2047
   1bdce:	22450513          	addi	a0,a0,548
   1bdd2:	6585                	lui	a1,0x1
   1bdd4:	32458593          	addi	a1,a1,804 # 1324 <.Lline_table_start1+0x10f9>
   1bdd8:	958a                	add	a1,a1,sp
   1bdda:	02000613          	li	a2,32
   1bdde:	00002097          	auipc	ra,0x2
   1bde2:	998080e7          	jalr	-1640(ra) # 1d776 <memcpy>
   1bde6:	6505                	lui	a0,0x1
   1bde8:	38050513          	addi	a0,a0,896 # 1380 <.Lline_table_start1+0x1155>
   1bdec:	950a                	add	a0,a0,sp
   1bdee:	7ff10593          	addi	a1,sp,2047
   1bdf2:	21d58593          	addi	a1,a1,541
   1bdf6:	ffffc097          	auipc	ra,0xffffc
   1bdfa:	d56080e7          	jalr	-682(ra) # 17b4c <_ZN20complex_dynamic_type3app17hdcb42b6cf388c110E>
   1bdfe:	3eca4503          	lbu	a0,1004(s4)
   1be02:	c119                	beqz	a0,1be08 <_start+0x27ba>
   1be04:	0fb0106f          	j	1d6fe <_start+0x40b0>
   1be08:	3eea4503          	lbu	a0,1006(s4)
   1be0c:	3eda4583          	lbu	a1,1005(s4)
   1be10:	3efa4603          	lbu	a2,1007(s4)
   1be14:	3f0a2483          	lw	s1,1008(s4)
   1be18:	0522                	slli	a0,a0,0x8
   1be1a:	8d4d                	or	a0,a0,a1
   1be1c:	2aa41923          	sh	a0,690(s0)
   1be20:	2ac40a23          	sb	a2,692(s0)
   1be24:	6505                	lui	a0,0x1
   1be26:	38850513          	addi	a0,a0,904 # 1388 <.Lline_table_start1+0x115d>
   1be2a:	00a105b3          	add	a1,sp,a0
   1be2e:	6505                	lui	a0,0x1
   1be30:	32450513          	addi	a0,a0,804 # 1324 <.Lline_table_start1+0x10f9>
   1be34:	950a                	add	a0,a0,sp
   1be36:	04a00613          	li	a2,74
   1be3a:	00002097          	auipc	ra,0x2
   1be3e:	93c080e7          	jalr	-1732(ra) # 1d776 <memcpy>
   1be42:	0184d513          	srli	a0,s1,0x18
   1be46:	0104d593          	srli	a1,s1,0x10
   1be4a:	0084d613          	srli	a2,s1,0x8
   1be4e:	2a940aa3          	sb	s1,693(s0)
   1be52:	2ac40b23          	sb	a2,694(s0)
   1be56:	2ab40ba3          	sb	a1,695(s0)
   1be5a:	2aa40c23          	sb	a0,696(s0)
   1be5e:	7ff10513          	addi	a0,sp,2047
   1be62:	24c50513          	addi	a0,a0,588
   1be66:	6585                	lui	a1,0x1
   1be68:	32458593          	addi	a1,a1,804 # 1324 <.Lline_table_start1+0x10f9>
   1be6c:	958a                	add	a1,a1,sp
   1be6e:	04a00613          	li	a2,74
   1be72:	00002097          	auipc	ra,0x2
   1be76:	904080e7          	jalr	-1788(ra) # 1d776 <memcpy>
   1be7a:	6505                	lui	a0,0x1
   1be7c:	38050513          	addi	a0,a0,896 # 1380 <.Lline_table_start1+0x1155>
   1be80:	950a                	add	a0,a0,sp
   1be82:	7ff10593          	addi	a1,sp,2047
   1be86:	24558593          	addi	a1,a1,581
   1be8a:	ffff9097          	auipc	ra,0xffff9
   1be8e:	df4080e7          	jalr	-524(ra) # 14c7e <_ZN20complex_dynamic_type3app17h7fafeb4a0857247cE>
   1be92:	3eca4503          	lbu	a0,1004(s4)
   1be96:	c119                	beqz	a0,1be9c <_start+0x284e>
   1be98:	0670106f          	j	1d6fe <_start+0x40b0>
   1be9c:	3eea4503          	lbu	a0,1006(s4)
   1bea0:	3eda4583          	lbu	a1,1005(s4)
   1bea4:	3efa4603          	lbu	a2,1007(s4)
   1bea8:	3f0a2483          	lw	s1,1008(s4)
   1beac:	0522                	slli	a0,a0,0x8
   1beae:	8d4d                	or	a0,a0,a1
   1beb0:	30a41223          	sh	a0,772(s0)
   1beb4:	30c40323          	sb	a2,774(s0)
   1beb8:	6505                	lui	a0,0x1
   1beba:	38850513          	addi	a0,a0,904 # 1388 <.Lline_table_start1+0x115d>
   1bebe:	00a105b3          	add	a1,sp,a0
   1bec2:	6505                	lui	a0,0x1
   1bec4:	32450513          	addi	a0,a0,804 # 1324 <.Lline_table_start1+0x10f9>
   1bec8:	950a                	add	a0,a0,sp
   1beca:	04800613          	li	a2,72
   1bece:	00002097          	auipc	ra,0x2
   1bed2:	8a8080e7          	jalr	-1880(ra) # 1d776 <memcpy>
   1bed6:	0184d513          	srli	a0,s1,0x18
   1beda:	0104d593          	srli	a1,s1,0x10
   1bede:	0084d613          	srli	a2,s1,0x8
   1bee2:	309403a3          	sb	s1,775(s0)
   1bee6:	30c40423          	sb	a2,776(s0)
   1beea:	30b404a3          	sb	a1,777(s0)
   1beee:	30a40523          	sb	a0,778(s0)
   1bef2:	7ff10513          	addi	a0,sp,2047
   1bef6:	29e50513          	addi	a0,a0,670
   1befa:	6585                	lui	a1,0x1
   1befc:	32458593          	addi	a1,a1,804 # 1324 <.Lline_table_start1+0x10f9>
   1bf00:	958a                	add	a1,a1,sp
   1bf02:	04800613          	li	a2,72
   1bf06:	00002097          	auipc	ra,0x2
   1bf0a:	870080e7          	jalr	-1936(ra) # 1d776 <memcpy>
   1bf0e:	6505                	lui	a0,0x1
   1bf10:	38050513          	addi	a0,a0,896 # 1380 <.Lline_table_start1+0x1155>
   1bf14:	950a                	add	a0,a0,sp
   1bf16:	7ff10593          	addi	a1,sp,2047
   1bf1a:	29758593          	addi	a1,a1,663
   1bf1e:	ffffb097          	auipc	ra,0xffffb
   1bf22:	f60080e7          	jalr	-160(ra) # 16e7e <_ZN20complex_dynamic_type3app17hc061f10eb108410aE>
   1bf26:	3eca4503          	lbu	a0,1004(s4)
   1bf2a:	c119                	beqz	a0,1bf30 <_start+0x28e2>
   1bf2c:	7d20106f          	j	1d6fe <_start+0x40b0>
   1bf30:	3eea4503          	lbu	a0,1006(s4)
   1bf34:	3eda4583          	lbu	a1,1005(s4)
   1bf38:	3efa4603          	lbu	a2,1007(s4)
   1bf3c:	3f0a2483          	lw	s1,1008(s4)
   1bf40:	0522                	slli	a0,a0,0x8
   1bf42:	8d4d                	or	a0,a0,a1
   1bf44:	34a41a23          	sh	a0,852(s0)
   1bf48:	34c40b23          	sb	a2,854(s0)
   1bf4c:	6505                	lui	a0,0x1
   1bf4e:	38850513          	addi	a0,a0,904 # 1388 <.Lline_table_start1+0x115d>
   1bf52:	00a105b3          	add	a1,sp,a0
   1bf56:	6505                	lui	a0,0x1
   1bf58:	32450513          	addi	a0,a0,804 # 1324 <.Lline_table_start1+0x10f9>
   1bf5c:	950a                	add	a0,a0,sp
   1bf5e:	05a00613          	li	a2,90
   1bf62:	00002097          	auipc	ra,0x2
   1bf66:	814080e7          	jalr	-2028(ra) # 1d776 <memcpy>
   1bf6a:	0184d513          	srli	a0,s1,0x18
   1bf6e:	0104d593          	srli	a1,s1,0x10
   1bf72:	0084d613          	srli	a2,s1,0x8
   1bf76:	34940ba3          	sb	s1,855(s0)
   1bf7a:	34c40c23          	sb	a2,856(s0)
   1bf7e:	34b40ca3          	sb	a1,857(s0)
   1bf82:	34a40d23          	sb	a0,858(s0)
   1bf86:	7ff10513          	addi	a0,sp,2047
   1bf8a:	2ee50513          	addi	a0,a0,750
   1bf8e:	6585                	lui	a1,0x1
   1bf90:	32458593          	addi	a1,a1,804 # 1324 <.Lline_table_start1+0x10f9>
   1bf94:	958a                	add	a1,a1,sp
   1bf96:	05a00613          	li	a2,90
   1bf9a:	00001097          	auipc	ra,0x1
   1bf9e:	7dc080e7          	jalr	2012(ra) # 1d776 <memcpy>
   1bfa2:	6505                	lui	a0,0x1
   1bfa4:	38050513          	addi	a0,a0,896 # 1380 <.Lline_table_start1+0x1155>
   1bfa8:	950a                	add	a0,a0,sp
   1bfaa:	7ff10593          	addi	a1,sp,2047
   1bfae:	2e758593          	addi	a1,a1,743
   1bfb2:	ffff6097          	auipc	ra,0xffff6
   1bfb6:	124080e7          	jalr	292(ra) # 120d6 <_ZN20complex_dynamic_type3app17h2b2087206ad6f723E>
   1bfba:	3eca4503          	lbu	a0,1004(s4)
   1bfbe:	c119                	beqz	a0,1bfc4 <_start+0x2976>
   1bfc0:	73e0106f          	j	1d6fe <_start+0x40b0>
   1bfc4:	3eea4503          	lbu	a0,1006(s4)
   1bfc8:	3eda4583          	lbu	a1,1005(s4)
   1bfcc:	3efa4603          	lbu	a2,1007(s4)
   1bfd0:	3f0a2483          	lw	s1,1008(s4)
   1bfd4:	0522                	slli	a0,a0,0x8
   1bfd6:	8d4d                	or	a0,a0,a1
   1bfd8:	3aa41b23          	sh	a0,950(s0)
   1bfdc:	3ac40c23          	sb	a2,952(s0)
   1bfe0:	6505                	lui	a0,0x1
   1bfe2:	38850513          	addi	a0,a0,904 # 1388 <.Lline_table_start1+0x115d>
   1bfe6:	00a105b3          	add	a1,sp,a0
   1bfea:	6505                	lui	a0,0x1
   1bfec:	32450513          	addi	a0,a0,804 # 1324 <.Lline_table_start1+0x10f9>
   1bff0:	950a                	add	a0,a0,sp
   1bff2:	465d                	li	a2,23
   1bff4:	00001097          	auipc	ra,0x1
   1bff8:	782080e7          	jalr	1922(ra) # 1d776 <memcpy>
   1bffc:	0184d513          	srli	a0,s1,0x18
   1c000:	0104d593          	srli	a1,s1,0x10
   1c004:	0084d613          	srli	a2,s1,0x8
   1c008:	3a940ca3          	sb	s1,953(s0)
   1c00c:	3ac40d23          	sb	a2,954(s0)
   1c010:	3ab40da3          	sb	a1,955(s0)
   1c014:	3aa40e23          	sb	a0,956(s0)
   1c018:	7ff10513          	addi	a0,sp,2047
   1c01c:	35050513          	addi	a0,a0,848
   1c020:	6585                	lui	a1,0x1
   1c022:	32458593          	addi	a1,a1,804 # 1324 <.Lline_table_start1+0x10f9>
   1c026:	958a                	add	a1,a1,sp
   1c028:	465d                	li	a2,23
   1c02a:	00001097          	auipc	ra,0x1
   1c02e:	74c080e7          	jalr	1868(ra) # 1d776 <memcpy>
   1c032:	6505                	lui	a0,0x1
   1c034:	38050513          	addi	a0,a0,896 # 1380 <.Lline_table_start1+0x1155>
   1c038:	950a                	add	a0,a0,sp
   1c03a:	7ff10593          	addi	a1,sp,2047
   1c03e:	34958593          	addi	a1,a1,841
   1c042:	ffff8097          	auipc	ra,0xffff8
   1c046:	f98080e7          	jalr	-104(ra) # 13fda <_ZN20complex_dynamic_type3app17h5c43998b847a66c5E>
   1c04a:	3eca4503          	lbu	a0,1004(s4)
   1c04e:	c119                	beqz	a0,1c054 <_start+0x2a06>
   1c050:	6ae0106f          	j	1d6fe <_start+0x40b0>
   1c054:	3eea4503          	lbu	a0,1006(s4)
   1c058:	3eda4583          	lbu	a1,1005(s4)
   1c05c:	3efa4603          	lbu	a2,1007(s4)
   1c060:	3f0a2483          	lw	s1,1008(s4)
   1c064:	0522                	slli	a0,a0,0x8
   1c066:	8d4d                	or	a0,a0,a1
   1c068:	3ca41a23          	sh	a0,980(s0)
   1c06c:	3cc40b23          	sb	a2,982(s0)
   1c070:	6505                	lui	a0,0x1
   1c072:	38850513          	addi	a0,a0,904 # 1388 <.Lline_table_start1+0x115d>
   1c076:	00a105b3          	add	a1,sp,a0
   1c07a:	6505                	lui	a0,0x1
   1c07c:	32450513          	addi	a0,a0,804 # 1324 <.Lline_table_start1+0x10f9>
   1c080:	950a                	add	a0,a0,sp
   1c082:	4669                	li	a2,26
   1c084:	00001097          	auipc	ra,0x1
   1c088:	6f2080e7          	jalr	1778(ra) # 1d776 <memcpy>
   1c08c:	0184d513          	srli	a0,s1,0x18
   1c090:	0104d593          	srli	a1,s1,0x10
   1c094:	0084d613          	srli	a2,s1,0x8
   1c098:	3c940ba3          	sb	s1,983(s0)
   1c09c:	3cc40c23          	sb	a2,984(s0)
   1c0a0:	3cb40ca3          	sb	a1,985(s0)
   1c0a4:	3ca40d23          	sb	a0,986(s0)
   1c0a8:	7ff10513          	addi	a0,sp,2047
   1c0ac:	36e50513          	addi	a0,a0,878
   1c0b0:	6585                	lui	a1,0x1
   1c0b2:	32458593          	addi	a1,a1,804 # 1324 <.Lline_table_start1+0x10f9>
   1c0b6:	958a                	add	a1,a1,sp
   1c0b8:	4669                	li	a2,26
   1c0ba:	00001097          	auipc	ra,0x1
   1c0be:	6bc080e7          	jalr	1724(ra) # 1d776 <memcpy>
   1c0c2:	6505                	lui	a0,0x1
   1c0c4:	38050513          	addi	a0,a0,896 # 1380 <.Lline_table_start1+0x1155>
   1c0c8:	950a                	add	a0,a0,sp
   1c0ca:	7ff10593          	addi	a1,sp,2047
   1c0ce:	36758593          	addi	a1,a1,871
   1c0d2:	ffff9097          	auipc	ra,0xffff9
   1c0d6:	a3e080e7          	jalr	-1474(ra) # 14b10 <_ZN20complex_dynamic_type3app17h74a3aa7bae93e5f1E>
   1c0da:	3eca4503          	lbu	a0,1004(s4)
   1c0de:	c119                	beqz	a0,1c0e4 <_start+0x2a96>
   1c0e0:	61e0106f          	j	1d6fe <_start+0x40b0>
   1c0e4:	3eea4503          	lbu	a0,1006(s4)
   1c0e8:	3eda4583          	lbu	a1,1005(s4)
   1c0ec:	3efa4603          	lbu	a2,1007(s4)
   1c0f0:	3f0a2483          	lw	s1,1008(s4)
   1c0f4:	0522                	slli	a0,a0,0x8
   1c0f6:	8d4d                	or	a0,a0,a1
   1c0f8:	3ea41b23          	sh	a0,1014(s0)
   1c0fc:	3ec40c23          	sb	a2,1016(s0)
   1c100:	6505                	lui	a0,0x1
   1c102:	38850513          	addi	a0,a0,904 # 1388 <.Lline_table_start1+0x115d>
   1c106:	00a105b3          	add	a1,sp,a0
   1c10a:	6505                	lui	a0,0x1
   1c10c:	32450513          	addi	a0,a0,804 # 1324 <.Lline_table_start1+0x10f9>
   1c110:	950a                	add	a0,a0,sp
   1c112:	02300613          	li	a2,35
   1c116:	00001097          	auipc	ra,0x1
   1c11a:	660080e7          	jalr	1632(ra) # 1d776 <memcpy>
   1c11e:	0184d513          	srli	a0,s1,0x18
   1c122:	0104d593          	srli	a1,s1,0x10
   1c126:	0084d613          	srli	a2,s1,0x8
   1c12a:	3e940ca3          	sb	s1,1017(s0)
   1c12e:	3ec40d23          	sb	a2,1018(s0)
   1c132:	3eb40da3          	sb	a1,1019(s0)
   1c136:	3ea40e23          	sb	a0,1020(s0)
   1c13a:	7ff10513          	addi	a0,sp,2047
   1c13e:	39050513          	addi	a0,a0,912
   1c142:	6585                	lui	a1,0x1
   1c144:	32458593          	addi	a1,a1,804 # 1324 <.Lline_table_start1+0x10f9>
   1c148:	958a                	add	a1,a1,sp
   1c14a:	02300613          	li	a2,35
   1c14e:	00001097          	auipc	ra,0x1
   1c152:	628080e7          	jalr	1576(ra) # 1d776 <memcpy>
   1c156:	6505                	lui	a0,0x1
   1c158:	38050513          	addi	a0,a0,896 # 1380 <.Lline_table_start1+0x1155>
   1c15c:	950a                	add	a0,a0,sp
   1c15e:	7ff10593          	addi	a1,sp,2047
   1c162:	38958593          	addi	a1,a1,905
   1c166:	ffffa097          	auipc	ra,0xffffa
   1c16a:	49a080e7          	jalr	1178(ra) # 16600 <_ZN20complex_dynamic_type3app17hb7a052c6aaa1f362E>
   1c16e:	3eca4503          	lbu	a0,1004(s4)
   1c172:	c119                	beqz	a0,1c178 <_start+0x2b2a>
   1c174:	58a0106f          	j	1d6fe <_start+0x40b0>
   1c178:	3eea4503          	lbu	a0,1006(s4)
   1c17c:	3eda4583          	lbu	a1,1005(s4)
   1c180:	3efa4603          	lbu	a2,1007(s4)
   1c184:	3f0a2483          	lw	s1,1008(s4)
   1c188:	0522                	slli	a0,a0,0x8
   1c18a:	8d4d                	or	a0,a0,a1
   1c18c:	42a41023          	sh	a0,1056(s0)
   1c190:	42c40123          	sb	a2,1058(s0)
   1c194:	6505                	lui	a0,0x1
   1c196:	38850513          	addi	a0,a0,904 # 1388 <.Lline_table_start1+0x115d>
   1c19a:	00a105b3          	add	a1,sp,a0
   1c19e:	6505                	lui	a0,0x1
   1c1a0:	32450513          	addi	a0,a0,804 # 1324 <.Lline_table_start1+0x10f9>
   1c1a4:	950a                	add	a0,a0,sp
   1c1a6:	05200613          	li	a2,82
   1c1aa:	00001097          	auipc	ra,0x1
   1c1ae:	5cc080e7          	jalr	1484(ra) # 1d776 <memcpy>
   1c1b2:	0184d513          	srli	a0,s1,0x18
   1c1b6:	0104d593          	srli	a1,s1,0x10
   1c1ba:	0084d613          	srli	a2,s1,0x8
   1c1be:	429401a3          	sb	s1,1059(s0)
   1c1c2:	42c40223          	sb	a2,1060(s0)
   1c1c6:	42b402a3          	sb	a1,1061(s0)
   1c1ca:	42a40323          	sb	a0,1062(s0)
   1c1ce:	7ff10513          	addi	a0,sp,2047
   1c1d2:	3ba50513          	addi	a0,a0,954
   1c1d6:	6585                	lui	a1,0x1
   1c1d8:	32458593          	addi	a1,a1,804 # 1324 <.Lline_table_start1+0x10f9>
   1c1dc:	958a                	add	a1,a1,sp
   1c1de:	05200613          	li	a2,82
   1c1e2:	00001097          	auipc	ra,0x1
   1c1e6:	594080e7          	jalr	1428(ra) # 1d776 <memcpy>
   1c1ea:	6505                	lui	a0,0x1
   1c1ec:	38050513          	addi	a0,a0,896 # 1380 <.Lline_table_start1+0x1155>
   1c1f0:	950a                	add	a0,a0,sp
   1c1f2:	7ff10593          	addi	a1,sp,2047
   1c1f6:	3b358593          	addi	a1,a1,947
   1c1fa:	ffff5097          	auipc	ra,0xffff5
   1c1fe:	f3a080e7          	jalr	-198(ra) # 11134 <_ZN20complex_dynamic_type3app17h0badf856b63c0695E>
   1c202:	3eca4503          	lbu	a0,1004(s4)
   1c206:	c119                	beqz	a0,1c20c <_start+0x2bbe>
   1c208:	4f60106f          	j	1d6fe <_start+0x40b0>
   1c20c:	3eea4503          	lbu	a0,1006(s4)
   1c210:	3eda4583          	lbu	a1,1005(s4)
   1c214:	3efa4603          	lbu	a2,1007(s4)
   1c218:	3f0a2483          	lw	s1,1008(s4)
   1c21c:	0522                	slli	a0,a0,0x8
   1c21e:	8d4d                	or	a0,a0,a1
   1c220:	46a41d23          	sh	a0,1146(s0)
   1c224:	46c40e23          	sb	a2,1148(s0)
   1c228:	6505                	lui	a0,0x1
   1c22a:	38850513          	addi	a0,a0,904 # 1388 <.Lline_table_start1+0x115d>
   1c22e:	00a105b3          	add	a1,sp,a0
   1c232:	6505                	lui	a0,0x1
   1c234:	32450513          	addi	a0,a0,804 # 1324 <.Lline_table_start1+0x10f9>
   1c238:	950a                	add	a0,a0,sp
   1c23a:	04300613          	li	a2,67
   1c23e:	00001097          	auipc	ra,0x1
   1c242:	538080e7          	jalr	1336(ra) # 1d776 <memcpy>
   1c246:	0184d513          	srli	a0,s1,0x18
   1c24a:	0104d593          	srli	a1,s1,0x10
   1c24e:	0084d613          	srli	a2,s1,0x8
   1c252:	46940ea3          	sb	s1,1149(s0)
   1c256:	46c40f23          	sb	a2,1150(s0)
   1c25a:	46b40fa3          	sb	a1,1151(s0)
   1c25e:	48a40023          	sb	a0,1152(s0)
   1c262:	7ff10513          	addi	a0,sp,2047
   1c266:	41450513          	addi	a0,a0,1044
   1c26a:	6585                	lui	a1,0x1
   1c26c:	32458593          	addi	a1,a1,804 # 1324 <.Lline_table_start1+0x10f9>
   1c270:	958a                	add	a1,a1,sp
   1c272:	04300613          	li	a2,67
   1c276:	00001097          	auipc	ra,0x1
   1c27a:	500080e7          	jalr	1280(ra) # 1d776 <memcpy>
   1c27e:	6505                	lui	a0,0x1
   1c280:	38050513          	addi	a0,a0,896 # 1380 <.Lline_table_start1+0x1155>
   1c284:	950a                	add	a0,a0,sp
   1c286:	7ff10593          	addi	a1,sp,2047
   1c28a:	40d58593          	addi	a1,a1,1037
   1c28e:	ffff7097          	auipc	ra,0xffff7
   1c292:	7a0080e7          	jalr	1952(ra) # 13a2e <_ZN20complex_dynamic_type3app17h55e9e824e5f95e89E>
   1c296:	3eca4503          	lbu	a0,1004(s4)
   1c29a:	c119                	beqz	a0,1c2a0 <_start+0x2c52>
   1c29c:	4620106f          	j	1d6fe <_start+0x40b0>
   1c2a0:	3eea4503          	lbu	a0,1006(s4)
   1c2a4:	3eda4583          	lbu	a1,1005(s4)
   1c2a8:	3efa4603          	lbu	a2,1007(s4)
   1c2ac:	3f0a2483          	lw	s1,1008(s4)
   1c2b0:	0522                	slli	a0,a0,0x8
   1c2b2:	8d4d                	or	a0,a0,a1
   1c2b4:	4ca41223          	sh	a0,1220(s0)
   1c2b8:	4cc40323          	sb	a2,1222(s0)
   1c2bc:	6505                	lui	a0,0x1
   1c2be:	38850513          	addi	a0,a0,904 # 1388 <.Lline_table_start1+0x115d>
   1c2c2:	00a105b3          	add	a1,sp,a0
   1c2c6:	6505                	lui	a0,0x1
   1c2c8:	32450513          	addi	a0,a0,804 # 1324 <.Lline_table_start1+0x10f9>
   1c2cc:	950a                	add	a0,a0,sp
   1c2ce:	02600613          	li	a2,38
   1c2d2:	00001097          	auipc	ra,0x1
   1c2d6:	4a4080e7          	jalr	1188(ra) # 1d776 <memcpy>
   1c2da:	0184d513          	srli	a0,s1,0x18
   1c2de:	0104d593          	srli	a1,s1,0x10
   1c2e2:	0084d613          	srli	a2,s1,0x8
   1c2e6:	4c9403a3          	sb	s1,1223(s0)
   1c2ea:	4cc40423          	sb	a2,1224(s0)
   1c2ee:	4cb404a3          	sb	a1,1225(s0)
   1c2f2:	4ca40523          	sb	a0,1226(s0)
   1c2f6:	7ff10513          	addi	a0,sp,2047
   1c2fa:	45e50513          	addi	a0,a0,1118
   1c2fe:	6585                	lui	a1,0x1
   1c300:	32458593          	addi	a1,a1,804 # 1324 <.Lline_table_start1+0x10f9>
   1c304:	958a                	add	a1,a1,sp
   1c306:	02600613          	li	a2,38
   1c30a:	00001097          	auipc	ra,0x1
   1c30e:	46c080e7          	jalr	1132(ra) # 1d776 <memcpy>
   1c312:	6505                	lui	a0,0x1
   1c314:	38050513          	addi	a0,a0,896 # 1380 <.Lline_table_start1+0x1155>
   1c318:	950a                	add	a0,a0,sp
   1c31a:	7ff10593          	addi	a1,sp,2047
   1c31e:	45758593          	addi	a1,a1,1111
   1c322:	ffffd097          	auipc	ra,0xffffd
   1c326:	d76080e7          	jalr	-650(ra) # 19098 <_ZN20complex_dynamic_type3app17hf9b5536be85dbb87E>
   1c32a:	3eca4503          	lbu	a0,1004(s4)
   1c32e:	c119                	beqz	a0,1c334 <_start+0x2ce6>
   1c330:	3ce0106f          	j	1d6fe <_start+0x40b0>
   1c334:	3eea4503          	lbu	a0,1006(s4)
   1c338:	3eda4583          	lbu	a1,1005(s4)
   1c33c:	3efa4603          	lbu	a2,1007(s4)
   1c340:	3f0a2483          	lw	s1,1008(s4)
   1c344:	0522                	slli	a0,a0,0x8
   1c346:	8d4d                	or	a0,a0,a1
   1c348:	4ea41923          	sh	a0,1266(s0)
   1c34c:	4ec40a23          	sb	a2,1268(s0)
   1c350:	6505                	lui	a0,0x1
   1c352:	38850513          	addi	a0,a0,904 # 1388 <.Lline_table_start1+0x115d>
   1c356:	00a105b3          	add	a1,sp,a0
   1c35a:	6505                	lui	a0,0x1
   1c35c:	32450513          	addi	a0,a0,804 # 1324 <.Lline_table_start1+0x10f9>
   1c360:	950a                	add	a0,a0,sp
   1c362:	04c00613          	li	a2,76
   1c366:	00001097          	auipc	ra,0x1
   1c36a:	410080e7          	jalr	1040(ra) # 1d776 <memcpy>
   1c36e:	0184d513          	srli	a0,s1,0x18
   1c372:	0104d593          	srli	a1,s1,0x10
   1c376:	0084d613          	srli	a2,s1,0x8
   1c37a:	4e940aa3          	sb	s1,1269(s0)
   1c37e:	4ec40b23          	sb	a2,1270(s0)
   1c382:	4eb40ba3          	sb	a1,1271(s0)
   1c386:	4ea40c23          	sb	a0,1272(s0)
   1c38a:	7ff10513          	addi	a0,sp,2047
   1c38e:	48c50513          	addi	a0,a0,1164
   1c392:	6585                	lui	a1,0x1
   1c394:	32458593          	addi	a1,a1,804 # 1324 <.Lline_table_start1+0x10f9>
   1c398:	958a                	add	a1,a1,sp
   1c39a:	04c00613          	li	a2,76
   1c39e:	00001097          	auipc	ra,0x1
   1c3a2:	3d8080e7          	jalr	984(ra) # 1d776 <memcpy>
   1c3a6:	6505                	lui	a0,0x1
   1c3a8:	38050513          	addi	a0,a0,896 # 1380 <.Lline_table_start1+0x1155>
   1c3ac:	950a                	add	a0,a0,sp
   1c3ae:	7ff10593          	addi	a1,sp,2047
   1c3b2:	48558593          	addi	a1,a1,1157
   1c3b6:	ffff6097          	auipc	ra,0xffff6
   1c3ba:	bb0080e7          	jalr	-1104(ra) # 11f66 <_ZN20complex_dynamic_type3app17h226beaebc5764b06E>
   1c3be:	3eca4503          	lbu	a0,1004(s4)
   1c3c2:	c119                	beqz	a0,1c3c8 <_start+0x2d7a>
   1c3c4:	33a0106f          	j	1d6fe <_start+0x40b0>
   1c3c8:	3eea4503          	lbu	a0,1006(s4)
   1c3cc:	3eda4583          	lbu	a1,1005(s4)
   1c3d0:	3efa4603          	lbu	a2,1007(s4)
   1c3d4:	3f0a2483          	lw	s1,1008(s4)
   1c3d8:	0522                	slli	a0,a0,0x8
   1c3da:	8d4d                	or	a0,a0,a1
   1c3dc:	54a41323          	sh	a0,1350(s0)
   1c3e0:	54c40423          	sb	a2,1352(s0)
   1c3e4:	6505                	lui	a0,0x1
   1c3e6:	38850513          	addi	a0,a0,904 # 1388 <.Lline_table_start1+0x115d>
   1c3ea:	00a105b3          	add	a1,sp,a0
   1c3ee:	6505                	lui	a0,0x1
   1c3f0:	32450513          	addi	a0,a0,804 # 1324 <.Lline_table_start1+0x10f9>
   1c3f4:	950a                	add	a0,a0,sp
   1c3f6:	03300613          	li	a2,51
   1c3fa:	00001097          	auipc	ra,0x1
   1c3fe:	37c080e7          	jalr	892(ra) # 1d776 <memcpy>
   1c402:	0184d513          	srli	a0,s1,0x18
   1c406:	0104d593          	srli	a1,s1,0x10
   1c40a:	0084d613          	srli	a2,s1,0x8
   1c40e:	549404a3          	sb	s1,1353(s0)
   1c412:	54c40523          	sb	a2,1354(s0)
   1c416:	54b405a3          	sb	a1,1355(s0)
   1c41a:	54a40623          	sb	a0,1356(s0)
   1c41e:	7ff10513          	addi	a0,sp,2047
   1c422:	4e050513          	addi	a0,a0,1248
   1c426:	6585                	lui	a1,0x1
   1c428:	32458593          	addi	a1,a1,804 # 1324 <.Lline_table_start1+0x10f9>
   1c42c:	958a                	add	a1,a1,sp
   1c42e:	03300613          	li	a2,51
   1c432:	00001097          	auipc	ra,0x1
   1c436:	344080e7          	jalr	836(ra) # 1d776 <memcpy>
   1c43a:	6505                	lui	a0,0x1
   1c43c:	38050513          	addi	a0,a0,896 # 1380 <.Lline_table_start1+0x1155>
   1c440:	950a                	add	a0,a0,sp
   1c442:	7ff10593          	addi	a1,sp,2047
   1c446:	4d958593          	addi	a1,a1,1241
   1c44a:	ffff5097          	auipc	ra,0xffff5
   1c44e:	120080e7          	jalr	288(ra) # 1156a <_ZN20complex_dynamic_type3app17h10ef4236adb518a5E>
   1c452:	3eca4503          	lbu	a0,1004(s4)
   1c456:	c119                	beqz	a0,1c45c <_start+0x2e0e>
   1c458:	2a60106f          	j	1d6fe <_start+0x40b0>
   1c45c:	3eea4503          	lbu	a0,1006(s4)
   1c460:	3eda4583          	lbu	a1,1005(s4)
   1c464:	3efa4603          	lbu	a2,1007(s4)
   1c468:	3f0a2483          	lw	s1,1008(s4)
   1c46c:	0522                	slli	a0,a0,0x8
   1c46e:	8d4d                	or	a0,a0,a1
   1c470:	58a41023          	sh	a0,1408(s0)
   1c474:	58c40123          	sb	a2,1410(s0)
   1c478:	6505                	lui	a0,0x1
   1c47a:	38850513          	addi	a0,a0,904 # 1388 <.Lline_table_start1+0x115d>
   1c47e:	00a105b3          	add	a1,sp,a0
   1c482:	6505                	lui	a0,0x1
   1c484:	32450513          	addi	a0,a0,804 # 1324 <.Lline_table_start1+0x10f9>
   1c488:	950a                	add	a0,a0,sp
   1c48a:	05600613          	li	a2,86
   1c48e:	00001097          	auipc	ra,0x1
   1c492:	2e8080e7          	jalr	744(ra) # 1d776 <memcpy>
   1c496:	0184d513          	srli	a0,s1,0x18
   1c49a:	0104d593          	srli	a1,s1,0x10
   1c49e:	0084d613          	srli	a2,s1,0x8
   1c4a2:	589401a3          	sb	s1,1411(s0)
   1c4a6:	58c40223          	sb	a2,1412(s0)
   1c4aa:	58b402a3          	sb	a1,1413(s0)
   1c4ae:	58a40323          	sb	a0,1414(s0)
   1c4b2:	7ff10513          	addi	a0,sp,2047
   1c4b6:	51a50513          	addi	a0,a0,1306
   1c4ba:	6585                	lui	a1,0x1
   1c4bc:	32458593          	addi	a1,a1,804 # 1324 <.Lline_table_start1+0x10f9>
   1c4c0:	958a                	add	a1,a1,sp
   1c4c2:	05600613          	li	a2,86
   1c4c6:	00001097          	auipc	ra,0x1
   1c4ca:	2b0080e7          	jalr	688(ra) # 1d776 <memcpy>
   1c4ce:	6505                	lui	a0,0x1
   1c4d0:	38050513          	addi	a0,a0,896 # 1380 <.Lline_table_start1+0x1155>
   1c4d4:	950a                	add	a0,a0,sp
   1c4d6:	7ff10593          	addi	a1,sp,2047
   1c4da:	51358593          	addi	a1,a1,1299
   1c4de:	ffffb097          	auipc	ra,0xffffb
   1c4e2:	f44080e7          	jalr	-188(ra) # 17422 <_ZN20complex_dynamic_type3app17hd0025d3ac9de1c55E>
   1c4e6:	3eca4503          	lbu	a0,1004(s4)
   1c4ea:	c119                	beqz	a0,1c4f0 <_start+0x2ea2>
   1c4ec:	2120106f          	j	1d6fe <_start+0x40b0>
   1c4f0:	3eea4503          	lbu	a0,1006(s4)
   1c4f4:	3eda4583          	lbu	a1,1005(s4)
   1c4f8:	3efa4603          	lbu	a2,1007(s4)
   1c4fc:	3f0a2483          	lw	s1,1008(s4)
   1c500:	0522                	slli	a0,a0,0x8
   1c502:	8d4d                	or	a0,a0,a1
   1c504:	5ca41f23          	sh	a0,1502(s0)
   1c508:	5ec40023          	sb	a2,1504(s0)
   1c50c:	6505                	lui	a0,0x1
   1c50e:	38850513          	addi	a0,a0,904 # 1388 <.Lline_table_start1+0x115d>
   1c512:	00a105b3          	add	a1,sp,a0
   1c516:	6505                	lui	a0,0x1
   1c518:	32450513          	addi	a0,a0,804 # 1324 <.Lline_table_start1+0x10f9>
   1c51c:	950a                	add	a0,a0,sp
   1c51e:	03900613          	li	a2,57
   1c522:	00001097          	auipc	ra,0x1
   1c526:	254080e7          	jalr	596(ra) # 1d776 <memcpy>
   1c52a:	0184d513          	srli	a0,s1,0x18
   1c52e:	0104d593          	srli	a1,s1,0x10
   1c532:	0084d613          	srli	a2,s1,0x8
   1c536:	5e9400a3          	sb	s1,1505(s0)
   1c53a:	5ec40123          	sb	a2,1506(s0)
   1c53e:	5eb401a3          	sb	a1,1507(s0)
   1c542:	5ea40223          	sb	a0,1508(s0)
   1c546:	7ff10513          	addi	a0,sp,2047
   1c54a:	57850513          	addi	a0,a0,1400
   1c54e:	6585                	lui	a1,0x1
   1c550:	32458593          	addi	a1,a1,804 # 1324 <.Lline_table_start1+0x10f9>
   1c554:	958a                	add	a1,a1,sp
   1c556:	03900613          	li	a2,57
   1c55a:	00001097          	auipc	ra,0x1
   1c55e:	21c080e7          	jalr	540(ra) # 1d776 <memcpy>
   1c562:	6505                	lui	a0,0x1
   1c564:	38050513          	addi	a0,a0,896 # 1380 <.Lline_table_start1+0x1155>
   1c568:	950a                	add	a0,a0,sp
   1c56a:	7ff10593          	addi	a1,sp,2047
   1c56e:	57158593          	addi	a1,a1,1393
   1c572:	ffff8097          	auipc	ra,0xffff8
   1c576:	16a080e7          	jalr	362(ra) # 146dc <_ZN20complex_dynamic_type3app17h678235a16cedfcb4E>
   1c57a:	3eca4503          	lbu	a0,1004(s4)
   1c57e:	c119                	beqz	a0,1c584 <_start+0x2f36>
   1c580:	17e0106f          	j	1d6fe <_start+0x40b0>
   1c584:	3eea4503          	lbu	a0,1006(s4)
   1c588:	3eda4583          	lbu	a1,1005(s4)
   1c58c:	3efa4603          	lbu	a2,1007(s4)
   1c590:	3f0a2483          	lw	s1,1008(s4)
   1c594:	0522                	slli	a0,a0,0x8
   1c596:	8d4d                	or	a0,a0,a1
   1c598:	60a41f23          	sh	a0,1566(s0)
   1c59c:	62c40023          	sb	a2,1568(s0)
   1c5a0:	6505                	lui	a0,0x1
   1c5a2:	38850513          	addi	a0,a0,904 # 1388 <.Lline_table_start1+0x115d>
   1c5a6:	00a105b3          	add	a1,sp,a0
   1c5aa:	6505                	lui	a0,0x1
   1c5ac:	32450513          	addi	a0,a0,804 # 1324 <.Lline_table_start1+0x10f9>
   1c5b0:	950a                	add	a0,a0,sp
   1c5b2:	02a00613          	li	a2,42
   1c5b6:	00001097          	auipc	ra,0x1
   1c5ba:	1c0080e7          	jalr	448(ra) # 1d776 <memcpy>
   1c5be:	0184d513          	srli	a0,s1,0x18
   1c5c2:	0104d593          	srli	a1,s1,0x10
   1c5c6:	0084d613          	srli	a2,s1,0x8
   1c5ca:	629400a3          	sb	s1,1569(s0)
   1c5ce:	62c40123          	sb	a2,1570(s0)
   1c5d2:	62b401a3          	sb	a1,1571(s0)
   1c5d6:	62a40223          	sb	a0,1572(s0)
   1c5da:	7ff10513          	addi	a0,sp,2047
   1c5de:	5b850513          	addi	a0,a0,1464
   1c5e2:	6585                	lui	a1,0x1
   1c5e4:	32458593          	addi	a1,a1,804 # 1324 <.Lline_table_start1+0x10f9>
   1c5e8:	958a                	add	a1,a1,sp
   1c5ea:	02a00613          	li	a2,42
   1c5ee:	00001097          	auipc	ra,0x1
   1c5f2:	188080e7          	jalr	392(ra) # 1d776 <memcpy>
   1c5f6:	6505                	lui	a0,0x1
   1c5f8:	38050513          	addi	a0,a0,896 # 1380 <.Lline_table_start1+0x1155>
   1c5fc:	950a                	add	a0,a0,sp
   1c5fe:	7ff10593          	addi	a1,sp,2047
   1c602:	5b158593          	addi	a1,a1,1457
   1c606:	ffffa097          	auipc	ra,0xffffa
   1c60a:	5ac080e7          	jalr	1452(ra) # 16bb2 <_ZN20complex_dynamic_type3app17hbbd4d598de420c38E>
   1c60e:	3eca4503          	lbu	a0,1004(s4)
   1c612:	c119                	beqz	a0,1c618 <_start+0x2fca>
   1c614:	0ea0106f          	j	1d6fe <_start+0x40b0>
   1c618:	3eea4503          	lbu	a0,1006(s4)
   1c61c:	3eda4583          	lbu	a1,1005(s4)
   1c620:	3efa4603          	lbu	a2,1007(s4)
   1c624:	3f0a2483          	lw	s1,1008(s4)
   1c628:	0522                	slli	a0,a0,0x8
   1c62a:	8d4d                	or	a0,a0,a1
   1c62c:	64a41823          	sh	a0,1616(s0)
   1c630:	64c40923          	sb	a2,1618(s0)
   1c634:	6505                	lui	a0,0x1
   1c636:	38850513          	addi	a0,a0,904 # 1388 <.Lline_table_start1+0x115d>
   1c63a:	00a105b3          	add	a1,sp,a0
   1c63e:	6505                	lui	a0,0x1
   1c640:	32450513          	addi	a0,a0,804 # 1324 <.Lline_table_start1+0x10f9>
   1c644:	950a                	add	a0,a0,sp
   1c646:	04100613          	li	a2,65
   1c64a:	00001097          	auipc	ra,0x1
   1c64e:	12c080e7          	jalr	300(ra) # 1d776 <memcpy>
   1c652:	0184d513          	srli	a0,s1,0x18
   1c656:	0104d593          	srli	a1,s1,0x10
   1c65a:	0084d613          	srli	a2,s1,0x8
   1c65e:	649409a3          	sb	s1,1619(s0)
   1c662:	64c40a23          	sb	a2,1620(s0)
   1c666:	64b40aa3          	sb	a1,1621(s0)
   1c66a:	64a40b23          	sb	a0,1622(s0)
   1c66e:	7ff10513          	addi	a0,sp,2047
   1c672:	5ea50513          	addi	a0,a0,1514
   1c676:	6585                	lui	a1,0x1
   1c678:	32458593          	addi	a1,a1,804 # 1324 <.Lline_table_start1+0x10f9>
   1c67c:	958a                	add	a1,a1,sp
   1c67e:	04100613          	li	a2,65
   1c682:	00001097          	auipc	ra,0x1
   1c686:	0f4080e7          	jalr	244(ra) # 1d776 <memcpy>
   1c68a:	6505                	lui	a0,0x1
   1c68c:	38050513          	addi	a0,a0,896 # 1380 <.Lline_table_start1+0x1155>
   1c690:	950a                	add	a0,a0,sp
   1c692:	7ff10593          	addi	a1,sp,2047
   1c696:	5e358593          	addi	a1,a1,1507
   1c69a:	ffffa097          	auipc	ra,0xffffa
   1c69e:	c96080e7          	jalr	-874(ra) # 16330 <_ZN20complex_dynamic_type3app17hae15be0f89d7c9c2E>
   1c6a2:	3eca4503          	lbu	a0,1004(s4)
   1c6a6:	c119                	beqz	a0,1c6ac <_start+0x305e>
   1c6a8:	0560106f          	j	1d6fe <_start+0x40b0>
   1c6ac:	3eea4503          	lbu	a0,1006(s4)
   1c6b0:	3eda4583          	lbu	a1,1005(s4)
   1c6b4:	3efa4603          	lbu	a2,1007(s4)
   1c6b8:	3f0a2483          	lw	s1,1008(s4)
   1c6bc:	0522                	slli	a0,a0,0x8
   1c6be:	8d4d                	or	a0,a0,a1
   1c6c0:	68a41c23          	sh	a0,1688(s0)
   1c6c4:	68c40d23          	sb	a2,1690(s0)
   1c6c8:	6505                	lui	a0,0x1
   1c6ca:	38850513          	addi	a0,a0,904 # 1388 <.Lline_table_start1+0x115d>
   1c6ce:	00a105b3          	add	a1,sp,a0
   1c6d2:	6505                	lui	a0,0x1
   1c6d4:	32450513          	addi	a0,a0,804 # 1324 <.Lline_table_start1+0x10f9>
   1c6d8:	950a                	add	a0,a0,sp
   1c6da:	02200613          	li	a2,34
   1c6de:	00001097          	auipc	ra,0x1
   1c6e2:	098080e7          	jalr	152(ra) # 1d776 <memcpy>
   1c6e6:	0184d513          	srli	a0,s1,0x18
   1c6ea:	0104d593          	srli	a1,s1,0x10
   1c6ee:	0084d613          	srli	a2,s1,0x8
   1c6f2:	68940da3          	sb	s1,1691(s0)
   1c6f6:	68c40e23          	sb	a2,1692(s0)
   1c6fa:	68b40ea3          	sb	a1,1693(s0)
   1c6fe:	68a40f23          	sb	a0,1694(s0)
   1c702:	7ff10513          	addi	a0,sp,2047
   1c706:	63250513          	addi	a0,a0,1586
   1c70a:	6585                	lui	a1,0x1
   1c70c:	32458593          	addi	a1,a1,804 # 1324 <.Lline_table_start1+0x10f9>
   1c710:	958a                	add	a1,a1,sp
   1c712:	02200613          	li	a2,34
   1c716:	00001097          	auipc	ra,0x1
   1c71a:	060080e7          	jalr	96(ra) # 1d776 <memcpy>
   1c71e:	6505                	lui	a0,0x1
   1c720:	38050513          	addi	a0,a0,896 # 1380 <.Lline_table_start1+0x1155>
   1c724:	950a                	add	a0,a0,sp
   1c726:	7ff10593          	addi	a1,sp,2047
   1c72a:	62b58593          	addi	a1,a1,1579
   1c72e:	ffffa097          	auipc	ra,0xffffa
   1c732:	040080e7          	jalr	64(ra) # 1676e <_ZN20complex_dynamic_type3app17hb9108298ad84c89dE>
   1c736:	3eca4503          	lbu	a0,1004(s4)
   1c73a:	7c0512e3          	bnez	a0,1d6fe <_start+0x40b0>
   1c73e:	3eea4503          	lbu	a0,1006(s4)
   1c742:	3eda4583          	lbu	a1,1005(s4)
   1c746:	3efa4603          	lbu	a2,1007(s4)
   1c74a:	3f0a2483          	lw	s1,1008(s4)
   1c74e:	0522                	slli	a0,a0,0x8
   1c750:	8d4d                	or	a0,a0,a1
   1c752:	6ca41123          	sh	a0,1730(s0)
   1c756:	6cc40223          	sb	a2,1732(s0)
   1c75a:	6505                	lui	a0,0x1
   1c75c:	38850513          	addi	a0,a0,904 # 1388 <.Lline_table_start1+0x115d>
   1c760:	00a105b3          	add	a1,sp,a0
   1c764:	6505                	lui	a0,0x1
   1c766:	32450513          	addi	a0,a0,804 # 1324 <.Lline_table_start1+0x10f9>
   1c76a:	950a                	add	a0,a0,sp
   1c76c:	464d                	li	a2,19
   1c76e:	00001097          	auipc	ra,0x1
   1c772:	008080e7          	jalr	8(ra) # 1d776 <memcpy>
   1c776:	0184d513          	srli	a0,s1,0x18
   1c77a:	0104d593          	srli	a1,s1,0x10
   1c77e:	0084d613          	srli	a2,s1,0x8
   1c782:	6c9402a3          	sb	s1,1733(s0)
   1c786:	6cc40323          	sb	a2,1734(s0)
   1c78a:	6cb403a3          	sb	a1,1735(s0)
   1c78e:	6ca40423          	sb	a0,1736(s0)
   1c792:	7ff10513          	addi	a0,sp,2047
   1c796:	65c50513          	addi	a0,a0,1628
   1c79a:	6585                	lui	a1,0x1
   1c79c:	32458593          	addi	a1,a1,804 # 1324 <.Lline_table_start1+0x10f9>
   1c7a0:	958a                	add	a1,a1,sp
   1c7a2:	464d                	li	a2,19
   1c7a4:	00001097          	auipc	ra,0x1
   1c7a8:	fd2080e7          	jalr	-46(ra) # 1d776 <memcpy>
   1c7ac:	6505                	lui	a0,0x1
   1c7ae:	38050513          	addi	a0,a0,896 # 1380 <.Lline_table_start1+0x1155>
   1c7b2:	950a                	add	a0,a0,sp
   1c7b4:	7ff10593          	addi	a1,sp,2047
   1c7b8:	65558593          	addi	a1,a1,1621
   1c7bc:	ffff6097          	auipc	ra,0xffff6
   1c7c0:	a74080e7          	jalr	-1420(ra) # 12230 <_ZN20complex_dynamic_type3app17h2d69aa536abe8cfcE>
   1c7c4:	3eca4503          	lbu	a0,1004(s4)
   1c7c8:	72051be3          	bnez	a0,1d6fe <_start+0x40b0>
   1c7cc:	3eea4503          	lbu	a0,1006(s4)
   1c7d0:	3eda4583          	lbu	a1,1005(s4)
   1c7d4:	3efa4603          	lbu	a2,1007(s4)
   1c7d8:	3f0a2483          	lw	s1,1008(s4)
   1c7dc:	0522                	slli	a0,a0,0x8
   1c7de:	8d4d                	or	a0,a0,a1
   1c7e0:	6ca41e23          	sh	a0,1756(s0)
   1c7e4:	6cc40f23          	sb	a2,1758(s0)
   1c7e8:	6505                	lui	a0,0x1
   1c7ea:	38850513          	addi	a0,a0,904 # 1388 <.Lline_table_start1+0x115d>
   1c7ee:	00a105b3          	add	a1,sp,a0
   1c7f2:	6505                	lui	a0,0x1
   1c7f4:	32450513          	addi	a0,a0,804 # 1324 <.Lline_table_start1+0x10f9>
   1c7f8:	950a                	add	a0,a0,sp
   1c7fa:	4651                	li	a2,20
   1c7fc:	00001097          	auipc	ra,0x1
   1c800:	f7a080e7          	jalr	-134(ra) # 1d776 <memcpy>
   1c804:	0184d513          	srli	a0,s1,0x18
   1c808:	0104d593          	srli	a1,s1,0x10
   1c80c:	0084d613          	srli	a2,s1,0x8
   1c810:	6c940fa3          	sb	s1,1759(s0)
   1c814:	6ec40023          	sb	a2,1760(s0)
   1c818:	6eb400a3          	sb	a1,1761(s0)
   1c81c:	6ea40123          	sb	a0,1762(s0)
   1c820:	7ff10513          	addi	a0,sp,2047
   1c824:	67650513          	addi	a0,a0,1654
   1c828:	6585                	lui	a1,0x1
   1c82a:	32458593          	addi	a1,a1,804 # 1324 <.Lline_table_start1+0x10f9>
   1c82e:	958a                	add	a1,a1,sp
   1c830:	4651                	li	a2,20
   1c832:	00001097          	auipc	ra,0x1
   1c836:	f44080e7          	jalr	-188(ra) # 1d776 <memcpy>
   1c83a:	6505                	lui	a0,0x1
   1c83c:	38050513          	addi	a0,a0,896 # 1380 <.Lline_table_start1+0x1155>
   1c840:	950a                	add	a0,a0,sp
   1c842:	7ff10593          	addi	a1,sp,2047
   1c846:	66f58593          	addi	a1,a1,1647
   1c84a:	ffffb097          	auipc	ra,0xffffb
   1c84e:	908080e7          	jalr	-1784(ra) # 17152 <_ZN20complex_dynamic_type3app17hccdcc8bbb55d234fE>
   1c852:	3eca4503          	lbu	a0,1004(s4)
   1c856:	6a0514e3          	bnez	a0,1d6fe <_start+0x40b0>
   1c85a:	3eea4503          	lbu	a0,1006(s4)
   1c85e:	3eda4583          	lbu	a1,1005(s4)
   1c862:	3efa4603          	lbu	a2,1007(s4)
   1c866:	3f0a2483          	lw	s1,1008(s4)
   1c86a:	0522                	slli	a0,a0,0x8
   1c86c:	8d4d                	or	a0,a0,a1
   1c86e:	6ea41c23          	sh	a0,1784(s0)
   1c872:	6ec40d23          	sb	a2,1786(s0)
   1c876:	6505                	lui	a0,0x1
   1c878:	38850513          	addi	a0,a0,904 # 1388 <.Lline_table_start1+0x115d>
   1c87c:	00a105b3          	add	a1,sp,a0
   1c880:	6505                	lui	a0,0x1
   1c882:	32450513          	addi	a0,a0,804 # 1324 <.Lline_table_start1+0x10f9>
   1c886:	950a                	add	a0,a0,sp
   1c888:	03a00613          	li	a2,58
   1c88c:	00001097          	auipc	ra,0x1
   1c890:	eea080e7          	jalr	-278(ra) # 1d776 <memcpy>
   1c894:	0184d513          	srli	a0,s1,0x18
   1c898:	0104d593          	srli	a1,s1,0x10
   1c89c:	0084d613          	srli	a2,s1,0x8
   1c8a0:	6e940da3          	sb	s1,1787(s0)
   1c8a4:	6ec40e23          	sb	a2,1788(s0)
   1c8a8:	6eb40ea3          	sb	a1,1789(s0)
   1c8ac:	6ea40f23          	sb	a0,1790(s0)
   1c8b0:	7ff10513          	addi	a0,sp,2047
   1c8b4:	69250513          	addi	a0,a0,1682
   1c8b8:	6585                	lui	a1,0x1
   1c8ba:	32458593          	addi	a1,a1,804 # 1324 <.Lline_table_start1+0x10f9>
   1c8be:	958a                	add	a1,a1,sp
   1c8c0:	03a00613          	li	a2,58
   1c8c4:	00001097          	auipc	ra,0x1
   1c8c8:	eb2080e7          	jalr	-334(ra) # 1d776 <memcpy>
   1c8cc:	6505                	lui	a0,0x1
   1c8ce:	38050513          	addi	a0,a0,896 # 1380 <.Lline_table_start1+0x1155>
   1c8d2:	950a                	add	a0,a0,sp
   1c8d4:	7ff10593          	addi	a1,sp,2047
   1c8d8:	68b58593          	addi	a1,a1,1675
   1c8dc:	ffff8097          	auipc	ra,0xffff8
   1c8e0:	868080e7          	jalr	-1944(ra) # 14144 <_ZN20complex_dynamic_type3app17h5dac077b4e6581d1E>
   1c8e4:	3eca4503          	lbu	a0,1004(s4)
   1c8e8:	60051be3          	bnez	a0,1d6fe <_start+0x40b0>
   1c8ec:	3eea4503          	lbu	a0,1006(s4)
   1c8f0:	3eda4583          	lbu	a1,1005(s4)
   1c8f4:	3efa4603          	lbu	a2,1007(s4)
   1c8f8:	3f0a2483          	lw	s1,1008(s4)
   1c8fc:	0522                	slli	a0,a0,0x8
   1c8fe:	8d4d                	or	a0,a0,a1
   1c900:	72a41d23          	sh	a0,1850(s0)
   1c904:	72c40e23          	sb	a2,1852(s0)
   1c908:	6505                	lui	a0,0x1
   1c90a:	38850513          	addi	a0,a0,904 # 1388 <.Lline_table_start1+0x115d>
   1c90e:	00a105b3          	add	a1,sp,a0
   1c912:	6505                	lui	a0,0x1
   1c914:	32450513          	addi	a0,a0,804 # 1324 <.Lline_table_start1+0x10f9>
   1c918:	950a                	add	a0,a0,sp
   1c91a:	4645                	li	a2,17
   1c91c:	00001097          	auipc	ra,0x1
   1c920:	e5a080e7          	jalr	-422(ra) # 1d776 <memcpy>
   1c924:	0184d513          	srli	a0,s1,0x18
   1c928:	0104d593          	srli	a1,s1,0x10
   1c92c:	0084d613          	srli	a2,s1,0x8
   1c930:	72940ea3          	sb	s1,1853(s0)
   1c934:	72c40f23          	sb	a2,1854(s0)
   1c938:	72b40fa3          	sb	a1,1855(s0)
   1c93c:	74a40023          	sb	a0,1856(s0)
   1c940:	7ff10513          	addi	a0,sp,2047
   1c944:	6d450513          	addi	a0,a0,1748
   1c948:	6585                	lui	a1,0x1
   1c94a:	32458593          	addi	a1,a1,804 # 1324 <.Lline_table_start1+0x10f9>
   1c94e:	958a                	add	a1,a1,sp
   1c950:	4645                	li	a2,17
   1c952:	00001097          	auipc	ra,0x1
   1c956:	e24080e7          	jalr	-476(ra) # 1d776 <memcpy>
   1c95a:	6505                	lui	a0,0x1
   1c95c:	38050513          	addi	a0,a0,896 # 1380 <.Lline_table_start1+0x1155>
   1c960:	950a                	add	a0,a0,sp
   1c962:	7ff10593          	addi	a1,sp,2047
   1c966:	6cd58593          	addi	a1,a1,1741
   1c96a:	ffff6097          	auipc	ra,0xffff6
   1c96e:	13a080e7          	jalr	314(ra) # 12aa4 <_ZN20complex_dynamic_type3app17h3778b739e63dd9c8E>
   1c972:	3eca4503          	lbu	a0,1004(s4)
   1c976:	580514e3          	bnez	a0,1d6fe <_start+0x40b0>
   1c97a:	3eea4503          	lbu	a0,1006(s4)
   1c97e:	3eda4583          	lbu	a1,1005(s4)
   1c982:	3efa4603          	lbu	a2,1007(s4)
   1c986:	3f0a2483          	lw	s1,1008(s4)
   1c98a:	0522                	slli	a0,a0,0x8
   1c98c:	8d4d                	or	a0,a0,a1
   1c98e:	74a41923          	sh	a0,1874(s0)
   1c992:	74c40a23          	sb	a2,1876(s0)
   1c996:	6505                	lui	a0,0x1
   1c998:	38850513          	addi	a0,a0,904 # 1388 <.Lline_table_start1+0x115d>
   1c99c:	00a105b3          	add	a1,sp,a0
   1c9a0:	6505                	lui	a0,0x1
   1c9a2:	32450513          	addi	a0,a0,804 # 1324 <.Lline_table_start1+0x10f9>
   1c9a6:	950a                	add	a0,a0,sp
   1c9a8:	465d                	li	a2,23
   1c9aa:	00001097          	auipc	ra,0x1
   1c9ae:	dcc080e7          	jalr	-564(ra) # 1d776 <memcpy>
   1c9b2:	0184d513          	srli	a0,s1,0x18
   1c9b6:	0104d593          	srli	a1,s1,0x10
   1c9ba:	0084d613          	srli	a2,s1,0x8
   1c9be:	74940aa3          	sb	s1,1877(s0)
   1c9c2:	74c40b23          	sb	a2,1878(s0)
   1c9c6:	74b40ba3          	sb	a1,1879(s0)
   1c9ca:	74a40c23          	sb	a0,1880(s0)
   1c9ce:	7ff10513          	addi	a0,sp,2047
   1c9d2:	6ec50513          	addi	a0,a0,1772
   1c9d6:	6585                	lui	a1,0x1
   1c9d8:	32458593          	addi	a1,a1,804 # 1324 <.Lline_table_start1+0x10f9>
   1c9dc:	958a                	add	a1,a1,sp
   1c9de:	465d                	li	a2,23
   1c9e0:	00001097          	auipc	ra,0x1
   1c9e4:	d96080e7          	jalr	-618(ra) # 1d776 <memcpy>
   1c9e8:	6505                	lui	a0,0x1
   1c9ea:	38050513          	addi	a0,a0,896 # 1380 <.Lline_table_start1+0x1155>
   1c9ee:	950a                	add	a0,a0,sp
   1c9f0:	7ff10593          	addi	a1,sp,2047
   1c9f4:	6e558593          	addi	a1,a1,1765
   1c9f8:	ffff9097          	auipc	ra,0xffff9
   1c9fc:	c78080e7          	jalr	-904(ra) # 15670 <_ZN20complex_dynamic_type3app17h94b4e2ab1fec56bbE>
   1ca00:	3eca4503          	lbu	a0,1004(s4)
   1ca04:	4e051de3          	bnez	a0,1d6fe <_start+0x40b0>
   1ca08:	3eea4503          	lbu	a0,1006(s4)
   1ca0c:	3eda4583          	lbu	a1,1005(s4)
   1ca10:	3efa4603          	lbu	a2,1007(s4)
   1ca14:	3f0a2483          	lw	s1,1008(s4)
   1ca18:	0522                	slli	a0,a0,0x8
   1ca1a:	8d4d                	or	a0,a0,a1
   1ca1c:	76a41823          	sh	a0,1904(s0)
   1ca20:	76c40923          	sb	a2,1906(s0)
   1ca24:	6505                	lui	a0,0x1
   1ca26:	38850513          	addi	a0,a0,904 # 1388 <.Lline_table_start1+0x115d>
   1ca2a:	00a105b3          	add	a1,sp,a0
   1ca2e:	6505                	lui	a0,0x1
   1ca30:	32450513          	addi	a0,a0,804 # 1324 <.Lline_table_start1+0x10f9>
   1ca34:	950a                	add	a0,a0,sp
   1ca36:	03500613          	li	a2,53
   1ca3a:	00001097          	auipc	ra,0x1
   1ca3e:	d3c080e7          	jalr	-708(ra) # 1d776 <memcpy>
   1ca42:	0184d513          	srli	a0,s1,0x18
   1ca46:	0104d593          	srli	a1,s1,0x10
   1ca4a:	0084d613          	srli	a2,s1,0x8
   1ca4e:	769409a3          	sb	s1,1907(s0)
   1ca52:	76c40a23          	sb	a2,1908(s0)
   1ca56:	76b40aa3          	sb	a1,1909(s0)
   1ca5a:	76a40b23          	sb	a0,1910(s0)
   1ca5e:	7ff10513          	addi	a0,sp,2047
   1ca62:	70a50513          	addi	a0,a0,1802
   1ca66:	6585                	lui	a1,0x1
   1ca68:	32458593          	addi	a1,a1,804 # 1324 <.Lline_table_start1+0x10f9>
   1ca6c:	958a                	add	a1,a1,sp
   1ca6e:	03500613          	li	a2,53
   1ca72:	00001097          	auipc	ra,0x1
   1ca76:	d04080e7          	jalr	-764(ra) # 1d776 <memcpy>
   1ca7a:	6505                	lui	a0,0x1
   1ca7c:	38050513          	addi	a0,a0,896 # 1380 <.Lline_table_start1+0x1155>
   1ca80:	950a                	add	a0,a0,sp
   1ca82:	7ff10593          	addi	a1,sp,2047
   1ca86:	70358593          	addi	a1,a1,1795
   1ca8a:	ffffc097          	auipc	ra,0xffffc
   1ca8e:	942080e7          	jalr	-1726(ra) # 183cc <_ZN20complex_dynamic_type3app17he35853783d7138f3E>
   1ca92:	3eca4503          	lbu	a0,1004(s4)
   1ca96:	460514e3          	bnez	a0,1d6fe <_start+0x40b0>
   1ca9a:	3eea4503          	lbu	a0,1006(s4)
   1ca9e:	3eda4583          	lbu	a1,1005(s4)
   1caa2:	3efa4603          	lbu	a2,1007(s4)
   1caa6:	3f0a2483          	lw	s1,1008(s4)
   1caaa:	0522                	slli	a0,a0,0x8
   1caac:	8d4d                	or	a0,a0,a1
   1caae:	7aa41623          	sh	a0,1964(s0)
   1cab2:	7ac40723          	sb	a2,1966(s0)
   1cab6:	6505                	lui	a0,0x1
   1cab8:	38850513          	addi	a0,a0,904 # 1388 <.Lline_table_start1+0x115d>
   1cabc:	00a105b3          	add	a1,sp,a0
   1cac0:	6505                	lui	a0,0x1
   1cac2:	32450513          	addi	a0,a0,804 # 1324 <.Lline_table_start1+0x10f9>
   1cac6:	950a                	add	a0,a0,sp
   1cac8:	02500613          	li	a2,37
   1cacc:	00001097          	auipc	ra,0x1
   1cad0:	caa080e7          	jalr	-854(ra) # 1d776 <memcpy>
   1cad4:	0184d513          	srli	a0,s1,0x18
   1cad8:	0104d593          	srli	a1,s1,0x10
   1cadc:	0084d613          	srli	a2,s1,0x8
   1cae0:	7a9407a3          	sb	s1,1967(s0)
   1cae4:	7ac40823          	sb	a2,1968(s0)
   1cae8:	7ab408a3          	sb	a1,1969(s0)
   1caec:	7aa40923          	sb	a0,1970(s0)
   1caf0:	7ff10513          	addi	a0,sp,2047
   1caf4:	74650513          	addi	a0,a0,1862
   1caf8:	6585                	lui	a1,0x1
   1cafa:	32458593          	addi	a1,a1,804 # 1324 <.Lline_table_start1+0x10f9>
   1cafe:	958a                	add	a1,a1,sp
   1cb00:	02500613          	li	a2,37
   1cb04:	00001097          	auipc	ra,0x1
   1cb08:	c72080e7          	jalr	-910(ra) # 1d776 <memcpy>
   1cb0c:	6505                	lui	a0,0x1
   1cb0e:	38050513          	addi	a0,a0,896 # 1380 <.Lline_table_start1+0x1155>
   1cb12:	950a                	add	a0,a0,sp
   1cb14:	7ff10593          	addi	a1,sp,2047
   1cb18:	73f58593          	addi	a1,a1,1855
   1cb1c:	ffffc097          	auipc	ra,0xffffc
   1cb20:	6ec080e7          	jalr	1772(ra) # 19208 <_ZN20complex_dynamic_type3app17hfbbf692ff8a99e22E>
   1cb24:	3eca4503          	lbu	a0,1004(s4)
   1cb28:	3c051be3          	bnez	a0,1d6fe <_start+0x40b0>
   1cb2c:	3eea4503          	lbu	a0,1006(s4)
   1cb30:	3eda4583          	lbu	a1,1005(s4)
   1cb34:	3efa4603          	lbu	a2,1007(s4)
   1cb38:	3f0a2483          	lw	s1,1008(s4)
   1cb3c:	0522                	slli	a0,a0,0x8
   1cb3e:	8d4d                	or	a0,a0,a1
   1cb40:	7ca41c23          	sh	a0,2008(s0)
   1cb44:	7cc40d23          	sb	a2,2010(s0)
   1cb48:	6505                	lui	a0,0x1
   1cb4a:	38850513          	addi	a0,a0,904 # 1388 <.Lline_table_start1+0x115d>
   1cb4e:	00a105b3          	add	a1,sp,a0
   1cb52:	6505                	lui	a0,0x1
   1cb54:	32450513          	addi	a0,a0,804 # 1324 <.Lline_table_start1+0x10f9>
   1cb58:	950a                	add	a0,a0,sp
   1cb5a:	02000613          	li	a2,32
   1cb5e:	00001097          	auipc	ra,0x1
   1cb62:	c18080e7          	jalr	-1000(ra) # 1d776 <memcpy>
   1cb66:	0184d513          	srli	a0,s1,0x18
   1cb6a:	0104d593          	srli	a1,s1,0x10
   1cb6e:	0084d613          	srli	a2,s1,0x8
   1cb72:	7c940da3          	sb	s1,2011(s0)
   1cb76:	7cc40e23          	sb	a2,2012(s0)
   1cb7a:	7cb40ea3          	sb	a1,2013(s0)
   1cb7e:	7ca40f23          	sb	a0,2014(s0)
   1cb82:	7ff10513          	addi	a0,sp,2047
   1cb86:	77250513          	addi	a0,a0,1906
   1cb8a:	6585                	lui	a1,0x1
   1cb8c:	32458593          	addi	a1,a1,804 # 1324 <.Lline_table_start1+0x10f9>
   1cb90:	958a                	add	a1,a1,sp
   1cb92:	02000613          	li	a2,32
   1cb96:	00001097          	auipc	ra,0x1
   1cb9a:	be0080e7          	jalr	-1056(ra) # 1d776 <memcpy>
   1cb9e:	6505                	lui	a0,0x1
   1cba0:	38050513          	addi	a0,a0,896 # 1380 <.Lline_table_start1+0x1155>
   1cba4:	950a                	add	a0,a0,sp
   1cba6:	7ff10593          	addi	a1,sp,2047
   1cbaa:	76b58593          	addi	a1,a1,1899
   1cbae:	ffffc097          	auipc	ra,0xffffc
   1cbb2:	dda080e7          	jalr	-550(ra) # 18988 <_ZN20complex_dynamic_type3app17hec54c99d602c928bE>
   1cbb6:	3eca4503          	lbu	a0,1004(s4)
   1cbba:	340512e3          	bnez	a0,1d6fe <_start+0x40b0>
   1cbbe:	3eea4503          	lbu	a0,1006(s4)
   1cbc2:	3eda4583          	lbu	a1,1005(s4)
   1cbc6:	3efa4603          	lbu	a2,1007(s4)
   1cbca:	3f0a2403          	lw	s0,1008(s4)
   1cbce:	0522                	slli	a0,a0,0x8
   1cbd0:	8d4d                	or	a0,a0,a1
   1cbd2:	feaa1f23          	sh	a0,-2(s4)
   1cbd6:	00ca0023          	sb	a2,0(s4)
   1cbda:	6505                	lui	a0,0x1
   1cbdc:	38850513          	addi	a0,a0,904 # 1388 <.Lline_table_start1+0x115d>
   1cbe0:	00a105b3          	add	a1,sp,a0
   1cbe4:	6505                	lui	a0,0x1
   1cbe6:	32450513          	addi	a0,a0,804 # 1324 <.Lline_table_start1+0x10f9>
   1cbea:	950a                	add	a0,a0,sp
   1cbec:	04800613          	li	a2,72
   1cbf0:	00001097          	auipc	ra,0x1
   1cbf4:	b86080e7          	jalr	-1146(ra) # 1d776 <memcpy>
   1cbf8:	01845513          	srli	a0,s0,0x18
   1cbfc:	01045593          	srli	a1,s0,0x10
   1cc00:	00845613          	srli	a2,s0,0x8
   1cc04:	008a00a3          	sb	s0,1(s4)
   1cc08:	00ca0123          	sb	a2,2(s4)
   1cc0c:	00ba01a3          	sb	a1,3(s4)
   1cc10:	00aa0223          	sb	a0,4(s4)
   1cc14:	7ff10513          	addi	a0,sp,2047
   1cc18:	79a50513          	addi	a0,a0,1946
   1cc1c:	6585                	lui	a1,0x1
   1cc1e:	32458593          	addi	a1,a1,804 # 1324 <.Lline_table_start1+0x10f9>
   1cc22:	958a                	add	a1,a1,sp
   1cc24:	04800613          	li	a2,72
   1cc28:	00001097          	auipc	ra,0x1
   1cc2c:	b4e080e7          	jalr	-1202(ra) # 1d776 <memcpy>
   1cc30:	6505                	lui	a0,0x1
   1cc32:	38050513          	addi	a0,a0,896 # 1380 <.Lline_table_start1+0x1155>
   1cc36:	950a                	add	a0,a0,sp
   1cc38:	7ff10593          	addi	a1,sp,2047
   1cc3c:	79358593          	addi	a1,a1,1939
   1cc40:	ffffc097          	auipc	ra,0xffffc
   1cc44:	8fc080e7          	jalr	-1796(ra) # 1853c <_ZN20complex_dynamic_type3app17he86b596d8cdc4446E>
   1cc48:	3eca4503          	lbu	a0,1004(s4)
   1cc4c:	2a0519e3          	bnez	a0,1d6fe <_start+0x40b0>
   1cc50:	3eea4503          	lbu	a0,1006(s4)
   1cc54:	3eda4583          	lbu	a1,1005(s4)
   1cc58:	3efa4603          	lbu	a2,1007(s4)
   1cc5c:	3f0a2403          	lw	s0,1008(s4)
   1cc60:	0522                	slli	a0,a0,0x8
   1cc62:	8d4d                	or	a0,a0,a1
   1cc64:	04aa1723          	sh	a0,78(s4)
   1cc68:	04ca0823          	sb	a2,80(s4)
   1cc6c:	6505                	lui	a0,0x1
   1cc6e:	38850513          	addi	a0,a0,904 # 1388 <.Lline_table_start1+0x115d>
   1cc72:	00a105b3          	add	a1,sp,a0
   1cc76:	6505                	lui	a0,0x1
   1cc78:	32450513          	addi	a0,a0,804 # 1324 <.Lline_table_start1+0x10f9>
   1cc7c:	950a                	add	a0,a0,sp
   1cc7e:	02e00613          	li	a2,46
   1cc82:	00001097          	auipc	ra,0x1
   1cc86:	af4080e7          	jalr	-1292(ra) # 1d776 <memcpy>
   1cc8a:	01845513          	srli	a0,s0,0x18
   1cc8e:	01045593          	srli	a1,s0,0x10
   1cc92:	00845613          	srli	a2,s0,0x8
   1cc96:	048a08a3          	sb	s0,81(s4)
   1cc9a:	04ca0923          	sb	a2,82(s4)
   1cc9e:	04ba09a3          	sb	a1,83(s4)
   1cca2:	04aa0a23          	sb	a0,84(s4)
   1cca6:	7ff10513          	addi	a0,sp,2047
   1ccaa:	7ea50513          	addi	a0,a0,2026
   1ccae:	6585                	lui	a1,0x1
   1ccb0:	32458593          	addi	a1,a1,804 # 1324 <.Lline_table_start1+0x10f9>
   1ccb4:	958a                	add	a1,a1,sp
   1ccb6:	02e00613          	li	a2,46
   1ccba:	00001097          	auipc	ra,0x1
   1ccbe:	abc080e7          	jalr	-1348(ra) # 1d776 <memcpy>
   1ccc2:	6505                	lui	a0,0x1
   1ccc4:	38050513          	addi	a0,a0,896 # 1380 <.Lline_table_start1+0x1155>
   1ccc8:	950a                	add	a0,a0,sp
   1ccca:	7ff10593          	addi	a1,sp,2047
   1ccce:	7e358593          	addi	a1,a1,2019
   1ccd2:	ffffd097          	auipc	ra,0xffffd
   1ccd6:	80c080e7          	jalr	-2036(ra) # 194de <_ZN20complex_dynamic_type3app17hffa2d16939792578E>
   1ccda:	3eca4503          	lbu	a0,1004(s4)
   1ccde:	220510e3          	bnez	a0,1d6fe <_start+0x40b0>
   1cce2:	3eea4503          	lbu	a0,1006(s4)
   1cce6:	3eda4583          	lbu	a1,1005(s4)
   1ccea:	3efa4603          	lbu	a2,1007(s4)
   1ccee:	3f0a2403          	lw	s0,1008(s4)
   1ccf2:	0522                	slli	a0,a0,0x8
   1ccf4:	8d4d                	or	a0,a0,a1
   1ccf6:	08aa1223          	sh	a0,132(s4)
   1ccfa:	08ca0323          	sb	a2,134(s4)
   1ccfe:	6505                	lui	a0,0x1
   1cd00:	38850513          	addi	a0,a0,904 # 1388 <.Lline_table_start1+0x115d>
   1cd04:	00a105b3          	add	a1,sp,a0
   1cd08:	6505                	lui	a0,0x1
   1cd0a:	32450513          	addi	a0,a0,804 # 1324 <.Lline_table_start1+0x10f9>
   1cd0e:	950a                	add	a0,a0,sp
   1cd10:	03800613          	li	a2,56
   1cd14:	00001097          	auipc	ra,0x1
   1cd18:	a62080e7          	jalr	-1438(ra) # 1d776 <memcpy>
   1cd1c:	01845513          	srli	a0,s0,0x18
   1cd20:	01045593          	srli	a1,s0,0x10
   1cd24:	00845613          	srli	a2,s0,0x8
   1cd28:	088a03a3          	sb	s0,135(s4)
   1cd2c:	08ca0423          	sb	a2,136(s4)
   1cd30:	08ba04a3          	sb	a1,137(s4)
   1cd34:	08aa0523          	sb	a0,138(s4)
   1cd38:	6505                	lui	a0,0x1
   1cd3a:	057d                	addi	a0,a0,31 # 101f <.Lline_table_start1+0xdf4>
   1cd3c:	950a                	add	a0,a0,sp
   1cd3e:	6585                	lui	a1,0x1
   1cd40:	32458593          	addi	a1,a1,804 # 1324 <.Lline_table_start1+0x10f9>
   1cd44:	958a                	add	a1,a1,sp
   1cd46:	03800613          	li	a2,56
   1cd4a:	00001097          	auipc	ra,0x1
   1cd4e:	a2c080e7          	jalr	-1492(ra) # 1d776 <memcpy>
   1cd52:	6505                	lui	a0,0x1
   1cd54:	38050513          	addi	a0,a0,896 # 1380 <.Lline_table_start1+0x1155>
   1cd58:	950a                	add	a0,a0,sp
   1cd5a:	6585                	lui	a1,0x1
   1cd5c:	05e1                	addi	a1,a1,24 # 1018 <.Lline_table_start1+0xded>
   1cd5e:	958a                	add	a1,a1,sp
   1cd60:	ffff8097          	auipc	ra,0xffff8
   1cd64:	aec080e7          	jalr	-1300(ra) # 1484c <_ZN20complex_dynamic_type3app17h678947e650d19487E>
   1cd68:	3eca4503          	lbu	a0,1004(s4)
   1cd6c:	180519e3          	bnez	a0,1d6fe <_start+0x40b0>
   1cd70:	3eda4503          	lbu	a0,1005(s4)
   1cd74:	3eea4583          	lbu	a1,1006(s4)
   1cd78:	3efa4603          	lbu	a2,1007(s4)
   1cd7c:	3f0a2683          	lw	a3,1008(s4)
   1cd80:	3f4a2703          	lw	a4,1012(s4)
   1cd84:	3f8a2783          	lw	a5,1016(s4)
   1cd88:	3fca1483          	lh	s1,1020(s4)
   1cd8c:	05a2                	slli	a1,a1,0x8
   1cd8e:	38ea2823          	sw	a4,912(s4)
   1cd92:	38fa2a23          	sw	a5,916(s4)
   1cd96:	389a1c23          	sh	s1,920(s4)
   1cd9a:	0186d713          	srli	a4,a3,0x18
   1cd9e:	8d4d                	or	a0,a0,a1
   1cda0:	0106d593          	srli	a1,a3,0x10
   1cda4:	0cba04a3          	sb	a1,201(s4)
   1cda8:	0cea0523          	sb	a4,202(s4)
   1cdac:	0086d593          	srli	a1,a3,0x8
   1cdb0:	0caa1223          	sh	a0,196(s4)
   1cdb4:	0cca0323          	sb	a2,198(s4)
   1cdb8:	0cda03a3          	sb	a3,199(s4)
   1cdbc:	0cba0423          	sb	a1,200(s4)
   1cdc0:	6505                	lui	a0,0x1
   1cdc2:	05f50513          	addi	a0,a0,95 # 105f <.Lline_table_start1+0xe34>
   1cdc6:	950a                	add	a0,a0,sp
   1cdc8:	6585                	lui	a1,0x1
   1cdca:	32458593          	addi	a1,a1,804 # 1324 <.Lline_table_start1+0x10f9>
   1cdce:	958a                	add	a1,a1,sp
   1cdd0:	4629                	li	a2,10
   1cdd2:	00001097          	auipc	ra,0x1
   1cdd6:	9a4080e7          	jalr	-1628(ra) # 1d776 <memcpy>
   1cdda:	6505                	lui	a0,0x1
   1cddc:	38050513          	addi	a0,a0,896 # 1380 <.Lline_table_start1+0x1155>
   1cde0:	950a                	add	a0,a0,sp
   1cde2:	6585                	lui	a1,0x1
   1cde4:	05858593          	addi	a1,a1,88 # 1058 <.Lline_table_start1+0xe2d>
   1cde8:	958a                	add	a1,a1,sp
   1cdea:	ffffc097          	auipc	ra,0xffffc
   1cdee:	a32080e7          	jalr	-1486(ra) # 1881c <_ZN20complex_dynamic_type3app17hea2f62c56204b332E>
   1cdf2:	3eca4503          	lbu	a0,1004(s4)
   1cdf6:	100514e3          	bnez	a0,1d6fe <_start+0x40b0>
   1cdfa:	3eea4503          	lbu	a0,1006(s4)
   1cdfe:	3eda4583          	lbu	a1,1005(s4)
   1ce02:	3efa4603          	lbu	a2,1007(s4)
   1ce06:	3f0a2403          	lw	s0,1008(s4)
   1ce0a:	0522                	slli	a0,a0,0x8
   1ce0c:	8d4d                	or	a0,a0,a1
   1ce0e:	0caa1b23          	sh	a0,214(s4)
   1ce12:	0cca0c23          	sb	a2,216(s4)
   1ce16:	6505                	lui	a0,0x1
   1ce18:	38850513          	addi	a0,a0,904 # 1388 <.Lline_table_start1+0x115d>
   1ce1c:	00a105b3          	add	a1,sp,a0
   1ce20:	6505                	lui	a0,0x1
   1ce22:	32450513          	addi	a0,a0,804 # 1324 <.Lline_table_start1+0x10f9>
   1ce26:	950a                	add	a0,a0,sp
   1ce28:	03800613          	li	a2,56
   1ce2c:	00001097          	auipc	ra,0x1
   1ce30:	94a080e7          	jalr	-1718(ra) # 1d776 <memcpy>
   1ce34:	01845513          	srli	a0,s0,0x18
   1ce38:	01045593          	srli	a1,s0,0x10
   1ce3c:	00845613          	srli	a2,s0,0x8
   1ce40:	0c8a0ca3          	sb	s0,217(s4)
   1ce44:	0cca0d23          	sb	a2,218(s4)
   1ce48:	0cba0da3          	sb	a1,219(s4)
   1ce4c:	0caa0e23          	sb	a0,220(s4)
   1ce50:	6505                	lui	a0,0x1
   1ce52:	07150513          	addi	a0,a0,113 # 1071 <.Lline_table_start1+0xe46>
   1ce56:	950a                	add	a0,a0,sp
   1ce58:	6585                	lui	a1,0x1
   1ce5a:	32458593          	addi	a1,a1,804 # 1324 <.Lline_table_start1+0x10f9>
   1ce5e:	958a                	add	a1,a1,sp
   1ce60:	03800613          	li	a2,56
   1ce64:	00001097          	auipc	ra,0x1
   1ce68:	912080e7          	jalr	-1774(ra) # 1d776 <memcpy>
   1ce6c:	6505                	lui	a0,0x1
   1ce6e:	38050513          	addi	a0,a0,896 # 1380 <.Lline_table_start1+0x1155>
   1ce72:	950a                	add	a0,a0,sp
   1ce74:	6585                	lui	a1,0x1
   1ce76:	06a58593          	addi	a1,a1,106 # 106a <.Lline_table_start1+0xe3f>
   1ce7a:	958a                	add	a1,a1,sp
   1ce7c:	ffff6097          	auipc	ra,0xffff6
   1ce80:	efa080e7          	jalr	-262(ra) # 12d76 <_ZN20complex_dynamic_type3app17h37c1b71c2320af89E>
   1ce84:	3eca4503          	lbu	a0,1004(s4)
   1ce88:	06051be3          	bnez	a0,1d6fe <_start+0x40b0>
   1ce8c:	3eea4503          	lbu	a0,1006(s4)
   1ce90:	3eda4583          	lbu	a1,1005(s4)
   1ce94:	3efa4603          	lbu	a2,1007(s4)
   1ce98:	3f0a2403          	lw	s0,1008(s4)
   1ce9c:	0522                	slli	a0,a0,0x8
   1ce9e:	8d4d                	or	a0,a0,a1
   1cea0:	10aa1b23          	sh	a0,278(s4)
   1cea4:	10ca0c23          	sb	a2,280(s4)
   1cea8:	6505                	lui	a0,0x1
   1ceaa:	38850513          	addi	a0,a0,904 # 1388 <.Lline_table_start1+0x115d>
   1ceae:	00a105b3          	add	a1,sp,a0
   1ceb2:	6505                	lui	a0,0x1
   1ceb4:	32450513          	addi	a0,a0,804 # 1324 <.Lline_table_start1+0x10f9>
   1ceb8:	950a                	add	a0,a0,sp
   1ceba:	4655                	li	a2,21
   1cebc:	00001097          	auipc	ra,0x1
   1cec0:	8ba080e7          	jalr	-1862(ra) # 1d776 <memcpy>
   1cec4:	01845513          	srli	a0,s0,0x18
   1cec8:	01045593          	srli	a1,s0,0x10
   1cecc:	00845613          	srli	a2,s0,0x8
   1ced0:	108a0ca3          	sb	s0,281(s4)
   1ced4:	10ca0d23          	sb	a2,282(s4)
   1ced8:	10ba0da3          	sb	a1,283(s4)
   1cedc:	10aa0e23          	sb	a0,284(s4)
   1cee0:	6505                	lui	a0,0x1
   1cee2:	0b150513          	addi	a0,a0,177 # 10b1 <.Lline_table_start1+0xe86>
   1cee6:	950a                	add	a0,a0,sp
   1cee8:	6585                	lui	a1,0x1
   1ceea:	32458593          	addi	a1,a1,804 # 1324 <.Lline_table_start1+0x10f9>
   1ceee:	958a                	add	a1,a1,sp
   1cef0:	4655                	li	a2,21
   1cef2:	00001097          	auipc	ra,0x1
   1cef6:	884080e7          	jalr	-1916(ra) # 1d776 <memcpy>
   1cefa:	6505                	lui	a0,0x1
   1cefc:	38050513          	addi	a0,a0,896 # 1380 <.Lline_table_start1+0x1155>
   1cf00:	950a                	add	a0,a0,sp
   1cf02:	6585                	lui	a1,0x1
   1cf04:	0aa58593          	addi	a1,a1,170 # 10aa <.Lline_table_start1+0xe7f>
   1cf08:	958a                	add	a1,a1,sp
   1cf0a:	ffff4097          	auipc	ra,0xffff4
   1cf0e:	7ce080e7          	jalr	1998(ra) # 116d8 <_ZN20complex_dynamic_type3app17h11c7ad91b9e57df9E>
   1cf12:	3eca4503          	lbu	a0,1004(s4)
   1cf16:	7e051463          	bnez	a0,1d6fe <_start+0x40b0>
   1cf1a:	3eea4503          	lbu	a0,1006(s4)
   1cf1e:	3eda4583          	lbu	a1,1005(s4)
   1cf22:	3efa4603          	lbu	a2,1007(s4)
   1cf26:	3f0a2403          	lw	s0,1008(s4)
   1cf2a:	0522                	slli	a0,a0,0x8
   1cf2c:	8d4d                	or	a0,a0,a1
   1cf2e:	12aa1923          	sh	a0,306(s4)
   1cf32:	12ca0a23          	sb	a2,308(s4)
   1cf36:	6505                	lui	a0,0x1
   1cf38:	38850513          	addi	a0,a0,904 # 1388 <.Lline_table_start1+0x115d>
   1cf3c:	00a105b3          	add	a1,sp,a0
   1cf40:	6505                	lui	a0,0x1
   1cf42:	32450513          	addi	a0,a0,804 # 1324 <.Lline_table_start1+0x10f9>
   1cf46:	950a                	add	a0,a0,sp
   1cf48:	05600613          	li	a2,86
   1cf4c:	00001097          	auipc	ra,0x1
   1cf50:	82a080e7          	jalr	-2006(ra) # 1d776 <memcpy>
   1cf54:	01845513          	srli	a0,s0,0x18
   1cf58:	01045593          	srli	a1,s0,0x10
   1cf5c:	00845613          	srli	a2,s0,0x8
   1cf60:	128a0aa3          	sb	s0,309(s4)
   1cf64:	12ca0b23          	sb	a2,310(s4)
   1cf68:	12ba0ba3          	sb	a1,311(s4)
   1cf6c:	12aa0c23          	sb	a0,312(s4)
   1cf70:	6505                	lui	a0,0x1
   1cf72:	0cd50513          	addi	a0,a0,205 # 10cd <.Lline_table_start1+0xea2>
   1cf76:	950a                	add	a0,a0,sp
   1cf78:	6585                	lui	a1,0x1
   1cf7a:	32458593          	addi	a1,a1,804 # 1324 <.Lline_table_start1+0x10f9>
   1cf7e:	958a                	add	a1,a1,sp
   1cf80:	05600613          	li	a2,86
   1cf84:	00000097          	auipc	ra,0x0
   1cf88:	7f2080e7          	jalr	2034(ra) # 1d776 <memcpy>
   1cf8c:	6505                	lui	a0,0x1
   1cf8e:	38050513          	addi	a0,a0,896 # 1380 <.Lline_table_start1+0x1155>
   1cf92:	950a                	add	a0,a0,sp
   1cf94:	6585                	lui	a1,0x1
   1cf96:	0c658593          	addi	a1,a1,198 # 10c6 <.Lline_table_start1+0xe9b>
   1cf9a:	958a                	add	a1,a1,sp
   1cf9c:	ffffb097          	auipc	ra,0xffffb
   1cfa0:	2ca080e7          	jalr	714(ra) # 18266 <_ZN20complex_dynamic_type3app17hdee57943d5c66ba7E>
   1cfa4:	3eca4503          	lbu	a0,1004(s4)
   1cfa8:	74051b63          	bnez	a0,1d6fe <_start+0x40b0>
   1cfac:	3eda4503          	lbu	a0,1005(s4)
   1cfb0:	3eea4583          	lbu	a1,1006(s4)
   1cfb4:	3efa4603          	lbu	a2,1007(s4)
   1cfb8:	3f0a2683          	lw	a3,1008(s4)
   1cfbc:	3f4a2703          	lw	a4,1012(s4)
   1cfc0:	3f8a2783          	lw	a5,1016(s4)
   1cfc4:	3fca1483          	lh	s1,1020(s4)
   1cfc8:	3fea4403          	lbu	s0,1022(s4)
   1cfcc:	05a2                	slli	a1,a1,0x8
   1cfce:	38ea2823          	sw	a4,912(s4)
   1cfd2:	38fa2a23          	sw	a5,916(s4)
   1cfd6:	389a1c23          	sh	s1,920(s4)
   1cfda:	388a0d23          	sb	s0,922(s4)
   1cfde:	0186d713          	srli	a4,a3,0x18
   1cfe2:	8d4d                	or	a0,a0,a1
   1cfe4:	0106d593          	srli	a1,a3,0x10
   1cfe8:	18ba0aa3          	sb	a1,405(s4)
   1cfec:	18ea0b23          	sb	a4,406(s4)
   1cff0:	0086d593          	srli	a1,a3,0x8
   1cff4:	18aa1823          	sh	a0,400(s4)
   1cff8:	18ca0923          	sb	a2,402(s4)
   1cffc:	18da09a3          	sb	a3,403(s4)
   1d000:	18ba0a23          	sb	a1,404(s4)
   1d004:	6505                	lui	a0,0x1
   1d006:	12b50513          	addi	a0,a0,299 # 112b <.Lline_table_start1+0xf00>
   1d00a:	950a                	add	a0,a0,sp
   1d00c:	6585                	lui	a1,0x1
   1d00e:	32458593          	addi	a1,a1,804 # 1324 <.Lline_table_start1+0x10f9>
   1d012:	958a                	add	a1,a1,sp
   1d014:	462d                	li	a2,11
   1d016:	00000097          	auipc	ra,0x0
   1d01a:	760080e7          	jalr	1888(ra) # 1d776 <memcpy>
   1d01e:	6505                	lui	a0,0x1
   1d020:	38050513          	addi	a0,a0,896 # 1380 <.Lline_table_start1+0x1155>
   1d024:	950a                	add	a0,a0,sp
   1d026:	6585                	lui	a1,0x1
   1d028:	12458593          	addi	a1,a1,292 # 1124 <.Lline_table_start1+0xef9>
   1d02c:	958a                	add	a1,a1,sp
   1d02e:	ffff7097          	auipc	ra,0xffff7
   1d032:	894080e7          	jalr	-1900(ra) # 138c2 <_ZN20complex_dynamic_type3app17h4f6622a3d3191dacE>
   1d036:	3eca4503          	lbu	a0,1004(s4)
   1d03a:	6c051263          	bnez	a0,1d6fe <_start+0x40b0>
   1d03e:	3eea4503          	lbu	a0,1006(s4)
   1d042:	3eda4583          	lbu	a1,1005(s4)
   1d046:	3efa4603          	lbu	a2,1007(s4)
   1d04a:	3f0a2403          	lw	s0,1008(s4)
   1d04e:	0522                	slli	a0,a0,0x8
   1d050:	8d4d                	or	a0,a0,a1
   1d052:	1aaa1123          	sh	a0,418(s4)
   1d056:	1aca0223          	sb	a2,420(s4)
   1d05a:	6505                	lui	a0,0x1
   1d05c:	38850513          	addi	a0,a0,904 # 1388 <.Lline_table_start1+0x115d>
   1d060:	00a105b3          	add	a1,sp,a0
   1d064:	6505                	lui	a0,0x1
   1d066:	32450513          	addi	a0,a0,804 # 1324 <.Lline_table_start1+0x10f9>
   1d06a:	950a                	add	a0,a0,sp
   1d06c:	03d00613          	li	a2,61
   1d070:	00000097          	auipc	ra,0x0
   1d074:	706080e7          	jalr	1798(ra) # 1d776 <memcpy>
   1d078:	01845513          	srli	a0,s0,0x18
   1d07c:	01045593          	srli	a1,s0,0x10
   1d080:	00845613          	srli	a2,s0,0x8
   1d084:	1a8a02a3          	sb	s0,421(s4)
   1d088:	1aca0323          	sb	a2,422(s4)
   1d08c:	1aba03a3          	sb	a1,423(s4)
   1d090:	1aaa0423          	sb	a0,424(s4)
   1d094:	6505                	lui	a0,0x1
   1d096:	13d50513          	addi	a0,a0,317 # 113d <.Lline_table_start1+0xf12>
   1d09a:	950a                	add	a0,a0,sp
   1d09c:	6585                	lui	a1,0x1
   1d09e:	32458593          	addi	a1,a1,804 # 1324 <.Lline_table_start1+0x10f9>
   1d0a2:	958a                	add	a1,a1,sp
   1d0a4:	03d00613          	li	a2,61
   1d0a8:	00000097          	auipc	ra,0x0
   1d0ac:	6ce080e7          	jalr	1742(ra) # 1d776 <memcpy>
   1d0b0:	6505                	lui	a0,0x1
   1d0b2:	38050513          	addi	a0,a0,896 # 1380 <.Lline_table_start1+0x1155>
   1d0b6:	950a                	add	a0,a0,sp
   1d0b8:	6585                	lui	a1,0x1
   1d0ba:	13658593          	addi	a1,a1,310 # 1136 <.Lline_table_start1+0xf0b>
   1d0be:	958a                	add	a1,a1,sp
   1d0c0:	ffff4097          	auipc	ra,0xffff4
   1d0c4:	784080e7          	jalr	1924(ra) # 11844 <_ZN20complex_dynamic_type3app17h15ff553adfdb5c51E>
   1d0c8:	3eca4503          	lbu	a0,1004(s4)
   1d0cc:	62051963          	bnez	a0,1d6fe <_start+0x40b0>
   1d0d0:	3eea4503          	lbu	a0,1006(s4)
   1d0d4:	3eda4583          	lbu	a1,1005(s4)
   1d0d8:	3efa4603          	lbu	a2,1007(s4)
   1d0dc:	3f0a2403          	lw	s0,1008(s4)
   1d0e0:	0522                	slli	a0,a0,0x8
   1d0e2:	8d4d                	or	a0,a0,a1
   1d0e4:	1eaa1323          	sh	a0,486(s4)
   1d0e8:	1eca0423          	sb	a2,488(s4)
   1d0ec:	6505                	lui	a0,0x1
   1d0ee:	38850513          	addi	a0,a0,904 # 1388 <.Lline_table_start1+0x115d>
   1d0f2:	00a105b3          	add	a1,sp,a0
   1d0f6:	6505                	lui	a0,0x1
   1d0f8:	32450513          	addi	a0,a0,804 # 1324 <.Lline_table_start1+0x10f9>
   1d0fc:	950a                	add	a0,a0,sp
   1d0fe:	4671                	li	a2,28
   1d100:	00000097          	auipc	ra,0x0
   1d104:	676080e7          	jalr	1654(ra) # 1d776 <memcpy>
   1d108:	01845513          	srli	a0,s0,0x18
   1d10c:	01045593          	srli	a1,s0,0x10
   1d110:	00845613          	srli	a2,s0,0x8
   1d114:	1e8a04a3          	sb	s0,489(s4)
   1d118:	1eca0523          	sb	a2,490(s4)
   1d11c:	1eba05a3          	sb	a1,491(s4)
   1d120:	1eaa0623          	sb	a0,492(s4)
   1d124:	6505                	lui	a0,0x1
   1d126:	18150513          	addi	a0,a0,385 # 1181 <.Lline_table_start1+0xf56>
   1d12a:	950a                	add	a0,a0,sp
   1d12c:	6585                	lui	a1,0x1
   1d12e:	32458593          	addi	a1,a1,804 # 1324 <.Lline_table_start1+0x10f9>
   1d132:	958a                	add	a1,a1,sp
   1d134:	4671                	li	a2,28
   1d136:	00000097          	auipc	ra,0x0
   1d13a:	640080e7          	jalr	1600(ra) # 1d776 <memcpy>
   1d13e:	6505                	lui	a0,0x1
   1d140:	38050513          	addi	a0,a0,896 # 1380 <.Lline_table_start1+0x1155>
   1d144:	950a                	add	a0,a0,sp
   1d146:	6585                	lui	a1,0x1
   1d148:	17a58593          	addi	a1,a1,378 # 117a <.Lline_table_start1+0xf4f>
   1d14c:	958a                	add	a1,a1,sp
   1d14e:	ffff6097          	auipc	ra,0xffff6
   1d152:	aba080e7          	jalr	-1350(ra) # 12c08 <_ZN20complex_dynamic_type3app17h377dd998ac008051E>
   1d156:	3eca4503          	lbu	a0,1004(s4)
   1d15a:	5a051263          	bnez	a0,1d6fe <_start+0x40b0>
   1d15e:	3eea4503          	lbu	a0,1006(s4)
   1d162:	3eda4583          	lbu	a1,1005(s4)
   1d166:	3efa4603          	lbu	a2,1007(s4)
   1d16a:	3f0a2403          	lw	s0,1008(s4)
   1d16e:	0522                	slli	a0,a0,0x8
   1d170:	8d4d                	or	a0,a0,a1
   1d172:	20aa1523          	sh	a0,522(s4)
   1d176:	20ca0623          	sb	a2,524(s4)
   1d17a:	6505                	lui	a0,0x1
   1d17c:	38850513          	addi	a0,a0,904 # 1388 <.Lline_table_start1+0x115d>
   1d180:	00a105b3          	add	a1,sp,a0
   1d184:	6505                	lui	a0,0x1
   1d186:	32450513          	addi	a0,a0,804 # 1324 <.Lline_table_start1+0x10f9>
   1d18a:	950a                	add	a0,a0,sp
   1d18c:	4675                	li	a2,29
   1d18e:	00000097          	auipc	ra,0x0
   1d192:	5e8080e7          	jalr	1512(ra) # 1d776 <memcpy>
   1d196:	01845513          	srli	a0,s0,0x18
   1d19a:	01045593          	srli	a1,s0,0x10
   1d19e:	00845613          	srli	a2,s0,0x8
   1d1a2:	208a06a3          	sb	s0,525(s4)
   1d1a6:	20ca0723          	sb	a2,526(s4)
   1d1aa:	20ba07a3          	sb	a1,527(s4)
   1d1ae:	20aa0823          	sb	a0,528(s4)
   1d1b2:	6505                	lui	a0,0x1
   1d1b4:	1a550513          	addi	a0,a0,421 # 11a5 <.Lline_table_start1+0xf7a>
   1d1b8:	950a                	add	a0,a0,sp
   1d1ba:	6585                	lui	a1,0x1
   1d1bc:	32458593          	addi	a1,a1,804 # 1324 <.Lline_table_start1+0x10f9>
   1d1c0:	958a                	add	a1,a1,sp
   1d1c2:	4675                	li	a2,29
   1d1c4:	00000097          	auipc	ra,0x0
   1d1c8:	5b2080e7          	jalr	1458(ra) # 1d776 <memcpy>
   1d1cc:	6505                	lui	a0,0x1
   1d1ce:	38050513          	addi	a0,a0,896 # 1380 <.Lline_table_start1+0x1155>
   1d1d2:	950a                	add	a0,a0,sp
   1d1d4:	6585                	lui	a1,0x1
   1d1d6:	19e58593          	addi	a1,a1,414 # 119e <.Lline_table_start1+0xf73>
   1d1da:	958a                	add	a1,a1,sp
   1d1dc:	ffffb097          	auipc	ra,0xffffb
   1d1e0:	db4080e7          	jalr	-588(ra) # 17f90 <_ZN20complex_dynamic_type3app17hde6a40a429c2c285E>
   1d1e4:	3eca4503          	lbu	a0,1004(s4)
   1d1e8:	50051b63          	bnez	a0,1d6fe <_start+0x40b0>
   1d1ec:	3eea4503          	lbu	a0,1006(s4)
   1d1f0:	3eda4583          	lbu	a1,1005(s4)
   1d1f4:	3efa4603          	lbu	a2,1007(s4)
   1d1f8:	3f0a2403          	lw	s0,1008(s4)
   1d1fc:	0522                	slli	a0,a0,0x8
   1d1fe:	8d4d                	or	a0,a0,a1
   1d200:	22aa1723          	sh	a0,558(s4)
   1d204:	22ca0823          	sb	a2,560(s4)
   1d208:	6505                	lui	a0,0x1
   1d20a:	38850513          	addi	a0,a0,904 # 1388 <.Lline_table_start1+0x115d>
   1d20e:	00a105b3          	add	a1,sp,a0
   1d212:	6505                	lui	a0,0x1
   1d214:	32450513          	addi	a0,a0,804 # 1324 <.Lline_table_start1+0x10f9>
   1d218:	950a                	add	a0,a0,sp
   1d21a:	02800613          	li	a2,40
   1d21e:	00000097          	auipc	ra,0x0
   1d222:	558080e7          	jalr	1368(ra) # 1d776 <memcpy>
   1d226:	01845513          	srli	a0,s0,0x18
   1d22a:	01045593          	srli	a1,s0,0x10
   1d22e:	00845613          	srli	a2,s0,0x8
   1d232:	228a08a3          	sb	s0,561(s4)
   1d236:	22ca0923          	sb	a2,562(s4)
   1d23a:	22ba09a3          	sb	a1,563(s4)
   1d23e:	22aa0a23          	sb	a0,564(s4)
   1d242:	6505                	lui	a0,0x1
   1d244:	1c950513          	addi	a0,a0,457 # 11c9 <.Lline_table_start1+0xf9e>
   1d248:	950a                	add	a0,a0,sp
   1d24a:	6585                	lui	a1,0x1
   1d24c:	32458593          	addi	a1,a1,804 # 1324 <.Lline_table_start1+0x10f9>
   1d250:	958a                	add	a1,a1,sp
   1d252:	02800613          	li	a2,40
   1d256:	00000097          	auipc	ra,0x0
   1d25a:	520080e7          	jalr	1312(ra) # 1d776 <memcpy>
   1d25e:	6505                	lui	a0,0x1
   1d260:	38050513          	addi	a0,a0,896 # 1380 <.Lline_table_start1+0x1155>
   1d264:	950a                	add	a0,a0,sp
   1d266:	6585                	lui	a1,0x1
   1d268:	1c258593          	addi	a1,a1,450 # 11c2 <.Lline_table_start1+0xf97>
   1d26c:	958a                	add	a1,a1,sp
   1d26e:	ffff5097          	auipc	ra,0xffff5
   1d272:	296080e7          	jalr	662(ra) # 12504 <_ZN20complex_dynamic_type3app17h2e92926e94ec7464E>
   1d276:	3eca4503          	lbu	a0,1004(s4)
   1d27a:	48051263          	bnez	a0,1d6fe <_start+0x40b0>
   1d27e:	3eea4503          	lbu	a0,1006(s4)
   1d282:	3eda4583          	lbu	a1,1005(s4)
   1d286:	3efa4603          	lbu	a2,1007(s4)
   1d28a:	3f0a2403          	lw	s0,1008(s4)
   1d28e:	0522                	slli	a0,a0,0x8
   1d290:	8d4d                	or	a0,a0,a1
   1d292:	24aa1f23          	sh	a0,606(s4)
   1d296:	26ca0023          	sb	a2,608(s4)
   1d29a:	6505                	lui	a0,0x1
   1d29c:	38850513          	addi	a0,a0,904 # 1388 <.Lline_table_start1+0x115d>
   1d2a0:	00a105b3          	add	a1,sp,a0
   1d2a4:	6505                	lui	a0,0x1
   1d2a6:	32450513          	addi	a0,a0,804 # 1324 <.Lline_table_start1+0x10f9>
   1d2aa:	950a                	add	a0,a0,sp
   1d2ac:	05700613          	li	a2,87
   1d2b0:	00000097          	auipc	ra,0x0
   1d2b4:	4c6080e7          	jalr	1222(ra) # 1d776 <memcpy>
   1d2b8:	01845513          	srli	a0,s0,0x18
   1d2bc:	01045593          	srli	a1,s0,0x10
   1d2c0:	00845613          	srli	a2,s0,0x8
   1d2c4:	268a00a3          	sb	s0,609(s4)
   1d2c8:	26ca0123          	sb	a2,610(s4)
   1d2cc:	26ba01a3          	sb	a1,611(s4)
   1d2d0:	26aa0223          	sb	a0,612(s4)
   1d2d4:	6505                	lui	a0,0x1
   1d2d6:	1f950513          	addi	a0,a0,505 # 11f9 <.Lline_table_start1+0xfce>
   1d2da:	950a                	add	a0,a0,sp
   1d2dc:	6585                	lui	a1,0x1
   1d2de:	32458593          	addi	a1,a1,804 # 1324 <.Lline_table_start1+0x10f9>
   1d2e2:	958a                	add	a1,a1,sp
   1d2e4:	05700613          	li	a2,87
   1d2e8:	00000097          	auipc	ra,0x0
   1d2ec:	48e080e7          	jalr	1166(ra) # 1d776 <memcpy>
   1d2f0:	6505                	lui	a0,0x1
   1d2f2:	38050513          	addi	a0,a0,896 # 1380 <.Lline_table_start1+0x1155>
   1d2f6:	950a                	add	a0,a0,sp
   1d2f8:	6585                	lui	a1,0x1
   1d2fa:	1f258593          	addi	a1,a1,498 # 11f2 <.Lline_table_start1+0xfc7>
   1d2fe:	958a                	add	a1,a1,sp
   1d300:	ffff6097          	auipc	ra,0xffff6
   1d304:	2ee080e7          	jalr	750(ra) # 135ee <_ZN20complex_dynamic_type3app17h4b30faaa9e0808dfE>
   1d308:	3eca4503          	lbu	a0,1004(s4)
   1d30c:	3e051963          	bnez	a0,1d6fe <_start+0x40b0>
   1d310:	3eea4503          	lbu	a0,1006(s4)
   1d314:	3eda4583          	lbu	a1,1005(s4)
   1d318:	3efa4603          	lbu	a2,1007(s4)
   1d31c:	3f0a2403          	lw	s0,1008(s4)
   1d320:	0522                	slli	a0,a0,0x8
   1d322:	8d4d                	or	a0,a0,a1
   1d324:	2aaa1e23          	sh	a0,700(s4)
   1d328:	2aca0f23          	sb	a2,702(s4)
   1d32c:	6505                	lui	a0,0x1
   1d32e:	38850513          	addi	a0,a0,904 # 1388 <.Lline_table_start1+0x115d>
   1d332:	00a105b3          	add	a1,sp,a0
   1d336:	6505                	lui	a0,0x1
   1d338:	32450513          	addi	a0,a0,804 # 1324 <.Lline_table_start1+0x10f9>
   1d33c:	950a                	add	a0,a0,sp
   1d33e:	04e00613          	li	a2,78
   1d342:	00000097          	auipc	ra,0x0
   1d346:	434080e7          	jalr	1076(ra) # 1d776 <memcpy>
   1d34a:	01845513          	srli	a0,s0,0x18
   1d34e:	01045593          	srli	a1,s0,0x10
   1d352:	00845613          	srli	a2,s0,0x8
   1d356:	2a8a0fa3          	sb	s0,703(s4)
   1d35a:	2cca0023          	sb	a2,704(s4)
   1d35e:	2cba00a3          	sb	a1,705(s4)
   1d362:	2caa0123          	sb	a0,706(s4)
   1d366:	6505                	lui	a0,0x1
   1d368:	25750513          	addi	a0,a0,599 # 1257 <.Lline_table_start1+0x102c>
   1d36c:	950a                	add	a0,a0,sp
   1d36e:	6585                	lui	a1,0x1
   1d370:	32458593          	addi	a1,a1,804 # 1324 <.Lline_table_start1+0x10f9>
   1d374:	958a                	add	a1,a1,sp
   1d376:	04e00613          	li	a2,78
   1d37a:	00000097          	auipc	ra,0x0
   1d37e:	3fc080e7          	jalr	1020(ra) # 1d776 <memcpy>
   1d382:	6505                	lui	a0,0x1
   1d384:	38050513          	addi	a0,a0,896 # 1380 <.Lline_table_start1+0x1155>
   1d388:	950a                	add	a0,a0,sp
   1d38a:	6585                	lui	a1,0x1
   1d38c:	25058593          	addi	a1,a1,592 # 1250 <.Lline_table_start1+0x1025>
   1d390:	958a                	add	a1,a1,sp
   1d392:	ffffc097          	auipc	ra,0xffffc
   1d396:	fe4080e7          	jalr	-28(ra) # 19376 <_ZN20complex_dynamic_type3app17hfeb7f2945ece09ceE>
   1d39a:	3eca4503          	lbu	a0,1004(s4)
   1d39e:	36051063          	bnez	a0,1d6fe <_start+0x40b0>
   1d3a2:	3eda4503          	lbu	a0,1005(s4)
   1d3a6:	3eea4583          	lbu	a1,1006(s4)
   1d3aa:	3efa4603          	lbu	a2,1007(s4)
   1d3ae:	3f0a2683          	lw	a3,1008(s4)
   1d3b2:	3f4a2703          	lw	a4,1012(s4)
   1d3b6:	3f8a2783          	lw	a5,1016(s4)
   1d3ba:	3fca1483          	lh	s1,1020(s4)
   1d3be:	05a2                	slli	a1,a1,0x8
   1d3c0:	38ea2823          	sw	a4,912(s4)
   1d3c4:	38fa2a23          	sw	a5,916(s4)
   1d3c8:	389a1c23          	sh	s1,920(s4)
   1d3cc:	0186d713          	srli	a4,a3,0x18
   1d3d0:	8d4d                	or	a0,a0,a1
   1d3d2:	0106d593          	srli	a1,a3,0x10
   1d3d6:	30ba0ba3          	sb	a1,791(s4)
   1d3da:	30ea0c23          	sb	a4,792(s4)
   1d3de:	0086d593          	srli	a1,a3,0x8
   1d3e2:	30aa1923          	sh	a0,786(s4)
   1d3e6:	30ca0a23          	sb	a2,788(s4)
   1d3ea:	30da0aa3          	sb	a3,789(s4)
   1d3ee:	30ba0b23          	sb	a1,790(s4)
   1d3f2:	6505                	lui	a0,0x1
   1d3f4:	2ad50513          	addi	a0,a0,685 # 12ad <.Lline_table_start1+0x1082>
   1d3f8:	950a                	add	a0,a0,sp
   1d3fa:	6585                	lui	a1,0x1
   1d3fc:	32458593          	addi	a1,a1,804 # 1324 <.Lline_table_start1+0x10f9>
   1d400:	958a                	add	a1,a1,sp
   1d402:	4629                	li	a2,10
   1d404:	00000097          	auipc	ra,0x0
   1d408:	372080e7          	jalr	882(ra) # 1d776 <memcpy>
   1d40c:	6505                	lui	a0,0x1
   1d40e:	38050513          	addi	a0,a0,896 # 1380 <.Lline_table_start1+0x1155>
   1d412:	950a                	add	a0,a0,sp
   1d414:	6585                	lui	a1,0x1
   1d416:	2a658593          	addi	a1,a1,678 # 12a6 <.Lline_table_start1+0x107b>
   1d41a:	958a                	add	a1,a1,sp
   1d41c:	ffffb097          	auipc	ra,0xffffb
   1d420:	8a0080e7          	jalr	-1888(ra) # 17cbc <_ZN20complex_dynamic_type3app17hdd9d5378d0c7fb98E>
   1d424:	3eca4503          	lbu	a0,1004(s4)
   1d428:	2c051b63          	bnez	a0,1d6fe <_start+0x40b0>
   1d42c:	3eea4503          	lbu	a0,1006(s4)
   1d430:	3eda4583          	lbu	a1,1005(s4)
   1d434:	3efa4603          	lbu	a2,1007(s4)
   1d438:	3f0a2403          	lw	s0,1008(s4)
   1d43c:	0522                	slli	a0,a0,0x8
   1d43e:	8d4d                	or	a0,a0,a1
   1d440:	32aa1223          	sh	a0,804(s4)
   1d444:	32ca0323          	sb	a2,806(s4)
   1d448:	6505                	lui	a0,0x1
   1d44a:	38850513          	addi	a0,a0,904 # 1388 <.Lline_table_start1+0x115d>
   1d44e:	00a105b3          	add	a1,sp,a0
   1d452:	6505                	lui	a0,0x1
   1d454:	32450513          	addi	a0,a0,804 # 1324 <.Lline_table_start1+0x10f9>
   1d458:	950a                	add	a0,a0,sp
   1d45a:	04900613          	li	a2,73
   1d45e:	00000097          	auipc	ra,0x0
   1d462:	318080e7          	jalr	792(ra) # 1d776 <memcpy>
   1d466:	01845513          	srli	a0,s0,0x18
   1d46a:	01045593          	srli	a1,s0,0x10
   1d46e:	00845613          	srli	a2,s0,0x8
   1d472:	328a03a3          	sb	s0,807(s4)
   1d476:	32ca0423          	sb	a2,808(s4)
   1d47a:	32ba04a3          	sb	a1,809(s4)
   1d47e:	32aa0523          	sb	a0,810(s4)
   1d482:	6505                	lui	a0,0x1
   1d484:	2bf50513          	addi	a0,a0,703 # 12bf <.Lline_table_start1+0x1094>
   1d488:	950a                	add	a0,a0,sp
   1d48a:	6585                	lui	a1,0x1
   1d48c:	32458593          	addi	a1,a1,804 # 1324 <.Lline_table_start1+0x10f9>
   1d490:	958a                	add	a1,a1,sp
   1d492:	04900613          	li	a2,73
   1d496:	00000097          	auipc	ra,0x0
   1d49a:	2e0080e7          	jalr	736(ra) # 1d776 <memcpy>
   1d49e:	6505                	lui	a0,0x1
   1d4a0:	38050513          	addi	a0,a0,896 # 1380 <.Lline_table_start1+0x1155>
   1d4a4:	950a                	add	a0,a0,sp
   1d4a6:	6585                	lui	a1,0x1
   1d4a8:	2b858593          	addi	a1,a1,696 # 12b8 <.Lline_table_start1+0x108d>
   1d4ac:	958a                	add	a1,a1,sp
   1d4ae:	ffff4097          	auipc	ra,0xffff4
   1d4b2:	df4080e7          	jalr	-524(ra) # 112a2 <_ZN20complex_dynamic_type3app17h0d6286e4a612fda7E>
   1d4b6:	3eca4503          	lbu	a0,1004(s4)
   1d4ba:	24051263          	bnez	a0,1d6fe <_start+0x40b0>
   1d4be:	3eea4503          	lbu	a0,1006(s4)
   1d4c2:	3eda4583          	lbu	a1,1005(s4)
   1d4c6:	3efa4603          	lbu	a2,1007(s4)
   1d4ca:	3f0a2403          	lw	s0,1008(s4)
   1d4ce:	0522                	slli	a0,a0,0x8
   1d4d0:	8d4d                	or	a0,a0,a1
   1d4d2:	36aa1a23          	sh	a0,884(s4)
   1d4d6:	36ca0b23          	sb	a2,886(s4)
   1d4da:	6505                	lui	a0,0x1
   1d4dc:	38850513          	addi	a0,a0,904 # 1388 <.Lline_table_start1+0x115d>
   1d4e0:	00a105b3          	add	a1,sp,a0
   1d4e4:	6505                	lui	a0,0x1
   1d4e6:	32450513          	addi	a0,a0,804 # 1324 <.Lline_table_start1+0x10f9>
   1d4ea:	950a                	add	a0,a0,sp
   1d4ec:	4651                	li	a2,20
   1d4ee:	00000097          	auipc	ra,0x0
   1d4f2:	288080e7          	jalr	648(ra) # 1d776 <memcpy>
   1d4f6:	01845513          	srli	a0,s0,0x18
   1d4fa:	01045593          	srli	a1,s0,0x10
   1d4fe:	00845613          	srli	a2,s0,0x8
   1d502:	368a0ba3          	sb	s0,887(s4)
   1d506:	36ca0c23          	sb	a2,888(s4)
   1d50a:	36ba0ca3          	sb	a1,889(s4)
   1d50e:	36aa0d23          	sb	a0,890(s4)
   1d512:	6505                	lui	a0,0x1
   1d514:	30f50513          	addi	a0,a0,783 # 130f <.Lline_table_start1+0x10e4>
   1d518:	950a                	add	a0,a0,sp
   1d51a:	6585                	lui	a1,0x1
   1d51c:	32458593          	addi	a1,a1,804 # 1324 <.Lline_table_start1+0x10f9>
   1d520:	958a                	add	a1,a1,sp
   1d522:	4651                	li	a2,20
   1d524:	00000097          	auipc	ra,0x0
   1d528:	252080e7          	jalr	594(ra) # 1d776 <memcpy>
   1d52c:	6505                	lui	a0,0x1
   1d52e:	38050513          	addi	a0,a0,896 # 1380 <.Lline_table_start1+0x1155>
   1d532:	950a                	add	a0,a0,sp
   1d534:	6585                	lui	a1,0x1
   1d536:	30858593          	addi	a1,a1,776 # 1308 <.Lline_table_start1+0x10dd>
   1d53a:	958a                	add	a1,a1,sp
   1d53c:	ffff6097          	auipc	ra,0xffff6
   1d540:	660080e7          	jalr	1632(ra) # 13b9c <_ZN20complex_dynamic_type3app17h5666c67ee1260a18E>
   1d544:	3eca4503          	lbu	a0,1004(s4)
   1d548:	1a051b63          	bnez	a0,1d6fe <_start+0x40b0>
   1d54c:	3eea4503          	lbu	a0,1006(s4)
   1d550:	3eda4583          	lbu	a1,1005(s4)
   1d554:	3efa4603          	lbu	a2,1007(s4)
   1d558:	3f0a2403          	lw	s0,1008(s4)
   1d55c:	0522                	slli	a0,a0,0x8
   1d55e:	8d4d                	or	a0,a0,a1
   1d560:	44aa1923          	sh	a0,1106(s4)
   1d564:	44ca0a23          	sb	a2,1108(s4)
   1d568:	6505                	lui	a0,0x1
   1d56a:	38850513          	addi	a0,a0,904 # 1388 <.Lline_table_start1+0x115d>
   1d56e:	00a105b3          	add	a1,sp,a0
   1d572:	6505                	lui	a0,0x1
   1d574:	32450513          	addi	a0,a0,804 # 1324 <.Lline_table_start1+0x10f9>
   1d578:	950a                	add	a0,a0,sp
   1d57a:	05c00613          	li	a2,92
   1d57e:	00000097          	auipc	ra,0x0
   1d582:	1f8080e7          	jalr	504(ra) # 1d776 <memcpy>
   1d586:	01845513          	srli	a0,s0,0x18
   1d58a:	01045593          	srli	a1,s0,0x10
   1d58e:	00845613          	srli	a2,s0,0x8
   1d592:	448a0aa3          	sb	s0,1109(s4)
   1d596:	44ca0b23          	sb	a2,1110(s4)
   1d59a:	44ba0ba3          	sb	a1,1111(s4)
   1d59e:	44aa0c23          	sb	a0,1112(s4)
   1d5a2:	6505                	lui	a0,0x1
   1d5a4:	3ed50513          	addi	a0,a0,1005 # 13ed <.Lline_table_start1+0x11c2>
   1d5a8:	950a                	add	a0,a0,sp
   1d5aa:	6585                	lui	a1,0x1
   1d5ac:	32458593          	addi	a1,a1,804 # 1324 <.Lline_table_start1+0x10f9>
   1d5b0:	958a                	add	a1,a1,sp
   1d5b2:	05c00613          	li	a2,92
   1d5b6:	00000097          	auipc	ra,0x0
   1d5ba:	1c0080e7          	jalr	448(ra) # 1d776 <memcpy>
   1d5be:	6505                	lui	a0,0x1
   1d5c0:	38050513          	addi	a0,a0,896 # 1380 <.Lline_table_start1+0x1155>
   1d5c4:	950a                	add	a0,a0,sp
   1d5c6:	6585                	lui	a1,0x1
   1d5c8:	3e658593          	addi	a1,a1,998 # 13e6 <.Lline_table_start1+0x11bb>
   1d5cc:	958a                	add	a1,a1,sp
   1d5ce:	ffff7097          	auipc	ra,0xffff7
   1d5d2:	fba080e7          	jalr	-70(ra) # 14588 <_ZN20complex_dynamic_type3app17h66df63ae646208d7E>
   1d5d6:	3eca4503          	lbu	a0,1004(s4)
   1d5da:	12051263          	bnez	a0,1d6fe <_start+0x40b0>
   1d5de:	3eea4503          	lbu	a0,1006(s4)
   1d5e2:	3eda4583          	lbu	a1,1005(s4)
   1d5e6:	3efa4603          	lbu	a2,1007(s4)
   1d5ea:	3f0a2403          	lw	s0,1008(s4)
   1d5ee:	0522                	slli	a0,a0,0x8
   1d5f0:	8d4d                	or	a0,a0,a1
   1d5f2:	4aaa1b23          	sh	a0,1206(s4)
   1d5f6:	4aca0c23          	sb	a2,1208(s4)
   1d5fa:	6505                	lui	a0,0x1
   1d5fc:	38850513          	addi	a0,a0,904 # 1388 <.Lline_table_start1+0x115d>
   1d600:	00a105b3          	add	a1,sp,a0
   1d604:	6505                	lui	a0,0x1
   1d606:	32450513          	addi	a0,a0,804 # 1324 <.Lline_table_start1+0x10f9>
   1d60a:	950a                	add	a0,a0,sp
   1d60c:	02500613          	li	a2,37
   1d610:	00000097          	auipc	ra,0x0
   1d614:	166080e7          	jalr	358(ra) # 1d776 <memcpy>
   1d618:	01845513          	srli	a0,s0,0x18
   1d61c:	01045593          	srli	a1,s0,0x10
   1d620:	00845613          	srli	a2,s0,0x8
   1d624:	4a8a0ca3          	sb	s0,1209(s4)
   1d628:	4aca0d23          	sb	a2,1210(s4)
   1d62c:	4aba0da3          	sb	a1,1211(s4)
   1d630:	4aaa0e23          	sb	a0,1212(s4)
   1d634:	6505                	lui	a0,0x1
   1d636:	45150513          	addi	a0,a0,1105 # 1451 <.Lline_table_start1+0x1226>
   1d63a:	950a                	add	a0,a0,sp
   1d63c:	6585                	lui	a1,0x1
   1d63e:	32458593          	addi	a1,a1,804 # 1324 <.Lline_table_start1+0x10f9>
   1d642:	958a                	add	a1,a1,sp
   1d644:	02500613          	li	a2,37
   1d648:	00000097          	auipc	ra,0x0
   1d64c:	12e080e7          	jalr	302(ra) # 1d776 <memcpy>
   1d650:	6505                	lui	a0,0x1
   1d652:	38050513          	addi	a0,a0,896 # 1380 <.Lline_table_start1+0x1155>
   1d656:	950a                	add	a0,a0,sp
   1d658:	6585                	lui	a1,0x1
   1d65a:	44a58593          	addi	a1,a1,1098 # 144a <.Lline_table_start1+0x121f>
   1d65e:	958a                	add	a1,a1,sp
   1d660:	ffff8097          	auipc	ra,0xffff8
   1d664:	44e080e7          	jalr	1102(ra) # 15aae <_ZN20complex_dynamic_type3app17h9b7400620d8baa10E>
   1d668:	3eca4503          	lbu	a0,1004(s4)
   1d66c:	e949                	bnez	a0,1d6fe <_start+0x40b0>
   1d66e:	3eea4503          	lbu	a0,1006(s4)
   1d672:	3eda4583          	lbu	a1,1005(s4)
   1d676:	3efa4603          	lbu	a2,1007(s4)
   1d67a:	3f0a2403          	lw	s0,1008(s4)
   1d67e:	0522                	slli	a0,a0,0x8
   1d680:	8d4d                	or	a0,a0,a1
   1d682:	4eaa1123          	sh	a0,1250(s4)
   1d686:	4eca0223          	sb	a2,1252(s4)
   1d68a:	6505                	lui	a0,0x1
   1d68c:	38850513          	addi	a0,a0,904 # 1388 <.Lline_table_start1+0x115d>
   1d690:	00a105b3          	add	a1,sp,a0
   1d694:	6505                	lui	a0,0x1
   1d696:	32450513          	addi	a0,a0,804 # 1324 <.Lline_table_start1+0x10f9>
   1d69a:	950a                	add	a0,a0,sp
   1d69c:	02300613          	li	a2,35
   1d6a0:	00000097          	auipc	ra,0x0
   1d6a4:	0d6080e7          	jalr	214(ra) # 1d776 <memcpy>
   1d6a8:	01845513          	srli	a0,s0,0x18
   1d6ac:	01045593          	srli	a1,s0,0x10
   1d6b0:	00845613          	srli	a2,s0,0x8
   1d6b4:	4e8a02a3          	sb	s0,1253(s4)
   1d6b8:	4eca0323          	sb	a2,1254(s4)
   1d6bc:	4eba03a3          	sb	a1,1255(s4)
   1d6c0:	4eaa0423          	sb	a0,1256(s4)
   1d6c4:	6505                	lui	a0,0x1
   1d6c6:	47d50513          	addi	a0,a0,1149 # 147d <.Lline_table_start1+0x1252>
   1d6ca:	950a                	add	a0,a0,sp
   1d6cc:	6585                	lui	a1,0x1
   1d6ce:	32458593          	addi	a1,a1,804 # 1324 <.Lline_table_start1+0x10f9>
   1d6d2:	958a                	add	a1,a1,sp
   1d6d4:	02300613          	li	a2,35
   1d6d8:	00000097          	auipc	ra,0x0
   1d6dc:	09e080e7          	jalr	158(ra) # 1d776 <memcpy>
   1d6e0:	6505                	lui	a0,0x1
   1d6e2:	38050513          	addi	a0,a0,896 # 1380 <.Lline_table_start1+0x1155>
   1d6e6:	950a                	add	a0,a0,sp
   1d6e8:	6585                	lui	a1,0x1
   1d6ea:	47658593          	addi	a1,a1,1142 # 1476 <.Lline_table_start1+0x124b>
   1d6ee:	958a                	add	a1,a1,sp
   1d6f0:	ffff8097          	auipc	ra,0xffff8
   1d6f4:	ca0080e7          	jalr	-864(ra) # 15390 <_ZN20complex_dynamic_type3app17h8f9972421bb95b4bE>
   1d6f8:	3eca4503          	lbu	a0,1004(s4)
   1d6fc:	c509                	beqz	a0,1d706 <_start+0x40b8>
   1d6fe:	3f0a2883          	lw	a7,1008(s4)
   1d702:	846fc06f          	j	19748 <_start+0xfa>
   1d706:	844fc06f          	j	1974a <_start+0xfc>

0001d70a <memset>:
   1d70a:	46c1                	li	a3,16
   1d70c:	04d66f63          	bltu	a2,a3,1d76a <memset+0x60>
   1d710:	40a006b3          	neg	a3,a0
   1d714:	0036f813          	andi	a6,a3,3
   1d718:	01050733          	add	a4,a0,a6
   1d71c:	00e57963          	bgeu	a0,a4,1d72e <memset+0x24>
   1d720:	87c2                	mv	a5,a6
   1d722:	86aa                	mv	a3,a0
   1d724:	00b68023          	sb	a1,0(a3)
   1d728:	17fd                	addi	a5,a5,-1
   1d72a:	0685                	addi	a3,a3,1
   1d72c:	ffe5                	bnez	a5,1d724 <memset+0x1a>
   1d72e:	41060633          	sub	a2,a2,a6
   1d732:	ffc67693          	andi	a3,a2,-4
   1d736:	96ba                	add	a3,a3,a4
   1d738:	00d77e63          	bgeu	a4,a3,1d754 <memset+0x4a>
   1d73c:	0ff5f813          	zext.b	a6,a1
   1d740:	010107b7          	lui	a5,0x1010
   1d744:	10178793          	addi	a5,a5,257 # 1010101 <_ZN17compiler_builtins3mem6memcpy17h90d0c987d2ef5a79E+0xff2983>
   1d748:	02f807b3          	mul	a5,a6,a5
   1d74c:	c31c                	sw	a5,0(a4)
   1d74e:	0711                	addi	a4,a4,4
   1d750:	fed76ee3          	bltu	a4,a3,1d74c <memset+0x42>
   1d754:	8a0d                	andi	a2,a2,3
   1d756:	00c68733          	add	a4,a3,a2
   1d75a:	00e6f763          	bgeu	a3,a4,1d768 <memset+0x5e>
   1d75e:	00b68023          	sb	a1,0(a3)
   1d762:	167d                	addi	a2,a2,-1
   1d764:	0685                	addi	a3,a3,1
   1d766:	fe65                	bnez	a2,1d75e <memset+0x54>
   1d768:	8082                	ret
   1d76a:	86aa                	mv	a3,a0
   1d76c:	00c50733          	add	a4,a0,a2
   1d770:	fee567e3          	bltu	a0,a4,1d75e <memset+0x54>
   1d774:	bfd5                	j	1d768 <memset+0x5e>

0001d776 <memcpy>:
   1d776:	00000317          	auipc	t1,0x0
   1d77a:	00830067          	jr	8(t1) # 1d77e <_ZN17compiler_builtins3mem6memcpy17h90d0c987d2ef5a79E>

0001d77e <_ZN17compiler_builtins3mem6memcpy17h90d0c987d2ef5a79E>:
   1d77e:	1141                	addi	sp,sp,-16
   1d780:	c622                	sw	s0,12(sp)
   1d782:	46c1                	li	a3,16
   1d784:	06d66363          	bltu	a2,a3,1d7ea <_ZN17compiler_builtins3mem6memcpy17h90d0c987d2ef5a79E+0x6c>
   1d788:	40a006b3          	neg	a3,a0
   1d78c:	0036f813          	andi	a6,a3,3
   1d790:	01050fb3          	add	t6,a0,a6
   1d794:	01f57d63          	bgeu	a0,t6,1d7ae <_ZN17compiler_builtins3mem6memcpy17h90d0c987d2ef5a79E+0x30>
   1d798:	8742                	mv	a4,a6
   1d79a:	86aa                	mv	a3,a0
   1d79c:	87ae                	mv	a5,a1
   1d79e:	0007c883          	lbu	a7,0(a5)
   1d7a2:	177d                	addi	a4,a4,-1
   1d7a4:	01168023          	sb	a7,0(a3)
   1d7a8:	0685                	addi	a3,a3,1
   1d7aa:	0785                	addi	a5,a5,1
   1d7ac:	fb6d                	bnez	a4,1d79e <_ZN17compiler_builtins3mem6memcpy17h90d0c987d2ef5a79E+0x20>
   1d7ae:	01058433          	add	s0,a1,a6
   1d7b2:	410608b3          	sub	a7,a2,a6
   1d7b6:	ffc8f713          	andi	a4,a7,-4
   1d7ba:	00347613          	andi	a2,s0,3
   1d7be:	00ef86b3          	add	a3,t6,a4
   1d7c2:	e621                	bnez	a2,1d80a <_ZN17compiler_builtins3mem6memcpy17h90d0c987d2ef5a79E+0x8c>
   1d7c4:	00dffa63          	bgeu	t6,a3,1d7d8 <_ZN17compiler_builtins3mem6memcpy17h90d0c987d2ef5a79E+0x5a>
   1d7c8:	8622                	mv	a2,s0
   1d7ca:	421c                	lw	a5,0(a2)
   1d7cc:	00ffa023          	sw	a5,0(t6)
   1d7d0:	0f91                	addi	t6,t6,4
   1d7d2:	0611                	addi	a2,a2,4
   1d7d4:	fedfebe3          	bltu	t6,a3,1d7ca <_ZN17compiler_builtins3mem6memcpy17h90d0c987d2ef5a79E+0x4c>
   1d7d8:	00e405b3          	add	a1,s0,a4
   1d7dc:	0038f613          	andi	a2,a7,3
   1d7e0:	00c68733          	add	a4,a3,a2
   1d7e4:	00e6e863          	bltu	a3,a4,1d7f4 <_ZN17compiler_builtins3mem6memcpy17h90d0c987d2ef5a79E+0x76>
   1d7e8:	a831                	j	1d804 <_ZN17compiler_builtins3mem6memcpy17h90d0c987d2ef5a79E+0x86>
   1d7ea:	86aa                	mv	a3,a0
   1d7ec:	00c50733          	add	a4,a0,a2
   1d7f0:	00e57a63          	bgeu	a0,a4,1d804 <_ZN17compiler_builtins3mem6memcpy17h90d0c987d2ef5a79E+0x86>
   1d7f4:	0005c703          	lbu	a4,0(a1)
   1d7f8:	167d                	addi	a2,a2,-1
   1d7fa:	00e68023          	sb	a4,0(a3)
   1d7fe:	0685                	addi	a3,a3,1
   1d800:	0585                	addi	a1,a1,1
   1d802:	fa6d                	bnez	a2,1d7f4 <_ZN17compiler_builtins3mem6memcpy17h90d0c987d2ef5a79E+0x76>
   1d804:	4432                	lw	s0,12(sp)
   1d806:	0141                	addi	sp,sp,16
   1d808:	8082                	ret
   1d80a:	4801                	li	a6,0
   1d80c:	4791                	li	a5,4
   1d80e:	c402                	sw	zero,8(sp)
   1d810:	40c783b3          	sub	t2,a5,a2
   1d814:	00810293          	addi	t0,sp,8
   1d818:	0013f313          	andi	t1,t2,1
   1d81c:	00c2e2b3          	or	t0,t0,a2
   1d820:	04031763          	bnez	t1,1d86e <_ZN17compiler_builtins3mem6memcpy17h90d0c987d2ef5a79E+0xf0>
   1d824:	0023f793          	andi	a5,t2,2
   1d828:	ebb9                	bnez	a5,1d87e <_ZN17compiler_builtins3mem6memcpy17h90d0c987d2ef5a79E+0x100>
   1d82a:	4ea2                	lw	t4,8(sp)
   1d82c:	00361813          	slli	a6,a2,0x3
   1d830:	004f8793          	addi	a5,t6,4
   1d834:	40c40f33          	sub	t5,s0,a2
   1d838:	06d7f363          	bgeu	a5,a3,1d89e <_ZN17compiler_builtins3mem6memcpy17h90d0c987d2ef5a79E+0x120>
   1d83c:	410007b3          	neg	a5,a6
   1d840:	0187fe13          	andi	t3,a5,24
   1d844:	004f2283          	lw	t0,4(t5)
   1d848:	004f0393          	addi	t2,t5,4
   1d84c:	010ed5b3          	srl	a1,t4,a6
   1d850:	004f8313          	addi	t1,t6,4
   1d854:	01c297b3          	sll	a5,t0,t3
   1d858:	8ddd                	or	a1,a1,a5
   1d85a:	008f8793          	addi	a5,t6,8
   1d85e:	00bfa023          	sw	a1,0(t6)
   1d862:	8f9a                	mv	t6,t1
   1d864:	8f1e                	mv	t5,t2
   1d866:	8e96                	mv	t4,t0
   1d868:	fcd7eee3          	bltu	a5,a3,1d844 <_ZN17compiler_builtins3mem6memcpy17h90d0c987d2ef5a79E+0xc6>
   1d86c:	a825                	j	1d8a4 <_ZN17compiler_builtins3mem6memcpy17h90d0c987d2ef5a79E+0x126>
   1d86e:	00044783          	lbu	a5,0(s0)
   1d872:	00f28023          	sb	a5,0(t0)
   1d876:	4805                	li	a6,1
   1d878:	0023f793          	andi	a5,t2,2
   1d87c:	d7dd                	beqz	a5,1d82a <_ZN17compiler_builtins3mem6memcpy17h90d0c987d2ef5a79E+0xac>
   1d87e:	010407b3          	add	a5,s0,a6
   1d882:	00079783          	lh	a5,0(a5)
   1d886:	9816                	add	a6,a6,t0
   1d888:	00f81023          	sh	a5,0(a6)
   1d88c:	4ea2                	lw	t4,8(sp)
   1d88e:	00361813          	slli	a6,a2,0x3
   1d892:	004f8793          	addi	a5,t6,4
   1d896:	40c40f33          	sub	t5,s0,a2
   1d89a:	fad7e1e3          	bltu	a5,a3,1d83c <_ZN17compiler_builtins3mem6memcpy17h90d0c987d2ef5a79E+0xbe>
   1d89e:	82f6                	mv	t0,t4
   1d8a0:	83fa                	mv	t2,t5
   1d8a2:	837e                	mv	t1,t6
   1d8a4:	00010223          	sb	zero,4(sp)
   1d8a8:	4785                	li	a5,1
   1d8aa:	00010123          	sb	zero,2(sp)
   1d8ae:	00f61763          	bne	a2,a5,1d8bc <_ZN17compiler_builtins3mem6memcpy17h90d0c987d2ef5a79E+0x13e>
   1d8b2:	4781                	li	a5,0
   1d8b4:	4e01                	li	t3,0
   1d8b6:	4e81                	li	t4,0
   1d8b8:	0050                	addi	a2,sp,4
   1d8ba:	a819                	j	1d8d0 <_ZN17compiler_builtins3mem6memcpy17h90d0c987d2ef5a79E+0x152>
   1d8bc:	0043c783          	lbu	a5,4(t2)
   1d8c0:	0053ce03          	lbu	t3,5(t2)
   1d8c4:	4e89                	li	t4,2
   1d8c6:	00f10223          	sb	a5,4(sp)
   1d8ca:	0e22                	slli	t3,t3,0x8
   1d8cc:	00210613          	addi	a2,sp,2
   1d8d0:	00147593          	andi	a1,s0,1
   1d8d4:	e199                	bnez	a1,1d8da <_ZN17compiler_builtins3mem6memcpy17h90d0c987d2ef5a79E+0x15c>
   1d8d6:	4601                	li	a2,0
   1d8d8:	a821                	j	1d8f0 <_ZN17compiler_builtins3mem6memcpy17h90d0c987d2ef5a79E+0x172>
   1d8da:	0391                	addi	t2,t2,4
   1d8dc:	93f6                	add	t2,t2,t4
   1d8de:	0003c583          	lbu	a1,0(t2)
   1d8e2:	00b60023          	sb	a1,0(a2)
   1d8e6:	00214603          	lbu	a2,2(sp)
   1d8ea:	00414783          	lbu	a5,4(sp)
   1d8ee:	0642                	slli	a2,a2,0x10
   1d8f0:	8e5d                	or	a2,a2,a5
   1d8f2:	0102d5b3          	srl	a1,t0,a6
   1d8f6:	410007b3          	neg	a5,a6
   1d8fa:	00ce6633          	or	a2,t3,a2
   1d8fe:	8be1                	andi	a5,a5,24
   1d900:	00f61633          	sll	a2,a2,a5
   1d904:	8dd1                	or	a1,a1,a2
   1d906:	00b32023          	sw	a1,0(t1)
   1d90a:	00e405b3          	add	a1,s0,a4
   1d90e:	0038f613          	andi	a2,a7,3
   1d912:	00c68733          	add	a4,a3,a2
   1d916:	ece6efe3          	bltu	a3,a4,1d7f4 <_ZN17compiler_builtins3mem6memcpy17h90d0c987d2ef5a79E+0x76>
   1d91a:	b5ed                	j	1d804 <_ZN17compiler_builtins3mem6memcpy17h90d0c987d2ef5a79E+0x86>
