
target/thumbv6m-none-eabi/opt-2/examples/complex_full_dynamic:     file format elf32-littlearm

Sections:
Idx Name          Size      VMA       LMA       File off  Algn
  0 .ARM.exidx    00000010  000100d4  000100d4  000000d4  2**2
                  CONTENTS, ALLOC, LOAD, READONLY, DATA
  1 .text         000071c0  000200e4  000200e4  000000e4  2**2
                  CONTENTS, ALLOC, LOAD, READONLY, CODE
  2 .comment      0000008b  00000000  00000000  000072a4  2**0
                  CONTENTS, READONLY
  3 .ARM.attributes 00000032  00000000  00000000  0000732f  2**0
                  CONTENTS, READONLY

Disassembly of section .text:

000200e4 <_ZN20complex_full_dynamic3app17h00e6556cf3ff0e54E>:
   200e4:	b5f0      	push	{r4, r5, r6, r7, lr}
   200e6:	af03      	add	r7, sp, #12
   200e8:	b0ad      	sub	sp, #180	@ 0xb4
   200ea:	9002      	str	r0, [sp, #8]
   200ec:	ae03      	add	r6, sp, #12
   200ee:	2002      	movs	r0, #2
   200f0:	9001      	str	r0, [sp, #4]
   200f2:	7230      	strb	r0, [r6, #8]
   200f4:	360c      	adds	r6, #12
   200f6:	222a      	movs	r2, #42	@ 0x2a
   200f8:	9200      	str	r2, [sp, #0]
   200fa:	4630      	mov	r0, r6
   200fc:	f007 f8cd 	bl	2729a <__aeabi_memcpy>
   20100:	ac11      	add	r4, sp, #68	@ 0x44
   20102:	4625      	mov	r5, r4
   20104:	350c      	adds	r5, #12
   20106:	2163      	movs	r1, #99	@ 0x63
   20108:	4628      	mov	r0, r5
   2010a:	f006 ff19 	bl	26f40 <__aeabi_memclr4>
   2010e:	9801      	ldr	r0, [sp, #4]
   20110:	7220      	strb	r0, [r4, #8]
   20112:	481f      	ldr	r0, [pc, #124]	@ (20190 <_ZN20complex_full_dynamic3app17h00e6556cf3ff0e54E+0xac>)
   20114:	2404      	movs	r4, #4
   20116:	4621      	mov	r1, r4
   20118:	4632      	mov	r2, r6
   2011a:	9b00      	ldr	r3, [sp, #0]
   2011c:	df04      	svc	4
   2011e:	2802      	cmp	r0, #2
   20120:	d018      	beq.n	20154 <_ZN20complex_full_dynamic3app17h00e6556cf3ff0e54E+0x70>
   20122:	a803      	add	r0, sp, #12
   20124:	7204      	strb	r4, [r0, #8]
   20126:	9404      	str	r4, [sp, #16]
   20128:	4c19      	ldr	r4, [pc, #100]	@ (20190 <_ZN20complex_full_dynamic3app17h00e6556cf3ff0e54E+0xac>)
   2012a:	9403      	str	r4, [sp, #12]
   2012c:	2600      	movs	r6, #0
   2012e:	2363      	movs	r3, #99	@ 0x63
   20130:	4620      	mov	r0, r4
   20132:	4631      	mov	r1, r6
   20134:	462a      	mov	r2, r5
   20136:	df03      	svc	3
   20138:	2802      	cmp	r0, #2
   2013a:	d00b      	beq.n	20154 <_ZN20complex_full_dynamic3app17h00e6556cf3ff0e54E+0x70>
   2013c:	a811      	add	r0, sp, #68	@ 0x44
   2013e:	2103      	movs	r1, #3
   20140:	7201      	strb	r1, [r0, #8]
   20142:	9411      	str	r4, [sp, #68]	@ 0x44
   20144:	9612      	str	r6, [sp, #72]	@ 0x48
   20146:	4812      	ldr	r0, [pc, #72]	@ (20190 <_ZN20complex_full_dynamic3app17h00e6556cf3ff0e54E+0xac>)
   20148:	2104      	movs	r1, #4
   2014a:	4632      	mov	r2, r6
   2014c:	4633      	mov	r3, r6
   2014e:	df02      	svc	2
   20150:	287f      	cmp	r0, #127	@ 0x7f
   20152:	d80b      	bhi.n	2016c <_ZN20complex_full_dynamic3app17h00e6556cf3ff0e54E+0x88>
   20154:	9c02      	ldr	r4, [sp, #8]
   20156:	6061      	str	r1, [r4, #4]
   20158:	2601      	movs	r6, #1
   2015a:	7026      	strb	r6, [r4, #0]
   2015c:	a811      	add	r0, sp, #68	@ 0x44
   2015e:	f006 fedb 	bl	26f18 <_ZN9allow_pin12full_dynamic17unshare_if_shared17hc627a04126f70c57E>
   20162:	a803      	add	r0, sp, #12
   20164:	f006 fed8 	bl	26f18 <_ZN9allow_pin12full_dynamic17unshare_if_shared17hc627a04126f70c57E>
   20168:	b02d      	add	sp, #180	@ 0xb4
   2016a:	bdf0      	pop	{r4, r5, r6, r7, pc}
   2016c:	a803      	add	r0, sp, #12
   2016e:	f006 fed3 	bl	26f18 <_ZN9allow_pin12full_dynamic17unshare_if_shared17hc627a04126f70c57E>
   20172:	ac11      	add	r4, sp, #68	@ 0x44
   20174:	4620      	mov	r0, r4
   20176:	f006 fecf 	bl	26f18 <_ZN9allow_pin12full_dynamic17unshare_if_shared17hc627a04126f70c57E>
   2017a:	4620      	mov	r0, r4
   2017c:	f006 fecc 	bl	26f18 <_ZN9allow_pin12full_dynamic17unshare_if_shared17hc627a04126f70c57E>
   20180:	9c02      	ldr	r4, [sp, #8]
   20182:	1c60      	adds	r0, r4, #1
   20184:	2263      	movs	r2, #99	@ 0x63
   20186:	4629      	mov	r1, r5
   20188:	f007 f887 	bl	2729a <__aeabi_memcpy>
   2018c:	e7e5      	b.n	2015a <_ZN20complex_full_dynamic3app17h00e6556cf3ff0e54E+0x76>
   2018e:	46c0      	nop			@ (mov r8, r8)
   20190:	00001c7c 	.word	0x00001c7c

00020194 <_ZN20complex_full_dynamic3app17h02fb61f499165b29E>:
   20194:	b5f0      	push	{r4, r5, r6, r7, lr}
   20196:	af03      	add	r7, sp, #12
   20198:	b0a5      	sub	sp, #148	@ 0x94
   2019a:	9003      	str	r0, [sp, #12]
   2019c:	ac04      	add	r4, sp, #16
   2019e:	2002      	movs	r0, #2
   201a0:	9002      	str	r0, [sp, #8]
   201a2:	7220      	strb	r0, [r4, #8]
   201a4:	340c      	adds	r4, #12
   201a6:	2236      	movs	r2, #54	@ 0x36
   201a8:	9201      	str	r2, [sp, #4]
   201aa:	4620      	mov	r0, r4
   201ac:	f007 f875 	bl	2729a <__aeabi_memcpy>
   201b0:	ae15      	add	r6, sp, #84	@ 0x54
   201b2:	4635      	mov	r5, r6
   201b4:	350c      	adds	r5, #12
   201b6:	2134      	movs	r1, #52	@ 0x34
   201b8:	4628      	mov	r0, r5
   201ba:	f006 fec1 	bl	26f40 <__aeabi_memclr4>
   201be:	9802      	ldr	r0, [sp, #8]
   201c0:	7230      	strb	r0, [r6, #8]
   201c2:	481f      	ldr	r0, [pc, #124]	@ (20240 <_ZN20complex_full_dynamic3app17h02fb61f499165b29E+0xac>)
   201c4:	2604      	movs	r6, #4
   201c6:	4631      	mov	r1, r6
   201c8:	4622      	mov	r2, r4
   201ca:	9b01      	ldr	r3, [sp, #4]
   201cc:	df04      	svc	4
   201ce:	2802      	cmp	r0, #2
   201d0:	d019      	beq.n	20206 <_ZN20complex_full_dynamic3app17h02fb61f499165b29E+0x72>
   201d2:	a804      	add	r0, sp, #16
   201d4:	7206      	strb	r6, [r0, #8]
   201d6:	9605      	str	r6, [sp, #20]
   201d8:	4e19      	ldr	r6, [pc, #100]	@ (20240 <_ZN20complex_full_dynamic3app17h02fb61f499165b29E+0xac>)
   201da:	9604      	str	r6, [sp, #16]
   201dc:	2402      	movs	r4, #2
   201de:	2334      	movs	r3, #52	@ 0x34
   201e0:	4630      	mov	r0, r6
   201e2:	4621      	mov	r1, r4
   201e4:	462a      	mov	r2, r5
   201e6:	df03      	svc	3
   201e8:	2802      	cmp	r0, #2
   201ea:	d00c      	beq.n	20206 <_ZN20complex_full_dynamic3app17h02fb61f499165b29E+0x72>
   201ec:	a815      	add	r0, sp, #84	@ 0x54
   201ee:	2103      	movs	r1, #3
   201f0:	7201      	strb	r1, [r0, #8]
   201f2:	9615      	str	r6, [sp, #84]	@ 0x54
   201f4:	9416      	str	r4, [sp, #88]	@ 0x58
   201f6:	4812      	ldr	r0, [pc, #72]	@ (20240 <_ZN20complex_full_dynamic3app17h02fb61f499165b29E+0xac>)
   201f8:	2104      	movs	r1, #4
   201fa:	2600      	movs	r6, #0
   201fc:	4622      	mov	r2, r4
   201fe:	4633      	mov	r3, r6
   20200:	df02      	svc	2
   20202:	287f      	cmp	r0, #127	@ 0x7f
   20204:	d80b      	bhi.n	2021e <_ZN20complex_full_dynamic3app17h02fb61f499165b29E+0x8a>
   20206:	9c03      	ldr	r4, [sp, #12]
   20208:	6061      	str	r1, [r4, #4]
   2020a:	2601      	movs	r6, #1
   2020c:	7026      	strb	r6, [r4, #0]
   2020e:	a815      	add	r0, sp, #84	@ 0x54
   20210:	f006 fe82 	bl	26f18 <_ZN9allow_pin12full_dynamic17unshare_if_shared17hc627a04126f70c57E>
   20214:	a804      	add	r0, sp, #16
   20216:	f006 fe7f 	bl	26f18 <_ZN9allow_pin12full_dynamic17unshare_if_shared17hc627a04126f70c57E>
   2021a:	b025      	add	sp, #148	@ 0x94
   2021c:	bdf0      	pop	{r4, r5, r6, r7, pc}
   2021e:	a804      	add	r0, sp, #16
   20220:	f006 fe7a 	bl	26f18 <_ZN9allow_pin12full_dynamic17unshare_if_shared17hc627a04126f70c57E>
   20224:	ac15      	add	r4, sp, #84	@ 0x54
   20226:	4620      	mov	r0, r4
   20228:	f006 fe76 	bl	26f18 <_ZN9allow_pin12full_dynamic17unshare_if_shared17hc627a04126f70c57E>
   2022c:	4620      	mov	r0, r4
   2022e:	f006 fe73 	bl	26f18 <_ZN9allow_pin12full_dynamic17unshare_if_shared17hc627a04126f70c57E>
   20232:	9c03      	ldr	r4, [sp, #12]
   20234:	1c60      	adds	r0, r4, #1
   20236:	2234      	movs	r2, #52	@ 0x34
   20238:	4629      	mov	r1, r5
   2023a:	f007 f82e 	bl	2729a <__aeabi_memcpy>
   2023e:	e7e5      	b.n	2020c <_ZN20complex_full_dynamic3app17h02fb61f499165b29E+0x78>
   20240:	000023c6 	.word	0x000023c6

00020244 <_ZN20complex_full_dynamic3app17h03dcc88312ac9a84E>:
   20244:	b5f0      	push	{r4, r5, r6, r7, lr}
   20246:	af03      	add	r7, sp, #12
   20248:	b0ad      	sub	sp, #180	@ 0xb4
   2024a:	9003      	str	r0, [sp, #12]
   2024c:	ac04      	add	r4, sp, #16
   2024e:	2002      	movs	r0, #2
   20250:	9002      	str	r0, [sp, #8]
   20252:	7220      	strb	r0, [r4, #8]
   20254:	340c      	adds	r4, #12
   20256:	224f      	movs	r2, #79	@ 0x4f
   20258:	9201      	str	r2, [sp, #4]
   2025a:	4620      	mov	r0, r4
   2025c:	f007 f81d 	bl	2729a <__aeabi_memcpy>
   20260:	ae1b      	add	r6, sp, #108	@ 0x6c
   20262:	4635      	mov	r5, r6
   20264:	350c      	adds	r5, #12
   20266:	213b      	movs	r1, #59	@ 0x3b
   20268:	4628      	mov	r0, r5
   2026a:	f006 fe69 	bl	26f40 <__aeabi_memclr4>
   2026e:	9802      	ldr	r0, [sp, #8]
   20270:	7230      	strb	r0, [r6, #8]
   20272:	4820      	ldr	r0, [pc, #128]	@ (202f4 <_ZN20complex_full_dynamic3app17h03dcc88312ac9a84E+0xb0>)
   20274:	2608      	movs	r6, #8
   20276:	4631      	mov	r1, r6
   20278:	4622      	mov	r2, r4
   2027a:	9b01      	ldr	r3, [sp, #4]
   2027c:	df04      	svc	4
   2027e:	2802      	cmp	r0, #2
   20280:	d01a      	beq.n	202b8 <_ZN20complex_full_dynamic3app17h03dcc88312ac9a84E+0x74>
   20282:	a804      	add	r0, sp, #16
   20284:	2104      	movs	r1, #4
   20286:	7201      	strb	r1, [r0, #8]
   20288:	9605      	str	r6, [sp, #20]
   2028a:	4e1a      	ldr	r6, [pc, #104]	@ (202f4 <_ZN20complex_full_dynamic3app17h03dcc88312ac9a84E+0xb0>)
   2028c:	9604      	str	r6, [sp, #16]
   2028e:	2405      	movs	r4, #5
   20290:	233b      	movs	r3, #59	@ 0x3b
   20292:	4630      	mov	r0, r6
   20294:	4621      	mov	r1, r4
   20296:	462a      	mov	r2, r5
   20298:	df03      	svc	3
   2029a:	2802      	cmp	r0, #2
   2029c:	d00c      	beq.n	202b8 <_ZN20complex_full_dynamic3app17h03dcc88312ac9a84E+0x74>
   2029e:	a81b      	add	r0, sp, #108	@ 0x6c
   202a0:	2103      	movs	r1, #3
   202a2:	7201      	strb	r1, [r0, #8]
   202a4:	961b      	str	r6, [sp, #108]	@ 0x6c
   202a6:	941c      	str	r4, [sp, #112]	@ 0x70
   202a8:	4812      	ldr	r0, [pc, #72]	@ (202f4 <_ZN20complex_full_dynamic3app17h03dcc88312ac9a84E+0xb0>)
   202aa:	2108      	movs	r1, #8
   202ac:	2600      	movs	r6, #0
   202ae:	4622      	mov	r2, r4
   202b0:	4633      	mov	r3, r6
   202b2:	df02      	svc	2
   202b4:	287f      	cmp	r0, #127	@ 0x7f
   202b6:	d80b      	bhi.n	202d0 <_ZN20complex_full_dynamic3app17h03dcc88312ac9a84E+0x8c>
   202b8:	9c03      	ldr	r4, [sp, #12]
   202ba:	6061      	str	r1, [r4, #4]
   202bc:	2601      	movs	r6, #1
   202be:	7026      	strb	r6, [r4, #0]
   202c0:	a81b      	add	r0, sp, #108	@ 0x6c
   202c2:	f006 fe29 	bl	26f18 <_ZN9allow_pin12full_dynamic17unshare_if_shared17hc627a04126f70c57E>
   202c6:	a804      	add	r0, sp, #16
   202c8:	f006 fe26 	bl	26f18 <_ZN9allow_pin12full_dynamic17unshare_if_shared17hc627a04126f70c57E>
   202cc:	b02d      	add	sp, #180	@ 0xb4
   202ce:	bdf0      	pop	{r4, r5, r6, r7, pc}
   202d0:	a804      	add	r0, sp, #16
   202d2:	f006 fe21 	bl	26f18 <_ZN9allow_pin12full_dynamic17unshare_if_shared17hc627a04126f70c57E>
   202d6:	ac1b      	add	r4, sp, #108	@ 0x6c
   202d8:	4620      	mov	r0, r4
   202da:	f006 fe1d 	bl	26f18 <_ZN9allow_pin12full_dynamic17unshare_if_shared17hc627a04126f70c57E>
   202de:	4620      	mov	r0, r4
   202e0:	f006 fe1a 	bl	26f18 <_ZN9allow_pin12full_dynamic17unshare_if_shared17hc627a04126f70c57E>
   202e4:	9c03      	ldr	r4, [sp, #12]
   202e6:	1c60      	adds	r0, r4, #1
   202e8:	223b      	movs	r2, #59	@ 0x3b
   202ea:	4629      	mov	r1, r5
   202ec:	f006 ffd5 	bl	2729a <__aeabi_memcpy>
   202f0:	e7e5      	b.n	202be <_ZN20complex_full_dynamic3app17h03dcc88312ac9a84E+0x7a>
   202f2:	46c0      	nop			@ (mov r8, r8)
   202f4:	00000a06 	.word	0x00000a06

000202f8 <_ZN20complex_full_dynamic3app17h04d0feaeb6b31f2eE>:
   202f8:	b5f0      	push	{r4, r5, r6, r7, lr}
   202fa:	af03      	add	r7, sp, #12
   202fc:	b09d      	sub	sp, #116	@ 0x74
   202fe:	9002      	str	r0, [sp, #8]
   20300:	ae03      	add	r6, sp, #12
   20302:	2502      	movs	r5, #2
   20304:	7235      	strb	r5, [r6, #8]
   20306:	360c      	adds	r6, #12
   20308:	2234      	movs	r2, #52	@ 0x34
   2030a:	9201      	str	r2, [sp, #4]
   2030c:	4630      	mov	r0, r6
   2030e:	f006 ffc4 	bl	2729a <__aeabi_memcpy>
   20312:	a813      	add	r0, sp, #76	@ 0x4c
   20314:	2400      	movs	r4, #0
   20316:	8484      	strh	r4, [r0, #36]	@ 0x24
   20318:	7205      	strb	r5, [r0, #8]
   2031a:	4605      	mov	r5, r0
   2031c:	941b      	str	r4, [sp, #108]	@ 0x6c
   2031e:	941a      	str	r4, [sp, #104]	@ 0x68
   20320:	9419      	str	r4, [sp, #100]	@ 0x64
   20322:	9418      	str	r4, [sp, #96]	@ 0x60
   20324:	9417      	str	r4, [sp, #92]	@ 0x5c
   20326:	9416      	str	r4, [sp, #88]	@ 0x58
   20328:	481f      	ldr	r0, [pc, #124]	@ (203a8 <_ZN20complex_full_dynamic3app17h04d0feaeb6b31f2eE+0xb0>)
   2032a:	4621      	mov	r1, r4
   2032c:	4632      	mov	r2, r6
   2032e:	9b01      	ldr	r3, [sp, #4]
   20330:	df04      	svc	4
   20332:	2802      	cmp	r0, #2
   20334:	d01b      	beq.n	2036e <_ZN20complex_full_dynamic3app17h04d0feaeb6b31f2eE+0x76>
   20336:	350c      	adds	r5, #12
   20338:	a803      	add	r0, sp, #12
   2033a:	2104      	movs	r1, #4
   2033c:	7201      	strb	r1, [r0, #8]
   2033e:	9404      	str	r4, [sp, #16]
   20340:	4e19      	ldr	r6, [pc, #100]	@ (203a8 <_ZN20complex_full_dynamic3app17h04d0feaeb6b31f2eE+0xb0>)
   20342:	9603      	str	r6, [sp, #12]
   20344:	2405      	movs	r4, #5
   20346:	231a      	movs	r3, #26
   20348:	4630      	mov	r0, r6
   2034a:	4621      	mov	r1, r4
   2034c:	462a      	mov	r2, r5
   2034e:	df03      	svc	3
   20350:	2802      	cmp	r0, #2
   20352:	d00c      	beq.n	2036e <_ZN20complex_full_dynamic3app17h04d0feaeb6b31f2eE+0x76>
   20354:	a813      	add	r0, sp, #76	@ 0x4c
   20356:	2103      	movs	r1, #3
   20358:	7201      	strb	r1, [r0, #8]
   2035a:	9613      	str	r6, [sp, #76]	@ 0x4c
   2035c:	9414      	str	r4, [sp, #80]	@ 0x50
   2035e:	4812      	ldr	r0, [pc, #72]	@ (203a8 <_ZN20complex_full_dynamic3app17h04d0feaeb6b31f2eE+0xb0>)
   20360:	2600      	movs	r6, #0
   20362:	4631      	mov	r1, r6
   20364:	4622      	mov	r2, r4
   20366:	4633      	mov	r3, r6
   20368:	df02      	svc	2
   2036a:	287f      	cmp	r0, #127	@ 0x7f
   2036c:	d80b      	bhi.n	20386 <_ZN20complex_full_dynamic3app17h04d0feaeb6b31f2eE+0x8e>
   2036e:	9c02      	ldr	r4, [sp, #8]
   20370:	6061      	str	r1, [r4, #4]
   20372:	2601      	movs	r6, #1
   20374:	7026      	strb	r6, [r4, #0]
   20376:	a813      	add	r0, sp, #76	@ 0x4c
   20378:	f006 fdce 	bl	26f18 <_ZN9allow_pin12full_dynamic17unshare_if_shared17hc627a04126f70c57E>
   2037c:	a803      	add	r0, sp, #12
   2037e:	f006 fdcb 	bl	26f18 <_ZN9allow_pin12full_dynamic17unshare_if_shared17hc627a04126f70c57E>
   20382:	b01d      	add	sp, #116	@ 0x74
   20384:	bdf0      	pop	{r4, r5, r6, r7, pc}
   20386:	a803      	add	r0, sp, #12
   20388:	f006 fdc6 	bl	26f18 <_ZN9allow_pin12full_dynamic17unshare_if_shared17hc627a04126f70c57E>
   2038c:	ac13      	add	r4, sp, #76	@ 0x4c
   2038e:	4620      	mov	r0, r4
   20390:	f006 fdc2 	bl	26f18 <_ZN9allow_pin12full_dynamic17unshare_if_shared17hc627a04126f70c57E>
   20394:	4620      	mov	r0, r4
   20396:	f006 fdbf 	bl	26f18 <_ZN9allow_pin12full_dynamic17unshare_if_shared17hc627a04126f70c57E>
   2039a:	9c02      	ldr	r4, [sp, #8]
   2039c:	1c60      	adds	r0, r4, #1
   2039e:	221a      	movs	r2, #26
   203a0:	4629      	mov	r1, r5
   203a2:	f006 ff7a 	bl	2729a <__aeabi_memcpy>
   203a6:	e7e5      	b.n	20374 <_ZN20complex_full_dynamic3app17h04d0feaeb6b31f2eE+0x7c>
   203a8:	000012cc 	.word	0x000012cc

000203ac <_ZN20complex_full_dynamic3app17h05a947302f7cd833E>:
   203ac:	b5f0      	push	{r4, r5, r6, r7, lr}
   203ae:	af03      	add	r7, sp, #12
   203b0:	b0ad      	sub	sp, #180	@ 0xb4
   203b2:	9003      	str	r0, [sp, #12]
   203b4:	ae04      	add	r6, sp, #16
   203b6:	2002      	movs	r0, #2
   203b8:	9002      	str	r0, [sp, #8]
   203ba:	7230      	strb	r0, [r6, #8]
   203bc:	360c      	adds	r6, #12
   203be:	2255      	movs	r2, #85	@ 0x55
   203c0:	9201      	str	r2, [sp, #4]
   203c2:	4630      	mov	r0, r6
   203c4:	f006 ff69 	bl	2729a <__aeabi_memcpy>
   203c8:	ad1d      	add	r5, sp, #116	@ 0x74
   203ca:	462c      	mov	r4, r5
   203cc:	340c      	adds	r4, #12
   203ce:	2132      	movs	r1, #50	@ 0x32
   203d0:	4620      	mov	r0, r4
   203d2:	f006 fdb5 	bl	26f40 <__aeabi_memclr4>
   203d6:	9802      	ldr	r0, [sp, #8]
   203d8:	7228      	strb	r0, [r5, #8]
   203da:	4820      	ldr	r0, [pc, #128]	@ (2045c <_ZN20complex_full_dynamic3app17h05a947302f7cd833E+0xb0>)
   203dc:	2508      	movs	r5, #8
   203de:	4629      	mov	r1, r5
   203e0:	4632      	mov	r2, r6
   203e2:	9b01      	ldr	r3, [sp, #4]
   203e4:	df04      	svc	4
   203e6:	2802      	cmp	r0, #2
   203e8:	d019      	beq.n	2041e <_ZN20complex_full_dynamic3app17h05a947302f7cd833E+0x72>
   203ea:	a804      	add	r0, sp, #16
   203ec:	2104      	movs	r1, #4
   203ee:	7201      	strb	r1, [r0, #8]
   203f0:	4e1a      	ldr	r6, [pc, #104]	@ (2045c <_ZN20complex_full_dynamic3app17h05a947302f7cd833E+0xb0>)
   203f2:	9604      	str	r6, [sp, #16]
   203f4:	9505      	str	r5, [sp, #20]
   203f6:	2332      	movs	r3, #50	@ 0x32
   203f8:	4630      	mov	r0, r6
   203fa:	4629      	mov	r1, r5
   203fc:	4622      	mov	r2, r4
   203fe:	df03      	svc	3
   20400:	2802      	cmp	r0, #2
   20402:	d00c      	beq.n	2041e <_ZN20complex_full_dynamic3app17h05a947302f7cd833E+0x72>
   20404:	a81d      	add	r0, sp, #116	@ 0x74
   20406:	2103      	movs	r1, #3
   20408:	7201      	strb	r1, [r0, #8]
   2040a:	961d      	str	r6, [sp, #116]	@ 0x74
   2040c:	951e      	str	r5, [sp, #120]	@ 0x78
   2040e:	4813      	ldr	r0, [pc, #76]	@ (2045c <_ZN20complex_full_dynamic3app17h05a947302f7cd833E+0xb0>)
   20410:	2600      	movs	r6, #0
   20412:	4629      	mov	r1, r5
   20414:	462a      	mov	r2, r5
   20416:	4633      	mov	r3, r6
   20418:	df02      	svc	2
   2041a:	287f      	cmp	r0, #127	@ 0x7f
   2041c:	d80b      	bhi.n	20436 <_ZN20complex_full_dynamic3app17h05a947302f7cd833E+0x8a>
   2041e:	9c03      	ldr	r4, [sp, #12]
   20420:	6061      	str	r1, [r4, #4]
   20422:	2601      	movs	r6, #1
   20424:	7026      	strb	r6, [r4, #0]
   20426:	a81d      	add	r0, sp, #116	@ 0x74
   20428:	f006 fd76 	bl	26f18 <_ZN9allow_pin12full_dynamic17unshare_if_shared17hc627a04126f70c57E>
   2042c:	a804      	add	r0, sp, #16
   2042e:	f006 fd73 	bl	26f18 <_ZN9allow_pin12full_dynamic17unshare_if_shared17hc627a04126f70c57E>
   20432:	b02d      	add	sp, #180	@ 0xb4
   20434:	bdf0      	pop	{r4, r5, r6, r7, pc}
   20436:	a804      	add	r0, sp, #16
   20438:	f006 fd6e 	bl	26f18 <_ZN9allow_pin12full_dynamic17unshare_if_shared17hc627a04126f70c57E>
   2043c:	4625      	mov	r5, r4
   2043e:	ac1d      	add	r4, sp, #116	@ 0x74
   20440:	4620      	mov	r0, r4
   20442:	f006 fd69 	bl	26f18 <_ZN9allow_pin12full_dynamic17unshare_if_shared17hc627a04126f70c57E>
   20446:	4620      	mov	r0, r4
   20448:	f006 fd66 	bl	26f18 <_ZN9allow_pin12full_dynamic17unshare_if_shared17hc627a04126f70c57E>
   2044c:	9c03      	ldr	r4, [sp, #12]
   2044e:	1c60      	adds	r0, r4, #1
   20450:	2232      	movs	r2, #50	@ 0x32
   20452:	4629      	mov	r1, r5
   20454:	f006 ff21 	bl	2729a <__aeabi_memcpy>
   20458:	e7e4      	b.n	20424 <_ZN20complex_full_dynamic3app17h05a947302f7cd833E+0x78>
   2045a:	46c0      	nop			@ (mov r8, r8)
   2045c:	00002095 	.word	0x00002095

00020460 <_ZN20complex_full_dynamic3app17h0935fe3169281970E>:
   20460:	b5f0      	push	{r4, r5, r6, r7, lr}
   20462:	af03      	add	r7, sp, #12
   20464:	b09b      	sub	sp, #108	@ 0x6c
   20466:	9002      	str	r0, [sp, #8]
   20468:	ac03      	add	r4, sp, #12
   2046a:	2502      	movs	r5, #2
   2046c:	7225      	strb	r5, [r4, #8]
   2046e:	340c      	adds	r4, #12
   20470:	2236      	movs	r2, #54	@ 0x36
   20472:	9201      	str	r2, [sp, #4]
   20474:	4620      	mov	r0, r4
   20476:	f006 ff10 	bl	2729a <__aeabi_memcpy>
   2047a:	ae14      	add	r6, sp, #80	@ 0x50
   2047c:	2000      	movs	r0, #0
   2047e:	76b0      	strb	r0, [r6, #26]
   20480:	8330      	strh	r0, [r6, #24]
   20482:	7235      	strb	r5, [r6, #8]
   20484:	9019      	str	r0, [sp, #100]	@ 0x64
   20486:	9018      	str	r0, [sp, #96]	@ 0x60
   20488:	9017      	str	r0, [sp, #92]	@ 0x5c
   2048a:	4820      	ldr	r0, [pc, #128]	@ (2050c <_ZN20complex_full_dynamic3app17h0935fe3169281970E+0xac>)
   2048c:	2505      	movs	r5, #5
   2048e:	4629      	mov	r1, r5
   20490:	4622      	mov	r2, r4
   20492:	9b01      	ldr	r3, [sp, #4]
   20494:	df04      	svc	4
   20496:	2802      	cmp	r0, #2
   20498:	d01a      	beq.n	204d0 <_ZN20complex_full_dynamic3app17h0935fe3169281970E+0x70>
   2049a:	360c      	adds	r6, #12
   2049c:	a803      	add	r0, sp, #12
   2049e:	2104      	movs	r1, #4
   204a0:	7201      	strb	r1, [r0, #8]
   204a2:	9504      	str	r5, [sp, #16]
   204a4:	4819      	ldr	r0, [pc, #100]	@ (2050c <_ZN20complex_full_dynamic3app17h0935fe3169281970E+0xac>)
   204a6:	9003      	str	r0, [sp, #12]
   204a8:	2403      	movs	r4, #3
   204aa:	230f      	movs	r3, #15
   204ac:	4621      	mov	r1, r4
   204ae:	4632      	mov	r2, r6
   204b0:	df03      	svc	3
   204b2:	2802      	cmp	r0, #2
   204b4:	d00c      	beq.n	204d0 <_ZN20complex_full_dynamic3app17h0935fe3169281970E+0x70>
   204b6:	4635      	mov	r5, r6
   204b8:	a814      	add	r0, sp, #80	@ 0x50
   204ba:	7204      	strb	r4, [r0, #8]
   204bc:	9415      	str	r4, [sp, #84]	@ 0x54
   204be:	4813      	ldr	r0, [pc, #76]	@ (2050c <_ZN20complex_full_dynamic3app17h0935fe3169281970E+0xac>)
   204c0:	9014      	str	r0, [sp, #80]	@ 0x50
   204c2:	2105      	movs	r1, #5
   204c4:	2600      	movs	r6, #0
   204c6:	4622      	mov	r2, r4
   204c8:	4633      	mov	r3, r6
   204ca:	df02      	svc	2
   204cc:	287f      	cmp	r0, #127	@ 0x7f
   204ce:	d80b      	bhi.n	204e8 <_ZN20complex_full_dynamic3app17h0935fe3169281970E+0x88>
   204d0:	9c02      	ldr	r4, [sp, #8]
   204d2:	6061      	str	r1, [r4, #4]
   204d4:	2601      	movs	r6, #1
   204d6:	7026      	strb	r6, [r4, #0]
   204d8:	a814      	add	r0, sp, #80	@ 0x50
   204da:	f006 fd1d 	bl	26f18 <_ZN9allow_pin12full_dynamic17unshare_if_shared17hc627a04126f70c57E>
   204de:	a803      	add	r0, sp, #12
   204e0:	f006 fd1a 	bl	26f18 <_ZN9allow_pin12full_dynamic17unshare_if_shared17hc627a04126f70c57E>
   204e4:	b01b      	add	sp, #108	@ 0x6c
   204e6:	bdf0      	pop	{r4, r5, r6, r7, pc}
   204e8:	a803      	add	r0, sp, #12
   204ea:	f006 fd15 	bl	26f18 <_ZN9allow_pin12full_dynamic17unshare_if_shared17hc627a04126f70c57E>
   204ee:	ac14      	add	r4, sp, #80	@ 0x50
   204f0:	4620      	mov	r0, r4
   204f2:	f006 fd11 	bl	26f18 <_ZN9allow_pin12full_dynamic17unshare_if_shared17hc627a04126f70c57E>
   204f6:	4620      	mov	r0, r4
   204f8:	f006 fd0e 	bl	26f18 <_ZN9allow_pin12full_dynamic17unshare_if_shared17hc627a04126f70c57E>
   204fc:	9c02      	ldr	r4, [sp, #8]
   204fe:	1c60      	adds	r0, r4, #1
   20500:	220f      	movs	r2, #15
   20502:	4629      	mov	r1, r5
   20504:	f006 fec9 	bl	2729a <__aeabi_memcpy>
   20508:	e7e5      	b.n	204d6 <_ZN20complex_full_dynamic3app17h0935fe3169281970E+0x76>
   2050a:	46c0      	nop			@ (mov r8, r8)
   2050c:	00000653 	.word	0x00000653

00020510 <_ZN20complex_full_dynamic3app17h09786f74586f6faaE>:
   20510:	b5f0      	push	{r4, r5, r6, r7, lr}
   20512:	af03      	add	r7, sp, #12
   20514:	b0b1      	sub	sp, #196	@ 0xc4
   20516:	9002      	str	r0, [sp, #8]
   20518:	ac03      	add	r4, sp, #12
   2051a:	2002      	movs	r0, #2
   2051c:	9001      	str	r0, [sp, #4]
   2051e:	7220      	strb	r0, [r4, #8]
   20520:	340c      	adds	r4, #12
   20522:	225d      	movs	r2, #93	@ 0x5d
   20524:	9200      	str	r2, [sp, #0]
   20526:	4620      	mov	r0, r4
   20528:	f006 feb7 	bl	2729a <__aeabi_memcpy>
   2052c:	ae1e      	add	r6, sp, #120	@ 0x78
   2052e:	4635      	mov	r5, r6
   20530:	350c      	adds	r5, #12
   20532:	2140      	movs	r1, #64	@ 0x40
   20534:	4628      	mov	r0, r5
   20536:	f006 fd03 	bl	26f40 <__aeabi_memclr4>
   2053a:	9801      	ldr	r0, [sp, #4]
   2053c:	7230      	strb	r0, [r6, #8]
   2053e:	481f      	ldr	r0, [pc, #124]	@ (205bc <_ZN20complex_full_dynamic3app17h09786f74586f6faaE+0xac>)
   20540:	2608      	movs	r6, #8
   20542:	4631      	mov	r1, r6
   20544:	4622      	mov	r2, r4
   20546:	9b00      	ldr	r3, [sp, #0]
   20548:	df04      	svc	4
   2054a:	2802      	cmp	r0, #2
   2054c:	d019      	beq.n	20582 <_ZN20complex_full_dynamic3app17h09786f74586f6faaE+0x72>
   2054e:	a803      	add	r0, sp, #12
   20550:	2404      	movs	r4, #4
   20552:	7204      	strb	r4, [r0, #8]
   20554:	9604      	str	r6, [sp, #16]
   20556:	4e19      	ldr	r6, [pc, #100]	@ (205bc <_ZN20complex_full_dynamic3app17h09786f74586f6faaE+0xac>)
   20558:	9603      	str	r6, [sp, #12]
   2055a:	2340      	movs	r3, #64	@ 0x40
   2055c:	4630      	mov	r0, r6
   2055e:	4621      	mov	r1, r4
   20560:	462a      	mov	r2, r5
   20562:	df03      	svc	3
   20564:	2802      	cmp	r0, #2
   20566:	d00c      	beq.n	20582 <_ZN20complex_full_dynamic3app17h09786f74586f6faaE+0x72>
   20568:	a81e      	add	r0, sp, #120	@ 0x78
   2056a:	2103      	movs	r1, #3
   2056c:	7201      	strb	r1, [r0, #8]
   2056e:	961e      	str	r6, [sp, #120]	@ 0x78
   20570:	941f      	str	r4, [sp, #124]	@ 0x7c
   20572:	4812      	ldr	r0, [pc, #72]	@ (205bc <_ZN20complex_full_dynamic3app17h09786f74586f6faaE+0xac>)
   20574:	2108      	movs	r1, #8
   20576:	2600      	movs	r6, #0
   20578:	4622      	mov	r2, r4
   2057a:	4633      	mov	r3, r6
   2057c:	df02      	svc	2
   2057e:	287f      	cmp	r0, #127	@ 0x7f
   20580:	d80b      	bhi.n	2059a <_ZN20complex_full_dynamic3app17h09786f74586f6faaE+0x8a>
   20582:	9c02      	ldr	r4, [sp, #8]
   20584:	6061      	str	r1, [r4, #4]
   20586:	2601      	movs	r6, #1
   20588:	7026      	strb	r6, [r4, #0]
   2058a:	a81e      	add	r0, sp, #120	@ 0x78
   2058c:	f006 fcc4 	bl	26f18 <_ZN9allow_pin12full_dynamic17unshare_if_shared17hc627a04126f70c57E>
   20590:	a803      	add	r0, sp, #12
   20592:	f006 fcc1 	bl	26f18 <_ZN9allow_pin12full_dynamic17unshare_if_shared17hc627a04126f70c57E>
   20596:	b031      	add	sp, #196	@ 0xc4
   20598:	bdf0      	pop	{r4, r5, r6, r7, pc}
   2059a:	a803      	add	r0, sp, #12
   2059c:	f006 fcbc 	bl	26f18 <_ZN9allow_pin12full_dynamic17unshare_if_shared17hc627a04126f70c57E>
   205a0:	ac1e      	add	r4, sp, #120	@ 0x78
   205a2:	4620      	mov	r0, r4
   205a4:	f006 fcb8 	bl	26f18 <_ZN9allow_pin12full_dynamic17unshare_if_shared17hc627a04126f70c57E>
   205a8:	4620      	mov	r0, r4
   205aa:	f006 fcb5 	bl	26f18 <_ZN9allow_pin12full_dynamic17unshare_if_shared17hc627a04126f70c57E>
   205ae:	9c02      	ldr	r4, [sp, #8]
   205b0:	1c60      	adds	r0, r4, #1
   205b2:	2240      	movs	r2, #64	@ 0x40
   205b4:	4629      	mov	r1, r5
   205b6:	f006 fe70 	bl	2729a <__aeabi_memcpy>
   205ba:	e7e5      	b.n	20588 <_ZN20complex_full_dynamic3app17h09786f74586f6faaE+0x78>
   205bc:	00001028 	.word	0x00001028

000205c0 <_ZN20complex_full_dynamic3app17h11f7dab2f3eafed1E>:
   205c0:	b5f0      	push	{r4, r5, r6, r7, lr}
   205c2:	af03      	add	r7, sp, #12
   205c4:	b0a7      	sub	sp, #156	@ 0x9c
   205c6:	9002      	str	r0, [sp, #8]
   205c8:	ac03      	add	r4, sp, #12
   205ca:	2602      	movs	r6, #2
   205cc:	7226      	strb	r6, [r4, #8]
   205ce:	340c      	adds	r4, #12
   205d0:	2221      	movs	r2, #33	@ 0x21
   205d2:	9201      	str	r2, [sp, #4]
   205d4:	4620      	mov	r0, r4
   205d6:	f006 fe60 	bl	2729a <__aeabi_memcpy>
   205da:	ad0f      	add	r5, sp, #60	@ 0x3c
   205dc:	4628      	mov	r0, r5
   205de:	300c      	adds	r0, #12
   205e0:	2153      	movs	r1, #83	@ 0x53
   205e2:	9000      	str	r0, [sp, #0]
   205e4:	f006 fcac 	bl	26f40 <__aeabi_memclr4>
   205e8:	722e      	strb	r6, [r5, #8]
   205ea:	4635      	mov	r5, r6
   205ec:	4e1f      	ldr	r6, [pc, #124]	@ (2066c <_ZN20complex_full_dynamic3app17h11f7dab2f3eafed1E+0xac>)
   205ee:	4630      	mov	r0, r6
   205f0:	4629      	mov	r1, r5
   205f2:	4622      	mov	r2, r4
   205f4:	9b01      	ldr	r3, [sp, #4]
   205f6:	df04      	svc	4
   205f8:	2802      	cmp	r0, #2
   205fa:	d01a      	beq.n	20632 <_ZN20complex_full_dynamic3app17h11f7dab2f3eafed1E+0x72>
   205fc:	a803      	add	r0, sp, #12
   205fe:	2104      	movs	r1, #4
   20600:	7201      	strb	r1, [r0, #8]
   20602:	9504      	str	r5, [sp, #16]
   20604:	9603      	str	r6, [sp, #12]
   20606:	2408      	movs	r4, #8
   20608:	2353      	movs	r3, #83	@ 0x53
   2060a:	4630      	mov	r0, r6
   2060c:	4621      	mov	r1, r4
   2060e:	9d00      	ldr	r5, [sp, #0]
   20610:	462a      	mov	r2, r5
   20612:	df03      	svc	3
   20614:	2802      	cmp	r0, #2
   20616:	d00c      	beq.n	20632 <_ZN20complex_full_dynamic3app17h11f7dab2f3eafed1E+0x72>
   20618:	a80f      	add	r0, sp, #60	@ 0x3c
   2061a:	2103      	movs	r1, #3
   2061c:	7201      	strb	r1, [r0, #8]
   2061e:	960f      	str	r6, [sp, #60]	@ 0x3c
   20620:	9410      	str	r4, [sp, #64]	@ 0x40
   20622:	4812      	ldr	r0, [pc, #72]	@ (2066c <_ZN20complex_full_dynamic3app17h11f7dab2f3eafed1E+0xac>)
   20624:	2102      	movs	r1, #2
   20626:	2600      	movs	r6, #0
   20628:	4622      	mov	r2, r4
   2062a:	4633      	mov	r3, r6
   2062c:	df02      	svc	2
   2062e:	287f      	cmp	r0, #127	@ 0x7f
   20630:	d80b      	bhi.n	2064a <_ZN20complex_full_dynamic3app17h11f7dab2f3eafed1E+0x8a>
   20632:	9c02      	ldr	r4, [sp, #8]
   20634:	6061      	str	r1, [r4, #4]
   20636:	2601      	movs	r6, #1
   20638:	7026      	strb	r6, [r4, #0]
   2063a:	a80f      	add	r0, sp, #60	@ 0x3c
   2063c:	f006 fc6c 	bl	26f18 <_ZN9allow_pin12full_dynamic17unshare_if_shared17hc627a04126f70c57E>
   20640:	a803      	add	r0, sp, #12
   20642:	f006 fc69 	bl	26f18 <_ZN9allow_pin12full_dynamic17unshare_if_shared17hc627a04126f70c57E>
   20646:	b027      	add	sp, #156	@ 0x9c
   20648:	bdf0      	pop	{r4, r5, r6, r7, pc}
   2064a:	a803      	add	r0, sp, #12
   2064c:	f006 fc64 	bl	26f18 <_ZN9allow_pin12full_dynamic17unshare_if_shared17hc627a04126f70c57E>
   20650:	ac0f      	add	r4, sp, #60	@ 0x3c
   20652:	4620      	mov	r0, r4
   20654:	f006 fc60 	bl	26f18 <_ZN9allow_pin12full_dynamic17unshare_if_shared17hc627a04126f70c57E>
   20658:	4620      	mov	r0, r4
   2065a:	f006 fc5d 	bl	26f18 <_ZN9allow_pin12full_dynamic17unshare_if_shared17hc627a04126f70c57E>
   2065e:	9c02      	ldr	r4, [sp, #8]
   20660:	1c60      	adds	r0, r4, #1
   20662:	2253      	movs	r2, #83	@ 0x53
   20664:	4629      	mov	r1, r5
   20666:	f006 fe18 	bl	2729a <__aeabi_memcpy>
   2066a:	e7e5      	b.n	20638 <_ZN20complex_full_dynamic3app17h11f7dab2f3eafed1E+0x78>
   2066c:	0000253e 	.word	0x0000253e

00020670 <_ZN20complex_full_dynamic3app17h1582dd4fc80a8303E>:
   20670:	b5f0      	push	{r4, r5, r6, r7, lr}
   20672:	af03      	add	r7, sp, #12
   20674:	b0a1      	sub	sp, #132	@ 0x84
   20676:	9003      	str	r0, [sp, #12]
   20678:	ac04      	add	r4, sp, #16
   2067a:	2602      	movs	r6, #2
   2067c:	7226      	strb	r6, [r4, #8]
   2067e:	340c      	adds	r4, #12
   20680:	221e      	movs	r2, #30
   20682:	9202      	str	r2, [sp, #8]
   20684:	4620      	mov	r0, r4
   20686:	f006 fe08 	bl	2729a <__aeabi_memcpy>
   2068a:	ad0f      	add	r5, sp, #60	@ 0x3c
   2068c:	4628      	mov	r0, r5
   2068e:	300c      	adds	r0, #12
   20690:	213c      	movs	r1, #60	@ 0x3c
   20692:	9001      	str	r0, [sp, #4]
   20694:	f006 fc54 	bl	26f40 <__aeabi_memclr4>
   20698:	722e      	strb	r6, [r5, #8]
   2069a:	4635      	mov	r5, r6
   2069c:	4e1f      	ldr	r6, [pc, #124]	@ (2071c <_ZN20complex_full_dynamic3app17h1582dd4fc80a8303E+0xac>)
   2069e:	4630      	mov	r0, r6
   206a0:	4629      	mov	r1, r5
   206a2:	4622      	mov	r2, r4
   206a4:	9b02      	ldr	r3, [sp, #8]
   206a6:	df04      	svc	4
   206a8:	2802      	cmp	r0, #2
   206aa:	d019      	beq.n	206e0 <_ZN20complex_full_dynamic3app17h1582dd4fc80a8303E+0x70>
   206ac:	a804      	add	r0, sp, #16
   206ae:	2104      	movs	r1, #4
   206b0:	7201      	strb	r1, [r0, #8]
   206b2:	9505      	str	r5, [sp, #20]
   206b4:	9604      	str	r6, [sp, #16]
   206b6:	2403      	movs	r4, #3
   206b8:	233c      	movs	r3, #60	@ 0x3c
   206ba:	4630      	mov	r0, r6
   206bc:	4621      	mov	r1, r4
   206be:	9d01      	ldr	r5, [sp, #4]
   206c0:	462a      	mov	r2, r5
   206c2:	df03      	svc	3
   206c4:	2802      	cmp	r0, #2
   206c6:	d00b      	beq.n	206e0 <_ZN20complex_full_dynamic3app17h1582dd4fc80a8303E+0x70>
   206c8:	a80f      	add	r0, sp, #60	@ 0x3c
   206ca:	7204      	strb	r4, [r0, #8]
   206cc:	9410      	str	r4, [sp, #64]	@ 0x40
   206ce:	960f      	str	r6, [sp, #60]	@ 0x3c
   206d0:	4812      	ldr	r0, [pc, #72]	@ (2071c <_ZN20complex_full_dynamic3app17h1582dd4fc80a8303E+0xac>)
   206d2:	2102      	movs	r1, #2
   206d4:	2600      	movs	r6, #0
   206d6:	4622      	mov	r2, r4
   206d8:	4633      	mov	r3, r6
   206da:	df02      	svc	2
   206dc:	287f      	cmp	r0, #127	@ 0x7f
   206de:	d80b      	bhi.n	206f8 <_ZN20complex_full_dynamic3app17h1582dd4fc80a8303E+0x88>
   206e0:	9c03      	ldr	r4, [sp, #12]
   206e2:	6061      	str	r1, [r4, #4]
   206e4:	2601      	movs	r6, #1
   206e6:	7026      	strb	r6, [r4, #0]
   206e8:	a80f      	add	r0, sp, #60	@ 0x3c
   206ea:	f006 fc15 	bl	26f18 <_ZN9allow_pin12full_dynamic17unshare_if_shared17hc627a04126f70c57E>
   206ee:	a804      	add	r0, sp, #16
   206f0:	f006 fc12 	bl	26f18 <_ZN9allow_pin12full_dynamic17unshare_if_shared17hc627a04126f70c57E>
   206f4:	b021      	add	sp, #132	@ 0x84
   206f6:	bdf0      	pop	{r4, r5, r6, r7, pc}
   206f8:	a804      	add	r0, sp, #16
   206fa:	f006 fc0d 	bl	26f18 <_ZN9allow_pin12full_dynamic17unshare_if_shared17hc627a04126f70c57E>
   206fe:	ac0f      	add	r4, sp, #60	@ 0x3c
   20700:	4620      	mov	r0, r4
   20702:	f006 fc09 	bl	26f18 <_ZN9allow_pin12full_dynamic17unshare_if_shared17hc627a04126f70c57E>
   20706:	4620      	mov	r0, r4
   20708:	f006 fc06 	bl	26f18 <_ZN9allow_pin12full_dynamic17unshare_if_shared17hc627a04126f70c57E>
   2070c:	9c03      	ldr	r4, [sp, #12]
   2070e:	1c60      	adds	r0, r4, #1
   20710:	223c      	movs	r2, #60	@ 0x3c
   20712:	4629      	mov	r1, r5
   20714:	f006 fdc1 	bl	2729a <__aeabi_memcpy>
   20718:	e7e5      	b.n	206e6 <_ZN20complex_full_dynamic3app17h1582dd4fc80a8303E+0x76>
   2071a:	46c0      	nop			@ (mov r8, r8)
   2071c:	00000b3c 	.word	0x00000b3c

00020720 <_ZN20complex_full_dynamic3app17h15b640592df1744cE>:
   20720:	b5f0      	push	{r4, r5, r6, r7, lr}
   20722:	af03      	add	r7, sp, #12
   20724:	b09f      	sub	sp, #124	@ 0x7c
   20726:	9002      	str	r0, [sp, #8]
   20728:	ac03      	add	r4, sp, #12
   2072a:	2002      	movs	r0, #2
   2072c:	9001      	str	r0, [sp, #4]
   2072e:	7220      	strb	r0, [r4, #8]
   20730:	340c      	adds	r4, #12
   20732:	220f      	movs	r2, #15
   20734:	9200      	str	r2, [sp, #0]
   20736:	4620      	mov	r0, r4
   20738:	f006 fdaf 	bl	2729a <__aeabi_memcpy>
   2073c:	ae0a      	add	r6, sp, #40	@ 0x28
   2073e:	4635      	mov	r5, r6
   20740:	350c      	adds	r5, #12
   20742:	2146      	movs	r1, #70	@ 0x46
   20744:	4628      	mov	r0, r5
   20746:	f006 fbfb 	bl	26f40 <__aeabi_memclr4>
   2074a:	9801      	ldr	r0, [sp, #4]
   2074c:	7230      	strb	r0, [r6, #8]
   2074e:	4820      	ldr	r0, [pc, #128]	@ (207d0 <_ZN20complex_full_dynamic3app17h15b640592df1744cE+0xb0>)
   20750:	2609      	movs	r6, #9
   20752:	4631      	mov	r1, r6
   20754:	4622      	mov	r2, r4
   20756:	9b00      	ldr	r3, [sp, #0]
   20758:	df04      	svc	4
   2075a:	2802      	cmp	r0, #2
   2075c:	d01a      	beq.n	20794 <_ZN20complex_full_dynamic3app17h15b640592df1744cE+0x74>
   2075e:	a803      	add	r0, sp, #12
   20760:	2104      	movs	r1, #4
   20762:	7201      	strb	r1, [r0, #8]
   20764:	9604      	str	r6, [sp, #16]
   20766:	4e1a      	ldr	r6, [pc, #104]	@ (207d0 <_ZN20complex_full_dynamic3app17h15b640592df1744cE+0xb0>)
   20768:	9603      	str	r6, [sp, #12]
   2076a:	2402      	movs	r4, #2
   2076c:	2346      	movs	r3, #70	@ 0x46
   2076e:	4630      	mov	r0, r6
   20770:	4621      	mov	r1, r4
   20772:	462a      	mov	r2, r5
   20774:	df03      	svc	3
   20776:	2802      	cmp	r0, #2
   20778:	d00c      	beq.n	20794 <_ZN20complex_full_dynamic3app17h15b640592df1744cE+0x74>
   2077a:	a80a      	add	r0, sp, #40	@ 0x28
   2077c:	2103      	movs	r1, #3
   2077e:	7201      	strb	r1, [r0, #8]
   20780:	960a      	str	r6, [sp, #40]	@ 0x28
   20782:	940b      	str	r4, [sp, #44]	@ 0x2c
   20784:	4812      	ldr	r0, [pc, #72]	@ (207d0 <_ZN20complex_full_dynamic3app17h15b640592df1744cE+0xb0>)
   20786:	2109      	movs	r1, #9
   20788:	2600      	movs	r6, #0
   2078a:	4622      	mov	r2, r4
   2078c:	4633      	mov	r3, r6
   2078e:	df02      	svc	2
   20790:	287f      	cmp	r0, #127	@ 0x7f
   20792:	d80b      	bhi.n	207ac <_ZN20complex_full_dynamic3app17h15b640592df1744cE+0x8c>
   20794:	9c02      	ldr	r4, [sp, #8]
   20796:	6061      	str	r1, [r4, #4]
   20798:	2601      	movs	r6, #1
   2079a:	7026      	strb	r6, [r4, #0]
   2079c:	a80a      	add	r0, sp, #40	@ 0x28
   2079e:	f006 fbbb 	bl	26f18 <_ZN9allow_pin12full_dynamic17unshare_if_shared17hc627a04126f70c57E>
   207a2:	a803      	add	r0, sp, #12
   207a4:	f006 fbb8 	bl	26f18 <_ZN9allow_pin12full_dynamic17unshare_if_shared17hc627a04126f70c57E>
   207a8:	b01f      	add	sp, #124	@ 0x7c
   207aa:	bdf0      	pop	{r4, r5, r6, r7, pc}
   207ac:	a803      	add	r0, sp, #12
   207ae:	f006 fbb3 	bl	26f18 <_ZN9allow_pin12full_dynamic17unshare_if_shared17hc627a04126f70c57E>
   207b2:	ac0a      	add	r4, sp, #40	@ 0x28
   207b4:	4620      	mov	r0, r4
   207b6:	f006 fbaf 	bl	26f18 <_ZN9allow_pin12full_dynamic17unshare_if_shared17hc627a04126f70c57E>
   207ba:	4620      	mov	r0, r4
   207bc:	f006 fbac 	bl	26f18 <_ZN9allow_pin12full_dynamic17unshare_if_shared17hc627a04126f70c57E>
   207c0:	9c02      	ldr	r4, [sp, #8]
   207c2:	1c60      	adds	r0, r4, #1
   207c4:	2246      	movs	r2, #70	@ 0x46
   207c6:	4629      	mov	r1, r5
   207c8:	f006 fd67 	bl	2729a <__aeabi_memcpy>
   207cc:	e7e5      	b.n	2079a <_ZN20complex_full_dynamic3app17h15b640592df1744cE+0x7a>
   207ce:	46c0      	nop			@ (mov r8, r8)
   207d0:	00001d7e 	.word	0x00001d7e

000207d4 <_ZN20complex_full_dynamic3app17h189c30f235a7729aE>:
   207d4:	b5f0      	push	{r4, r5, r6, r7, lr}
   207d6:	af03      	add	r7, sp, #12
   207d8:	b0b3      	sub	sp, #204	@ 0xcc
   207da:	9003      	str	r0, [sp, #12]
   207dc:	ac04      	add	r4, sp, #16
   207de:	2602      	movs	r6, #2
   207e0:	7226      	strb	r6, [r4, #8]
   207e2:	340c      	adds	r4, #12
   207e4:	2251      	movs	r2, #81	@ 0x51
   207e6:	9202      	str	r2, [sp, #8]
   207e8:	4620      	mov	r0, r4
   207ea:	f006 fd56 	bl	2729a <__aeabi_memcpy>
   207ee:	ad1c      	add	r5, sp, #112	@ 0x70
   207f0:	4628      	mov	r0, r5
   207f2:	300c      	adds	r0, #12
   207f4:	214f      	movs	r1, #79	@ 0x4f
   207f6:	9001      	str	r0, [sp, #4]
   207f8:	f006 fba2 	bl	26f40 <__aeabi_memclr4>
   207fc:	722e      	strb	r6, [r5, #8]
   207fe:	4635      	mov	r5, r6
   20800:	4e1f      	ldr	r6, [pc, #124]	@ (20880 <_ZN20complex_full_dynamic3app17h189c30f235a7729aE+0xac>)
   20802:	4630      	mov	r0, r6
   20804:	4629      	mov	r1, r5
   20806:	4622      	mov	r2, r4
   20808:	9b02      	ldr	r3, [sp, #8]
   2080a:	df04      	svc	4
   2080c:	2802      	cmp	r0, #2
   2080e:	d019      	beq.n	20844 <_ZN20complex_full_dynamic3app17h189c30f235a7729aE+0x70>
   20810:	a804      	add	r0, sp, #16
   20812:	2404      	movs	r4, #4
   20814:	7204      	strb	r4, [r0, #8]
   20816:	9505      	str	r5, [sp, #20]
   20818:	9604      	str	r6, [sp, #16]
   2081a:	234f      	movs	r3, #79	@ 0x4f
   2081c:	4630      	mov	r0, r6
   2081e:	4621      	mov	r1, r4
   20820:	9d01      	ldr	r5, [sp, #4]
   20822:	462a      	mov	r2, r5
   20824:	df03      	svc	3
   20826:	2802      	cmp	r0, #2
   20828:	d00c      	beq.n	20844 <_ZN20complex_full_dynamic3app17h189c30f235a7729aE+0x70>
   2082a:	a81c      	add	r0, sp, #112	@ 0x70
   2082c:	2103      	movs	r1, #3
   2082e:	7201      	strb	r1, [r0, #8]
   20830:	961c      	str	r6, [sp, #112]	@ 0x70
   20832:	941d      	str	r4, [sp, #116]	@ 0x74
   20834:	4812      	ldr	r0, [pc, #72]	@ (20880 <_ZN20complex_full_dynamic3app17h189c30f235a7729aE+0xac>)
   20836:	2102      	movs	r1, #2
   20838:	2600      	movs	r6, #0
   2083a:	4622      	mov	r2, r4
   2083c:	4633      	mov	r3, r6
   2083e:	df02      	svc	2
   20840:	287f      	cmp	r0, #127	@ 0x7f
   20842:	d80b      	bhi.n	2085c <_ZN20complex_full_dynamic3app17h189c30f235a7729aE+0x88>
   20844:	9c03      	ldr	r4, [sp, #12]
   20846:	6061      	str	r1, [r4, #4]
   20848:	2601      	movs	r6, #1
   2084a:	7026      	strb	r6, [r4, #0]
   2084c:	a81c      	add	r0, sp, #112	@ 0x70
   2084e:	f006 fb63 	bl	26f18 <_ZN9allow_pin12full_dynamic17unshare_if_shared17hc627a04126f70c57E>
   20852:	a804      	add	r0, sp, #16
   20854:	f006 fb60 	bl	26f18 <_ZN9allow_pin12full_dynamic17unshare_if_shared17hc627a04126f70c57E>
   20858:	b033      	add	sp, #204	@ 0xcc
   2085a:	bdf0      	pop	{r4, r5, r6, r7, pc}
   2085c:	a804      	add	r0, sp, #16
   2085e:	f006 fb5b 	bl	26f18 <_ZN9allow_pin12full_dynamic17unshare_if_shared17hc627a04126f70c57E>
   20862:	ac1c      	add	r4, sp, #112	@ 0x70
   20864:	4620      	mov	r0, r4
   20866:	f006 fb57 	bl	26f18 <_ZN9allow_pin12full_dynamic17unshare_if_shared17hc627a04126f70c57E>
   2086a:	4620      	mov	r0, r4
   2086c:	f006 fb54 	bl	26f18 <_ZN9allow_pin12full_dynamic17unshare_if_shared17hc627a04126f70c57E>
   20870:	9c03      	ldr	r4, [sp, #12]
   20872:	1c60      	adds	r0, r4, #1
   20874:	224f      	movs	r2, #79	@ 0x4f
   20876:	4629      	mov	r1, r5
   20878:	f006 fd0f 	bl	2729a <__aeabi_memcpy>
   2087c:	e7e5      	b.n	2084a <_ZN20complex_full_dynamic3app17h189c30f235a7729aE+0x76>
   2087e:	46c0      	nop			@ (mov r8, r8)
   20880:	00000e16 	.word	0x00000e16

00020884 <_ZN20complex_full_dynamic3app17h18eafb374fb31718E>:
   20884:	b5f0      	push	{r4, r5, r6, r7, lr}
   20886:	af03      	add	r7, sp, #12
   20888:	b09f      	sub	sp, #124	@ 0x7c
   2088a:	9002      	str	r0, [sp, #8]
   2088c:	ac03      	add	r4, sp, #12
   2088e:	2602      	movs	r6, #2
   20890:	7226      	strb	r6, [r4, #8]
   20892:	340c      	adds	r4, #12
   20894:	2212      	movs	r2, #18
   20896:	9201      	str	r2, [sp, #4]
   20898:	4620      	mov	r0, r4
   2089a:	f006 fcfe 	bl	2729a <__aeabi_memcpy>
   2089e:	ad0b      	add	r5, sp, #44	@ 0x2c
   208a0:	4628      	mov	r0, r5
   208a2:	300c      	adds	r0, #12
   208a4:	2144      	movs	r1, #68	@ 0x44
   208a6:	9000      	str	r0, [sp, #0]
   208a8:	f006 fb4a 	bl	26f40 <__aeabi_memclr4>
   208ac:	722e      	strb	r6, [r5, #8]
   208ae:	4635      	mov	r5, r6
   208b0:	4e1f      	ldr	r6, [pc, #124]	@ (20930 <_ZN20complex_full_dynamic3app17h18eafb374fb31718E+0xac>)
   208b2:	4630      	mov	r0, r6
   208b4:	4629      	mov	r1, r5
   208b6:	4622      	mov	r2, r4
   208b8:	9b01      	ldr	r3, [sp, #4]
   208ba:	df04      	svc	4
   208bc:	2802      	cmp	r0, #2
   208be:	d01a      	beq.n	208f6 <_ZN20complex_full_dynamic3app17h18eafb374fb31718E+0x72>
   208c0:	a803      	add	r0, sp, #12
   208c2:	2104      	movs	r1, #4
   208c4:	7201      	strb	r1, [r0, #8]
   208c6:	9504      	str	r5, [sp, #16]
   208c8:	9603      	str	r6, [sp, #12]
   208ca:	2409      	movs	r4, #9
   208cc:	2344      	movs	r3, #68	@ 0x44
   208ce:	4630      	mov	r0, r6
   208d0:	4621      	mov	r1, r4
   208d2:	9d00      	ldr	r5, [sp, #0]
   208d4:	462a      	mov	r2, r5
   208d6:	df03      	svc	3
   208d8:	2802      	cmp	r0, #2
   208da:	d00c      	beq.n	208f6 <_ZN20complex_full_dynamic3app17h18eafb374fb31718E+0x72>
   208dc:	a80b      	add	r0, sp, #44	@ 0x2c
   208de:	2103      	movs	r1, #3
   208e0:	7201      	strb	r1, [r0, #8]
   208e2:	960b      	str	r6, [sp, #44]	@ 0x2c
   208e4:	940c      	str	r4, [sp, #48]	@ 0x30
   208e6:	4812      	ldr	r0, [pc, #72]	@ (20930 <_ZN20complex_full_dynamic3app17h18eafb374fb31718E+0xac>)
   208e8:	2102      	movs	r1, #2
   208ea:	2600      	movs	r6, #0
   208ec:	4622      	mov	r2, r4
   208ee:	4633      	mov	r3, r6
   208f0:	df02      	svc	2
   208f2:	287f      	cmp	r0, #127	@ 0x7f
   208f4:	d80b      	bhi.n	2090e <_ZN20complex_full_dynamic3app17h18eafb374fb31718E+0x8a>
   208f6:	9c02      	ldr	r4, [sp, #8]
   208f8:	6061      	str	r1, [r4, #4]
   208fa:	2601      	movs	r6, #1
   208fc:	7026      	strb	r6, [r4, #0]
   208fe:	a80b      	add	r0, sp, #44	@ 0x2c
   20900:	f006 fb0a 	bl	26f18 <_ZN9allow_pin12full_dynamic17unshare_if_shared17hc627a04126f70c57E>
   20904:	a803      	add	r0, sp, #12
   20906:	f006 fb07 	bl	26f18 <_ZN9allow_pin12full_dynamic17unshare_if_shared17hc627a04126f70c57E>
   2090a:	b01f      	add	sp, #124	@ 0x7c
   2090c:	bdf0      	pop	{r4, r5, r6, r7, pc}
   2090e:	a803      	add	r0, sp, #12
   20910:	f006 fb02 	bl	26f18 <_ZN9allow_pin12full_dynamic17unshare_if_shared17hc627a04126f70c57E>
   20914:	ac0b      	add	r4, sp, #44	@ 0x2c
   20916:	4620      	mov	r0, r4
   20918:	f006 fafe 	bl	26f18 <_ZN9allow_pin12full_dynamic17unshare_if_shared17hc627a04126f70c57E>
   2091c:	4620      	mov	r0, r4
   2091e:	f006 fafb 	bl	26f18 <_ZN9allow_pin12full_dynamic17unshare_if_shared17hc627a04126f70c57E>
   20922:	9c02      	ldr	r4, [sp, #8]
   20924:	1c60      	adds	r0, r4, #1
   20926:	2244      	movs	r2, #68	@ 0x44
   20928:	4629      	mov	r1, r5
   2092a:	f006 fcb6 	bl	2729a <__aeabi_memcpy>
   2092e:	e7e5      	b.n	208fc <_ZN20complex_full_dynamic3app17h18eafb374fb31718E+0x78>
   20930:	00002432 	.word	0x00002432

00020934 <_ZN20complex_full_dynamic3app17h19d05553b562df2aE>:
   20934:	b5f0      	push	{r4, r5, r6, r7, lr}
   20936:	af03      	add	r7, sp, #12
   20938:	b0ad      	sub	sp, #180	@ 0xb4
   2093a:	9002      	str	r0, [sp, #8]
   2093c:	ac03      	add	r4, sp, #12
   2093e:	2002      	movs	r0, #2
   20940:	9001      	str	r0, [sp, #4]
   20942:	7220      	strb	r0, [r4, #8]
   20944:	340c      	adds	r4, #12
   20946:	222f      	movs	r2, #47	@ 0x2f
   20948:	9200      	str	r2, [sp, #0]
   2094a:	4620      	mov	r0, r4
   2094c:	f006 fca5 	bl	2729a <__aeabi_memcpy>
   20950:	ae12      	add	r6, sp, #72	@ 0x48
   20952:	4635      	mov	r5, r6
   20954:	350c      	adds	r5, #12
   20956:	215e      	movs	r1, #94	@ 0x5e
   20958:	4628      	mov	r0, r5
   2095a:	f006 faf1 	bl	26f40 <__aeabi_memclr4>
   2095e:	9801      	ldr	r0, [sp, #4]
   20960:	7230      	strb	r0, [r6, #8]
   20962:	4820      	ldr	r0, [pc, #128]	@ (209e4 <_ZN20complex_full_dynamic3app17h19d05553b562df2aE+0xb0>)
   20964:	2605      	movs	r6, #5
   20966:	4631      	mov	r1, r6
   20968:	4622      	mov	r2, r4
   2096a:	9b00      	ldr	r3, [sp, #0]
   2096c:	df04      	svc	4
   2096e:	2802      	cmp	r0, #2
   20970:	d01a      	beq.n	209a8 <_ZN20complex_full_dynamic3app17h19d05553b562df2aE+0x74>
   20972:	a803      	add	r0, sp, #12
   20974:	2104      	movs	r1, #4
   20976:	7201      	strb	r1, [r0, #8]
   20978:	9604      	str	r6, [sp, #16]
   2097a:	4e1a      	ldr	r6, [pc, #104]	@ (209e4 <_ZN20complex_full_dynamic3app17h19d05553b562df2aE+0xb0>)
   2097c:	9603      	str	r6, [sp, #12]
   2097e:	2402      	movs	r4, #2
   20980:	235e      	movs	r3, #94	@ 0x5e
   20982:	4630      	mov	r0, r6
   20984:	4621      	mov	r1, r4
   20986:	462a      	mov	r2, r5
   20988:	df03      	svc	3
   2098a:	2802      	cmp	r0, #2
   2098c:	d00c      	beq.n	209a8 <_ZN20complex_full_dynamic3app17h19d05553b562df2aE+0x74>
   2098e:	a812      	add	r0, sp, #72	@ 0x48
   20990:	2103      	movs	r1, #3
   20992:	7201      	strb	r1, [r0, #8]
   20994:	9612      	str	r6, [sp, #72]	@ 0x48
   20996:	9413      	str	r4, [sp, #76]	@ 0x4c
   20998:	4812      	ldr	r0, [pc, #72]	@ (209e4 <_ZN20complex_full_dynamic3app17h19d05553b562df2aE+0xb0>)
   2099a:	2105      	movs	r1, #5
   2099c:	2600      	movs	r6, #0
   2099e:	4622      	mov	r2, r4
   209a0:	4633      	mov	r3, r6
   209a2:	df02      	svc	2
   209a4:	287f      	cmp	r0, #127	@ 0x7f
   209a6:	d80b      	bhi.n	209c0 <_ZN20complex_full_dynamic3app17h19d05553b562df2aE+0x8c>
   209a8:	9c02      	ldr	r4, [sp, #8]
   209aa:	6061      	str	r1, [r4, #4]
   209ac:	2601      	movs	r6, #1
   209ae:	7026      	strb	r6, [r4, #0]
   209b0:	a812      	add	r0, sp, #72	@ 0x48
   209b2:	f006 fab1 	bl	26f18 <_ZN9allow_pin12full_dynamic17unshare_if_shared17hc627a04126f70c57E>
   209b6:	a803      	add	r0, sp, #12
   209b8:	f006 faae 	bl	26f18 <_ZN9allow_pin12full_dynamic17unshare_if_shared17hc627a04126f70c57E>
   209bc:	b02d      	add	sp, #180	@ 0xb4
   209be:	bdf0      	pop	{r4, r5, r6, r7, pc}
   209c0:	a803      	add	r0, sp, #12
   209c2:	f006 faa9 	bl	26f18 <_ZN9allow_pin12full_dynamic17unshare_if_shared17hc627a04126f70c57E>
   209c6:	ac12      	add	r4, sp, #72	@ 0x48
   209c8:	4620      	mov	r0, r4
   209ca:	f006 faa5 	bl	26f18 <_ZN9allow_pin12full_dynamic17unshare_if_shared17hc627a04126f70c57E>
   209ce:	4620      	mov	r0, r4
   209d0:	f006 faa2 	bl	26f18 <_ZN9allow_pin12full_dynamic17unshare_if_shared17hc627a04126f70c57E>
   209d4:	9c02      	ldr	r4, [sp, #8]
   209d6:	1c60      	adds	r0, r4, #1
   209d8:	225e      	movs	r2, #94	@ 0x5e
   209da:	4629      	mov	r1, r5
   209dc:	f006 fc5d 	bl	2729a <__aeabi_memcpy>
   209e0:	e7e5      	b.n	209ae <_ZN20complex_full_dynamic3app17h19d05553b562df2aE+0x7a>
   209e2:	46c0      	nop			@ (mov r8, r8)
   209e4:	0000022b 	.word	0x0000022b

000209e8 <_ZN20complex_full_dynamic3app17h1b623c6722e465f0E>:
   209e8:	b5f0      	push	{r4, r5, r6, r7, lr}
   209ea:	af03      	add	r7, sp, #12
   209ec:	b0a3      	sub	sp, #140	@ 0x8c
   209ee:	9003      	str	r0, [sp, #12]
   209f0:	ac04      	add	r4, sp, #16
   209f2:	2002      	movs	r0, #2
   209f4:	9002      	str	r0, [sp, #8]
   209f6:	7220      	strb	r0, [r4, #8]
   209f8:	340c      	adds	r4, #12
   209fa:	2211      	movs	r2, #17
   209fc:	9201      	str	r2, [sp, #4]
   209fe:	4620      	mov	r0, r4
   20a00:	f006 fc4b 	bl	2729a <__aeabi_memcpy>
   20a04:	ae0c      	add	r6, sp, #48	@ 0x30
   20a06:	4635      	mov	r5, r6
   20a08:	350c      	adds	r5, #12
   20a0a:	2150      	movs	r1, #80	@ 0x50
   20a0c:	4628      	mov	r0, r5
   20a0e:	f006 fa97 	bl	26f40 <__aeabi_memclr4>
   20a12:	9802      	ldr	r0, [sp, #8]
   20a14:	7230      	strb	r0, [r6, #8]
   20a16:	4820      	ldr	r0, [pc, #128]	@ (20a98 <_ZN20complex_full_dynamic3app17h1b623c6722e465f0E+0xb0>)
   20a18:	2606      	movs	r6, #6
   20a1a:	4631      	mov	r1, r6
   20a1c:	4622      	mov	r2, r4
   20a1e:	9b01      	ldr	r3, [sp, #4]
   20a20:	df04      	svc	4
   20a22:	2802      	cmp	r0, #2
   20a24:	d01a      	beq.n	20a5c <_ZN20complex_full_dynamic3app17h1b623c6722e465f0E+0x74>
   20a26:	a804      	add	r0, sp, #16
   20a28:	2104      	movs	r1, #4
   20a2a:	7201      	strb	r1, [r0, #8]
   20a2c:	9605      	str	r6, [sp, #20]
   20a2e:	4e1a      	ldr	r6, [pc, #104]	@ (20a98 <_ZN20complex_full_dynamic3app17h1b623c6722e465f0E+0xb0>)
   20a30:	9604      	str	r6, [sp, #16]
   20a32:	2405      	movs	r4, #5
   20a34:	2350      	movs	r3, #80	@ 0x50
   20a36:	4630      	mov	r0, r6
   20a38:	4621      	mov	r1, r4
   20a3a:	462a      	mov	r2, r5
   20a3c:	df03      	svc	3
   20a3e:	2802      	cmp	r0, #2
   20a40:	d00c      	beq.n	20a5c <_ZN20complex_full_dynamic3app17h1b623c6722e465f0E+0x74>
   20a42:	a80c      	add	r0, sp, #48	@ 0x30
   20a44:	2103      	movs	r1, #3
   20a46:	7201      	strb	r1, [r0, #8]
   20a48:	960c      	str	r6, [sp, #48]	@ 0x30
   20a4a:	940d      	str	r4, [sp, #52]	@ 0x34
   20a4c:	4812      	ldr	r0, [pc, #72]	@ (20a98 <_ZN20complex_full_dynamic3app17h1b623c6722e465f0E+0xb0>)
   20a4e:	2106      	movs	r1, #6
   20a50:	2600      	movs	r6, #0
   20a52:	4622      	mov	r2, r4
   20a54:	4633      	mov	r3, r6
   20a56:	df02      	svc	2
   20a58:	287f      	cmp	r0, #127	@ 0x7f
   20a5a:	d80b      	bhi.n	20a74 <_ZN20complex_full_dynamic3app17h1b623c6722e465f0E+0x8c>
   20a5c:	9c03      	ldr	r4, [sp, #12]
   20a5e:	6061      	str	r1, [r4, #4]
   20a60:	2601      	movs	r6, #1
   20a62:	7026      	strb	r6, [r4, #0]
   20a64:	a80c      	add	r0, sp, #48	@ 0x30
   20a66:	f006 fa57 	bl	26f18 <_ZN9allow_pin12full_dynamic17unshare_if_shared17hc627a04126f70c57E>
   20a6a:	a804      	add	r0, sp, #16
   20a6c:	f006 fa54 	bl	26f18 <_ZN9allow_pin12full_dynamic17unshare_if_shared17hc627a04126f70c57E>
   20a70:	b023      	add	sp, #140	@ 0x8c
   20a72:	bdf0      	pop	{r4, r5, r6, r7, pc}
   20a74:	a804      	add	r0, sp, #16
   20a76:	f006 fa4f 	bl	26f18 <_ZN9allow_pin12full_dynamic17unshare_if_shared17hc627a04126f70c57E>
   20a7a:	ac0c      	add	r4, sp, #48	@ 0x30
   20a7c:	4620      	mov	r0, r4
   20a7e:	f006 fa4b 	bl	26f18 <_ZN9allow_pin12full_dynamic17unshare_if_shared17hc627a04126f70c57E>
   20a82:	4620      	mov	r0, r4
   20a84:	f006 fa48 	bl	26f18 <_ZN9allow_pin12full_dynamic17unshare_if_shared17hc627a04126f70c57E>
   20a88:	9c03      	ldr	r4, [sp, #12]
   20a8a:	1c60      	adds	r0, r4, #1
   20a8c:	2250      	movs	r2, #80	@ 0x50
   20a8e:	4629      	mov	r1, r5
   20a90:	f006 fc03 	bl	2729a <__aeabi_memcpy>
   20a94:	e7e5      	b.n	20a62 <_ZN20complex_full_dynamic3app17h1b623c6722e465f0E+0x7a>
   20a96:	46c0      	nop			@ (mov r8, r8)
   20a98:	00001aa9 	.word	0x00001aa9

00020a9c <_ZN20complex_full_dynamic3app17h1c247be06bf1d656E>:
   20a9c:	b5f0      	push	{r4, r5, r6, r7, lr}
   20a9e:	af03      	add	r7, sp, #12
   20aa0:	b0a3      	sub	sp, #140	@ 0x8c
   20aa2:	9003      	str	r0, [sp, #12]
   20aa4:	ac04      	add	r4, sp, #16
   20aa6:	2602      	movs	r6, #2
   20aa8:	7226      	strb	r6, [r4, #8]
   20aaa:	340c      	adds	r4, #12
   20aac:	2234      	movs	r2, #52	@ 0x34
   20aae:	9202      	str	r2, [sp, #8]
   20ab0:	4620      	mov	r0, r4
   20ab2:	f006 fbf2 	bl	2729a <__aeabi_memcpy>
   20ab6:	ad14      	add	r5, sp, #80	@ 0x50
   20ab8:	4628      	mov	r0, r5
   20aba:	300c      	adds	r0, #12
   20abc:	212e      	movs	r1, #46	@ 0x2e
   20abe:	9001      	str	r0, [sp, #4]
   20ac0:	f006 fa3e 	bl	26f40 <__aeabi_memclr4>
   20ac4:	722e      	strb	r6, [r5, #8]
   20ac6:	4635      	mov	r5, r6
   20ac8:	4e1f      	ldr	r6, [pc, #124]	@ (20b48 <_ZN20complex_full_dynamic3app17h1c247be06bf1d656E+0xac>)
   20aca:	4630      	mov	r0, r6
   20acc:	4629      	mov	r1, r5
   20ace:	4622      	mov	r2, r4
   20ad0:	9b02      	ldr	r3, [sp, #8]
   20ad2:	df04      	svc	4
   20ad4:	2802      	cmp	r0, #2
   20ad6:	d01a      	beq.n	20b0e <_ZN20complex_full_dynamic3app17h1c247be06bf1d656E+0x72>
   20ad8:	a804      	add	r0, sp, #16
   20ada:	2104      	movs	r1, #4
   20adc:	7201      	strb	r1, [r0, #8]
   20ade:	9505      	str	r5, [sp, #20]
   20ae0:	9604      	str	r6, [sp, #16]
   20ae2:	2408      	movs	r4, #8
   20ae4:	232e      	movs	r3, #46	@ 0x2e
   20ae6:	4630      	mov	r0, r6
   20ae8:	4621      	mov	r1, r4
   20aea:	9d01      	ldr	r5, [sp, #4]
   20aec:	462a      	mov	r2, r5
   20aee:	df03      	svc	3
   20af0:	2802      	cmp	r0, #2
   20af2:	d00c      	beq.n	20b0e <_ZN20complex_full_dynamic3app17h1c247be06bf1d656E+0x72>
   20af4:	a814      	add	r0, sp, #80	@ 0x50
   20af6:	2103      	movs	r1, #3
   20af8:	7201      	strb	r1, [r0, #8]
   20afa:	9614      	str	r6, [sp, #80]	@ 0x50
   20afc:	9415      	str	r4, [sp, #84]	@ 0x54
   20afe:	4812      	ldr	r0, [pc, #72]	@ (20b48 <_ZN20complex_full_dynamic3app17h1c247be06bf1d656E+0xac>)
   20b00:	2102      	movs	r1, #2
   20b02:	2600      	movs	r6, #0
   20b04:	4622      	mov	r2, r4
   20b06:	4633      	mov	r3, r6
   20b08:	df02      	svc	2
   20b0a:	287f      	cmp	r0, #127	@ 0x7f
   20b0c:	d80b      	bhi.n	20b26 <_ZN20complex_full_dynamic3app17h1c247be06bf1d656E+0x8a>
   20b0e:	9c03      	ldr	r4, [sp, #12]
   20b10:	6061      	str	r1, [r4, #4]
   20b12:	2601      	movs	r6, #1
   20b14:	7026      	strb	r6, [r4, #0]
   20b16:	a814      	add	r0, sp, #80	@ 0x50
   20b18:	f006 f9fe 	bl	26f18 <_ZN9allow_pin12full_dynamic17unshare_if_shared17hc627a04126f70c57E>
   20b1c:	a804      	add	r0, sp, #16
   20b1e:	f006 f9fb 	bl	26f18 <_ZN9allow_pin12full_dynamic17unshare_if_shared17hc627a04126f70c57E>
   20b22:	b023      	add	sp, #140	@ 0x8c
   20b24:	bdf0      	pop	{r4, r5, r6, r7, pc}
   20b26:	a804      	add	r0, sp, #16
   20b28:	f006 f9f6 	bl	26f18 <_ZN9allow_pin12full_dynamic17unshare_if_shared17hc627a04126f70c57E>
   20b2c:	ac14      	add	r4, sp, #80	@ 0x50
   20b2e:	4620      	mov	r0, r4
   20b30:	f006 f9f2 	bl	26f18 <_ZN9allow_pin12full_dynamic17unshare_if_shared17hc627a04126f70c57E>
   20b34:	4620      	mov	r0, r4
   20b36:	f006 f9ef 	bl	26f18 <_ZN9allow_pin12full_dynamic17unshare_if_shared17hc627a04126f70c57E>
   20b3a:	9c03      	ldr	r4, [sp, #12]
   20b3c:	1c60      	adds	r0, r4, #1
   20b3e:	222e      	movs	r2, #46	@ 0x2e
   20b40:	4629      	mov	r1, r5
   20b42:	f006 fbaa 	bl	2729a <__aeabi_memcpy>
   20b46:	e7e5      	b.n	20b14 <_ZN20complex_full_dynamic3app17h1c247be06bf1d656E+0x78>
   20b48:	00000209 	.word	0x00000209

00020b4c <_ZN20complex_full_dynamic3app17h25d4b982648b1da3E>:
   20b4c:	b5f0      	push	{r4, r5, r6, r7, lr}
   20b4e:	af03      	add	r7, sp, #12
   20b50:	b09f      	sub	sp, #124	@ 0x7c
   20b52:	9003      	str	r0, [sp, #12]
   20b54:	ac04      	add	r4, sp, #16
   20b56:	2002      	movs	r0, #2
   20b58:	9002      	str	r0, [sp, #8]
   20b5a:	7220      	strb	r0, [r4, #8]
   20b5c:	340c      	adds	r4, #12
   20b5e:	222c      	movs	r2, #44	@ 0x2c
   20b60:	9201      	str	r2, [sp, #4]
   20b62:	4620      	mov	r0, r4
   20b64:	f006 fb99 	bl	2729a <__aeabi_memcpy>
   20b68:	ae12      	add	r6, sp, #72	@ 0x48
   20b6a:	4635      	mov	r5, r6
   20b6c:	350c      	adds	r5, #12
   20b6e:	2127      	movs	r1, #39	@ 0x27
   20b70:	4628      	mov	r0, r5
   20b72:	f006 f9e5 	bl	26f40 <__aeabi_memclr4>
   20b76:	9802      	ldr	r0, [sp, #8]
   20b78:	7230      	strb	r0, [r6, #8]
   20b7a:	481f      	ldr	r0, [pc, #124]	@ (20bf8 <_ZN20complex_full_dynamic3app17h25d4b982648b1da3E+0xac>)
   20b7c:	2604      	movs	r6, #4
   20b7e:	4631      	mov	r1, r6
   20b80:	4622      	mov	r2, r4
   20b82:	9b01      	ldr	r3, [sp, #4]
   20b84:	df04      	svc	4
   20b86:	2802      	cmp	r0, #2
   20b88:	d018      	beq.n	20bbc <_ZN20complex_full_dynamic3app17h25d4b982648b1da3E+0x70>
   20b8a:	a804      	add	r0, sp, #16
   20b8c:	7206      	strb	r6, [r0, #8]
   20b8e:	9605      	str	r6, [sp, #20]
   20b90:	4e19      	ldr	r6, [pc, #100]	@ (20bf8 <_ZN20complex_full_dynamic3app17h25d4b982648b1da3E+0xac>)
   20b92:	9604      	str	r6, [sp, #16]
   20b94:	2403      	movs	r4, #3
   20b96:	2327      	movs	r3, #39	@ 0x27
   20b98:	4630      	mov	r0, r6
   20b9a:	4621      	mov	r1, r4
   20b9c:	462a      	mov	r2, r5
   20b9e:	df03      	svc	3
   20ba0:	2802      	cmp	r0, #2
   20ba2:	d00b      	beq.n	20bbc <_ZN20complex_full_dynamic3app17h25d4b982648b1da3E+0x70>
   20ba4:	a812      	add	r0, sp, #72	@ 0x48
   20ba6:	7204      	strb	r4, [r0, #8]
   20ba8:	9413      	str	r4, [sp, #76]	@ 0x4c
   20baa:	9612      	str	r6, [sp, #72]	@ 0x48
   20bac:	4812      	ldr	r0, [pc, #72]	@ (20bf8 <_ZN20complex_full_dynamic3app17h25d4b982648b1da3E+0xac>)
   20bae:	2104      	movs	r1, #4
   20bb0:	2600      	movs	r6, #0
   20bb2:	4622      	mov	r2, r4
   20bb4:	4633      	mov	r3, r6
   20bb6:	df02      	svc	2
   20bb8:	287f      	cmp	r0, #127	@ 0x7f
   20bba:	d80b      	bhi.n	20bd4 <_ZN20complex_full_dynamic3app17h25d4b982648b1da3E+0x88>
   20bbc:	9c03      	ldr	r4, [sp, #12]
   20bbe:	6061      	str	r1, [r4, #4]
   20bc0:	2601      	movs	r6, #1
   20bc2:	7026      	strb	r6, [r4, #0]
   20bc4:	a812      	add	r0, sp, #72	@ 0x48
   20bc6:	f006 f9a7 	bl	26f18 <_ZN9allow_pin12full_dynamic17unshare_if_shared17hc627a04126f70c57E>
   20bca:	a804      	add	r0, sp, #16
   20bcc:	f006 f9a4 	bl	26f18 <_ZN9allow_pin12full_dynamic17unshare_if_shared17hc627a04126f70c57E>
   20bd0:	b01f      	add	sp, #124	@ 0x7c
   20bd2:	bdf0      	pop	{r4, r5, r6, r7, pc}
   20bd4:	a804      	add	r0, sp, #16
   20bd6:	f006 f99f 	bl	26f18 <_ZN9allow_pin12full_dynamic17unshare_if_shared17hc627a04126f70c57E>
   20bda:	ac12      	add	r4, sp, #72	@ 0x48
   20bdc:	4620      	mov	r0, r4
   20bde:	f006 f99b 	bl	26f18 <_ZN9allow_pin12full_dynamic17unshare_if_shared17hc627a04126f70c57E>
   20be2:	4620      	mov	r0, r4
   20be4:	f006 f998 	bl	26f18 <_ZN9allow_pin12full_dynamic17unshare_if_shared17hc627a04126f70c57E>
   20be8:	9c03      	ldr	r4, [sp, #12]
   20bea:	1c60      	adds	r0, r4, #1
   20bec:	2227      	movs	r2, #39	@ 0x27
   20bee:	4629      	mov	r1, r5
   20bf0:	f006 fb53 	bl	2729a <__aeabi_memcpy>
   20bf4:	e7e5      	b.n	20bc2 <_ZN20complex_full_dynamic3app17h25d4b982648b1da3E+0x76>
   20bf6:	46c0      	nop			@ (mov r8, r8)
   20bf8:	000011b5 	.word	0x000011b5

00020bfc <_ZN20complex_full_dynamic3app17h27688393d26deca1E>:
   20bfc:	b5f0      	push	{r4, r5, r6, r7, lr}
   20bfe:	af03      	add	r7, sp, #12
   20c00:	b099      	sub	sp, #100	@ 0x64
   20c02:	9002      	str	r0, [sp, #8]
   20c04:	ac03      	add	r4, sp, #12
   20c06:	2602      	movs	r6, #2
   20c08:	7226      	strb	r6, [r4, #8]
   20c0a:	340c      	adds	r4, #12
   20c0c:	2525      	movs	r5, #37	@ 0x25
   20c0e:	4620      	mov	r0, r4
   20c10:	462a      	mov	r2, r5
   20c12:	f006 fb42 	bl	2729a <__aeabi_memcpy>
   20c16:	a810      	add	r0, sp, #64	@ 0x40
   20c18:	9001      	str	r0, [sp, #4]
   20c1a:	7206      	strb	r6, [r0, #8]
   20c1c:	2000      	movs	r0, #0
   20c1e:	9018      	str	r0, [sp, #96]	@ 0x60
   20c20:	9017      	str	r0, [sp, #92]	@ 0x5c
   20c22:	9016      	str	r0, [sp, #88]	@ 0x58
   20c24:	9015      	str	r0, [sp, #84]	@ 0x54
   20c26:	9014      	str	r0, [sp, #80]	@ 0x50
   20c28:	9013      	str	r0, [sp, #76]	@ 0x4c
   20c2a:	20a7      	movs	r0, #167	@ 0xa7
   20c2c:	0100      	lsls	r0, r0, #4
   20c2e:	2609      	movs	r6, #9
   20c30:	9000      	str	r0, [sp, #0]
   20c32:	4631      	mov	r1, r6
   20c34:	4622      	mov	r2, r4
   20c36:	462b      	mov	r3, r5
   20c38:	df04      	svc	4
   20c3a:	2802      	cmp	r0, #2
   20c3c:	d01d      	beq.n	20c7a <_ZN20complex_full_dynamic3app17h27688393d26deca1E+0x7e>
   20c3e:	9c01      	ldr	r4, [sp, #4]
   20c40:	340c      	adds	r4, #12
   20c42:	a803      	add	r0, sp, #12
   20c44:	2104      	movs	r1, #4
   20c46:	7201      	strb	r1, [r0, #8]
   20c48:	9604      	str	r6, [sp, #16]
   20c4a:	9d00      	ldr	r5, [sp, #0]
   20c4c:	9503      	str	r5, [sp, #12]
   20c4e:	2108      	movs	r1, #8
   20c50:	2318      	movs	r3, #24
   20c52:	4628      	mov	r0, r5
   20c54:	460e      	mov	r6, r1
   20c56:	4622      	mov	r2, r4
   20c58:	df03      	svc	3
   20c5a:	2802      	cmp	r0, #2
   20c5c:	d00d      	beq.n	20c7a <_ZN20complex_full_dynamic3app17h27688393d26deca1E+0x7e>
   20c5e:	9401      	str	r4, [sp, #4]
   20c60:	a810      	add	r0, sp, #64	@ 0x40
   20c62:	2103      	movs	r1, #3
   20c64:	7201      	strb	r1, [r0, #8]
   20c66:	9510      	str	r5, [sp, #64]	@ 0x40
   20c68:	9611      	str	r6, [sp, #68]	@ 0x44
   20c6a:	2109      	movs	r1, #9
   20c6c:	2400      	movs	r4, #0
   20c6e:	4628      	mov	r0, r5
   20c70:	4632      	mov	r2, r6
   20c72:	4623      	mov	r3, r4
   20c74:	df02      	svc	2
   20c76:	287f      	cmp	r0, #127	@ 0x7f
   20c78:	d80b      	bhi.n	20c92 <_ZN20complex_full_dynamic3app17h27688393d26deca1E+0x96>
   20c7a:	9d02      	ldr	r5, [sp, #8]
   20c7c:	6069      	str	r1, [r5, #4]
   20c7e:	2401      	movs	r4, #1
   20c80:	702c      	strb	r4, [r5, #0]
   20c82:	a810      	add	r0, sp, #64	@ 0x40
   20c84:	f006 f948 	bl	26f18 <_ZN9allow_pin12full_dynamic17unshare_if_shared17hc627a04126f70c57E>
   20c88:	a803      	add	r0, sp, #12
   20c8a:	f006 f945 	bl	26f18 <_ZN9allow_pin12full_dynamic17unshare_if_shared17hc627a04126f70c57E>
   20c8e:	b019      	add	sp, #100	@ 0x64
   20c90:	bdf0      	pop	{r4, r5, r6, r7, pc}
   20c92:	a803      	add	r0, sp, #12
   20c94:	f006 f940 	bl	26f18 <_ZN9allow_pin12full_dynamic17unshare_if_shared17hc627a04126f70c57E>
   20c98:	ad10      	add	r5, sp, #64	@ 0x40
   20c9a:	4628      	mov	r0, r5
   20c9c:	f006 f93c 	bl	26f18 <_ZN9allow_pin12full_dynamic17unshare_if_shared17hc627a04126f70c57E>
   20ca0:	4628      	mov	r0, r5
   20ca2:	f006 f939 	bl	26f18 <_ZN9allow_pin12full_dynamic17unshare_if_shared17hc627a04126f70c57E>
   20ca6:	9d02      	ldr	r5, [sp, #8]
   20ca8:	1c68      	adds	r0, r5, #1
   20caa:	2218      	movs	r2, #24
   20cac:	9901      	ldr	r1, [sp, #4]
   20cae:	f006 faf4 	bl	2729a <__aeabi_memcpy>
   20cb2:	e7e5      	b.n	20c80 <_ZN20complex_full_dynamic3app17h27688393d26deca1E+0x84>

00020cb4 <_ZN20complex_full_dynamic3app17h2895bec7d6e30f57E>:
   20cb4:	b5f0      	push	{r4, r5, r6, r7, lr}
   20cb6:	af03      	add	r7, sp, #12
   20cb8:	b09b      	sub	sp, #108	@ 0x6c
   20cba:	9002      	str	r0, [sp, #8]
   20cbc:	ac03      	add	r4, sp, #12
   20cbe:	2502      	movs	r5, #2
   20cc0:	7225      	strb	r5, [r4, #8]
   20cc2:	340c      	adds	r4, #12
   20cc4:	2229      	movs	r2, #41	@ 0x29
   20cc6:	9201      	str	r2, [sp, #4]
   20cc8:	4620      	mov	r0, r4
   20cca:	f006 fae6 	bl	2729a <__aeabi_memcpy>
   20cce:	ae11      	add	r6, sp, #68	@ 0x44
   20cd0:	2000      	movs	r0, #0
   20cd2:	84b0      	strh	r0, [r6, #36]	@ 0x24
   20cd4:	7235      	strb	r5, [r6, #8]
   20cd6:	9019      	str	r0, [sp, #100]	@ 0x64
   20cd8:	9018      	str	r0, [sp, #96]	@ 0x60
   20cda:	9017      	str	r0, [sp, #92]	@ 0x5c
   20cdc:	9016      	str	r0, [sp, #88]	@ 0x58
   20cde:	9015      	str	r0, [sp, #84]	@ 0x54
   20ce0:	9014      	str	r0, [sp, #80]	@ 0x50
   20ce2:	4820      	ldr	r0, [pc, #128]	@ (20d64 <_ZN20complex_full_dynamic3app17h2895bec7d6e30f57E+0xb0>)
   20ce4:	2505      	movs	r5, #5
   20ce6:	4629      	mov	r1, r5
   20ce8:	4622      	mov	r2, r4
   20cea:	9b01      	ldr	r3, [sp, #4]
   20cec:	df04      	svc	4
   20cee:	2802      	cmp	r0, #2
   20cf0:	d01a      	beq.n	20d28 <_ZN20complex_full_dynamic3app17h2895bec7d6e30f57E+0x74>
   20cf2:	360c      	adds	r6, #12
   20cf4:	a803      	add	r0, sp, #12
   20cf6:	2104      	movs	r1, #4
   20cf8:	7201      	strb	r1, [r0, #8]
   20cfa:	9504      	str	r5, [sp, #16]
   20cfc:	4819      	ldr	r0, [pc, #100]	@ (20d64 <_ZN20complex_full_dynamic3app17h2895bec7d6e30f57E+0xb0>)
   20cfe:	9003      	str	r0, [sp, #12]
   20d00:	2403      	movs	r4, #3
   20d02:	231a      	movs	r3, #26
   20d04:	4621      	mov	r1, r4
   20d06:	4632      	mov	r2, r6
   20d08:	df03      	svc	3
   20d0a:	2802      	cmp	r0, #2
   20d0c:	d00c      	beq.n	20d28 <_ZN20complex_full_dynamic3app17h2895bec7d6e30f57E+0x74>
   20d0e:	4635      	mov	r5, r6
   20d10:	a811      	add	r0, sp, #68	@ 0x44
   20d12:	7204      	strb	r4, [r0, #8]
   20d14:	9412      	str	r4, [sp, #72]	@ 0x48
   20d16:	4813      	ldr	r0, [pc, #76]	@ (20d64 <_ZN20complex_full_dynamic3app17h2895bec7d6e30f57E+0xb0>)
   20d18:	9011      	str	r0, [sp, #68]	@ 0x44
   20d1a:	2105      	movs	r1, #5
   20d1c:	2600      	movs	r6, #0
   20d1e:	4622      	mov	r2, r4
   20d20:	4633      	mov	r3, r6
   20d22:	df02      	svc	2
   20d24:	287f      	cmp	r0, #127	@ 0x7f
   20d26:	d80b      	bhi.n	20d40 <_ZN20complex_full_dynamic3app17h2895bec7d6e30f57E+0x8c>
   20d28:	9c02      	ldr	r4, [sp, #8]
   20d2a:	6061      	str	r1, [r4, #4]
   20d2c:	2601      	movs	r6, #1
   20d2e:	7026      	strb	r6, [r4, #0]
   20d30:	a811      	add	r0, sp, #68	@ 0x44
   20d32:	f006 f8f1 	bl	26f18 <_ZN9allow_pin12full_dynamic17unshare_if_shared17hc627a04126f70c57E>
   20d36:	a803      	add	r0, sp, #12
   20d38:	f006 f8ee 	bl	26f18 <_ZN9allow_pin12full_dynamic17unshare_if_shared17hc627a04126f70c57E>
   20d3c:	b01b      	add	sp, #108	@ 0x6c
   20d3e:	bdf0      	pop	{r4, r5, r6, r7, pc}
   20d40:	a803      	add	r0, sp, #12
   20d42:	f006 f8e9 	bl	26f18 <_ZN9allow_pin12full_dynamic17unshare_if_shared17hc627a04126f70c57E>
   20d46:	ac11      	add	r4, sp, #68	@ 0x44
   20d48:	4620      	mov	r0, r4
   20d4a:	f006 f8e5 	bl	26f18 <_ZN9allow_pin12full_dynamic17unshare_if_shared17hc627a04126f70c57E>
   20d4e:	4620      	mov	r0, r4
   20d50:	f006 f8e2 	bl	26f18 <_ZN9allow_pin12full_dynamic17unshare_if_shared17hc627a04126f70c57E>
   20d54:	9c02      	ldr	r4, [sp, #8]
   20d56:	1c60      	adds	r0, r4, #1
   20d58:	221a      	movs	r2, #26
   20d5a:	4629      	mov	r1, r5
   20d5c:	f006 fa9d 	bl	2729a <__aeabi_memcpy>
   20d60:	e7e5      	b.n	20d2e <_ZN20complex_full_dynamic3app17h2895bec7d6e30f57E+0x7a>
   20d62:	46c0      	nop			@ (mov r8, r8)
   20d64:	00002048 	.word	0x00002048

00020d68 <_ZN20complex_full_dynamic3app17h297aad9134ec7717E>:
   20d68:	b5f0      	push	{r4, r5, r6, r7, lr}
   20d6a:	af03      	add	r7, sp, #12
   20d6c:	b09f      	sub	sp, #124	@ 0x7c
   20d6e:	9003      	str	r0, [sp, #12]
   20d70:	ac04      	add	r4, sp, #16
   20d72:	2002      	movs	r0, #2
   20d74:	9002      	str	r0, [sp, #8]
   20d76:	7220      	strb	r0, [r4, #8]
   20d78:	340c      	adds	r4, #12
   20d7a:	222a      	movs	r2, #42	@ 0x2a
   20d7c:	9201      	str	r2, [sp, #4]
   20d7e:	4620      	mov	r0, r4
   20d80:	f006 fa8b 	bl	2729a <__aeabi_memcpy>
   20d84:	ae12      	add	r6, sp, #72	@ 0x48
   20d86:	4635      	mov	r5, r6
   20d88:	350c      	adds	r5, #12
   20d8a:	2128      	movs	r1, #40	@ 0x28
   20d8c:	4628      	mov	r0, r5
   20d8e:	f006 f8d7 	bl	26f40 <__aeabi_memclr4>
   20d92:	9802      	ldr	r0, [sp, #8]
   20d94:	7230      	strb	r0, [r6, #8]
   20d96:	481f      	ldr	r0, [pc, #124]	@ (20e14 <_ZN20complex_full_dynamic3app17h297aad9134ec7717E+0xac>)
   20d98:	2604      	movs	r6, #4
   20d9a:	4631      	mov	r1, r6
   20d9c:	4622      	mov	r2, r4
   20d9e:	9b01      	ldr	r3, [sp, #4]
   20da0:	df04      	svc	4
   20da2:	2802      	cmp	r0, #2
   20da4:	d019      	beq.n	20dda <_ZN20complex_full_dynamic3app17h297aad9134ec7717E+0x72>
   20da6:	a804      	add	r0, sp, #16
   20da8:	7206      	strb	r6, [r0, #8]
   20daa:	9605      	str	r6, [sp, #20]
   20dac:	4e19      	ldr	r6, [pc, #100]	@ (20e14 <_ZN20complex_full_dynamic3app17h297aad9134ec7717E+0xac>)
   20dae:	9604      	str	r6, [sp, #16]
   20db0:	2408      	movs	r4, #8
   20db2:	2328      	movs	r3, #40	@ 0x28
   20db4:	4630      	mov	r0, r6
   20db6:	4621      	mov	r1, r4
   20db8:	462a      	mov	r2, r5
   20dba:	df03      	svc	3
   20dbc:	2802      	cmp	r0, #2
   20dbe:	d00c      	beq.n	20dda <_ZN20complex_full_dynamic3app17h297aad9134ec7717E+0x72>
   20dc0:	a812      	add	r0, sp, #72	@ 0x48
   20dc2:	2103      	movs	r1, #3
   20dc4:	7201      	strb	r1, [r0, #8]
   20dc6:	9612      	str	r6, [sp, #72]	@ 0x48
   20dc8:	9413      	str	r4, [sp, #76]	@ 0x4c
   20dca:	4812      	ldr	r0, [pc, #72]	@ (20e14 <_ZN20complex_full_dynamic3app17h297aad9134ec7717E+0xac>)
   20dcc:	2104      	movs	r1, #4
   20dce:	2600      	movs	r6, #0
   20dd0:	4622      	mov	r2, r4
   20dd2:	4633      	mov	r3, r6
   20dd4:	df02      	svc	2
   20dd6:	287f      	cmp	r0, #127	@ 0x7f
   20dd8:	d80b      	bhi.n	20df2 <_ZN20complex_full_dynamic3app17h297aad9134ec7717E+0x8a>
   20dda:	9c03      	ldr	r4, [sp, #12]
   20ddc:	6061      	str	r1, [r4, #4]
   20dde:	2601      	movs	r6, #1
   20de0:	7026      	strb	r6, [r4, #0]
   20de2:	a812      	add	r0, sp, #72	@ 0x48
   20de4:	f006 f898 	bl	26f18 <_ZN9allow_pin12full_dynamic17unshare_if_shared17hc627a04126f70c57E>
   20de8:	a804      	add	r0, sp, #16
   20dea:	f006 f895 	bl	26f18 <_ZN9allow_pin12full_dynamic17unshare_if_shared17hc627a04126f70c57E>
   20dee:	b01f      	add	sp, #124	@ 0x7c
   20df0:	bdf0      	pop	{r4, r5, r6, r7, pc}
   20df2:	a804      	add	r0, sp, #16
   20df4:	f006 f890 	bl	26f18 <_ZN9allow_pin12full_dynamic17unshare_if_shared17hc627a04126f70c57E>
   20df8:	ac12      	add	r4, sp, #72	@ 0x48
   20dfa:	4620      	mov	r0, r4
   20dfc:	f006 f88c 	bl	26f18 <_ZN9allow_pin12full_dynamic17unshare_if_shared17hc627a04126f70c57E>
   20e00:	4620      	mov	r0, r4
   20e02:	f006 f889 	bl	26f18 <_ZN9allow_pin12full_dynamic17unshare_if_shared17hc627a04126f70c57E>
   20e06:	9c03      	ldr	r4, [sp, #12]
   20e08:	1c60      	adds	r0, r4, #1
   20e0a:	2228      	movs	r2, #40	@ 0x28
   20e0c:	4629      	mov	r1, r5
   20e0e:	f006 fa44 	bl	2729a <__aeabi_memcpy>
   20e12:	e7e5      	b.n	20de0 <_ZN20complex_full_dynamic3app17h297aad9134ec7717E+0x78>
   20e14:	00001efa 	.word	0x00001efa

00020e18 <_ZN20complex_full_dynamic3app17h299327d2816104f2E>:
   20e18:	b5f0      	push	{r4, r5, r6, r7, lr}
   20e1a:	af03      	add	r7, sp, #12
   20e1c:	b0a5      	sub	sp, #148	@ 0x94
   20e1e:	9002      	str	r0, [sp, #8]
   20e20:	ac03      	add	r4, sp, #12
   20e22:	2002      	movs	r0, #2
   20e24:	9001      	str	r0, [sp, #4]
   20e26:	7220      	strb	r0, [r4, #8]
   20e28:	340c      	adds	r4, #12
   20e2a:	2249      	movs	r2, #73	@ 0x49
   20e2c:	9200      	str	r2, [sp, #0]
   20e2e:	4620      	mov	r0, r4
   20e30:	f006 fa33 	bl	2729a <__aeabi_memcpy>
   20e34:	ae19      	add	r6, sp, #100	@ 0x64
   20e36:	4635      	mov	r5, r6
   20e38:	350c      	adds	r5, #12
   20e3a:	2123      	movs	r1, #35	@ 0x23
   20e3c:	4628      	mov	r0, r5
   20e3e:	f006 f87f 	bl	26f40 <__aeabi_memclr4>
   20e42:	9801      	ldr	r0, [sp, #4]
   20e44:	7230      	strb	r0, [r6, #8]
   20e46:	4820      	ldr	r0, [pc, #128]	@ (20ec8 <_ZN20complex_full_dynamic3app17h299327d2816104f2E+0xb0>)
   20e48:	2607      	movs	r6, #7
   20e4a:	4631      	mov	r1, r6
   20e4c:	4622      	mov	r2, r4
   20e4e:	9b00      	ldr	r3, [sp, #0]
   20e50:	df04      	svc	4
   20e52:	2802      	cmp	r0, #2
   20e54:	d01a      	beq.n	20e8c <_ZN20complex_full_dynamic3app17h299327d2816104f2E+0x74>
   20e56:	a803      	add	r0, sp, #12
   20e58:	2104      	movs	r1, #4
   20e5a:	7201      	strb	r1, [r0, #8]
   20e5c:	9604      	str	r6, [sp, #16]
   20e5e:	4e1a      	ldr	r6, [pc, #104]	@ (20ec8 <_ZN20complex_full_dynamic3app17h299327d2816104f2E+0xb0>)
   20e60:	9603      	str	r6, [sp, #12]
   20e62:	2401      	movs	r4, #1
   20e64:	2323      	movs	r3, #35	@ 0x23
   20e66:	4630      	mov	r0, r6
   20e68:	4621      	mov	r1, r4
   20e6a:	462a      	mov	r2, r5
   20e6c:	df03      	svc	3
   20e6e:	2802      	cmp	r0, #2
   20e70:	d00c      	beq.n	20e8c <_ZN20complex_full_dynamic3app17h299327d2816104f2E+0x74>
   20e72:	a819      	add	r0, sp, #100	@ 0x64
   20e74:	2103      	movs	r1, #3
   20e76:	7201      	strb	r1, [r0, #8]
   20e78:	9619      	str	r6, [sp, #100]	@ 0x64
   20e7a:	941a      	str	r4, [sp, #104]	@ 0x68
   20e7c:	4812      	ldr	r0, [pc, #72]	@ (20ec8 <_ZN20complex_full_dynamic3app17h299327d2816104f2E+0xb0>)
   20e7e:	2107      	movs	r1, #7
   20e80:	2600      	movs	r6, #0
   20e82:	4622      	mov	r2, r4
   20e84:	4633      	mov	r3, r6
   20e86:	df02      	svc	2
   20e88:	287f      	cmp	r0, #127	@ 0x7f
   20e8a:	d80b      	bhi.n	20ea4 <_ZN20complex_full_dynamic3app17h299327d2816104f2E+0x8c>
   20e8c:	9c02      	ldr	r4, [sp, #8]
   20e8e:	6061      	str	r1, [r4, #4]
   20e90:	2601      	movs	r6, #1
   20e92:	7026      	strb	r6, [r4, #0]
   20e94:	a819      	add	r0, sp, #100	@ 0x64
   20e96:	f006 f83f 	bl	26f18 <_ZN9allow_pin12full_dynamic17unshare_if_shared17hc627a04126f70c57E>
   20e9a:	a803      	add	r0, sp, #12
   20e9c:	f006 f83c 	bl	26f18 <_ZN9allow_pin12full_dynamic17unshare_if_shared17hc627a04126f70c57E>
   20ea0:	b025      	add	sp, #148	@ 0x94
   20ea2:	bdf0      	pop	{r4, r5, r6, r7, pc}
   20ea4:	a803      	add	r0, sp, #12
   20ea6:	f006 f837 	bl	26f18 <_ZN9allow_pin12full_dynamic17unshare_if_shared17hc627a04126f70c57E>
   20eaa:	ac19      	add	r4, sp, #100	@ 0x64
   20eac:	4620      	mov	r0, r4
   20eae:	f006 f833 	bl	26f18 <_ZN9allow_pin12full_dynamic17unshare_if_shared17hc627a04126f70c57E>
   20eb2:	4620      	mov	r0, r4
   20eb4:	f006 f830 	bl	26f18 <_ZN9allow_pin12full_dynamic17unshare_if_shared17hc627a04126f70c57E>
   20eb8:	9c02      	ldr	r4, [sp, #8]
   20eba:	1c60      	adds	r0, r4, #1
   20ebc:	2223      	movs	r2, #35	@ 0x23
   20ebe:	4629      	mov	r1, r5
   20ec0:	f006 f9eb 	bl	2729a <__aeabi_memcpy>
   20ec4:	e7e5      	b.n	20e92 <_ZN20complex_full_dynamic3app17h299327d2816104f2E+0x7a>
   20ec6:	46c0      	nop			@ (mov r8, r8)
   20ec8:	00001551 	.word	0x00001551

00020ecc <_ZN20complex_full_dynamic3app17h2e3847296a1c187dE>:
   20ecc:	b5f0      	push	{r4, r5, r6, r7, lr}
   20ece:	af03      	add	r7, sp, #12
   20ed0:	b09f      	sub	sp, #124	@ 0x7c
   20ed2:	9003      	str	r0, [sp, #12]
   20ed4:	ae04      	add	r6, sp, #16
   20ed6:	2002      	movs	r0, #2
   20ed8:	9001      	str	r0, [sp, #4]
   20eda:	7230      	strb	r0, [r6, #8]
   20edc:	360c      	adds	r6, #12
   20ede:	2211      	movs	r2, #17
   20ee0:	9202      	str	r2, [sp, #8]
   20ee2:	4630      	mov	r0, r6
   20ee4:	f006 f9d9 	bl	2729a <__aeabi_memcpy>
   20ee8:	ad0c      	add	r5, sp, #48	@ 0x30
   20eea:	462c      	mov	r4, r5
   20eec:	340c      	adds	r4, #12
   20eee:	213f      	movs	r1, #63	@ 0x3f
   20ef0:	4620      	mov	r0, r4
   20ef2:	f006 f825 	bl	26f40 <__aeabi_memclr4>
   20ef6:	9801      	ldr	r0, [sp, #4]
   20ef8:	7228      	strb	r0, [r5, #8]
   20efa:	20cb      	movs	r0, #203	@ 0xcb
   20efc:	0100      	lsls	r0, r0, #4
   20efe:	2507      	movs	r5, #7
   20f00:	9001      	str	r0, [sp, #4]
   20f02:	4629      	mov	r1, r5
   20f04:	4632      	mov	r2, r6
   20f06:	9b02      	ldr	r3, [sp, #8]
   20f08:	df04      	svc	4
   20f0a:	2802      	cmp	r0, #2
   20f0c:	d018      	beq.n	20f40 <_ZN20complex_full_dynamic3app17h2e3847296a1c187dE+0x74>
   20f0e:	a804      	add	r0, sp, #16
   20f10:	2604      	movs	r6, #4
   20f12:	7206      	strb	r6, [r0, #8]
   20f14:	9505      	str	r5, [sp, #20]
   20f16:	9801      	ldr	r0, [sp, #4]
   20f18:	9004      	str	r0, [sp, #16]
   20f1a:	233f      	movs	r3, #63	@ 0x3f
   20f1c:	4631      	mov	r1, r6
   20f1e:	4622      	mov	r2, r4
   20f20:	df03      	svc	3
   20f22:	2802      	cmp	r0, #2
   20f24:	d00c      	beq.n	20f40 <_ZN20complex_full_dynamic3app17h2e3847296a1c187dE+0x74>
   20f26:	a80c      	add	r0, sp, #48	@ 0x30
   20f28:	2103      	movs	r1, #3
   20f2a:	7201      	strb	r1, [r0, #8]
   20f2c:	9801      	ldr	r0, [sp, #4]
   20f2e:	900c      	str	r0, [sp, #48]	@ 0x30
   20f30:	960d      	str	r6, [sp, #52]	@ 0x34
   20f32:	2107      	movs	r1, #7
   20f34:	2300      	movs	r3, #0
   20f36:	4632      	mov	r2, r6
   20f38:	461e      	mov	r6, r3
   20f3a:	df02      	svc	2
   20f3c:	287f      	cmp	r0, #127	@ 0x7f
   20f3e:	d80b      	bhi.n	20f58 <_ZN20complex_full_dynamic3app17h2e3847296a1c187dE+0x8c>
   20f40:	9c03      	ldr	r4, [sp, #12]
   20f42:	6061      	str	r1, [r4, #4]
   20f44:	2601      	movs	r6, #1
   20f46:	7026      	strb	r6, [r4, #0]
   20f48:	a80c      	add	r0, sp, #48	@ 0x30
   20f4a:	f005 ffe5 	bl	26f18 <_ZN9allow_pin12full_dynamic17unshare_if_shared17hc627a04126f70c57E>
   20f4e:	a804      	add	r0, sp, #16
   20f50:	f005 ffe2 	bl	26f18 <_ZN9allow_pin12full_dynamic17unshare_if_shared17hc627a04126f70c57E>
   20f54:	b01f      	add	sp, #124	@ 0x7c
   20f56:	bdf0      	pop	{r4, r5, r6, r7, pc}
   20f58:	4625      	mov	r5, r4
   20f5a:	a804      	add	r0, sp, #16
   20f5c:	f005 ffdc 	bl	26f18 <_ZN9allow_pin12full_dynamic17unshare_if_shared17hc627a04126f70c57E>
   20f60:	ac0c      	add	r4, sp, #48	@ 0x30
   20f62:	4620      	mov	r0, r4
   20f64:	f005 ffd8 	bl	26f18 <_ZN9allow_pin12full_dynamic17unshare_if_shared17hc627a04126f70c57E>
   20f68:	4620      	mov	r0, r4
   20f6a:	f005 ffd5 	bl	26f18 <_ZN9allow_pin12full_dynamic17unshare_if_shared17hc627a04126f70c57E>
   20f6e:	9c03      	ldr	r4, [sp, #12]
   20f70:	1c60      	adds	r0, r4, #1
   20f72:	223f      	movs	r2, #63	@ 0x3f
   20f74:	4629      	mov	r1, r5
   20f76:	f006 f990 	bl	2729a <__aeabi_memcpy>
   20f7a:	e7e4      	b.n	20f46 <_ZN20complex_full_dynamic3app17h2e3847296a1c187dE+0x7a>

00020f7c <_ZN20complex_full_dynamic3app17h30bcd72d39797225E>:
   20f7c:	b5f0      	push	{r4, r5, r6, r7, lr}
   20f7e:	af03      	add	r7, sp, #12
   20f80:	b0a9      	sub	sp, #164	@ 0xa4
   20f82:	9003      	str	r0, [sp, #12]
   20f84:	ac04      	add	r4, sp, #16
   20f86:	2002      	movs	r0, #2
   20f88:	9002      	str	r0, [sp, #8]
   20f8a:	7220      	strb	r0, [r4, #8]
   20f8c:	340c      	adds	r4, #12
   20f8e:	2231      	movs	r2, #49	@ 0x31
   20f90:	9201      	str	r2, [sp, #4]
   20f92:	4620      	mov	r0, r4
   20f94:	f006 f981 	bl	2729a <__aeabi_memcpy>
   20f98:	ae14      	add	r6, sp, #80	@ 0x50
   20f9a:	4635      	mov	r5, r6
   20f9c:	350c      	adds	r5, #12
   20f9e:	2148      	movs	r1, #72	@ 0x48
   20fa0:	4628      	mov	r0, r5
   20fa2:	f005 ffcd 	bl	26f40 <__aeabi_memclr4>
   20fa6:	9802      	ldr	r0, [sp, #8]
   20fa8:	7230      	strb	r0, [r6, #8]
   20faa:	481f      	ldr	r0, [pc, #124]	@ (21028 <_ZN20complex_full_dynamic3app17h30bcd72d39797225E+0xac>)
   20fac:	2604      	movs	r6, #4
   20fae:	4631      	mov	r1, r6
   20fb0:	4622      	mov	r2, r4
   20fb2:	9b01      	ldr	r3, [sp, #4]
   20fb4:	df04      	svc	4
   20fb6:	2802      	cmp	r0, #2
   20fb8:	d018      	beq.n	20fec <_ZN20complex_full_dynamic3app17h30bcd72d39797225E+0x70>
   20fba:	a804      	add	r0, sp, #16
   20fbc:	7206      	strb	r6, [r0, #8]
   20fbe:	9605      	str	r6, [sp, #20]
   20fc0:	4e19      	ldr	r6, [pc, #100]	@ (21028 <_ZN20complex_full_dynamic3app17h30bcd72d39797225E+0xac>)
   20fc2:	9604      	str	r6, [sp, #16]
   20fc4:	2403      	movs	r4, #3
   20fc6:	2348      	movs	r3, #72	@ 0x48
   20fc8:	4630      	mov	r0, r6
   20fca:	4621      	mov	r1, r4
   20fcc:	462a      	mov	r2, r5
   20fce:	df03      	svc	3
   20fd0:	2802      	cmp	r0, #2
   20fd2:	d00b      	beq.n	20fec <_ZN20complex_full_dynamic3app17h30bcd72d39797225E+0x70>
   20fd4:	a814      	add	r0, sp, #80	@ 0x50
   20fd6:	7204      	strb	r4, [r0, #8]
   20fd8:	9415      	str	r4, [sp, #84]	@ 0x54
   20fda:	9614      	str	r6, [sp, #80]	@ 0x50
   20fdc:	4812      	ldr	r0, [pc, #72]	@ (21028 <_ZN20complex_full_dynamic3app17h30bcd72d39797225E+0xac>)
   20fde:	2104      	movs	r1, #4
   20fe0:	2600      	movs	r6, #0
   20fe2:	4622      	mov	r2, r4
   20fe4:	4633      	mov	r3, r6
   20fe6:	df02      	svc	2
   20fe8:	287f      	cmp	r0, #127	@ 0x7f
   20fea:	d80b      	bhi.n	21004 <_ZN20complex_full_dynamic3app17h30bcd72d39797225E+0x88>
   20fec:	9c03      	ldr	r4, [sp, #12]
   20fee:	6061      	str	r1, [r4, #4]
   20ff0:	2601      	movs	r6, #1
   20ff2:	7026      	strb	r6, [r4, #0]
   20ff4:	a814      	add	r0, sp, #80	@ 0x50
   20ff6:	f005 ff8f 	bl	26f18 <_ZN9allow_pin12full_dynamic17unshare_if_shared17hc627a04126f70c57E>
   20ffa:	a804      	add	r0, sp, #16
   20ffc:	f005 ff8c 	bl	26f18 <_ZN9allow_pin12full_dynamic17unshare_if_shared17hc627a04126f70c57E>
   21000:	b029      	add	sp, #164	@ 0xa4
   21002:	bdf0      	pop	{r4, r5, r6, r7, pc}
   21004:	a804      	add	r0, sp, #16
   21006:	f005 ff87 	bl	26f18 <_ZN9allow_pin12full_dynamic17unshare_if_shared17hc627a04126f70c57E>
   2100a:	ac14      	add	r4, sp, #80	@ 0x50
   2100c:	4620      	mov	r0, r4
   2100e:	f005 ff83 	bl	26f18 <_ZN9allow_pin12full_dynamic17unshare_if_shared17hc627a04126f70c57E>
   21012:	4620      	mov	r0, r4
   21014:	f005 ff80 	bl	26f18 <_ZN9allow_pin12full_dynamic17unshare_if_shared17hc627a04126f70c57E>
   21018:	9c03      	ldr	r4, [sp, #12]
   2101a:	1c60      	adds	r0, r4, #1
   2101c:	2248      	movs	r2, #72	@ 0x48
   2101e:	4629      	mov	r1, r5
   21020:	f006 f93b 	bl	2729a <__aeabi_memcpy>
   21024:	e7e5      	b.n	20ff2 <_ZN20complex_full_dynamic3app17h30bcd72d39797225E+0x76>
   21026:	46c0      	nop			@ (mov r8, r8)
   21028:	0000180e 	.word	0x0000180e

0002102c <_ZN20complex_full_dynamic3app17h3239da359baaa89aE>:
   2102c:	b5f0      	push	{r4, r5, r6, r7, lr}
   2102e:	af03      	add	r7, sp, #12
   21030:	b09b      	sub	sp, #108	@ 0x6c
   21032:	9003      	str	r0, [sp, #12]
   21034:	ac04      	add	r4, sp, #16
   21036:	2002      	movs	r0, #2
   21038:	9002      	str	r0, [sp, #8]
   2103a:	7220      	strb	r0, [r4, #8]
   2103c:	340c      	adds	r4, #12
   2103e:	221e      	movs	r2, #30
   21040:	9201      	str	r2, [sp, #4]
   21042:	4620      	mov	r0, r4
   21044:	f006 f929 	bl	2729a <__aeabi_memcpy>
   21048:	ae0f      	add	r6, sp, #60	@ 0x3c
   2104a:	4635      	mov	r5, r6
   2104c:	350c      	adds	r5, #12
   2104e:	2121      	movs	r1, #33	@ 0x21
   21050:	4628      	mov	r0, r5
   21052:	f005 ff75 	bl	26f40 <__aeabi_memclr4>
   21056:	9802      	ldr	r0, [sp, #8]
   21058:	7230      	strb	r0, [r6, #8]
   2105a:	4820      	ldr	r0, [pc, #128]	@ (210dc <_ZN20complex_full_dynamic3app17h3239da359baaa89aE+0xb0>)
   2105c:	2606      	movs	r6, #6
   2105e:	4631      	mov	r1, r6
   21060:	4622      	mov	r2, r4
   21062:	9b01      	ldr	r3, [sp, #4]
   21064:	df04      	svc	4
   21066:	2802      	cmp	r0, #2
   21068:	d01a      	beq.n	210a0 <_ZN20complex_full_dynamic3app17h3239da359baaa89aE+0x74>
   2106a:	a804      	add	r0, sp, #16
   2106c:	2104      	movs	r1, #4
   2106e:	7201      	strb	r1, [r0, #8]
   21070:	9605      	str	r6, [sp, #20]
   21072:	4e1a      	ldr	r6, [pc, #104]	@ (210dc <_ZN20complex_full_dynamic3app17h3239da359baaa89aE+0xb0>)
   21074:	9604      	str	r6, [sp, #16]
   21076:	2409      	movs	r4, #9
   21078:	2321      	movs	r3, #33	@ 0x21
   2107a:	4630      	mov	r0, r6
   2107c:	4621      	mov	r1, r4
   2107e:	462a      	mov	r2, r5
   21080:	df03      	svc	3
   21082:	2802      	cmp	r0, #2
   21084:	d00c      	beq.n	210a0 <_ZN20complex_full_dynamic3app17h3239da359baaa89aE+0x74>
   21086:	a80f      	add	r0, sp, #60	@ 0x3c
   21088:	2103      	movs	r1, #3
   2108a:	7201      	strb	r1, [r0, #8]
   2108c:	960f      	str	r6, [sp, #60]	@ 0x3c
   2108e:	9410      	str	r4, [sp, #64]	@ 0x40
   21090:	4812      	ldr	r0, [pc, #72]	@ (210dc <_ZN20complex_full_dynamic3app17h3239da359baaa89aE+0xb0>)
   21092:	2106      	movs	r1, #6
   21094:	2600      	movs	r6, #0
   21096:	4622      	mov	r2, r4
   21098:	4633      	mov	r3, r6
   2109a:	df02      	svc	2
   2109c:	287f      	cmp	r0, #127	@ 0x7f
   2109e:	d80b      	bhi.n	210b8 <_ZN20complex_full_dynamic3app17h3239da359baaa89aE+0x8c>
   210a0:	9c03      	ldr	r4, [sp, #12]
   210a2:	6061      	str	r1, [r4, #4]
   210a4:	2601      	movs	r6, #1
   210a6:	7026      	strb	r6, [r4, #0]
   210a8:	a80f      	add	r0, sp, #60	@ 0x3c
   210aa:	f005 ff35 	bl	26f18 <_ZN9allow_pin12full_dynamic17unshare_if_shared17hc627a04126f70c57E>
   210ae:	a804      	add	r0, sp, #16
   210b0:	f005 ff32 	bl	26f18 <_ZN9allow_pin12full_dynamic17unshare_if_shared17hc627a04126f70c57E>
   210b4:	b01b      	add	sp, #108	@ 0x6c
   210b6:	bdf0      	pop	{r4, r5, r6, r7, pc}
   210b8:	a804      	add	r0, sp, #16
   210ba:	f005 ff2d 	bl	26f18 <_ZN9allow_pin12full_dynamic17unshare_if_shared17hc627a04126f70c57E>
   210be:	ac0f      	add	r4, sp, #60	@ 0x3c
   210c0:	4620      	mov	r0, r4
   210c2:	f005 ff29 	bl	26f18 <_ZN9allow_pin12full_dynamic17unshare_if_shared17hc627a04126f70c57E>
   210c6:	4620      	mov	r0, r4
   210c8:	f005 ff26 	bl	26f18 <_ZN9allow_pin12full_dynamic17unshare_if_shared17hc627a04126f70c57E>
   210cc:	9c03      	ldr	r4, [sp, #12]
   210ce:	1c60      	adds	r0, r4, #1
   210d0:	2221      	movs	r2, #33	@ 0x21
   210d2:	4629      	mov	r1, r5
   210d4:	f006 f8e1 	bl	2729a <__aeabi_memcpy>
   210d8:	e7e5      	b.n	210a6 <_ZN20complex_full_dynamic3app17h3239da359baaa89aE+0x7a>
   210da:	46c0      	nop			@ (mov r8, r8)
   210dc:	000019b5 	.word	0x000019b5

000210e0 <_ZN20complex_full_dynamic3app17h338b5878b1de5c0bE>:
   210e0:	b5f0      	push	{r4, r5, r6, r7, lr}
   210e2:	af03      	add	r7, sp, #12
   210e4:	b0ad      	sub	sp, #180	@ 0xb4
   210e6:	9002      	str	r0, [sp, #8]
   210e8:	ac03      	add	r4, sp, #12
   210ea:	2002      	movs	r0, #2
   210ec:	9001      	str	r0, [sp, #4]
   210ee:	7220      	strb	r0, [r4, #8]
   210f0:	340c      	adds	r4, #12
   210f2:	2253      	movs	r2, #83	@ 0x53
   210f4:	9200      	str	r2, [sp, #0]
   210f6:	4620      	mov	r0, r4
   210f8:	f006 f8cf 	bl	2729a <__aeabi_memcpy>
   210fc:	ae1b      	add	r6, sp, #108	@ 0x6c
   210fe:	4635      	mov	r5, r6
   21100:	350c      	adds	r5, #12
   21102:	213a      	movs	r1, #58	@ 0x3a
   21104:	4628      	mov	r0, r5
   21106:	f005 ff1b 	bl	26f40 <__aeabi_memclr4>
   2110a:	9801      	ldr	r0, [sp, #4]
   2110c:	7230      	strb	r0, [r6, #8]
   2110e:	4820      	ldr	r0, [pc, #128]	@ (21190 <_ZN20complex_full_dynamic3app17h338b5878b1de5c0bE+0xb0>)
   21110:	2606      	movs	r6, #6
   21112:	4631      	mov	r1, r6
   21114:	4622      	mov	r2, r4
   21116:	9b00      	ldr	r3, [sp, #0]
   21118:	df04      	svc	4
   2111a:	2802      	cmp	r0, #2
   2111c:	d01a      	beq.n	21154 <_ZN20complex_full_dynamic3app17h338b5878b1de5c0bE+0x74>
   2111e:	a803      	add	r0, sp, #12
   21120:	2104      	movs	r1, #4
   21122:	7201      	strb	r1, [r0, #8]
   21124:	9604      	str	r6, [sp, #16]
   21126:	4e1a      	ldr	r6, [pc, #104]	@ (21190 <_ZN20complex_full_dynamic3app17h338b5878b1de5c0bE+0xb0>)
   21128:	9603      	str	r6, [sp, #12]
   2112a:	2407      	movs	r4, #7
   2112c:	233a      	movs	r3, #58	@ 0x3a
   2112e:	4630      	mov	r0, r6
   21130:	4621      	mov	r1, r4
   21132:	462a      	mov	r2, r5
   21134:	df03      	svc	3
   21136:	2802      	cmp	r0, #2
   21138:	d00c      	beq.n	21154 <_ZN20complex_full_dynamic3app17h338b5878b1de5c0bE+0x74>
   2113a:	a81b      	add	r0, sp, #108	@ 0x6c
   2113c:	2103      	movs	r1, #3
   2113e:	7201      	strb	r1, [r0, #8]
   21140:	961b      	str	r6, [sp, #108]	@ 0x6c
   21142:	941c      	str	r4, [sp, #112]	@ 0x70
   21144:	4812      	ldr	r0, [pc, #72]	@ (21190 <_ZN20complex_full_dynamic3app17h338b5878b1de5c0bE+0xb0>)
   21146:	2106      	movs	r1, #6
   21148:	2600      	movs	r6, #0
   2114a:	4622      	mov	r2, r4
   2114c:	4633      	mov	r3, r6
   2114e:	df02      	svc	2
   21150:	287f      	cmp	r0, #127	@ 0x7f
   21152:	d80b      	bhi.n	2116c <_ZN20complex_full_dynamic3app17h338b5878b1de5c0bE+0x8c>
   21154:	9c02      	ldr	r4, [sp, #8]
   21156:	6061      	str	r1, [r4, #4]
   21158:	2601      	movs	r6, #1
   2115a:	7026      	strb	r6, [r4, #0]
   2115c:	a81b      	add	r0, sp, #108	@ 0x6c
   2115e:	f005 fedb 	bl	26f18 <_ZN9allow_pin12full_dynamic17unshare_if_shared17hc627a04126f70c57E>
   21162:	a803      	add	r0, sp, #12
   21164:	f005 fed8 	bl	26f18 <_ZN9allow_pin12full_dynamic17unshare_if_shared17hc627a04126f70c57E>
   21168:	b02d      	add	sp, #180	@ 0xb4
   2116a:	bdf0      	pop	{r4, r5, r6, r7, pc}
   2116c:	a803      	add	r0, sp, #12
   2116e:	f005 fed3 	bl	26f18 <_ZN9allow_pin12full_dynamic17unshare_if_shared17hc627a04126f70c57E>
   21172:	ac1b      	add	r4, sp, #108	@ 0x6c
   21174:	4620      	mov	r0, r4
   21176:	f005 fecf 	bl	26f18 <_ZN9allow_pin12full_dynamic17unshare_if_shared17hc627a04126f70c57E>
   2117a:	4620      	mov	r0, r4
   2117c:	f005 fecc 	bl	26f18 <_ZN9allow_pin12full_dynamic17unshare_if_shared17hc627a04126f70c57E>
   21180:	9c02      	ldr	r4, [sp, #8]
   21182:	1c60      	adds	r0, r4, #1
   21184:	223a      	movs	r2, #58	@ 0x3a
   21186:	4629      	mov	r1, r5
   21188:	f006 f887 	bl	2729a <__aeabi_memcpy>
   2118c:	e7e5      	b.n	2115a <_ZN20complex_full_dynamic3app17h338b5878b1de5c0bE+0x7a>
   2118e:	46c0      	nop			@ (mov r8, r8)
   21190:	00002645 	.word	0x00002645

00021194 <_ZN20complex_full_dynamic3app17h33da904aad648916E>:
   21194:	b5f0      	push	{r4, r5, r6, r7, lr}
   21196:	af03      	add	r7, sp, #12
   21198:	b09f      	sub	sp, #124	@ 0x7c
   2119a:	9002      	str	r0, [sp, #8]
   2119c:	ac03      	add	r4, sp, #12
   2119e:	2502      	movs	r5, #2
   211a0:	7225      	strb	r5, [r4, #8]
   211a2:	340c      	adds	r4, #12
   211a4:	2248      	movs	r2, #72	@ 0x48
   211a6:	9201      	str	r2, [sp, #4]
   211a8:	4620      	mov	r0, r4
   211aa:	f006 f876 	bl	2729a <__aeabi_memcpy>
   211ae:	ae18      	add	r6, sp, #96	@ 0x60
   211b0:	2000      	movs	r0, #0
   211b2:	76b0      	strb	r0, [r6, #26]
   211b4:	8330      	strh	r0, [r6, #24]
   211b6:	7235      	strb	r5, [r6, #8]
   211b8:	901d      	str	r0, [sp, #116]	@ 0x74
   211ba:	901c      	str	r0, [sp, #112]	@ 0x70
   211bc:	901b      	str	r0, [sp, #108]	@ 0x6c
   211be:	4820      	ldr	r0, [pc, #128]	@ (21240 <_ZN20complex_full_dynamic3app17h33da904aad648916E+0xac>)
   211c0:	2508      	movs	r5, #8
   211c2:	4629      	mov	r1, r5
   211c4:	4622      	mov	r2, r4
   211c6:	9b01      	ldr	r3, [sp, #4]
   211c8:	df04      	svc	4
   211ca:	2802      	cmp	r0, #2
   211cc:	d01b      	beq.n	21206 <_ZN20complex_full_dynamic3app17h33da904aad648916E+0x72>
   211ce:	360c      	adds	r6, #12
   211d0:	a803      	add	r0, sp, #12
   211d2:	2104      	movs	r1, #4
   211d4:	7201      	strb	r1, [r0, #8]
   211d6:	9504      	str	r5, [sp, #16]
   211d8:	4819      	ldr	r0, [pc, #100]	@ (21240 <_ZN20complex_full_dynamic3app17h33da904aad648916E+0xac>)
   211da:	9003      	str	r0, [sp, #12]
   211dc:	2409      	movs	r4, #9
   211de:	230f      	movs	r3, #15
   211e0:	4621      	mov	r1, r4
   211e2:	4632      	mov	r2, r6
   211e4:	df03      	svc	3
   211e6:	2802      	cmp	r0, #2
   211e8:	d00d      	beq.n	21206 <_ZN20complex_full_dynamic3app17h33da904aad648916E+0x72>
   211ea:	4635      	mov	r5, r6
   211ec:	a818      	add	r0, sp, #96	@ 0x60
   211ee:	2103      	movs	r1, #3
   211f0:	7201      	strb	r1, [r0, #8]
   211f2:	4813      	ldr	r0, [pc, #76]	@ (21240 <_ZN20complex_full_dynamic3app17h33da904aad648916E+0xac>)
   211f4:	9018      	str	r0, [sp, #96]	@ 0x60
   211f6:	9419      	str	r4, [sp, #100]	@ 0x64
   211f8:	2108      	movs	r1, #8
   211fa:	2600      	movs	r6, #0
   211fc:	4622      	mov	r2, r4
   211fe:	4633      	mov	r3, r6
   21200:	df02      	svc	2
   21202:	287f      	cmp	r0, #127	@ 0x7f
   21204:	d80b      	bhi.n	2121e <_ZN20complex_full_dynamic3app17h33da904aad648916E+0x8a>
   21206:	9c02      	ldr	r4, [sp, #8]
   21208:	6061      	str	r1, [r4, #4]
   2120a:	2601      	movs	r6, #1
   2120c:	7026      	strb	r6, [r4, #0]
   2120e:	a818      	add	r0, sp, #96	@ 0x60
   21210:	f005 fe82 	bl	26f18 <_ZN9allow_pin12full_dynamic17unshare_if_shared17hc627a04126f70c57E>
   21214:	a803      	add	r0, sp, #12
   21216:	f005 fe7f 	bl	26f18 <_ZN9allow_pin12full_dynamic17unshare_if_shared17hc627a04126f70c57E>
   2121a:	b01f      	add	sp, #124	@ 0x7c
   2121c:	bdf0      	pop	{r4, r5, r6, r7, pc}
   2121e:	a803      	add	r0, sp, #12
   21220:	f005 fe7a 	bl	26f18 <_ZN9allow_pin12full_dynamic17unshare_if_shared17hc627a04126f70c57E>
   21224:	ac18      	add	r4, sp, #96	@ 0x60
   21226:	4620      	mov	r0, r4
   21228:	f005 fe76 	bl	26f18 <_ZN9allow_pin12full_dynamic17unshare_if_shared17hc627a04126f70c57E>
   2122c:	4620      	mov	r0, r4
   2122e:	f005 fe73 	bl	26f18 <_ZN9allow_pin12full_dynamic17unshare_if_shared17hc627a04126f70c57E>
   21232:	9c02      	ldr	r4, [sp, #8]
   21234:	1c60      	adds	r0, r4, #1
   21236:	220f      	movs	r2, #15
   21238:	4629      	mov	r1, r5
   2123a:	f006 f82e 	bl	2729a <__aeabi_memcpy>
   2123e:	e7e5      	b.n	2120c <_ZN20complex_full_dynamic3app17h33da904aad648916E+0x78>
   21240:	0000111d 	.word	0x0000111d

00021244 <_ZN20complex_full_dynamic3app17h3603d88d0d17cb06E>:
   21244:	b5f0      	push	{r4, r5, r6, r7, lr}
   21246:	af03      	add	r7, sp, #12
   21248:	b0ab      	sub	sp, #172	@ 0xac
   2124a:	9002      	str	r0, [sp, #8]
   2124c:	ac03      	add	r4, sp, #12
   2124e:	2002      	movs	r0, #2
   21250:	9001      	str	r0, [sp, #4]
   21252:	7220      	strb	r0, [r4, #8]
   21254:	340c      	adds	r4, #12
   21256:	224f      	movs	r2, #79	@ 0x4f
   21258:	9200      	str	r2, [sp, #0]
   2125a:	4620      	mov	r0, r4
   2125c:	f006 f81d 	bl	2729a <__aeabi_memcpy>
   21260:	ae1a      	add	r6, sp, #104	@ 0x68
   21262:	4635      	mov	r5, r6
   21264:	350c      	adds	r5, #12
   21266:	2135      	movs	r1, #53	@ 0x35
   21268:	4628      	mov	r0, r5
   2126a:	f005 fe69 	bl	26f40 <__aeabi_memclr4>
   2126e:	9801      	ldr	r0, [sp, #4]
   21270:	7230      	strb	r0, [r6, #8]
   21272:	4820      	ldr	r0, [pc, #128]	@ (212f4 <_ZN20complex_full_dynamic3app17h3603d88d0d17cb06E+0xb0>)
   21274:	2607      	movs	r6, #7
   21276:	4631      	mov	r1, r6
   21278:	4622      	mov	r2, r4
   2127a:	9b00      	ldr	r3, [sp, #0]
   2127c:	df04      	svc	4
   2127e:	2802      	cmp	r0, #2
   21280:	d01a      	beq.n	212b8 <_ZN20complex_full_dynamic3app17h3603d88d0d17cb06E+0x74>
   21282:	a803      	add	r0, sp, #12
   21284:	2104      	movs	r1, #4
   21286:	7201      	strb	r1, [r0, #8]
   21288:	9604      	str	r6, [sp, #16]
   2128a:	4e1a      	ldr	r6, [pc, #104]	@ (212f4 <_ZN20complex_full_dynamic3app17h3603d88d0d17cb06E+0xb0>)
   2128c:	9603      	str	r6, [sp, #12]
   2128e:	2401      	movs	r4, #1
   21290:	2335      	movs	r3, #53	@ 0x35
   21292:	4630      	mov	r0, r6
   21294:	4621      	mov	r1, r4
   21296:	462a      	mov	r2, r5
   21298:	df03      	svc	3
   2129a:	2802      	cmp	r0, #2
   2129c:	d00c      	beq.n	212b8 <_ZN20complex_full_dynamic3app17h3603d88d0d17cb06E+0x74>
   2129e:	a81a      	add	r0, sp, #104	@ 0x68
   212a0:	2103      	movs	r1, #3
   212a2:	7201      	strb	r1, [r0, #8]
   212a4:	961a      	str	r6, [sp, #104]	@ 0x68
   212a6:	941b      	str	r4, [sp, #108]	@ 0x6c
   212a8:	4812      	ldr	r0, [pc, #72]	@ (212f4 <_ZN20complex_full_dynamic3app17h3603d88d0d17cb06E+0xb0>)
   212aa:	2107      	movs	r1, #7
   212ac:	2600      	movs	r6, #0
   212ae:	4622      	mov	r2, r4
   212b0:	4633      	mov	r3, r6
   212b2:	df02      	svc	2
   212b4:	287f      	cmp	r0, #127	@ 0x7f
   212b6:	d80b      	bhi.n	212d0 <_ZN20complex_full_dynamic3app17h3603d88d0d17cb06E+0x8c>
   212b8:	9c02      	ldr	r4, [sp, #8]
   212ba:	6061      	str	r1, [r4, #4]
   212bc:	2601      	movs	r6, #1
   212be:	7026      	strb	r6, [r4, #0]
   212c0:	a81a      	add	r0, sp, #104	@ 0x68
   212c2:	f005 fe29 	bl	26f18 <_ZN9allow_pin12full_dynamic17unshare_if_shared17hc627a04126f70c57E>
   212c6:	a803      	add	r0, sp, #12
   212c8:	f005 fe26 	bl	26f18 <_ZN9allow_pin12full_dynamic17unshare_if_shared17hc627a04126f70c57E>
   212cc:	b02b      	add	sp, #172	@ 0xac
   212ce:	bdf0      	pop	{r4, r5, r6, r7, pc}
   212d0:	a803      	add	r0, sp, #12
   212d2:	f005 fe21 	bl	26f18 <_ZN9allow_pin12full_dynamic17unshare_if_shared17hc627a04126f70c57E>
   212d6:	ac1a      	add	r4, sp, #104	@ 0x68
   212d8:	4620      	mov	r0, r4
   212da:	f005 fe1d 	bl	26f18 <_ZN9allow_pin12full_dynamic17unshare_if_shared17hc627a04126f70c57E>
   212de:	4620      	mov	r0, r4
   212e0:	f005 fe1a 	bl	26f18 <_ZN9allow_pin12full_dynamic17unshare_if_shared17hc627a04126f70c57E>
   212e4:	9c02      	ldr	r4, [sp, #8]
   212e6:	1c60      	adds	r0, r4, #1
   212e8:	2235      	movs	r2, #53	@ 0x35
   212ea:	4629      	mov	r1, r5
   212ec:	f005 ffd5 	bl	2729a <__aeabi_memcpy>
   212f0:	e7e5      	b.n	212be <_ZN20complex_full_dynamic3app17h3603d88d0d17cb06E+0x7a>
   212f2:	46c0      	nop			@ (mov r8, r8)
   212f4:	000016d7 	.word	0x000016d7

000212f8 <_ZN20complex_full_dynamic3app17h36a2c40858310ceaE>:
   212f8:	b5f0      	push	{r4, r5, r6, r7, lr}
   212fa:	af03      	add	r7, sp, #12
   212fc:	b0a1      	sub	sp, #132	@ 0x84
   212fe:	9002      	str	r0, [sp, #8]
   21300:	ac03      	add	r4, sp, #12
   21302:	2602      	movs	r6, #2
   21304:	7226      	strb	r6, [r4, #8]
   21306:	340c      	adds	r4, #12
   21308:	2238      	movs	r2, #56	@ 0x38
   2130a:	9201      	str	r2, [sp, #4]
   2130c:	4620      	mov	r0, r4
   2130e:	f005 ffc4 	bl	2729a <__aeabi_memcpy>
   21312:	ad14      	add	r5, sp, #80	@ 0x50
   21314:	4628      	mov	r0, r5
   21316:	300c      	adds	r0, #12
   21318:	2127      	movs	r1, #39	@ 0x27
   2131a:	9000      	str	r0, [sp, #0]
   2131c:	f005 fe10 	bl	26f40 <__aeabi_memclr4>
   21320:	722e      	strb	r6, [r5, #8]
   21322:	4635      	mov	r5, r6
   21324:	4e1f      	ldr	r6, [pc, #124]	@ (213a4 <_ZN20complex_full_dynamic3app17h36a2c40858310ceaE+0xac>)
   21326:	4630      	mov	r0, r6
   21328:	4629      	mov	r1, r5
   2132a:	4622      	mov	r2, r4
   2132c:	9b01      	ldr	r3, [sp, #4]
   2132e:	df04      	svc	4
   21330:	2802      	cmp	r0, #2
   21332:	d01a      	beq.n	2136a <_ZN20complex_full_dynamic3app17h36a2c40858310ceaE+0x72>
   21334:	a803      	add	r0, sp, #12
   21336:	2104      	movs	r1, #4
   21338:	7201      	strb	r1, [r0, #8]
   2133a:	9504      	str	r5, [sp, #16]
   2133c:	9603      	str	r6, [sp, #12]
   2133e:	2408      	movs	r4, #8
   21340:	2327      	movs	r3, #39	@ 0x27
   21342:	4630      	mov	r0, r6
   21344:	4621      	mov	r1, r4
   21346:	9d00      	ldr	r5, [sp, #0]
   21348:	462a      	mov	r2, r5
   2134a:	df03      	svc	3
   2134c:	2802      	cmp	r0, #2
   2134e:	d00c      	beq.n	2136a <_ZN20complex_full_dynamic3app17h36a2c40858310ceaE+0x72>
   21350:	a814      	add	r0, sp, #80	@ 0x50
   21352:	2103      	movs	r1, #3
   21354:	7201      	strb	r1, [r0, #8]
   21356:	9614      	str	r6, [sp, #80]	@ 0x50
   21358:	9415      	str	r4, [sp, #84]	@ 0x54
   2135a:	4812      	ldr	r0, [pc, #72]	@ (213a4 <_ZN20complex_full_dynamic3app17h36a2c40858310ceaE+0xac>)
   2135c:	2102      	movs	r1, #2
   2135e:	2600      	movs	r6, #0
   21360:	4622      	mov	r2, r4
   21362:	4633      	mov	r3, r6
   21364:	df02      	svc	2
   21366:	287f      	cmp	r0, #127	@ 0x7f
   21368:	d80b      	bhi.n	21382 <_ZN20complex_full_dynamic3app17h36a2c40858310ceaE+0x8a>
   2136a:	9c02      	ldr	r4, [sp, #8]
   2136c:	6061      	str	r1, [r4, #4]
   2136e:	2601      	movs	r6, #1
   21370:	7026      	strb	r6, [r4, #0]
   21372:	a814      	add	r0, sp, #80	@ 0x50
   21374:	f005 fdd0 	bl	26f18 <_ZN9allow_pin12full_dynamic17unshare_if_shared17hc627a04126f70c57E>
   21378:	a803      	add	r0, sp, #12
   2137a:	f005 fdcd 	bl	26f18 <_ZN9allow_pin12full_dynamic17unshare_if_shared17hc627a04126f70c57E>
   2137e:	b021      	add	sp, #132	@ 0x84
   21380:	bdf0      	pop	{r4, r5, r6, r7, pc}
   21382:	a803      	add	r0, sp, #12
   21384:	f005 fdc8 	bl	26f18 <_ZN9allow_pin12full_dynamic17unshare_if_shared17hc627a04126f70c57E>
   21388:	ac14      	add	r4, sp, #80	@ 0x50
   2138a:	4620      	mov	r0, r4
   2138c:	f005 fdc4 	bl	26f18 <_ZN9allow_pin12full_dynamic17unshare_if_shared17hc627a04126f70c57E>
   21390:	4620      	mov	r0, r4
   21392:	f005 fdc1 	bl	26f18 <_ZN9allow_pin12full_dynamic17unshare_if_shared17hc627a04126f70c57E>
   21396:	9c02      	ldr	r4, [sp, #8]
   21398:	1c60      	adds	r0, r4, #1
   2139a:	2227      	movs	r2, #39	@ 0x27
   2139c:	4629      	mov	r1, r5
   2139e:	f005 ff7c 	bl	2729a <__aeabi_memcpy>
   213a2:	e7e5      	b.n	21370 <_ZN20complex_full_dynamic3app17h36a2c40858310ceaE+0x78>
   213a4:	00000e2b 	.word	0x00000e2b

000213a8 <_ZN20complex_full_dynamic3app17h370104b626045ad7E>:
   213a8:	b5f0      	push	{r4, r5, r6, r7, lr}
   213aa:	af03      	add	r7, sp, #12
   213ac:	b0a5      	sub	sp, #148	@ 0x94
   213ae:	9001      	str	r0, [sp, #4]
   213b0:	ae02      	add	r6, sp, #8
   213b2:	2502      	movs	r5, #2
   213b4:	7235      	strb	r5, [r6, #8]
   213b6:	360c      	adds	r6, #12
   213b8:	225d      	movs	r2, #93	@ 0x5d
   213ba:	9200      	str	r2, [sp, #0]
   213bc:	4630      	mov	r0, r6
   213be:	f005 ff6c 	bl	2729a <__aeabi_memcpy>
   213c2:	a81d      	add	r0, sp, #116	@ 0x74
   213c4:	2400      	movs	r4, #0
   213c6:	8384      	strh	r4, [r0, #28]
   213c8:	7205      	strb	r5, [r0, #8]
   213ca:	4605      	mov	r5, r0
   213cc:	9423      	str	r4, [sp, #140]	@ 0x8c
   213ce:	9422      	str	r4, [sp, #136]	@ 0x88
   213d0:	9421      	str	r4, [sp, #132]	@ 0x84
   213d2:	9420      	str	r4, [sp, #128]	@ 0x80
   213d4:	481f      	ldr	r0, [pc, #124]	@ (21454 <_ZN20complex_full_dynamic3app17h370104b626045ad7E+0xac>)
   213d6:	4621      	mov	r1, r4
   213d8:	4632      	mov	r2, r6
   213da:	9b00      	ldr	r3, [sp, #0]
   213dc:	df04      	svc	4
   213de:	2802      	cmp	r0, #2
   213e0:	d01b      	beq.n	2141a <_ZN20complex_full_dynamic3app17h370104b626045ad7E+0x72>
   213e2:	350c      	adds	r5, #12
   213e4:	a802      	add	r0, sp, #8
   213e6:	2104      	movs	r1, #4
   213e8:	7201      	strb	r1, [r0, #8]
   213ea:	9403      	str	r4, [sp, #12]
   213ec:	4e19      	ldr	r6, [pc, #100]	@ (21454 <_ZN20complex_full_dynamic3app17h370104b626045ad7E+0xac>)
   213ee:	9602      	str	r6, [sp, #8]
   213f0:	2402      	movs	r4, #2
   213f2:	2312      	movs	r3, #18
   213f4:	4630      	mov	r0, r6
   213f6:	4621      	mov	r1, r4
   213f8:	462a      	mov	r2, r5
   213fa:	df03      	svc	3
   213fc:	2802      	cmp	r0, #2
   213fe:	d00c      	beq.n	2141a <_ZN20complex_full_dynamic3app17h370104b626045ad7E+0x72>
   21400:	a81d      	add	r0, sp, #116	@ 0x74
   21402:	2103      	movs	r1, #3
   21404:	7201      	strb	r1, [r0, #8]
   21406:	961d      	str	r6, [sp, #116]	@ 0x74
   21408:	941e      	str	r4, [sp, #120]	@ 0x78
   2140a:	4812      	ldr	r0, [pc, #72]	@ (21454 <_ZN20complex_full_dynamic3app17h370104b626045ad7E+0xac>)
   2140c:	2600      	movs	r6, #0
   2140e:	4631      	mov	r1, r6
   21410:	4622      	mov	r2, r4
   21412:	4633      	mov	r3, r6
   21414:	df02      	svc	2
   21416:	287f      	cmp	r0, #127	@ 0x7f
   21418:	d80b      	bhi.n	21432 <_ZN20complex_full_dynamic3app17h370104b626045ad7E+0x8a>
   2141a:	9c01      	ldr	r4, [sp, #4]
   2141c:	6061      	str	r1, [r4, #4]
   2141e:	2601      	movs	r6, #1
   21420:	7026      	strb	r6, [r4, #0]
   21422:	a81d      	add	r0, sp, #116	@ 0x74
   21424:	f005 fd78 	bl	26f18 <_ZN9allow_pin12full_dynamic17unshare_if_shared17hc627a04126f70c57E>
   21428:	a802      	add	r0, sp, #8
   2142a:	f005 fd75 	bl	26f18 <_ZN9allow_pin12full_dynamic17unshare_if_shared17hc627a04126f70c57E>
   2142e:	b025      	add	sp, #148	@ 0x94
   21430:	bdf0      	pop	{r4, r5, r6, r7, pc}
   21432:	a802      	add	r0, sp, #8
   21434:	f005 fd70 	bl	26f18 <_ZN9allow_pin12full_dynamic17unshare_if_shared17hc627a04126f70c57E>
   21438:	ac1d      	add	r4, sp, #116	@ 0x74
   2143a:	4620      	mov	r0, r4
   2143c:	f005 fd6c 	bl	26f18 <_ZN9allow_pin12full_dynamic17unshare_if_shared17hc627a04126f70c57E>
   21440:	4620      	mov	r0, r4
   21442:	f005 fd69 	bl	26f18 <_ZN9allow_pin12full_dynamic17unshare_if_shared17hc627a04126f70c57E>
   21446:	9c01      	ldr	r4, [sp, #4]
   21448:	1c60      	adds	r0, r4, #1
   2144a:	2212      	movs	r2, #18
   2144c:	4629      	mov	r1, r5
   2144e:	f005 ff24 	bl	2729a <__aeabi_memcpy>
   21452:	e7e5      	b.n	21420 <_ZN20complex_full_dynamic3app17h370104b626045ad7E+0x78>
   21454:	000015f1 	.word	0x000015f1

00021458 <_ZN20complex_full_dynamic3app17h373a8b69497078baE>:
   21458:	b5f0      	push	{r4, r5, r6, r7, lr}
   2145a:	af03      	add	r7, sp, #12
   2145c:	b0a5      	sub	sp, #148	@ 0x94
   2145e:	9003      	str	r0, [sp, #12]
   21460:	ac04      	add	r4, sp, #16
   21462:	2002      	movs	r0, #2
   21464:	9002      	str	r0, [sp, #8]
   21466:	7220      	strb	r0, [r4, #8]
   21468:	340c      	adds	r4, #12
   2146a:	221a      	movs	r2, #26
   2146c:	9201      	str	r2, [sp, #4]
   2146e:	4620      	mov	r0, r4
   21470:	f005 ff13 	bl	2729a <__aeabi_memcpy>
   21474:	ae0e      	add	r6, sp, #56	@ 0x38
   21476:	4635      	mov	r5, r6
   21478:	350c      	adds	r5, #12
   2147a:	2150      	movs	r1, #80	@ 0x50
   2147c:	4628      	mov	r0, r5
   2147e:	f005 fd5f 	bl	26f40 <__aeabi_memclr4>
   21482:	9802      	ldr	r0, [sp, #8]
   21484:	7230      	strb	r0, [r6, #8]
   21486:	481f      	ldr	r0, [pc, #124]	@ (21504 <_ZN20complex_full_dynamic3app17h373a8b69497078baE+0xac>)
   21488:	2607      	movs	r6, #7
   2148a:	4631      	mov	r1, r6
   2148c:	4622      	mov	r2, r4
   2148e:	9b01      	ldr	r3, [sp, #4]
   21490:	df04      	svc	4
   21492:	2802      	cmp	r0, #2
   21494:	d019      	beq.n	214ca <_ZN20complex_full_dynamic3app17h373a8b69497078baE+0x72>
   21496:	a804      	add	r0, sp, #16
   21498:	2404      	movs	r4, #4
   2149a:	7204      	strb	r4, [r0, #8]
   2149c:	9605      	str	r6, [sp, #20]
   2149e:	4e19      	ldr	r6, [pc, #100]	@ (21504 <_ZN20complex_full_dynamic3app17h373a8b69497078baE+0xac>)
   214a0:	9604      	str	r6, [sp, #16]
   214a2:	2350      	movs	r3, #80	@ 0x50
   214a4:	4630      	mov	r0, r6
   214a6:	4621      	mov	r1, r4
   214a8:	462a      	mov	r2, r5
   214aa:	df03      	svc	3
   214ac:	2802      	cmp	r0, #2
   214ae:	d00c      	beq.n	214ca <_ZN20complex_full_dynamic3app17h373a8b69497078baE+0x72>
   214b0:	a80e      	add	r0, sp, #56	@ 0x38
   214b2:	2103      	movs	r1, #3
   214b4:	7201      	strb	r1, [r0, #8]
   214b6:	960e      	str	r6, [sp, #56]	@ 0x38
   214b8:	940f      	str	r4, [sp, #60]	@ 0x3c
   214ba:	4812      	ldr	r0, [pc, #72]	@ (21504 <_ZN20complex_full_dynamic3app17h373a8b69497078baE+0xac>)
   214bc:	2107      	movs	r1, #7
   214be:	2600      	movs	r6, #0
   214c0:	4622      	mov	r2, r4
   214c2:	4633      	mov	r3, r6
   214c4:	df02      	svc	2
   214c6:	287f      	cmp	r0, #127	@ 0x7f
   214c8:	d80b      	bhi.n	214e2 <_ZN20complex_full_dynamic3app17h373a8b69497078baE+0x8a>
   214ca:	9c03      	ldr	r4, [sp, #12]
   214cc:	6061      	str	r1, [r4, #4]
   214ce:	2601      	movs	r6, #1
   214d0:	7026      	strb	r6, [r4, #0]
   214d2:	a80e      	add	r0, sp, #56	@ 0x38
   214d4:	f005 fd20 	bl	26f18 <_ZN9allow_pin12full_dynamic17unshare_if_shared17hc627a04126f70c57E>
   214d8:	a804      	add	r0, sp, #16
   214da:	f005 fd1d 	bl	26f18 <_ZN9allow_pin12full_dynamic17unshare_if_shared17hc627a04126f70c57E>
   214de:	b025      	add	sp, #148	@ 0x94
   214e0:	bdf0      	pop	{r4, r5, r6, r7, pc}
   214e2:	a804      	add	r0, sp, #16
   214e4:	f005 fd18 	bl	26f18 <_ZN9allow_pin12full_dynamic17unshare_if_shared17hc627a04126f70c57E>
   214e8:	ac0e      	add	r4, sp, #56	@ 0x38
   214ea:	4620      	mov	r0, r4
   214ec:	f005 fd14 	bl	26f18 <_ZN9allow_pin12full_dynamic17unshare_if_shared17hc627a04126f70c57E>
   214f0:	4620      	mov	r0, r4
   214f2:	f005 fd11 	bl	26f18 <_ZN9allow_pin12full_dynamic17unshare_if_shared17hc627a04126f70c57E>
   214f6:	9c03      	ldr	r4, [sp, #12]
   214f8:	1c60      	adds	r0, r4, #1
   214fa:	2250      	movs	r2, #80	@ 0x50
   214fc:	4629      	mov	r1, r5
   214fe:	f005 fecc 	bl	2729a <__aeabi_memcpy>
   21502:	e7e5      	b.n	214d0 <_ZN20complex_full_dynamic3app17h373a8b69497078baE+0x78>
   21504:	00000aee 	.word	0x00000aee

00021508 <_ZN20complex_full_dynamic3app17h3949df2e5913a101E>:
   21508:	b5f0      	push	{r4, r5, r6, r7, lr}
   2150a:	af03      	add	r7, sp, #12
   2150c:	b09d      	sub	sp, #116	@ 0x74
   2150e:	9001      	str	r0, [sp, #4]
   21510:	ac02      	add	r4, sp, #8
   21512:	2502      	movs	r5, #2
   21514:	7225      	strb	r5, [r4, #8]
   21516:	340c      	adds	r4, #12
   21518:	223f      	movs	r2, #63	@ 0x3f
   2151a:	9200      	str	r2, [sp, #0]
   2151c:	4620      	mov	r0, r4
   2151e:	f005 febc 	bl	2729a <__aeabi_memcpy>
   21522:	ae15      	add	r6, sp, #84	@ 0x54
   21524:	2000      	movs	r0, #0
   21526:	7730      	strb	r0, [r6, #28]
   21528:	7235      	strb	r5, [r6, #8]
   2152a:	901b      	str	r0, [sp, #108]	@ 0x6c
   2152c:	901a      	str	r0, [sp, #104]	@ 0x68
   2152e:	9019      	str	r0, [sp, #100]	@ 0x64
   21530:	9018      	str	r0, [sp, #96]	@ 0x60
   21532:	481f      	ldr	r0, [pc, #124]	@ (215b0 <_ZN20complex_full_dynamic3app17h3949df2e5913a101E+0xa8>)
   21534:	2504      	movs	r5, #4
   21536:	4629      	mov	r1, r5
   21538:	4622      	mov	r2, r4
   2153a:	9b00      	ldr	r3, [sp, #0]
   2153c:	df04      	svc	4
   2153e:	2802      	cmp	r0, #2
   21540:	d019      	beq.n	21576 <_ZN20complex_full_dynamic3app17h3949df2e5913a101E+0x6e>
   21542:	360c      	adds	r6, #12
   21544:	a802      	add	r0, sp, #8
   21546:	7205      	strb	r5, [r0, #8]
   21548:	9503      	str	r5, [sp, #12]
   2154a:	4819      	ldr	r0, [pc, #100]	@ (215b0 <_ZN20complex_full_dynamic3app17h3949df2e5913a101E+0xa8>)
   2154c:	9002      	str	r0, [sp, #8]
   2154e:	2403      	movs	r4, #3
   21550:	2311      	movs	r3, #17
   21552:	4621      	mov	r1, r4
   21554:	4632      	mov	r2, r6
   21556:	df03      	svc	3
   21558:	2802      	cmp	r0, #2
   2155a:	d00c      	beq.n	21576 <_ZN20complex_full_dynamic3app17h3949df2e5913a101E+0x6e>
   2155c:	4635      	mov	r5, r6
   2155e:	a815      	add	r0, sp, #84	@ 0x54
   21560:	7204      	strb	r4, [r0, #8]
   21562:	9416      	str	r4, [sp, #88]	@ 0x58
   21564:	4812      	ldr	r0, [pc, #72]	@ (215b0 <_ZN20complex_full_dynamic3app17h3949df2e5913a101E+0xa8>)
   21566:	9015      	str	r0, [sp, #84]	@ 0x54
   21568:	2104      	movs	r1, #4
   2156a:	2600      	movs	r6, #0
   2156c:	4622      	mov	r2, r4
   2156e:	4633      	mov	r3, r6
   21570:	df02      	svc	2
   21572:	287f      	cmp	r0, #127	@ 0x7f
   21574:	d80b      	bhi.n	2158e <_ZN20complex_full_dynamic3app17h3949df2e5913a101E+0x86>
   21576:	9c01      	ldr	r4, [sp, #4]
   21578:	6061      	str	r1, [r4, #4]
   2157a:	2601      	movs	r6, #1
   2157c:	7026      	strb	r6, [r4, #0]
   2157e:	a815      	add	r0, sp, #84	@ 0x54
   21580:	f005 fcca 	bl	26f18 <_ZN9allow_pin12full_dynamic17unshare_if_shared17hc627a04126f70c57E>
   21584:	a802      	add	r0, sp, #8
   21586:	f005 fcc7 	bl	26f18 <_ZN9allow_pin12full_dynamic17unshare_if_shared17hc627a04126f70c57E>
   2158a:	b01d      	add	sp, #116	@ 0x74
   2158c:	bdf0      	pop	{r4, r5, r6, r7, pc}
   2158e:	a802      	add	r0, sp, #8
   21590:	f005 fcc2 	bl	26f18 <_ZN9allow_pin12full_dynamic17unshare_if_shared17hc627a04126f70c57E>
   21594:	ac15      	add	r4, sp, #84	@ 0x54
   21596:	4620      	mov	r0, r4
   21598:	f005 fcbe 	bl	26f18 <_ZN9allow_pin12full_dynamic17unshare_if_shared17hc627a04126f70c57E>
   2159c:	4620      	mov	r0, r4
   2159e:	f005 fcbb 	bl	26f18 <_ZN9allow_pin12full_dynamic17unshare_if_shared17hc627a04126f70c57E>
   215a2:	9c01      	ldr	r4, [sp, #4]
   215a4:	1c60      	adds	r0, r4, #1
   215a6:	2211      	movs	r2, #17
   215a8:	4629      	mov	r1, r5
   215aa:	f005 fe76 	bl	2729a <__aeabi_memcpy>
   215ae:	e7e5      	b.n	2157c <_ZN20complex_full_dynamic3app17h3949df2e5913a101E+0x74>
   215b0:	000014d7 	.word	0x000014d7

000215b4 <_ZN20complex_full_dynamic3app17h44c00afd010d0f94E>:
   215b4:	b5f0      	push	{r4, r5, r6, r7, lr}
   215b6:	af03      	add	r7, sp, #12
   215b8:	b0ab      	sub	sp, #172	@ 0xac
   215ba:	9003      	str	r0, [sp, #12]
   215bc:	ae04      	add	r6, sp, #16
   215be:	2402      	movs	r4, #2
   215c0:	7234      	strb	r4, [r6, #8]
   215c2:	360c      	adds	r6, #12
   215c4:	2261      	movs	r2, #97	@ 0x61
   215c6:	9202      	str	r2, [sp, #8]
   215c8:	4630      	mov	r0, r6
   215ca:	f005 fe66 	bl	2729a <__aeabi_memcpy>
   215ce:	ad20      	add	r5, sp, #128	@ 0x80
   215d0:	2000      	movs	r0, #0
   215d2:	8528      	strh	r0, [r5, #40]	@ 0x28
   215d4:	722c      	strb	r4, [r5, #8]
   215d6:	9029      	str	r0, [sp, #164]	@ 0xa4
   215d8:	9028      	str	r0, [sp, #160]	@ 0xa0
   215da:	9027      	str	r0, [sp, #156]	@ 0x9c
   215dc:	9026      	str	r0, [sp, #152]	@ 0x98
   215de:	9025      	str	r0, [sp, #148]	@ 0x94
   215e0:	9024      	str	r0, [sp, #144]	@ 0x90
   215e2:	9023      	str	r0, [sp, #140]	@ 0x8c
   215e4:	2031      	movs	r0, #49	@ 0x31
   215e6:	00c0      	lsls	r0, r0, #3
   215e8:	2404      	movs	r4, #4
   215ea:	9001      	str	r0, [sp, #4]
   215ec:	4621      	mov	r1, r4
   215ee:	4632      	mov	r2, r6
   215f0:	9b02      	ldr	r3, [sp, #8]
   215f2:	df04      	svc	4
   215f4:	2802      	cmp	r0, #2
   215f6:	d019      	beq.n	2162c <_ZN20complex_full_dynamic3app17h44c00afd010d0f94E+0x78>
   215f8:	350c      	adds	r5, #12
   215fa:	a804      	add	r0, sp, #16
   215fc:	7204      	strb	r4, [r0, #8]
   215fe:	9405      	str	r4, [sp, #20]
   21600:	9801      	ldr	r0, [sp, #4]
   21602:	9004      	str	r0, [sp, #16]
   21604:	2406      	movs	r4, #6
   21606:	231e      	movs	r3, #30
   21608:	4621      	mov	r1, r4
   2160a:	462a      	mov	r2, r5
   2160c:	df03      	svc	3
   2160e:	2802      	cmp	r0, #2
   21610:	d00c      	beq.n	2162c <_ZN20complex_full_dynamic3app17h44c00afd010d0f94E+0x78>
   21612:	a820      	add	r0, sp, #128	@ 0x80
   21614:	2103      	movs	r1, #3
   21616:	7201      	strb	r1, [r0, #8]
   21618:	9801      	ldr	r0, [sp, #4]
   2161a:	9020      	str	r0, [sp, #128]	@ 0x80
   2161c:	9421      	str	r4, [sp, #132]	@ 0x84
   2161e:	2104      	movs	r1, #4
   21620:	2600      	movs	r6, #0
   21622:	4622      	mov	r2, r4
   21624:	4633      	mov	r3, r6
   21626:	df02      	svc	2
   21628:	287f      	cmp	r0, #127	@ 0x7f
   2162a:	d80b      	bhi.n	21644 <_ZN20complex_full_dynamic3app17h44c00afd010d0f94E+0x90>
   2162c:	9c03      	ldr	r4, [sp, #12]
   2162e:	6061      	str	r1, [r4, #4]
   21630:	2601      	movs	r6, #1
   21632:	7026      	strb	r6, [r4, #0]
   21634:	a820      	add	r0, sp, #128	@ 0x80
   21636:	f005 fc6f 	bl	26f18 <_ZN9allow_pin12full_dynamic17unshare_if_shared17hc627a04126f70c57E>
   2163a:	a804      	add	r0, sp, #16
   2163c:	f005 fc6c 	bl	26f18 <_ZN9allow_pin12full_dynamic17unshare_if_shared17hc627a04126f70c57E>
   21640:	b02b      	add	sp, #172	@ 0xac
   21642:	bdf0      	pop	{r4, r5, r6, r7, pc}
   21644:	a804      	add	r0, sp, #16
   21646:	f005 fc67 	bl	26f18 <_ZN9allow_pin12full_dynamic17unshare_if_shared17hc627a04126f70c57E>
   2164a:	ac20      	add	r4, sp, #128	@ 0x80
   2164c:	4620      	mov	r0, r4
   2164e:	f005 fc63 	bl	26f18 <_ZN9allow_pin12full_dynamic17unshare_if_shared17hc627a04126f70c57E>
   21652:	4620      	mov	r0, r4
   21654:	f005 fc60 	bl	26f18 <_ZN9allow_pin12full_dynamic17unshare_if_shared17hc627a04126f70c57E>
   21658:	9c03      	ldr	r4, [sp, #12]
   2165a:	1c60      	adds	r0, r4, #1
   2165c:	221e      	movs	r2, #30
   2165e:	4629      	mov	r1, r5
   21660:	f005 fe1b 	bl	2729a <__aeabi_memcpy>
   21664:	e7e5      	b.n	21632 <_ZN20complex_full_dynamic3app17h44c00afd010d0f94E+0x7e>
   21666:	d4d4      	bmi.n	21612 <_ZN20complex_full_dynamic3app17h44c00afd010d0f94E+0x5e>

00021668 <_ZN20complex_full_dynamic3app17h4a13520f538cecb3E>:
   21668:	b5f0      	push	{r4, r5, r6, r7, lr}
   2166a:	af03      	add	r7, sp, #12
   2166c:	b0b1      	sub	sp, #196	@ 0xc4
   2166e:	9002      	str	r0, [sp, #8]
   21670:	ac03      	add	r4, sp, #12
   21672:	2002      	movs	r0, #2
   21674:	9001      	str	r0, [sp, #4]
   21676:	7220      	strb	r0, [r4, #8]
   21678:	340c      	adds	r4, #12
   2167a:	2246      	movs	r2, #70	@ 0x46
   2167c:	9200      	str	r2, [sp, #0]
   2167e:	4620      	mov	r0, r4
   21680:	f005 fe0b 	bl	2729a <__aeabi_memcpy>
   21684:	ae18      	add	r6, sp, #96	@ 0x60
   21686:	4635      	mov	r5, r6
   21688:	350c      	adds	r5, #12
   2168a:	2156      	movs	r1, #86	@ 0x56
   2168c:	4628      	mov	r0, r5
   2168e:	f005 fc57 	bl	26f40 <__aeabi_memclr4>
   21692:	9801      	ldr	r0, [sp, #4]
   21694:	7230      	strb	r0, [r6, #8]
   21696:	481f      	ldr	r0, [pc, #124]	@ (21714 <_ZN20complex_full_dynamic3app17h4a13520f538cecb3E+0xac>)
   21698:	2607      	movs	r6, #7
   2169a:	4631      	mov	r1, r6
   2169c:	4622      	mov	r2, r4
   2169e:	9b00      	ldr	r3, [sp, #0]
   216a0:	df04      	svc	4
   216a2:	2802      	cmp	r0, #2
   216a4:	d019      	beq.n	216da <_ZN20complex_full_dynamic3app17h4a13520f538cecb3E+0x72>
   216a6:	a803      	add	r0, sp, #12
   216a8:	2104      	movs	r1, #4
   216aa:	7201      	strb	r1, [r0, #8]
   216ac:	9604      	str	r6, [sp, #16]
   216ae:	4e19      	ldr	r6, [pc, #100]	@ (21714 <_ZN20complex_full_dynamic3app17h4a13520f538cecb3E+0xac>)
   216b0:	9603      	str	r6, [sp, #12]
   216b2:	2403      	movs	r4, #3
   216b4:	2356      	movs	r3, #86	@ 0x56
   216b6:	4630      	mov	r0, r6
   216b8:	4621      	mov	r1, r4
   216ba:	462a      	mov	r2, r5
   216bc:	df03      	svc	3
   216be:	2802      	cmp	r0, #2
   216c0:	d00b      	beq.n	216da <_ZN20complex_full_dynamic3app17h4a13520f538cecb3E+0x72>
   216c2:	a818      	add	r0, sp, #96	@ 0x60
   216c4:	7204      	strb	r4, [r0, #8]
   216c6:	9419      	str	r4, [sp, #100]	@ 0x64
   216c8:	9618      	str	r6, [sp, #96]	@ 0x60
   216ca:	4812      	ldr	r0, [pc, #72]	@ (21714 <_ZN20complex_full_dynamic3app17h4a13520f538cecb3E+0xac>)
   216cc:	2107      	movs	r1, #7
   216ce:	2600      	movs	r6, #0
   216d0:	4622      	mov	r2, r4
   216d2:	4633      	mov	r3, r6
   216d4:	df02      	svc	2
   216d6:	287f      	cmp	r0, #127	@ 0x7f
   216d8:	d80b      	bhi.n	216f2 <_ZN20complex_full_dynamic3app17h4a13520f538cecb3E+0x8a>
   216da:	9c02      	ldr	r4, [sp, #8]
   216dc:	6061      	str	r1, [r4, #4]
   216de:	2601      	movs	r6, #1
   216e0:	7026      	strb	r6, [r4, #0]
   216e2:	a818      	add	r0, sp, #96	@ 0x60
   216e4:	f005 fc18 	bl	26f18 <_ZN9allow_pin12full_dynamic17unshare_if_shared17hc627a04126f70c57E>
   216e8:	a803      	add	r0, sp, #12
   216ea:	f005 fc15 	bl	26f18 <_ZN9allow_pin12full_dynamic17unshare_if_shared17hc627a04126f70c57E>
   216ee:	b031      	add	sp, #196	@ 0xc4
   216f0:	bdf0      	pop	{r4, r5, r6, r7, pc}
   216f2:	a803      	add	r0, sp, #12
   216f4:	f005 fc10 	bl	26f18 <_ZN9allow_pin12full_dynamic17unshare_if_shared17hc627a04126f70c57E>
   216f8:	ac18      	add	r4, sp, #96	@ 0x60
   216fa:	4620      	mov	r0, r4
   216fc:	f005 fc0c 	bl	26f18 <_ZN9allow_pin12full_dynamic17unshare_if_shared17hc627a04126f70c57E>
   21700:	4620      	mov	r0, r4
   21702:	f005 fc09 	bl	26f18 <_ZN9allow_pin12full_dynamic17unshare_if_shared17hc627a04126f70c57E>
   21706:	9c02      	ldr	r4, [sp, #8]
   21708:	1c60      	adds	r0, r4, #1
   2170a:	2256      	movs	r2, #86	@ 0x56
   2170c:	4629      	mov	r1, r5
   2170e:	f005 fdc4 	bl	2729a <__aeabi_memcpy>
   21712:	e7e5      	b.n	216e0 <_ZN20complex_full_dynamic3app17h4a13520f538cecb3E+0x78>
   21714:	00001e50 	.word	0x00001e50

00021718 <_ZN20complex_full_dynamic3app17h4afe455b9fb9ced3E>:
   21718:	b5f0      	push	{r4, r5, r6, r7, lr}
   2171a:	af03      	add	r7, sp, #12
   2171c:	b0ab      	sub	sp, #172	@ 0xac
   2171e:	9002      	str	r0, [sp, #8]
   21720:	ac03      	add	r4, sp, #12
   21722:	2002      	movs	r0, #2
   21724:	9001      	str	r0, [sp, #4]
   21726:	7220      	strb	r0, [r4, #8]
   21728:	340c      	adds	r4, #12
   2172a:	222a      	movs	r2, #42	@ 0x2a
   2172c:	9200      	str	r2, [sp, #0]
   2172e:	4620      	mov	r0, r4
   21730:	f005 fdb3 	bl	2729a <__aeabi_memcpy>
   21734:	ae11      	add	r6, sp, #68	@ 0x44
   21736:	4635      	mov	r5, r6
   21738:	350c      	adds	r5, #12
   2173a:	2159      	movs	r1, #89	@ 0x59
   2173c:	4628      	mov	r0, r5
   2173e:	f005 fbff 	bl	26f40 <__aeabi_memclr4>
   21742:	9801      	ldr	r0, [sp, #4]
   21744:	7230      	strb	r0, [r6, #8]
   21746:	481f      	ldr	r0, [pc, #124]	@ (217c4 <_ZN20complex_full_dynamic3app17h4afe455b9fb9ced3E+0xac>)
   21748:	2601      	movs	r6, #1
   2174a:	4631      	mov	r1, r6
   2174c:	4622      	mov	r2, r4
   2174e:	9b00      	ldr	r3, [sp, #0]
   21750:	df04      	svc	4
   21752:	2802      	cmp	r0, #2
   21754:	d018      	beq.n	21788 <_ZN20complex_full_dynamic3app17h4afe455b9fb9ced3E+0x70>
   21756:	a803      	add	r0, sp, #12
   21758:	2104      	movs	r1, #4
   2175a:	7201      	strb	r1, [r0, #8]
   2175c:	9604      	str	r6, [sp, #16]
   2175e:	4819      	ldr	r0, [pc, #100]	@ (217c4 <_ZN20complex_full_dynamic3app17h4afe455b9fb9ced3E+0xac>)
   21760:	9003      	str	r0, [sp, #12]
   21762:	2403      	movs	r4, #3
   21764:	2359      	movs	r3, #89	@ 0x59
   21766:	4621      	mov	r1, r4
   21768:	462a      	mov	r2, r5
   2176a:	df03      	svc	3
   2176c:	2802      	cmp	r0, #2
   2176e:	d00b      	beq.n	21788 <_ZN20complex_full_dynamic3app17h4afe455b9fb9ced3E+0x70>
   21770:	a811      	add	r0, sp, #68	@ 0x44
   21772:	7204      	strb	r4, [r0, #8]
   21774:	9412      	str	r4, [sp, #72]	@ 0x48
   21776:	4813      	ldr	r0, [pc, #76]	@ (217c4 <_ZN20complex_full_dynamic3app17h4afe455b9fb9ced3E+0xac>)
   21778:	9011      	str	r0, [sp, #68]	@ 0x44
   2177a:	2101      	movs	r1, #1
   2177c:	2300      	movs	r3, #0
   2177e:	4622      	mov	r2, r4
   21780:	9301      	str	r3, [sp, #4]
   21782:	df02      	svc	2
   21784:	287f      	cmp	r0, #127	@ 0x7f
   21786:	d80a      	bhi.n	2179e <_ZN20complex_full_dynamic3app17h4afe455b9fb9ced3E+0x86>
   21788:	9c02      	ldr	r4, [sp, #8]
   2178a:	6061      	str	r1, [r4, #4]
   2178c:	7026      	strb	r6, [r4, #0]
   2178e:	a811      	add	r0, sp, #68	@ 0x44
   21790:	f005 fbc2 	bl	26f18 <_ZN9allow_pin12full_dynamic17unshare_if_shared17hc627a04126f70c57E>
   21794:	a803      	add	r0, sp, #12
   21796:	f005 fbbf 	bl	26f18 <_ZN9allow_pin12full_dynamic17unshare_if_shared17hc627a04126f70c57E>
   2179a:	b02b      	add	sp, #172	@ 0xac
   2179c:	bdf0      	pop	{r4, r5, r6, r7, pc}
   2179e:	a803      	add	r0, sp, #12
   217a0:	f005 fbba 	bl	26f18 <_ZN9allow_pin12full_dynamic17unshare_if_shared17hc627a04126f70c57E>
   217a4:	ac11      	add	r4, sp, #68	@ 0x44
   217a6:	4620      	mov	r0, r4
   217a8:	f005 fbb6 	bl	26f18 <_ZN9allow_pin12full_dynamic17unshare_if_shared17hc627a04126f70c57E>
   217ac:	4620      	mov	r0, r4
   217ae:	f005 fbb3 	bl	26f18 <_ZN9allow_pin12full_dynamic17unshare_if_shared17hc627a04126f70c57E>
   217b2:	9c02      	ldr	r4, [sp, #8]
   217b4:	1c60      	adds	r0, r4, #1
   217b6:	2259      	movs	r2, #89	@ 0x59
   217b8:	4629      	mov	r1, r5
   217ba:	f005 fd6e 	bl	2729a <__aeabi_memcpy>
   217be:	9e01      	ldr	r6, [sp, #4]
   217c0:	e7e4      	b.n	2178c <_ZN20complex_full_dynamic3app17h4afe455b9fb9ced3E+0x74>
   217c2:	46c0      	nop			@ (mov r8, r8)
   217c4:	00000ed2 	.word	0x00000ed2

000217c8 <_ZN20complex_full_dynamic3app17h4d55beb34658154bE>:
   217c8:	b5f0      	push	{r4, r5, r6, r7, lr}
   217ca:	af03      	add	r7, sp, #12
   217cc:	b0a7      	sub	sp, #156	@ 0x9c
   217ce:	9002      	str	r0, [sp, #8]
   217d0:	ae03      	add	r6, sp, #12
   217d2:	2002      	movs	r0, #2
   217d4:	9001      	str	r0, [sp, #4]
   217d6:	7230      	strb	r0, [r6, #8]
   217d8:	360c      	adds	r6, #12
   217da:	2227      	movs	r2, #39	@ 0x27
   217dc:	9200      	str	r2, [sp, #0]
   217de:	4630      	mov	r0, r6
   217e0:	f005 fd5b 	bl	2729a <__aeabi_memcpy>
   217e4:	ac10      	add	r4, sp, #64	@ 0x40
   217e6:	4625      	mov	r5, r4
   217e8:	350c      	adds	r5, #12
   217ea:	214f      	movs	r1, #79	@ 0x4f
   217ec:	4628      	mov	r0, r5
   217ee:	f005 fba7 	bl	26f40 <__aeabi_memclr4>
   217f2:	9801      	ldr	r0, [sp, #4]
   217f4:	7220      	strb	r0, [r4, #8]
   217f6:	481f      	ldr	r0, [pc, #124]	@ (21874 <_ZN20complex_full_dynamic3app17h4d55beb34658154bE+0xac>)
   217f8:	2409      	movs	r4, #9
   217fa:	4621      	mov	r1, r4
   217fc:	4632      	mov	r2, r6
   217fe:	9b00      	ldr	r3, [sp, #0]
   21800:	df04      	svc	4
   21802:	2802      	cmp	r0, #2
   21804:	d019      	beq.n	2183a <_ZN20complex_full_dynamic3app17h4d55beb34658154bE+0x72>
   21806:	a803      	add	r0, sp, #12
   21808:	2104      	movs	r1, #4
   2180a:	7201      	strb	r1, [r0, #8]
   2180c:	9404      	str	r4, [sp, #16]
   2180e:	4c19      	ldr	r4, [pc, #100]	@ (21874 <_ZN20complex_full_dynamic3app17h4d55beb34658154bE+0xac>)
   21810:	9403      	str	r4, [sp, #12]
   21812:	2600      	movs	r6, #0
   21814:	234f      	movs	r3, #79	@ 0x4f
   21816:	4620      	mov	r0, r4
   21818:	4631      	mov	r1, r6
   2181a:	462a      	mov	r2, r5
   2181c:	df03      	svc	3
   2181e:	2802      	cmp	r0, #2
   21820:	d00b      	beq.n	2183a <_ZN20complex_full_dynamic3app17h4d55beb34658154bE+0x72>
   21822:	a810      	add	r0, sp, #64	@ 0x40
   21824:	2103      	movs	r1, #3
   21826:	7201      	strb	r1, [r0, #8]
   21828:	9410      	str	r4, [sp, #64]	@ 0x40
   2182a:	9611      	str	r6, [sp, #68]	@ 0x44
   2182c:	4811      	ldr	r0, [pc, #68]	@ (21874 <_ZN20complex_full_dynamic3app17h4d55beb34658154bE+0xac>)
   2182e:	2109      	movs	r1, #9
   21830:	4632      	mov	r2, r6
   21832:	4633      	mov	r3, r6
   21834:	df02      	svc	2
   21836:	287f      	cmp	r0, #127	@ 0x7f
   21838:	d80b      	bhi.n	21852 <_ZN20complex_full_dynamic3app17h4d55beb34658154bE+0x8a>
   2183a:	9c02      	ldr	r4, [sp, #8]
   2183c:	6061      	str	r1, [r4, #4]
   2183e:	2601      	movs	r6, #1
   21840:	7026      	strb	r6, [r4, #0]
   21842:	a810      	add	r0, sp, #64	@ 0x40
   21844:	f005 fb68 	bl	26f18 <_ZN9allow_pin12full_dynamic17unshare_if_shared17hc627a04126f70c57E>
   21848:	a803      	add	r0, sp, #12
   2184a:	f005 fb65 	bl	26f18 <_ZN9allow_pin12full_dynamic17unshare_if_shared17hc627a04126f70c57E>
   2184e:	b027      	add	sp, #156	@ 0x9c
   21850:	bdf0      	pop	{r4, r5, r6, r7, pc}
   21852:	a803      	add	r0, sp, #12
   21854:	f005 fb60 	bl	26f18 <_ZN9allow_pin12full_dynamic17unshare_if_shared17hc627a04126f70c57E>
   21858:	ac10      	add	r4, sp, #64	@ 0x40
   2185a:	4620      	mov	r0, r4
   2185c:	f005 fb5c 	bl	26f18 <_ZN9allow_pin12full_dynamic17unshare_if_shared17hc627a04126f70c57E>
   21860:	4620      	mov	r0, r4
   21862:	f005 fb59 	bl	26f18 <_ZN9allow_pin12full_dynamic17unshare_if_shared17hc627a04126f70c57E>
   21866:	9c02      	ldr	r4, [sp, #8]
   21868:	1c60      	adds	r0, r4, #1
   2186a:	224f      	movs	r2, #79	@ 0x4f
   2186c:	4629      	mov	r1, r5
   2186e:	f005 fd14 	bl	2729a <__aeabi_memcpy>
   21872:	e7e5      	b.n	21840 <_ZN20complex_full_dynamic3app17h4d55beb34658154bE+0x78>
   21874:	00000b4c 	.word	0x00000b4c

00021878 <_ZN20complex_full_dynamic3app17h51c8bc7875e83086E>:
   21878:	b5f0      	push	{r4, r5, r6, r7, lr}
   2187a:	af03      	add	r7, sp, #12
   2187c:	b0a9      	sub	sp, #164	@ 0xa4
   2187e:	9002      	str	r0, [sp, #8]
   21880:	ae03      	add	r6, sp, #12
   21882:	2002      	movs	r0, #2
   21884:	9001      	str	r0, [sp, #4]
   21886:	7230      	strb	r0, [r6, #8]
   21888:	360c      	adds	r6, #12
   2188a:	221b      	movs	r2, #27
   2188c:	9200      	str	r2, [sp, #0]
   2188e:	4630      	mov	r0, r6
   21890:	f005 fd03 	bl	2729a <__aeabi_memcpy>
   21894:	ad0d      	add	r5, sp, #52	@ 0x34
   21896:	462c      	mov	r4, r5
   21898:	340c      	adds	r4, #12
   2189a:	2163      	movs	r1, #99	@ 0x63
   2189c:	4620      	mov	r0, r4
   2189e:	f005 fb4f 	bl	26f40 <__aeabi_memclr4>
   218a2:	9801      	ldr	r0, [sp, #4]
   218a4:	7228      	strb	r0, [r5, #8]
   218a6:	481f      	ldr	r0, [pc, #124]	@ (21924 <_ZN20complex_full_dynamic3app17h51c8bc7875e83086E+0xac>)
   218a8:	2503      	movs	r5, #3
   218aa:	4629      	mov	r1, r5
   218ac:	4632      	mov	r2, r6
   218ae:	9b00      	ldr	r3, [sp, #0]
   218b0:	df04      	svc	4
   218b2:	2802      	cmp	r0, #2
   218b4:	d018      	beq.n	218e8 <_ZN20complex_full_dynamic3app17h51c8bc7875e83086E+0x70>
   218b6:	a803      	add	r0, sp, #12
   218b8:	2104      	movs	r1, #4
   218ba:	7201      	strb	r1, [r0, #8]
   218bc:	4e19      	ldr	r6, [pc, #100]	@ (21924 <_ZN20complex_full_dynamic3app17h51c8bc7875e83086E+0xac>)
   218be:	9603      	str	r6, [sp, #12]
   218c0:	9504      	str	r5, [sp, #16]
   218c2:	2363      	movs	r3, #99	@ 0x63
   218c4:	4630      	mov	r0, r6
   218c6:	4629      	mov	r1, r5
   218c8:	4622      	mov	r2, r4
   218ca:	df03      	svc	3
   218cc:	2802      	cmp	r0, #2
   218ce:	d00b      	beq.n	218e8 <_ZN20complex_full_dynamic3app17h51c8bc7875e83086E+0x70>
   218d0:	a80d      	add	r0, sp, #52	@ 0x34
   218d2:	7205      	strb	r5, [r0, #8]
   218d4:	950e      	str	r5, [sp, #56]	@ 0x38
   218d6:	960d      	str	r6, [sp, #52]	@ 0x34
   218d8:	4812      	ldr	r0, [pc, #72]	@ (21924 <_ZN20complex_full_dynamic3app17h51c8bc7875e83086E+0xac>)
   218da:	2600      	movs	r6, #0
   218dc:	4629      	mov	r1, r5
   218de:	462a      	mov	r2, r5
   218e0:	4633      	mov	r3, r6
   218e2:	df02      	svc	2
   218e4:	287f      	cmp	r0, #127	@ 0x7f
   218e6:	d80b      	bhi.n	21900 <_ZN20complex_full_dynamic3app17h51c8bc7875e83086E+0x88>
   218e8:	9c02      	ldr	r4, [sp, #8]
   218ea:	6061      	str	r1, [r4, #4]
   218ec:	2601      	movs	r6, #1
   218ee:	7026      	strb	r6, [r4, #0]
   218f0:	a80d      	add	r0, sp, #52	@ 0x34
   218f2:	f005 fb11 	bl	26f18 <_ZN9allow_pin12full_dynamic17unshare_if_shared17hc627a04126f70c57E>
   218f6:	a803      	add	r0, sp, #12
   218f8:	f005 fb0e 	bl	26f18 <_ZN9allow_pin12full_dynamic17unshare_if_shared17hc627a04126f70c57E>
   218fc:	b029      	add	sp, #164	@ 0xa4
   218fe:	bdf0      	pop	{r4, r5, r6, r7, pc}
   21900:	a803      	add	r0, sp, #12
   21902:	f005 fb09 	bl	26f18 <_ZN9allow_pin12full_dynamic17unshare_if_shared17hc627a04126f70c57E>
   21906:	4625      	mov	r5, r4
   21908:	ac0d      	add	r4, sp, #52	@ 0x34
   2190a:	4620      	mov	r0, r4
   2190c:	f005 fb04 	bl	26f18 <_ZN9allow_pin12full_dynamic17unshare_if_shared17hc627a04126f70c57E>
   21910:	4620      	mov	r0, r4
   21912:	f005 fb01 	bl	26f18 <_ZN9allow_pin12full_dynamic17unshare_if_shared17hc627a04126f70c57E>
   21916:	9c02      	ldr	r4, [sp, #8]
   21918:	1c60      	adds	r0, r4, #1
   2191a:	2263      	movs	r2, #99	@ 0x63
   2191c:	4629      	mov	r1, r5
   2191e:	f005 fcbc 	bl	2729a <__aeabi_memcpy>
   21922:	e7e4      	b.n	218ee <_ZN20complex_full_dynamic3app17h51c8bc7875e83086E+0x76>
   21924:	00002548 	.word	0x00002548

00021928 <_ZN20complex_full_dynamic3app17h528ff2f579312c24E>:
   21928:	b5f0      	push	{r4, r5, r6, r7, lr}
   2192a:	af03      	add	r7, sp, #12
   2192c:	b0b1      	sub	sp, #196	@ 0xc4
   2192e:	9003      	str	r0, [sp, #12]
   21930:	ac04      	add	r4, sp, #16
   21932:	2002      	movs	r0, #2
   21934:	9002      	str	r0, [sp, #8]
   21936:	7220      	strb	r0, [r4, #8]
   21938:	340c      	adds	r4, #12
   2193a:	223a      	movs	r2, #58	@ 0x3a
   2193c:	9201      	str	r2, [sp, #4]
   2193e:	4620      	mov	r0, r4
   21940:	f005 fcab 	bl	2729a <__aeabi_memcpy>
   21944:	ae16      	add	r6, sp, #88	@ 0x58
   21946:	4635      	mov	r5, r6
   21948:	350c      	adds	r5, #12
   2194a:	215d      	movs	r1, #93	@ 0x5d
   2194c:	4628      	mov	r0, r5
   2194e:	f005 faf7 	bl	26f40 <__aeabi_memclr4>
   21952:	9802      	ldr	r0, [sp, #8]
   21954:	7230      	strb	r0, [r6, #8]
   21956:	4820      	ldr	r0, [pc, #128]	@ (219d8 <_ZN20complex_full_dynamic3app17h528ff2f579312c24E+0xb0>)
   21958:	2600      	movs	r6, #0
   2195a:	4631      	mov	r1, r6
   2195c:	4622      	mov	r2, r4
   2195e:	9b01      	ldr	r3, [sp, #4]
   21960:	df04      	svc	4
   21962:	2802      	cmp	r0, #2
   21964:	d01a      	beq.n	2199c <_ZN20complex_full_dynamic3app17h528ff2f579312c24E+0x74>
   21966:	a804      	add	r0, sp, #16
   21968:	2104      	movs	r1, #4
   2196a:	7201      	strb	r1, [r0, #8]
   2196c:	9605      	str	r6, [sp, #20]
   2196e:	4e1a      	ldr	r6, [pc, #104]	@ (219d8 <_ZN20complex_full_dynamic3app17h528ff2f579312c24E+0xb0>)
   21970:	9604      	str	r6, [sp, #16]
   21972:	2405      	movs	r4, #5
   21974:	235d      	movs	r3, #93	@ 0x5d
   21976:	4630      	mov	r0, r6
   21978:	4621      	mov	r1, r4
   2197a:	462a      	mov	r2, r5
   2197c:	df03      	svc	3
   2197e:	2802      	cmp	r0, #2
   21980:	d00c      	beq.n	2199c <_ZN20complex_full_dynamic3app17h528ff2f579312c24E+0x74>
   21982:	a816      	add	r0, sp, #88	@ 0x58
   21984:	2103      	movs	r1, #3
   21986:	7201      	strb	r1, [r0, #8]
   21988:	9616      	str	r6, [sp, #88]	@ 0x58
   2198a:	9417      	str	r4, [sp, #92]	@ 0x5c
   2198c:	4812      	ldr	r0, [pc, #72]	@ (219d8 <_ZN20complex_full_dynamic3app17h528ff2f579312c24E+0xb0>)
   2198e:	2600      	movs	r6, #0
   21990:	4631      	mov	r1, r6
   21992:	4622      	mov	r2, r4
   21994:	4633      	mov	r3, r6
   21996:	df02      	svc	2
   21998:	287f      	cmp	r0, #127	@ 0x7f
   2199a:	d80b      	bhi.n	219b4 <_ZN20complex_full_dynamic3app17h528ff2f579312c24E+0x8c>
   2199c:	9c03      	ldr	r4, [sp, #12]
   2199e:	6061      	str	r1, [r4, #4]
   219a0:	2601      	movs	r6, #1
   219a2:	7026      	strb	r6, [r4, #0]
   219a4:	a816      	add	r0, sp, #88	@ 0x58
   219a6:	f005 fab7 	bl	26f18 <_ZN9allow_pin12full_dynamic17unshare_if_shared17hc627a04126f70c57E>
   219aa:	a804      	add	r0, sp, #16
   219ac:	f005 fab4 	bl	26f18 <_ZN9allow_pin12full_dynamic17unshare_if_shared17hc627a04126f70c57E>
   219b0:	b031      	add	sp, #196	@ 0xc4
   219b2:	bdf0      	pop	{r4, r5, r6, r7, pc}
   219b4:	a804      	add	r0, sp, #16
   219b6:	f005 faaf 	bl	26f18 <_ZN9allow_pin12full_dynamic17unshare_if_shared17hc627a04126f70c57E>
   219ba:	ac16      	add	r4, sp, #88	@ 0x58
   219bc:	4620      	mov	r0, r4
   219be:	f005 faab 	bl	26f18 <_ZN9allow_pin12full_dynamic17unshare_if_shared17hc627a04126f70c57E>
   219c2:	4620      	mov	r0, r4
   219c4:	f005 faa8 	bl	26f18 <_ZN9allow_pin12full_dynamic17unshare_if_shared17hc627a04126f70c57E>
   219c8:	9c03      	ldr	r4, [sp, #12]
   219ca:	1c60      	adds	r0, r4, #1
   219cc:	225d      	movs	r2, #93	@ 0x5d
   219ce:	4629      	mov	r1, r5
   219d0:	f005 fc63 	bl	2729a <__aeabi_memcpy>
   219d4:	e7e5      	b.n	219a2 <_ZN20complex_full_dynamic3app17h528ff2f579312c24E+0x7a>
   219d6:	46c0      	nop			@ (mov r8, r8)
   219d8:	000014a4 	.word	0x000014a4

000219dc <_ZN20complex_full_dynamic3app17h55bacef572996773E>:
   219dc:	b5f0      	push	{r4, r5, r6, r7, lr}
   219de:	af03      	add	r7, sp, #12
   219e0:	b0a5      	sub	sp, #148	@ 0x94
   219e2:	9002      	str	r0, [sp, #8]
   219e4:	ac03      	add	r4, sp, #12
   219e6:	2002      	movs	r0, #2
   219e8:	9001      	str	r0, [sp, #4]
   219ea:	7220      	strb	r0, [r4, #8]
   219ec:	340c      	adds	r4, #12
   219ee:	223c      	movs	r2, #60	@ 0x3c
   219f0:	9200      	str	r2, [sp, #0]
   219f2:	4620      	mov	r0, r4
   219f4:	f005 fc51 	bl	2729a <__aeabi_memcpy>
   219f8:	ae15      	add	r6, sp, #84	@ 0x54
   219fa:	4635      	mov	r5, r6
   219fc:	350c      	adds	r5, #12
   219fe:	2132      	movs	r1, #50	@ 0x32
   21a00:	4628      	mov	r0, r5
   21a02:	f005 fa9d 	bl	26f40 <__aeabi_memclr4>
   21a06:	9801      	ldr	r0, [sp, #4]
   21a08:	7230      	strb	r0, [r6, #8]
   21a0a:	4820      	ldr	r0, [pc, #128]	@ (21a8c <_ZN20complex_full_dynamic3app17h55bacef572996773E+0xb0>)
   21a0c:	2606      	movs	r6, #6
   21a0e:	4631      	mov	r1, r6
   21a10:	4622      	mov	r2, r4
   21a12:	9b00      	ldr	r3, [sp, #0]
   21a14:	df04      	svc	4
   21a16:	2802      	cmp	r0, #2
   21a18:	d01a      	beq.n	21a50 <_ZN20complex_full_dynamic3app17h55bacef572996773E+0x74>
   21a1a:	a803      	add	r0, sp, #12
   21a1c:	2104      	movs	r1, #4
   21a1e:	7201      	strb	r1, [r0, #8]
   21a20:	9604      	str	r6, [sp, #16]
   21a22:	4e1a      	ldr	r6, [pc, #104]	@ (21a8c <_ZN20complex_full_dynamic3app17h55bacef572996773E+0xb0>)
   21a24:	9603      	str	r6, [sp, #12]
   21a26:	2408      	movs	r4, #8
   21a28:	2332      	movs	r3, #50	@ 0x32
   21a2a:	4630      	mov	r0, r6
   21a2c:	4621      	mov	r1, r4
   21a2e:	462a      	mov	r2, r5
   21a30:	df03      	svc	3
   21a32:	2802      	cmp	r0, #2
   21a34:	d00c      	beq.n	21a50 <_ZN20complex_full_dynamic3app17h55bacef572996773E+0x74>
   21a36:	a815      	add	r0, sp, #84	@ 0x54
   21a38:	2103      	movs	r1, #3
   21a3a:	7201      	strb	r1, [r0, #8]
   21a3c:	9615      	str	r6, [sp, #84]	@ 0x54
   21a3e:	9416      	str	r4, [sp, #88]	@ 0x58
   21a40:	4812      	ldr	r0, [pc, #72]	@ (21a8c <_ZN20complex_full_dynamic3app17h55bacef572996773E+0xb0>)
   21a42:	2106      	movs	r1, #6
   21a44:	2600      	movs	r6, #0
   21a46:	4622      	mov	r2, r4
   21a48:	4633      	mov	r3, r6
   21a4a:	df02      	svc	2
   21a4c:	287f      	cmp	r0, #127	@ 0x7f
   21a4e:	d80b      	bhi.n	21a68 <_ZN20complex_full_dynamic3app17h55bacef572996773E+0x8c>
   21a50:	9c02      	ldr	r4, [sp, #8]
   21a52:	6061      	str	r1, [r4, #4]
   21a54:	2601      	movs	r6, #1
   21a56:	7026      	strb	r6, [r4, #0]
   21a58:	a815      	add	r0, sp, #84	@ 0x54
   21a5a:	f005 fa5d 	bl	26f18 <_ZN9allow_pin12full_dynamic17unshare_if_shared17hc627a04126f70c57E>
   21a5e:	a803      	add	r0, sp, #12
   21a60:	f005 fa5a 	bl	26f18 <_ZN9allow_pin12full_dynamic17unshare_if_shared17hc627a04126f70c57E>
   21a64:	b025      	add	sp, #148	@ 0x94
   21a66:	bdf0      	pop	{r4, r5, r6, r7, pc}
   21a68:	a803      	add	r0, sp, #12
   21a6a:	f005 fa55 	bl	26f18 <_ZN9allow_pin12full_dynamic17unshare_if_shared17hc627a04126f70c57E>
   21a6e:	ac15      	add	r4, sp, #84	@ 0x54
   21a70:	4620      	mov	r0, r4
   21a72:	f005 fa51 	bl	26f18 <_ZN9allow_pin12full_dynamic17unshare_if_shared17hc627a04126f70c57E>
   21a76:	4620      	mov	r0, r4
   21a78:	f005 fa4e 	bl	26f18 <_ZN9allow_pin12full_dynamic17unshare_if_shared17hc627a04126f70c57E>
   21a7c:	9c02      	ldr	r4, [sp, #8]
   21a7e:	1c60      	adds	r0, r4, #1
   21a80:	2232      	movs	r2, #50	@ 0x32
   21a82:	4629      	mov	r1, r5
   21a84:	f005 fc09 	bl	2729a <__aeabi_memcpy>
   21a88:	e7e5      	b.n	21a56 <_ZN20complex_full_dynamic3app17h55bacef572996773E+0x7a>
   21a8a:	46c0      	nop			@ (mov r8, r8)
   21a8c:	00001b1e 	.word	0x00001b1e

00021a90 <_ZN20complex_full_dynamic3app17h5a9d0e92739ca22cE>:
   21a90:	b5f0      	push	{r4, r5, r6, r7, lr}
   21a92:	af03      	add	r7, sp, #12
   21a94:	b09b      	sub	sp, #108	@ 0x6c
   21a96:	9001      	str	r0, [sp, #4]
   21a98:	ac02      	add	r4, sp, #8
   21a9a:	2502      	movs	r5, #2
   21a9c:	7225      	strb	r5, [r4, #8]
   21a9e:	340c      	adds	r4, #12
   21aa0:	222b      	movs	r2, #43	@ 0x2b
   21aa2:	9200      	str	r2, [sp, #0]
   21aa4:	4620      	mov	r0, r4
   21aa6:	f005 fbf8 	bl	2729a <__aeabi_memcpy>
   21aaa:	ae10      	add	r6, sp, #64	@ 0x40
   21aac:	2000      	movs	r0, #0
   21aae:	8530      	strh	r0, [r6, #40]	@ 0x28
   21ab0:	7235      	strb	r5, [r6, #8]
   21ab2:	9019      	str	r0, [sp, #100]	@ 0x64
   21ab4:	9018      	str	r0, [sp, #96]	@ 0x60
   21ab6:	9017      	str	r0, [sp, #92]	@ 0x5c
   21ab8:	9016      	str	r0, [sp, #88]	@ 0x58
   21aba:	9015      	str	r0, [sp, #84]	@ 0x54
   21abc:	9014      	str	r0, [sp, #80]	@ 0x50
   21abe:	9013      	str	r0, [sp, #76]	@ 0x4c
   21ac0:	4820      	ldr	r0, [pc, #128]	@ (21b44 <_ZN20complex_full_dynamic3app17h5a9d0e92739ca22cE+0xb4>)
   21ac2:	2507      	movs	r5, #7
   21ac4:	4629      	mov	r1, r5
   21ac6:	4622      	mov	r2, r4
   21ac8:	9b00      	ldr	r3, [sp, #0]
   21aca:	df04      	svc	4
   21acc:	2802      	cmp	r0, #2
   21ace:	d01b      	beq.n	21b08 <_ZN20complex_full_dynamic3app17h5a9d0e92739ca22cE+0x78>
   21ad0:	360c      	adds	r6, #12
   21ad2:	a802      	add	r0, sp, #8
   21ad4:	2104      	movs	r1, #4
   21ad6:	7201      	strb	r1, [r0, #8]
   21ad8:	9503      	str	r5, [sp, #12]
   21ada:	481a      	ldr	r0, [pc, #104]	@ (21b44 <_ZN20complex_full_dynamic3app17h5a9d0e92739ca22cE+0xb4>)
   21adc:	9002      	str	r0, [sp, #8]
   21ade:	2408      	movs	r4, #8
   21ae0:	231e      	movs	r3, #30
   21ae2:	4621      	mov	r1, r4
   21ae4:	4632      	mov	r2, r6
   21ae6:	df03      	svc	3
   21ae8:	2802      	cmp	r0, #2
   21aea:	d00d      	beq.n	21b08 <_ZN20complex_full_dynamic3app17h5a9d0e92739ca22cE+0x78>
   21aec:	4635      	mov	r5, r6
   21aee:	a810      	add	r0, sp, #64	@ 0x40
   21af0:	2103      	movs	r1, #3
   21af2:	7201      	strb	r1, [r0, #8]
   21af4:	4813      	ldr	r0, [pc, #76]	@ (21b44 <_ZN20complex_full_dynamic3app17h5a9d0e92739ca22cE+0xb4>)
   21af6:	9010      	str	r0, [sp, #64]	@ 0x40
   21af8:	9411      	str	r4, [sp, #68]	@ 0x44
   21afa:	2107      	movs	r1, #7
   21afc:	2600      	movs	r6, #0
   21afe:	4622      	mov	r2, r4
   21b00:	4633      	mov	r3, r6
   21b02:	df02      	svc	2
   21b04:	287f      	cmp	r0, #127	@ 0x7f
   21b06:	d80b      	bhi.n	21b20 <_ZN20complex_full_dynamic3app17h5a9d0e92739ca22cE+0x90>
   21b08:	9c01      	ldr	r4, [sp, #4]
   21b0a:	6061      	str	r1, [r4, #4]
   21b0c:	2601      	movs	r6, #1
   21b0e:	7026      	strb	r6, [r4, #0]
   21b10:	a810      	add	r0, sp, #64	@ 0x40
   21b12:	f005 fa01 	bl	26f18 <_ZN9allow_pin12full_dynamic17unshare_if_shared17hc627a04126f70c57E>
   21b16:	a802      	add	r0, sp, #8
   21b18:	f005 f9fe 	bl	26f18 <_ZN9allow_pin12full_dynamic17unshare_if_shared17hc627a04126f70c57E>
   21b1c:	b01b      	add	sp, #108	@ 0x6c
   21b1e:	bdf0      	pop	{r4, r5, r6, r7, pc}
   21b20:	a802      	add	r0, sp, #8
   21b22:	f005 f9f9 	bl	26f18 <_ZN9allow_pin12full_dynamic17unshare_if_shared17hc627a04126f70c57E>
   21b26:	ac10      	add	r4, sp, #64	@ 0x40
   21b28:	4620      	mov	r0, r4
   21b2a:	f005 f9f5 	bl	26f18 <_ZN9allow_pin12full_dynamic17unshare_if_shared17hc627a04126f70c57E>
   21b2e:	4620      	mov	r0, r4
   21b30:	f005 f9f2 	bl	26f18 <_ZN9allow_pin12full_dynamic17unshare_if_shared17hc627a04126f70c57E>
   21b34:	9c01      	ldr	r4, [sp, #4]
   21b36:	1c60      	adds	r0, r4, #1
   21b38:	221e      	movs	r2, #30
   21b3a:	4629      	mov	r1, r5
   21b3c:	f005 fbad 	bl	2729a <__aeabi_memcpy>
   21b40:	e7e5      	b.n	21b0e <_ZN20complex_full_dynamic3app17h5a9d0e92739ca22cE+0x7e>
   21b42:	46c0      	nop			@ (mov r8, r8)
   21b44:	000007e3 	.word	0x000007e3

00021b48 <_ZN20complex_full_dynamic3app17h5d66c2ebe3f94d8eE>:
   21b48:	b5f0      	push	{r4, r5, r6, r7, lr}
   21b4a:	af03      	add	r7, sp, #12
   21b4c:	b097      	sub	sp, #92	@ 0x5c
   21b4e:	9003      	str	r0, [sp, #12]
   21b50:	ac04      	add	r4, sp, #16
   21b52:	2002      	movs	r0, #2
   21b54:	9002      	str	r0, [sp, #8]
   21b56:	7220      	strb	r0, [r4, #8]
   21b58:	340c      	adds	r4, #12
   21b5a:	220d      	movs	r2, #13
   21b5c:	9201      	str	r2, [sp, #4]
   21b5e:	4620      	mov	r0, r4
   21b60:	f005 fb9b 	bl	2729a <__aeabi_memcpy>
   21b64:	ae0b      	add	r6, sp, #44	@ 0x2c
   21b66:	4635      	mov	r5, r6
   21b68:	350c      	adds	r5, #12
   21b6a:	2121      	movs	r1, #33	@ 0x21
   21b6c:	4628      	mov	r0, r5
   21b6e:	f005 f9e7 	bl	26f40 <__aeabi_memclr4>
   21b72:	9802      	ldr	r0, [sp, #8]
   21b74:	7230      	strb	r0, [r6, #8]
   21b76:	481f      	ldr	r0, [pc, #124]	@ (21bf4 <_ZN20complex_full_dynamic3app17h5d66c2ebe3f94d8eE+0xac>)
   21b78:	2600      	movs	r6, #0
   21b7a:	4631      	mov	r1, r6
   21b7c:	4622      	mov	r2, r4
   21b7e:	9b01      	ldr	r3, [sp, #4]
   21b80:	df04      	svc	4
   21b82:	2802      	cmp	r0, #2
   21b84:	d018      	beq.n	21bb8 <_ZN20complex_full_dynamic3app17h5d66c2ebe3f94d8eE+0x70>
   21b86:	a804      	add	r0, sp, #16
   21b88:	2104      	movs	r1, #4
   21b8a:	7201      	strb	r1, [r0, #8]
   21b8c:	4c19      	ldr	r4, [pc, #100]	@ (21bf4 <_ZN20complex_full_dynamic3app17h5d66c2ebe3f94d8eE+0xac>)
   21b8e:	9404      	str	r4, [sp, #16]
   21b90:	9605      	str	r6, [sp, #20]
   21b92:	2321      	movs	r3, #33	@ 0x21
   21b94:	4620      	mov	r0, r4
   21b96:	4631      	mov	r1, r6
   21b98:	462a      	mov	r2, r5
   21b9a:	df03      	svc	3
   21b9c:	2802      	cmp	r0, #2
   21b9e:	d00b      	beq.n	21bb8 <_ZN20complex_full_dynamic3app17h5d66c2ebe3f94d8eE+0x70>
   21ba0:	a80b      	add	r0, sp, #44	@ 0x2c
   21ba2:	2103      	movs	r1, #3
   21ba4:	7201      	strb	r1, [r0, #8]
   21ba6:	940b      	str	r4, [sp, #44]	@ 0x2c
   21ba8:	960c      	str	r6, [sp, #48]	@ 0x30
   21baa:	4812      	ldr	r0, [pc, #72]	@ (21bf4 <_ZN20complex_full_dynamic3app17h5d66c2ebe3f94d8eE+0xac>)
   21bac:	4631      	mov	r1, r6
   21bae:	4632      	mov	r2, r6
   21bb0:	4633      	mov	r3, r6
   21bb2:	df02      	svc	2
   21bb4:	287f      	cmp	r0, #127	@ 0x7f
   21bb6:	d80b      	bhi.n	21bd0 <_ZN20complex_full_dynamic3app17h5d66c2ebe3f94d8eE+0x88>
   21bb8:	9c03      	ldr	r4, [sp, #12]
   21bba:	6061      	str	r1, [r4, #4]
   21bbc:	2601      	movs	r6, #1
   21bbe:	7026      	strb	r6, [r4, #0]
   21bc0:	a80b      	add	r0, sp, #44	@ 0x2c
   21bc2:	f005 f9a9 	bl	26f18 <_ZN9allow_pin12full_dynamic17unshare_if_shared17hc627a04126f70c57E>
   21bc6:	a804      	add	r0, sp, #16
   21bc8:	f005 f9a6 	bl	26f18 <_ZN9allow_pin12full_dynamic17unshare_if_shared17hc627a04126f70c57E>
   21bcc:	b017      	add	sp, #92	@ 0x5c
   21bce:	bdf0      	pop	{r4, r5, r6, r7, pc}
   21bd0:	a804      	add	r0, sp, #16
   21bd2:	f005 f9a1 	bl	26f18 <_ZN9allow_pin12full_dynamic17unshare_if_shared17hc627a04126f70c57E>
   21bd6:	ac0b      	add	r4, sp, #44	@ 0x2c
   21bd8:	4620      	mov	r0, r4
   21bda:	f005 f99d 	bl	26f18 <_ZN9allow_pin12full_dynamic17unshare_if_shared17hc627a04126f70c57E>
   21bde:	4620      	mov	r0, r4
   21be0:	f005 f99a 	bl	26f18 <_ZN9allow_pin12full_dynamic17unshare_if_shared17hc627a04126f70c57E>
   21be4:	9c03      	ldr	r4, [sp, #12]
   21be6:	1c60      	adds	r0, r4, #1
   21be8:	2221      	movs	r2, #33	@ 0x21
   21bea:	4629      	mov	r1, r5
   21bec:	f005 fb55 	bl	2729a <__aeabi_memcpy>
   21bf0:	e7e5      	b.n	21bbe <_ZN20complex_full_dynamic3app17h5d66c2ebe3f94d8eE+0x76>
   21bf2:	46c0      	nop			@ (mov r8, r8)
   21bf4:	000016b0 	.word	0x000016b0

00021bf8 <_ZN20complex_full_dynamic3app17h5f9127c6f1454eb4E>:
   21bf8:	b5f0      	push	{r4, r5, r6, r7, lr}
   21bfa:	af03      	add	r7, sp, #12
   21bfc:	b0ad      	sub	sp, #180	@ 0xb4
   21bfe:	9003      	str	r0, [sp, #12]
   21c00:	ae04      	add	r6, sp, #16
   21c02:	2002      	movs	r0, #2
   21c04:	9002      	str	r0, [sp, #8]
   21c06:	7230      	strb	r0, [r6, #8]
   21c08:	360c      	adds	r6, #12
   21c0a:	2250      	movs	r2, #80	@ 0x50
   21c0c:	9201      	str	r2, [sp, #4]
   21c0e:	4630      	mov	r0, r6
   21c10:	f005 fb43 	bl	2729a <__aeabi_memcpy>
   21c14:	ad1b      	add	r5, sp, #108	@ 0x6c
   21c16:	462c      	mov	r4, r5
   21c18:	340c      	adds	r4, #12
   21c1a:	213c      	movs	r1, #60	@ 0x3c
   21c1c:	4620      	mov	r0, r4
   21c1e:	f005 f98f 	bl	26f40 <__aeabi_memclr4>
   21c22:	9802      	ldr	r0, [sp, #8]
   21c24:	7228      	strb	r0, [r5, #8]
   21c26:	4820      	ldr	r0, [pc, #128]	@ (21ca8 <_ZN20complex_full_dynamic3app17h5f9127c6f1454eb4E+0xb0>)
   21c28:	2503      	movs	r5, #3
   21c2a:	4629      	mov	r1, r5
   21c2c:	4632      	mov	r2, r6
   21c2e:	9b01      	ldr	r3, [sp, #4]
   21c30:	df04      	svc	4
   21c32:	2802      	cmp	r0, #2
   21c34:	d01a      	beq.n	21c6c <_ZN20complex_full_dynamic3app17h5f9127c6f1454eb4E+0x74>
   21c36:	a804      	add	r0, sp, #16
   21c38:	2104      	movs	r1, #4
   21c3a:	7201      	strb	r1, [r0, #8]
   21c3c:	9505      	str	r5, [sp, #20]
   21c3e:	4e1a      	ldr	r6, [pc, #104]	@ (21ca8 <_ZN20complex_full_dynamic3app17h5f9127c6f1454eb4E+0xb0>)
   21c40:	9604      	str	r6, [sp, #16]
   21c42:	2109      	movs	r1, #9
   21c44:	233c      	movs	r3, #60	@ 0x3c
   21c46:	4630      	mov	r0, r6
   21c48:	9102      	str	r1, [sp, #8]
   21c4a:	4622      	mov	r2, r4
   21c4c:	df03      	svc	3
   21c4e:	2802      	cmp	r0, #2
   21c50:	d00c      	beq.n	21c6c <_ZN20complex_full_dynamic3app17h5f9127c6f1454eb4E+0x74>
   21c52:	9401      	str	r4, [sp, #4]
   21c54:	a81b      	add	r0, sp, #108	@ 0x6c
   21c56:	7205      	strb	r5, [r0, #8]
   21c58:	961b      	str	r6, [sp, #108]	@ 0x6c
   21c5a:	9a02      	ldr	r2, [sp, #8]
   21c5c:	921c      	str	r2, [sp, #112]	@ 0x70
   21c5e:	4812      	ldr	r0, [pc, #72]	@ (21ca8 <_ZN20complex_full_dynamic3app17h5f9127c6f1454eb4E+0xb0>)
   21c60:	2600      	movs	r6, #0
   21c62:	4629      	mov	r1, r5
   21c64:	4633      	mov	r3, r6
   21c66:	df02      	svc	2
   21c68:	287f      	cmp	r0, #127	@ 0x7f
   21c6a:	d80b      	bhi.n	21c84 <_ZN20complex_full_dynamic3app17h5f9127c6f1454eb4E+0x8c>
   21c6c:	9c03      	ldr	r4, [sp, #12]
   21c6e:	6061      	str	r1, [r4, #4]
   21c70:	2601      	movs	r6, #1
   21c72:	7026      	strb	r6, [r4, #0]
   21c74:	a81b      	add	r0, sp, #108	@ 0x6c
   21c76:	f005 f94f 	bl	26f18 <_ZN9allow_pin12full_dynamic17unshare_if_shared17hc627a04126f70c57E>
   21c7a:	a804      	add	r0, sp, #16
   21c7c:	f005 f94c 	bl	26f18 <_ZN9allow_pin12full_dynamic17unshare_if_shared17hc627a04126f70c57E>
   21c80:	b02d      	add	sp, #180	@ 0xb4
   21c82:	bdf0      	pop	{r4, r5, r6, r7, pc}
   21c84:	a804      	add	r0, sp, #16
   21c86:	f005 f947 	bl	26f18 <_ZN9allow_pin12full_dynamic17unshare_if_shared17hc627a04126f70c57E>
   21c8a:	ac1b      	add	r4, sp, #108	@ 0x6c
   21c8c:	4620      	mov	r0, r4
   21c8e:	f005 f943 	bl	26f18 <_ZN9allow_pin12full_dynamic17unshare_if_shared17hc627a04126f70c57E>
   21c92:	4620      	mov	r0, r4
   21c94:	f005 f940 	bl	26f18 <_ZN9allow_pin12full_dynamic17unshare_if_shared17hc627a04126f70c57E>
   21c98:	9c03      	ldr	r4, [sp, #12]
   21c9a:	1c60      	adds	r0, r4, #1
   21c9c:	223c      	movs	r2, #60	@ 0x3c
   21c9e:	9901      	ldr	r1, [sp, #4]
   21ca0:	f005 fafb 	bl	2729a <__aeabi_memcpy>
   21ca4:	e7e5      	b.n	21c72 <_ZN20complex_full_dynamic3app17h5f9127c6f1454eb4E+0x7a>
   21ca6:	46c0      	nop			@ (mov r8, r8)
   21ca8:	00000d7a 	.word	0x00000d7a

00021cac <_ZN20complex_full_dynamic3app17h65a0f1c2d2546b94E>:
   21cac:	b5f0      	push	{r4, r5, r6, r7, lr}
   21cae:	af03      	add	r7, sp, #12
   21cb0:	b0a7      	sub	sp, #156	@ 0x9c
   21cb2:	9002      	str	r0, [sp, #8]
   21cb4:	ac03      	add	r4, sp, #12
   21cb6:	2002      	movs	r0, #2
   21cb8:	9001      	str	r0, [sp, #4]
   21cba:	7220      	strb	r0, [r4, #8]
   21cbc:	340c      	adds	r4, #12
   21cbe:	2235      	movs	r2, #53	@ 0x35
   21cc0:	9200      	str	r2, [sp, #0]
   21cc2:	4620      	mov	r0, r4
   21cc4:	f005 fae9 	bl	2729a <__aeabi_memcpy>
   21cc8:	ae14      	add	r6, sp, #80	@ 0x50
   21cca:	4635      	mov	r5, r6
   21ccc:	350c      	adds	r5, #12
   21cce:	213f      	movs	r1, #63	@ 0x3f
   21cd0:	4628      	mov	r0, r5
   21cd2:	f005 f935 	bl	26f40 <__aeabi_memclr4>
   21cd6:	9801      	ldr	r0, [sp, #4]
   21cd8:	7230      	strb	r0, [r6, #8]
   21cda:	481f      	ldr	r0, [pc, #124]	@ (21d58 <_ZN20complex_full_dynamic3app17h65a0f1c2d2546b94E+0xac>)
   21cdc:	2600      	movs	r6, #0
   21cde:	4631      	mov	r1, r6
   21ce0:	4622      	mov	r2, r4
   21ce2:	9b00      	ldr	r3, [sp, #0]
   21ce4:	df04      	svc	4
   21ce6:	2802      	cmp	r0, #2
   21ce8:	d019      	beq.n	21d1e <_ZN20complex_full_dynamic3app17h65a0f1c2d2546b94E+0x72>
   21cea:	a803      	add	r0, sp, #12
   21cec:	2104      	movs	r1, #4
   21cee:	7201      	strb	r1, [r0, #8]
   21cf0:	9604      	str	r6, [sp, #16]
   21cf2:	4e19      	ldr	r6, [pc, #100]	@ (21d58 <_ZN20complex_full_dynamic3app17h65a0f1c2d2546b94E+0xac>)
   21cf4:	9603      	str	r6, [sp, #12]
   21cf6:	2403      	movs	r4, #3
   21cf8:	233f      	movs	r3, #63	@ 0x3f
   21cfa:	4630      	mov	r0, r6
   21cfc:	4621      	mov	r1, r4
   21cfe:	462a      	mov	r2, r5
   21d00:	df03      	svc	3
   21d02:	2802      	cmp	r0, #2
   21d04:	d00b      	beq.n	21d1e <_ZN20complex_full_dynamic3app17h65a0f1c2d2546b94E+0x72>
   21d06:	a814      	add	r0, sp, #80	@ 0x50
   21d08:	7204      	strb	r4, [r0, #8]
   21d0a:	9415      	str	r4, [sp, #84]	@ 0x54
   21d0c:	9614      	str	r6, [sp, #80]	@ 0x50
   21d0e:	4812      	ldr	r0, [pc, #72]	@ (21d58 <_ZN20complex_full_dynamic3app17h65a0f1c2d2546b94E+0xac>)
   21d10:	2600      	movs	r6, #0
   21d12:	4631      	mov	r1, r6
   21d14:	4622      	mov	r2, r4
   21d16:	4633      	mov	r3, r6
   21d18:	df02      	svc	2
   21d1a:	287f      	cmp	r0, #127	@ 0x7f
   21d1c:	d80b      	bhi.n	21d36 <_ZN20complex_full_dynamic3app17h65a0f1c2d2546b94E+0x8a>
   21d1e:	9c02      	ldr	r4, [sp, #8]
   21d20:	6061      	str	r1, [r4, #4]
   21d22:	2601      	movs	r6, #1
   21d24:	7026      	strb	r6, [r4, #0]
   21d26:	a814      	add	r0, sp, #80	@ 0x50
   21d28:	f005 f8f6 	bl	26f18 <_ZN9allow_pin12full_dynamic17unshare_if_shared17hc627a04126f70c57E>
   21d2c:	a803      	add	r0, sp, #12
   21d2e:	f005 f8f3 	bl	26f18 <_ZN9allow_pin12full_dynamic17unshare_if_shared17hc627a04126f70c57E>
   21d32:	b027      	add	sp, #156	@ 0x9c
   21d34:	bdf0      	pop	{r4, r5, r6, r7, pc}
   21d36:	a803      	add	r0, sp, #12
   21d38:	f005 f8ee 	bl	26f18 <_ZN9allow_pin12full_dynamic17unshare_if_shared17hc627a04126f70c57E>
   21d3c:	ac14      	add	r4, sp, #80	@ 0x50
   21d3e:	4620      	mov	r0, r4
   21d40:	f005 f8ea 	bl	26f18 <_ZN9allow_pin12full_dynamic17unshare_if_shared17hc627a04126f70c57E>
   21d44:	4620      	mov	r0, r4
   21d46:	f005 f8e7 	bl	26f18 <_ZN9allow_pin12full_dynamic17unshare_if_shared17hc627a04126f70c57E>
   21d4a:	9c02      	ldr	r4, [sp, #8]
   21d4c:	1c60      	adds	r0, r4, #1
   21d4e:	223f      	movs	r2, #63	@ 0x3f
   21d50:	4629      	mov	r1, r5
   21d52:	f005 faa2 	bl	2729a <__aeabi_memcpy>
   21d56:	e7e5      	b.n	21d24 <_ZN20complex_full_dynamic3app17h65a0f1c2d2546b94E+0x78>
   21d58:	00000e57 	.word	0x00000e57

00021d5c <_ZN20complex_full_dynamic3app17h66b30a329b38a0e8E>:
   21d5c:	b5f0      	push	{r4, r5, r6, r7, lr}
   21d5e:	af03      	add	r7, sp, #12
   21d60:	b0a3      	sub	sp, #140	@ 0x8c
   21d62:	9001      	str	r0, [sp, #4]
   21d64:	ac02      	add	r4, sp, #8
   21d66:	2502      	movs	r5, #2
   21d68:	7225      	strb	r5, [r4, #8]
   21d6a:	340c      	adds	r4, #12
   21d6c:	2250      	movs	r2, #80	@ 0x50
   21d6e:	9200      	str	r2, [sp, #0]
   21d70:	4620      	mov	r0, r4
   21d72:	f005 fa92 	bl	2729a <__aeabi_memcpy>
   21d76:	a819      	add	r0, sp, #100	@ 0x64
   21d78:	4606      	mov	r6, r0
   21d7a:	360c      	adds	r6, #12
   21d7c:	2100      	movs	r1, #0
   21d7e:	76b1      	strb	r1, [r6, #26]
   21d80:	8481      	strh	r1, [r0, #36]	@ 0x24
   21d82:	7205      	strb	r5, [r0, #8]
   21d84:	9121      	str	r1, [sp, #132]	@ 0x84
   21d86:	9120      	str	r1, [sp, #128]	@ 0x80
   21d88:	911f      	str	r1, [sp, #124]	@ 0x7c
   21d8a:	911e      	str	r1, [sp, #120]	@ 0x78
   21d8c:	911d      	str	r1, [sp, #116]	@ 0x74
   21d8e:	911c      	str	r1, [sp, #112]	@ 0x70
   21d90:	4822      	ldr	r0, [pc, #136]	@ (21e1c <_ZN20complex_full_dynamic3app17h66b30a329b38a0e8E+0xc0>)
   21d92:	2501      	movs	r5, #1
   21d94:	4629      	mov	r1, r5
   21d96:	4622      	mov	r2, r4
   21d98:	9b00      	ldr	r3, [sp, #0]
   21d9a:	df04      	svc	4
   21d9c:	2802      	cmp	r0, #2
   21d9e:	d101      	bne.n	21da4 <_ZN20complex_full_dynamic3app17h66b30a329b38a0e8E+0x48>
   21da0:	462c      	mov	r4, r5
   21da2:	e00d      	b.n	21dc0 <_ZN20complex_full_dynamic3app17h66b30a329b38a0e8E+0x64>
   21da4:	a802      	add	r0, sp, #8
   21da6:	2104      	movs	r1, #4
   21da8:	7201      	strb	r1, [r0, #8]
   21daa:	462c      	mov	r4, r5
   21dac:	9503      	str	r5, [sp, #12]
   21dae:	481b      	ldr	r0, [pc, #108]	@ (21e1c <_ZN20complex_full_dynamic3app17h66b30a329b38a0e8E+0xc0>)
   21db0:	9002      	str	r0, [sp, #8]
   21db2:	2502      	movs	r5, #2
   21db4:	231b      	movs	r3, #27
   21db6:	4629      	mov	r1, r5
   21db8:	4632      	mov	r2, r6
   21dba:	df03      	svc	3
   21dbc:	2802      	cmp	r0, #2
   21dbe:	d10a      	bne.n	21dd6 <_ZN20complex_full_dynamic3app17h66b30a329b38a0e8E+0x7a>
   21dc0:	9d01      	ldr	r5, [sp, #4]
   21dc2:	6069      	str	r1, [r5, #4]
   21dc4:	702c      	strb	r4, [r5, #0]
   21dc6:	a819      	add	r0, sp, #100	@ 0x64
   21dc8:	f005 f8a6 	bl	26f18 <_ZN9allow_pin12full_dynamic17unshare_if_shared17hc627a04126f70c57E>
   21dcc:	a802      	add	r0, sp, #8
   21dce:	f005 f8a3 	bl	26f18 <_ZN9allow_pin12full_dynamic17unshare_if_shared17hc627a04126f70c57E>
   21dd2:	b023      	add	sp, #140	@ 0x8c
   21dd4:	bdf0      	pop	{r4, r5, r6, r7, pc}
   21dd6:	9600      	str	r6, [sp, #0]
   21dd8:	a819      	add	r0, sp, #100	@ 0x64
   21dda:	2103      	movs	r1, #3
   21ddc:	7201      	strb	r1, [r0, #8]
   21dde:	480f      	ldr	r0, [pc, #60]	@ (21e1c <_ZN20complex_full_dynamic3app17h66b30a329b38a0e8E+0xc0>)
   21de0:	9019      	str	r0, [sp, #100]	@ 0x64
   21de2:	951a      	str	r5, [sp, #104]	@ 0x68
   21de4:	2101      	movs	r1, #1
   21de6:	2600      	movs	r6, #0
   21de8:	462a      	mov	r2, r5
   21dea:	4633      	mov	r3, r6
   21dec:	df02      	svc	2
   21dee:	287f      	cmp	r0, #127	@ 0x7f
   21df0:	9d01      	ldr	r5, [sp, #4]
   21df2:	d801      	bhi.n	21df8 <_ZN20complex_full_dynamic3app17h66b30a329b38a0e8E+0x9c>
   21df4:	6069      	str	r1, [r5, #4]
   21df6:	e7e5      	b.n	21dc4 <_ZN20complex_full_dynamic3app17h66b30a329b38a0e8E+0x68>
   21df8:	a802      	add	r0, sp, #8
   21dfa:	f005 f88d 	bl	26f18 <_ZN9allow_pin12full_dynamic17unshare_if_shared17hc627a04126f70c57E>
   21dfe:	4634      	mov	r4, r6
   21e00:	ae19      	add	r6, sp, #100	@ 0x64
   21e02:	4630      	mov	r0, r6
   21e04:	f005 f888 	bl	26f18 <_ZN9allow_pin12full_dynamic17unshare_if_shared17hc627a04126f70c57E>
   21e08:	4630      	mov	r0, r6
   21e0a:	f005 f885 	bl	26f18 <_ZN9allow_pin12full_dynamic17unshare_if_shared17hc627a04126f70c57E>
   21e0e:	1c68      	adds	r0, r5, #1
   21e10:	221b      	movs	r2, #27
   21e12:	9900      	ldr	r1, [sp, #0]
   21e14:	f005 fa41 	bl	2729a <__aeabi_memcpy>
   21e18:	e7d4      	b.n	21dc4 <_ZN20complex_full_dynamic3app17h66b30a329b38a0e8E+0x68>
   21e1a:	46c0      	nop			@ (mov r8, r8)
   21e1c:	000003d9 	.word	0x000003d9

00021e20 <_ZN20complex_full_dynamic3app17h69a10ebb9caa0603E>:
   21e20:	b5f0      	push	{r4, r5, r6, r7, lr}
   21e22:	af03      	add	r7, sp, #12
   21e24:	b09d      	sub	sp, #116	@ 0x74
   21e26:	9002      	str	r0, [sp, #8]
   21e28:	ac03      	add	r4, sp, #12
   21e2a:	2002      	movs	r0, #2
   21e2c:	9001      	str	r0, [sp, #4]
   21e2e:	7220      	strb	r0, [r4, #8]
   21e30:	340c      	adds	r4, #12
   21e32:	2221      	movs	r2, #33	@ 0x21
   21e34:	9200      	str	r2, [sp, #0]
   21e36:	4620      	mov	r0, r4
   21e38:	f005 fa2f 	bl	2729a <__aeabi_memcpy>
   21e3c:	ae0f      	add	r6, sp, #60	@ 0x3c
   21e3e:	4635      	mov	r5, r6
   21e40:	350c      	adds	r5, #12
   21e42:	212a      	movs	r1, #42	@ 0x2a
   21e44:	4628      	mov	r0, r5
   21e46:	f005 f87b 	bl	26f40 <__aeabi_memclr4>
   21e4a:	9801      	ldr	r0, [sp, #4]
   21e4c:	7230      	strb	r0, [r6, #8]
   21e4e:	481f      	ldr	r0, [pc, #124]	@ (21ecc <_ZN20complex_full_dynamic3app17h69a10ebb9caa0603E+0xac>)
   21e50:	2601      	movs	r6, #1
   21e52:	4631      	mov	r1, r6
   21e54:	4622      	mov	r2, r4
   21e56:	9b00      	ldr	r3, [sp, #0]
   21e58:	df04      	svc	4
   21e5a:	2802      	cmp	r0, #2
   21e5c:	d018      	beq.n	21e90 <_ZN20complex_full_dynamic3app17h69a10ebb9caa0603E+0x70>
   21e5e:	a803      	add	r0, sp, #12
   21e60:	2104      	movs	r1, #4
   21e62:	7201      	strb	r1, [r0, #8]
   21e64:	9604      	str	r6, [sp, #16]
   21e66:	4819      	ldr	r0, [pc, #100]	@ (21ecc <_ZN20complex_full_dynamic3app17h69a10ebb9caa0603E+0xac>)
   21e68:	9003      	str	r0, [sp, #12]
   21e6a:	2403      	movs	r4, #3
   21e6c:	232a      	movs	r3, #42	@ 0x2a
   21e6e:	4621      	mov	r1, r4
   21e70:	462a      	mov	r2, r5
   21e72:	df03      	svc	3
   21e74:	2802      	cmp	r0, #2
   21e76:	d00b      	beq.n	21e90 <_ZN20complex_full_dynamic3app17h69a10ebb9caa0603E+0x70>
   21e78:	a80f      	add	r0, sp, #60	@ 0x3c
   21e7a:	7204      	strb	r4, [r0, #8]
   21e7c:	9410      	str	r4, [sp, #64]	@ 0x40
   21e7e:	4813      	ldr	r0, [pc, #76]	@ (21ecc <_ZN20complex_full_dynamic3app17h69a10ebb9caa0603E+0xac>)
   21e80:	900f      	str	r0, [sp, #60]	@ 0x3c
   21e82:	2101      	movs	r1, #1
   21e84:	2300      	movs	r3, #0
   21e86:	4622      	mov	r2, r4
   21e88:	9301      	str	r3, [sp, #4]
   21e8a:	df02      	svc	2
   21e8c:	287f      	cmp	r0, #127	@ 0x7f
   21e8e:	d80a      	bhi.n	21ea6 <_ZN20complex_full_dynamic3app17h69a10ebb9caa0603E+0x86>
   21e90:	9c02      	ldr	r4, [sp, #8]
   21e92:	6061      	str	r1, [r4, #4]
   21e94:	7026      	strb	r6, [r4, #0]
   21e96:	a80f      	add	r0, sp, #60	@ 0x3c
   21e98:	f005 f83e 	bl	26f18 <_ZN9allow_pin12full_dynamic17unshare_if_shared17hc627a04126f70c57E>
   21e9c:	a803      	add	r0, sp, #12
   21e9e:	f005 f83b 	bl	26f18 <_ZN9allow_pin12full_dynamic17unshare_if_shared17hc627a04126f70c57E>
   21ea2:	b01d      	add	sp, #116	@ 0x74
   21ea4:	bdf0      	pop	{r4, r5, r6, r7, pc}
   21ea6:	a803      	add	r0, sp, #12
   21ea8:	f005 f836 	bl	26f18 <_ZN9allow_pin12full_dynamic17unshare_if_shared17hc627a04126f70c57E>
   21eac:	ac0f      	add	r4, sp, #60	@ 0x3c
   21eae:	4620      	mov	r0, r4
   21eb0:	f005 f832 	bl	26f18 <_ZN9allow_pin12full_dynamic17unshare_if_shared17hc627a04126f70c57E>
   21eb4:	4620      	mov	r0, r4
   21eb6:	f005 f82f 	bl	26f18 <_ZN9allow_pin12full_dynamic17unshare_if_shared17hc627a04126f70c57E>
   21eba:	9c02      	ldr	r4, [sp, #8]
   21ebc:	1c60      	adds	r0, r4, #1
   21ebe:	222a      	movs	r2, #42	@ 0x2a
   21ec0:	4629      	mov	r1, r5
   21ec2:	f005 f9ea 	bl	2729a <__aeabi_memcpy>
   21ec6:	9e01      	ldr	r6, [sp, #4]
   21ec8:	e7e4      	b.n	21e94 <_ZN20complex_full_dynamic3app17h69a10ebb9caa0603E+0x74>
   21eca:	46c0      	nop			@ (mov r8, r8)
   21ecc:	000015f3 	.word	0x000015f3

00021ed0 <_ZN20complex_full_dynamic3app17h6abf90bd6a2e6aceE>:
   21ed0:	b5f0      	push	{r4, r5, r6, r7, lr}
   21ed2:	af03      	add	r7, sp, #12
   21ed4:	b0a3      	sub	sp, #140	@ 0x8c
   21ed6:	9002      	str	r0, [sp, #8]
   21ed8:	ac03      	add	r4, sp, #12
   21eda:	2002      	movs	r0, #2
   21edc:	9001      	str	r0, [sp, #4]
   21ede:	7220      	strb	r0, [r4, #8]
   21ee0:	340c      	adds	r4, #12
   21ee2:	2241      	movs	r2, #65	@ 0x41
   21ee4:	9200      	str	r2, [sp, #0]
   21ee6:	4620      	mov	r0, r4
   21ee8:	f005 f9d7 	bl	2729a <__aeabi_memcpy>
   21eec:	ae17      	add	r6, sp, #92	@ 0x5c
   21eee:	4635      	mov	r5, r6
   21ef0:	350c      	adds	r5, #12
   21ef2:	2122      	movs	r1, #34	@ 0x22
   21ef4:	4628      	mov	r0, r5
   21ef6:	f005 f823 	bl	26f40 <__aeabi_memclr4>
   21efa:	9801      	ldr	r0, [sp, #4]
   21efc:	7230      	strb	r0, [r6, #8]
   21efe:	481f      	ldr	r0, [pc, #124]	@ (21f7c <_ZN20complex_full_dynamic3app17h6abf90bd6a2e6aceE+0xac>)
   21f00:	2601      	movs	r6, #1
   21f02:	4631      	mov	r1, r6
   21f04:	4622      	mov	r2, r4
   21f06:	9b00      	ldr	r3, [sp, #0]
   21f08:	df04      	svc	4
   21f0a:	2802      	cmp	r0, #2
   21f0c:	d018      	beq.n	21f40 <_ZN20complex_full_dynamic3app17h6abf90bd6a2e6aceE+0x70>
   21f0e:	a803      	add	r0, sp, #12
   21f10:	2104      	movs	r1, #4
   21f12:	7201      	strb	r1, [r0, #8]
   21f14:	9604      	str	r6, [sp, #16]
   21f16:	4819      	ldr	r0, [pc, #100]	@ (21f7c <_ZN20complex_full_dynamic3app17h6abf90bd6a2e6aceE+0xac>)
   21f18:	9003      	str	r0, [sp, #12]
   21f1a:	2400      	movs	r4, #0
   21f1c:	2322      	movs	r3, #34	@ 0x22
   21f1e:	4621      	mov	r1, r4
   21f20:	462a      	mov	r2, r5
   21f22:	df03      	svc	3
   21f24:	2802      	cmp	r0, #2
   21f26:	d00b      	beq.n	21f40 <_ZN20complex_full_dynamic3app17h6abf90bd6a2e6aceE+0x70>
   21f28:	a817      	add	r0, sp, #92	@ 0x5c
   21f2a:	2103      	movs	r1, #3
   21f2c:	7201      	strb	r1, [r0, #8]
   21f2e:	4813      	ldr	r0, [pc, #76]	@ (21f7c <_ZN20complex_full_dynamic3app17h6abf90bd6a2e6aceE+0xac>)
   21f30:	9017      	str	r0, [sp, #92]	@ 0x5c
   21f32:	9418      	str	r4, [sp, #96]	@ 0x60
   21f34:	2101      	movs	r1, #1
   21f36:	4622      	mov	r2, r4
   21f38:	4623      	mov	r3, r4
   21f3a:	df02      	svc	2
   21f3c:	287f      	cmp	r0, #127	@ 0x7f
   21f3e:	d80a      	bhi.n	21f56 <_ZN20complex_full_dynamic3app17h6abf90bd6a2e6aceE+0x86>
   21f40:	9c02      	ldr	r4, [sp, #8]
   21f42:	6061      	str	r1, [r4, #4]
   21f44:	7026      	strb	r6, [r4, #0]
   21f46:	a817      	add	r0, sp, #92	@ 0x5c
   21f48:	f004 ffe6 	bl	26f18 <_ZN9allow_pin12full_dynamic17unshare_if_shared17hc627a04126f70c57E>
   21f4c:	a803      	add	r0, sp, #12
   21f4e:	f004 ffe3 	bl	26f18 <_ZN9allow_pin12full_dynamic17unshare_if_shared17hc627a04126f70c57E>
   21f52:	b023      	add	sp, #140	@ 0x8c
   21f54:	bdf0      	pop	{r4, r5, r6, r7, pc}
   21f56:	a803      	add	r0, sp, #12
   21f58:	f004 ffde 	bl	26f18 <_ZN9allow_pin12full_dynamic17unshare_if_shared17hc627a04126f70c57E>
   21f5c:	4626      	mov	r6, r4
   21f5e:	ac17      	add	r4, sp, #92	@ 0x5c
   21f60:	4620      	mov	r0, r4
   21f62:	f004 ffd9 	bl	26f18 <_ZN9allow_pin12full_dynamic17unshare_if_shared17hc627a04126f70c57E>
   21f66:	4620      	mov	r0, r4
   21f68:	f004 ffd6 	bl	26f18 <_ZN9allow_pin12full_dynamic17unshare_if_shared17hc627a04126f70c57E>
   21f6c:	9c02      	ldr	r4, [sp, #8]
   21f6e:	1c60      	adds	r0, r4, #1
   21f70:	2222      	movs	r2, #34	@ 0x22
   21f72:	4629      	mov	r1, r5
   21f74:	f005 f991 	bl	2729a <__aeabi_memcpy>
   21f78:	e7e4      	b.n	21f44 <_ZN20complex_full_dynamic3app17h6abf90bd6a2e6aceE+0x74>
   21f7a:	46c0      	nop			@ (mov r8, r8)
   21f7c:	0000247c 	.word	0x0000247c

00021f80 <_ZN20complex_full_dynamic3app17h6dbc431087d518e5E>:
   21f80:	b5f0      	push	{r4, r5, r6, r7, lr}
   21f82:	af03      	add	r7, sp, #12
   21f84:	b0b3      	sub	sp, #204	@ 0xcc
   21f86:	9003      	str	r0, [sp, #12]
   21f88:	ac04      	add	r4, sp, #16
   21f8a:	2002      	movs	r0, #2
   21f8c:	9002      	str	r0, [sp, #8]
   21f8e:	7220      	strb	r0, [r4, #8]
   21f90:	340c      	adds	r4, #12
   21f92:	2253      	movs	r2, #83	@ 0x53
   21f94:	9201      	str	r2, [sp, #4]
   21f96:	4620      	mov	r0, r4
   21f98:	f005 f97f 	bl	2729a <__aeabi_memcpy>
   21f9c:	ae1c      	add	r6, sp, #112	@ 0x70
   21f9e:	4635      	mov	r5, r6
   21fa0:	350c      	adds	r5, #12
   21fa2:	214d      	movs	r1, #77	@ 0x4d
   21fa4:	4628      	mov	r0, r5
   21fa6:	f004 ffcb 	bl	26f40 <__aeabi_memclr4>
   21faa:	9802      	ldr	r0, [sp, #8]
   21fac:	7230      	strb	r0, [r6, #8]
   21fae:	481f      	ldr	r0, [pc, #124]	@ (2202c <_ZN20complex_full_dynamic3app17h6dbc431087d518e5E+0xac>)
   21fb0:	2609      	movs	r6, #9
   21fb2:	4631      	mov	r1, r6
   21fb4:	4622      	mov	r2, r4
   21fb6:	9b01      	ldr	r3, [sp, #4]
   21fb8:	df04      	svc	4
   21fba:	2802      	cmp	r0, #2
   21fbc:	d019      	beq.n	21ff2 <_ZN20complex_full_dynamic3app17h6dbc431087d518e5E+0x72>
   21fbe:	a804      	add	r0, sp, #16
   21fc0:	2404      	movs	r4, #4
   21fc2:	7204      	strb	r4, [r0, #8]
   21fc4:	9605      	str	r6, [sp, #20]
   21fc6:	4e19      	ldr	r6, [pc, #100]	@ (2202c <_ZN20complex_full_dynamic3app17h6dbc431087d518e5E+0xac>)
   21fc8:	9604      	str	r6, [sp, #16]
   21fca:	234d      	movs	r3, #77	@ 0x4d
   21fcc:	4630      	mov	r0, r6
   21fce:	4621      	mov	r1, r4
   21fd0:	462a      	mov	r2, r5
   21fd2:	df03      	svc	3
   21fd4:	2802      	cmp	r0, #2
   21fd6:	d00c      	beq.n	21ff2 <_ZN20complex_full_dynamic3app17h6dbc431087d518e5E+0x72>
   21fd8:	a81c      	add	r0, sp, #112	@ 0x70
   21fda:	2103      	movs	r1, #3
   21fdc:	7201      	strb	r1, [r0, #8]
   21fde:	961c      	str	r6, [sp, #112]	@ 0x70
   21fe0:	941d      	str	r4, [sp, #116]	@ 0x74
   21fe2:	4812      	ldr	r0, [pc, #72]	@ (2202c <_ZN20complex_full_dynamic3app17h6dbc431087d518e5E+0xac>)
   21fe4:	2109      	movs	r1, #9
   21fe6:	2600      	movs	r6, #0
   21fe8:	4622      	mov	r2, r4
   21fea:	4633      	mov	r3, r6
   21fec:	df02      	svc	2
   21fee:	287f      	cmp	r0, #127	@ 0x7f
   21ff0:	d80b      	bhi.n	2200a <_ZN20complex_full_dynamic3app17h6dbc431087d518e5E+0x8a>
   21ff2:	9c03      	ldr	r4, [sp, #12]
   21ff4:	6061      	str	r1, [r4, #4]
   21ff6:	2601      	movs	r6, #1
   21ff8:	7026      	strb	r6, [r4, #0]
   21ffa:	a81c      	add	r0, sp, #112	@ 0x70
   21ffc:	f004 ff8c 	bl	26f18 <_ZN9allow_pin12full_dynamic17unshare_if_shared17hc627a04126f70c57E>
   22000:	a804      	add	r0, sp, #16
   22002:	f004 ff89 	bl	26f18 <_ZN9allow_pin12full_dynamic17unshare_if_shared17hc627a04126f70c57E>
   22006:	b033      	add	sp, #204	@ 0xcc
   22008:	bdf0      	pop	{r4, r5, r6, r7, pc}
   2200a:	a804      	add	r0, sp, #16
   2200c:	f004 ff84 	bl	26f18 <_ZN9allow_pin12full_dynamic17unshare_if_shared17hc627a04126f70c57E>
   22010:	ac1c      	add	r4, sp, #112	@ 0x70
   22012:	4620      	mov	r0, r4
   22014:	f004 ff80 	bl	26f18 <_ZN9allow_pin12full_dynamic17unshare_if_shared17hc627a04126f70c57E>
   22018:	4620      	mov	r0, r4
   2201a:	f004 ff7d 	bl	26f18 <_ZN9allow_pin12full_dynamic17unshare_if_shared17hc627a04126f70c57E>
   2201e:	9c03      	ldr	r4, [sp, #12]
   22020:	1c60      	adds	r0, r4, #1
   22022:	224d      	movs	r2, #77	@ 0x4d
   22024:	4629      	mov	r1, r5
   22026:	f005 f938 	bl	2729a <__aeabi_memcpy>
   2202a:	e7e5      	b.n	21ff8 <_ZN20complex_full_dynamic3app17h6dbc431087d518e5E+0x78>
   2202c:	000016ba 	.word	0x000016ba

00022030 <_ZN20complex_full_dynamic3app17h6eb4ec99a92c02b5E>:
   22030:	b5f0      	push	{r4, r5, r6, r7, lr}
   22032:	af03      	add	r7, sp, #12
   22034:	b0a9      	sub	sp, #164	@ 0xa4
   22036:	9003      	str	r0, [sp, #12]
   22038:	ac04      	add	r4, sp, #16
   2203a:	2602      	movs	r6, #2
   2203c:	7226      	strb	r6, [r4, #8]
   2203e:	340c      	adds	r4, #12
   22040:	224a      	movs	r2, #74	@ 0x4a
   22042:	9202      	str	r2, [sp, #8]
   22044:	4620      	mov	r0, r4
   22046:	f005 f928 	bl	2729a <__aeabi_memcpy>
   2204a:	ad1a      	add	r5, sp, #104	@ 0x68
   2204c:	4628      	mov	r0, r5
   2204e:	300c      	adds	r0, #12
   22050:	212d      	movs	r1, #45	@ 0x2d
   22052:	9001      	str	r0, [sp, #4]
   22054:	f004 ff74 	bl	26f40 <__aeabi_memclr4>
   22058:	722e      	strb	r6, [r5, #8]
   2205a:	4635      	mov	r5, r6
   2205c:	4e1f      	ldr	r6, [pc, #124]	@ (220dc <_ZN20complex_full_dynamic3app17h6eb4ec99a92c02b5E+0xac>)
   2205e:	4630      	mov	r0, r6
   22060:	4629      	mov	r1, r5
   22062:	4622      	mov	r2, r4
   22064:	9b02      	ldr	r3, [sp, #8]
   22066:	df04      	svc	4
   22068:	2802      	cmp	r0, #2
   2206a:	d019      	beq.n	220a0 <_ZN20complex_full_dynamic3app17h6eb4ec99a92c02b5E+0x70>
   2206c:	a804      	add	r0, sp, #16
   2206e:	2104      	movs	r1, #4
   22070:	7201      	strb	r1, [r0, #8]
   22072:	9505      	str	r5, [sp, #20]
   22074:	9604      	str	r6, [sp, #16]
   22076:	2403      	movs	r4, #3
   22078:	232d      	movs	r3, #45	@ 0x2d
   2207a:	4630      	mov	r0, r6
   2207c:	4621      	mov	r1, r4
   2207e:	9d01      	ldr	r5, [sp, #4]
   22080:	462a      	mov	r2, r5
   22082:	df03      	svc	3
   22084:	2802      	cmp	r0, #2
   22086:	d00b      	beq.n	220a0 <_ZN20complex_full_dynamic3app17h6eb4ec99a92c02b5E+0x70>
   22088:	a81a      	add	r0, sp, #104	@ 0x68
   2208a:	7204      	strb	r4, [r0, #8]
   2208c:	941b      	str	r4, [sp, #108]	@ 0x6c
   2208e:	961a      	str	r6, [sp, #104]	@ 0x68
   22090:	4812      	ldr	r0, [pc, #72]	@ (220dc <_ZN20complex_full_dynamic3app17h6eb4ec99a92c02b5E+0xac>)
   22092:	2102      	movs	r1, #2
   22094:	2600      	movs	r6, #0
   22096:	4622      	mov	r2, r4
   22098:	4633      	mov	r3, r6
   2209a:	df02      	svc	2
   2209c:	287f      	cmp	r0, #127	@ 0x7f
   2209e:	d80b      	bhi.n	220b8 <_ZN20complex_full_dynamic3app17h6eb4ec99a92c02b5E+0x88>
   220a0:	9c03      	ldr	r4, [sp, #12]
   220a2:	6061      	str	r1, [r4, #4]
   220a4:	2601      	movs	r6, #1
   220a6:	7026      	strb	r6, [r4, #0]
   220a8:	a81a      	add	r0, sp, #104	@ 0x68
   220aa:	f004 ff35 	bl	26f18 <_ZN9allow_pin12full_dynamic17unshare_if_shared17hc627a04126f70c57E>
   220ae:	a804      	add	r0, sp, #16
   220b0:	f004 ff32 	bl	26f18 <_ZN9allow_pin12full_dynamic17unshare_if_shared17hc627a04126f70c57E>
   220b4:	b029      	add	sp, #164	@ 0xa4
   220b6:	bdf0      	pop	{r4, r5, r6, r7, pc}
   220b8:	a804      	add	r0, sp, #16
   220ba:	f004 ff2d 	bl	26f18 <_ZN9allow_pin12full_dynamic17unshare_if_shared17hc627a04126f70c57E>
   220be:	ac1a      	add	r4, sp, #104	@ 0x68
   220c0:	4620      	mov	r0, r4
   220c2:	f004 ff29 	bl	26f18 <_ZN9allow_pin12full_dynamic17unshare_if_shared17hc627a04126f70c57E>
   220c6:	4620      	mov	r0, r4
   220c8:	f004 ff26 	bl	26f18 <_ZN9allow_pin12full_dynamic17unshare_if_shared17hc627a04126f70c57E>
   220cc:	9c03      	ldr	r4, [sp, #12]
   220ce:	1c60      	adds	r0, r4, #1
   220d0:	222d      	movs	r2, #45	@ 0x2d
   220d2:	4629      	mov	r1, r5
   220d4:	f005 f8e1 	bl	2729a <__aeabi_memcpy>
   220d8:	e7e5      	b.n	220a6 <_ZN20complex_full_dynamic3app17h6eb4ec99a92c02b5E+0x76>
   220da:	46c0      	nop			@ (mov r8, r8)
   220dc:	00000e3d 	.word	0x00000e3d

000220e0 <_ZN20complex_full_dynamic3app17h742212fefadfb77dE>:
   220e0:	b5f0      	push	{r4, r5, r6, r7, lr}
   220e2:	af03      	add	r7, sp, #12
   220e4:	b09d      	sub	sp, #116	@ 0x74
   220e6:	9003      	str	r0, [sp, #12]
   220e8:	ae04      	add	r6, sp, #16
   220ea:	2002      	movs	r0, #2
   220ec:	9002      	str	r0, [sp, #8]
   220ee:	7230      	strb	r0, [r6, #8]
   220f0:	360c      	adds	r6, #12
   220f2:	221e      	movs	r2, #30
   220f4:	9201      	str	r2, [sp, #4]
   220f6:	4630      	mov	r0, r6
   220f8:	f005 f8cf 	bl	2729a <__aeabi_memcpy>
   220fc:	ac0f      	add	r4, sp, #60	@ 0x3c
   220fe:	4625      	mov	r5, r4
   22100:	350c      	adds	r5, #12
   22102:	212c      	movs	r1, #44	@ 0x2c
   22104:	4628      	mov	r0, r5
   22106:	f004 ff1b 	bl	26f40 <__aeabi_memclr4>
   2210a:	9802      	ldr	r0, [sp, #8]
   2210c:	7220      	strb	r0, [r4, #8]
   2210e:	481f      	ldr	r0, [pc, #124]	@ (2218c <_ZN20complex_full_dynamic3app17h742212fefadfb77dE+0xac>)
   22110:	2407      	movs	r4, #7
   22112:	4621      	mov	r1, r4
   22114:	4632      	mov	r2, r6
   22116:	9b01      	ldr	r3, [sp, #4]
   22118:	df04      	svc	4
   2211a:	2802      	cmp	r0, #2
   2211c:	d019      	beq.n	22152 <_ZN20complex_full_dynamic3app17h742212fefadfb77dE+0x72>
   2211e:	a804      	add	r0, sp, #16
   22120:	2104      	movs	r1, #4
   22122:	7201      	strb	r1, [r0, #8]
   22124:	9405      	str	r4, [sp, #20]
   22126:	4c19      	ldr	r4, [pc, #100]	@ (2218c <_ZN20complex_full_dynamic3app17h742212fefadfb77dE+0xac>)
   22128:	9404      	str	r4, [sp, #16]
   2212a:	2600      	movs	r6, #0
   2212c:	232c      	movs	r3, #44	@ 0x2c
   2212e:	4620      	mov	r0, r4
   22130:	4631      	mov	r1, r6
   22132:	462a      	mov	r2, r5
   22134:	df03      	svc	3
   22136:	2802      	cmp	r0, #2
   22138:	d00b      	beq.n	22152 <_ZN20complex_full_dynamic3app17h742212fefadfb77dE+0x72>
   2213a:	a80f      	add	r0, sp, #60	@ 0x3c
   2213c:	2103      	movs	r1, #3
   2213e:	7201      	strb	r1, [r0, #8]
   22140:	940f      	str	r4, [sp, #60]	@ 0x3c
   22142:	9610      	str	r6, [sp, #64]	@ 0x40
   22144:	4811      	ldr	r0, [pc, #68]	@ (2218c <_ZN20complex_full_dynamic3app17h742212fefadfb77dE+0xac>)
   22146:	2107      	movs	r1, #7
   22148:	4632      	mov	r2, r6
   2214a:	4633      	mov	r3, r6
   2214c:	df02      	svc	2
   2214e:	287f      	cmp	r0, #127	@ 0x7f
   22150:	d80b      	bhi.n	2216a <_ZN20complex_full_dynamic3app17h742212fefadfb77dE+0x8a>
   22152:	9c03      	ldr	r4, [sp, #12]
   22154:	6061      	str	r1, [r4, #4]
   22156:	2601      	movs	r6, #1
   22158:	7026      	strb	r6, [r4, #0]
   2215a:	a80f      	add	r0, sp, #60	@ 0x3c
   2215c:	f004 fedc 	bl	26f18 <_ZN9allow_pin12full_dynamic17unshare_if_shared17hc627a04126f70c57E>
   22160:	a804      	add	r0, sp, #16
   22162:	f004 fed9 	bl	26f18 <_ZN9allow_pin12full_dynamic17unshare_if_shared17hc627a04126f70c57E>
   22166:	b01d      	add	sp, #116	@ 0x74
   22168:	bdf0      	pop	{r4, r5, r6, r7, pc}
   2216a:	a804      	add	r0, sp, #16
   2216c:	f004 fed4 	bl	26f18 <_ZN9allow_pin12full_dynamic17unshare_if_shared17hc627a04126f70c57E>
   22170:	ac0f      	add	r4, sp, #60	@ 0x3c
   22172:	4620      	mov	r0, r4
   22174:	f004 fed0 	bl	26f18 <_ZN9allow_pin12full_dynamic17unshare_if_shared17hc627a04126f70c57E>
   22178:	4620      	mov	r0, r4
   2217a:	f004 fecd 	bl	26f18 <_ZN9allow_pin12full_dynamic17unshare_if_shared17hc627a04126f70c57E>
   2217e:	9c03      	ldr	r4, [sp, #12]
   22180:	1c60      	adds	r0, r4, #1
   22182:	222c      	movs	r2, #44	@ 0x2c
   22184:	4629      	mov	r1, r5
   22186:	f005 f888 	bl	2729a <__aeabi_memcpy>
   2218a:	e7e5      	b.n	22158 <_ZN20complex_full_dynamic3app17h742212fefadfb77dE+0x78>
   2218c:	000003fb 	.word	0x000003fb

00022190 <_ZN20complex_full_dynamic3app17h744e32e3583bf296E>:
   22190:	b5f0      	push	{r4, r5, r6, r7, lr}
   22192:	af03      	add	r7, sp, #12
   22194:	b09f      	sub	sp, #124	@ 0x7c
   22196:	9001      	str	r0, [sp, #4]
   22198:	ac02      	add	r4, sp, #8
   2219a:	2502      	movs	r5, #2
   2219c:	7225      	strb	r5, [r4, #8]
   2219e:	340c      	adds	r4, #12
   221a0:	263f      	movs	r6, #63	@ 0x3f
   221a2:	4620      	mov	r0, r4
   221a4:	4632      	mov	r2, r6
   221a6:	f005 f878 	bl	2729a <__aeabi_memcpy>
   221aa:	a815      	add	r0, sp, #84	@ 0x54
   221ac:	9000      	str	r0, [sp, #0]
   221ae:	7205      	strb	r5, [r0, #8]
   221b0:	2000      	movs	r0, #0
   221b2:	901e      	str	r0, [sp, #120]	@ 0x78
   221b4:	901d      	str	r0, [sp, #116]	@ 0x74
   221b6:	901c      	str	r0, [sp, #112]	@ 0x70
   221b8:	901b      	str	r0, [sp, #108]	@ 0x6c
   221ba:	901a      	str	r0, [sp, #104]	@ 0x68
   221bc:	9019      	str	r0, [sp, #100]	@ 0x64
   221be:	9018      	str	r0, [sp, #96]	@ 0x60
   221c0:	4820      	ldr	r0, [pc, #128]	@ (22244 <_ZN20complex_full_dynamic3app17h744e32e3583bf296E+0xb4>)
   221c2:	2505      	movs	r5, #5
   221c4:	4629      	mov	r1, r5
   221c6:	4622      	mov	r2, r4
   221c8:	4633      	mov	r3, r6
   221ca:	df04      	svc	4
   221cc:	2802      	cmp	r0, #2
   221ce:	d01c      	beq.n	2220a <_ZN20complex_full_dynamic3app17h744e32e3583bf296E+0x7a>
   221d0:	9e00      	ldr	r6, [sp, #0]
   221d2:	360c      	adds	r6, #12
   221d4:	a802      	add	r0, sp, #8
   221d6:	2104      	movs	r1, #4
   221d8:	7201      	strb	r1, [r0, #8]
   221da:	9503      	str	r5, [sp, #12]
   221dc:	4819      	ldr	r0, [pc, #100]	@ (22244 <_ZN20complex_full_dynamic3app17h744e32e3583bf296E+0xb4>)
   221de:	9002      	str	r0, [sp, #8]
   221e0:	2409      	movs	r4, #9
   221e2:	231c      	movs	r3, #28
   221e4:	4621      	mov	r1, r4
   221e6:	4632      	mov	r2, r6
   221e8:	df03      	svc	3
   221ea:	2802      	cmp	r0, #2
   221ec:	d00d      	beq.n	2220a <_ZN20complex_full_dynamic3app17h744e32e3583bf296E+0x7a>
   221ee:	4635      	mov	r5, r6
   221f0:	a815      	add	r0, sp, #84	@ 0x54
   221f2:	2103      	movs	r1, #3
   221f4:	7201      	strb	r1, [r0, #8]
   221f6:	4813      	ldr	r0, [pc, #76]	@ (22244 <_ZN20complex_full_dynamic3app17h744e32e3583bf296E+0xb4>)
   221f8:	9015      	str	r0, [sp, #84]	@ 0x54
   221fa:	9416      	str	r4, [sp, #88]	@ 0x58
   221fc:	2105      	movs	r1, #5
   221fe:	2600      	movs	r6, #0
   22200:	4622      	mov	r2, r4
   22202:	4633      	mov	r3, r6
   22204:	df02      	svc	2
   22206:	287f      	cmp	r0, #127	@ 0x7f
   22208:	d80b      	bhi.n	22222 <_ZN20complex_full_dynamic3app17h744e32e3583bf296E+0x92>
   2220a:	9c01      	ldr	r4, [sp, #4]
   2220c:	6061      	str	r1, [r4, #4]
   2220e:	2601      	movs	r6, #1
   22210:	7026      	strb	r6, [r4, #0]
   22212:	a815      	add	r0, sp, #84	@ 0x54
   22214:	f004 fe80 	bl	26f18 <_ZN9allow_pin12full_dynamic17unshare_if_shared17hc627a04126f70c57E>
   22218:	a802      	add	r0, sp, #8
   2221a:	f004 fe7d 	bl	26f18 <_ZN9allow_pin12full_dynamic17unshare_if_shared17hc627a04126f70c57E>
   2221e:	b01f      	add	sp, #124	@ 0x7c
   22220:	bdf0      	pop	{r4, r5, r6, r7, pc}
   22222:	a802      	add	r0, sp, #8
   22224:	f004 fe78 	bl	26f18 <_ZN9allow_pin12full_dynamic17unshare_if_shared17hc627a04126f70c57E>
   22228:	ac15      	add	r4, sp, #84	@ 0x54
   2222a:	4620      	mov	r0, r4
   2222c:	f004 fe74 	bl	26f18 <_ZN9allow_pin12full_dynamic17unshare_if_shared17hc627a04126f70c57E>
   22230:	4620      	mov	r0, r4
   22232:	f004 fe71 	bl	26f18 <_ZN9allow_pin12full_dynamic17unshare_if_shared17hc627a04126f70c57E>
   22236:	9c01      	ldr	r4, [sp, #4]
   22238:	1c60      	adds	r0, r4, #1
   2223a:	221c      	movs	r2, #28
   2223c:	4629      	mov	r1, r5
   2223e:	f005 f82c 	bl	2729a <__aeabi_memcpy>
   22242:	e7e5      	b.n	22210 <_ZN20complex_full_dynamic3app17h744e32e3583bf296E+0x80>
   22244:	00001694 	.word	0x00001694

00022248 <_ZN20complex_full_dynamic3app17h7708849263a7b41cE>:
   22248:	b5f0      	push	{r4, r5, r6, r7, lr}
   2224a:	af03      	add	r7, sp, #12
   2224c:	b097      	sub	sp, #92	@ 0x5c
   2224e:	9001      	str	r0, [sp, #4]
   22250:	ac02      	add	r4, sp, #8
   22252:	2502      	movs	r5, #2
   22254:	7225      	strb	r5, [r4, #8]
   22256:	340c      	adds	r4, #12
   22258:	2627      	movs	r6, #39	@ 0x27
   2225a:	4620      	mov	r0, r4
   2225c:	4632      	mov	r2, r6
   2225e:	f005 f81c 	bl	2729a <__aeabi_memcpy>
   22262:	a80f      	add	r0, sp, #60	@ 0x3c
   22264:	9000      	str	r0, [sp, #0]
   22266:	7205      	strb	r5, [r0, #8]
   22268:	2000      	movs	r0, #0
   2226a:	9016      	str	r0, [sp, #88]	@ 0x58
   2226c:	9015      	str	r0, [sp, #84]	@ 0x54
   2226e:	9014      	str	r0, [sp, #80]	@ 0x50
   22270:	9013      	str	r0, [sp, #76]	@ 0x4c
   22272:	9012      	str	r0, [sp, #72]	@ 0x48
   22274:	4820      	ldr	r0, [pc, #128]	@ (222f8 <_ZN20complex_full_dynamic3app17h7708849263a7b41cE+0xb0>)
   22276:	2506      	movs	r5, #6
   22278:	4629      	mov	r1, r5
   2227a:	4622      	mov	r2, r4
   2227c:	4633      	mov	r3, r6
   2227e:	df04      	svc	4
   22280:	2802      	cmp	r0, #2
   22282:	d01c      	beq.n	222be <_ZN20complex_full_dynamic3app17h7708849263a7b41cE+0x76>
   22284:	9e00      	ldr	r6, [sp, #0]
   22286:	360c      	adds	r6, #12
   22288:	a802      	add	r0, sp, #8
   2228a:	2104      	movs	r1, #4
   2228c:	7201      	strb	r1, [r0, #8]
   2228e:	9503      	str	r5, [sp, #12]
   22290:	4819      	ldr	r0, [pc, #100]	@ (222f8 <_ZN20complex_full_dynamic3app17h7708849263a7b41cE+0xb0>)
   22292:	9002      	str	r0, [sp, #8]
   22294:	2405      	movs	r4, #5
   22296:	2314      	movs	r3, #20
   22298:	4621      	mov	r1, r4
   2229a:	4632      	mov	r2, r6
   2229c:	df03      	svc	3
   2229e:	2802      	cmp	r0, #2
   222a0:	d00d      	beq.n	222be <_ZN20complex_full_dynamic3app17h7708849263a7b41cE+0x76>
   222a2:	4635      	mov	r5, r6
   222a4:	a80f      	add	r0, sp, #60	@ 0x3c
   222a6:	2103      	movs	r1, #3
   222a8:	7201      	strb	r1, [r0, #8]
   222aa:	4813      	ldr	r0, [pc, #76]	@ (222f8 <_ZN20complex_full_dynamic3app17h7708849263a7b41cE+0xb0>)
   222ac:	900f      	str	r0, [sp, #60]	@ 0x3c
   222ae:	9410      	str	r4, [sp, #64]	@ 0x40
   222b0:	2106      	movs	r1, #6
   222b2:	2600      	movs	r6, #0
   222b4:	4622      	mov	r2, r4
   222b6:	4633      	mov	r3, r6
   222b8:	df02      	svc	2
   222ba:	287f      	cmp	r0, #127	@ 0x7f
   222bc:	d80b      	bhi.n	222d6 <_ZN20complex_full_dynamic3app17h7708849263a7b41cE+0x8e>
   222be:	9c01      	ldr	r4, [sp, #4]
   222c0:	6061      	str	r1, [r4, #4]
   222c2:	2601      	movs	r6, #1
   222c4:	7026      	strb	r6, [r4, #0]
   222c6:	a80f      	add	r0, sp, #60	@ 0x3c
   222c8:	f004 fe26 	bl	26f18 <_ZN9allow_pin12full_dynamic17unshare_if_shared17hc627a04126f70c57E>
   222cc:	a802      	add	r0, sp, #8
   222ce:	f004 fe23 	bl	26f18 <_ZN9allow_pin12full_dynamic17unshare_if_shared17hc627a04126f70c57E>
   222d2:	b017      	add	sp, #92	@ 0x5c
   222d4:	bdf0      	pop	{r4, r5, r6, r7, pc}
   222d6:	a802      	add	r0, sp, #8
   222d8:	f004 fe1e 	bl	26f18 <_ZN9allow_pin12full_dynamic17unshare_if_shared17hc627a04126f70c57E>
   222dc:	ac0f      	add	r4, sp, #60	@ 0x3c
   222de:	4620      	mov	r0, r4
   222e0:	f004 fe1a 	bl	26f18 <_ZN9allow_pin12full_dynamic17unshare_if_shared17hc627a04126f70c57E>
   222e4:	4620      	mov	r0, r4
   222e6:	f004 fe17 	bl	26f18 <_ZN9allow_pin12full_dynamic17unshare_if_shared17hc627a04126f70c57E>
   222ea:	9c01      	ldr	r4, [sp, #4]
   222ec:	1c60      	adds	r0, r4, #1
   222ee:	2214      	movs	r2, #20
   222f0:	4629      	mov	r1, r5
   222f2:	f004 ffd2 	bl	2729a <__aeabi_memcpy>
   222f6:	e7e5      	b.n	222c4 <_ZN20complex_full_dynamic3app17h7708849263a7b41cE+0x7c>
   222f8:	000022c9 	.word	0x000022c9

000222fc <_ZN20complex_full_dynamic3app17h7922c01f5757a325E>:
   222fc:	b5f0      	push	{r4, r5, r6, r7, lr}
   222fe:	af03      	add	r7, sp, #12
   22300:	b0b3      	sub	sp, #204	@ 0xcc
   22302:	9003      	str	r0, [sp, #12]
   22304:	ac04      	add	r4, sp, #16
   22306:	2002      	movs	r0, #2
   22308:	9002      	str	r0, [sp, #8]
   2230a:	7220      	strb	r0, [r4, #8]
   2230c:	340c      	adds	r4, #12
   2230e:	2251      	movs	r2, #81	@ 0x51
   22310:	9201      	str	r2, [sp, #4]
   22312:	4620      	mov	r0, r4
   22314:	f004 ffc1 	bl	2729a <__aeabi_memcpy>
   22318:	ae1c      	add	r6, sp, #112	@ 0x70
   2231a:	4635      	mov	r5, r6
   2231c:	350c      	adds	r5, #12
   2231e:	214f      	movs	r1, #79	@ 0x4f
   22320:	4628      	mov	r0, r5
   22322:	f004 fe0d 	bl	26f40 <__aeabi_memclr4>
   22326:	9802      	ldr	r0, [sp, #8]
   22328:	7230      	strb	r0, [r6, #8]
   2232a:	481f      	ldr	r0, [pc, #124]	@ (223a8 <_ZN20complex_full_dynamic3app17h7922c01f5757a325E+0xac>)
   2232c:	2604      	movs	r6, #4
   2232e:	4631      	mov	r1, r6
   22330:	4622      	mov	r2, r4
   22332:	9b01      	ldr	r3, [sp, #4]
   22334:	df04      	svc	4
   22336:	2802      	cmp	r0, #2
   22338:	d019      	beq.n	2236e <_ZN20complex_full_dynamic3app17h7922c01f5757a325E+0x72>
   2233a:	a804      	add	r0, sp, #16
   2233c:	7206      	strb	r6, [r0, #8]
   2233e:	9605      	str	r6, [sp, #20]
   22340:	4e19      	ldr	r6, [pc, #100]	@ (223a8 <_ZN20complex_full_dynamic3app17h7922c01f5757a325E+0xac>)
   22342:	9604      	str	r6, [sp, #16]
   22344:	2409      	movs	r4, #9
   22346:	234f      	movs	r3, #79	@ 0x4f
   22348:	4630      	mov	r0, r6
   2234a:	4621      	mov	r1, r4
   2234c:	462a      	mov	r2, r5
   2234e:	df03      	svc	3
   22350:	2802      	cmp	r0, #2
   22352:	d00c      	beq.n	2236e <_ZN20complex_full_dynamic3app17h7922c01f5757a325E+0x72>
   22354:	a81c      	add	r0, sp, #112	@ 0x70
   22356:	2103      	movs	r1, #3
   22358:	7201      	strb	r1, [r0, #8]
   2235a:	961c      	str	r6, [sp, #112]	@ 0x70
   2235c:	941d      	str	r4, [sp, #116]	@ 0x74
   2235e:	4812      	ldr	r0, [pc, #72]	@ (223a8 <_ZN20complex_full_dynamic3app17h7922c01f5757a325E+0xac>)
   22360:	2104      	movs	r1, #4
   22362:	2600      	movs	r6, #0
   22364:	4622      	mov	r2, r4
   22366:	4633      	mov	r3, r6
   22368:	df02      	svc	2
   2236a:	287f      	cmp	r0, #127	@ 0x7f
   2236c:	d80b      	bhi.n	22386 <_ZN20complex_full_dynamic3app17h7922c01f5757a325E+0x8a>
   2236e:	9c03      	ldr	r4, [sp, #12]
   22370:	6061      	str	r1, [r4, #4]
   22372:	2601      	movs	r6, #1
   22374:	7026      	strb	r6, [r4, #0]
   22376:	a81c      	add	r0, sp, #112	@ 0x70
   22378:	f004 fdce 	bl	26f18 <_ZN9allow_pin12full_dynamic17unshare_if_shared17hc627a04126f70c57E>
   2237c:	a804      	add	r0, sp, #16
   2237e:	f004 fdcb 	bl	26f18 <_ZN9allow_pin12full_dynamic17unshare_if_shared17hc627a04126f70c57E>
   22382:	b033      	add	sp, #204	@ 0xcc
   22384:	bdf0      	pop	{r4, r5, r6, r7, pc}
   22386:	a804      	add	r0, sp, #16
   22388:	f004 fdc6 	bl	26f18 <_ZN9allow_pin12full_dynamic17unshare_if_shared17hc627a04126f70c57E>
   2238c:	ac1c      	add	r4, sp, #112	@ 0x70
   2238e:	4620      	mov	r0, r4
   22390:	f004 fdc2 	bl	26f18 <_ZN9allow_pin12full_dynamic17unshare_if_shared17hc627a04126f70c57E>
   22394:	4620      	mov	r0, r4
   22396:	f004 fdbf 	bl	26f18 <_ZN9allow_pin12full_dynamic17unshare_if_shared17hc627a04126f70c57E>
   2239a:	9c03      	ldr	r4, [sp, #12]
   2239c:	1c60      	adds	r0, r4, #1
   2239e:	224f      	movs	r2, #79	@ 0x4f
   223a0:	4629      	mov	r1, r5
   223a2:	f004 ff7a 	bl	2729a <__aeabi_memcpy>
   223a6:	e7e5      	b.n	22374 <_ZN20complex_full_dynamic3app17h7922c01f5757a325E+0x78>
   223a8:	000020ee 	.word	0x000020ee

000223ac <_ZN20complex_full_dynamic3app17h7d1fd940084578deE>:
   223ac:	b5f0      	push	{r4, r5, r6, r7, lr}
   223ae:	af03      	add	r7, sp, #12
   223b0:	b0a7      	sub	sp, #156	@ 0x9c
   223b2:	9003      	str	r0, [sp, #12]
   223b4:	ac04      	add	r4, sp, #16
   223b6:	2602      	movs	r6, #2
   223b8:	7226      	strb	r6, [r4, #8]
   223ba:	340c      	adds	r4, #12
   223bc:	221e      	movs	r2, #30
   223be:	9202      	str	r2, [sp, #8]
   223c0:	4620      	mov	r0, r4
   223c2:	f004 ff6a 	bl	2729a <__aeabi_memcpy>
   223c6:	ad0f      	add	r5, sp, #60	@ 0x3c
   223c8:	4628      	mov	r0, r5
   223ca:	300c      	adds	r0, #12
   223cc:	2151      	movs	r1, #81	@ 0x51
   223ce:	9001      	str	r0, [sp, #4]
   223d0:	f004 fdb6 	bl	26f40 <__aeabi_memclr4>
   223d4:	722e      	strb	r6, [r5, #8]
   223d6:	4635      	mov	r5, r6
   223d8:	4e1f      	ldr	r6, [pc, #124]	@ (22458 <_ZN20complex_full_dynamic3app17h7d1fd940084578deE+0xac>)
   223da:	4630      	mov	r0, r6
   223dc:	4629      	mov	r1, r5
   223de:	4622      	mov	r2, r4
   223e0:	9b02      	ldr	r3, [sp, #8]
   223e2:	df04      	svc	4
   223e4:	2802      	cmp	r0, #2
   223e6:	d01a      	beq.n	2241e <_ZN20complex_full_dynamic3app17h7d1fd940084578deE+0x72>
   223e8:	a804      	add	r0, sp, #16
   223ea:	2104      	movs	r1, #4
   223ec:	7201      	strb	r1, [r0, #8]
   223ee:	9505      	str	r5, [sp, #20]
   223f0:	9604      	str	r6, [sp, #16]
   223f2:	2500      	movs	r5, #0
   223f4:	2351      	movs	r3, #81	@ 0x51
   223f6:	4634      	mov	r4, r6
   223f8:	4630      	mov	r0, r6
   223fa:	4629      	mov	r1, r5
   223fc:	9e01      	ldr	r6, [sp, #4]
   223fe:	4632      	mov	r2, r6
   22400:	df03      	svc	3
   22402:	2802      	cmp	r0, #2
   22404:	d00b      	beq.n	2241e <_ZN20complex_full_dynamic3app17h7d1fd940084578deE+0x72>
   22406:	a80f      	add	r0, sp, #60	@ 0x3c
   22408:	2103      	movs	r1, #3
   2240a:	7201      	strb	r1, [r0, #8]
   2240c:	940f      	str	r4, [sp, #60]	@ 0x3c
   2240e:	9510      	str	r5, [sp, #64]	@ 0x40
   22410:	4811      	ldr	r0, [pc, #68]	@ (22458 <_ZN20complex_full_dynamic3app17h7d1fd940084578deE+0xac>)
   22412:	2102      	movs	r1, #2
   22414:	462a      	mov	r2, r5
   22416:	462b      	mov	r3, r5
   22418:	df02      	svc	2
   2241a:	287f      	cmp	r0, #127	@ 0x7f
   2241c:	d80b      	bhi.n	22436 <_ZN20complex_full_dynamic3app17h7d1fd940084578deE+0x8a>
   2241e:	9c03      	ldr	r4, [sp, #12]
   22420:	6061      	str	r1, [r4, #4]
   22422:	2501      	movs	r5, #1
   22424:	7025      	strb	r5, [r4, #0]
   22426:	a80f      	add	r0, sp, #60	@ 0x3c
   22428:	f004 fd76 	bl	26f18 <_ZN9allow_pin12full_dynamic17unshare_if_shared17hc627a04126f70c57E>
   2242c:	a804      	add	r0, sp, #16
   2242e:	f004 fd73 	bl	26f18 <_ZN9allow_pin12full_dynamic17unshare_if_shared17hc627a04126f70c57E>
   22432:	b027      	add	sp, #156	@ 0x9c
   22434:	bdf0      	pop	{r4, r5, r6, r7, pc}
   22436:	a804      	add	r0, sp, #16
   22438:	f004 fd6e 	bl	26f18 <_ZN9allow_pin12full_dynamic17unshare_if_shared17hc627a04126f70c57E>
   2243c:	ac0f      	add	r4, sp, #60	@ 0x3c
   2243e:	4620      	mov	r0, r4
   22440:	f004 fd6a 	bl	26f18 <_ZN9allow_pin12full_dynamic17unshare_if_shared17hc627a04126f70c57E>
   22444:	4620      	mov	r0, r4
   22446:	f004 fd67 	bl	26f18 <_ZN9allow_pin12full_dynamic17unshare_if_shared17hc627a04126f70c57E>
   2244a:	9c03      	ldr	r4, [sp, #12]
   2244c:	1c60      	adds	r0, r4, #1
   2244e:	2251      	movs	r2, #81	@ 0x51
   22450:	4631      	mov	r1, r6
   22452:	f004 ff22 	bl	2729a <__aeabi_memcpy>
   22456:	e7e5      	b.n	22424 <_ZN20complex_full_dynamic3app17h7d1fd940084578deE+0x78>
   22458:	0000196b 	.word	0x0000196b

0002245c <_ZN20complex_full_dynamic3app17h83e95ae6c2de8162E>:
   2245c:	b5f0      	push	{r4, r5, r6, r7, lr}
   2245e:	af03      	add	r7, sp, #12
   22460:	b0b7      	sub	sp, #220	@ 0xdc
   22462:	9002      	str	r0, [sp, #8]
   22464:	ac03      	add	r4, sp, #12
   22466:	2002      	movs	r0, #2
   22468:	9001      	str	r0, [sp, #4]
   2246a:	7220      	strb	r0, [r4, #8]
   2246c:	340c      	adds	r4, #12
   2246e:	225e      	movs	r2, #94	@ 0x5e
   22470:	9200      	str	r2, [sp, #0]
   22472:	4620      	mov	r0, r4
   22474:	f004 ff11 	bl	2729a <__aeabi_memcpy>
   22478:	ae1e      	add	r6, sp, #120	@ 0x78
   2247a:	4635      	mov	r5, r6
   2247c:	350c      	adds	r5, #12
   2247e:	2155      	movs	r1, #85	@ 0x55
   22480:	4628      	mov	r0, r5
   22482:	f004 fd5d 	bl	26f40 <__aeabi_memclr4>
   22486:	9801      	ldr	r0, [sp, #4]
   22488:	7230      	strb	r0, [r6, #8]
   2248a:	481f      	ldr	r0, [pc, #124]	@ (22508 <_ZN20complex_full_dynamic3app17h83e95ae6c2de8162E+0xac>)
   2248c:	2607      	movs	r6, #7
   2248e:	4631      	mov	r1, r6
   22490:	4622      	mov	r2, r4
   22492:	9b00      	ldr	r3, [sp, #0]
   22494:	df04      	svc	4
   22496:	2802      	cmp	r0, #2
   22498:	d019      	beq.n	224ce <_ZN20complex_full_dynamic3app17h83e95ae6c2de8162E+0x72>
   2249a:	a803      	add	r0, sp, #12
   2249c:	2104      	movs	r1, #4
   2249e:	7201      	strb	r1, [r0, #8]
   224a0:	9604      	str	r6, [sp, #16]
   224a2:	4e19      	ldr	r6, [pc, #100]	@ (22508 <_ZN20complex_full_dynamic3app17h83e95ae6c2de8162E+0xac>)
   224a4:	9603      	str	r6, [sp, #12]
   224a6:	2403      	movs	r4, #3
   224a8:	2355      	movs	r3, #85	@ 0x55
   224aa:	4630      	mov	r0, r6
   224ac:	4621      	mov	r1, r4
   224ae:	462a      	mov	r2, r5
   224b0:	df03      	svc	3
   224b2:	2802      	cmp	r0, #2
   224b4:	d00b      	beq.n	224ce <_ZN20complex_full_dynamic3app17h83e95ae6c2de8162E+0x72>
   224b6:	a81e      	add	r0, sp, #120	@ 0x78
   224b8:	7204      	strb	r4, [r0, #8]
   224ba:	941f      	str	r4, [sp, #124]	@ 0x7c
   224bc:	961e      	str	r6, [sp, #120]	@ 0x78
   224be:	4812      	ldr	r0, [pc, #72]	@ (22508 <_ZN20complex_full_dynamic3app17h83e95ae6c2de8162E+0xac>)
   224c0:	2107      	movs	r1, #7
   224c2:	2600      	movs	r6, #0
   224c4:	4622      	mov	r2, r4
   224c6:	4633      	mov	r3, r6
   224c8:	df02      	svc	2
   224ca:	287f      	cmp	r0, #127	@ 0x7f
   224cc:	d80b      	bhi.n	224e6 <_ZN20complex_full_dynamic3app17h83e95ae6c2de8162E+0x8a>
   224ce:	9c02      	ldr	r4, [sp, #8]
   224d0:	6061      	str	r1, [r4, #4]
   224d2:	2601      	movs	r6, #1
   224d4:	7026      	strb	r6, [r4, #0]
   224d6:	a81e      	add	r0, sp, #120	@ 0x78
   224d8:	f004 fd1e 	bl	26f18 <_ZN9allow_pin12full_dynamic17unshare_if_shared17hc627a04126f70c57E>
   224dc:	a803      	add	r0, sp, #12
   224de:	f004 fd1b 	bl	26f18 <_ZN9allow_pin12full_dynamic17unshare_if_shared17hc627a04126f70c57E>
   224e2:	b037      	add	sp, #220	@ 0xdc
   224e4:	bdf0      	pop	{r4, r5, r6, r7, pc}
   224e6:	a803      	add	r0, sp, #12
   224e8:	f004 fd16 	bl	26f18 <_ZN9allow_pin12full_dynamic17unshare_if_shared17hc627a04126f70c57E>
   224ec:	ac1e      	add	r4, sp, #120	@ 0x78
   224ee:	4620      	mov	r0, r4
   224f0:	f004 fd12 	bl	26f18 <_ZN9allow_pin12full_dynamic17unshare_if_shared17hc627a04126f70c57E>
   224f4:	4620      	mov	r0, r4
   224f6:	f004 fd0f 	bl	26f18 <_ZN9allow_pin12full_dynamic17unshare_if_shared17hc627a04126f70c57E>
   224fa:	9c02      	ldr	r4, [sp, #8]
   224fc:	1c60      	adds	r0, r4, #1
   224fe:	2255      	movs	r2, #85	@ 0x55
   22500:	4629      	mov	r1, r5
   22502:	f004 feca 	bl	2729a <__aeabi_memcpy>
   22506:	e7e5      	b.n	224d4 <_ZN20complex_full_dynamic3app17h83e95ae6c2de8162E+0x78>
   22508:	0000178a 	.word	0x0000178a

0002250c <_ZN20complex_full_dynamic3app17h8520ed0ed332408bE>:
   2250c:	b5f0      	push	{r4, r5, r6, r7, lr}
   2250e:	af03      	add	r7, sp, #12
   22510:	b0a3      	sub	sp, #140	@ 0x8c
   22512:	9002      	str	r0, [sp, #8]
   22514:	ac03      	add	r4, sp, #12
   22516:	2002      	movs	r0, #2
   22518:	9001      	str	r0, [sp, #4]
   2251a:	7220      	strb	r0, [r4, #8]
   2251c:	340c      	adds	r4, #12
   2251e:	223c      	movs	r2, #60	@ 0x3c
   22520:	9200      	str	r2, [sp, #0]
   22522:	4620      	mov	r0, r4
   22524:	f004 feb9 	bl	2729a <__aeabi_memcpy>
   22528:	ae15      	add	r6, sp, #84	@ 0x54
   2252a:	4635      	mov	r5, r6
   2252c:	350c      	adds	r5, #12
   2252e:	212c      	movs	r1, #44	@ 0x2c
   22530:	4628      	mov	r0, r5
   22532:	f004 fd05 	bl	26f40 <__aeabi_memclr4>
   22536:	9801      	ldr	r0, [sp, #4]
   22538:	7230      	strb	r0, [r6, #8]
   2253a:	4820      	ldr	r0, [pc, #128]	@ (225bc <_ZN20complex_full_dynamic3app17h8520ed0ed332408bE+0xb0>)
   2253c:	2605      	movs	r6, #5
   2253e:	4631      	mov	r1, r6
   22540:	4622      	mov	r2, r4
   22542:	9b00      	ldr	r3, [sp, #0]
   22544:	df04      	svc	4
   22546:	2802      	cmp	r0, #2
   22548:	d01a      	beq.n	22580 <_ZN20complex_full_dynamic3app17h8520ed0ed332408bE+0x74>
   2254a:	a803      	add	r0, sp, #12
   2254c:	2104      	movs	r1, #4
   2254e:	7201      	strb	r1, [r0, #8]
   22550:	9604      	str	r6, [sp, #16]
   22552:	4e1a      	ldr	r6, [pc, #104]	@ (225bc <_ZN20complex_full_dynamic3app17h8520ed0ed332408bE+0xb0>)
   22554:	9603      	str	r6, [sp, #12]
   22556:	2407      	movs	r4, #7
   22558:	232c      	movs	r3, #44	@ 0x2c
   2255a:	4630      	mov	r0, r6
   2255c:	4621      	mov	r1, r4
   2255e:	462a      	mov	r2, r5
   22560:	df03      	svc	3
   22562:	2802      	cmp	r0, #2
   22564:	d00c      	beq.n	22580 <_ZN20complex_full_dynamic3app17h8520ed0ed332408bE+0x74>
   22566:	a815      	add	r0, sp, #84	@ 0x54
   22568:	2103      	movs	r1, #3
   2256a:	7201      	strb	r1, [r0, #8]
   2256c:	9615      	str	r6, [sp, #84]	@ 0x54
   2256e:	9416      	str	r4, [sp, #88]	@ 0x58
   22570:	4812      	ldr	r0, [pc, #72]	@ (225bc <_ZN20complex_full_dynamic3app17h8520ed0ed332408bE+0xb0>)
   22572:	2105      	movs	r1, #5
   22574:	2600      	movs	r6, #0
   22576:	4622      	mov	r2, r4
   22578:	4633      	mov	r3, r6
   2257a:	df02      	svc	2
   2257c:	287f      	cmp	r0, #127	@ 0x7f
   2257e:	d80b      	bhi.n	22598 <_ZN20complex_full_dynamic3app17h8520ed0ed332408bE+0x8c>
   22580:	9c02      	ldr	r4, [sp, #8]
   22582:	6061      	str	r1, [r4, #4]
   22584:	2601      	movs	r6, #1
   22586:	7026      	strb	r6, [r4, #0]
   22588:	a815      	add	r0, sp, #84	@ 0x54
   2258a:	f004 fcc5 	bl	26f18 <_ZN9allow_pin12full_dynamic17unshare_if_shared17hc627a04126f70c57E>
   2258e:	a803      	add	r0, sp, #12
   22590:	f004 fcc2 	bl	26f18 <_ZN9allow_pin12full_dynamic17unshare_if_shared17hc627a04126f70c57E>
   22594:	b023      	add	sp, #140	@ 0x8c
   22596:	bdf0      	pop	{r4, r5, r6, r7, pc}
   22598:	a803      	add	r0, sp, #12
   2259a:	f004 fcbd 	bl	26f18 <_ZN9allow_pin12full_dynamic17unshare_if_shared17hc627a04126f70c57E>
   2259e:	ac15      	add	r4, sp, #84	@ 0x54
   225a0:	4620      	mov	r0, r4
   225a2:	f004 fcb9 	bl	26f18 <_ZN9allow_pin12full_dynamic17unshare_if_shared17hc627a04126f70c57E>
   225a6:	4620      	mov	r0, r4
   225a8:	f004 fcb6 	bl	26f18 <_ZN9allow_pin12full_dynamic17unshare_if_shared17hc627a04126f70c57E>
   225ac:	9c02      	ldr	r4, [sp, #8]
   225ae:	1c60      	adds	r0, r4, #1
   225b0:	222c      	movs	r2, #44	@ 0x2c
   225b2:	4629      	mov	r1, r5
   225b4:	f004 fe71 	bl	2729a <__aeabi_memcpy>
   225b8:	e7e5      	b.n	22586 <_ZN20complex_full_dynamic3app17h8520ed0ed332408bE+0x7a>
   225ba:	46c0      	nop			@ (mov r8, r8)
   225bc:	00001eac 	.word	0x00001eac

000225c0 <_ZN20complex_full_dynamic3app17h893cb76300c4aadcE>:
   225c0:	b5f0      	push	{r4, r5, r6, r7, lr}
   225c2:	af03      	add	r7, sp, #12
   225c4:	b0a9      	sub	sp, #164	@ 0xa4
   225c6:	9003      	str	r0, [sp, #12]
   225c8:	ac04      	add	r4, sp, #16
   225ca:	2002      	movs	r0, #2
   225cc:	9002      	str	r0, [sp, #8]
   225ce:	7220      	strb	r0, [r4, #8]
   225d0:	340c      	adds	r4, #12
   225d2:	2227      	movs	r2, #39	@ 0x27
   225d4:	9201      	str	r2, [sp, #4]
   225d6:	4620      	mov	r0, r4
   225d8:	f004 fe5f 	bl	2729a <__aeabi_memcpy>
   225dc:	ae11      	add	r6, sp, #68	@ 0x44
   225de:	4635      	mov	r5, r6
   225e0:	350c      	adds	r5, #12
   225e2:	2151      	movs	r1, #81	@ 0x51
   225e4:	4628      	mov	r0, r5
   225e6:	f004 fcab 	bl	26f40 <__aeabi_memclr4>
   225ea:	9802      	ldr	r0, [sp, #8]
   225ec:	7230      	strb	r0, [r6, #8]
   225ee:	481f      	ldr	r0, [pc, #124]	@ (2266c <_ZN20complex_full_dynamic3app17h893cb76300c4aadcE+0xac>)
   225f0:	2600      	movs	r6, #0
   225f2:	4631      	mov	r1, r6
   225f4:	4622      	mov	r2, r4
   225f6:	9b01      	ldr	r3, [sp, #4]
   225f8:	df04      	svc	4
   225fa:	2802      	cmp	r0, #2
   225fc:	d019      	beq.n	22632 <_ZN20complex_full_dynamic3app17h893cb76300c4aadcE+0x72>
   225fe:	a804      	add	r0, sp, #16
   22600:	2404      	movs	r4, #4
   22602:	7204      	strb	r4, [r0, #8]
   22604:	9605      	str	r6, [sp, #20]
   22606:	4e19      	ldr	r6, [pc, #100]	@ (2266c <_ZN20complex_full_dynamic3app17h893cb76300c4aadcE+0xac>)
   22608:	9604      	str	r6, [sp, #16]
   2260a:	2351      	movs	r3, #81	@ 0x51
   2260c:	4630      	mov	r0, r6
   2260e:	4621      	mov	r1, r4
   22610:	462a      	mov	r2, r5
   22612:	df03      	svc	3
   22614:	2802      	cmp	r0, #2
   22616:	d00c      	beq.n	22632 <_ZN20complex_full_dynamic3app17h893cb76300c4aadcE+0x72>
   22618:	a811      	add	r0, sp, #68	@ 0x44
   2261a:	2103      	movs	r1, #3
   2261c:	7201      	strb	r1, [r0, #8]
   2261e:	9611      	str	r6, [sp, #68]	@ 0x44
   22620:	9412      	str	r4, [sp, #72]	@ 0x48
   22622:	4812      	ldr	r0, [pc, #72]	@ (2266c <_ZN20complex_full_dynamic3app17h893cb76300c4aadcE+0xac>)
   22624:	2600      	movs	r6, #0
   22626:	4631      	mov	r1, r6
   22628:	4622      	mov	r2, r4
   2262a:	4633      	mov	r3, r6
   2262c:	df02      	svc	2
   2262e:	287f      	cmp	r0, #127	@ 0x7f
   22630:	d80b      	bhi.n	2264a <_ZN20complex_full_dynamic3app17h893cb76300c4aadcE+0x8a>
   22632:	9c03      	ldr	r4, [sp, #12]
   22634:	6061      	str	r1, [r4, #4]
   22636:	2601      	movs	r6, #1
   22638:	7026      	strb	r6, [r4, #0]
   2263a:	a811      	add	r0, sp, #68	@ 0x44
   2263c:	f004 fc6c 	bl	26f18 <_ZN9allow_pin12full_dynamic17unshare_if_shared17hc627a04126f70c57E>
   22640:	a804      	add	r0, sp, #16
   22642:	f004 fc69 	bl	26f18 <_ZN9allow_pin12full_dynamic17unshare_if_shared17hc627a04126f70c57E>
   22646:	b029      	add	sp, #164	@ 0xa4
   22648:	bdf0      	pop	{r4, r5, r6, r7, pc}
   2264a:	a804      	add	r0, sp, #16
   2264c:	f004 fc64 	bl	26f18 <_ZN9allow_pin12full_dynamic17unshare_if_shared17hc627a04126f70c57E>
   22650:	ac11      	add	r4, sp, #68	@ 0x44
   22652:	4620      	mov	r0, r4
   22654:	f004 fc60 	bl	26f18 <_ZN9allow_pin12full_dynamic17unshare_if_shared17hc627a04126f70c57E>
   22658:	4620      	mov	r0, r4
   2265a:	f004 fc5d 	bl	26f18 <_ZN9allow_pin12full_dynamic17unshare_if_shared17hc627a04126f70c57E>
   2265e:	9c03      	ldr	r4, [sp, #12]
   22660:	1c60      	adds	r0, r4, #1
   22662:	2251      	movs	r2, #81	@ 0x51
   22664:	4629      	mov	r1, r5
   22666:	f004 fe18 	bl	2729a <__aeabi_memcpy>
   2266a:	e7e5      	b.n	22638 <_ZN20complex_full_dynamic3app17h893cb76300c4aadcE+0x78>
   2266c:	00000a36 	.word	0x00000a36

00022670 <_ZN20complex_full_dynamic3app17h89edaded3cfbe9b8E>:
   22670:	b5f0      	push	{r4, r5, r6, r7, lr}
   22672:	af03      	add	r7, sp, #12
   22674:	b09d      	sub	sp, #116	@ 0x74
   22676:	9002      	str	r0, [sp, #8]
   22678:	ae03      	add	r6, sp, #12
   2267a:	2002      	movs	r0, #2
   2267c:	9001      	str	r0, [sp, #4]
   2267e:	7230      	strb	r0, [r6, #8]
   22680:	360c      	adds	r6, #12
   22682:	2218      	movs	r2, #24
   22684:	9200      	str	r2, [sp, #0]
   22686:	4630      	mov	r0, r6
   22688:	f004 fe07 	bl	2729a <__aeabi_memcpy>
   2268c:	ad0c      	add	r5, sp, #48	@ 0x30
   2268e:	462c      	mov	r4, r5
   22690:	340c      	adds	r4, #12
   22692:	2136      	movs	r1, #54	@ 0x36
   22694:	4620      	mov	r0, r4
   22696:	f004 fc53 	bl	26f40 <__aeabi_memclr4>
   2269a:	9801      	ldr	r0, [sp, #4]
   2269c:	7228      	strb	r0, [r5, #8]
   2269e:	20f3      	movs	r0, #243	@ 0xf3
   226a0:	2508      	movs	r5, #8
   226a2:	9001      	str	r0, [sp, #4]
   226a4:	4629      	mov	r1, r5
   226a6:	4632      	mov	r2, r6
   226a8:	9b00      	ldr	r3, [sp, #0]
   226aa:	df04      	svc	4
   226ac:	2802      	cmp	r0, #2
   226ae:	d018      	beq.n	226e2 <_ZN20complex_full_dynamic3app17h89edaded3cfbe9b8E+0x72>
   226b0:	a803      	add	r0, sp, #12
   226b2:	2604      	movs	r6, #4
   226b4:	7206      	strb	r6, [r0, #8]
   226b6:	9504      	str	r5, [sp, #16]
   226b8:	9801      	ldr	r0, [sp, #4]
   226ba:	9003      	str	r0, [sp, #12]
   226bc:	2336      	movs	r3, #54	@ 0x36
   226be:	4631      	mov	r1, r6
   226c0:	4622      	mov	r2, r4
   226c2:	df03      	svc	3
   226c4:	2802      	cmp	r0, #2
   226c6:	d00c      	beq.n	226e2 <_ZN20complex_full_dynamic3app17h89edaded3cfbe9b8E+0x72>
   226c8:	a80c      	add	r0, sp, #48	@ 0x30
   226ca:	2103      	movs	r1, #3
   226cc:	7201      	strb	r1, [r0, #8]
   226ce:	960d      	str	r6, [sp, #52]	@ 0x34
   226d0:	9801      	ldr	r0, [sp, #4]
   226d2:	900c      	str	r0, [sp, #48]	@ 0x30
   226d4:	2108      	movs	r1, #8
   226d6:	2300      	movs	r3, #0
   226d8:	4632      	mov	r2, r6
   226da:	461e      	mov	r6, r3
   226dc:	df02      	svc	2
   226de:	287f      	cmp	r0, #127	@ 0x7f
   226e0:	d80b      	bhi.n	226fa <_ZN20complex_full_dynamic3app17h89edaded3cfbe9b8E+0x8a>
   226e2:	9c02      	ldr	r4, [sp, #8]
   226e4:	6061      	str	r1, [r4, #4]
   226e6:	2601      	movs	r6, #1
   226e8:	7026      	strb	r6, [r4, #0]
   226ea:	a80c      	add	r0, sp, #48	@ 0x30
   226ec:	f004 fc14 	bl	26f18 <_ZN9allow_pin12full_dynamic17unshare_if_shared17hc627a04126f70c57E>
   226f0:	a803      	add	r0, sp, #12
   226f2:	f004 fc11 	bl	26f18 <_ZN9allow_pin12full_dynamic17unshare_if_shared17hc627a04126f70c57E>
   226f6:	b01d      	add	sp, #116	@ 0x74
   226f8:	bdf0      	pop	{r4, r5, r6, r7, pc}
   226fa:	4625      	mov	r5, r4
   226fc:	a803      	add	r0, sp, #12
   226fe:	f004 fc0b 	bl	26f18 <_ZN9allow_pin12full_dynamic17unshare_if_shared17hc627a04126f70c57E>
   22702:	ac0c      	add	r4, sp, #48	@ 0x30
   22704:	4620      	mov	r0, r4
   22706:	f004 fc07 	bl	26f18 <_ZN9allow_pin12full_dynamic17unshare_if_shared17hc627a04126f70c57E>
   2270a:	4620      	mov	r0, r4
   2270c:	f004 fc04 	bl	26f18 <_ZN9allow_pin12full_dynamic17unshare_if_shared17hc627a04126f70c57E>
   22710:	9c02      	ldr	r4, [sp, #8]
   22712:	1c60      	adds	r0, r4, #1
   22714:	2236      	movs	r2, #54	@ 0x36
   22716:	4629      	mov	r1, r5
   22718:	f004 fdbf 	bl	2729a <__aeabi_memcpy>
   2271c:	e7e4      	b.n	226e8 <_ZN20complex_full_dynamic3app17h89edaded3cfbe9b8E+0x78>
   2271e:	d4d4      	bmi.n	226ca <_ZN20complex_full_dynamic3app17h89edaded3cfbe9b8E+0x5a>

00022720 <_ZN20complex_full_dynamic3app17h8d7c2f034675586aE>:
   22720:	b5f0      	push	{r4, r5, r6, r7, lr}
   22722:	af03      	add	r7, sp, #12
   22724:	b0b3      	sub	sp, #204	@ 0xcc
   22726:	9003      	str	r0, [sp, #12]
   22728:	ae04      	add	r6, sp, #16
   2272a:	2002      	movs	r0, #2
   2272c:	9002      	str	r0, [sp, #8]
   2272e:	7230      	strb	r0, [r6, #8]
   22730:	360c      	adds	r6, #12
   22732:	2256      	movs	r2, #86	@ 0x56
   22734:	9201      	str	r2, [sp, #4]
   22736:	4630      	mov	r0, r6
   22738:	f004 fdaf 	bl	2729a <__aeabi_memcpy>
   2273c:	ad1d      	add	r5, sp, #116	@ 0x74
   2273e:	462c      	mov	r4, r5
   22740:	340c      	adds	r4, #12
   22742:	2149      	movs	r1, #73	@ 0x49
   22744:	4620      	mov	r0, r4
   22746:	f004 fbfb 	bl	26f40 <__aeabi_memclr4>
   2274a:	9802      	ldr	r0, [sp, #8]
   2274c:	7228      	strb	r0, [r5, #8]
   2274e:	4820      	ldr	r0, [pc, #128]	@ (227d0 <_ZN20complex_full_dynamic3app17h8d7c2f034675586aE+0xb0>)
   22750:	2506      	movs	r5, #6
   22752:	4629      	mov	r1, r5
   22754:	4632      	mov	r2, r6
   22756:	9b01      	ldr	r3, [sp, #4]
   22758:	df04      	svc	4
   2275a:	2802      	cmp	r0, #2
   2275c:	d019      	beq.n	22792 <_ZN20complex_full_dynamic3app17h8d7c2f034675586aE+0x72>
   2275e:	a804      	add	r0, sp, #16
   22760:	2104      	movs	r1, #4
   22762:	7201      	strb	r1, [r0, #8]
   22764:	4e1a      	ldr	r6, [pc, #104]	@ (227d0 <_ZN20complex_full_dynamic3app17h8d7c2f034675586aE+0xb0>)
   22766:	9604      	str	r6, [sp, #16]
   22768:	9505      	str	r5, [sp, #20]
   2276a:	2349      	movs	r3, #73	@ 0x49
   2276c:	4630      	mov	r0, r6
   2276e:	4629      	mov	r1, r5
   22770:	4622      	mov	r2, r4
   22772:	df03      	svc	3
   22774:	2802      	cmp	r0, #2
   22776:	d00c      	beq.n	22792 <_ZN20complex_full_dynamic3app17h8d7c2f034675586aE+0x72>
   22778:	a81d      	add	r0, sp, #116	@ 0x74
   2277a:	2103      	movs	r1, #3
   2277c:	7201      	strb	r1, [r0, #8]
   2277e:	961d      	str	r6, [sp, #116]	@ 0x74
   22780:	951e      	str	r5, [sp, #120]	@ 0x78
   22782:	4813      	ldr	r0, [pc, #76]	@ (227d0 <_ZN20complex_full_dynamic3app17h8d7c2f034675586aE+0xb0>)
   22784:	2600      	movs	r6, #0
   22786:	4629      	mov	r1, r5
   22788:	462a      	mov	r2, r5
   2278a:	4633      	mov	r3, r6
   2278c:	df02      	svc	2
   2278e:	287f      	cmp	r0, #127	@ 0x7f
   22790:	d80b      	bhi.n	227aa <_ZN20complex_full_dynamic3app17h8d7c2f034675586aE+0x8a>
   22792:	9c03      	ldr	r4, [sp, #12]
   22794:	6061      	str	r1, [r4, #4]
   22796:	2601      	movs	r6, #1
   22798:	7026      	strb	r6, [r4, #0]
   2279a:	a81d      	add	r0, sp, #116	@ 0x74
   2279c:	f004 fbbc 	bl	26f18 <_ZN9allow_pin12full_dynamic17unshare_if_shared17hc627a04126f70c57E>
   227a0:	a804      	add	r0, sp, #16
   227a2:	f004 fbb9 	bl	26f18 <_ZN9allow_pin12full_dynamic17unshare_if_shared17hc627a04126f70c57E>
   227a6:	b033      	add	sp, #204	@ 0xcc
   227a8:	bdf0      	pop	{r4, r5, r6, r7, pc}
   227aa:	a804      	add	r0, sp, #16
   227ac:	f004 fbb4 	bl	26f18 <_ZN9allow_pin12full_dynamic17unshare_if_shared17hc627a04126f70c57E>
   227b0:	4625      	mov	r5, r4
   227b2:	ac1d      	add	r4, sp, #116	@ 0x74
   227b4:	4620      	mov	r0, r4
   227b6:	f004 fbaf 	bl	26f18 <_ZN9allow_pin12full_dynamic17unshare_if_shared17hc627a04126f70c57E>
   227ba:	4620      	mov	r0, r4
   227bc:	f004 fbac 	bl	26f18 <_ZN9allow_pin12full_dynamic17unshare_if_shared17hc627a04126f70c57E>
   227c0:	9c03      	ldr	r4, [sp, #12]
   227c2:	1c60      	adds	r0, r4, #1
   227c4:	2249      	movs	r2, #73	@ 0x49
   227c6:	4629      	mov	r1, r5
   227c8:	f004 fd67 	bl	2729a <__aeabi_memcpy>
   227cc:	e7e4      	b.n	22798 <_ZN20complex_full_dynamic3app17h8d7c2f034675586aE+0x78>
   227ce:	46c0      	nop			@ (mov r8, r8)
   227d0:	00001c6b 	.word	0x00001c6b

000227d4 <_ZN20complex_full_dynamic3app17h8d96e0e7b220af38E>:
   227d4:	b5f0      	push	{r4, r5, r6, r7, lr}
   227d6:	af03      	add	r7, sp, #12
   227d8:	b09d      	sub	sp, #116	@ 0x74
   227da:	9002      	str	r0, [sp, #8]
   227dc:	ac03      	add	r4, sp, #12
   227de:	2602      	movs	r6, #2
   227e0:	7226      	strb	r6, [r4, #8]
   227e2:	340c      	adds	r4, #12
   227e4:	2223      	movs	r2, #35	@ 0x23
   227e6:	9201      	str	r2, [sp, #4]
   227e8:	4620      	mov	r0, r4
   227ea:	f004 fd56 	bl	2729a <__aeabi_memcpy>
   227ee:	ad0f      	add	r5, sp, #60	@ 0x3c
   227f0:	4628      	mov	r0, r5
   227f2:	300c      	adds	r0, #12
   227f4:	212b      	movs	r1, #43	@ 0x2b
   227f6:	9000      	str	r0, [sp, #0]
   227f8:	f004 fba2 	bl	26f40 <__aeabi_memclr4>
   227fc:	722e      	strb	r6, [r5, #8]
   227fe:	4635      	mov	r5, r6
   22800:	4e1f      	ldr	r6, [pc, #124]	@ (22880 <_ZN20complex_full_dynamic3app17h8d96e0e7b220af38E+0xac>)
   22802:	4630      	mov	r0, r6
   22804:	4629      	mov	r1, r5
   22806:	4622      	mov	r2, r4
   22808:	9b01      	ldr	r3, [sp, #4]
   2280a:	df04      	svc	4
   2280c:	2802      	cmp	r0, #2
   2280e:	d01a      	beq.n	22846 <_ZN20complex_full_dynamic3app17h8d96e0e7b220af38E+0x72>
   22810:	a803      	add	r0, sp, #12
   22812:	2104      	movs	r1, #4
   22814:	7201      	strb	r1, [r0, #8]
   22816:	9504      	str	r5, [sp, #16]
   22818:	9603      	str	r6, [sp, #12]
   2281a:	2500      	movs	r5, #0
   2281c:	232b      	movs	r3, #43	@ 0x2b
   2281e:	4634      	mov	r4, r6
   22820:	4630      	mov	r0, r6
   22822:	4629      	mov	r1, r5
   22824:	9e00      	ldr	r6, [sp, #0]
   22826:	4632      	mov	r2, r6
   22828:	df03      	svc	3
   2282a:	2802      	cmp	r0, #2
   2282c:	d00b      	beq.n	22846 <_ZN20complex_full_dynamic3app17h8d96e0e7b220af38E+0x72>
   2282e:	a80f      	add	r0, sp, #60	@ 0x3c
   22830:	2103      	movs	r1, #3
   22832:	7201      	strb	r1, [r0, #8]
   22834:	940f      	str	r4, [sp, #60]	@ 0x3c
   22836:	9510      	str	r5, [sp, #64]	@ 0x40
   22838:	4811      	ldr	r0, [pc, #68]	@ (22880 <_ZN20complex_full_dynamic3app17h8d96e0e7b220af38E+0xac>)
   2283a:	2102      	movs	r1, #2
   2283c:	462a      	mov	r2, r5
   2283e:	462b      	mov	r3, r5
   22840:	df02      	svc	2
   22842:	287f      	cmp	r0, #127	@ 0x7f
   22844:	d80b      	bhi.n	2285e <_ZN20complex_full_dynamic3app17h8d96e0e7b220af38E+0x8a>
   22846:	9c02      	ldr	r4, [sp, #8]
   22848:	6061      	str	r1, [r4, #4]
   2284a:	2501      	movs	r5, #1
   2284c:	7025      	strb	r5, [r4, #0]
   2284e:	a80f      	add	r0, sp, #60	@ 0x3c
   22850:	f004 fb62 	bl	26f18 <_ZN9allow_pin12full_dynamic17unshare_if_shared17hc627a04126f70c57E>
   22854:	a803      	add	r0, sp, #12
   22856:	f004 fb5f 	bl	26f18 <_ZN9allow_pin12full_dynamic17unshare_if_shared17hc627a04126f70c57E>
   2285a:	b01d      	add	sp, #116	@ 0x74
   2285c:	bdf0      	pop	{r4, r5, r6, r7, pc}
   2285e:	a803      	add	r0, sp, #12
   22860:	f004 fb5a 	bl	26f18 <_ZN9allow_pin12full_dynamic17unshare_if_shared17hc627a04126f70c57E>
   22864:	ac0f      	add	r4, sp, #60	@ 0x3c
   22866:	4620      	mov	r0, r4
   22868:	f004 fb56 	bl	26f18 <_ZN9allow_pin12full_dynamic17unshare_if_shared17hc627a04126f70c57E>
   2286c:	4620      	mov	r0, r4
   2286e:	f004 fb53 	bl	26f18 <_ZN9allow_pin12full_dynamic17unshare_if_shared17hc627a04126f70c57E>
   22872:	9c02      	ldr	r4, [sp, #8]
   22874:	1c60      	adds	r0, r4, #1
   22876:	222b      	movs	r2, #43	@ 0x2b
   22878:	4631      	mov	r1, r6
   2287a:	f004 fd0e 	bl	2729a <__aeabi_memcpy>
   2287e:	e7e5      	b.n	2284c <_ZN20complex_full_dynamic3app17h8d96e0e7b220af38E+0x78>
   22880:	00000d5d 	.word	0x00000d5d

00022884 <_ZN20complex_full_dynamic3app17h90d56a5c7759a8c5E>:
   22884:	b5f0      	push	{r4, r5, r6, r7, lr}
   22886:	af03      	add	r7, sp, #12
   22888:	b0a1      	sub	sp, #132	@ 0x84
   2288a:	9001      	str	r0, [sp, #4]
   2288c:	ae02      	add	r6, sp, #8
   2288e:	2502      	movs	r5, #2
   22890:	7235      	strb	r5, [r6, #8]
   22892:	360c      	adds	r6, #12
   22894:	2251      	movs	r2, #81	@ 0x51
   22896:	9200      	str	r2, [sp, #0]
   22898:	4630      	mov	r0, r6
   2289a:	f004 fcfe 	bl	2729a <__aeabi_memcpy>
   2289e:	a81a      	add	r0, sp, #104	@ 0x68
   228a0:	2400      	movs	r4, #0
   228a2:	7684      	strb	r4, [r0, #26]
   228a4:	8304      	strh	r4, [r0, #24]
   228a6:	7205      	strb	r5, [r0, #8]
   228a8:	4605      	mov	r5, r0
   228aa:	941f      	str	r4, [sp, #124]	@ 0x7c
   228ac:	941e      	str	r4, [sp, #120]	@ 0x78
   228ae:	941d      	str	r4, [sp, #116]	@ 0x74
   228b0:	481f      	ldr	r0, [pc, #124]	@ (22930 <_ZN20complex_full_dynamic3app17h90d56a5c7759a8c5E+0xac>)
   228b2:	4621      	mov	r1, r4
   228b4:	4632      	mov	r2, r6
   228b6:	9b00      	ldr	r3, [sp, #0]
   228b8:	df04      	svc	4
   228ba:	2802      	cmp	r0, #2
   228bc:	d01a      	beq.n	228f4 <_ZN20complex_full_dynamic3app17h90d56a5c7759a8c5E+0x70>
   228be:	350c      	adds	r5, #12
   228c0:	a802      	add	r0, sp, #8
   228c2:	2104      	movs	r1, #4
   228c4:	7201      	strb	r1, [r0, #8]
   228c6:	9403      	str	r4, [sp, #12]
   228c8:	4e19      	ldr	r6, [pc, #100]	@ (22930 <_ZN20complex_full_dynamic3app17h90d56a5c7759a8c5E+0xac>)
   228ca:	9602      	str	r6, [sp, #8]
   228cc:	2403      	movs	r4, #3
   228ce:	230f      	movs	r3, #15
   228d0:	4630      	mov	r0, r6
   228d2:	4621      	mov	r1, r4
   228d4:	462a      	mov	r2, r5
   228d6:	df03      	svc	3
   228d8:	2802      	cmp	r0, #2
   228da:	d00b      	beq.n	228f4 <_ZN20complex_full_dynamic3app17h90d56a5c7759a8c5E+0x70>
   228dc:	a81a      	add	r0, sp, #104	@ 0x68
   228de:	7204      	strb	r4, [r0, #8]
   228e0:	941b      	str	r4, [sp, #108]	@ 0x6c
   228e2:	961a      	str	r6, [sp, #104]	@ 0x68
   228e4:	4812      	ldr	r0, [pc, #72]	@ (22930 <_ZN20complex_full_dynamic3app17h90d56a5c7759a8c5E+0xac>)
   228e6:	2600      	movs	r6, #0
   228e8:	4631      	mov	r1, r6
   228ea:	4622      	mov	r2, r4
   228ec:	4633      	mov	r3, r6
   228ee:	df02      	svc	2
   228f0:	287f      	cmp	r0, #127	@ 0x7f
   228f2:	d80b      	bhi.n	2290c <_ZN20complex_full_dynamic3app17h90d56a5c7759a8c5E+0x88>
   228f4:	9c01      	ldr	r4, [sp, #4]
   228f6:	6061      	str	r1, [r4, #4]
   228f8:	2601      	movs	r6, #1
   228fa:	7026      	strb	r6, [r4, #0]
   228fc:	a81a      	add	r0, sp, #104	@ 0x68
   228fe:	f004 fb0b 	bl	26f18 <_ZN9allow_pin12full_dynamic17unshare_if_shared17hc627a04126f70c57E>
   22902:	a802      	add	r0, sp, #8
   22904:	f004 fb08 	bl	26f18 <_ZN9allow_pin12full_dynamic17unshare_if_shared17hc627a04126f70c57E>
   22908:	b021      	add	sp, #132	@ 0x84
   2290a:	bdf0      	pop	{r4, r5, r6, r7, pc}
   2290c:	a802      	add	r0, sp, #8
   2290e:	f004 fb03 	bl	26f18 <_ZN9allow_pin12full_dynamic17unshare_if_shared17hc627a04126f70c57E>
   22912:	ac1a      	add	r4, sp, #104	@ 0x68
   22914:	4620      	mov	r0, r4
   22916:	f004 faff 	bl	26f18 <_ZN9allow_pin12full_dynamic17unshare_if_shared17hc627a04126f70c57E>
   2291a:	4620      	mov	r0, r4
   2291c:	f004 fafc 	bl	26f18 <_ZN9allow_pin12full_dynamic17unshare_if_shared17hc627a04126f70c57E>
   22920:	9c01      	ldr	r4, [sp, #4]
   22922:	1c60      	adds	r0, r4, #1
   22924:	220f      	movs	r2, #15
   22926:	4629      	mov	r1, r5
   22928:	f004 fcb7 	bl	2729a <__aeabi_memcpy>
   2292c:	e7e5      	b.n	228fa <_ZN20complex_full_dynamic3app17h90d56a5c7759a8c5E+0x76>
   2292e:	46c0      	nop			@ (mov r8, r8)
   22930:	000013bf 	.word	0x000013bf

00022934 <_ZN20complex_full_dynamic3app17h95cfeff6902b0424E>:
   22934:	b5f0      	push	{r4, r5, r6, r7, lr}
   22936:	af03      	add	r7, sp, #12
   22938:	b0a7      	sub	sp, #156	@ 0x9c
   2293a:	9002      	str	r0, [sp, #8]
   2293c:	ae03      	add	r6, sp, #12
   2293e:	2002      	movs	r0, #2
   22940:	9001      	str	r0, [sp, #4]
   22942:	7230      	strb	r0, [r6, #8]
   22944:	360c      	adds	r6, #12
   22946:	2222      	movs	r2, #34	@ 0x22
   22948:	9200      	str	r2, [sp, #0]
   2294a:	4630      	mov	r0, r6
   2294c:	f004 fca5 	bl	2729a <__aeabi_memcpy>
   22950:	ad0f      	add	r5, sp, #60	@ 0x3c
   22952:	462c      	mov	r4, r5
   22954:	340c      	adds	r4, #12
   22956:	2151      	movs	r1, #81	@ 0x51
   22958:	4620      	mov	r0, r4
   2295a:	f004 faf1 	bl	26f40 <__aeabi_memclr4>
   2295e:	9801      	ldr	r0, [sp, #4]
   22960:	7228      	strb	r0, [r5, #8]
   22962:	4820      	ldr	r0, [pc, #128]	@ (229e4 <_ZN20complex_full_dynamic3app17h95cfeff6902b0424E+0xb0>)
   22964:	2509      	movs	r5, #9
   22966:	4629      	mov	r1, r5
   22968:	4632      	mov	r2, r6
   2296a:	9b00      	ldr	r3, [sp, #0]
   2296c:	df04      	svc	4
   2296e:	2802      	cmp	r0, #2
   22970:	d019      	beq.n	229a6 <_ZN20complex_full_dynamic3app17h95cfeff6902b0424E+0x72>
   22972:	a803      	add	r0, sp, #12
   22974:	2104      	movs	r1, #4
   22976:	7201      	strb	r1, [r0, #8]
   22978:	4e1a      	ldr	r6, [pc, #104]	@ (229e4 <_ZN20complex_full_dynamic3app17h95cfeff6902b0424E+0xb0>)
   2297a:	9603      	str	r6, [sp, #12]
   2297c:	9504      	str	r5, [sp, #16]
   2297e:	2351      	movs	r3, #81	@ 0x51
   22980:	4630      	mov	r0, r6
   22982:	4629      	mov	r1, r5
   22984:	4622      	mov	r2, r4
   22986:	df03      	svc	3
   22988:	2802      	cmp	r0, #2
   2298a:	d00c      	beq.n	229a6 <_ZN20complex_full_dynamic3app17h95cfeff6902b0424E+0x72>
   2298c:	a80f      	add	r0, sp, #60	@ 0x3c
   2298e:	2103      	movs	r1, #3
   22990:	7201      	strb	r1, [r0, #8]
   22992:	960f      	str	r6, [sp, #60]	@ 0x3c
   22994:	9510      	str	r5, [sp, #64]	@ 0x40
   22996:	4813      	ldr	r0, [pc, #76]	@ (229e4 <_ZN20complex_full_dynamic3app17h95cfeff6902b0424E+0xb0>)
   22998:	2600      	movs	r6, #0
   2299a:	4629      	mov	r1, r5
   2299c:	462a      	mov	r2, r5
   2299e:	4633      	mov	r3, r6
   229a0:	df02      	svc	2
   229a2:	287f      	cmp	r0, #127	@ 0x7f
   229a4:	d80b      	bhi.n	229be <_ZN20complex_full_dynamic3app17h95cfeff6902b0424E+0x8a>
   229a6:	9c02      	ldr	r4, [sp, #8]
   229a8:	6061      	str	r1, [r4, #4]
   229aa:	2601      	movs	r6, #1
   229ac:	7026      	strb	r6, [r4, #0]
   229ae:	a80f      	add	r0, sp, #60	@ 0x3c
   229b0:	f004 fab2 	bl	26f18 <_ZN9allow_pin12full_dynamic17unshare_if_shared17hc627a04126f70c57E>
   229b4:	a803      	add	r0, sp, #12
   229b6:	f004 faaf 	bl	26f18 <_ZN9allow_pin12full_dynamic17unshare_if_shared17hc627a04126f70c57E>
   229ba:	b027      	add	sp, #156	@ 0x9c
   229bc:	bdf0      	pop	{r4, r5, r6, r7, pc}
   229be:	a803      	add	r0, sp, #12
   229c0:	f004 faaa 	bl	26f18 <_ZN9allow_pin12full_dynamic17unshare_if_shared17hc627a04126f70c57E>
   229c4:	4625      	mov	r5, r4
   229c6:	ac0f      	add	r4, sp, #60	@ 0x3c
   229c8:	4620      	mov	r0, r4
   229ca:	f004 faa5 	bl	26f18 <_ZN9allow_pin12full_dynamic17unshare_if_shared17hc627a04126f70c57E>
   229ce:	4620      	mov	r0, r4
   229d0:	f004 faa2 	bl	26f18 <_ZN9allow_pin12full_dynamic17unshare_if_shared17hc627a04126f70c57E>
   229d4:	9c02      	ldr	r4, [sp, #8]
   229d6:	1c60      	adds	r0, r4, #1
   229d8:	2251      	movs	r2, #81	@ 0x51
   229da:	4629      	mov	r1, r5
   229dc:	f004 fc5d 	bl	2729a <__aeabi_memcpy>
   229e0:	e7e4      	b.n	229ac <_ZN20complex_full_dynamic3app17h95cfeff6902b0424E+0x78>
   229e2:	46c0      	nop			@ (mov r8, r8)
   229e4:	0000055e 	.word	0x0000055e

000229e8 <_ZN20complex_full_dynamic3app17h96a61920066cafe1E>:
   229e8:	b5f0      	push	{r4, r5, r6, r7, lr}
   229ea:	af03      	add	r7, sp, #12
   229ec:	b0ab      	sub	sp, #172	@ 0xac
   229ee:	9003      	str	r0, [sp, #12]
   229f0:	ac04      	add	r4, sp, #16
   229f2:	2602      	movs	r6, #2
   229f4:	7226      	strb	r6, [r4, #8]
   229f6:	340c      	adds	r4, #12
   229f8:	222d      	movs	r2, #45	@ 0x2d
   229fa:	9202      	str	r2, [sp, #8]
   229fc:	4620      	mov	r0, r4
   229fe:	f004 fc4c 	bl	2729a <__aeabi_memcpy>
   22a02:	ad13      	add	r5, sp, #76	@ 0x4c
   22a04:	4628      	mov	r0, r5
   22a06:	300c      	adds	r0, #12
   22a08:	2153      	movs	r1, #83	@ 0x53
   22a0a:	9001      	str	r0, [sp, #4]
   22a0c:	f004 fa98 	bl	26f40 <__aeabi_memclr4>
   22a10:	722e      	strb	r6, [r5, #8]
   22a12:	4635      	mov	r5, r6
   22a14:	4e1f      	ldr	r6, [pc, #124]	@ (22a94 <_ZN20complex_full_dynamic3app17h96a61920066cafe1E+0xac>)
   22a16:	4630      	mov	r0, r6
   22a18:	4629      	mov	r1, r5
   22a1a:	4622      	mov	r2, r4
   22a1c:	9b02      	ldr	r3, [sp, #8]
   22a1e:	df04      	svc	4
   22a20:	2802      	cmp	r0, #2
   22a22:	d01a      	beq.n	22a5a <_ZN20complex_full_dynamic3app17h96a61920066cafe1E+0x72>
   22a24:	a804      	add	r0, sp, #16
   22a26:	2104      	movs	r1, #4
   22a28:	7201      	strb	r1, [r0, #8]
   22a2a:	9505      	str	r5, [sp, #20]
   22a2c:	9604      	str	r6, [sp, #16]
   22a2e:	2407      	movs	r4, #7
   22a30:	2353      	movs	r3, #83	@ 0x53
   22a32:	4630      	mov	r0, r6
   22a34:	4621      	mov	r1, r4
   22a36:	9d01      	ldr	r5, [sp, #4]
   22a38:	462a      	mov	r2, r5
   22a3a:	df03      	svc	3
   22a3c:	2802      	cmp	r0, #2
   22a3e:	d00c      	beq.n	22a5a <_ZN20complex_full_dynamic3app17h96a61920066cafe1E+0x72>
   22a40:	a813      	add	r0, sp, #76	@ 0x4c
   22a42:	2103      	movs	r1, #3
   22a44:	7201      	strb	r1, [r0, #8]
   22a46:	9613      	str	r6, [sp, #76]	@ 0x4c
   22a48:	9414      	str	r4, [sp, #80]	@ 0x50
   22a4a:	4812      	ldr	r0, [pc, #72]	@ (22a94 <_ZN20complex_full_dynamic3app17h96a61920066cafe1E+0xac>)
   22a4c:	2102      	movs	r1, #2
   22a4e:	2600      	movs	r6, #0
   22a50:	4622      	mov	r2, r4
   22a52:	4633      	mov	r3, r6
   22a54:	df02      	svc	2
   22a56:	287f      	cmp	r0, #127	@ 0x7f
   22a58:	d80b      	bhi.n	22a72 <_ZN20complex_full_dynamic3app17h96a61920066cafe1E+0x8a>
   22a5a:	9c03      	ldr	r4, [sp, #12]
   22a5c:	6061      	str	r1, [r4, #4]
   22a5e:	2601      	movs	r6, #1
   22a60:	7026      	strb	r6, [r4, #0]
   22a62:	a813      	add	r0, sp, #76	@ 0x4c
   22a64:	f004 fa58 	bl	26f18 <_ZN9allow_pin12full_dynamic17unshare_if_shared17hc627a04126f70c57E>
   22a68:	a804      	add	r0, sp, #16
   22a6a:	f004 fa55 	bl	26f18 <_ZN9allow_pin12full_dynamic17unshare_if_shared17hc627a04126f70c57E>
   22a6e:	b02b      	add	sp, #172	@ 0xac
   22a70:	bdf0      	pop	{r4, r5, r6, r7, pc}
   22a72:	a804      	add	r0, sp, #16
   22a74:	f004 fa50 	bl	26f18 <_ZN9allow_pin12full_dynamic17unshare_if_shared17hc627a04126f70c57E>
   22a78:	ac13      	add	r4, sp, #76	@ 0x4c
   22a7a:	4620      	mov	r0, r4
   22a7c:	f004 fa4c 	bl	26f18 <_ZN9allow_pin12full_dynamic17unshare_if_shared17hc627a04126f70c57E>
   22a80:	4620      	mov	r0, r4
   22a82:	f004 fa49 	bl	26f18 <_ZN9allow_pin12full_dynamic17unshare_if_shared17hc627a04126f70c57E>
   22a86:	9c03      	ldr	r4, [sp, #12]
   22a88:	1c60      	adds	r0, r4, #1
   22a8a:	2253      	movs	r2, #83	@ 0x53
   22a8c:	4629      	mov	r1, r5
   22a8e:	f004 fc04 	bl	2729a <__aeabi_memcpy>
   22a92:	e7e5      	b.n	22a60 <_ZN20complex_full_dynamic3app17h96a61920066cafe1E+0x78>
   22a94:	00000ec3 	.word	0x00000ec3

00022a98 <_ZN20complex_full_dynamic3app17h970a663f7d581606E>:
   22a98:	b5f0      	push	{r4, r5, r6, r7, lr}
   22a9a:	af03      	add	r7, sp, #12
   22a9c:	b0a3      	sub	sp, #140	@ 0x8c
   22a9e:	9002      	str	r0, [sp, #8]
   22aa0:	ac03      	add	r4, sp, #12
   22aa2:	2002      	movs	r0, #2
   22aa4:	9001      	str	r0, [sp, #4]
   22aa6:	7220      	strb	r0, [r4, #8]
   22aa8:	340c      	adds	r4, #12
   22aaa:	2244      	movs	r2, #68	@ 0x44
   22aac:	9200      	str	r2, [sp, #0]
   22aae:	4620      	mov	r0, r4
   22ab0:	f004 fbf3 	bl	2729a <__aeabi_memcpy>
   22ab4:	ae17      	add	r6, sp, #92	@ 0x5c
   22ab6:	4635      	mov	r5, r6
   22ab8:	350c      	adds	r5, #12
   22aba:	2123      	movs	r1, #35	@ 0x23
   22abc:	4628      	mov	r0, r5
   22abe:	f004 fa3f 	bl	26f40 <__aeabi_memclr4>
   22ac2:	9801      	ldr	r0, [sp, #4]
   22ac4:	7230      	strb	r0, [r6, #8]
   22ac6:	481f      	ldr	r0, [pc, #124]	@ (22b44 <_ZN20complex_full_dynamic3app17h970a663f7d581606E+0xac>)
   22ac8:	2606      	movs	r6, #6
   22aca:	4631      	mov	r1, r6
   22acc:	4622      	mov	r2, r4
   22ace:	9b00      	ldr	r3, [sp, #0]
   22ad0:	df04      	svc	4
   22ad2:	2802      	cmp	r0, #2
   22ad4:	d019      	beq.n	22b0a <_ZN20complex_full_dynamic3app17h970a663f7d581606E+0x72>
   22ad6:	a803      	add	r0, sp, #12
   22ad8:	2104      	movs	r1, #4
   22ada:	7201      	strb	r1, [r0, #8]
   22adc:	9604      	str	r6, [sp, #16]
   22ade:	4e19      	ldr	r6, [pc, #100]	@ (22b44 <_ZN20complex_full_dynamic3app17h970a663f7d581606E+0xac>)
   22ae0:	9603      	str	r6, [sp, #12]
   22ae2:	2403      	movs	r4, #3
   22ae4:	2323      	movs	r3, #35	@ 0x23
   22ae6:	4630      	mov	r0, r6
   22ae8:	4621      	mov	r1, r4
   22aea:	462a      	mov	r2, r5
   22aec:	df03      	svc	3
   22aee:	2802      	cmp	r0, #2
   22af0:	d00b      	beq.n	22b0a <_ZN20complex_full_dynamic3app17h970a663f7d581606E+0x72>
   22af2:	a817      	add	r0, sp, #92	@ 0x5c
   22af4:	7204      	strb	r4, [r0, #8]
   22af6:	9418      	str	r4, [sp, #96]	@ 0x60
   22af8:	9617      	str	r6, [sp, #92]	@ 0x5c
   22afa:	4812      	ldr	r0, [pc, #72]	@ (22b44 <_ZN20complex_full_dynamic3app17h970a663f7d581606E+0xac>)
   22afc:	2106      	movs	r1, #6
   22afe:	2600      	movs	r6, #0
   22b00:	4622      	mov	r2, r4
   22b02:	4633      	mov	r3, r6
   22b04:	df02      	svc	2
   22b06:	287f      	cmp	r0, #127	@ 0x7f
   22b08:	d80b      	bhi.n	22b22 <_ZN20complex_full_dynamic3app17h970a663f7d581606E+0x8a>
   22b0a:	9c02      	ldr	r4, [sp, #8]
   22b0c:	6061      	str	r1, [r4, #4]
   22b0e:	2601      	movs	r6, #1
   22b10:	7026      	strb	r6, [r4, #0]
   22b12:	a817      	add	r0, sp, #92	@ 0x5c
   22b14:	f004 fa00 	bl	26f18 <_ZN9allow_pin12full_dynamic17unshare_if_shared17hc627a04126f70c57E>
   22b18:	a803      	add	r0, sp, #12
   22b1a:	f004 f9fd 	bl	26f18 <_ZN9allow_pin12full_dynamic17unshare_if_shared17hc627a04126f70c57E>
   22b1e:	b023      	add	sp, #140	@ 0x8c
   22b20:	bdf0      	pop	{r4, r5, r6, r7, pc}
   22b22:	a803      	add	r0, sp, #12
   22b24:	f004 f9f8 	bl	26f18 <_ZN9allow_pin12full_dynamic17unshare_if_shared17hc627a04126f70c57E>
   22b28:	ac17      	add	r4, sp, #92	@ 0x5c
   22b2a:	4620      	mov	r0, r4
   22b2c:	f004 f9f4 	bl	26f18 <_ZN9allow_pin12full_dynamic17unshare_if_shared17hc627a04126f70c57E>
   22b30:	4620      	mov	r0, r4
   22b32:	f004 f9f1 	bl	26f18 <_ZN9allow_pin12full_dynamic17unshare_if_shared17hc627a04126f70c57E>
   22b36:	9c02      	ldr	r4, [sp, #8]
   22b38:	1c60      	adds	r0, r4, #1
   22b3a:	2223      	movs	r2, #35	@ 0x23
   22b3c:	4629      	mov	r1, r5
   22b3e:	f004 fbac 	bl	2729a <__aeabi_memcpy>
   22b42:	e7e5      	b.n	22b10 <_ZN20complex_full_dynamic3app17h970a663f7d581606E+0x78>
   22b44:	000009bf 	.word	0x000009bf

00022b48 <_ZN20complex_full_dynamic3app17h98c5dc0c093f445dE>:
   22b48:	b5f0      	push	{r4, r5, r6, r7, lr}
   22b4a:	af03      	add	r7, sp, #12
   22b4c:	b0a7      	sub	sp, #156	@ 0x9c
   22b4e:	9003      	str	r0, [sp, #12]
   22b50:	ac04      	add	r4, sp, #16
   22b52:	2002      	movs	r0, #2
   22b54:	9002      	str	r0, [sp, #8]
   22b56:	7220      	strb	r0, [r4, #8]
   22b58:	340c      	adds	r4, #12
   22b5a:	2240      	movs	r2, #64	@ 0x40
   22b5c:	9201      	str	r2, [sp, #4]
   22b5e:	4620      	mov	r0, r4
   22b60:	f004 fb9b 	bl	2729a <__aeabi_memcpy>
   22b64:	ae17      	add	r6, sp, #92	@ 0x5c
   22b66:	4635      	mov	r5, r6
   22b68:	350c      	adds	r5, #12
   22b6a:	2131      	movs	r1, #49	@ 0x31
   22b6c:	4628      	mov	r0, r5
   22b6e:	f004 f9e7 	bl	26f40 <__aeabi_memclr4>
   22b72:	9802      	ldr	r0, [sp, #8]
   22b74:	7230      	strb	r0, [r6, #8]
   22b76:	4820      	ldr	r0, [pc, #128]	@ (22bf8 <_ZN20complex_full_dynamic3app17h98c5dc0c093f445dE+0xb0>)
   22b78:	2608      	movs	r6, #8
   22b7a:	4631      	mov	r1, r6
   22b7c:	4622      	mov	r2, r4
   22b7e:	9b01      	ldr	r3, [sp, #4]
   22b80:	df04      	svc	4
   22b82:	2802      	cmp	r0, #2
   22b84:	d01a      	beq.n	22bbc <_ZN20complex_full_dynamic3app17h98c5dc0c093f445dE+0x74>
   22b86:	a804      	add	r0, sp, #16
   22b88:	2104      	movs	r1, #4
   22b8a:	7201      	strb	r1, [r0, #8]
   22b8c:	9605      	str	r6, [sp, #20]
   22b8e:	4e1a      	ldr	r6, [pc, #104]	@ (22bf8 <_ZN20complex_full_dynamic3app17h98c5dc0c093f445dE+0xb0>)
   22b90:	9604      	str	r6, [sp, #16]
   22b92:	2405      	movs	r4, #5
   22b94:	2331      	movs	r3, #49	@ 0x31
   22b96:	4630      	mov	r0, r6
   22b98:	4621      	mov	r1, r4
   22b9a:	462a      	mov	r2, r5
   22b9c:	df03      	svc	3
   22b9e:	2802      	cmp	r0, #2
   22ba0:	d00c      	beq.n	22bbc <_ZN20complex_full_dynamic3app17h98c5dc0c093f445dE+0x74>
   22ba2:	a817      	add	r0, sp, #92	@ 0x5c
   22ba4:	2103      	movs	r1, #3
   22ba6:	7201      	strb	r1, [r0, #8]
   22ba8:	9617      	str	r6, [sp, #92]	@ 0x5c
   22baa:	9418      	str	r4, [sp, #96]	@ 0x60
   22bac:	4812      	ldr	r0, [pc, #72]	@ (22bf8 <_ZN20complex_full_dynamic3app17h98c5dc0c093f445dE+0xb0>)
   22bae:	2108      	movs	r1, #8
   22bb0:	2600      	movs	r6, #0
   22bb2:	4622      	mov	r2, r4
   22bb4:	4633      	mov	r3, r6
   22bb6:	df02      	svc	2
   22bb8:	287f      	cmp	r0, #127	@ 0x7f
   22bba:	d80b      	bhi.n	22bd4 <_ZN20complex_full_dynamic3app17h98c5dc0c093f445dE+0x8c>
   22bbc:	9c03      	ldr	r4, [sp, #12]
   22bbe:	6061      	str	r1, [r4, #4]
   22bc0:	2601      	movs	r6, #1
   22bc2:	7026      	strb	r6, [r4, #0]
   22bc4:	a817      	add	r0, sp, #92	@ 0x5c
   22bc6:	f004 f9a7 	bl	26f18 <_ZN9allow_pin12full_dynamic17unshare_if_shared17hc627a04126f70c57E>
   22bca:	a804      	add	r0, sp, #16
   22bcc:	f004 f9a4 	bl	26f18 <_ZN9allow_pin12full_dynamic17unshare_if_shared17hc627a04126f70c57E>
   22bd0:	b027      	add	sp, #156	@ 0x9c
   22bd2:	bdf0      	pop	{r4, r5, r6, r7, pc}
   22bd4:	a804      	add	r0, sp, #16
   22bd6:	f004 f99f 	bl	26f18 <_ZN9allow_pin12full_dynamic17unshare_if_shared17hc627a04126f70c57E>
   22bda:	ac17      	add	r4, sp, #92	@ 0x5c
   22bdc:	4620      	mov	r0, r4
   22bde:	f004 f99b 	bl	26f18 <_ZN9allow_pin12full_dynamic17unshare_if_shared17hc627a04126f70c57E>
   22be2:	4620      	mov	r0, r4
   22be4:	f004 f998 	bl	26f18 <_ZN9allow_pin12full_dynamic17unshare_if_shared17hc627a04126f70c57E>
   22be8:	9c03      	ldr	r4, [sp, #12]
   22bea:	1c60      	adds	r0, r4, #1
   22bec:	2231      	movs	r2, #49	@ 0x31
   22bee:	4629      	mov	r1, r5
   22bf0:	f004 fb53 	bl	2729a <__aeabi_memcpy>
   22bf4:	e7e5      	b.n	22bc2 <_ZN20complex_full_dynamic3app17h98c5dc0c093f445dE+0x7a>
   22bf6:	46c0      	nop			@ (mov r8, r8)
   22bf8:	00000fce 	.word	0x00000fce

00022bfc <_ZN20complex_full_dynamic3app17h99d1c410ef3ba66dE>:
   22bfc:	b5f0      	push	{r4, r5, r6, r7, lr}
   22bfe:	af03      	add	r7, sp, #12
   22c00:	b09b      	sub	sp, #108	@ 0x6c
   22c02:	9002      	str	r0, [sp, #8]
   22c04:	ac03      	add	r4, sp, #12
   22c06:	2002      	movs	r0, #2
   22c08:	9001      	str	r0, [sp, #4]
   22c0a:	7220      	strb	r0, [r4, #8]
   22c0c:	340c      	adds	r4, #12
   22c0e:	2210      	movs	r2, #16
   22c10:	9200      	str	r2, [sp, #0]
   22c12:	4620      	mov	r0, r4
   22c14:	f004 fb41 	bl	2729a <__aeabi_memcpy>
   22c18:	ae0a      	add	r6, sp, #40	@ 0x28
   22c1a:	4635      	mov	r5, r6
   22c1c:	350c      	adds	r5, #12
   22c1e:	2136      	movs	r1, #54	@ 0x36
   22c20:	4628      	mov	r0, r5
   22c22:	f004 f98d 	bl	26f40 <__aeabi_memclr4>
   22c26:	9801      	ldr	r0, [sp, #4]
   22c28:	7230      	strb	r0, [r6, #8]
   22c2a:	481f      	ldr	r0, [pc, #124]	@ (22ca8 <_ZN20complex_full_dynamic3app17h99d1c410ef3ba66dE+0xac>)
   22c2c:	2601      	movs	r6, #1
   22c2e:	4631      	mov	r1, r6
   22c30:	4622      	mov	r2, r4
   22c32:	9b00      	ldr	r3, [sp, #0]
   22c34:	df04      	svc	4
   22c36:	2802      	cmp	r0, #2
   22c38:	d019      	beq.n	22c6e <_ZN20complex_full_dynamic3app17h99d1c410ef3ba66dE+0x72>
   22c3a:	a803      	add	r0, sp, #12
   22c3c:	2104      	movs	r1, #4
   22c3e:	7201      	strb	r1, [r0, #8]
   22c40:	9604      	str	r6, [sp, #16]
   22c42:	4819      	ldr	r0, [pc, #100]	@ (22ca8 <_ZN20complex_full_dynamic3app17h99d1c410ef3ba66dE+0xac>)
   22c44:	9003      	str	r0, [sp, #12]
   22c46:	2407      	movs	r4, #7
   22c48:	2336      	movs	r3, #54	@ 0x36
   22c4a:	4621      	mov	r1, r4
   22c4c:	462a      	mov	r2, r5
   22c4e:	df03      	svc	3
   22c50:	2802      	cmp	r0, #2
   22c52:	d00c      	beq.n	22c6e <_ZN20complex_full_dynamic3app17h99d1c410ef3ba66dE+0x72>
   22c54:	a80a      	add	r0, sp, #40	@ 0x28
   22c56:	2103      	movs	r1, #3
   22c58:	7201      	strb	r1, [r0, #8]
   22c5a:	4813      	ldr	r0, [pc, #76]	@ (22ca8 <_ZN20complex_full_dynamic3app17h99d1c410ef3ba66dE+0xac>)
   22c5c:	900a      	str	r0, [sp, #40]	@ 0x28
   22c5e:	940b      	str	r4, [sp, #44]	@ 0x2c
   22c60:	2101      	movs	r1, #1
   22c62:	2300      	movs	r3, #0
   22c64:	4622      	mov	r2, r4
   22c66:	9301      	str	r3, [sp, #4]
   22c68:	df02      	svc	2
   22c6a:	287f      	cmp	r0, #127	@ 0x7f
   22c6c:	d80a      	bhi.n	22c84 <_ZN20complex_full_dynamic3app17h99d1c410ef3ba66dE+0x88>
   22c6e:	9c02      	ldr	r4, [sp, #8]
   22c70:	6061      	str	r1, [r4, #4]
   22c72:	7026      	strb	r6, [r4, #0]
   22c74:	a80a      	add	r0, sp, #40	@ 0x28
   22c76:	f004 f94f 	bl	26f18 <_ZN9allow_pin12full_dynamic17unshare_if_shared17hc627a04126f70c57E>
   22c7a:	a803      	add	r0, sp, #12
   22c7c:	f004 f94c 	bl	26f18 <_ZN9allow_pin12full_dynamic17unshare_if_shared17hc627a04126f70c57E>
   22c80:	b01b      	add	sp, #108	@ 0x6c
   22c82:	bdf0      	pop	{r4, r5, r6, r7, pc}
   22c84:	a803      	add	r0, sp, #12
   22c86:	f004 f947 	bl	26f18 <_ZN9allow_pin12full_dynamic17unshare_if_shared17hc627a04126f70c57E>
   22c8a:	ac0a      	add	r4, sp, #40	@ 0x28
   22c8c:	4620      	mov	r0, r4
   22c8e:	f004 f943 	bl	26f18 <_ZN9allow_pin12full_dynamic17unshare_if_shared17hc627a04126f70c57E>
   22c92:	4620      	mov	r0, r4
   22c94:	f004 f940 	bl	26f18 <_ZN9allow_pin12full_dynamic17unshare_if_shared17hc627a04126f70c57E>
   22c98:	9c02      	ldr	r4, [sp, #8]
   22c9a:	1c60      	adds	r0, r4, #1
   22c9c:	2236      	movs	r2, #54	@ 0x36
   22c9e:	4629      	mov	r1, r5
   22ca0:	f004 fafb 	bl	2729a <__aeabi_memcpy>
   22ca4:	9e01      	ldr	r6, [sp, #4]
   22ca6:	e7e4      	b.n	22c72 <_ZN20complex_full_dynamic3app17h99d1c410ef3ba66dE+0x76>
   22ca8:	00001989 	.word	0x00001989

00022cac <_ZN20complex_full_dynamic3app17h9d4baa9847af4abbE>:
   22cac:	b5f0      	push	{r4, r5, r6, r7, lr}
   22cae:	af03      	add	r7, sp, #12
   22cb0:	b0ad      	sub	sp, #180	@ 0xb4
   22cb2:	9002      	str	r0, [sp, #8]
   22cb4:	ae03      	add	r6, sp, #12
   22cb6:	2002      	movs	r0, #2
   22cb8:	9001      	str	r0, [sp, #4]
   22cba:	7230      	strb	r0, [r6, #8]
   22cbc:	360c      	adds	r6, #12
   22cbe:	2263      	movs	r2, #99	@ 0x63
   22cc0:	9200      	str	r2, [sp, #0]
   22cc2:	4630      	mov	r0, r6
   22cc4:	f004 fae9 	bl	2729a <__aeabi_memcpy>
   22cc8:	ad1f      	add	r5, sp, #124	@ 0x7c
   22cca:	462c      	mov	r4, r5
   22ccc:	340c      	adds	r4, #12
   22cce:	212c      	movs	r1, #44	@ 0x2c
   22cd0:	4620      	mov	r0, r4
   22cd2:	f004 f935 	bl	26f40 <__aeabi_memclr4>
   22cd6:	9801      	ldr	r0, [sp, #4]
   22cd8:	7228      	strb	r0, [r5, #8]
   22cda:	2018      	movs	r0, #24
   22cdc:	2505      	movs	r5, #5
   22cde:	9001      	str	r0, [sp, #4]
   22ce0:	4629      	mov	r1, r5
   22ce2:	4632      	mov	r2, r6
   22ce4:	9b00      	ldr	r3, [sp, #0]
   22ce6:	df04      	svc	4
   22ce8:	2802      	cmp	r0, #2
   22cea:	d018      	beq.n	22d1e <_ZN20complex_full_dynamic3app17h9d4baa9847af4abbE+0x72>
   22cec:	a803      	add	r0, sp, #12
   22cee:	2104      	movs	r1, #4
   22cf0:	7201      	strb	r1, [r0, #8]
   22cf2:	9504      	str	r5, [sp, #16]
   22cf4:	9801      	ldr	r0, [sp, #4]
   22cf6:	9003      	str	r0, [sp, #12]
   22cf8:	2503      	movs	r5, #3
   22cfa:	232c      	movs	r3, #44	@ 0x2c
   22cfc:	4629      	mov	r1, r5
   22cfe:	4622      	mov	r2, r4
   22d00:	df03      	svc	3
   22d02:	2802      	cmp	r0, #2
   22d04:	d00b      	beq.n	22d1e <_ZN20complex_full_dynamic3app17h9d4baa9847af4abbE+0x72>
   22d06:	a81f      	add	r0, sp, #124	@ 0x7c
   22d08:	7205      	strb	r5, [r0, #8]
   22d0a:	9520      	str	r5, [sp, #128]	@ 0x80
   22d0c:	9801      	ldr	r0, [sp, #4]
   22d0e:	901f      	str	r0, [sp, #124]	@ 0x7c
   22d10:	2105      	movs	r1, #5
   22d12:	2600      	movs	r6, #0
   22d14:	462a      	mov	r2, r5
   22d16:	4633      	mov	r3, r6
   22d18:	df02      	svc	2
   22d1a:	287f      	cmp	r0, #127	@ 0x7f
   22d1c:	d80b      	bhi.n	22d36 <_ZN20complex_full_dynamic3app17h9d4baa9847af4abbE+0x8a>
   22d1e:	9c02      	ldr	r4, [sp, #8]
   22d20:	6061      	str	r1, [r4, #4]
   22d22:	2601      	movs	r6, #1
   22d24:	7026      	strb	r6, [r4, #0]
   22d26:	a81f      	add	r0, sp, #124	@ 0x7c
   22d28:	f004 f8f6 	bl	26f18 <_ZN9allow_pin12full_dynamic17unshare_if_shared17hc627a04126f70c57E>
   22d2c:	a803      	add	r0, sp, #12
   22d2e:	f004 f8f3 	bl	26f18 <_ZN9allow_pin12full_dynamic17unshare_if_shared17hc627a04126f70c57E>
   22d32:	b02d      	add	sp, #180	@ 0xb4
   22d34:	bdf0      	pop	{r4, r5, r6, r7, pc}
   22d36:	a803      	add	r0, sp, #12
   22d38:	f004 f8ee 	bl	26f18 <_ZN9allow_pin12full_dynamic17unshare_if_shared17hc627a04126f70c57E>
   22d3c:	4625      	mov	r5, r4
   22d3e:	ac1f      	add	r4, sp, #124	@ 0x7c
   22d40:	4620      	mov	r0, r4
   22d42:	f004 f8e9 	bl	26f18 <_ZN9allow_pin12full_dynamic17unshare_if_shared17hc627a04126f70c57E>
   22d46:	4620      	mov	r0, r4
   22d48:	f004 f8e6 	bl	26f18 <_ZN9allow_pin12full_dynamic17unshare_if_shared17hc627a04126f70c57E>
   22d4c:	9c02      	ldr	r4, [sp, #8]
   22d4e:	1c60      	adds	r0, r4, #1
   22d50:	222c      	movs	r2, #44	@ 0x2c
   22d52:	4629      	mov	r1, r5
   22d54:	f004 faa1 	bl	2729a <__aeabi_memcpy>
   22d58:	e7e4      	b.n	22d24 <_ZN20complex_full_dynamic3app17h9d4baa9847af4abbE+0x78>
   22d5a:	d4d4      	bmi.n	22d06 <_ZN20complex_full_dynamic3app17h9d4baa9847af4abbE+0x5a>

00022d5c <_ZN20complex_full_dynamic3app17h9ee26d89e6340a07E>:
   22d5c:	b5f0      	push	{r4, r5, r6, r7, lr}
   22d5e:	af03      	add	r7, sp, #12
   22d60:	b0a3      	sub	sp, #140	@ 0x8c
   22d62:	9002      	str	r0, [sp, #8]
   22d64:	ae03      	add	r6, sp, #12
   22d66:	2002      	movs	r0, #2
   22d68:	9001      	str	r0, [sp, #4]
   22d6a:	7230      	strb	r0, [r6, #8]
   22d6c:	360c      	adds	r6, #12
   22d6e:	222e      	movs	r2, #46	@ 0x2e
   22d70:	9200      	str	r2, [sp, #0]
   22d72:	4630      	mov	r0, r6
   22d74:	f004 fa91 	bl	2729a <__aeabi_memcpy>
   22d78:	ad12      	add	r5, sp, #72	@ 0x48
   22d7a:	462c      	mov	r4, r5
   22d7c:	340c      	adds	r4, #12
   22d7e:	2138      	movs	r1, #56	@ 0x38
   22d80:	4620      	mov	r0, r4
   22d82:	f004 f8dd 	bl	26f40 <__aeabi_memclr4>
   22d86:	9801      	ldr	r0, [sp, #4]
   22d88:	7228      	strb	r0, [r5, #8]
   22d8a:	4820      	ldr	r0, [pc, #128]	@ (22e0c <_ZN20complex_full_dynamic3app17h9ee26d89e6340a07E+0xb0>)
   22d8c:	2509      	movs	r5, #9
   22d8e:	4629      	mov	r1, r5
   22d90:	4632      	mov	r2, r6
   22d92:	9b00      	ldr	r3, [sp, #0]
   22d94:	df04      	svc	4
   22d96:	2802      	cmp	r0, #2
   22d98:	d019      	beq.n	22dce <_ZN20complex_full_dynamic3app17h9ee26d89e6340a07E+0x72>
   22d9a:	a803      	add	r0, sp, #12
   22d9c:	2104      	movs	r1, #4
   22d9e:	7201      	strb	r1, [r0, #8]
   22da0:	4e1a      	ldr	r6, [pc, #104]	@ (22e0c <_ZN20complex_full_dynamic3app17h9ee26d89e6340a07E+0xb0>)
   22da2:	9603      	str	r6, [sp, #12]
   22da4:	9504      	str	r5, [sp, #16]
   22da6:	2338      	movs	r3, #56	@ 0x38
   22da8:	4630      	mov	r0, r6
   22daa:	4629      	mov	r1, r5
   22dac:	4622      	mov	r2, r4
   22dae:	df03      	svc	3
   22db0:	2802      	cmp	r0, #2
   22db2:	d00c      	beq.n	22dce <_ZN20complex_full_dynamic3app17h9ee26d89e6340a07E+0x72>
   22db4:	a812      	add	r0, sp, #72	@ 0x48
   22db6:	2103      	movs	r1, #3
   22db8:	7201      	strb	r1, [r0, #8]
   22dba:	9612      	str	r6, [sp, #72]	@ 0x48
   22dbc:	9513      	str	r5, [sp, #76]	@ 0x4c
   22dbe:	4813      	ldr	r0, [pc, #76]	@ (22e0c <_ZN20complex_full_dynamic3app17h9ee26d89e6340a07E+0xb0>)
   22dc0:	2600      	movs	r6, #0
   22dc2:	4629      	mov	r1, r5
   22dc4:	462a      	mov	r2, r5
   22dc6:	4633      	mov	r3, r6
   22dc8:	df02      	svc	2
   22dca:	287f      	cmp	r0, #127	@ 0x7f
   22dcc:	d80b      	bhi.n	22de6 <_ZN20complex_full_dynamic3app17h9ee26d89e6340a07E+0x8a>
   22dce:	9c02      	ldr	r4, [sp, #8]
   22dd0:	6061      	str	r1, [r4, #4]
   22dd2:	2601      	movs	r6, #1
   22dd4:	7026      	strb	r6, [r4, #0]
   22dd6:	a812      	add	r0, sp, #72	@ 0x48
   22dd8:	f004 f89e 	bl	26f18 <_ZN9allow_pin12full_dynamic17unshare_if_shared17hc627a04126f70c57E>
   22ddc:	a803      	add	r0, sp, #12
   22dde:	f004 f89b 	bl	26f18 <_ZN9allow_pin12full_dynamic17unshare_if_shared17hc627a04126f70c57E>
   22de2:	b023      	add	sp, #140	@ 0x8c
   22de4:	bdf0      	pop	{r4, r5, r6, r7, pc}
   22de6:	a803      	add	r0, sp, #12
   22de8:	f004 f896 	bl	26f18 <_ZN9allow_pin12full_dynamic17unshare_if_shared17hc627a04126f70c57E>
   22dec:	4625      	mov	r5, r4
   22dee:	ac12      	add	r4, sp, #72	@ 0x48
   22df0:	4620      	mov	r0, r4
   22df2:	f004 f891 	bl	26f18 <_ZN9allow_pin12full_dynamic17unshare_if_shared17hc627a04126f70c57E>
   22df6:	4620      	mov	r0, r4
   22df8:	f004 f88e 	bl	26f18 <_ZN9allow_pin12full_dynamic17unshare_if_shared17hc627a04126f70c57E>
   22dfc:	9c02      	ldr	r4, [sp, #8]
   22dfe:	1c60      	adds	r0, r4, #1
   22e00:	2238      	movs	r2, #56	@ 0x38
   22e02:	4629      	mov	r1, r5
   22e04:	f004 fa49 	bl	2729a <__aeabi_memcpy>
   22e08:	e7e4      	b.n	22dd4 <_ZN20complex_full_dynamic3app17h9ee26d89e6340a07E+0x78>
   22e0a:	46c0      	nop			@ (mov r8, r8)
   22e0c:	00000a9d 	.word	0x00000a9d

00022e10 <_ZN20complex_full_dynamic3app17ha6357d96bce04162E>:
   22e10:	b5f0      	push	{r4, r5, r6, r7, lr}
   22e12:	af03      	add	r7, sp, #12
   22e14:	b099      	sub	sp, #100	@ 0x64
   22e16:	9002      	str	r0, [sp, #8]
   22e18:	ac03      	add	r4, sp, #12
   22e1a:	2002      	movs	r0, #2
   22e1c:	9001      	str	r0, [sp, #4]
   22e1e:	7220      	strb	r0, [r4, #8]
   22e20:	340c      	adds	r4, #12
   22e22:	2214      	movs	r2, #20
   22e24:	9200      	str	r2, [sp, #0]
   22e26:	4620      	mov	r0, r4
   22e28:	f004 fa37 	bl	2729a <__aeabi_memcpy>
   22e2c:	ae0b      	add	r6, sp, #44	@ 0x2c
   22e2e:	4635      	mov	r5, r6
   22e30:	350c      	adds	r5, #12
   22e32:	212b      	movs	r1, #43	@ 0x2b
   22e34:	4628      	mov	r0, r5
   22e36:	f004 f883 	bl	26f40 <__aeabi_memclr4>
   22e3a:	9801      	ldr	r0, [sp, #4]
   22e3c:	7230      	strb	r0, [r6, #8]
   22e3e:	481f      	ldr	r0, [pc, #124]	@ (22ebc <_ZN20complex_full_dynamic3app17ha6357d96bce04162E+0xac>)
   22e40:	2608      	movs	r6, #8
   22e42:	4631      	mov	r1, r6
   22e44:	4622      	mov	r2, r4
   22e46:	9b00      	ldr	r3, [sp, #0]
   22e48:	df04      	svc	4
   22e4a:	2802      	cmp	r0, #2
   22e4c:	d019      	beq.n	22e82 <_ZN20complex_full_dynamic3app17ha6357d96bce04162E+0x72>
   22e4e:	a803      	add	r0, sp, #12
   22e50:	2404      	movs	r4, #4
   22e52:	7204      	strb	r4, [r0, #8]
   22e54:	9604      	str	r6, [sp, #16]
   22e56:	4e19      	ldr	r6, [pc, #100]	@ (22ebc <_ZN20complex_full_dynamic3app17ha6357d96bce04162E+0xac>)
   22e58:	9603      	str	r6, [sp, #12]
   22e5a:	232b      	movs	r3, #43	@ 0x2b
   22e5c:	4630      	mov	r0, r6
   22e5e:	4621      	mov	r1, r4
   22e60:	462a      	mov	r2, r5
   22e62:	df03      	svc	3
   22e64:	2802      	cmp	r0, #2
   22e66:	d00c      	beq.n	22e82 <_ZN20complex_full_dynamic3app17ha6357d96bce04162E+0x72>
   22e68:	a80b      	add	r0, sp, #44	@ 0x2c
   22e6a:	2103      	movs	r1, #3
   22e6c:	7201      	strb	r1, [r0, #8]
   22e6e:	960b      	str	r6, [sp, #44]	@ 0x2c
   22e70:	940c      	str	r4, [sp, #48]	@ 0x30
   22e72:	4812      	ldr	r0, [pc, #72]	@ (22ebc <_ZN20complex_full_dynamic3app17ha6357d96bce04162E+0xac>)
   22e74:	2108      	movs	r1, #8
   22e76:	2600      	movs	r6, #0
   22e78:	4622      	mov	r2, r4
   22e7a:	4633      	mov	r3, r6
   22e7c:	df02      	svc	2
   22e7e:	287f      	cmp	r0, #127	@ 0x7f
   22e80:	d80b      	bhi.n	22e9a <_ZN20complex_full_dynamic3app17ha6357d96bce04162E+0x8a>
   22e82:	9c02      	ldr	r4, [sp, #8]
   22e84:	6061      	str	r1, [r4, #4]
   22e86:	2601      	movs	r6, #1
   22e88:	7026      	strb	r6, [r4, #0]
   22e8a:	a80b      	add	r0, sp, #44	@ 0x2c
   22e8c:	f004 f844 	bl	26f18 <_ZN9allow_pin12full_dynamic17unshare_if_shared17hc627a04126f70c57E>
   22e90:	a803      	add	r0, sp, #12
   22e92:	f004 f841 	bl	26f18 <_ZN9allow_pin12full_dynamic17unshare_if_shared17hc627a04126f70c57E>
   22e96:	b019      	add	sp, #100	@ 0x64
   22e98:	bdf0      	pop	{r4, r5, r6, r7, pc}
   22e9a:	a803      	add	r0, sp, #12
   22e9c:	f004 f83c 	bl	26f18 <_ZN9allow_pin12full_dynamic17unshare_if_shared17hc627a04126f70c57E>
   22ea0:	ac0b      	add	r4, sp, #44	@ 0x2c
   22ea2:	4620      	mov	r0, r4
   22ea4:	f004 f838 	bl	26f18 <_ZN9allow_pin12full_dynamic17unshare_if_shared17hc627a04126f70c57E>
   22ea8:	4620      	mov	r0, r4
   22eaa:	f004 f835 	bl	26f18 <_ZN9allow_pin12full_dynamic17unshare_if_shared17hc627a04126f70c57E>
   22eae:	9c02      	ldr	r4, [sp, #8]
   22eb0:	1c60      	adds	r0, r4, #1
   22eb2:	222b      	movs	r2, #43	@ 0x2b
   22eb4:	4629      	mov	r1, r5
   22eb6:	f004 f9f0 	bl	2729a <__aeabi_memcpy>
   22eba:	e7e5      	b.n	22e88 <_ZN20complex_full_dynamic3app17ha6357d96bce04162E+0x78>
   22ebc:	0000239f 	.word	0x0000239f

00022ec0 <_ZN20complex_full_dynamic3app17ha6c24f268a65a904E>:
   22ec0:	b5f0      	push	{r4, r5, r6, r7, lr}
   22ec2:	af03      	add	r7, sp, #12
   22ec4:	b09b      	sub	sp, #108	@ 0x6c
   22ec6:	9002      	str	r0, [sp, #8]
   22ec8:	ae03      	add	r6, sp, #12
   22eca:	2402      	movs	r4, #2
   22ecc:	7234      	strb	r4, [r6, #8]
   22ece:	360c      	adds	r6, #12
   22ed0:	2227      	movs	r2, #39	@ 0x27
   22ed2:	9201      	str	r2, [sp, #4]
   22ed4:	4630      	mov	r0, r6
   22ed6:	f004 f9e0 	bl	2729a <__aeabi_memcpy>
   22eda:	ad10      	add	r5, sp, #64	@ 0x40
   22edc:	2000      	movs	r0, #0
   22ede:	8528      	strh	r0, [r5, #40]	@ 0x28
   22ee0:	722c      	strb	r4, [r5, #8]
   22ee2:	9019      	str	r0, [sp, #100]	@ 0x64
   22ee4:	9018      	str	r0, [sp, #96]	@ 0x60
   22ee6:	9017      	str	r0, [sp, #92]	@ 0x5c
   22ee8:	9016      	str	r0, [sp, #88]	@ 0x58
   22eea:	9015      	str	r0, [sp, #84]	@ 0x54
   22eec:	9014      	str	r0, [sp, #80]	@ 0x50
   22eee:	9013      	str	r0, [sp, #76]	@ 0x4c
   22ef0:	481f      	ldr	r0, [pc, #124]	@ (22f70 <_ZN20complex_full_dynamic3app17ha6c24f268a65a904E+0xb0>)
   22ef2:	2403      	movs	r4, #3
   22ef4:	4621      	mov	r1, r4
   22ef6:	4632      	mov	r2, r6
   22ef8:	9b01      	ldr	r3, [sp, #4]
   22efa:	df04      	svc	4
   22efc:	2802      	cmp	r0, #2
   22efe:	d019      	beq.n	22f34 <_ZN20complex_full_dynamic3app17ha6c24f268a65a904E+0x74>
   22f00:	350c      	adds	r5, #12
   22f02:	a803      	add	r0, sp, #12
   22f04:	2104      	movs	r1, #4
   22f06:	7201      	strb	r1, [r0, #8]
   22f08:	4e19      	ldr	r6, [pc, #100]	@ (22f70 <_ZN20complex_full_dynamic3app17ha6c24f268a65a904E+0xb0>)
   22f0a:	9603      	str	r6, [sp, #12]
   22f0c:	9404      	str	r4, [sp, #16]
   22f0e:	231e      	movs	r3, #30
   22f10:	4630      	mov	r0, r6
   22f12:	4621      	mov	r1, r4
   22f14:	462a      	mov	r2, r5
   22f16:	df03      	svc	3
   22f18:	2802      	cmp	r0, #2
   22f1a:	d00b      	beq.n	22f34 <_ZN20complex_full_dynamic3app17ha6c24f268a65a904E+0x74>
   22f1c:	a810      	add	r0, sp, #64	@ 0x40
   22f1e:	7204      	strb	r4, [r0, #8]
   22f20:	9411      	str	r4, [sp, #68]	@ 0x44
   22f22:	9610      	str	r6, [sp, #64]	@ 0x40
   22f24:	4812      	ldr	r0, [pc, #72]	@ (22f70 <_ZN20complex_full_dynamic3app17ha6c24f268a65a904E+0xb0>)
   22f26:	2600      	movs	r6, #0
   22f28:	4621      	mov	r1, r4
   22f2a:	4622      	mov	r2, r4
   22f2c:	4633      	mov	r3, r6
   22f2e:	df02      	svc	2
   22f30:	287f      	cmp	r0, #127	@ 0x7f
   22f32:	d80b      	bhi.n	22f4c <_ZN20complex_full_dynamic3app17ha6c24f268a65a904E+0x8c>
   22f34:	9c02      	ldr	r4, [sp, #8]
   22f36:	6061      	str	r1, [r4, #4]
   22f38:	2601      	movs	r6, #1
   22f3a:	7026      	strb	r6, [r4, #0]
   22f3c:	a810      	add	r0, sp, #64	@ 0x40
   22f3e:	f003 ffeb 	bl	26f18 <_ZN9allow_pin12full_dynamic17unshare_if_shared17hc627a04126f70c57E>
   22f42:	a803      	add	r0, sp, #12
   22f44:	f003 ffe8 	bl	26f18 <_ZN9allow_pin12full_dynamic17unshare_if_shared17hc627a04126f70c57E>
   22f48:	b01b      	add	sp, #108	@ 0x6c
   22f4a:	bdf0      	pop	{r4, r5, r6, r7, pc}
   22f4c:	a803      	add	r0, sp, #12
   22f4e:	f003 ffe3 	bl	26f18 <_ZN9allow_pin12full_dynamic17unshare_if_shared17hc627a04126f70c57E>
   22f52:	ac10      	add	r4, sp, #64	@ 0x40
   22f54:	4620      	mov	r0, r4
   22f56:	f003 ffdf 	bl	26f18 <_ZN9allow_pin12full_dynamic17unshare_if_shared17hc627a04126f70c57E>
   22f5a:	4620      	mov	r0, r4
   22f5c:	f003 ffdc 	bl	26f18 <_ZN9allow_pin12full_dynamic17unshare_if_shared17hc627a04126f70c57E>
   22f60:	9c02      	ldr	r4, [sp, #8]
   22f62:	1c60      	adds	r0, r4, #1
   22f64:	221e      	movs	r2, #30
   22f66:	4629      	mov	r1, r5
   22f68:	f004 f997 	bl	2729a <__aeabi_memcpy>
   22f6c:	e7e5      	b.n	22f3a <_ZN20complex_full_dynamic3app17ha6c24f268a65a904E+0x7a>
   22f6e:	46c0      	nop			@ (mov r8, r8)
   22f70:	000010e2 	.word	0x000010e2

00022f74 <_ZN20complex_full_dynamic3app17ha94d986f9c2d0ac3E>:
   22f74:	b5f0      	push	{r4, r5, r6, r7, lr}
   22f76:	af03      	add	r7, sp, #12
   22f78:	b09b      	sub	sp, #108	@ 0x6c
   22f7a:	9002      	str	r0, [sp, #8]
   22f7c:	ac03      	add	r4, sp, #12
   22f7e:	2002      	movs	r0, #2
   22f80:	9001      	str	r0, [sp, #4]
   22f82:	7220      	strb	r0, [r4, #8]
   22f84:	340c      	adds	r4, #12
   22f86:	2223      	movs	r2, #35	@ 0x23
   22f88:	9200      	str	r2, [sp, #0]
   22f8a:	4620      	mov	r0, r4
   22f8c:	f004 f985 	bl	2729a <__aeabi_memcpy>
   22f90:	ae0f      	add	r6, sp, #60	@ 0x3c
   22f92:	4635      	mov	r5, r6
   22f94:	350c      	adds	r5, #12
   22f96:	2124      	movs	r1, #36	@ 0x24
   22f98:	4628      	mov	r0, r5
   22f9a:	f003 ffd1 	bl	26f40 <__aeabi_memclr4>
   22f9e:	9801      	ldr	r0, [sp, #4]
   22fa0:	7230      	strb	r0, [r6, #8]
   22fa2:	481f      	ldr	r0, [pc, #124]	@ (23020 <_ZN20complex_full_dynamic3app17ha94d986f9c2d0ac3E+0xac>)
   22fa4:	2604      	movs	r6, #4
   22fa6:	4631      	mov	r1, r6
   22fa8:	4622      	mov	r2, r4
   22faa:	9b00      	ldr	r3, [sp, #0]
   22fac:	df04      	svc	4
   22fae:	2802      	cmp	r0, #2
   22fb0:	d019      	beq.n	22fe6 <_ZN20complex_full_dynamic3app17ha94d986f9c2d0ac3E+0x72>
   22fb2:	a803      	add	r0, sp, #12
   22fb4:	7206      	strb	r6, [r0, #8]
   22fb6:	9604      	str	r6, [sp, #16]
   22fb8:	4e19      	ldr	r6, [pc, #100]	@ (23020 <_ZN20complex_full_dynamic3app17ha94d986f9c2d0ac3E+0xac>)
   22fba:	9603      	str	r6, [sp, #12]
   22fbc:	2408      	movs	r4, #8
   22fbe:	2324      	movs	r3, #36	@ 0x24
   22fc0:	4630      	mov	r0, r6
   22fc2:	4621      	mov	r1, r4
   22fc4:	462a      	mov	r2, r5
   22fc6:	df03      	svc	3
   22fc8:	2802      	cmp	r0, #2
   22fca:	d00c      	beq.n	22fe6 <_ZN20complex_full_dynamic3app17ha94d986f9c2d0ac3E+0x72>
   22fcc:	a80f      	add	r0, sp, #60	@ 0x3c
   22fce:	2103      	movs	r1, #3
   22fd0:	7201      	strb	r1, [r0, #8]
   22fd2:	960f      	str	r6, [sp, #60]	@ 0x3c
   22fd4:	9410      	str	r4, [sp, #64]	@ 0x40
   22fd6:	4812      	ldr	r0, [pc, #72]	@ (23020 <_ZN20complex_full_dynamic3app17ha94d986f9c2d0ac3E+0xac>)
   22fd8:	2104      	movs	r1, #4
   22fda:	2600      	movs	r6, #0
   22fdc:	4622      	mov	r2, r4
   22fde:	4633      	mov	r3, r6
   22fe0:	df02      	svc	2
   22fe2:	287f      	cmp	r0, #127	@ 0x7f
   22fe4:	d80b      	bhi.n	22ffe <_ZN20complex_full_dynamic3app17ha94d986f9c2d0ac3E+0x8a>
   22fe6:	9c02      	ldr	r4, [sp, #8]
   22fe8:	6061      	str	r1, [r4, #4]
   22fea:	2601      	movs	r6, #1
   22fec:	7026      	strb	r6, [r4, #0]
   22fee:	a80f      	add	r0, sp, #60	@ 0x3c
   22ff0:	f003 ff92 	bl	26f18 <_ZN9allow_pin12full_dynamic17unshare_if_shared17hc627a04126f70c57E>
   22ff4:	a803      	add	r0, sp, #12
   22ff6:	f003 ff8f 	bl	26f18 <_ZN9allow_pin12full_dynamic17unshare_if_shared17hc627a04126f70c57E>
   22ffa:	b01b      	add	sp, #108	@ 0x6c
   22ffc:	bdf0      	pop	{r4, r5, r6, r7, pc}
   22ffe:	a803      	add	r0, sp, #12
   23000:	f003 ff8a 	bl	26f18 <_ZN9allow_pin12full_dynamic17unshare_if_shared17hc627a04126f70c57E>
   23004:	ac0f      	add	r4, sp, #60	@ 0x3c
   23006:	4620      	mov	r0, r4
   23008:	f003 ff86 	bl	26f18 <_ZN9allow_pin12full_dynamic17unshare_if_shared17hc627a04126f70c57E>
   2300c:	4620      	mov	r0, r4
   2300e:	f003 ff83 	bl	26f18 <_ZN9allow_pin12full_dynamic17unshare_if_shared17hc627a04126f70c57E>
   23012:	9c02      	ldr	r4, [sp, #8]
   23014:	1c60      	adds	r0, r4, #1
   23016:	2224      	movs	r2, #36	@ 0x24
   23018:	4629      	mov	r1, r5
   2301a:	f004 f93e 	bl	2729a <__aeabi_memcpy>
   2301e:	e7e5      	b.n	22fec <_ZN20complex_full_dynamic3app17ha94d986f9c2d0ac3E+0x78>
   23020:	00001bd6 	.word	0x00001bd6

00023024 <_ZN20complex_full_dynamic3app17ha9b00a4f847171a1E>:
   23024:	b5f0      	push	{r4, r5, r6, r7, lr}
   23026:	af03      	add	r7, sp, #12
   23028:	b099      	sub	sp, #100	@ 0x64
   2302a:	9001      	str	r0, [sp, #4]
   2302c:	ac02      	add	r4, sp, #8
   2302e:	2502      	movs	r5, #2
   23030:	7225      	strb	r5, [r4, #8]
   23032:	340c      	adds	r4, #12
   23034:	2632      	movs	r6, #50	@ 0x32
   23036:	4620      	mov	r0, r4
   23038:	4632      	mov	r2, r6
   2303a:	f004 f92e 	bl	2729a <__aeabi_memcpy>
   2303e:	a812      	add	r0, sp, #72	@ 0x48
   23040:	9000      	str	r0, [sp, #0]
   23042:	7205      	strb	r5, [r0, #8]
   23044:	2000      	movs	r0, #0
   23046:	9018      	str	r0, [sp, #96]	@ 0x60
   23048:	9017      	str	r0, [sp, #92]	@ 0x5c
   2304a:	9016      	str	r0, [sp, #88]	@ 0x58
   2304c:	9015      	str	r0, [sp, #84]	@ 0x54
   2304e:	4820      	ldr	r0, [pc, #128]	@ (230d0 <_ZN20complex_full_dynamic3app17ha9b00a4f847171a1E+0xac>)
   23050:	2504      	movs	r5, #4
   23052:	4629      	mov	r1, r5
   23054:	4622      	mov	r2, r4
   23056:	4633      	mov	r3, r6
   23058:	df04      	svc	4
   2305a:	2802      	cmp	r0, #2
   2305c:	d01b      	beq.n	23096 <_ZN20complex_full_dynamic3app17ha9b00a4f847171a1E+0x72>
   2305e:	9e00      	ldr	r6, [sp, #0]
   23060:	360c      	adds	r6, #12
   23062:	a802      	add	r0, sp, #8
   23064:	7205      	strb	r5, [r0, #8]
   23066:	9503      	str	r5, [sp, #12]
   23068:	4819      	ldr	r0, [pc, #100]	@ (230d0 <_ZN20complex_full_dynamic3app17ha9b00a4f847171a1E+0xac>)
   2306a:	9002      	str	r0, [sp, #8]
   2306c:	2409      	movs	r4, #9
   2306e:	2310      	movs	r3, #16
   23070:	4621      	mov	r1, r4
   23072:	4632      	mov	r2, r6
   23074:	df03      	svc	3
   23076:	2802      	cmp	r0, #2
   23078:	d00d      	beq.n	23096 <_ZN20complex_full_dynamic3app17ha9b00a4f847171a1E+0x72>
   2307a:	4635      	mov	r5, r6
   2307c:	a812      	add	r0, sp, #72	@ 0x48
   2307e:	2103      	movs	r1, #3
   23080:	7201      	strb	r1, [r0, #8]
   23082:	4813      	ldr	r0, [pc, #76]	@ (230d0 <_ZN20complex_full_dynamic3app17ha9b00a4f847171a1E+0xac>)
   23084:	9012      	str	r0, [sp, #72]	@ 0x48
   23086:	9413      	str	r4, [sp, #76]	@ 0x4c
   23088:	2104      	movs	r1, #4
   2308a:	2600      	movs	r6, #0
   2308c:	4622      	mov	r2, r4
   2308e:	4633      	mov	r3, r6
   23090:	df02      	svc	2
   23092:	287f      	cmp	r0, #127	@ 0x7f
   23094:	d80b      	bhi.n	230ae <_ZN20complex_full_dynamic3app17ha9b00a4f847171a1E+0x8a>
   23096:	9c01      	ldr	r4, [sp, #4]
   23098:	6061      	str	r1, [r4, #4]
   2309a:	2601      	movs	r6, #1
   2309c:	7026      	strb	r6, [r4, #0]
   2309e:	a812      	add	r0, sp, #72	@ 0x48
   230a0:	f003 ff3a 	bl	26f18 <_ZN9allow_pin12full_dynamic17unshare_if_shared17hc627a04126f70c57E>
   230a4:	a802      	add	r0, sp, #8
   230a6:	f003 ff37 	bl	26f18 <_ZN9allow_pin12full_dynamic17unshare_if_shared17hc627a04126f70c57E>
   230aa:	b019      	add	sp, #100	@ 0x64
   230ac:	bdf0      	pop	{r4, r5, r6, r7, pc}
   230ae:	a802      	add	r0, sp, #8
   230b0:	f003 ff32 	bl	26f18 <_ZN9allow_pin12full_dynamic17unshare_if_shared17hc627a04126f70c57E>
   230b4:	ac12      	add	r4, sp, #72	@ 0x48
   230b6:	4620      	mov	r0, r4
   230b8:	f003 ff2e 	bl	26f18 <_ZN9allow_pin12full_dynamic17unshare_if_shared17hc627a04126f70c57E>
   230bc:	4620      	mov	r0, r4
   230be:	f003 ff2b 	bl	26f18 <_ZN9allow_pin12full_dynamic17unshare_if_shared17hc627a04126f70c57E>
   230c2:	9c01      	ldr	r4, [sp, #4]
   230c4:	1c60      	adds	r0, r4, #1
   230c6:	2210      	movs	r2, #16
   230c8:	4629      	mov	r1, r5
   230ca:	f004 f8e6 	bl	2729a <__aeabi_memcpy>
   230ce:	e7e5      	b.n	2309c <_ZN20complex_full_dynamic3app17ha9b00a4f847171a1E+0x78>
   230d0:	000019d6 	.word	0x000019d6

000230d4 <_ZN20complex_full_dynamic3app17haac0126965d73311E>:
   230d4:	b5f0      	push	{r4, r5, r6, r7, lr}
   230d6:	af03      	add	r7, sp, #12
   230d8:	b0ad      	sub	sp, #180	@ 0xb4
   230da:	9003      	str	r0, [sp, #12]
   230dc:	ae04      	add	r6, sp, #16
   230de:	2002      	movs	r0, #2
   230e0:	9002      	str	r0, [sp, #8]
   230e2:	7230      	strb	r0, [r6, #8]
   230e4:	360c      	adds	r6, #12
   230e6:	2263      	movs	r2, #99	@ 0x63
   230e8:	9201      	str	r2, [sp, #4]
   230ea:	4630      	mov	r0, r6
   230ec:	f004 f8d5 	bl	2729a <__aeabi_memcpy>
   230f0:	ac20      	add	r4, sp, #128	@ 0x80
   230f2:	4625      	mov	r5, r4
   230f4:	350c      	adds	r5, #12
   230f6:	2127      	movs	r1, #39	@ 0x27
   230f8:	4628      	mov	r0, r5
   230fa:	f003 ff21 	bl	26f40 <__aeabi_memclr4>
   230fe:	9802      	ldr	r0, [sp, #8]
   23100:	7220      	strb	r0, [r4, #8]
   23102:	481f      	ldr	r0, [pc, #124]	@ (23180 <_ZN20complex_full_dynamic3app17haac0126965d73311E+0xac>)
   23104:	2407      	movs	r4, #7
   23106:	4621      	mov	r1, r4
   23108:	4632      	mov	r2, r6
   2310a:	9b01      	ldr	r3, [sp, #4]
   2310c:	df04      	svc	4
   2310e:	2802      	cmp	r0, #2
   23110:	d019      	beq.n	23146 <_ZN20complex_full_dynamic3app17haac0126965d73311E+0x72>
   23112:	a804      	add	r0, sp, #16
   23114:	2104      	movs	r1, #4
   23116:	7201      	strb	r1, [r0, #8]
   23118:	9405      	str	r4, [sp, #20]
   2311a:	4c19      	ldr	r4, [pc, #100]	@ (23180 <_ZN20complex_full_dynamic3app17haac0126965d73311E+0xac>)
   2311c:	9404      	str	r4, [sp, #16]
   2311e:	2600      	movs	r6, #0
   23120:	2327      	movs	r3, #39	@ 0x27
   23122:	4620      	mov	r0, r4
   23124:	4631      	mov	r1, r6
   23126:	462a      	mov	r2, r5
   23128:	df03      	svc	3
   2312a:	2802      	cmp	r0, #2
   2312c:	d00b      	beq.n	23146 <_ZN20complex_full_dynamic3app17haac0126965d73311E+0x72>
   2312e:	a820      	add	r0, sp, #128	@ 0x80
   23130:	2103      	movs	r1, #3
   23132:	7201      	strb	r1, [r0, #8]
   23134:	9420      	str	r4, [sp, #128]	@ 0x80
   23136:	9621      	str	r6, [sp, #132]	@ 0x84
   23138:	4811      	ldr	r0, [pc, #68]	@ (23180 <_ZN20complex_full_dynamic3app17haac0126965d73311E+0xac>)
   2313a:	2107      	movs	r1, #7
   2313c:	4632      	mov	r2, r6
   2313e:	4633      	mov	r3, r6
   23140:	df02      	svc	2
   23142:	287f      	cmp	r0, #127	@ 0x7f
   23144:	d80b      	bhi.n	2315e <_ZN20complex_full_dynamic3app17haac0126965d73311E+0x8a>
   23146:	9c03      	ldr	r4, [sp, #12]
   23148:	6061      	str	r1, [r4, #4]
   2314a:	2601      	movs	r6, #1
   2314c:	7026      	strb	r6, [r4, #0]
   2314e:	a820      	add	r0, sp, #128	@ 0x80
   23150:	f003 fee2 	bl	26f18 <_ZN9allow_pin12full_dynamic17unshare_if_shared17hc627a04126f70c57E>
   23154:	a804      	add	r0, sp, #16
   23156:	f003 fedf 	bl	26f18 <_ZN9allow_pin12full_dynamic17unshare_if_shared17hc627a04126f70c57E>
   2315a:	b02d      	add	sp, #180	@ 0xb4
   2315c:	bdf0      	pop	{r4, r5, r6, r7, pc}
   2315e:	a804      	add	r0, sp, #16
   23160:	f003 feda 	bl	26f18 <_ZN9allow_pin12full_dynamic17unshare_if_shared17hc627a04126f70c57E>
   23164:	ac20      	add	r4, sp, #128	@ 0x80
   23166:	4620      	mov	r0, r4
   23168:	f003 fed6 	bl	26f18 <_ZN9allow_pin12full_dynamic17unshare_if_shared17hc627a04126f70c57E>
   2316c:	4620      	mov	r0, r4
   2316e:	f003 fed3 	bl	26f18 <_ZN9allow_pin12full_dynamic17unshare_if_shared17hc627a04126f70c57E>
   23172:	9c03      	ldr	r4, [sp, #12]
   23174:	1c60      	adds	r0, r4, #1
   23176:	2227      	movs	r2, #39	@ 0x27
   23178:	4629      	mov	r1, r5
   2317a:	f004 f88e 	bl	2729a <__aeabi_memcpy>
   2317e:	e7e5      	b.n	2314c <_ZN20complex_full_dynamic3app17haac0126965d73311E+0x78>
   23180:	00001e54 	.word	0x00001e54

00023184 <_ZN20complex_full_dynamic3app17hab2211565ab07236E>:
   23184:	b5f0      	push	{r4, r5, r6, r7, lr}
   23186:	af03      	add	r7, sp, #12
   23188:	b0a1      	sub	sp, #132	@ 0x84
   2318a:	9002      	str	r0, [sp, #8]
   2318c:	ae03      	add	r6, sp, #12
   2318e:	2002      	movs	r0, #2
   23190:	9000      	str	r0, [sp, #0]
   23192:	7230      	strb	r0, [r6, #8]
   23194:	360c      	adds	r6, #12
   23196:	221b      	movs	r2, #27
   23198:	9201      	str	r2, [sp, #4]
   2319a:	4630      	mov	r0, r6
   2319c:	f004 f87d 	bl	2729a <__aeabi_memcpy>
   231a0:	ad0d      	add	r5, sp, #52	@ 0x34
   231a2:	462c      	mov	r4, r5
   231a4:	340c      	adds	r4, #12
   231a6:	2141      	movs	r1, #65	@ 0x41
   231a8:	4620      	mov	r0, r4
   231aa:	f003 fec9 	bl	26f40 <__aeabi_memclr4>
   231ae:	9800      	ldr	r0, [sp, #0]
   231b0:	7228      	strb	r0, [r5, #8]
   231b2:	2005      	movs	r0, #5
   231b4:	0180      	lsls	r0, r0, #6
   231b6:	2508      	movs	r5, #8
   231b8:	9000      	str	r0, [sp, #0]
   231ba:	4629      	mov	r1, r5
   231bc:	4632      	mov	r2, r6
   231be:	9b01      	ldr	r3, [sp, #4]
   231c0:	df04      	svc	4
   231c2:	2802      	cmp	r0, #2
   231c4:	d019      	beq.n	231fa <_ZN20complex_full_dynamic3app17hab2211565ab07236E+0x76>
   231c6:	a803      	add	r0, sp, #12
   231c8:	2104      	movs	r1, #4
   231ca:	7201      	strb	r1, [r0, #8]
   231cc:	9504      	str	r5, [sp, #16]
   231ce:	9800      	ldr	r0, [sp, #0]
   231d0:	9003      	str	r0, [sp, #12]
   231d2:	2509      	movs	r5, #9
   231d4:	2341      	movs	r3, #65	@ 0x41
   231d6:	4629      	mov	r1, r5
   231d8:	4622      	mov	r2, r4
   231da:	df03      	svc	3
   231dc:	2802      	cmp	r0, #2
   231de:	d00c      	beq.n	231fa <_ZN20complex_full_dynamic3app17hab2211565ab07236E+0x76>
   231e0:	a80d      	add	r0, sp, #52	@ 0x34
   231e2:	2103      	movs	r1, #3
   231e4:	7201      	strb	r1, [r0, #8]
   231e6:	9800      	ldr	r0, [sp, #0]
   231e8:	900d      	str	r0, [sp, #52]	@ 0x34
   231ea:	950e      	str	r5, [sp, #56]	@ 0x38
   231ec:	2108      	movs	r1, #8
   231ee:	2600      	movs	r6, #0
   231f0:	462a      	mov	r2, r5
   231f2:	4633      	mov	r3, r6
   231f4:	df02      	svc	2
   231f6:	287f      	cmp	r0, #127	@ 0x7f
   231f8:	d80b      	bhi.n	23212 <_ZN20complex_full_dynamic3app17hab2211565ab07236E+0x8e>
   231fa:	9c02      	ldr	r4, [sp, #8]
   231fc:	6061      	str	r1, [r4, #4]
   231fe:	2601      	movs	r6, #1
   23200:	7026      	strb	r6, [r4, #0]
   23202:	a80d      	add	r0, sp, #52	@ 0x34
   23204:	f003 fe88 	bl	26f18 <_ZN9allow_pin12full_dynamic17unshare_if_shared17hc627a04126f70c57E>
   23208:	a803      	add	r0, sp, #12
   2320a:	f003 fe85 	bl	26f18 <_ZN9allow_pin12full_dynamic17unshare_if_shared17hc627a04126f70c57E>
   2320e:	b021      	add	sp, #132	@ 0x84
   23210:	bdf0      	pop	{r4, r5, r6, r7, pc}
   23212:	a803      	add	r0, sp, #12
   23214:	f003 fe80 	bl	26f18 <_ZN9allow_pin12full_dynamic17unshare_if_shared17hc627a04126f70c57E>
   23218:	4625      	mov	r5, r4
   2321a:	ac0d      	add	r4, sp, #52	@ 0x34
   2321c:	4620      	mov	r0, r4
   2321e:	f003 fe7b 	bl	26f18 <_ZN9allow_pin12full_dynamic17unshare_if_shared17hc627a04126f70c57E>
   23222:	4620      	mov	r0, r4
   23224:	f003 fe78 	bl	26f18 <_ZN9allow_pin12full_dynamic17unshare_if_shared17hc627a04126f70c57E>
   23228:	9c02      	ldr	r4, [sp, #8]
   2322a:	1c60      	adds	r0, r4, #1
   2322c:	2241      	movs	r2, #65	@ 0x41
   2322e:	4629      	mov	r1, r5
   23230:	f004 f833 	bl	2729a <__aeabi_memcpy>
   23234:	e7e4      	b.n	23200 <_ZN20complex_full_dynamic3app17hab2211565ab07236E+0x7c>
   23236:	d4d4      	bmi.n	231e2 <_ZN20complex_full_dynamic3app17hab2211565ab07236E+0x5e>

00023238 <_ZN20complex_full_dynamic3app17hb251538cedbd88e4E>:
   23238:	b5f0      	push	{r4, r5, r6, r7, lr}
   2323a:	af03      	add	r7, sp, #12
   2323c:	b097      	sub	sp, #92	@ 0x5c
   2323e:	9001      	str	r0, [sp, #4]
   23240:	ae02      	add	r6, sp, #8
   23242:	2502      	movs	r5, #2
   23244:	7235      	strb	r5, [r6, #8]
   23246:	360c      	adds	r6, #12
   23248:	222b      	movs	r2, #43	@ 0x2b
   2324a:	9200      	str	r2, [sp, #0]
   2324c:	4630      	mov	r0, r6
   2324e:	f004 f824 	bl	2729a <__aeabi_memcpy>
   23252:	ac10      	add	r4, sp, #64	@ 0x40
   23254:	2000      	movs	r0, #0
   23256:	7620      	strb	r0, [r4, #24]
   23258:	7225      	strb	r5, [r4, #8]
   2325a:	9015      	str	r0, [sp, #84]	@ 0x54
   2325c:	9014      	str	r0, [sp, #80]	@ 0x50
   2325e:	9013      	str	r0, [sp, #76]	@ 0x4c
   23260:	4820      	ldr	r0, [pc, #128]	@ (232e4 <_ZN20complex_full_dynamic3app17hb251538cedbd88e4E+0xac>)
   23262:	2506      	movs	r5, #6
   23264:	4629      	mov	r1, r5
   23266:	4632      	mov	r2, r6
   23268:	9b00      	ldr	r3, [sp, #0]
   2326a:	df04      	svc	4
   2326c:	2802      	cmp	r0, #2
   2326e:	d01a      	beq.n	232a6 <_ZN20complex_full_dynamic3app17hb251538cedbd88e4E+0x6e>
   23270:	340c      	adds	r4, #12
   23272:	a802      	add	r0, sp, #8
   23274:	2104      	movs	r1, #4
   23276:	7201      	strb	r1, [r0, #8]
   23278:	9503      	str	r5, [sp, #12]
   2327a:	4d1a      	ldr	r5, [pc, #104]	@ (232e4 <_ZN20complex_full_dynamic3app17hb251538cedbd88e4E+0xac>)
   2327c:	9502      	str	r5, [sp, #8]
   2327e:	2600      	movs	r6, #0
   23280:	230d      	movs	r3, #13
   23282:	4628      	mov	r0, r5
   23284:	4631      	mov	r1, r6
   23286:	4622      	mov	r2, r4
   23288:	df03      	svc	3
   2328a:	2802      	cmp	r0, #2
   2328c:	d00b      	beq.n	232a6 <_ZN20complex_full_dynamic3app17hb251538cedbd88e4E+0x6e>
   2328e:	a810      	add	r0, sp, #64	@ 0x40
   23290:	2103      	movs	r1, #3
   23292:	7201      	strb	r1, [r0, #8]
   23294:	9510      	str	r5, [sp, #64]	@ 0x40
   23296:	9611      	str	r6, [sp, #68]	@ 0x44
   23298:	4812      	ldr	r0, [pc, #72]	@ (232e4 <_ZN20complex_full_dynamic3app17hb251538cedbd88e4E+0xac>)
   2329a:	2106      	movs	r1, #6
   2329c:	4632      	mov	r2, r6
   2329e:	4633      	mov	r3, r6
   232a0:	df02      	svc	2
   232a2:	287f      	cmp	r0, #127	@ 0x7f
   232a4:	d80b      	bhi.n	232be <_ZN20complex_full_dynamic3app17hb251538cedbd88e4E+0x86>
   232a6:	9c01      	ldr	r4, [sp, #4]
   232a8:	6061      	str	r1, [r4, #4]
   232aa:	2601      	movs	r6, #1
   232ac:	7026      	strb	r6, [r4, #0]
   232ae:	a810      	add	r0, sp, #64	@ 0x40
   232b0:	f003 fe32 	bl	26f18 <_ZN9allow_pin12full_dynamic17unshare_if_shared17hc627a04126f70c57E>
   232b4:	a802      	add	r0, sp, #8
   232b6:	f003 fe2f 	bl	26f18 <_ZN9allow_pin12full_dynamic17unshare_if_shared17hc627a04126f70c57E>
   232ba:	b017      	add	sp, #92	@ 0x5c
   232bc:	bdf0      	pop	{r4, r5, r6, r7, pc}
   232be:	a802      	add	r0, sp, #8
   232c0:	f003 fe2a 	bl	26f18 <_ZN9allow_pin12full_dynamic17unshare_if_shared17hc627a04126f70c57E>
   232c4:	4625      	mov	r5, r4
   232c6:	ac10      	add	r4, sp, #64	@ 0x40
   232c8:	4620      	mov	r0, r4
   232ca:	f003 fe25 	bl	26f18 <_ZN9allow_pin12full_dynamic17unshare_if_shared17hc627a04126f70c57E>
   232ce:	4620      	mov	r0, r4
   232d0:	f003 fe22 	bl	26f18 <_ZN9allow_pin12full_dynamic17unshare_if_shared17hc627a04126f70c57E>
   232d4:	9c01      	ldr	r4, [sp, #4]
   232d6:	1c60      	adds	r0, r4, #1
   232d8:	220d      	movs	r2, #13
   232da:	4629      	mov	r1, r5
   232dc:	f003 ffdd 	bl	2729a <__aeabi_memcpy>
   232e0:	e7e4      	b.n	232ac <_ZN20complex_full_dynamic3app17hb251538cedbd88e4E+0x74>
   232e2:	46c0      	nop			@ (mov r8, r8)
   232e4:	00001465 	.word	0x00001465

000232e8 <_ZN20complex_full_dynamic3app17hb8b2e82e474961d1E>:
   232e8:	b5f0      	push	{r4, r5, r6, r7, lr}
   232ea:	af03      	add	r7, sp, #12
   232ec:	b0b7      	sub	sp, #220	@ 0xdc
   232ee:	9003      	str	r0, [sp, #12]
   232f0:	ad04      	add	r5, sp, #16
   232f2:	2602      	movs	r6, #2
   232f4:	722e      	strb	r6, [r5, #8]
   232f6:	350c      	adds	r5, #12
   232f8:	224f      	movs	r2, #79	@ 0x4f
   232fa:	9202      	str	r2, [sp, #8]
   232fc:	4628      	mov	r0, r5
   232fe:	f003 ffcc 	bl	2729a <__aeabi_memcpy>
   23302:	ac1b      	add	r4, sp, #108	@ 0x6c
   23304:	4620      	mov	r0, r4
   23306:	300c      	adds	r0, #12
   23308:	2161      	movs	r1, #97	@ 0x61
   2330a:	9001      	str	r0, [sp, #4]
   2330c:	f003 fe18 	bl	26f40 <__aeabi_memclr4>
   23310:	7226      	strb	r6, [r4, #8]
   23312:	4634      	mov	r4, r6
   23314:	20db      	movs	r0, #219	@ 0xdb
   23316:	0046      	lsls	r6, r0, #1
   23318:	4630      	mov	r0, r6
   2331a:	4621      	mov	r1, r4
   2331c:	462a      	mov	r2, r5
   2331e:	9b02      	ldr	r3, [sp, #8]
   23320:	df04      	svc	4
   23322:	2802      	cmp	r0, #2
   23324:	d01a      	beq.n	2335c <_ZN20complex_full_dynamic3app17hb8b2e82e474961d1E+0x74>
   23326:	a804      	add	r0, sp, #16
   23328:	2104      	movs	r1, #4
   2332a:	7201      	strb	r1, [r0, #8]
   2332c:	9405      	str	r4, [sp, #20]
   2332e:	9604      	str	r6, [sp, #16]
   23330:	2508      	movs	r5, #8
   23332:	2361      	movs	r3, #97	@ 0x61
   23334:	4630      	mov	r0, r6
   23336:	4629      	mov	r1, r5
   23338:	9c01      	ldr	r4, [sp, #4]
   2333a:	4622      	mov	r2, r4
   2333c:	df03      	svc	3
   2333e:	2802      	cmp	r0, #2
   23340:	d00c      	beq.n	2335c <_ZN20complex_full_dynamic3app17hb8b2e82e474961d1E+0x74>
   23342:	a81b      	add	r0, sp, #108	@ 0x6c
   23344:	2103      	movs	r1, #3
   23346:	7201      	strb	r1, [r0, #8]
   23348:	961b      	str	r6, [sp, #108]	@ 0x6c
   2334a:	951c      	str	r5, [sp, #112]	@ 0x70
   2334c:	2102      	movs	r1, #2
   2334e:	4630      	mov	r0, r6
   23350:	2600      	movs	r6, #0
   23352:	462a      	mov	r2, r5
   23354:	4633      	mov	r3, r6
   23356:	df02      	svc	2
   23358:	287f      	cmp	r0, #127	@ 0x7f
   2335a:	d80b      	bhi.n	23374 <_ZN20complex_full_dynamic3app17hb8b2e82e474961d1E+0x8c>
   2335c:	9c03      	ldr	r4, [sp, #12]
   2335e:	6061      	str	r1, [r4, #4]
   23360:	2601      	movs	r6, #1
   23362:	7026      	strb	r6, [r4, #0]
   23364:	a81b      	add	r0, sp, #108	@ 0x6c
   23366:	f003 fdd7 	bl	26f18 <_ZN9allow_pin12full_dynamic17unshare_if_shared17hc627a04126f70c57E>
   2336a:	a804      	add	r0, sp, #16
   2336c:	f003 fdd4 	bl	26f18 <_ZN9allow_pin12full_dynamic17unshare_if_shared17hc627a04126f70c57E>
   23370:	b037      	add	sp, #220	@ 0xdc
   23372:	bdf0      	pop	{r4, r5, r6, r7, pc}
   23374:	a804      	add	r0, sp, #16
   23376:	f003 fdcf 	bl	26f18 <_ZN9allow_pin12full_dynamic17unshare_if_shared17hc627a04126f70c57E>
   2337a:	4625      	mov	r5, r4
   2337c:	ac1b      	add	r4, sp, #108	@ 0x6c
   2337e:	4620      	mov	r0, r4
   23380:	f003 fdca 	bl	26f18 <_ZN9allow_pin12full_dynamic17unshare_if_shared17hc627a04126f70c57E>
   23384:	4620      	mov	r0, r4
   23386:	f003 fdc7 	bl	26f18 <_ZN9allow_pin12full_dynamic17unshare_if_shared17hc627a04126f70c57E>
   2338a:	9c03      	ldr	r4, [sp, #12]
   2338c:	1c60      	adds	r0, r4, #1
   2338e:	2261      	movs	r2, #97	@ 0x61
   23390:	4629      	mov	r1, r5
   23392:	f003 ff82 	bl	2729a <__aeabi_memcpy>
   23396:	e7e4      	b.n	23362 <_ZN20complex_full_dynamic3app17hb8b2e82e474961d1E+0x7a>

00023398 <_ZN20complex_full_dynamic3app17hb9aa88ee1ce37a63E>:
   23398:	b5f0      	push	{r4, r5, r6, r7, lr}
   2339a:	af03      	add	r7, sp, #12
   2339c:	b0ad      	sub	sp, #180	@ 0xb4
   2339e:	9003      	str	r0, [sp, #12]
   233a0:	ac04      	add	r4, sp, #16
   233a2:	2002      	movs	r0, #2
   233a4:	9002      	str	r0, [sp, #8]
   233a6:	7220      	strb	r0, [r4, #8]
   233a8:	340c      	adds	r4, #12
   233aa:	224d      	movs	r2, #77	@ 0x4d
   233ac:	9201      	str	r2, [sp, #4]
   233ae:	4620      	mov	r0, r4
   233b0:	f003 ff73 	bl	2729a <__aeabi_memcpy>
   233b4:	ae1b      	add	r6, sp, #108	@ 0x6c
   233b6:	4635      	mov	r5, r6
   233b8:	350c      	adds	r5, #12
   233ba:	213c      	movs	r1, #60	@ 0x3c
   233bc:	4628      	mov	r0, r5
   233be:	f003 fdbf 	bl	26f40 <__aeabi_memclr4>
   233c2:	9802      	ldr	r0, [sp, #8]
   233c4:	7230      	strb	r0, [r6, #8]
   233c6:	481f      	ldr	r0, [pc, #124]	@ (23444 <_ZN20complex_full_dynamic3app17hb9aa88ee1ce37a63E+0xac>)
   233c8:	2604      	movs	r6, #4
   233ca:	4631      	mov	r1, r6
   233cc:	4622      	mov	r2, r4
   233ce:	9b01      	ldr	r3, [sp, #4]
   233d0:	df04      	svc	4
   233d2:	2802      	cmp	r0, #2
   233d4:	d019      	beq.n	2340a <_ZN20complex_full_dynamic3app17hb9aa88ee1ce37a63E+0x72>
   233d6:	a804      	add	r0, sp, #16
   233d8:	7206      	strb	r6, [r0, #8]
   233da:	9605      	str	r6, [sp, #20]
   233dc:	4e19      	ldr	r6, [pc, #100]	@ (23444 <_ZN20complex_full_dynamic3app17hb9aa88ee1ce37a63E+0xac>)
   233de:	9604      	str	r6, [sp, #16]
   233e0:	2409      	movs	r4, #9
   233e2:	233c      	movs	r3, #60	@ 0x3c
   233e4:	4630      	mov	r0, r6
   233e6:	4621      	mov	r1, r4
   233e8:	462a      	mov	r2, r5
   233ea:	df03      	svc	3
   233ec:	2802      	cmp	r0, #2
   233ee:	d00c      	beq.n	2340a <_ZN20complex_full_dynamic3app17hb9aa88ee1ce37a63E+0x72>
   233f0:	a81b      	add	r0, sp, #108	@ 0x6c
   233f2:	2103      	movs	r1, #3
   233f4:	7201      	strb	r1, [r0, #8]
   233f6:	961b      	str	r6, [sp, #108]	@ 0x6c
   233f8:	941c      	str	r4, [sp, #112]	@ 0x70
   233fa:	4812      	ldr	r0, [pc, #72]	@ (23444 <_ZN20complex_full_dynamic3app17hb9aa88ee1ce37a63E+0xac>)
   233fc:	2104      	movs	r1, #4
   233fe:	2600      	movs	r6, #0
   23400:	4622      	mov	r2, r4
   23402:	4633      	mov	r3, r6
   23404:	df02      	svc	2
   23406:	287f      	cmp	r0, #127	@ 0x7f
   23408:	d80b      	bhi.n	23422 <_ZN20complex_full_dynamic3app17hb9aa88ee1ce37a63E+0x8a>
   2340a:	9c03      	ldr	r4, [sp, #12]
   2340c:	6061      	str	r1, [r4, #4]
   2340e:	2601      	movs	r6, #1
   23410:	7026      	strb	r6, [r4, #0]
   23412:	a81b      	add	r0, sp, #108	@ 0x6c
   23414:	f003 fd80 	bl	26f18 <_ZN9allow_pin12full_dynamic17unshare_if_shared17hc627a04126f70c57E>
   23418:	a804      	add	r0, sp, #16
   2341a:	f003 fd7d 	bl	26f18 <_ZN9allow_pin12full_dynamic17unshare_if_shared17hc627a04126f70c57E>
   2341e:	b02d      	add	sp, #180	@ 0xb4
   23420:	bdf0      	pop	{r4, r5, r6, r7, pc}
   23422:	a804      	add	r0, sp, #16
   23424:	f003 fd78 	bl	26f18 <_ZN9allow_pin12full_dynamic17unshare_if_shared17hc627a04126f70c57E>
   23428:	ac1b      	add	r4, sp, #108	@ 0x6c
   2342a:	4620      	mov	r0, r4
   2342c:	f003 fd74 	bl	26f18 <_ZN9allow_pin12full_dynamic17unshare_if_shared17hc627a04126f70c57E>
   23430:	4620      	mov	r0, r4
   23432:	f003 fd71 	bl	26f18 <_ZN9allow_pin12full_dynamic17unshare_if_shared17hc627a04126f70c57E>
   23436:	9c03      	ldr	r4, [sp, #12]
   23438:	1c60      	adds	r0, r4, #1
   2343a:	223c      	movs	r2, #60	@ 0x3c
   2343c:	4629      	mov	r1, r5
   2343e:	f003 ff2c 	bl	2729a <__aeabi_memcpy>
   23442:	e7e5      	b.n	23410 <_ZN20complex_full_dynamic3app17hb9aa88ee1ce37a63E+0x78>
   23444:	000021ab 	.word	0x000021ab

00023448 <_ZN20complex_full_dynamic3app17hbab0699497ec9ab0E>:
   23448:	b5f0      	push	{r4, r5, r6, r7, lr}
   2344a:	af03      	add	r7, sp, #12
   2344c:	b0a5      	sub	sp, #148	@ 0x94
   2344e:	9003      	str	r0, [sp, #12]
   23450:	ac04      	add	r4, sp, #16
   23452:	2502      	movs	r5, #2
   23454:	7225      	strb	r5, [r4, #8]
   23456:	340c      	adds	r4, #12
   23458:	2255      	movs	r2, #85	@ 0x55
   2345a:	9202      	str	r2, [sp, #8]
   2345c:	4620      	mov	r0, r4
   2345e:	f003 ff1c 	bl	2729a <__aeabi_memcpy>
   23462:	ae1d      	add	r6, sp, #116	@ 0x74
   23464:	2000      	movs	r0, #0
   23466:	7730      	strb	r0, [r6, #28]
   23468:	7235      	strb	r5, [r6, #8]
   2346a:	9023      	str	r0, [sp, #140]	@ 0x8c
   2346c:	9022      	str	r0, [sp, #136]	@ 0x88
   2346e:	9021      	str	r0, [sp, #132]	@ 0x84
   23470:	9020      	str	r0, [sp, #128]	@ 0x80
   23472:	4820      	ldr	r0, [pc, #128]	@ (234f4 <_ZN20complex_full_dynamic3app17hbab0699497ec9ab0E+0xac>)
   23474:	9501      	str	r5, [sp, #4]
   23476:	4629      	mov	r1, r5
   23478:	4622      	mov	r2, r4
   2347a:	9b02      	ldr	r3, [sp, #8]
   2347c:	df04      	svc	4
   2347e:	2802      	cmp	r0, #2
   23480:	d01b      	beq.n	234ba <_ZN20complex_full_dynamic3app17hbab0699497ec9ab0E+0x72>
   23482:	360c      	adds	r6, #12
   23484:	a804      	add	r0, sp, #16
   23486:	2104      	movs	r1, #4
   23488:	7201      	strb	r1, [r0, #8]
   2348a:	4c1a      	ldr	r4, [pc, #104]	@ (234f4 <_ZN20complex_full_dynamic3app17hbab0699497ec9ab0E+0xac>)
   2348c:	9404      	str	r4, [sp, #16]
   2348e:	9d01      	ldr	r5, [sp, #4]
   23490:	9505      	str	r5, [sp, #20]
   23492:	2311      	movs	r3, #17
   23494:	4620      	mov	r0, r4
   23496:	4629      	mov	r1, r5
   23498:	4632      	mov	r2, r6
   2349a:	df03      	svc	3
   2349c:	2802      	cmp	r0, #2
   2349e:	d00c      	beq.n	234ba <_ZN20complex_full_dynamic3app17hbab0699497ec9ab0E+0x72>
   234a0:	a81d      	add	r0, sp, #116	@ 0x74
   234a2:	2103      	movs	r1, #3
   234a4:	7201      	strb	r1, [r0, #8]
   234a6:	941d      	str	r4, [sp, #116]	@ 0x74
   234a8:	951e      	str	r5, [sp, #120]	@ 0x78
   234aa:	4812      	ldr	r0, [pc, #72]	@ (234f4 <_ZN20complex_full_dynamic3app17hbab0699497ec9ab0E+0xac>)
   234ac:	2400      	movs	r4, #0
   234ae:	4629      	mov	r1, r5
   234b0:	462a      	mov	r2, r5
   234b2:	4623      	mov	r3, r4
   234b4:	df02      	svc	2
   234b6:	287f      	cmp	r0, #127	@ 0x7f
   234b8:	d80b      	bhi.n	234d2 <_ZN20complex_full_dynamic3app17hbab0699497ec9ab0E+0x8a>
   234ba:	9d03      	ldr	r5, [sp, #12]
   234bc:	6069      	str	r1, [r5, #4]
   234be:	2401      	movs	r4, #1
   234c0:	702c      	strb	r4, [r5, #0]
   234c2:	a81d      	add	r0, sp, #116	@ 0x74
   234c4:	f003 fd28 	bl	26f18 <_ZN9allow_pin12full_dynamic17unshare_if_shared17hc627a04126f70c57E>
   234c8:	a804      	add	r0, sp, #16
   234ca:	f003 fd25 	bl	26f18 <_ZN9allow_pin12full_dynamic17unshare_if_shared17hc627a04126f70c57E>
   234ce:	b025      	add	sp, #148	@ 0x94
   234d0:	bdf0      	pop	{r4, r5, r6, r7, pc}
   234d2:	a804      	add	r0, sp, #16
   234d4:	f003 fd20 	bl	26f18 <_ZN9allow_pin12full_dynamic17unshare_if_shared17hc627a04126f70c57E>
   234d8:	ad1d      	add	r5, sp, #116	@ 0x74
   234da:	4628      	mov	r0, r5
   234dc:	f003 fd1c 	bl	26f18 <_ZN9allow_pin12full_dynamic17unshare_if_shared17hc627a04126f70c57E>
   234e0:	4628      	mov	r0, r5
   234e2:	f003 fd19 	bl	26f18 <_ZN9allow_pin12full_dynamic17unshare_if_shared17hc627a04126f70c57E>
   234e6:	9d03      	ldr	r5, [sp, #12]
   234e8:	1c68      	adds	r0, r5, #1
   234ea:	2211      	movs	r2, #17
   234ec:	4631      	mov	r1, r6
   234ee:	f003 fed4 	bl	2729a <__aeabi_memcpy>
   234f2:	e7e5      	b.n	234c0 <_ZN20complex_full_dynamic3app17hbab0699497ec9ab0E+0x78>
   234f4:	00000c89 	.word	0x00000c89

000234f8 <_ZN20complex_full_dynamic3app17hc344416e021521d3E>:
   234f8:	b5f0      	push	{r4, r5, r6, r7, lr}
   234fa:	af03      	add	r7, sp, #12
   234fc:	b0a5      	sub	sp, #148	@ 0x94
   234fe:	9003      	str	r0, [sp, #12]
   23500:	ae04      	add	r6, sp, #16
   23502:	2002      	movs	r0, #2
   23504:	9001      	str	r0, [sp, #4]
   23506:	7230      	strb	r0, [r6, #8]
   23508:	360c      	adds	r6, #12
   2350a:	2238      	movs	r2, #56	@ 0x38
   2350c:	9202      	str	r2, [sp, #8]
   2350e:	4630      	mov	r0, r6
   23510:	f003 fec3 	bl	2729a <__aeabi_memcpy>
   23514:	ad15      	add	r5, sp, #84	@ 0x54
   23516:	462c      	mov	r4, r5
   23518:	340c      	adds	r4, #12
   2351a:	2134      	movs	r1, #52	@ 0x34
   2351c:	4620      	mov	r0, r4
   2351e:	f003 fd0f 	bl	26f40 <__aeabi_memclr4>
   23522:	9801      	ldr	r0, [sp, #4]
   23524:	7228      	strb	r0, [r5, #8]
   23526:	2097      	movs	r0, #151	@ 0x97
   23528:	0040      	lsls	r0, r0, #1
   2352a:	2508      	movs	r5, #8
   2352c:	9001      	str	r0, [sp, #4]
   2352e:	4629      	mov	r1, r5
   23530:	4632      	mov	r2, r6
   23532:	9b02      	ldr	r3, [sp, #8]
   23534:	df04      	svc	4
   23536:	2802      	cmp	r0, #2
   23538:	d018      	beq.n	2356c <_ZN20complex_full_dynamic3app17hc344416e021521d3E+0x74>
   2353a:	a804      	add	r0, sp, #16
   2353c:	2104      	movs	r1, #4
   2353e:	7201      	strb	r1, [r0, #8]
   23540:	9505      	str	r5, [sp, #20]
   23542:	9801      	ldr	r0, [sp, #4]
   23544:	9004      	str	r0, [sp, #16]
   23546:	2503      	movs	r5, #3
   23548:	2334      	movs	r3, #52	@ 0x34
   2354a:	4629      	mov	r1, r5
   2354c:	4622      	mov	r2, r4
   2354e:	df03      	svc	3
   23550:	2802      	cmp	r0, #2
   23552:	d00b      	beq.n	2356c <_ZN20complex_full_dynamic3app17hc344416e021521d3E+0x74>
   23554:	a815      	add	r0, sp, #84	@ 0x54
   23556:	7205      	strb	r5, [r0, #8]
   23558:	9516      	str	r5, [sp, #88]	@ 0x58
   2355a:	9801      	ldr	r0, [sp, #4]
   2355c:	9015      	str	r0, [sp, #84]	@ 0x54
   2355e:	2108      	movs	r1, #8
   23560:	2600      	movs	r6, #0
   23562:	462a      	mov	r2, r5
   23564:	4633      	mov	r3, r6
   23566:	df02      	svc	2
   23568:	287f      	cmp	r0, #127	@ 0x7f
   2356a:	d80b      	bhi.n	23584 <_ZN20complex_full_dynamic3app17hc344416e021521d3E+0x8c>
   2356c:	9c03      	ldr	r4, [sp, #12]
   2356e:	6061      	str	r1, [r4, #4]
   23570:	2601      	movs	r6, #1
   23572:	7026      	strb	r6, [r4, #0]
   23574:	a815      	add	r0, sp, #84	@ 0x54
   23576:	f003 fccf 	bl	26f18 <_ZN9allow_pin12full_dynamic17unshare_if_shared17hc627a04126f70c57E>
   2357a:	a804      	add	r0, sp, #16
   2357c:	f003 fccc 	bl	26f18 <_ZN9allow_pin12full_dynamic17unshare_if_shared17hc627a04126f70c57E>
   23580:	b025      	add	sp, #148	@ 0x94
   23582:	bdf0      	pop	{r4, r5, r6, r7, pc}
   23584:	a804      	add	r0, sp, #16
   23586:	f003 fcc7 	bl	26f18 <_ZN9allow_pin12full_dynamic17unshare_if_shared17hc627a04126f70c57E>
   2358a:	4625      	mov	r5, r4
   2358c:	ac15      	add	r4, sp, #84	@ 0x54
   2358e:	4620      	mov	r0, r4
   23590:	f003 fcc2 	bl	26f18 <_ZN9allow_pin12full_dynamic17unshare_if_shared17hc627a04126f70c57E>
   23594:	4620      	mov	r0, r4
   23596:	f003 fcbf 	bl	26f18 <_ZN9allow_pin12full_dynamic17unshare_if_shared17hc627a04126f70c57E>
   2359a:	9c03      	ldr	r4, [sp, #12]
   2359c:	1c60      	adds	r0, r4, #1
   2359e:	2234      	movs	r2, #52	@ 0x34
   235a0:	4629      	mov	r1, r5
   235a2:	f003 fe7a 	bl	2729a <__aeabi_memcpy>
   235a6:	e7e4      	b.n	23572 <_ZN20complex_full_dynamic3app17hc344416e021521d3E+0x7a>

000235a8 <_ZN20complex_full_dynamic3app17hca38d533fcf04282E>:
   235a8:	b5f0      	push	{r4, r5, r6, r7, lr}
   235aa:	af03      	add	r7, sp, #12
   235ac:	b097      	sub	sp, #92	@ 0x5c
   235ae:	9002      	str	r0, [sp, #8]
   235b0:	ac03      	add	r4, sp, #12
   235b2:	2502      	movs	r5, #2
   235b4:	7225      	strb	r5, [r4, #8]
   235b6:	340c      	adds	r4, #12
   235b8:	2218      	movs	r2, #24
   235ba:	9201      	str	r2, [sp, #4]
   235bc:	4620      	mov	r0, r4
   235be:	f003 fe6c 	bl	2729a <__aeabi_memcpy>
   235c2:	ae0c      	add	r6, sp, #48	@ 0x30
   235c4:	2000      	movs	r0, #0
   235c6:	8530      	strh	r0, [r6, #40]	@ 0x28
   235c8:	7235      	strb	r5, [r6, #8]
   235ca:	9015      	str	r0, [sp, #84]	@ 0x54
   235cc:	9014      	str	r0, [sp, #80]	@ 0x50
   235ce:	9013      	str	r0, [sp, #76]	@ 0x4c
   235d0:	9012      	str	r0, [sp, #72]	@ 0x48
   235d2:	9011      	str	r0, [sp, #68]	@ 0x44
   235d4:	9010      	str	r0, [sp, #64]	@ 0x40
   235d6:	900f      	str	r0, [sp, #60]	@ 0x3c
   235d8:	4820      	ldr	r0, [pc, #128]	@ (2365c <_ZN20complex_full_dynamic3app17hca38d533fcf04282E+0xb4>)
   235da:	2509      	movs	r5, #9
   235dc:	4629      	mov	r1, r5
   235de:	4622      	mov	r2, r4
   235e0:	9b01      	ldr	r3, [sp, #4]
   235e2:	df04      	svc	4
   235e4:	2802      	cmp	r0, #2
   235e6:	d01b      	beq.n	23620 <_ZN20complex_full_dynamic3app17hca38d533fcf04282E+0x78>
   235e8:	360c      	adds	r6, #12
   235ea:	a803      	add	r0, sp, #12
   235ec:	2104      	movs	r1, #4
   235ee:	7201      	strb	r1, [r0, #8]
   235f0:	9504      	str	r5, [sp, #16]
   235f2:	481a      	ldr	r0, [pc, #104]	@ (2365c <_ZN20complex_full_dynamic3app17hca38d533fcf04282E+0xb4>)
   235f4:	9003      	str	r0, [sp, #12]
   235f6:	2405      	movs	r4, #5
   235f8:	231e      	movs	r3, #30
   235fa:	4621      	mov	r1, r4
   235fc:	4632      	mov	r2, r6
   235fe:	df03      	svc	3
   23600:	2802      	cmp	r0, #2
   23602:	d00d      	beq.n	23620 <_ZN20complex_full_dynamic3app17hca38d533fcf04282E+0x78>
   23604:	4635      	mov	r5, r6
   23606:	a80c      	add	r0, sp, #48	@ 0x30
   23608:	2103      	movs	r1, #3
   2360a:	7201      	strb	r1, [r0, #8]
   2360c:	4813      	ldr	r0, [pc, #76]	@ (2365c <_ZN20complex_full_dynamic3app17hca38d533fcf04282E+0xb4>)
   2360e:	900c      	str	r0, [sp, #48]	@ 0x30
   23610:	940d      	str	r4, [sp, #52]	@ 0x34
   23612:	2109      	movs	r1, #9
   23614:	2600      	movs	r6, #0
   23616:	4622      	mov	r2, r4
   23618:	4633      	mov	r3, r6
   2361a:	df02      	svc	2
   2361c:	287f      	cmp	r0, #127	@ 0x7f
   2361e:	d80b      	bhi.n	23638 <_ZN20complex_full_dynamic3app17hca38d533fcf04282E+0x90>
   23620:	9c02      	ldr	r4, [sp, #8]
   23622:	6061      	str	r1, [r4, #4]
   23624:	2601      	movs	r6, #1
   23626:	7026      	strb	r6, [r4, #0]
   23628:	a80c      	add	r0, sp, #48	@ 0x30
   2362a:	f003 fc75 	bl	26f18 <_ZN9allow_pin12full_dynamic17unshare_if_shared17hc627a04126f70c57E>
   2362e:	a803      	add	r0, sp, #12
   23630:	f003 fc72 	bl	26f18 <_ZN9allow_pin12full_dynamic17unshare_if_shared17hc627a04126f70c57E>
   23634:	b017      	add	sp, #92	@ 0x5c
   23636:	bdf0      	pop	{r4, r5, r6, r7, pc}
   23638:	a803      	add	r0, sp, #12
   2363a:	f003 fc6d 	bl	26f18 <_ZN9allow_pin12full_dynamic17unshare_if_shared17hc627a04126f70c57E>
   2363e:	ac0c      	add	r4, sp, #48	@ 0x30
   23640:	4620      	mov	r0, r4
   23642:	f003 fc69 	bl	26f18 <_ZN9allow_pin12full_dynamic17unshare_if_shared17hc627a04126f70c57E>
   23646:	4620      	mov	r0, r4
   23648:	f003 fc66 	bl	26f18 <_ZN9allow_pin12full_dynamic17unshare_if_shared17hc627a04126f70c57E>
   2364c:	9c02      	ldr	r4, [sp, #8]
   2364e:	1c60      	adds	r0, r4, #1
   23650:	221e      	movs	r2, #30
   23652:	4629      	mov	r1, r5
   23654:	f003 fe21 	bl	2729a <__aeabi_memcpy>
   23658:	e7e5      	b.n	23626 <_ZN20complex_full_dynamic3app17hca38d533fcf04282E+0x7e>
   2365a:	46c0      	nop			@ (mov r8, r8)
   2365c:	00000cbb 	.word	0x00000cbb

00023660 <_ZN20complex_full_dynamic3app17hca776eaf9a3a9b46E>:
   23660:	b5f0      	push	{r4, r5, r6, r7, lr}
   23662:	af03      	add	r7, sp, #12
   23664:	b0a5      	sub	sp, #148	@ 0x94
   23666:	9003      	str	r0, [sp, #12]
   23668:	ac04      	add	r4, sp, #16
   2366a:	2002      	movs	r0, #2
   2366c:	9002      	str	r0, [sp, #8]
   2366e:	7220      	strb	r0, [r4, #8]
   23670:	340c      	adds	r4, #12
   23672:	2213      	movs	r2, #19
   23674:	9201      	str	r2, [sp, #4]
   23676:	4620      	mov	r0, r4
   23678:	f003 fe0f 	bl	2729a <__aeabi_memcpy>
   2367c:	ae0c      	add	r6, sp, #48	@ 0x30
   2367e:	4635      	mov	r5, r6
   23680:	350c      	adds	r5, #12
   23682:	2155      	movs	r1, #85	@ 0x55
   23684:	4628      	mov	r0, r5
   23686:	f003 fc5b 	bl	26f40 <__aeabi_memclr4>
   2368a:	9802      	ldr	r0, [sp, #8]
   2368c:	7230      	strb	r0, [r6, #8]
   2368e:	4820      	ldr	r0, [pc, #128]	@ (23710 <_ZN20complex_full_dynamic3app17hca776eaf9a3a9b46E+0xb0>)
   23690:	2609      	movs	r6, #9
   23692:	4631      	mov	r1, r6
   23694:	4622      	mov	r2, r4
   23696:	9b01      	ldr	r3, [sp, #4]
   23698:	df04      	svc	4
   2369a:	2802      	cmp	r0, #2
   2369c:	d01a      	beq.n	236d4 <_ZN20complex_full_dynamic3app17hca776eaf9a3a9b46E+0x74>
   2369e:	a804      	add	r0, sp, #16
   236a0:	2104      	movs	r1, #4
   236a2:	7201      	strb	r1, [r0, #8]
   236a4:	9605      	str	r6, [sp, #20]
   236a6:	4e1a      	ldr	r6, [pc, #104]	@ (23710 <_ZN20complex_full_dynamic3app17hca776eaf9a3a9b46E+0xb0>)
   236a8:	9604      	str	r6, [sp, #16]
   236aa:	2407      	movs	r4, #7
   236ac:	2355      	movs	r3, #85	@ 0x55
   236ae:	4630      	mov	r0, r6
   236b0:	4621      	mov	r1, r4
   236b2:	462a      	mov	r2, r5
   236b4:	df03      	svc	3
   236b6:	2802      	cmp	r0, #2
   236b8:	d00c      	beq.n	236d4 <_ZN20complex_full_dynamic3app17hca776eaf9a3a9b46E+0x74>
   236ba:	a80c      	add	r0, sp, #48	@ 0x30
   236bc:	2103      	movs	r1, #3
   236be:	7201      	strb	r1, [r0, #8]
   236c0:	960c      	str	r6, [sp, #48]	@ 0x30
   236c2:	940d      	str	r4, [sp, #52]	@ 0x34
   236c4:	4812      	ldr	r0, [pc, #72]	@ (23710 <_ZN20complex_full_dynamic3app17hca776eaf9a3a9b46E+0xb0>)
   236c6:	2109      	movs	r1, #9
   236c8:	2600      	movs	r6, #0
   236ca:	4622      	mov	r2, r4
   236cc:	4633      	mov	r3, r6
   236ce:	df02      	svc	2
   236d0:	287f      	cmp	r0, #127	@ 0x7f
   236d2:	d80b      	bhi.n	236ec <_ZN20complex_full_dynamic3app17hca776eaf9a3a9b46E+0x8c>
   236d4:	9c03      	ldr	r4, [sp, #12]
   236d6:	6061      	str	r1, [r4, #4]
   236d8:	2601      	movs	r6, #1
   236da:	7026      	strb	r6, [r4, #0]
   236dc:	a80c      	add	r0, sp, #48	@ 0x30
   236de:	f003 fc1b 	bl	26f18 <_ZN9allow_pin12full_dynamic17unshare_if_shared17hc627a04126f70c57E>
   236e2:	a804      	add	r0, sp, #16
   236e4:	f003 fc18 	bl	26f18 <_ZN9allow_pin12full_dynamic17unshare_if_shared17hc627a04126f70c57E>
   236e8:	b025      	add	sp, #148	@ 0x94
   236ea:	bdf0      	pop	{r4, r5, r6, r7, pc}
   236ec:	a804      	add	r0, sp, #16
   236ee:	f003 fc13 	bl	26f18 <_ZN9allow_pin12full_dynamic17unshare_if_shared17hc627a04126f70c57E>
   236f2:	ac0c      	add	r4, sp, #48	@ 0x30
   236f4:	4620      	mov	r0, r4
   236f6:	f003 fc0f 	bl	26f18 <_ZN9allow_pin12full_dynamic17unshare_if_shared17hc627a04126f70c57E>
   236fa:	4620      	mov	r0, r4
   236fc:	f003 fc0c 	bl	26f18 <_ZN9allow_pin12full_dynamic17unshare_if_shared17hc627a04126f70c57E>
   23700:	9c03      	ldr	r4, [sp, #12]
   23702:	1c60      	adds	r0, r4, #1
   23704:	2255      	movs	r2, #85	@ 0x55
   23706:	4629      	mov	r1, r5
   23708:	f003 fdc7 	bl	2729a <__aeabi_memcpy>
   2370c:	e7e5      	b.n	236da <_ZN20complex_full_dynamic3app17hca776eaf9a3a9b46E+0x7a>
   2370e:	46c0      	nop			@ (mov r8, r8)
   23710:	0000032e 	.word	0x0000032e

00023714 <_ZN20complex_full_dynamic3app17hcd619064efa40958E>:
   23714:	b5f0      	push	{r4, r5, r6, r7, lr}
   23716:	af03      	add	r7, sp, #12
   23718:	b097      	sub	sp, #92	@ 0x5c
   2371a:	9002      	str	r0, [sp, #8]
   2371c:	ac03      	add	r4, sp, #12
   2371e:	2602      	movs	r6, #2
   23720:	7226      	strb	r6, [r4, #8]
   23722:	340c      	adds	r4, #12
   23724:	221a      	movs	r2, #26
   23726:	9201      	str	r2, [sp, #4]
   23728:	4620      	mov	r0, r4
   2372a:	f003 fdb6 	bl	2729a <__aeabi_memcpy>
   2372e:	a80d      	add	r0, sp, #52	@ 0x34
   23730:	4605      	mov	r5, r0
   23732:	350c      	adds	r5, #12
   23734:	2100      	movs	r1, #0
   23736:	76a9      	strb	r1, [r5, #26]
   23738:	8481      	strh	r1, [r0, #36]	@ 0x24
   2373a:	7206      	strb	r6, [r0, #8]
   2373c:	9115      	str	r1, [sp, #84]	@ 0x54
   2373e:	9114      	str	r1, [sp, #80]	@ 0x50
   23740:	9113      	str	r1, [sp, #76]	@ 0x4c
   23742:	9112      	str	r1, [sp, #72]	@ 0x48
   23744:	9111      	str	r1, [sp, #68]	@ 0x44
   23746:	9110      	str	r1, [sp, #64]	@ 0x40
   23748:	481f      	ldr	r0, [pc, #124]	@ (237c8 <_ZN20complex_full_dynamic3app17hcd619064efa40958E+0xb4>)
   2374a:	2605      	movs	r6, #5
   2374c:	4631      	mov	r1, r6
   2374e:	4622      	mov	r2, r4
   23750:	9b01      	ldr	r3, [sp, #4]
   23752:	df04      	svc	4
   23754:	2802      	cmp	r0, #2
   23756:	d01a      	beq.n	2378e <_ZN20complex_full_dynamic3app17hcd619064efa40958E+0x7a>
   23758:	a803      	add	r0, sp, #12
   2375a:	2104      	movs	r1, #4
   2375c:	7201      	strb	r1, [r0, #8]
   2375e:	9604      	str	r6, [sp, #16]
   23760:	4e19      	ldr	r6, [pc, #100]	@ (237c8 <_ZN20complex_full_dynamic3app17hcd619064efa40958E+0xb4>)
   23762:	9603      	str	r6, [sp, #12]
   23764:	2402      	movs	r4, #2
   23766:	231b      	movs	r3, #27
   23768:	4630      	mov	r0, r6
   2376a:	4621      	mov	r1, r4
   2376c:	462a      	mov	r2, r5
   2376e:	df03      	svc	3
   23770:	2802      	cmp	r0, #2
   23772:	d00c      	beq.n	2378e <_ZN20complex_full_dynamic3app17hcd619064efa40958E+0x7a>
   23774:	a80d      	add	r0, sp, #52	@ 0x34
   23776:	2103      	movs	r1, #3
   23778:	7201      	strb	r1, [r0, #8]
   2377a:	960d      	str	r6, [sp, #52]	@ 0x34
   2377c:	940e      	str	r4, [sp, #56]	@ 0x38
   2377e:	4812      	ldr	r0, [pc, #72]	@ (237c8 <_ZN20complex_full_dynamic3app17hcd619064efa40958E+0xb4>)
   23780:	2105      	movs	r1, #5
   23782:	2600      	movs	r6, #0
   23784:	4622      	mov	r2, r4
   23786:	4633      	mov	r3, r6
   23788:	df02      	svc	2
   2378a:	287f      	cmp	r0, #127	@ 0x7f
   2378c:	d80b      	bhi.n	237a6 <_ZN20complex_full_dynamic3app17hcd619064efa40958E+0x92>
   2378e:	9c02      	ldr	r4, [sp, #8]
   23790:	6061      	str	r1, [r4, #4]
   23792:	2601      	movs	r6, #1
   23794:	7026      	strb	r6, [r4, #0]
   23796:	a80d      	add	r0, sp, #52	@ 0x34
   23798:	f003 fbbe 	bl	26f18 <_ZN9allow_pin12full_dynamic17unshare_if_shared17hc627a04126f70c57E>
   2379c:	a803      	add	r0, sp, #12
   2379e:	f003 fbbb 	bl	26f18 <_ZN9allow_pin12full_dynamic17unshare_if_shared17hc627a04126f70c57E>
   237a2:	b017      	add	sp, #92	@ 0x5c
   237a4:	bdf0      	pop	{r4, r5, r6, r7, pc}
   237a6:	a803      	add	r0, sp, #12
   237a8:	f003 fbb6 	bl	26f18 <_ZN9allow_pin12full_dynamic17unshare_if_shared17hc627a04126f70c57E>
   237ac:	ac0d      	add	r4, sp, #52	@ 0x34
   237ae:	4620      	mov	r0, r4
   237b0:	f003 fbb2 	bl	26f18 <_ZN9allow_pin12full_dynamic17unshare_if_shared17hc627a04126f70c57E>
   237b4:	4620      	mov	r0, r4
   237b6:	f003 fbaf 	bl	26f18 <_ZN9allow_pin12full_dynamic17unshare_if_shared17hc627a04126f70c57E>
   237ba:	9c02      	ldr	r4, [sp, #8]
   237bc:	1c60      	adds	r0, r4, #1
   237be:	221b      	movs	r2, #27
   237c0:	4629      	mov	r1, r5
   237c2:	f003 fd6a 	bl	2729a <__aeabi_memcpy>
   237c6:	e7e5      	b.n	23794 <_ZN20complex_full_dynamic3app17hcd619064efa40958E+0x80>
   237c8:	00001cce 	.word	0x00001cce

000237cc <_ZN20complex_full_dynamic3app17hce64c8c98f4acb83E>:
   237cc:	b5f0      	push	{r4, r5, r6, r7, lr}
   237ce:	af03      	add	r7, sp, #12
   237d0:	b0a7      	sub	sp, #156	@ 0x9c
   237d2:	9002      	str	r0, [sp, #8]
   237d4:	ac03      	add	r4, sp, #12
   237d6:	2002      	movs	r0, #2
   237d8:	9001      	str	r0, [sp, #4]
   237da:	7220      	strb	r0, [r4, #8]
   237dc:	340c      	adds	r4, #12
   237de:	2232      	movs	r2, #50	@ 0x32
   237e0:	9200      	str	r2, [sp, #0]
   237e2:	4620      	mov	r0, r4
   237e4:	f003 fd59 	bl	2729a <__aeabi_memcpy>
   237e8:	ae13      	add	r6, sp, #76	@ 0x4c
   237ea:	4635      	mov	r5, r6
   237ec:	350c      	adds	r5, #12
   237ee:	2141      	movs	r1, #65	@ 0x41
   237f0:	4628      	mov	r0, r5
   237f2:	f003 fba5 	bl	26f40 <__aeabi_memclr4>
   237f6:	9801      	ldr	r0, [sp, #4]
   237f8:	7230      	strb	r0, [r6, #8]
   237fa:	4820      	ldr	r0, [pc, #128]	@ (2387c <_ZN20complex_full_dynamic3app17hce64c8c98f4acb83E+0xb0>)
   237fc:	2607      	movs	r6, #7
   237fe:	4631      	mov	r1, r6
   23800:	4622      	mov	r2, r4
   23802:	9b00      	ldr	r3, [sp, #0]
   23804:	df04      	svc	4
   23806:	2802      	cmp	r0, #2
   23808:	d01a      	beq.n	23840 <_ZN20complex_full_dynamic3app17hce64c8c98f4acb83E+0x74>
   2380a:	a803      	add	r0, sp, #12
   2380c:	2104      	movs	r1, #4
   2380e:	7201      	strb	r1, [r0, #8]
   23810:	9604      	str	r6, [sp, #16]
   23812:	4e1a      	ldr	r6, [pc, #104]	@ (2387c <_ZN20complex_full_dynamic3app17hce64c8c98f4acb83E+0xb0>)
   23814:	9603      	str	r6, [sp, #12]
   23816:	2405      	movs	r4, #5
   23818:	2341      	movs	r3, #65	@ 0x41
   2381a:	4630      	mov	r0, r6
   2381c:	4621      	mov	r1, r4
   2381e:	462a      	mov	r2, r5
   23820:	df03      	svc	3
   23822:	2802      	cmp	r0, #2
   23824:	d00c      	beq.n	23840 <_ZN20complex_full_dynamic3app17hce64c8c98f4acb83E+0x74>
   23826:	a813      	add	r0, sp, #76	@ 0x4c
   23828:	2103      	movs	r1, #3
   2382a:	7201      	strb	r1, [r0, #8]
   2382c:	9613      	str	r6, [sp, #76]	@ 0x4c
   2382e:	9414      	str	r4, [sp, #80]	@ 0x50
   23830:	4812      	ldr	r0, [pc, #72]	@ (2387c <_ZN20complex_full_dynamic3app17hce64c8c98f4acb83E+0xb0>)
   23832:	2107      	movs	r1, #7
   23834:	2600      	movs	r6, #0
   23836:	4622      	mov	r2, r4
   23838:	4633      	mov	r3, r6
   2383a:	df02      	svc	2
   2383c:	287f      	cmp	r0, #127	@ 0x7f
   2383e:	d80b      	bhi.n	23858 <_ZN20complex_full_dynamic3app17hce64c8c98f4acb83E+0x8c>
   23840:	9c02      	ldr	r4, [sp, #8]
   23842:	6061      	str	r1, [r4, #4]
   23844:	2601      	movs	r6, #1
   23846:	7026      	strb	r6, [r4, #0]
   23848:	a813      	add	r0, sp, #76	@ 0x4c
   2384a:	f003 fb65 	bl	26f18 <_ZN9allow_pin12full_dynamic17unshare_if_shared17hc627a04126f70c57E>
   2384e:	a803      	add	r0, sp, #12
   23850:	f003 fb62 	bl	26f18 <_ZN9allow_pin12full_dynamic17unshare_if_shared17hc627a04126f70c57E>
   23854:	b027      	add	sp, #156	@ 0x9c
   23856:	bdf0      	pop	{r4, r5, r6, r7, pc}
   23858:	a803      	add	r0, sp, #12
   2385a:	f003 fb5d 	bl	26f18 <_ZN9allow_pin12full_dynamic17unshare_if_shared17hc627a04126f70c57E>
   2385e:	ac13      	add	r4, sp, #76	@ 0x4c
   23860:	4620      	mov	r0, r4
   23862:	f003 fb59 	bl	26f18 <_ZN9allow_pin12full_dynamic17unshare_if_shared17hc627a04126f70c57E>
   23866:	4620      	mov	r0, r4
   23868:	f003 fb56 	bl	26f18 <_ZN9allow_pin12full_dynamic17unshare_if_shared17hc627a04126f70c57E>
   2386c:	9c02      	ldr	r4, [sp, #8]
   2386e:	1c60      	adds	r0, r4, #1
   23870:	2241      	movs	r2, #65	@ 0x41
   23872:	4629      	mov	r1, r5
   23874:	f003 fd11 	bl	2729a <__aeabi_memcpy>
   23878:	e7e5      	b.n	23846 <_ZN20complex_full_dynamic3app17hce64c8c98f4acb83E+0x7a>
   2387a:	46c0      	nop			@ (mov r8, r8)
   2387c:	0000091d 	.word	0x0000091d

00023880 <_ZN20complex_full_dynamic3app17hdd53c92b76f00e5fE>:
   23880:	b5f0      	push	{r4, r5, r6, r7, lr}
   23882:	af03      	add	r7, sp, #12
   23884:	b09f      	sub	sp, #124	@ 0x7c
   23886:	9002      	str	r0, [sp, #8]
   23888:	ae03      	add	r6, sp, #12
   2388a:	2002      	movs	r0, #2
   2388c:	9001      	str	r0, [sp, #4]
   2388e:	7230      	strb	r0, [r6, #8]
   23890:	360c      	adds	r6, #12
   23892:	222c      	movs	r2, #44	@ 0x2c
   23894:	9200      	str	r2, [sp, #0]
   23896:	4630      	mov	r0, r6
   23898:	f003 fcff 	bl	2729a <__aeabi_memcpy>
   2389c:	ad11      	add	r5, sp, #68	@ 0x44
   2389e:	462c      	mov	r4, r5
   238a0:	340c      	adds	r4, #12
   238a2:	212a      	movs	r1, #42	@ 0x2a
   238a4:	4620      	mov	r0, r4
   238a6:	f003 fb4b 	bl	26f40 <__aeabi_memclr4>
   238aa:	9801      	ldr	r0, [sp, #4]
   238ac:	7228      	strb	r0, [r5, #8]
   238ae:	481f      	ldr	r0, [pc, #124]	@ (2392c <_ZN20complex_full_dynamic3app17hdd53c92b76f00e5fE+0xac>)
   238b0:	2503      	movs	r5, #3
   238b2:	4629      	mov	r1, r5
   238b4:	4632      	mov	r2, r6
   238b6:	9b00      	ldr	r3, [sp, #0]
   238b8:	df04      	svc	4
   238ba:	2802      	cmp	r0, #2
   238bc:	d017      	beq.n	238ee <_ZN20complex_full_dynamic3app17hdd53c92b76f00e5fE+0x6e>
   238be:	a803      	add	r0, sp, #12
   238c0:	2104      	movs	r1, #4
   238c2:	7201      	strb	r1, [r0, #8]
   238c4:	9504      	str	r5, [sp, #16]
   238c6:	4819      	ldr	r0, [pc, #100]	@ (2392c <_ZN20complex_full_dynamic3app17hdd53c92b76f00e5fE+0xac>)
   238c8:	9003      	str	r0, [sp, #12]
   238ca:	2600      	movs	r6, #0
   238cc:	232a      	movs	r3, #42	@ 0x2a
   238ce:	4631      	mov	r1, r6
   238d0:	4622      	mov	r2, r4
   238d2:	df03      	svc	3
   238d4:	2802      	cmp	r0, #2
   238d6:	d00a      	beq.n	238ee <_ZN20complex_full_dynamic3app17hdd53c92b76f00e5fE+0x6e>
   238d8:	a811      	add	r0, sp, #68	@ 0x44
   238da:	7205      	strb	r5, [r0, #8]
   238dc:	4813      	ldr	r0, [pc, #76]	@ (2392c <_ZN20complex_full_dynamic3app17hdd53c92b76f00e5fE+0xac>)
   238de:	9011      	str	r0, [sp, #68]	@ 0x44
   238e0:	9612      	str	r6, [sp, #72]	@ 0x48
   238e2:	4629      	mov	r1, r5
   238e4:	4632      	mov	r2, r6
   238e6:	4633      	mov	r3, r6
   238e8:	df02      	svc	2
   238ea:	287f      	cmp	r0, #127	@ 0x7f
   238ec:	d80b      	bhi.n	23906 <_ZN20complex_full_dynamic3app17hdd53c92b76f00e5fE+0x86>
   238ee:	9c02      	ldr	r4, [sp, #8]
   238f0:	6061      	str	r1, [r4, #4]
   238f2:	2601      	movs	r6, #1
   238f4:	7026      	strb	r6, [r4, #0]
   238f6:	a811      	add	r0, sp, #68	@ 0x44
   238f8:	f003 fb0e 	bl	26f18 <_ZN9allow_pin12full_dynamic17unshare_if_shared17hc627a04126f70c57E>
   238fc:	a803      	add	r0, sp, #12
   238fe:	f003 fb0b 	bl	26f18 <_ZN9allow_pin12full_dynamic17unshare_if_shared17hc627a04126f70c57E>
   23902:	b01f      	add	sp, #124	@ 0x7c
   23904:	bdf0      	pop	{r4, r5, r6, r7, pc}
   23906:	a803      	add	r0, sp, #12
   23908:	f003 fb06 	bl	26f18 <_ZN9allow_pin12full_dynamic17unshare_if_shared17hc627a04126f70c57E>
   2390c:	4625      	mov	r5, r4
   2390e:	ac11      	add	r4, sp, #68	@ 0x44
   23910:	4620      	mov	r0, r4
   23912:	f003 fb01 	bl	26f18 <_ZN9allow_pin12full_dynamic17unshare_if_shared17hc627a04126f70c57E>
   23916:	4620      	mov	r0, r4
   23918:	f003 fafe 	bl	26f18 <_ZN9allow_pin12full_dynamic17unshare_if_shared17hc627a04126f70c57E>
   2391c:	9c02      	ldr	r4, [sp, #8]
   2391e:	1c60      	adds	r0, r4, #1
   23920:	222a      	movs	r2, #42	@ 0x2a
   23922:	4629      	mov	r1, r5
   23924:	f003 fcb9 	bl	2729a <__aeabi_memcpy>
   23928:	e7e4      	b.n	238f4 <_ZN20complex_full_dynamic3app17hdd53c92b76f00e5fE+0x74>
   2392a:	46c0      	nop			@ (mov r8, r8)
   2392c:	000024f0 	.word	0x000024f0

00023930 <_ZN20complex_full_dynamic3app17hdd5c4c692812d455E>:
   23930:	b5f0      	push	{r4, r5, r6, r7, lr}
   23932:	af03      	add	r7, sp, #12
   23934:	b0a7      	sub	sp, #156	@ 0x9c
   23936:	9003      	str	r0, [sp, #12]
   23938:	ae04      	add	r6, sp, #16
   2393a:	2002      	movs	r0, #2
   2393c:	9002      	str	r0, [sp, #8]
   2393e:	7230      	strb	r0, [r6, #8]
   23940:	360c      	adds	r6, #12
   23942:	223c      	movs	r2, #60	@ 0x3c
   23944:	9201      	str	r2, [sp, #4]
   23946:	4630      	mov	r0, r6
   23948:	f003 fca7 	bl	2729a <__aeabi_memcpy>
   2394c:	ad16      	add	r5, sp, #88	@ 0x58
   2394e:	462c      	mov	r4, r5
   23950:	340c      	adds	r4, #12
   23952:	2138      	movs	r1, #56	@ 0x38
   23954:	4620      	mov	r0, r4
   23956:	f003 faf3 	bl	26f40 <__aeabi_memclr4>
   2395a:	9802      	ldr	r0, [sp, #8]
   2395c:	7228      	strb	r0, [r5, #8]
   2395e:	481f      	ldr	r0, [pc, #124]	@ (239dc <_ZN20complex_full_dynamic3app17hdd5c4c692812d455E+0xac>)
   23960:	2503      	movs	r5, #3
   23962:	4629      	mov	r1, r5
   23964:	4632      	mov	r2, r6
   23966:	9b01      	ldr	r3, [sp, #4]
   23968:	df04      	svc	4
   2396a:	2802      	cmp	r0, #2
   2396c:	d018      	beq.n	239a0 <_ZN20complex_full_dynamic3app17hdd5c4c692812d455E+0x70>
   2396e:	a804      	add	r0, sp, #16
   23970:	2104      	movs	r1, #4
   23972:	7201      	strb	r1, [r0, #8]
   23974:	4e19      	ldr	r6, [pc, #100]	@ (239dc <_ZN20complex_full_dynamic3app17hdd5c4c692812d455E+0xac>)
   23976:	9604      	str	r6, [sp, #16]
   23978:	9505      	str	r5, [sp, #20]
   2397a:	2338      	movs	r3, #56	@ 0x38
   2397c:	4630      	mov	r0, r6
   2397e:	4629      	mov	r1, r5
   23980:	4622      	mov	r2, r4
   23982:	df03      	svc	3
   23984:	2802      	cmp	r0, #2
   23986:	d00b      	beq.n	239a0 <_ZN20complex_full_dynamic3app17hdd5c4c692812d455E+0x70>
   23988:	a816      	add	r0, sp, #88	@ 0x58
   2398a:	7205      	strb	r5, [r0, #8]
   2398c:	9517      	str	r5, [sp, #92]	@ 0x5c
   2398e:	9616      	str	r6, [sp, #88]	@ 0x58
   23990:	4812      	ldr	r0, [pc, #72]	@ (239dc <_ZN20complex_full_dynamic3app17hdd5c4c692812d455E+0xac>)
   23992:	2600      	movs	r6, #0
   23994:	4629      	mov	r1, r5
   23996:	462a      	mov	r2, r5
   23998:	4633      	mov	r3, r6
   2399a:	df02      	svc	2
   2399c:	287f      	cmp	r0, #127	@ 0x7f
   2399e:	d80b      	bhi.n	239b8 <_ZN20complex_full_dynamic3app17hdd5c4c692812d455E+0x88>
   239a0:	9c03      	ldr	r4, [sp, #12]
   239a2:	6061      	str	r1, [r4, #4]
   239a4:	2601      	movs	r6, #1
   239a6:	7026      	strb	r6, [r4, #0]
   239a8:	a816      	add	r0, sp, #88	@ 0x58
   239aa:	f003 fab5 	bl	26f18 <_ZN9allow_pin12full_dynamic17unshare_if_shared17hc627a04126f70c57E>
   239ae:	a804      	add	r0, sp, #16
   239b0:	f003 fab2 	bl	26f18 <_ZN9allow_pin12full_dynamic17unshare_if_shared17hc627a04126f70c57E>
   239b4:	b027      	add	sp, #156	@ 0x9c
   239b6:	bdf0      	pop	{r4, r5, r6, r7, pc}
   239b8:	a804      	add	r0, sp, #16
   239ba:	f003 faad 	bl	26f18 <_ZN9allow_pin12full_dynamic17unshare_if_shared17hc627a04126f70c57E>
   239be:	4625      	mov	r5, r4
   239c0:	ac16      	add	r4, sp, #88	@ 0x58
   239c2:	4620      	mov	r0, r4
   239c4:	f003 faa8 	bl	26f18 <_ZN9allow_pin12full_dynamic17unshare_if_shared17hc627a04126f70c57E>
   239c8:	4620      	mov	r0, r4
   239ca:	f003 faa5 	bl	26f18 <_ZN9allow_pin12full_dynamic17unshare_if_shared17hc627a04126f70c57E>
   239ce:	9c03      	ldr	r4, [sp, #12]
   239d0:	1c60      	adds	r0, r4, #1
   239d2:	2238      	movs	r2, #56	@ 0x38
   239d4:	4629      	mov	r1, r5
   239d6:	f003 fc60 	bl	2729a <__aeabi_memcpy>
   239da:	e7e4      	b.n	239a6 <_ZN20complex_full_dynamic3app17hdd5c4c692812d455E+0x76>
   239dc:	00001d19 	.word	0x00001d19

000239e0 <_ZN20complex_full_dynamic3app17he0f47623015c113fE>:
   239e0:	b5f0      	push	{r4, r5, r6, r7, lr}
   239e2:	af03      	add	r7, sp, #12
   239e4:	b0a9      	sub	sp, #164	@ 0xa4
   239e6:	9003      	str	r0, [sp, #12]
   239e8:	ac04      	add	r4, sp, #16
   239ea:	2002      	movs	r0, #2
   239ec:	9002      	str	r0, [sp, #8]
   239ee:	7220      	strb	r0, [r4, #8]
   239f0:	340c      	adds	r4, #12
   239f2:	221c      	movs	r2, #28
   239f4:	9201      	str	r2, [sp, #4]
   239f6:	4620      	mov	r0, r4
   239f8:	f003 fc4f 	bl	2729a <__aeabi_memcpy>
   239fc:	ae0e      	add	r6, sp, #56	@ 0x38
   239fe:	4635      	mov	r5, r6
   23a00:	350c      	adds	r5, #12
   23a02:	215d      	movs	r1, #93	@ 0x5d
   23a04:	4628      	mov	r0, r5
   23a06:	f003 fa9b 	bl	26f40 <__aeabi_memclr4>
   23a0a:	9802      	ldr	r0, [sp, #8]
   23a0c:	7230      	strb	r0, [r6, #8]
   23a0e:	4820      	ldr	r0, [pc, #128]	@ (23a90 <_ZN20complex_full_dynamic3app17he0f47623015c113fE+0xb0>)
   23a10:	2608      	movs	r6, #8
   23a12:	4631      	mov	r1, r6
   23a14:	4622      	mov	r2, r4
   23a16:	9b01      	ldr	r3, [sp, #4]
   23a18:	df04      	svc	4
   23a1a:	2802      	cmp	r0, #2
   23a1c:	d01a      	beq.n	23a54 <_ZN20complex_full_dynamic3app17he0f47623015c113fE+0x74>
   23a1e:	a804      	add	r0, sp, #16
   23a20:	2104      	movs	r1, #4
   23a22:	7201      	strb	r1, [r0, #8]
   23a24:	9605      	str	r6, [sp, #20]
   23a26:	4e1a      	ldr	r6, [pc, #104]	@ (23a90 <_ZN20complex_full_dynamic3app17he0f47623015c113fE+0xb0>)
   23a28:	9604      	str	r6, [sp, #16]
   23a2a:	2405      	movs	r4, #5
   23a2c:	235d      	movs	r3, #93	@ 0x5d
   23a2e:	4630      	mov	r0, r6
   23a30:	4621      	mov	r1, r4
   23a32:	462a      	mov	r2, r5
   23a34:	df03      	svc	3
   23a36:	2802      	cmp	r0, #2
   23a38:	d00c      	beq.n	23a54 <_ZN20complex_full_dynamic3app17he0f47623015c113fE+0x74>
   23a3a:	a80e      	add	r0, sp, #56	@ 0x38
   23a3c:	2103      	movs	r1, #3
   23a3e:	7201      	strb	r1, [r0, #8]
   23a40:	960e      	str	r6, [sp, #56]	@ 0x38
   23a42:	940f      	str	r4, [sp, #60]	@ 0x3c
   23a44:	4812      	ldr	r0, [pc, #72]	@ (23a90 <_ZN20complex_full_dynamic3app17he0f47623015c113fE+0xb0>)
   23a46:	2108      	movs	r1, #8
   23a48:	2600      	movs	r6, #0
   23a4a:	4622      	mov	r2, r4
   23a4c:	4633      	mov	r3, r6
   23a4e:	df02      	svc	2
   23a50:	287f      	cmp	r0, #127	@ 0x7f
   23a52:	d80b      	bhi.n	23a6c <_ZN20complex_full_dynamic3app17he0f47623015c113fE+0x8c>
   23a54:	9c03      	ldr	r4, [sp, #12]
   23a56:	6061      	str	r1, [r4, #4]
   23a58:	2601      	movs	r6, #1
   23a5a:	7026      	strb	r6, [r4, #0]
   23a5c:	a80e      	add	r0, sp, #56	@ 0x38
   23a5e:	f003 fa5b 	bl	26f18 <_ZN9allow_pin12full_dynamic17unshare_if_shared17hc627a04126f70c57E>
   23a62:	a804      	add	r0, sp, #16
   23a64:	f003 fa58 	bl	26f18 <_ZN9allow_pin12full_dynamic17unshare_if_shared17hc627a04126f70c57E>
   23a68:	b029      	add	sp, #164	@ 0xa4
   23a6a:	bdf0      	pop	{r4, r5, r6, r7, pc}
   23a6c:	a804      	add	r0, sp, #16
   23a6e:	f003 fa53 	bl	26f18 <_ZN9allow_pin12full_dynamic17unshare_if_shared17hc627a04126f70c57E>
   23a72:	ac0e      	add	r4, sp, #56	@ 0x38
   23a74:	4620      	mov	r0, r4
   23a76:	f003 fa4f 	bl	26f18 <_ZN9allow_pin12full_dynamic17unshare_if_shared17hc627a04126f70c57E>
   23a7a:	4620      	mov	r0, r4
   23a7c:	f003 fa4c 	bl	26f18 <_ZN9allow_pin12full_dynamic17unshare_if_shared17hc627a04126f70c57E>
   23a80:	9c03      	ldr	r4, [sp, #12]
   23a82:	1c60      	adds	r0, r4, #1
   23a84:	225d      	movs	r2, #93	@ 0x5d
   23a86:	4629      	mov	r1, r5
   23a88:	f003 fc07 	bl	2729a <__aeabi_memcpy>
   23a8c:	e7e5      	b.n	23a5a <_ZN20complex_full_dynamic3app17he0f47623015c113fE+0x7a>
   23a8e:	46c0      	nop			@ (mov r8, r8)
   23a90:	00000c3e 	.word	0x00000c3e

00023a94 <_ZN20complex_full_dynamic3app17he44c667dda1868f4E>:
   23a94:	b5f0      	push	{r4, r5, r6, r7, lr}
   23a96:	af03      	add	r7, sp, #12
   23a98:	b0a3      	sub	sp, #140	@ 0x8c
   23a9a:	9003      	str	r0, [sp, #12]
   23a9c:	ac04      	add	r4, sp, #16
   23a9e:	2002      	movs	r0, #2
   23aa0:	9002      	str	r0, [sp, #8]
   23aa2:	7220      	strb	r0, [r4, #8]
   23aa4:	340c      	adds	r4, #12
   23aa6:	223b      	movs	r2, #59	@ 0x3b
   23aa8:	9201      	str	r2, [sp, #4]
   23aaa:	4620      	mov	r0, r4
   23aac:	f003 fbf5 	bl	2729a <__aeabi_memcpy>
   23ab0:	ae16      	add	r6, sp, #88	@ 0x58
   23ab2:	4635      	mov	r5, r6
   23ab4:	350c      	adds	r5, #12
   23ab6:	2127      	movs	r1, #39	@ 0x27
   23ab8:	4628      	mov	r0, r5
   23aba:	f003 fa41 	bl	26f40 <__aeabi_memclr4>
   23abe:	9802      	ldr	r0, [sp, #8]
   23ac0:	7230      	strb	r0, [r6, #8]
   23ac2:	481f      	ldr	r0, [pc, #124]	@ (23b40 <_ZN20complex_full_dynamic3app17he44c667dda1868f4E+0xac>)
   23ac4:	2605      	movs	r6, #5
   23ac6:	4631      	mov	r1, r6
   23ac8:	4622      	mov	r2, r4
   23aca:	9b01      	ldr	r3, [sp, #4]
   23acc:	df04      	svc	4
   23ace:	2802      	cmp	r0, #2
   23ad0:	d019      	beq.n	23b06 <_ZN20complex_full_dynamic3app17he44c667dda1868f4E+0x72>
   23ad2:	a804      	add	r0, sp, #16
   23ad4:	2104      	movs	r1, #4
   23ad6:	7201      	strb	r1, [r0, #8]
   23ad8:	9605      	str	r6, [sp, #20]
   23ada:	4e19      	ldr	r6, [pc, #100]	@ (23b40 <_ZN20complex_full_dynamic3app17he44c667dda1868f4E+0xac>)
   23adc:	9604      	str	r6, [sp, #16]
   23ade:	2403      	movs	r4, #3
   23ae0:	2327      	movs	r3, #39	@ 0x27
   23ae2:	4630      	mov	r0, r6
   23ae4:	4621      	mov	r1, r4
   23ae6:	462a      	mov	r2, r5
   23ae8:	df03      	svc	3
   23aea:	2802      	cmp	r0, #2
   23aec:	d00b      	beq.n	23b06 <_ZN20complex_full_dynamic3app17he44c667dda1868f4E+0x72>
   23aee:	a816      	add	r0, sp, #88	@ 0x58
   23af0:	7204      	strb	r4, [r0, #8]
   23af2:	9417      	str	r4, [sp, #92]	@ 0x5c
   23af4:	9616      	str	r6, [sp, #88]	@ 0x58
   23af6:	4812      	ldr	r0, [pc, #72]	@ (23b40 <_ZN20complex_full_dynamic3app17he44c667dda1868f4E+0xac>)
   23af8:	2105      	movs	r1, #5
   23afa:	2600      	movs	r6, #0
   23afc:	4622      	mov	r2, r4
   23afe:	4633      	mov	r3, r6
   23b00:	df02      	svc	2
   23b02:	287f      	cmp	r0, #127	@ 0x7f
   23b04:	d80b      	bhi.n	23b1e <_ZN20complex_full_dynamic3app17he44c667dda1868f4E+0x8a>
   23b06:	9c03      	ldr	r4, [sp, #12]
   23b08:	6061      	str	r1, [r4, #4]
   23b0a:	2601      	movs	r6, #1
   23b0c:	7026      	strb	r6, [r4, #0]
   23b0e:	a816      	add	r0, sp, #88	@ 0x58
   23b10:	f003 fa02 	bl	26f18 <_ZN9allow_pin12full_dynamic17unshare_if_shared17hc627a04126f70c57E>
   23b14:	a804      	add	r0, sp, #16
   23b16:	f003 f9ff 	bl	26f18 <_ZN9allow_pin12full_dynamic17unshare_if_shared17hc627a04126f70c57E>
   23b1a:	b023      	add	sp, #140	@ 0x8c
   23b1c:	bdf0      	pop	{r4, r5, r6, r7, pc}
   23b1e:	a804      	add	r0, sp, #16
   23b20:	f003 f9fa 	bl	26f18 <_ZN9allow_pin12full_dynamic17unshare_if_shared17hc627a04126f70c57E>
   23b24:	ac16      	add	r4, sp, #88	@ 0x58
   23b26:	4620      	mov	r0, r4
   23b28:	f003 f9f6 	bl	26f18 <_ZN9allow_pin12full_dynamic17unshare_if_shared17hc627a04126f70c57E>
   23b2c:	4620      	mov	r0, r4
   23b2e:	f003 f9f3 	bl	26f18 <_ZN9allow_pin12full_dynamic17unshare_if_shared17hc627a04126f70c57E>
   23b32:	9c03      	ldr	r4, [sp, #12]
   23b34:	1c60      	adds	r0, r4, #1
   23b36:	2227      	movs	r2, #39	@ 0x27
   23b38:	4629      	mov	r1, r5
   23b3a:	f003 fbae 	bl	2729a <__aeabi_memcpy>
   23b3e:	e7e5      	b.n	23b0c <_ZN20complex_full_dynamic3app17he44c667dda1868f4E+0x78>
   23b40:	00000bd3 	.word	0x00000bd3

00023b44 <_ZN20complex_full_dynamic3app17he8f61ecfe352a6a8E>:
   23b44:	b5f0      	push	{r4, r5, r6, r7, lr}
   23b46:	af03      	add	r7, sp, #12
   23b48:	b097      	sub	sp, #92	@ 0x5c
   23b4a:	9002      	str	r0, [sp, #8]
   23b4c:	ae03      	add	r6, sp, #12
   23b4e:	2002      	movs	r0, #2
   23b50:	9001      	str	r0, [sp, #4]
   23b52:	7230      	strb	r0, [r6, #8]
   23b54:	360c      	adds	r6, #12
   23b56:	220f      	movs	r2, #15
   23b58:	9200      	str	r2, [sp, #0]
   23b5a:	4630      	mov	r0, r6
   23b5c:	f003 fb9d 	bl	2729a <__aeabi_memcpy>
   23b60:	ad0a      	add	r5, sp, #40	@ 0x28
   23b62:	462c      	mov	r4, r5
   23b64:	340c      	adds	r4, #12
   23b66:	2125      	movs	r1, #37	@ 0x25
   23b68:	4620      	mov	r0, r4
   23b6a:	f003 f9e9 	bl	26f40 <__aeabi_memclr4>
   23b6e:	9801      	ldr	r0, [sp, #4]
   23b70:	7228      	strb	r0, [r5, #8]
   23b72:	20a2      	movs	r0, #162	@ 0xa2
   23b74:	2508      	movs	r5, #8
   23b76:	9001      	str	r0, [sp, #4]
   23b78:	4629      	mov	r1, r5
   23b7a:	4632      	mov	r2, r6
   23b7c:	9b00      	ldr	r3, [sp, #0]
   23b7e:	df04      	svc	4
   23b80:	2802      	cmp	r0, #2
   23b82:	d018      	beq.n	23bb6 <_ZN20complex_full_dynamic3app17he8f61ecfe352a6a8E+0x72>
   23b84:	a803      	add	r0, sp, #12
   23b86:	2104      	movs	r1, #4
   23b88:	7201      	strb	r1, [r0, #8]
   23b8a:	9504      	str	r5, [sp, #16]
   23b8c:	9801      	ldr	r0, [sp, #4]
   23b8e:	9003      	str	r0, [sp, #12]
   23b90:	2600      	movs	r6, #0
   23b92:	2325      	movs	r3, #37	@ 0x25
   23b94:	4631      	mov	r1, r6
   23b96:	4622      	mov	r2, r4
   23b98:	df03      	svc	3
   23b9a:	2802      	cmp	r0, #2
   23b9c:	d00b      	beq.n	23bb6 <_ZN20complex_full_dynamic3app17he8f61ecfe352a6a8E+0x72>
   23b9e:	a80a      	add	r0, sp, #40	@ 0x28
   23ba0:	2103      	movs	r1, #3
   23ba2:	7201      	strb	r1, [r0, #8]
   23ba4:	960b      	str	r6, [sp, #44]	@ 0x2c
   23ba6:	9801      	ldr	r0, [sp, #4]
   23ba8:	900a      	str	r0, [sp, #40]	@ 0x28
   23baa:	2108      	movs	r1, #8
   23bac:	4632      	mov	r2, r6
   23bae:	4633      	mov	r3, r6
   23bb0:	df02      	svc	2
   23bb2:	287f      	cmp	r0, #127	@ 0x7f
   23bb4:	d80b      	bhi.n	23bce <_ZN20complex_full_dynamic3app17he8f61ecfe352a6a8E+0x8a>
   23bb6:	9c02      	ldr	r4, [sp, #8]
   23bb8:	6061      	str	r1, [r4, #4]
   23bba:	2601      	movs	r6, #1
   23bbc:	7026      	strb	r6, [r4, #0]
   23bbe:	a80a      	add	r0, sp, #40	@ 0x28
   23bc0:	f003 f9aa 	bl	26f18 <_ZN9allow_pin12full_dynamic17unshare_if_shared17hc627a04126f70c57E>
   23bc4:	a803      	add	r0, sp, #12
   23bc6:	f003 f9a7 	bl	26f18 <_ZN9allow_pin12full_dynamic17unshare_if_shared17hc627a04126f70c57E>
   23bca:	b017      	add	sp, #92	@ 0x5c
   23bcc:	bdf0      	pop	{r4, r5, r6, r7, pc}
   23bce:	4625      	mov	r5, r4
   23bd0:	a803      	add	r0, sp, #12
   23bd2:	f003 f9a1 	bl	26f18 <_ZN9allow_pin12full_dynamic17unshare_if_shared17hc627a04126f70c57E>
   23bd6:	ac0a      	add	r4, sp, #40	@ 0x28
   23bd8:	4620      	mov	r0, r4
   23bda:	f003 f99d 	bl	26f18 <_ZN9allow_pin12full_dynamic17unshare_if_shared17hc627a04126f70c57E>
   23bde:	4620      	mov	r0, r4
   23be0:	f003 f99a 	bl	26f18 <_ZN9allow_pin12full_dynamic17unshare_if_shared17hc627a04126f70c57E>
   23be4:	9c02      	ldr	r4, [sp, #8]
   23be6:	1c60      	adds	r0, r4, #1
   23be8:	2225      	movs	r2, #37	@ 0x25
   23bea:	4629      	mov	r1, r5
   23bec:	f003 fb55 	bl	2729a <__aeabi_memcpy>
   23bf0:	e7e4      	b.n	23bbc <_ZN20complex_full_dynamic3app17he8f61ecfe352a6a8E+0x78>
   23bf2:	d4d4      	bmi.n	23b9e <_ZN20complex_full_dynamic3app17he8f61ecfe352a6a8E+0x5a>

00023bf4 <_ZN20complex_full_dynamic3app17hea7e0f53ed64efd9E>:
   23bf4:	b5f0      	push	{r4, r5, r6, r7, lr}
   23bf6:	af03      	add	r7, sp, #12
   23bf8:	b09f      	sub	sp, #124	@ 0x7c
   23bfa:	9002      	str	r0, [sp, #8]
   23bfc:	ae03      	add	r6, sp, #12
   23bfe:	2002      	movs	r0, #2
   23c00:	9001      	str	r0, [sp, #4]
   23c02:	7230      	strb	r0, [r6, #8]
   23c04:	360c      	adds	r6, #12
   23c06:	220e      	movs	r2, #14
   23c08:	9200      	str	r2, [sp, #0]
   23c0a:	4630      	mov	r0, r6
   23c0c:	f003 fb45 	bl	2729a <__aeabi_memcpy>
   23c10:	ad0a      	add	r5, sp, #40	@ 0x28
   23c12:	462c      	mov	r4, r5
   23c14:	340c      	adds	r4, #12
   23c16:	2148      	movs	r1, #72	@ 0x48
   23c18:	4620      	mov	r0, r4
   23c1a:	f003 f991 	bl	26f40 <__aeabi_memclr4>
   23c1e:	9801      	ldr	r0, [sp, #4]
   23c20:	7228      	strb	r0, [r5, #8]
   23c22:	4820      	ldr	r0, [pc, #128]	@ (23ca4 <_ZN20complex_full_dynamic3app17hea7e0f53ed64efd9E+0xb0>)
   23c24:	2503      	movs	r5, #3
   23c26:	4629      	mov	r1, r5
   23c28:	4632      	mov	r2, r6
   23c2a:	9b00      	ldr	r3, [sp, #0]
   23c2c:	df04      	svc	4
   23c2e:	2802      	cmp	r0, #2
   23c30:	d01a      	beq.n	23c68 <_ZN20complex_full_dynamic3app17hea7e0f53ed64efd9E+0x74>
   23c32:	a803      	add	r0, sp, #12
   23c34:	2104      	movs	r1, #4
   23c36:	7201      	strb	r1, [r0, #8]
   23c38:	9504      	str	r5, [sp, #16]
   23c3a:	4e1a      	ldr	r6, [pc, #104]	@ (23ca4 <_ZN20complex_full_dynamic3app17hea7e0f53ed64efd9E+0xb0>)
   23c3c:	9603      	str	r6, [sp, #12]
   23c3e:	2108      	movs	r1, #8
   23c40:	2348      	movs	r3, #72	@ 0x48
   23c42:	4630      	mov	r0, r6
   23c44:	9101      	str	r1, [sp, #4]
   23c46:	4622      	mov	r2, r4
   23c48:	df03      	svc	3
   23c4a:	2802      	cmp	r0, #2
   23c4c:	d00c      	beq.n	23c68 <_ZN20complex_full_dynamic3app17hea7e0f53ed64efd9E+0x74>
   23c4e:	9400      	str	r4, [sp, #0]
   23c50:	a80a      	add	r0, sp, #40	@ 0x28
   23c52:	7205      	strb	r5, [r0, #8]
   23c54:	960a      	str	r6, [sp, #40]	@ 0x28
   23c56:	9a01      	ldr	r2, [sp, #4]
   23c58:	920b      	str	r2, [sp, #44]	@ 0x2c
   23c5a:	4812      	ldr	r0, [pc, #72]	@ (23ca4 <_ZN20complex_full_dynamic3app17hea7e0f53ed64efd9E+0xb0>)
   23c5c:	2600      	movs	r6, #0
   23c5e:	4629      	mov	r1, r5
   23c60:	4633      	mov	r3, r6
   23c62:	df02      	svc	2
   23c64:	287f      	cmp	r0, #127	@ 0x7f
   23c66:	d80b      	bhi.n	23c80 <_ZN20complex_full_dynamic3app17hea7e0f53ed64efd9E+0x8c>
   23c68:	9c02      	ldr	r4, [sp, #8]
   23c6a:	6061      	str	r1, [r4, #4]
   23c6c:	2601      	movs	r6, #1
   23c6e:	7026      	strb	r6, [r4, #0]
   23c70:	a80a      	add	r0, sp, #40	@ 0x28
   23c72:	f003 f951 	bl	26f18 <_ZN9allow_pin12full_dynamic17unshare_if_shared17hc627a04126f70c57E>
   23c76:	a803      	add	r0, sp, #12
   23c78:	f003 f94e 	bl	26f18 <_ZN9allow_pin12full_dynamic17unshare_if_shared17hc627a04126f70c57E>
   23c7c:	b01f      	add	sp, #124	@ 0x7c
   23c7e:	bdf0      	pop	{r4, r5, r6, r7, pc}
   23c80:	a803      	add	r0, sp, #12
   23c82:	f003 f949 	bl	26f18 <_ZN9allow_pin12full_dynamic17unshare_if_shared17hc627a04126f70c57E>
   23c86:	ac0a      	add	r4, sp, #40	@ 0x28
   23c88:	4620      	mov	r0, r4
   23c8a:	f003 f945 	bl	26f18 <_ZN9allow_pin12full_dynamic17unshare_if_shared17hc627a04126f70c57E>
   23c8e:	4620      	mov	r0, r4
   23c90:	f003 f942 	bl	26f18 <_ZN9allow_pin12full_dynamic17unshare_if_shared17hc627a04126f70c57E>
   23c94:	9c02      	ldr	r4, [sp, #8]
   23c96:	1c60      	adds	r0, r4, #1
   23c98:	2248      	movs	r2, #72	@ 0x48
   23c9a:	9900      	ldr	r1, [sp, #0]
   23c9c:	f003 fafd 	bl	2729a <__aeabi_memcpy>
   23ca0:	e7e5      	b.n	23c6e <_ZN20complex_full_dynamic3app17hea7e0f53ed64efd9E+0x7a>
   23ca2:	46c0      	nop			@ (mov r8, r8)
   23ca4:	000012d1 	.word	0x000012d1

00023ca8 <_ZN20complex_full_dynamic3app17hee7ef07769ccb0acE>:
   23ca8:	b5f0      	push	{r4, r5, r6, r7, lr}
   23caa:	af03      	add	r7, sp, #12
   23cac:	b0b3      	sub	sp, #204	@ 0xcc
   23cae:	9002      	str	r0, [sp, #8]
   23cb0:	ac03      	add	r4, sp, #12
   23cb2:	2002      	movs	r0, #2
   23cb4:	9001      	str	r0, [sp, #4]
   23cb6:	7220      	strb	r0, [r4, #8]
   23cb8:	340c      	adds	r4, #12
   23cba:	2259      	movs	r2, #89	@ 0x59
   23cbc:	9200      	str	r2, [sp, #0]
   23cbe:	4620      	mov	r0, r4
   23cc0:	f003 faeb 	bl	2729a <__aeabi_memcpy>
   23cc4:	ae1d      	add	r6, sp, #116	@ 0x74
   23cc6:	4635      	mov	r5, r6
   23cc8:	350c      	adds	r5, #12
   23cca:	214a      	movs	r1, #74	@ 0x4a
   23ccc:	4628      	mov	r0, r5
   23cce:	f003 f937 	bl	26f40 <__aeabi_memclr4>
   23cd2:	9801      	ldr	r0, [sp, #4]
   23cd4:	7230      	strb	r0, [r6, #8]
   23cd6:	481f      	ldr	r0, [pc, #124]	@ (23d54 <_ZN20complex_full_dynamic3app17hee7ef07769ccb0acE+0xac>)
   23cd8:	2600      	movs	r6, #0
   23cda:	4631      	mov	r1, r6
   23cdc:	4622      	mov	r2, r4
   23cde:	9b00      	ldr	r3, [sp, #0]
   23ce0:	df04      	svc	4
   23ce2:	2802      	cmp	r0, #2
   23ce4:	d019      	beq.n	23d1a <_ZN20complex_full_dynamic3app17hee7ef07769ccb0acE+0x72>
   23ce6:	a803      	add	r0, sp, #12
   23ce8:	2404      	movs	r4, #4
   23cea:	7204      	strb	r4, [r0, #8]
   23cec:	9604      	str	r6, [sp, #16]
   23cee:	4e19      	ldr	r6, [pc, #100]	@ (23d54 <_ZN20complex_full_dynamic3app17hee7ef07769ccb0acE+0xac>)
   23cf0:	9603      	str	r6, [sp, #12]
   23cf2:	234a      	movs	r3, #74	@ 0x4a
   23cf4:	4630      	mov	r0, r6
   23cf6:	4621      	mov	r1, r4
   23cf8:	462a      	mov	r2, r5
   23cfa:	df03      	svc	3
   23cfc:	2802      	cmp	r0, #2
   23cfe:	d00c      	beq.n	23d1a <_ZN20complex_full_dynamic3app17hee7ef07769ccb0acE+0x72>
   23d00:	a81d      	add	r0, sp, #116	@ 0x74
   23d02:	2103      	movs	r1, #3
   23d04:	7201      	strb	r1, [r0, #8]
   23d06:	961d      	str	r6, [sp, #116]	@ 0x74
   23d08:	941e      	str	r4, [sp, #120]	@ 0x78
   23d0a:	4812      	ldr	r0, [pc, #72]	@ (23d54 <_ZN20complex_full_dynamic3app17hee7ef07769ccb0acE+0xac>)
   23d0c:	2600      	movs	r6, #0
   23d0e:	4631      	mov	r1, r6
   23d10:	4622      	mov	r2, r4
   23d12:	4633      	mov	r3, r6
   23d14:	df02      	svc	2
   23d16:	287f      	cmp	r0, #127	@ 0x7f
   23d18:	d80b      	bhi.n	23d32 <_ZN20complex_full_dynamic3app17hee7ef07769ccb0acE+0x8a>
   23d1a:	9c02      	ldr	r4, [sp, #8]
   23d1c:	6061      	str	r1, [r4, #4]
   23d1e:	2601      	movs	r6, #1
   23d20:	7026      	strb	r6, [r4, #0]
   23d22:	a81d      	add	r0, sp, #116	@ 0x74
   23d24:	f003 f8f8 	bl	26f18 <_ZN9allow_pin12full_dynamic17unshare_if_shared17hc627a04126f70c57E>
   23d28:	a803      	add	r0, sp, #12
   23d2a:	f003 f8f5 	bl	26f18 <_ZN9allow_pin12full_dynamic17unshare_if_shared17hc627a04126f70c57E>
   23d2e:	b033      	add	sp, #204	@ 0xcc
   23d30:	bdf0      	pop	{r4, r5, r6, r7, pc}
   23d32:	a803      	add	r0, sp, #12
   23d34:	f003 f8f0 	bl	26f18 <_ZN9allow_pin12full_dynamic17unshare_if_shared17hc627a04126f70c57E>
   23d38:	ac1d      	add	r4, sp, #116	@ 0x74
   23d3a:	4620      	mov	r0, r4
   23d3c:	f003 f8ec 	bl	26f18 <_ZN9allow_pin12full_dynamic17unshare_if_shared17hc627a04126f70c57E>
   23d40:	4620      	mov	r0, r4
   23d42:	f003 f8e9 	bl	26f18 <_ZN9allow_pin12full_dynamic17unshare_if_shared17hc627a04126f70c57E>
   23d46:	9c02      	ldr	r4, [sp, #8]
   23d48:	1c60      	adds	r0, r4, #1
   23d4a:	224a      	movs	r2, #74	@ 0x4a
   23d4c:	4629      	mov	r1, r5
   23d4e:	f003 faa4 	bl	2729a <__aeabi_memcpy>
   23d52:	e7e5      	b.n	23d20 <_ZN20complex_full_dynamic3app17hee7ef07769ccb0acE+0x78>
   23d54:	00001484 	.word	0x00001484

00023d58 <_ZN20complex_full_dynamic3app17hee85fdc4c7366f8fE>:
   23d58:	b5f0      	push	{r4, r5, r6, r7, lr}
   23d5a:	af03      	add	r7, sp, #12
   23d5c:	b091      	sub	sp, #68	@ 0x44
   23d5e:	9001      	str	r0, [sp, #4]
   23d60:	ae02      	add	r6, sp, #8
   23d62:	2502      	movs	r5, #2
   23d64:	7235      	strb	r5, [r6, #8]
   23d66:	360c      	adds	r6, #12
   23d68:	240f      	movs	r4, #15
   23d6a:	4630      	mov	r0, r6
   23d6c:	4622      	mov	r2, r4
   23d6e:	f003 fa94 	bl	2729a <__aeabi_memcpy>
   23d72:	a909      	add	r1, sp, #36	@ 0x24
   23d74:	9100      	str	r1, [sp, #0]
   23d76:	2000      	movs	r0, #0
   23d78:	7788      	strb	r0, [r1, #30]
   23d7a:	8388      	strh	r0, [r1, #28]
   23d7c:	720d      	strb	r5, [r1, #8]
   23d7e:	900f      	str	r0, [sp, #60]	@ 0x3c
   23d80:	900e      	str	r0, [sp, #56]	@ 0x38
   23d82:	900d      	str	r0, [sp, #52]	@ 0x34
   23d84:	900c      	str	r0, [sp, #48]	@ 0x30
   23d86:	4820      	ldr	r0, [pc, #128]	@ (23e08 <_ZN20complex_full_dynamic3app17hee85fdc4c7366f8fE+0xb0>)
   23d88:	2103      	movs	r1, #3
   23d8a:	460d      	mov	r5, r1
   23d8c:	4632      	mov	r2, r6
   23d8e:	4623      	mov	r3, r4
   23d90:	df04      	svc	4
   23d92:	2802      	cmp	r0, #2
   23d94:	d01a      	beq.n	23dcc <_ZN20complex_full_dynamic3app17hee85fdc4c7366f8fE+0x74>
   23d96:	9a00      	ldr	r2, [sp, #0]
   23d98:	320c      	adds	r2, #12
   23d9a:	a802      	add	r0, sp, #8
   23d9c:	2104      	movs	r1, #4
   23d9e:	7201      	strb	r1, [r0, #8]
   23da0:	462c      	mov	r4, r5
   23da2:	9503      	str	r5, [sp, #12]
   23da4:	4818      	ldr	r0, [pc, #96]	@ (23e08 <_ZN20complex_full_dynamic3app17hee85fdc4c7366f8fE+0xb0>)
   23da6:	9002      	str	r0, [sp, #8]
   23da8:	2600      	movs	r6, #0
   23daa:	2313      	movs	r3, #19
   23dac:	4631      	mov	r1, r6
   23dae:	4615      	mov	r5, r2
   23db0:	df03      	svc	3
   23db2:	2802      	cmp	r0, #2
   23db4:	d00a      	beq.n	23dcc <_ZN20complex_full_dynamic3app17hee85fdc4c7366f8fE+0x74>
   23db6:	a809      	add	r0, sp, #36	@ 0x24
   23db8:	7204      	strb	r4, [r0, #8]
   23dba:	4813      	ldr	r0, [pc, #76]	@ (23e08 <_ZN20complex_full_dynamic3app17hee85fdc4c7366f8fE+0xb0>)
   23dbc:	9009      	str	r0, [sp, #36]	@ 0x24
   23dbe:	960a      	str	r6, [sp, #40]	@ 0x28
   23dc0:	4621      	mov	r1, r4
   23dc2:	4632      	mov	r2, r6
   23dc4:	4633      	mov	r3, r6
   23dc6:	df02      	svc	2
   23dc8:	287f      	cmp	r0, #127	@ 0x7f
   23dca:	d80b      	bhi.n	23de4 <_ZN20complex_full_dynamic3app17hee85fdc4c7366f8fE+0x8c>
   23dcc:	9c01      	ldr	r4, [sp, #4]
   23dce:	6061      	str	r1, [r4, #4]
   23dd0:	2601      	movs	r6, #1
   23dd2:	7026      	strb	r6, [r4, #0]
   23dd4:	a809      	add	r0, sp, #36	@ 0x24
   23dd6:	f003 f89f 	bl	26f18 <_ZN9allow_pin12full_dynamic17unshare_if_shared17hc627a04126f70c57E>
   23dda:	a802      	add	r0, sp, #8
   23ddc:	f003 f89c 	bl	26f18 <_ZN9allow_pin12full_dynamic17unshare_if_shared17hc627a04126f70c57E>
   23de0:	b011      	add	sp, #68	@ 0x44
   23de2:	bdf0      	pop	{r4, r5, r6, r7, pc}
   23de4:	a802      	add	r0, sp, #8
   23de6:	f003 f897 	bl	26f18 <_ZN9allow_pin12full_dynamic17unshare_if_shared17hc627a04126f70c57E>
   23dea:	ac09      	add	r4, sp, #36	@ 0x24
   23dec:	4620      	mov	r0, r4
   23dee:	f003 f893 	bl	26f18 <_ZN9allow_pin12full_dynamic17unshare_if_shared17hc627a04126f70c57E>
   23df2:	4620      	mov	r0, r4
   23df4:	f003 f890 	bl	26f18 <_ZN9allow_pin12full_dynamic17unshare_if_shared17hc627a04126f70c57E>
   23df8:	9c01      	ldr	r4, [sp, #4]
   23dfa:	1c60      	adds	r0, r4, #1
   23dfc:	2213      	movs	r2, #19
   23dfe:	4629      	mov	r1, r5
   23e00:	f003 fa4b 	bl	2729a <__aeabi_memcpy>
   23e04:	e7e5      	b.n	23dd2 <_ZN20complex_full_dynamic3app17hee85fdc4c7366f8fE+0x7a>
   23e06:	46c0      	nop			@ (mov r8, r8)
   23e08:	00001e4b 	.word	0x00001e4b

00023e0c <_ZN20complex_full_dynamic3app17hf2f8b0a202fa2e17E>:
   23e0c:	b5f0      	push	{r4, r5, r6, r7, lr}
   23e0e:	af03      	add	r7, sp, #12
   23e10:	b09f      	sub	sp, #124	@ 0x7c
   23e12:	9003      	str	r0, [sp, #12]
   23e14:	ac04      	add	r4, sp, #16
   23e16:	2002      	movs	r0, #2
   23e18:	9002      	str	r0, [sp, #8]
   23e1a:	7220      	strb	r0, [r4, #8]
   23e1c:	340c      	adds	r4, #12
   23e1e:	2225      	movs	r2, #37	@ 0x25
   23e20:	9201      	str	r2, [sp, #4]
   23e22:	4620      	mov	r0, r4
   23e24:	f003 fa39 	bl	2729a <__aeabi_memcpy>
   23e28:	ae11      	add	r6, sp, #68	@ 0x44
   23e2a:	4635      	mov	r5, r6
   23e2c:	350c      	adds	r5, #12
   23e2e:	212a      	movs	r1, #42	@ 0x2a
   23e30:	4628      	mov	r0, r5
   23e32:	f003 f885 	bl	26f40 <__aeabi_memclr4>
   23e36:	9802      	ldr	r0, [sp, #8]
   23e38:	7230      	strb	r0, [r6, #8]
   23e3a:	481f      	ldr	r0, [pc, #124]	@ (23eb8 <_ZN20complex_full_dynamic3app17hf2f8b0a202fa2e17E+0xac>)
   23e3c:	2600      	movs	r6, #0
   23e3e:	4631      	mov	r1, r6
   23e40:	4622      	mov	r2, r4
   23e42:	9b01      	ldr	r3, [sp, #4]
   23e44:	df04      	svc	4
   23e46:	2802      	cmp	r0, #2
   23e48:	d019      	beq.n	23e7e <_ZN20complex_full_dynamic3app17hf2f8b0a202fa2e17E+0x72>
   23e4a:	a804      	add	r0, sp, #16
   23e4c:	2104      	movs	r1, #4
   23e4e:	7201      	strb	r1, [r0, #8]
   23e50:	9605      	str	r6, [sp, #20]
   23e52:	4e19      	ldr	r6, [pc, #100]	@ (23eb8 <_ZN20complex_full_dynamic3app17hf2f8b0a202fa2e17E+0xac>)
   23e54:	9604      	str	r6, [sp, #16]
   23e56:	2403      	movs	r4, #3
   23e58:	232a      	movs	r3, #42	@ 0x2a
   23e5a:	4630      	mov	r0, r6
   23e5c:	4621      	mov	r1, r4
   23e5e:	462a      	mov	r2, r5
   23e60:	df03      	svc	3
   23e62:	2802      	cmp	r0, #2
   23e64:	d00b      	beq.n	23e7e <_ZN20complex_full_dynamic3app17hf2f8b0a202fa2e17E+0x72>
   23e66:	a811      	add	r0, sp, #68	@ 0x44
   23e68:	7204      	strb	r4, [r0, #8]
   23e6a:	9412      	str	r4, [sp, #72]	@ 0x48
   23e6c:	9611      	str	r6, [sp, #68]	@ 0x44
   23e6e:	4812      	ldr	r0, [pc, #72]	@ (23eb8 <_ZN20complex_full_dynamic3app17hf2f8b0a202fa2e17E+0xac>)
   23e70:	2600      	movs	r6, #0
   23e72:	4631      	mov	r1, r6
   23e74:	4622      	mov	r2, r4
   23e76:	4633      	mov	r3, r6
   23e78:	df02      	svc	2
   23e7a:	287f      	cmp	r0, #127	@ 0x7f
   23e7c:	d80b      	bhi.n	23e96 <_ZN20complex_full_dynamic3app17hf2f8b0a202fa2e17E+0x8a>
   23e7e:	9c03      	ldr	r4, [sp, #12]
   23e80:	6061      	str	r1, [r4, #4]
   23e82:	2601      	movs	r6, #1
   23e84:	7026      	strb	r6, [r4, #0]
   23e86:	a811      	add	r0, sp, #68	@ 0x44
   23e88:	f003 f846 	bl	26f18 <_ZN9allow_pin12full_dynamic17unshare_if_shared17hc627a04126f70c57E>
   23e8c:	a804      	add	r0, sp, #16
   23e8e:	f003 f843 	bl	26f18 <_ZN9allow_pin12full_dynamic17unshare_if_shared17hc627a04126f70c57E>
   23e92:	b01f      	add	sp, #124	@ 0x7c
   23e94:	bdf0      	pop	{r4, r5, r6, r7, pc}
   23e96:	a804      	add	r0, sp, #16
   23e98:	f003 f83e 	bl	26f18 <_ZN9allow_pin12full_dynamic17unshare_if_shared17hc627a04126f70c57E>
   23e9c:	ac11      	add	r4, sp, #68	@ 0x44
   23e9e:	4620      	mov	r0, r4
   23ea0:	f003 f83a 	bl	26f18 <_ZN9allow_pin12full_dynamic17unshare_if_shared17hc627a04126f70c57E>
   23ea4:	4620      	mov	r0, r4
   23ea6:	f003 f837 	bl	26f18 <_ZN9allow_pin12full_dynamic17unshare_if_shared17hc627a04126f70c57E>
   23eaa:	9c03      	ldr	r4, [sp, #12]
   23eac:	1c60      	adds	r0, r4, #1
   23eae:	222a      	movs	r2, #42	@ 0x2a
   23eb0:	4629      	mov	r1, r5
   23eb2:	f003 f9f2 	bl	2729a <__aeabi_memcpy>
   23eb6:	e7e5      	b.n	23e84 <_ZN20complex_full_dynamic3app17hf2f8b0a202fa2e17E+0x78>
   23eb8:	0000093c 	.word	0x0000093c

00023ebc <_ZN20complex_full_dynamic3app17hf308afbc5ced72caE>:
   23ebc:	b5f0      	push	{r4, r5, r6, r7, lr}
   23ebe:	af03      	add	r7, sp, #12
   23ec0:	b09f      	sub	sp, #124	@ 0x7c
   23ec2:	9001      	str	r0, [sp, #4]
   23ec4:	ac02      	add	r4, sp, #8
   23ec6:	2602      	movs	r6, #2
   23ec8:	7226      	strb	r6, [r4, #8]
   23eca:	340c      	adds	r4, #12
   23ecc:	2541      	movs	r5, #65	@ 0x41
   23ece:	4620      	mov	r0, r4
   23ed0:	462a      	mov	r2, r5
   23ed2:	f003 f9e2 	bl	2729a <__aeabi_memcpy>
   23ed6:	a816      	add	r0, sp, #88	@ 0x58
   23ed8:	9000      	str	r0, [sp, #0]
   23eda:	7206      	strb	r6, [r0, #8]
   23edc:	2000      	movs	r0, #0
   23ede:	901e      	str	r0, [sp, #120]	@ 0x78
   23ee0:	901d      	str	r0, [sp, #116]	@ 0x74
   23ee2:	901c      	str	r0, [sp, #112]	@ 0x70
   23ee4:	901b      	str	r0, [sp, #108]	@ 0x6c
   23ee6:	901a      	str	r0, [sp, #104]	@ 0x68
   23ee8:	9019      	str	r0, [sp, #100]	@ 0x64
   23eea:	4820      	ldr	r0, [pc, #128]	@ (23f6c <_ZN20complex_full_dynamic3app17hf308afbc5ced72caE+0xb0>)
   23eec:	2601      	movs	r6, #1
   23eee:	4631      	mov	r1, r6
   23ef0:	4622      	mov	r2, r4
   23ef2:	462b      	mov	r3, r5
   23ef4:	df04      	svc	4
   23ef6:	2802      	cmp	r0, #2
   23ef8:	d01b      	beq.n	23f32 <_ZN20complex_full_dynamic3app17hf308afbc5ced72caE+0x76>
   23efa:	9d00      	ldr	r5, [sp, #0]
   23efc:	350c      	adds	r5, #12
   23efe:	a802      	add	r0, sp, #8
   23f00:	2104      	movs	r1, #4
   23f02:	7201      	strb	r1, [r0, #8]
   23f04:	9603      	str	r6, [sp, #12]
   23f06:	4819      	ldr	r0, [pc, #100]	@ (23f6c <_ZN20complex_full_dynamic3app17hf308afbc5ced72caE+0xb0>)
   23f08:	9002      	str	r0, [sp, #8]
   23f0a:	2409      	movs	r4, #9
   23f0c:	2318      	movs	r3, #24
   23f0e:	4621      	mov	r1, r4
   23f10:	462a      	mov	r2, r5
   23f12:	df03      	svc	3
   23f14:	2802      	cmp	r0, #2
   23f16:	d00c      	beq.n	23f32 <_ZN20complex_full_dynamic3app17hf308afbc5ced72caE+0x76>
   23f18:	a816      	add	r0, sp, #88	@ 0x58
   23f1a:	2103      	movs	r1, #3
   23f1c:	7201      	strb	r1, [r0, #8]
   23f1e:	4813      	ldr	r0, [pc, #76]	@ (23f6c <_ZN20complex_full_dynamic3app17hf308afbc5ced72caE+0xb0>)
   23f20:	9016      	str	r0, [sp, #88]	@ 0x58
   23f22:	9417      	str	r4, [sp, #92]	@ 0x5c
   23f24:	2101      	movs	r1, #1
   23f26:	2300      	movs	r3, #0
   23f28:	4622      	mov	r2, r4
   23f2a:	9300      	str	r3, [sp, #0]
   23f2c:	df02      	svc	2
   23f2e:	287f      	cmp	r0, #127	@ 0x7f
   23f30:	d80a      	bhi.n	23f48 <_ZN20complex_full_dynamic3app17hf308afbc5ced72caE+0x8c>
   23f32:	9c01      	ldr	r4, [sp, #4]
   23f34:	6061      	str	r1, [r4, #4]
   23f36:	7026      	strb	r6, [r4, #0]
   23f38:	a816      	add	r0, sp, #88	@ 0x58
   23f3a:	f002 ffed 	bl	26f18 <_ZN9allow_pin12full_dynamic17unshare_if_shared17hc627a04126f70c57E>
   23f3e:	a802      	add	r0, sp, #8
   23f40:	f002 ffea 	bl	26f18 <_ZN9allow_pin12full_dynamic17unshare_if_shared17hc627a04126f70c57E>
   23f44:	b01f      	add	sp, #124	@ 0x7c
   23f46:	bdf0      	pop	{r4, r5, r6, r7, pc}
   23f48:	a802      	add	r0, sp, #8
   23f4a:	f002 ffe5 	bl	26f18 <_ZN9allow_pin12full_dynamic17unshare_if_shared17hc627a04126f70c57E>
   23f4e:	ac16      	add	r4, sp, #88	@ 0x58
   23f50:	4620      	mov	r0, r4
   23f52:	f002 ffe1 	bl	26f18 <_ZN9allow_pin12full_dynamic17unshare_if_shared17hc627a04126f70c57E>
   23f56:	4620      	mov	r0, r4
   23f58:	f002 ffde 	bl	26f18 <_ZN9allow_pin12full_dynamic17unshare_if_shared17hc627a04126f70c57E>
   23f5c:	9c01      	ldr	r4, [sp, #4]
   23f5e:	1c60      	adds	r0, r4, #1
   23f60:	2218      	movs	r2, #24
   23f62:	4629      	mov	r1, r5
   23f64:	f003 f999 	bl	2729a <__aeabi_memcpy>
   23f68:	9e00      	ldr	r6, [sp, #0]
   23f6a:	e7e4      	b.n	23f36 <_ZN20complex_full_dynamic3app17hf308afbc5ced72caE+0x7a>
   23f6c:	00002156 	.word	0x00002156

00023f70 <_ZN20complex_full_dynamic3app17hf4455b0208d2dc56E>:
   23f70:	b5f0      	push	{r4, r5, r6, r7, lr}
   23f72:	af03      	add	r7, sp, #12
   23f74:	b0a7      	sub	sp, #156	@ 0x9c
   23f76:	9003      	str	r0, [sp, #12]
   23f78:	ae04      	add	r6, sp, #16
   23f7a:	2002      	movs	r0, #2
   23f7c:	9002      	str	r0, [sp, #8]
   23f7e:	7230      	strb	r0, [r6, #8]
   23f80:	360c      	adds	r6, #12
   23f82:	2248      	movs	r2, #72	@ 0x48
   23f84:	9201      	str	r2, [sp, #4]
   23f86:	4630      	mov	r0, r6
   23f88:	f003 f987 	bl	2729a <__aeabi_memcpy>
   23f8c:	ad19      	add	r5, sp, #100	@ 0x64
   23f8e:	462c      	mov	r4, r5
   23f90:	340c      	adds	r4, #12
   23f92:	2129      	movs	r1, #41	@ 0x29
   23f94:	4620      	mov	r0, r4
   23f96:	f002 ffd3 	bl	26f40 <__aeabi_memclr4>
   23f9a:	9802      	ldr	r0, [sp, #8]
   23f9c:	7228      	strb	r0, [r5, #8]
   23f9e:	481f      	ldr	r0, [pc, #124]	@ (2401c <_ZN20complex_full_dynamic3app17hf4455b0208d2dc56E+0xac>)
   23fa0:	2503      	movs	r5, #3
   23fa2:	4629      	mov	r1, r5
   23fa4:	4632      	mov	r2, r6
   23fa6:	9b01      	ldr	r3, [sp, #4]
   23fa8:	df04      	svc	4
   23faa:	2802      	cmp	r0, #2
   23fac:	d018      	beq.n	23fe0 <_ZN20complex_full_dynamic3app17hf4455b0208d2dc56E+0x70>
   23fae:	a804      	add	r0, sp, #16
   23fb0:	2604      	movs	r6, #4
   23fb2:	7206      	strb	r6, [r0, #8]
   23fb4:	9505      	str	r5, [sp, #20]
   23fb6:	4819      	ldr	r0, [pc, #100]	@ (2401c <_ZN20complex_full_dynamic3app17hf4455b0208d2dc56E+0xac>)
   23fb8:	9004      	str	r0, [sp, #16]
   23fba:	2329      	movs	r3, #41	@ 0x29
   23fbc:	4631      	mov	r1, r6
   23fbe:	4622      	mov	r2, r4
   23fc0:	df03      	svc	3
   23fc2:	2802      	cmp	r0, #2
   23fc4:	d00c      	beq.n	23fe0 <_ZN20complex_full_dynamic3app17hf4455b0208d2dc56E+0x70>
   23fc6:	a819      	add	r0, sp, #100	@ 0x64
   23fc8:	7205      	strb	r5, [r0, #8]
   23fca:	4814      	ldr	r0, [pc, #80]	@ (2401c <_ZN20complex_full_dynamic3app17hf4455b0208d2dc56E+0xac>)
   23fcc:	9019      	str	r0, [sp, #100]	@ 0x64
   23fce:	961a      	str	r6, [sp, #104]	@ 0x68
   23fd0:	2200      	movs	r2, #0
   23fd2:	4629      	mov	r1, r5
   23fd4:	4615      	mov	r5, r2
   23fd6:	4632      	mov	r2, r6
   23fd8:	462b      	mov	r3, r5
   23fda:	df02      	svc	2
   23fdc:	287f      	cmp	r0, #127	@ 0x7f
   23fde:	d80b      	bhi.n	23ff8 <_ZN20complex_full_dynamic3app17hf4455b0208d2dc56E+0x88>
   23fe0:	9c03      	ldr	r4, [sp, #12]
   23fe2:	6061      	str	r1, [r4, #4]
   23fe4:	2501      	movs	r5, #1
   23fe6:	7025      	strb	r5, [r4, #0]
   23fe8:	a819      	add	r0, sp, #100	@ 0x64
   23fea:	f002 ff95 	bl	26f18 <_ZN9allow_pin12full_dynamic17unshare_if_shared17hc627a04126f70c57E>
   23fee:	a804      	add	r0, sp, #16
   23ff0:	f002 ff92 	bl	26f18 <_ZN9allow_pin12full_dynamic17unshare_if_shared17hc627a04126f70c57E>
   23ff4:	b027      	add	sp, #156	@ 0x9c
   23ff6:	bdf0      	pop	{r4, r5, r6, r7, pc}
   23ff8:	a804      	add	r0, sp, #16
   23ffa:	f002 ff8d 	bl	26f18 <_ZN9allow_pin12full_dynamic17unshare_if_shared17hc627a04126f70c57E>
   23ffe:	4626      	mov	r6, r4
   24000:	ac19      	add	r4, sp, #100	@ 0x64
   24002:	4620      	mov	r0, r4
   24004:	f002 ff88 	bl	26f18 <_ZN9allow_pin12full_dynamic17unshare_if_shared17hc627a04126f70c57E>
   24008:	4620      	mov	r0, r4
   2400a:	f002 ff85 	bl	26f18 <_ZN9allow_pin12full_dynamic17unshare_if_shared17hc627a04126f70c57E>
   2400e:	9c03      	ldr	r4, [sp, #12]
   24010:	1c60      	adds	r0, r4, #1
   24012:	2229      	movs	r2, #41	@ 0x29
   24014:	4631      	mov	r1, r6
   24016:	f003 f940 	bl	2729a <__aeabi_memcpy>
   2401a:	e7e4      	b.n	23fe6 <_ZN20complex_full_dynamic3app17hf4455b0208d2dc56E+0x76>
   2401c:	000026a4 	.word	0x000026a4

00024020 <_ZN20complex_full_dynamic3app17hfbc5d1b5cd4f91dbE>:
   24020:	b5f0      	push	{r4, r5, r6, r7, lr}
   24022:	af03      	add	r7, sp, #12
   24024:	b0a3      	sub	sp, #140	@ 0x8c
   24026:	9002      	str	r0, [sp, #8]
   24028:	ae03      	add	r6, sp, #12
   2402a:	2002      	movs	r0, #2
   2402c:	9001      	str	r0, [sp, #4]
   2402e:	7230      	strb	r0, [r6, #8]
   24030:	360c      	adds	r6, #12
   24032:	2532      	movs	r5, #50	@ 0x32
   24034:	4630      	mov	r0, r6
   24036:	462a      	mov	r2, r5
   24038:	f003 f92f 	bl	2729a <__aeabi_memcpy>
   2403c:	ac13      	add	r4, sp, #76	@ 0x4c
   2403e:	4620      	mov	r0, r4
   24040:	300c      	adds	r0, #12
   24042:	9000      	str	r0, [sp, #0]
   24044:	4629      	mov	r1, r5
   24046:	f002 ff7b 	bl	26f40 <__aeabi_memclr4>
   2404a:	9801      	ldr	r0, [sp, #4]
   2404c:	7220      	strb	r0, [r4, #8]
   2404e:	4820      	ldr	r0, [pc, #128]	@ (240d0 <_ZN20complex_full_dynamic3app17hfbc5d1b5cd4f91dbE+0xb0>)
   24050:	2403      	movs	r4, #3
   24052:	4621      	mov	r1, r4
   24054:	4632      	mov	r2, r6
   24056:	462b      	mov	r3, r5
   24058:	df04      	svc	4
   2405a:	2802      	cmp	r0, #2
   2405c:	d01a      	beq.n	24094 <_ZN20complex_full_dynamic3app17hfbc5d1b5cd4f91dbE+0x74>
   2405e:	a803      	add	r0, sp, #12
   24060:	2104      	movs	r1, #4
   24062:	7201      	strb	r1, [r0, #8]
   24064:	9404      	str	r4, [sp, #16]
   24066:	4e1a      	ldr	r6, [pc, #104]	@ (240d0 <_ZN20complex_full_dynamic3app17hfbc5d1b5cd4f91dbE+0xb0>)
   24068:	9603      	str	r6, [sp, #12]
   2406a:	2101      	movs	r1, #1
   2406c:	2332      	movs	r3, #50	@ 0x32
   2406e:	4630      	mov	r0, r6
   24070:	9101      	str	r1, [sp, #4]
   24072:	9d00      	ldr	r5, [sp, #0]
   24074:	462a      	mov	r2, r5
   24076:	df03      	svc	3
   24078:	2802      	cmp	r0, #2
   2407a:	d00b      	beq.n	24094 <_ZN20complex_full_dynamic3app17hfbc5d1b5cd4f91dbE+0x74>
   2407c:	a813      	add	r0, sp, #76	@ 0x4c
   2407e:	7204      	strb	r4, [r0, #8]
   24080:	9613      	str	r6, [sp, #76]	@ 0x4c
   24082:	9a01      	ldr	r2, [sp, #4]
   24084:	9214      	str	r2, [sp, #80]	@ 0x50
   24086:	4812      	ldr	r0, [pc, #72]	@ (240d0 <_ZN20complex_full_dynamic3app17hfbc5d1b5cd4f91dbE+0xb0>)
   24088:	2600      	movs	r6, #0
   2408a:	4621      	mov	r1, r4
   2408c:	4633      	mov	r3, r6
   2408e:	df02      	svc	2
   24090:	287f      	cmp	r0, #127	@ 0x7f
   24092:	d80b      	bhi.n	240ac <_ZN20complex_full_dynamic3app17hfbc5d1b5cd4f91dbE+0x8c>
   24094:	9c02      	ldr	r4, [sp, #8]
   24096:	6061      	str	r1, [r4, #4]
   24098:	2601      	movs	r6, #1
   2409a:	7026      	strb	r6, [r4, #0]
   2409c:	a813      	add	r0, sp, #76	@ 0x4c
   2409e:	f002 ff3b 	bl	26f18 <_ZN9allow_pin12full_dynamic17unshare_if_shared17hc627a04126f70c57E>
   240a2:	a803      	add	r0, sp, #12
   240a4:	f002 ff38 	bl	26f18 <_ZN9allow_pin12full_dynamic17unshare_if_shared17hc627a04126f70c57E>
   240a8:	b023      	add	sp, #140	@ 0x8c
   240aa:	bdf0      	pop	{r4, r5, r6, r7, pc}
   240ac:	a803      	add	r0, sp, #12
   240ae:	f002 ff33 	bl	26f18 <_ZN9allow_pin12full_dynamic17unshare_if_shared17hc627a04126f70c57E>
   240b2:	ac13      	add	r4, sp, #76	@ 0x4c
   240b4:	4620      	mov	r0, r4
   240b6:	f002 ff2f 	bl	26f18 <_ZN9allow_pin12full_dynamic17unshare_if_shared17hc627a04126f70c57E>
   240ba:	4620      	mov	r0, r4
   240bc:	f002 ff2c 	bl	26f18 <_ZN9allow_pin12full_dynamic17unshare_if_shared17hc627a04126f70c57E>
   240c0:	9c02      	ldr	r4, [sp, #8]
   240c2:	1c60      	adds	r0, r4, #1
   240c4:	2232      	movs	r2, #50	@ 0x32
   240c6:	4629      	mov	r1, r5
   240c8:	f003 f8e7 	bl	2729a <__aeabi_memcpy>
   240cc:	e7e5      	b.n	2409a <_ZN20complex_full_dynamic3app17hfbc5d1b5cd4f91dbE+0x7a>
   240ce:	46c0      	nop			@ (mov r8, r8)
   240d0:	00001f07 	.word	0x00001f07

000240d4 <_ZN20complex_full_dynamic3app17hfcf36271d8a7114bE>:
   240d4:	b5f0      	push	{r4, r5, r6, r7, lr}
   240d6:	af03      	add	r7, sp, #12
   240d8:	b09f      	sub	sp, #124	@ 0x7c
   240da:	9003      	str	r0, [sp, #12]
   240dc:	ac04      	add	r4, sp, #16
   240de:	2002      	movs	r0, #2
   240e0:	9002      	str	r0, [sp, #8]
   240e2:	7220      	strb	r0, [r4, #8]
   240e4:	340c      	adds	r4, #12
   240e6:	2224      	movs	r2, #36	@ 0x24
   240e8:	9201      	str	r2, [sp, #4]
   240ea:	4620      	mov	r0, r4
   240ec:	f003 f8d5 	bl	2729a <__aeabi_memcpy>
   240f0:	ae10      	add	r6, sp, #64	@ 0x40
   240f2:	4635      	mov	r5, r6
   240f4:	350c      	adds	r5, #12
   240f6:	212f      	movs	r1, #47	@ 0x2f
   240f8:	4628      	mov	r0, r5
   240fa:	f002 ff21 	bl	26f40 <__aeabi_memclr4>
   240fe:	9802      	ldr	r0, [sp, #8]
   24100:	7230      	strb	r0, [r6, #8]
   24102:	4820      	ldr	r0, [pc, #128]	@ (24184 <_ZN20complex_full_dynamic3app17hfcf36271d8a7114bE+0xb0>)
   24104:	2606      	movs	r6, #6
   24106:	4631      	mov	r1, r6
   24108:	4622      	mov	r2, r4
   2410a:	9b01      	ldr	r3, [sp, #4]
   2410c:	df04      	svc	4
   2410e:	2802      	cmp	r0, #2
   24110:	d01a      	beq.n	24148 <_ZN20complex_full_dynamic3app17hfcf36271d8a7114bE+0x74>
   24112:	a804      	add	r0, sp, #16
   24114:	2104      	movs	r1, #4
   24116:	7201      	strb	r1, [r0, #8]
   24118:	9605      	str	r6, [sp, #20]
   2411a:	4e1a      	ldr	r6, [pc, #104]	@ (24184 <_ZN20complex_full_dynamic3app17hfcf36271d8a7114bE+0xb0>)
   2411c:	9604      	str	r6, [sp, #16]
   2411e:	2409      	movs	r4, #9
   24120:	232f      	movs	r3, #47	@ 0x2f
   24122:	4630      	mov	r0, r6
   24124:	4621      	mov	r1, r4
   24126:	462a      	mov	r2, r5
   24128:	df03      	svc	3
   2412a:	2802      	cmp	r0, #2
   2412c:	d00c      	beq.n	24148 <_ZN20complex_full_dynamic3app17hfcf36271d8a7114bE+0x74>
   2412e:	a810      	add	r0, sp, #64	@ 0x40
   24130:	2103      	movs	r1, #3
   24132:	7201      	strb	r1, [r0, #8]
   24134:	9610      	str	r6, [sp, #64]	@ 0x40
   24136:	9411      	str	r4, [sp, #68]	@ 0x44
   24138:	4812      	ldr	r0, [pc, #72]	@ (24184 <_ZN20complex_full_dynamic3app17hfcf36271d8a7114bE+0xb0>)
   2413a:	2106      	movs	r1, #6
   2413c:	2600      	movs	r6, #0
   2413e:	4622      	mov	r2, r4
   24140:	4633      	mov	r3, r6
   24142:	df02      	svc	2
   24144:	287f      	cmp	r0, #127	@ 0x7f
   24146:	d80b      	bhi.n	24160 <_ZN20complex_full_dynamic3app17hfcf36271d8a7114bE+0x8c>
   24148:	9c03      	ldr	r4, [sp, #12]
   2414a:	6061      	str	r1, [r4, #4]
   2414c:	2601      	movs	r6, #1
   2414e:	7026      	strb	r6, [r4, #0]
   24150:	a810      	add	r0, sp, #64	@ 0x40
   24152:	f002 fee1 	bl	26f18 <_ZN9allow_pin12full_dynamic17unshare_if_shared17hc627a04126f70c57E>
   24156:	a804      	add	r0, sp, #16
   24158:	f002 fede 	bl	26f18 <_ZN9allow_pin12full_dynamic17unshare_if_shared17hc627a04126f70c57E>
   2415c:	b01f      	add	sp, #124	@ 0x7c
   2415e:	bdf0      	pop	{r4, r5, r6, r7, pc}
   24160:	a804      	add	r0, sp, #16
   24162:	f002 fed9 	bl	26f18 <_ZN9allow_pin12full_dynamic17unshare_if_shared17hc627a04126f70c57E>
   24166:	ac10      	add	r4, sp, #64	@ 0x40
   24168:	4620      	mov	r0, r4
   2416a:	f002 fed5 	bl	26f18 <_ZN9allow_pin12full_dynamic17unshare_if_shared17hc627a04126f70c57E>
   2416e:	4620      	mov	r0, r4
   24170:	f002 fed2 	bl	26f18 <_ZN9allow_pin12full_dynamic17unshare_if_shared17hc627a04126f70c57E>
   24174:	9c03      	ldr	r4, [sp, #12]
   24176:	1c60      	adds	r0, r4, #1
   24178:	222f      	movs	r2, #47	@ 0x2f
   2417a:	4629      	mov	r1, r5
   2417c:	f003 f88d 	bl	2729a <__aeabi_memcpy>
   24180:	e7e5      	b.n	2414e <_ZN20complex_full_dynamic3app17hfcf36271d8a7114bE+0x7a>
   24182:	46c0      	nop			@ (mov r8, r8)
   24184:	00001273 	.word	0x00001273

00024188 <_ZN20complex_full_dynamic3app17hfffbfef1b680c326E>:
   24188:	b5f0      	push	{r4, r5, r6, r7, lr}
   2418a:	af03      	add	r7, sp, #12
   2418c:	b09f      	sub	sp, #124	@ 0x7c
   2418e:	9003      	str	r0, [sp, #12]
   24190:	ae04      	add	r6, sp, #16
   24192:	2002      	movs	r0, #2
   24194:	9002      	str	r0, [sp, #8]
   24196:	7230      	strb	r0, [r6, #8]
   24198:	360c      	adds	r6, #12
   2419a:	222c      	movs	r2, #44	@ 0x2c
   2419c:	9201      	str	r2, [sp, #4]
   2419e:	4630      	mov	r0, r6
   241a0:	f003 f87b 	bl	2729a <__aeabi_memcpy>
   241a4:	ad12      	add	r5, sp, #72	@ 0x48
   241a6:	462c      	mov	r4, r5
   241a8:	340c      	adds	r4, #12
   241aa:	2125      	movs	r1, #37	@ 0x25
   241ac:	4620      	mov	r0, r4
   241ae:	f002 fec7 	bl	26f40 <__aeabi_memclr4>
   241b2:	9802      	ldr	r0, [sp, #8]
   241b4:	7228      	strb	r0, [r5, #8]
   241b6:	481f      	ldr	r0, [pc, #124]	@ (24234 <_ZN20complex_full_dynamic3app17hfffbfef1b680c326E+0xac>)
   241b8:	2503      	movs	r5, #3
   241ba:	4629      	mov	r1, r5
   241bc:	4632      	mov	r2, r6
   241be:	9b01      	ldr	r3, [sp, #4]
   241c0:	df04      	svc	4
   241c2:	2802      	cmp	r0, #2
   241c4:	d017      	beq.n	241f6 <_ZN20complex_full_dynamic3app17hfffbfef1b680c326E+0x6e>
   241c6:	a804      	add	r0, sp, #16
   241c8:	2104      	movs	r1, #4
   241ca:	7201      	strb	r1, [r0, #8]
   241cc:	9505      	str	r5, [sp, #20]
   241ce:	4819      	ldr	r0, [pc, #100]	@ (24234 <_ZN20complex_full_dynamic3app17hfffbfef1b680c326E+0xac>)
   241d0:	9004      	str	r0, [sp, #16]
   241d2:	2600      	movs	r6, #0
   241d4:	2325      	movs	r3, #37	@ 0x25
   241d6:	4631      	mov	r1, r6
   241d8:	4622      	mov	r2, r4
   241da:	df03      	svc	3
   241dc:	2802      	cmp	r0, #2
   241de:	d00a      	beq.n	241f6 <_ZN20complex_full_dynamic3app17hfffbfef1b680c326E+0x6e>
   241e0:	a812      	add	r0, sp, #72	@ 0x48
   241e2:	7205      	strb	r5, [r0, #8]
   241e4:	4813      	ldr	r0, [pc, #76]	@ (24234 <_ZN20complex_full_dynamic3app17hfffbfef1b680c326E+0xac>)
   241e6:	9012      	str	r0, [sp, #72]	@ 0x48
   241e8:	9613      	str	r6, [sp, #76]	@ 0x4c
   241ea:	4629      	mov	r1, r5
   241ec:	4632      	mov	r2, r6
   241ee:	4633      	mov	r3, r6
   241f0:	df02      	svc	2
   241f2:	287f      	cmp	r0, #127	@ 0x7f
   241f4:	d80b      	bhi.n	2420e <_ZN20complex_full_dynamic3app17hfffbfef1b680c326E+0x86>
   241f6:	9c03      	ldr	r4, [sp, #12]
   241f8:	6061      	str	r1, [r4, #4]
   241fa:	2601      	movs	r6, #1
   241fc:	7026      	strb	r6, [r4, #0]
   241fe:	a812      	add	r0, sp, #72	@ 0x48
   24200:	f002 fe8a 	bl	26f18 <_ZN9allow_pin12full_dynamic17unshare_if_shared17hc627a04126f70c57E>
   24204:	a804      	add	r0, sp, #16
   24206:	f002 fe87 	bl	26f18 <_ZN9allow_pin12full_dynamic17unshare_if_shared17hc627a04126f70c57E>
   2420a:	b01f      	add	sp, #124	@ 0x7c
   2420c:	bdf0      	pop	{r4, r5, r6, r7, pc}
   2420e:	a804      	add	r0, sp, #16
   24210:	f002 fe82 	bl	26f18 <_ZN9allow_pin12full_dynamic17unshare_if_shared17hc627a04126f70c57E>
   24214:	4625      	mov	r5, r4
   24216:	ac12      	add	r4, sp, #72	@ 0x48
   24218:	4620      	mov	r0, r4
   2421a:	f002 fe7d 	bl	26f18 <_ZN9allow_pin12full_dynamic17unshare_if_shared17hc627a04126f70c57E>
   2421e:	4620      	mov	r0, r4
   24220:	f002 fe7a 	bl	26f18 <_ZN9allow_pin12full_dynamic17unshare_if_shared17hc627a04126f70c57E>
   24224:	9c03      	ldr	r4, [sp, #12]
   24226:	1c60      	adds	r0, r4, #1
   24228:	2225      	movs	r2, #37	@ 0x25
   2422a:	4629      	mov	r1, r5
   2422c:	f003 f835 	bl	2729a <__aeabi_memcpy>
   24230:	e7e4      	b.n	241fc <_ZN20complex_full_dynamic3app17hfffbfef1b680c326E+0x74>
   24232:	46c0      	nop			@ (mov r8, r8)
   24234:	0000077f 	.word	0x0000077f

00024238 <_start>:
   24238:	b5f0      	push	{r4, r5, r6, r7, lr}
   2423a:	af03      	add	r7, sp, #12
   2423c:	4e27      	ldr	r6, [pc, #156]	@ (242dc <_start+0xa4>)
   2423e:	44b5      	add	sp, r6
   24240:	4827      	ldr	r0, [pc, #156]	@ (242e0 <_start+0xa8>)
   24242:	4468      	add	r0, sp
   24244:	9008      	str	r0, [sp, #32]
   24246:	ae1f      	add	r6, sp, #124	@ 0x7c
   24248:	4635      	mov	r5, r6
   2424a:	350c      	adds	r5, #12
   2424c:	2128      	movs	r1, #40	@ 0x28
   2424e:	910b      	str	r1, [sp, #44]	@ 0x2c
   24250:	4628      	mov	r0, r5
   24252:	f002 fe75 	bl	26f40 <__aeabi_memclr4>
   24256:	2402      	movs	r4, #2
   24258:	7234      	strb	r4, [r6, #8]
   2425a:	4e22      	ldr	r6, [pc, #136]	@ (242e4 <_start+0xac>)
   2425c:	446e      	add	r6, sp
   2425e:	4630      	mov	r0, r6
   24260:	300c      	adds	r0, #12
   24262:	2151      	movs	r1, #81	@ 0x51
   24264:	9007      	str	r0, [sp, #28]
   24266:	f002 fe6b 	bl	26f40 <__aeabi_memclr4>
   2426a:	940a      	str	r4, [sp, #40]	@ 0x28
   2426c:	7234      	strb	r4, [r6, #8]
   2426e:	4c1e      	ldr	r4, [pc, #120]	@ (242e8 <_start+0xb0>)
   24270:	2609      	movs	r6, #9
   24272:	4620      	mov	r0, r4
   24274:	4631      	mov	r1, r6
   24276:	462a      	mov	r2, r5
   24278:	9b0b      	ldr	r3, [sp, #44]	@ 0x2c
   2427a:	df04      	svc	4
   2427c:	460a      	mov	r2, r1
   2427e:	a94b      	add	r1, sp, #300	@ 0x12c
   24280:	9106      	str	r1, [sp, #24]
   24282:	491a      	ldr	r1, [pc, #104]	@ (242ec <_start+0xb4>)
   24284:	4469      	add	r1, sp
   24286:	9104      	str	r1, [sp, #16]
   24288:	4919      	ldr	r1, [pc, #100]	@ (242f0 <_start+0xb8>)
   2428a:	4469      	add	r1, sp
   2428c:	9105      	str	r1, [sp, #20]
   2428e:	2501      	movs	r5, #1
   24290:	2802      	cmp	r0, #2
   24292:	9509      	str	r5, [sp, #36]	@ 0x24
   24294:	d101      	bne.n	2429a <_start+0x62>
   24296:	920b      	str	r2, [sp, #44]	@ 0x2c
   24298:	e05a      	b.n	24350 <_start+0x118>
   2429a:	a81f      	add	r0, sp, #124	@ 0x7c
   2429c:	2104      	movs	r1, #4
   2429e:	7201      	strb	r1, [r0, #8]
   242a0:	941f      	str	r4, [sp, #124]	@ 0x7c
   242a2:	9620      	str	r6, [sp, #128]	@ 0x80
   242a4:	2351      	movs	r3, #81	@ 0x51
   242a6:	4620      	mov	r0, r4
   242a8:	4631      	mov	r1, r6
   242aa:	9a07      	ldr	r2, [sp, #28]
   242ac:	df03      	svc	3
   242ae:	2802      	cmp	r0, #2
   242b0:	d101      	bne.n	242b6 <_start+0x7e>
   242b2:	910b      	str	r1, [sp, #44]	@ 0x2c
   242b4:	e04c      	b.n	24350 <_start+0x118>
   242b6:	480b      	ldr	r0, [pc, #44]	@ (242e4 <_start+0xac>)
   242b8:	4468      	add	r0, sp
   242ba:	2103      	movs	r1, #3
   242bc:	7201      	strb	r1, [r0, #8]
   242be:	9808      	ldr	r0, [sp, #32]
   242c0:	65c4      	str	r4, [r0, #92]	@ 0x5c
   242c2:	6606      	str	r6, [r0, #96]	@ 0x60
   242c4:	4808      	ldr	r0, [pc, #32]	@ (242e8 <_start+0xb0>)
   242c6:	2500      	movs	r5, #0
   242c8:	4631      	mov	r1, r6
   242ca:	4632      	mov	r2, r6
   242cc:	462b      	mov	r3, r5
   242ce:	df02      	svc	2
   242d0:	287f      	cmp	r0, #127	@ 0x7f
   242d2:	d80f      	bhi.n	242f4 <_start+0xbc>
   242d4:	910b      	str	r1, [sp, #44]	@ 0x2c
   242d6:	9d09      	ldr	r5, [sp, #36]	@ 0x24
   242d8:	e03a      	b.n	24350 <_start+0x118>
   242da:	46c0      	nop			@ (mov r8, r8)
   242dc:	ffffeadc 	.word	0xffffeadc
   242e0:	000013a8 	.word	0x000013a8
   242e4:	00001404 	.word	0x00001404
   242e8:	00002006 	.word	0x00002006
   242ec:	00000508 	.word	0x00000508
   242f0:	000007dc 	.word	0x000007dc
   242f4:	a81f      	add	r0, sp, #124	@ 0x7c
   242f6:	f002 fe0f 	bl	26f18 <_ZN9allow_pin12full_dynamic17unshare_if_shared17hc627a04126f70c57E>
   242fa:	4e14      	ldr	r6, [pc, #80]	@ (2434c <_start+0x114>)
   242fc:	446e      	add	r6, sp
   242fe:	4630      	mov	r0, r6
   24300:	f002 fe0a 	bl	26f18 <_ZN9allow_pin12full_dynamic17unshare_if_shared17hc627a04126f70c57E>
   24304:	4630      	mov	r0, r6
   24306:	f002 fe07 	bl	26f18 <_ZN9allow_pin12full_dynamic17unshare_if_shared17hc627a04126f70c57E>
   2430a:	9a07      	ldr	r2, [sp, #28]
   2430c:	7890      	ldrb	r0, [r2, #2]
   2430e:	a92f      	add	r1, sp, #188	@ 0xbc
   24310:	7088      	strb	r0, [r1, #2]
   24312:	7810      	ldrb	r0, [r2, #0]
   24314:	7852      	ldrb	r2, [r2, #1]
   24316:	0212      	lsls	r2, r2, #8
   24318:	1810      	adds	r0, r2, r0
   2431a:	8008      	strh	r0, [r1, #0]
   2431c:	7cb0      	ldrb	r0, [r6, #18]
   2431e:	900b      	str	r0, [sp, #44]	@ 0x2c
   24320:	7c70      	ldrb	r0, [r6, #17]
   24322:	9007      	str	r0, [sp, #28]
   24324:	7bf0      	ldrb	r0, [r6, #15]
   24326:	9003      	str	r0, [sp, #12]
   24328:	7c34      	ldrb	r4, [r6, #16]
   2432a:	3613      	adds	r6, #19
   2432c:	a80c      	add	r0, sp, #48	@ 0x30
   2432e:	224a      	movs	r2, #74	@ 0x4a
   24330:	4631      	mov	r1, r6
   24332:	f002 ffb2 	bl	2729a <__aeabi_memcpy>
   24336:	0220      	lsls	r0, r4, #8
   24338:	9903      	ldr	r1, [sp, #12]
   2433a:	1840      	adds	r0, r0, r1
   2433c:	9907      	ldr	r1, [sp, #28]
   2433e:	0409      	lsls	r1, r1, #16
   24340:	9a0b      	ldr	r2, [sp, #44]	@ 0x2c
   24342:	0612      	lsls	r2, r2, #24
   24344:	1851      	adds	r1, r2, r1
   24346:	1808      	adds	r0, r1, r0
   24348:	900b      	str	r0, [sp, #44]	@ 0x2c
   2434a:	e001      	b.n	24350 <_start+0x118>
   2434c:	00001404 	.word	0x00001404
   24350:	4804      	ldr	r0, [pc, #16]	@ (24364 <_start+0x12c>)
   24352:	4468      	add	r0, sp
   24354:	f002 fde0 	bl	26f18 <_ZN9allow_pin12full_dynamic17unshare_if_shared17hc627a04126f70c57E>
   24358:	a81f      	add	r0, sp, #124	@ 0x7c
   2435a:	f002 fddd 	bl	26f18 <_ZN9allow_pin12full_dynamic17unshare_if_shared17hc627a04126f70c57E>
   2435e:	2d00      	cmp	r5, #0
   24360:	d002      	beq.n	24368 <_start+0x130>
   24362:	e241      	b.n	247e8 <_start+0x5b0>
   24364:	00001404 	.word	0x00001404
   24368:	4d18      	ldr	r5, [pc, #96]	@ (243cc <_start+0x194>)
   2436a:	446d      	add	r5, sp
   2436c:	982f      	ldr	r0, [sp, #188]	@ 0xbc
   2436e:	81a8      	strh	r0, [r5, #12]
   24370:	a82f      	add	r0, sp, #188	@ 0xbc
   24372:	7880      	ldrb	r0, [r0, #2]
   24374:	73a8      	strb	r0, [r5, #14]
   24376:	4c16      	ldr	r4, [pc, #88]	@ (243d0 <_start+0x198>)
   24378:	446c      	add	r4, sp
   2437a:	a90c      	add	r1, sp, #48	@ 0x30
   2437c:	264a      	movs	r6, #74	@ 0x4a
   2437e:	4620      	mov	r0, r4
   24380:	4632      	mov	r2, r6
   24382:	f002 fe2a 	bl	26fda <__aeabi_memcpy4>
   24386:	4628      	mov	r0, r5
   24388:	3013      	adds	r0, #19
   2438a:	4621      	mov	r1, r4
   2438c:	4632      	mov	r2, r6
   2438e:	f002 ff84 	bl	2729a <__aeabi_memcpy>
   24392:	990b      	ldr	r1, [sp, #44]	@ 0x2c
   24394:	0e08      	lsrs	r0, r1, #24
   24396:	74a8      	strb	r0, [r5, #18]
   24398:	0c08      	lsrs	r0, r1, #16
   2439a:	7468      	strb	r0, [r5, #17]
   2439c:	0a08      	lsrs	r0, r1, #8
   2439e:	7428      	strb	r0, [r5, #16]
   243a0:	73e9      	strb	r1, [r5, #15]
   243a2:	9c0a      	ldr	r4, [sp, #40]	@ 0x28
   243a4:	722c      	strb	r4, [r5, #8]
   243a6:	4e0a      	ldr	r6, [pc, #40]	@ (243d0 <_start+0x198>)
   243a8:	446e      	add	r6, sp
   243aa:	4630      	mov	r0, r6
   243ac:	300c      	adds	r0, #12
   243ae:	2146      	movs	r1, #70	@ 0x46
   243b0:	900b      	str	r0, [sp, #44]	@ 0x2c
   243b2:	f002 fdc5 	bl	26f40 <__aeabi_memclr4>
   243b6:	7234      	strb	r4, [r6, #8]
   243b8:	350c      	adds	r5, #12
   243ba:	4806      	ldr	r0, [pc, #24]	@ (243d4 <_start+0x19c>)
   243bc:	2607      	movs	r6, #7
   243be:	2351      	movs	r3, #81	@ 0x51
   243c0:	4631      	mov	r1, r6
   243c2:	462a      	mov	r2, r5
   243c4:	df04      	svc	4
   243c6:	2802      	cmp	r0, #2
   243c8:	d030      	beq.n	2442c <_start+0x1f4>
   243ca:	e005      	b.n	243d8 <_start+0x1a0>
   243cc:	00001404 	.word	0x00001404
   243d0:	000013a8 	.word	0x000013a8
   243d4:	000020c4 	.word	0x000020c4
   243d8:	4808      	ldr	r0, [pc, #32]	@ (243fc <_start+0x1c4>)
   243da:	4468      	add	r0, sp
   243dc:	2104      	movs	r1, #4
   243de:	7201      	strb	r1, [r0, #8]
   243e0:	4c07      	ldr	r4, [pc, #28]	@ (24400 <_start+0x1c8>)
   243e2:	34be      	adds	r4, #190	@ 0xbe
   243e4:	9d08      	ldr	r5, [sp, #32]
   243e6:	65ec      	str	r4, [r5, #92]	@ 0x5c
   243e8:	662e      	str	r6, [r5, #96]	@ 0x60
   243ea:	4806      	ldr	r0, [pc, #24]	@ (24404 <_start+0x1cc>)
   243ec:	2600      	movs	r6, #0
   243ee:	2346      	movs	r3, #70	@ 0x46
   243f0:	4631      	mov	r1, r6
   243f2:	9a0b      	ldr	r2, [sp, #44]	@ 0x2c
   243f4:	df03      	svc	3
   243f6:	2802      	cmp	r0, #2
   243f8:	d018      	beq.n	2442c <_start+0x1f4>
   243fa:	e005      	b.n	24408 <_start+0x1d0>
   243fc:	00001404 	.word	0x00001404
   24400:	00002006 	.word	0x00002006
   24404:	000020c4 	.word	0x000020c4
   24408:	4806      	ldr	r0, [pc, #24]	@ (24424 <_start+0x1ec>)
   2440a:	4468      	add	r0, sp
   2440c:	2103      	movs	r1, #3
   2440e:	7201      	strb	r1, [r0, #8]
   24410:	c550      	stmia	r5!, {r4, r6}
   24412:	4805      	ldr	r0, [pc, #20]	@ (24428 <_start+0x1f0>)
   24414:	2107      	movs	r1, #7
   24416:	4632      	mov	r2, r6
   24418:	4633      	mov	r3, r6
   2441a:	df02      	svc	2
   2441c:	287f      	cmp	r0, #127	@ 0x7f
   2441e:	d905      	bls.n	2442c <_start+0x1f4>
   24420:	e1f4      	b.n	2480c <_start+0x5d4>
   24422:	46c0      	nop			@ (mov r8, r8)
   24424:	000013a8 	.word	0x000013a8
   24428:	000020c4 	.word	0x000020c4
   2442c:	910b      	str	r1, [sp, #44]	@ 0x2c
   2442e:	9e09      	ldr	r6, [sp, #36]	@ 0x24
   24430:	48f0      	ldr	r0, [pc, #960]	@ (247f4 <_start+0x5bc>)
   24432:	4468      	add	r0, sp
   24434:	f002 fd70 	bl	26f18 <_ZN9allow_pin12full_dynamic17unshare_if_shared17hc627a04126f70c57E>
   24438:	48ef      	ldr	r0, [pc, #956]	@ (247f8 <_start+0x5c0>)
   2443a:	4468      	add	r0, sp
   2443c:	f002 fd6c 	bl	26f18 <_ZN9allow_pin12full_dynamic17unshare_if_shared17hc627a04126f70c57E>
   24440:	2e00      	cmp	r6, #0
   24442:	d000      	beq.n	24446 <_start+0x20e>
   24444:	e1d0      	b.n	247e8 <_start+0x5b0>
   24446:	49ec      	ldr	r1, [pc, #944]	@ (247f8 <_start+0x5c0>)
   24448:	4469      	add	r1, sp
   2444a:	9107      	str	r1, [sp, #28]
   2444c:	982f      	ldr	r0, [sp, #188]	@ 0xbc
   2444e:	8188      	strh	r0, [r1, #12]
   24450:	a82f      	add	r0, sp, #188	@ 0xbc
   24452:	7880      	ldrb	r0, [r0, #2]
   24454:	7388      	strb	r0, [r1, #14]
   24456:	a81f      	add	r0, sp, #124	@ 0x7c
   24458:	a90c      	add	r1, sp, #48	@ 0x30
   2445a:	460a      	mov	r2, r1
   2445c:	c858      	ldmia	r0!, {r3, r4, r6}
   2445e:	c258      	stmia	r2!, {r3, r4, r6}
   24460:	c878      	ldmia	r0!, {r3, r4, r5, r6}
   24462:	c278      	stmia	r2!, {r3, r4, r5, r6}
   24464:	c878      	ldmia	r0!, {r3, r4, r5, r6}
   24466:	c278      	stmia	r2!, {r3, r4, r5, r6}
   24468:	c878      	ldmia	r0!, {r3, r4, r5, r6}
   2446a:	c278      	stmia	r2!, {r3, r4, r5, r6}
   2446c:	8803      	ldrh	r3, [r0, #0]
   2446e:	8013      	strh	r3, [r2, #0]
   24470:	7880      	ldrb	r0, [r0, #2]
   24472:	7090      	strb	r0, [r2, #2]
   24474:	9c07      	ldr	r4, [sp, #28]
   24476:	4620      	mov	r0, r4
   24478:	3013      	adds	r0, #19
   2447a:	223f      	movs	r2, #63	@ 0x3f
   2447c:	f002 ff0d 	bl	2729a <__aeabi_memcpy>
   24480:	990b      	ldr	r1, [sp, #44]	@ 0x2c
   24482:	0e08      	lsrs	r0, r1, #24
   24484:	4622      	mov	r2, r4
   24486:	74a0      	strb	r0, [r4, #18]
   24488:	0c08      	lsrs	r0, r1, #16
   2448a:	7460      	strb	r0, [r4, #17]
   2448c:	0a08      	lsrs	r0, r1, #8
   2448e:	7420      	strb	r0, [r4, #16]
   24490:	73e1      	strb	r1, [r4, #15]
   24492:	980a      	ldr	r0, [sp, #40]	@ 0x28
   24494:	7220      	strb	r0, [r4, #8]
   24496:	4cd7      	ldr	r4, [pc, #860]	@ (247f4 <_start+0x5bc>)
   24498:	446c      	add	r4, sp
   2449a:	7220      	strb	r0, [r4, #8]
   2449c:	2000      	movs	r0, #0
   2449e:	9d08      	ldr	r5, [sp, #32]
   244a0:	60e8      	str	r0, [r5, #12]
   244a2:	6128      	str	r0, [r5, #16]
   244a4:	6168      	str	r0, [r5, #20]
   244a6:	61a8      	str	r0, [r5, #24]
   244a8:	61e8      	str	r0, [r5, #28]
   244aa:	6228      	str	r0, [r5, #32]
   244ac:	320c      	adds	r2, #12
   244ae:	48d3      	ldr	r0, [pc, #844]	@ (247fc <_start+0x5c4>)
   244b0:	2603      	movs	r6, #3
   244b2:	2346      	movs	r3, #70	@ 0x46
   244b4:	4631      	mov	r1, r6
   244b6:	df04      	svc	4
   244b8:	2802      	cmp	r0, #2
   244ba:	9607      	str	r6, [sp, #28]
   244bc:	d01c      	beq.n	244f8 <_start+0x2c0>
   244be:	340c      	adds	r4, #12
   244c0:	48cd      	ldr	r0, [pc, #820]	@ (247f8 <_start+0x5c0>)
   244c2:	4468      	add	r0, sp
   244c4:	2104      	movs	r1, #4
   244c6:	7201      	strb	r1, [r0, #8]
   244c8:	48cc      	ldr	r0, [pc, #816]	@ (247fc <_start+0x5c4>)
   244ca:	65e8      	str	r0, [r5, #92]	@ 0x5c
   244cc:	662e      	str	r6, [r5, #96]	@ 0x60
   244ce:	2502      	movs	r5, #2
   244d0:	2318      	movs	r3, #24
   244d2:	4629      	mov	r1, r5
   244d4:	4622      	mov	r2, r4
   244d6:	df03      	svc	3
   244d8:	2802      	cmp	r0, #2
   244da:	d00d      	beq.n	244f8 <_start+0x2c0>
   244dc:	48c5      	ldr	r0, [pc, #788]	@ (247f4 <_start+0x5bc>)
   244de:	4468      	add	r0, sp
   244e0:	7206      	strb	r6, [r0, #8]
   244e2:	48c6      	ldr	r0, [pc, #792]	@ (247fc <_start+0x5c4>)
   244e4:	9908      	ldr	r1, [sp, #32]
   244e6:	c121      	stmia	r1!, {r0, r5}
   244e8:	2300      	movs	r3, #0
   244ea:	4631      	mov	r1, r6
   244ec:	462a      	mov	r2, r5
   244ee:	9303      	str	r3, [sp, #12]
   244f0:	df02      	svc	2
   244f2:	287f      	cmp	r0, #127	@ 0x7f
   244f4:	d900      	bls.n	244f8 <_start+0x2c0>
   244f6:	e1b6      	b.n	24866 <_start+0x62e>
   244f8:	910b      	str	r1, [sp, #44]	@ 0x2c
   244fa:	9c09      	ldr	r4, [sp, #36]	@ 0x24
   244fc:	48bd      	ldr	r0, [pc, #756]	@ (247f4 <_start+0x5bc>)
   244fe:	4468      	add	r0, sp
   24500:	f002 fd0a 	bl	26f18 <_ZN9allow_pin12full_dynamic17unshare_if_shared17hc627a04126f70c57E>
   24504:	48bc      	ldr	r0, [pc, #752]	@ (247f8 <_start+0x5c0>)
   24506:	4468      	add	r0, sp
   24508:	f002 fd06 	bl	26f18 <_ZN9allow_pin12full_dynamic17unshare_if_shared17hc627a04126f70c57E>
   2450c:	2c00      	cmp	r4, #0
   2450e:	d000      	beq.n	24512 <_start+0x2da>
   24510:	e16a      	b.n	247e8 <_start+0x5b0>
   24512:	ad1f      	add	r5, sp, #124	@ 0x7c
   24514:	9834      	ldr	r0, [sp, #208]	@ 0xd0
   24516:	81a8      	strh	r0, [r5, #12]
   24518:	a834      	add	r0, sp, #208	@ 0xd0
   2451a:	7880      	ldrb	r0, [r0, #2]
   2451c:	73a8      	strb	r0, [r5, #14]
   2451e:	a92f      	add	r1, sp, #188	@ 0xbc
   24520:	aa0c      	add	r2, sp, #48	@ 0x30
   24522:	9203      	str	r2, [sp, #12]
   24524:	c959      	ldmia	r1!, {r0, r3, r4, r6}
   24526:	c259      	stmia	r2!, {r0, r3, r4, r6}
   24528:	7808      	ldrb	r0, [r1, #0]
   2452a:	7010      	strb	r0, [r2, #0]
   2452c:	4628      	mov	r0, r5
   2452e:	3013      	adds	r0, #19
   24530:	2211      	movs	r2, #17
   24532:	9903      	ldr	r1, [sp, #12]
   24534:	f002 feb1 	bl	2729a <__aeabi_memcpy>
   24538:	990b      	ldr	r1, [sp, #44]	@ 0x2c
   2453a:	0e08      	lsrs	r0, r1, #24
   2453c:	74a8      	strb	r0, [r5, #18]
   2453e:	0c08      	lsrs	r0, r1, #16
   24540:	7468      	strb	r0, [r5, #17]
   24542:	0a08      	lsrs	r0, r1, #8
   24544:	7428      	strb	r0, [r5, #16]
   24546:	73e9      	strb	r1, [r5, #15]
   24548:	980a      	ldr	r0, [sp, #40]	@ 0x28
   2454a:	7228      	strb	r0, [r5, #8]
   2454c:	4eaa      	ldr	r6, [pc, #680]	@ (247f8 <_start+0x5c0>)
   2454e:	446e      	add	r6, sp
   24550:	4634      	mov	r4, r6
   24552:	340c      	adds	r4, #12
   24554:	2136      	movs	r1, #54	@ 0x36
   24556:	4620      	mov	r0, r4
   24558:	f002 fcf2 	bl	26f40 <__aeabi_memclr4>
   2455c:	980a      	ldr	r0, [sp, #40]	@ 0x28
   2455e:	7230      	strb	r0, [r6, #8]
   24560:	350c      	adds	r5, #12
   24562:	48a7      	ldr	r0, [pc, #668]	@ (24800 <_start+0x5c8>)
   24564:	2600      	movs	r6, #0
   24566:	2318      	movs	r3, #24
   24568:	4631      	mov	r1, r6
   2456a:	462a      	mov	r2, r5
   2456c:	df04      	svc	4
   2456e:	2802      	cmp	r0, #2
   24570:	9603      	str	r6, [sp, #12]
   24572:	d01e      	beq.n	245b2 <_start+0x37a>
   24574:	a81f      	add	r0, sp, #124	@ 0x7c
   24576:	2104      	movs	r1, #4
   24578:	7201      	strb	r1, [r0, #8]
   2457a:	9620      	str	r6, [sp, #128]	@ 0x80
   2457c:	4ea0      	ldr	r6, [pc, #640]	@ (24800 <_start+0x5c8>)
   2457e:	961f      	str	r6, [sp, #124]	@ 0x7c
   24580:	2507      	movs	r5, #7
   24582:	2336      	movs	r3, #54	@ 0x36
   24584:	4630      	mov	r0, r6
   24586:	4629      	mov	r1, r5
   24588:	940b      	str	r4, [sp, #44]	@ 0x2c
   2458a:	4622      	mov	r2, r4
   2458c:	df03      	svc	3
   2458e:	2802      	cmp	r0, #2
   24590:	d00f      	beq.n	245b2 <_start+0x37a>
   24592:	4899      	ldr	r0, [pc, #612]	@ (247f8 <_start+0x5c0>)
   24594:	4468      	add	r0, sp
   24596:	9907      	ldr	r1, [sp, #28]
   24598:	7201      	strb	r1, [r0, #8]
   2459a:	9808      	ldr	r0, [sp, #32]
   2459c:	65c6      	str	r6, [r0, #92]	@ 0x5c
   2459e:	6605      	str	r5, [r0, #96]	@ 0x60
   245a0:	4897      	ldr	r0, [pc, #604]	@ (24800 <_start+0x5c8>)
   245a2:	2400      	movs	r4, #0
   245a4:	4621      	mov	r1, r4
   245a6:	462a      	mov	r2, r5
   245a8:	4623      	mov	r3, r4
   245aa:	df02      	svc	2
   245ac:	287f      	cmp	r0, #127	@ 0x7f
   245ae:	d900      	bls.n	245b2 <_start+0x37a>
   245b0:	e184      	b.n	248bc <_start+0x684>
   245b2:	910b      	str	r1, [sp, #44]	@ 0x2c
   245b4:	9c09      	ldr	r4, [sp, #36]	@ 0x24
   245b6:	4890      	ldr	r0, [pc, #576]	@ (247f8 <_start+0x5c0>)
   245b8:	4468      	add	r0, sp
   245ba:	f002 fcad 	bl	26f18 <_ZN9allow_pin12full_dynamic17unshare_if_shared17hc627a04126f70c57E>
   245be:	a81f      	add	r0, sp, #124	@ 0x7c
   245c0:	f002 fcaa 	bl	26f18 <_ZN9allow_pin12full_dynamic17unshare_if_shared17hc627a04126f70c57E>
   245c4:	2c00      	cmp	r4, #0
   245c6:	d000      	beq.n	245ca <_start+0x392>
   245c8:	e10e      	b.n	247e8 <_start+0x5b0>
   245ca:	498b      	ldr	r1, [pc, #556]	@ (247f8 <_start+0x5c0>)
   245cc:	4469      	add	r1, sp
   245ce:	9102      	str	r1, [sp, #8]
   245d0:	982f      	ldr	r0, [sp, #188]	@ 0xbc
   245d2:	8188      	strh	r0, [r1, #12]
   245d4:	a82f      	add	r0, sp, #188	@ 0xbc
   245d6:	7880      	ldrb	r0, [r0, #2]
   245d8:	7388      	strb	r0, [r1, #14]
   245da:	a80c      	add	r0, sp, #48	@ 0x30
   245dc:	4985      	ldr	r1, [pc, #532]	@ (247f4 <_start+0x5bc>)
   245de:	4469      	add	r1, sp
   245e0:	460a      	mov	r2, r1
   245e2:	c858      	ldmia	r0!, {r3, r4, r6}
   245e4:	c258      	stmia	r2!, {r3, r4, r6}
   245e6:	c878      	ldmia	r0!, {r3, r4, r5, r6}
   245e8:	c278      	stmia	r2!, {r3, r4, r5, r6}
   245ea:	c878      	ldmia	r0!, {r3, r4, r5, r6}
   245ec:	c278      	stmia	r2!, {r3, r4, r5, r6}
   245ee:	8803      	ldrh	r3, [r0, #0]
   245f0:	8013      	strh	r3, [r2, #0]
   245f2:	7880      	ldrb	r0, [r0, #2]
   245f4:	7090      	strb	r0, [r2, #2]
   245f6:	9c02      	ldr	r4, [sp, #8]
   245f8:	4620      	mov	r0, r4
   245fa:	3013      	adds	r0, #19
   245fc:	222f      	movs	r2, #47	@ 0x2f
   245fe:	f002 fe4c 	bl	2729a <__aeabi_memcpy>
   24602:	990b      	ldr	r1, [sp, #44]	@ 0x2c
   24604:	0e08      	lsrs	r0, r1, #24
   24606:	74a0      	strb	r0, [r4, #18]
   24608:	0c08      	lsrs	r0, r1, #16
   2460a:	7460      	strb	r0, [r4, #17]
   2460c:	0a08      	lsrs	r0, r1, #8
   2460e:	7420      	strb	r0, [r4, #16]
   24610:	73e1      	strb	r1, [r4, #15]
   24612:	9e0a      	ldr	r6, [sp, #40]	@ 0x28
   24614:	7226      	strb	r6, [r4, #8]
   24616:	4d77      	ldr	r5, [pc, #476]	@ (247f4 <_start+0x5bc>)
   24618:	446d      	add	r5, sp
   2461a:	4628      	mov	r0, r5
   2461c:	300c      	adds	r0, #12
   2461e:	2125      	movs	r1, #37	@ 0x25
   24620:	900b      	str	r0, [sp, #44]	@ 0x2c
   24622:	f002 fc8d 	bl	26f40 <__aeabi_memclr4>
   24626:	722e      	strb	r6, [r5, #8]
   24628:	340c      	adds	r4, #12
   2462a:	4876      	ldr	r0, [pc, #472]	@ (24804 <_start+0x5cc>)
   2462c:	2607      	movs	r6, #7
   2462e:	2336      	movs	r3, #54	@ 0x36
   24630:	4631      	mov	r1, r6
   24632:	4622      	mov	r2, r4
   24634:	df04      	svc	4
   24636:	2802      	cmp	r0, #2
   24638:	d01c      	beq.n	24674 <_start+0x43c>
   2463a:	486f      	ldr	r0, [pc, #444]	@ (247f8 <_start+0x5c0>)
   2463c:	4468      	add	r0, sp
   2463e:	2104      	movs	r1, #4
   24640:	7201      	strb	r1, [r0, #8]
   24642:	9d08      	ldr	r5, [sp, #32]
   24644:	486f      	ldr	r0, [pc, #444]	@ (24804 <_start+0x5cc>)
   24646:	65e8      	str	r0, [r5, #92]	@ 0x5c
   24648:	662e      	str	r6, [r5, #96]	@ 0x60
   2464a:	2600      	movs	r6, #0
   2464c:	2325      	movs	r3, #37	@ 0x25
   2464e:	4631      	mov	r1, r6
   24650:	9c0b      	ldr	r4, [sp, #44]	@ 0x2c
   24652:	4622      	mov	r2, r4
   24654:	df03      	svc	3
   24656:	2802      	cmp	r0, #2
   24658:	d00c      	beq.n	24674 <_start+0x43c>
   2465a:	4866      	ldr	r0, [pc, #408]	@ (247f4 <_start+0x5bc>)
   2465c:	4468      	add	r0, sp
   2465e:	9907      	ldr	r1, [sp, #28]
   24660:	7201      	strb	r1, [r0, #8]
   24662:	4868      	ldr	r0, [pc, #416]	@ (24804 <_start+0x5cc>)
   24664:	c541      	stmia	r5!, {r0, r6}
   24666:	2107      	movs	r1, #7
   24668:	4632      	mov	r2, r6
   2466a:	4633      	mov	r3, r6
   2466c:	df02      	svc	2
   2466e:	287f      	cmp	r0, #127	@ 0x7f
   24670:	d900      	bls.n	24674 <_start+0x43c>
   24672:	e14f      	b.n	24914 <_start+0x6dc>
   24674:	910b      	str	r1, [sp, #44]	@ 0x2c
   24676:	9e09      	ldr	r6, [sp, #36]	@ 0x24
   24678:	485e      	ldr	r0, [pc, #376]	@ (247f4 <_start+0x5bc>)
   2467a:	4468      	add	r0, sp
   2467c:	f002 fc4c 	bl	26f18 <_ZN9allow_pin12full_dynamic17unshare_if_shared17hc627a04126f70c57E>
   24680:	485d      	ldr	r0, [pc, #372]	@ (247f8 <_start+0x5c0>)
   24682:	4468      	add	r0, sp
   24684:	f002 fc48 	bl	26f18 <_ZN9allow_pin12full_dynamic17unshare_if_shared17hc627a04126f70c57E>
   24688:	2e00      	cmp	r6, #0
   2468a:	d000      	beq.n	2468e <_start+0x456>
   2468c:	e0ac      	b.n	247e8 <_start+0x5b0>
   2468e:	495a      	ldr	r1, [pc, #360]	@ (247f8 <_start+0x5c0>)
   24690:	4469      	add	r1, sp
   24692:	9102      	str	r1, [sp, #8]
   24694:	982f      	ldr	r0, [sp, #188]	@ 0xbc
   24696:	8188      	strh	r0, [r1, #12]
   24698:	a82f      	add	r0, sp, #188	@ 0xbc
   2469a:	7880      	ldrb	r0, [r0, #2]
   2469c:	7388      	strb	r0, [r1, #14]
   2469e:	a81f      	add	r0, sp, #124	@ 0x7c
   246a0:	a90c      	add	r1, sp, #48	@ 0x30
   246a2:	460a      	mov	r2, r1
   246a4:	c858      	ldmia	r0!, {r3, r4, r6}
   246a6:	c258      	stmia	r2!, {r3, r4, r6}
   246a8:	c878      	ldmia	r0!, {r3, r4, r5, r6}
   246aa:	c278      	stmia	r2!, {r3, r4, r5, r6}
   246ac:	8800      	ldrh	r0, [r0, #0]
   246ae:	8010      	strh	r0, [r2, #0]
   246b0:	9c02      	ldr	r4, [sp, #8]
   246b2:	4620      	mov	r0, r4
   246b4:	3013      	adds	r0, #19
   246b6:	221e      	movs	r2, #30
   246b8:	f002 fdef 	bl	2729a <__aeabi_memcpy>
   246bc:	990b      	ldr	r1, [sp, #44]	@ 0x2c
   246be:	0e08      	lsrs	r0, r1, #24
   246c0:	4622      	mov	r2, r4
   246c2:	74a0      	strb	r0, [r4, #18]
   246c4:	0c08      	lsrs	r0, r1, #16
   246c6:	7460      	strb	r0, [r4, #17]
   246c8:	0a08      	lsrs	r0, r1, #8
   246ca:	7420      	strb	r0, [r4, #16]
   246cc:	73e1      	strb	r1, [r4, #15]
   246ce:	990a      	ldr	r1, [sp, #40]	@ 0x28
   246d0:	7221      	strb	r1, [r4, #8]
   246d2:	4c48      	ldr	r4, [pc, #288]	@ (247f4 <_start+0x5bc>)
   246d4:	446c      	add	r4, sp
   246d6:	9803      	ldr	r0, [sp, #12]
   246d8:	8320      	strh	r0, [r4, #24]
   246da:	7221      	strb	r1, [r4, #8]
   246dc:	9d08      	ldr	r5, [sp, #32]
   246de:	60e8      	str	r0, [r5, #12]
   246e0:	6128      	str	r0, [r5, #16]
   246e2:	6168      	str	r0, [r5, #20]
   246e4:	320c      	adds	r2, #12
   246e6:	4848      	ldr	r0, [pc, #288]	@ (24808 <_start+0x5d0>)
   246e8:	2325      	movs	r3, #37	@ 0x25
   246ea:	460e      	mov	r6, r1
   246ec:	df04      	svc	4
   246ee:	2802      	cmp	r0, #2
   246f0:	d01e      	beq.n	24730 <_start+0x4f8>
   246f2:	340c      	adds	r4, #12
   246f4:	4840      	ldr	r0, [pc, #256]	@ (247f8 <_start+0x5c0>)
   246f6:	4468      	add	r0, sp
   246f8:	2104      	movs	r1, #4
   246fa:	7201      	strb	r1, [r0, #8]
   246fc:	4842      	ldr	r0, [pc, #264]	@ (24808 <_start+0x5d0>)
   246fe:	65e8      	str	r0, [r5, #92]	@ 0x5c
   24700:	662e      	str	r6, [r5, #96]	@ 0x60
   24702:	2508      	movs	r5, #8
   24704:	230e      	movs	r3, #14
   24706:	4629      	mov	r1, r5
   24708:	4622      	mov	r2, r4
   2470a:	df03      	svc	3
   2470c:	2802      	cmp	r0, #2
   2470e:	d00f      	beq.n	24730 <_start+0x4f8>
   24710:	4838      	ldr	r0, [pc, #224]	@ (247f4 <_start+0x5bc>)
   24712:	4468      	add	r0, sp
   24714:	9907      	ldr	r1, [sp, #28]
   24716:	7201      	strb	r1, [r0, #8]
   24718:	9808      	ldr	r0, [sp, #32]
   2471a:	493b      	ldr	r1, [pc, #236]	@ (24808 <_start+0x5d0>)
   2471c:	c022      	stmia	r0!, {r1, r5}
   2471e:	483a      	ldr	r0, [pc, #232]	@ (24808 <_start+0x5d0>)
   24720:	2102      	movs	r1, #2
   24722:	2300      	movs	r3, #0
   24724:	462a      	mov	r2, r5
   24726:	461d      	mov	r5, r3
   24728:	df02      	svc	2
   2472a:	287f      	cmp	r0, #127	@ 0x7f
   2472c:	d900      	bls.n	24730 <_start+0x4f8>
   2472e:	e11d      	b.n	2496c <_start+0x734>
   24730:	910b      	str	r1, [sp, #44]	@ 0x2c
   24732:	9d09      	ldr	r5, [sp, #36]	@ 0x24
   24734:	482f      	ldr	r0, [pc, #188]	@ (247f4 <_start+0x5bc>)
   24736:	4468      	add	r0, sp
   24738:	f002 fbee 	bl	26f18 <_ZN9allow_pin12full_dynamic17unshare_if_shared17hc627a04126f70c57E>
   2473c:	482e      	ldr	r0, [pc, #184]	@ (247f8 <_start+0x5c0>)
   2473e:	4468      	add	r0, sp
   24740:	f002 fbea 	bl	26f18 <_ZN9allow_pin12full_dynamic17unshare_if_shared17hc627a04126f70c57E>
   24744:	2d00      	cmp	r5, #0
   24746:	d14f      	bne.n	247e8 <_start+0x5b0>
   24748:	ac35      	add	r4, sp, #212	@ 0xd4
   2474a:	982f      	ldr	r0, [sp, #188]	@ 0xbc
   2474c:	8020      	strh	r0, [r4, #0]
   2474e:	a90c      	add	r1, sp, #48	@ 0x30
   24750:	9820      	ldr	r0, [sp, #128]	@ 0x80
   24752:	8088      	strh	r0, [r1, #4]
   24754:	a82f      	add	r0, sp, #188	@ 0xbc
   24756:	7880      	ldrb	r0, [r0, #2]
   24758:	70a0      	strb	r0, [r4, #2]
   2475a:	a81f      	add	r0, sp, #124	@ 0x7c
   2475c:	7980      	ldrb	r0, [r0, #6]
   2475e:	7188      	strb	r0, [r1, #6]
   24760:	9a0b      	ldr	r2, [sp, #44]	@ 0x2c
   24762:	70e2      	strb	r2, [r4, #3]
   24764:	0e10      	lsrs	r0, r2, #24
   24766:	71a0      	strb	r0, [r4, #6]
   24768:	0c10      	lsrs	r0, r2, #16
   2476a:	7160      	strb	r0, [r4, #5]
   2476c:	0a10      	lsrs	r0, r2, #8
   2476e:	7120      	strb	r0, [r4, #4]
   24770:	981f      	ldr	r0, [sp, #124]	@ 0x7c
   24772:	900c      	str	r0, [sp, #48]	@ 0x30
   24774:	1de0      	adds	r0, r4, #7
   24776:	2207      	movs	r2, #7
   24778:	f002 fd8f 	bl	2729a <__aeabi_memcpy>
   2477c:	4d1e      	ldr	r5, [pc, #120]	@ (247f8 <_start+0x5c0>)
   2477e:	446d      	add	r5, sp
   24780:	4628      	mov	r0, r5
   24782:	4621      	mov	r1, r4
   24784:	f7ff fa36 	bl	23bf4 <_ZN20complex_full_dynamic3app17hea7e0f53ed64efd9E>
   24788:	7828      	ldrb	r0, [r5, #0]
   2478a:	2801      	cmp	r0, #1
   2478c:	d029      	beq.n	247e2 <_start+0x5aa>
   2478e:	491a      	ldr	r1, [pc, #104]	@ (247f8 <_start+0x5c0>)
   24790:	4469      	add	r1, sp
   24792:	78c8      	ldrb	r0, [r1, #3]
   24794:	ac39      	add	r4, sp, #228	@ 0xe4
   24796:	70a0      	strb	r0, [r4, #2]
   24798:	7848      	ldrb	r0, [r1, #1]
   2479a:	788a      	ldrb	r2, [r1, #2]
   2479c:	0212      	lsls	r2, r2, #8
   2479e:	1810      	adds	r0, r2, r0
   247a0:	8020      	strh	r0, [r4, #0]
   247a2:	9808      	ldr	r0, [sp, #32]
   247a4:	6e05      	ldr	r5, [r0, #96]	@ 0x60
   247a6:	3108      	adds	r1, #8
   247a8:	4812      	ldr	r0, [pc, #72]	@ (247f4 <_start+0x5bc>)
   247aa:	4468      	add	r0, sp
   247ac:	900b      	str	r0, [sp, #44]	@ 0x2c
   247ae:	2641      	movs	r6, #65	@ 0x41
   247b0:	4632      	mov	r2, r6
   247b2:	f002 fc12 	bl	26fda <__aeabi_memcpy4>
   247b6:	0e28      	lsrs	r0, r5, #24
   247b8:	71a0      	strb	r0, [r4, #6]
   247ba:	0c28      	lsrs	r0, r5, #16
   247bc:	7160      	strb	r0, [r4, #5]
   247be:	0a28      	lsrs	r0, r5, #8
   247c0:	7120      	strb	r0, [r4, #4]
   247c2:	70e5      	strb	r5, [r4, #3]
   247c4:	1de0      	adds	r0, r4, #7
   247c6:	990b      	ldr	r1, [sp, #44]	@ 0x2c
   247c8:	4632      	mov	r2, r6
   247ca:	f002 fd66 	bl	2729a <__aeabi_memcpy>
   247ce:	4d0a      	ldr	r5, [pc, #40]	@ (247f8 <_start+0x5c0>)
   247d0:	446d      	add	r5, sp
   247d2:	4628      	mov	r0, r5
   247d4:	4621      	mov	r1, r4
   247d6:	f7fc fcdd 	bl	21194 <_ZN20complex_full_dynamic3app17h33da904aad648916E>
   247da:	7828      	ldrb	r0, [r5, #0]
   247dc:	2801      	cmp	r0, #1
   247de:	d000      	beq.n	247e2 <_start+0x5aa>
   247e0:	e0f8      	b.n	249d4 <_start+0x79c>
   247e2:	9808      	ldr	r0, [sp, #32]
   247e4:	6e00      	ldr	r0, [r0, #96]	@ 0x60
   247e6:	900b      	str	r0, [sp, #44]	@ 0x2c
   247e8:	2001      	movs	r0, #1
   247ea:	990b      	ldr	r1, [sp, #44]	@ 0x2c
   247ec:	1ffe      	subs	r6, r7, #7
   247ee:	3e05      	subs	r6, #5
   247f0:	46b5      	mov	sp, r6
   247f2:	bdf0      	pop	{r4, r5, r6, r7, pc}
   247f4:	000013a8 	.word	0x000013a8
   247f8:	00001404 	.word	0x00001404
   247fc:	000023cf 	.word	0x000023cf
   24800:	0000021f 	.word	0x0000021f
   24804:	00001597 	.word	0x00001597
   24808:	00000667 	.word	0x00000667
   2480c:	4889      	ldr	r0, [pc, #548]	@ (24a34 <_start+0x7fc>)
   2480e:	4468      	add	r0, sp
   24810:	f002 fb82 	bl	26f18 <_ZN9allow_pin12full_dynamic17unshare_if_shared17hc627a04126f70c57E>
   24814:	4d88      	ldr	r5, [pc, #544]	@ (24a38 <_start+0x800>)
   24816:	446d      	add	r5, sp
   24818:	4628      	mov	r0, r5
   2481a:	f002 fb7d 	bl	26f18 <_ZN9allow_pin12full_dynamic17unshare_if_shared17hc627a04126f70c57E>
   2481e:	4628      	mov	r0, r5
   24820:	f002 fb7a 	bl	26f18 <_ZN9allow_pin12full_dynamic17unshare_if_shared17hc627a04126f70c57E>
   24824:	9a0b      	ldr	r2, [sp, #44]	@ 0x2c
   24826:	7890      	ldrb	r0, [r2, #2]
   24828:	a92f      	add	r1, sp, #188	@ 0xbc
   2482a:	7088      	strb	r0, [r1, #2]
   2482c:	7810      	ldrb	r0, [r2, #0]
   2482e:	7852      	ldrb	r2, [r2, #1]
   24830:	0212      	lsls	r2, r2, #8
   24832:	1810      	adds	r0, r2, r0
   24834:	8008      	strh	r0, [r1, #0]
   24836:	7ca8      	ldrb	r0, [r5, #18]
   24838:	900b      	str	r0, [sp, #44]	@ 0x2c
   2483a:	7c68      	ldrb	r0, [r5, #17]
   2483c:	9007      	str	r0, [sp, #28]
   2483e:	7be8      	ldrb	r0, [r5, #15]
   24840:	9003      	str	r0, [sp, #12]
   24842:	7c2c      	ldrb	r4, [r5, #16]
   24844:	3513      	adds	r5, #19
   24846:	a81f      	add	r0, sp, #124	@ 0x7c
   24848:	223f      	movs	r2, #63	@ 0x3f
   2484a:	4629      	mov	r1, r5
   2484c:	f002 fd25 	bl	2729a <__aeabi_memcpy>
   24850:	0220      	lsls	r0, r4, #8
   24852:	9903      	ldr	r1, [sp, #12]
   24854:	1840      	adds	r0, r0, r1
   24856:	9907      	ldr	r1, [sp, #28]
   24858:	0409      	lsls	r1, r1, #16
   2485a:	9a0b      	ldr	r2, [sp, #44]	@ 0x2c
   2485c:	0612      	lsls	r2, r2, #24
   2485e:	1851      	adds	r1, r2, r1
   24860:	1808      	adds	r0, r1, r0
   24862:	900b      	str	r0, [sp, #44]	@ 0x2c
   24864:	e5e4      	b.n	24430 <_start+0x1f8>
   24866:	4873      	ldr	r0, [pc, #460]	@ (24a34 <_start+0x7fc>)
   24868:	4468      	add	r0, sp
   2486a:	f002 fb55 	bl	26f18 <_ZN9allow_pin12full_dynamic17unshare_if_shared17hc627a04126f70c57E>
   2486e:	4e72      	ldr	r6, [pc, #456]	@ (24a38 <_start+0x800>)
   24870:	446e      	add	r6, sp
   24872:	4630      	mov	r0, r6
   24874:	f002 fb50 	bl	26f18 <_ZN9allow_pin12full_dynamic17unshare_if_shared17hc627a04126f70c57E>
   24878:	4630      	mov	r0, r6
   2487a:	f002 fb4d 	bl	26f18 <_ZN9allow_pin12full_dynamic17unshare_if_shared17hc627a04126f70c57E>
   2487e:	78a0      	ldrb	r0, [r4, #2]
   24880:	a934      	add	r1, sp, #208	@ 0xd0
   24882:	7088      	strb	r0, [r1, #2]
   24884:	7820      	ldrb	r0, [r4, #0]
   24886:	7862      	ldrb	r2, [r4, #1]
   24888:	0212      	lsls	r2, r2, #8
   2488a:	1810      	adds	r0, r2, r0
   2488c:	8008      	strh	r0, [r1, #0]
   2488e:	7cb0      	ldrb	r0, [r6, #18]
   24890:	900b      	str	r0, [sp, #44]	@ 0x2c
   24892:	7c70      	ldrb	r0, [r6, #17]
   24894:	9002      	str	r0, [sp, #8]
   24896:	7bf4      	ldrb	r4, [r6, #15]
   24898:	7c35      	ldrb	r5, [r6, #16]
   2489a:	3613      	adds	r6, #19
   2489c:	a82f      	add	r0, sp, #188	@ 0xbc
   2489e:	2211      	movs	r2, #17
   248a0:	4631      	mov	r1, r6
   248a2:	f002 fcfa 	bl	2729a <__aeabi_memcpy>
   248a6:	0228      	lsls	r0, r5, #8
   248a8:	1900      	adds	r0, r0, r4
   248aa:	9902      	ldr	r1, [sp, #8]
   248ac:	0409      	lsls	r1, r1, #16
   248ae:	9a0b      	ldr	r2, [sp, #44]	@ 0x2c
   248b0:	0612      	lsls	r2, r2, #24
   248b2:	1851      	adds	r1, r2, r1
   248b4:	1808      	adds	r0, r1, r0
   248b6:	900b      	str	r0, [sp, #44]	@ 0x2c
   248b8:	9c03      	ldr	r4, [sp, #12]
   248ba:	e61f      	b.n	244fc <_start+0x2c4>
   248bc:	a81f      	add	r0, sp, #124	@ 0x7c
   248be:	f002 fb2b 	bl	26f18 <_ZN9allow_pin12full_dynamic17unshare_if_shared17hc627a04126f70c57E>
   248c2:	4d5c      	ldr	r5, [pc, #368]	@ (24a34 <_start+0x7fc>)
   248c4:	446d      	add	r5, sp
   248c6:	4628      	mov	r0, r5
   248c8:	f002 fb26 	bl	26f18 <_ZN9allow_pin12full_dynamic17unshare_if_shared17hc627a04126f70c57E>
   248cc:	4628      	mov	r0, r5
   248ce:	f002 fb23 	bl	26f18 <_ZN9allow_pin12full_dynamic17unshare_if_shared17hc627a04126f70c57E>
   248d2:	9a0b      	ldr	r2, [sp, #44]	@ 0x2c
   248d4:	7890      	ldrb	r0, [r2, #2]
   248d6:	a92f      	add	r1, sp, #188	@ 0xbc
   248d8:	7088      	strb	r0, [r1, #2]
   248da:	7810      	ldrb	r0, [r2, #0]
   248dc:	7852      	ldrb	r2, [r2, #1]
   248de:	0212      	lsls	r2, r2, #8
   248e0:	1810      	adds	r0, r2, r0
   248e2:	8008      	strh	r0, [r1, #0]
   248e4:	7ca8      	ldrb	r0, [r5, #18]
   248e6:	900b      	str	r0, [sp, #44]	@ 0x2c
   248e8:	7c68      	ldrb	r0, [r5, #17]
   248ea:	9002      	str	r0, [sp, #8]
   248ec:	7be8      	ldrb	r0, [r5, #15]
   248ee:	9001      	str	r0, [sp, #4]
   248f0:	7c2e      	ldrb	r6, [r5, #16]
   248f2:	3513      	adds	r5, #19
   248f4:	a80c      	add	r0, sp, #48	@ 0x30
   248f6:	222f      	movs	r2, #47	@ 0x2f
   248f8:	4629      	mov	r1, r5
   248fa:	f002 fcce 	bl	2729a <__aeabi_memcpy>
   248fe:	0230      	lsls	r0, r6, #8
   24900:	9901      	ldr	r1, [sp, #4]
   24902:	1840      	adds	r0, r0, r1
   24904:	9902      	ldr	r1, [sp, #8]
   24906:	0409      	lsls	r1, r1, #16
   24908:	9a0b      	ldr	r2, [sp, #44]	@ 0x2c
   2490a:	0612      	lsls	r2, r2, #24
   2490c:	1851      	adds	r1, r2, r1
   2490e:	1808      	adds	r0, r1, r0
   24910:	900b      	str	r0, [sp, #44]	@ 0x2c
   24912:	e650      	b.n	245b6 <_start+0x37e>
   24914:	4847      	ldr	r0, [pc, #284]	@ (24a34 <_start+0x7fc>)
   24916:	4468      	add	r0, sp
   24918:	f002 fafe 	bl	26f18 <_ZN9allow_pin12full_dynamic17unshare_if_shared17hc627a04126f70c57E>
   2491c:	4d46      	ldr	r5, [pc, #280]	@ (24a38 <_start+0x800>)
   2491e:	446d      	add	r5, sp
   24920:	4628      	mov	r0, r5
   24922:	f002 faf9 	bl	26f18 <_ZN9allow_pin12full_dynamic17unshare_if_shared17hc627a04126f70c57E>
   24926:	4628      	mov	r0, r5
   24928:	f002 faf6 	bl	26f18 <_ZN9allow_pin12full_dynamic17unshare_if_shared17hc627a04126f70c57E>
   2492c:	78a0      	ldrb	r0, [r4, #2]
   2492e:	a92f      	add	r1, sp, #188	@ 0xbc
   24930:	7088      	strb	r0, [r1, #2]
   24932:	7820      	ldrb	r0, [r4, #0]
   24934:	7862      	ldrb	r2, [r4, #1]
   24936:	0212      	lsls	r2, r2, #8
   24938:	1810      	adds	r0, r2, r0
   2493a:	8008      	strh	r0, [r1, #0]
   2493c:	7ca8      	ldrb	r0, [r5, #18]
   2493e:	900b      	str	r0, [sp, #44]	@ 0x2c
   24940:	7c68      	ldrb	r0, [r5, #17]
   24942:	9002      	str	r0, [sp, #8]
   24944:	7be8      	ldrb	r0, [r5, #15]
   24946:	9001      	str	r0, [sp, #4]
   24948:	7c2c      	ldrb	r4, [r5, #16]
   2494a:	3513      	adds	r5, #19
   2494c:	a81f      	add	r0, sp, #124	@ 0x7c
   2494e:	221e      	movs	r2, #30
   24950:	4629      	mov	r1, r5
   24952:	f002 fca2 	bl	2729a <__aeabi_memcpy>
   24956:	0220      	lsls	r0, r4, #8
   24958:	9901      	ldr	r1, [sp, #4]
   2495a:	1840      	adds	r0, r0, r1
   2495c:	9902      	ldr	r1, [sp, #8]
   2495e:	0409      	lsls	r1, r1, #16
   24960:	9a0b      	ldr	r2, [sp, #44]	@ 0x2c
   24962:	0612      	lsls	r2, r2, #24
   24964:	1851      	adds	r1, r2, r1
   24966:	1808      	adds	r0, r1, r0
   24968:	900b      	str	r0, [sp, #44]	@ 0x2c
   2496a:	e685      	b.n	24678 <_start+0x440>
   2496c:	4831      	ldr	r0, [pc, #196]	@ (24a34 <_start+0x7fc>)
   2496e:	4468      	add	r0, sp
   24970:	f002 fad2 	bl	26f18 <_ZN9allow_pin12full_dynamic17unshare_if_shared17hc627a04126f70c57E>
   24974:	4e30      	ldr	r6, [pc, #192]	@ (24a38 <_start+0x800>)
   24976:	446e      	add	r6, sp
   24978:	4630      	mov	r0, r6
   2497a:	f002 facd 	bl	26f18 <_ZN9allow_pin12full_dynamic17unshare_if_shared17hc627a04126f70c57E>
   2497e:	4630      	mov	r0, r6
   24980:	f002 faca 	bl	26f18 <_ZN9allow_pin12full_dynamic17unshare_if_shared17hc627a04126f70c57E>
   24984:	78a0      	ldrb	r0, [r4, #2]
   24986:	a92f      	add	r1, sp, #188	@ 0xbc
   24988:	7088      	strb	r0, [r1, #2]
   2498a:	7e70      	ldrb	r0, [r6, #25]
   2498c:	aa1f      	add	r2, sp, #124	@ 0x7c
   2498e:	7190      	strb	r0, [r2, #6]
   24990:	7820      	ldrb	r0, [r4, #0]
   24992:	7863      	ldrb	r3, [r4, #1]
   24994:	021b      	lsls	r3, r3, #8
   24996:	1818      	adds	r0, r3, r0
   24998:	8008      	strh	r0, [r1, #0]
   2499a:	7df0      	ldrb	r0, [r6, #23]
   2499c:	9908      	ldr	r1, [sp, #32]
   2499e:	6989      	ldr	r1, [r1, #24]
   249a0:	0209      	lsls	r1, r1, #8
   249a2:	1808      	adds	r0, r1, r0
   249a4:	8090      	strh	r0, [r2, #4]
   249a6:	7cf0      	ldrb	r0, [r6, #19]
   249a8:	7d31      	ldrb	r1, [r6, #20]
   249aa:	0209      	lsls	r1, r1, #8
   249ac:	1808      	adds	r0, r1, r0
   249ae:	7d71      	ldrb	r1, [r6, #21]
   249b0:	0409      	lsls	r1, r1, #16
   249b2:	7db2      	ldrb	r2, [r6, #22]
   249b4:	0612      	lsls	r2, r2, #24
   249b6:	1851      	adds	r1, r2, r1
   249b8:	1808      	adds	r0, r1, r0
   249ba:	901f      	str	r0, [sp, #124]	@ 0x7c
   249bc:	7bf0      	ldrb	r0, [r6, #15]
   249be:	7c31      	ldrb	r1, [r6, #16]
   249c0:	0209      	lsls	r1, r1, #8
   249c2:	1808      	adds	r0, r1, r0
   249c4:	7c71      	ldrb	r1, [r6, #17]
   249c6:	0409      	lsls	r1, r1, #16
   249c8:	7cb2      	ldrb	r2, [r6, #18]
   249ca:	0612      	lsls	r2, r2, #24
   249cc:	1851      	adds	r1, r2, r1
   249ce:	1808      	adds	r0, r1, r0
   249d0:	900b      	str	r0, [sp, #44]	@ 0x2c
   249d2:	e6af      	b.n	24734 <_start+0x4fc>
   249d4:	9806      	ldr	r0, [sp, #24]
   249d6:	1cc0      	adds	r0, r0, #3
   249d8:	4a16      	ldr	r2, [pc, #88]	@ (24a34 <_start+0x7fc>)
   249da:	446a      	add	r2, sp
   249dc:	78d3      	ldrb	r3, [r2, #3]
   249de:	a94b      	add	r1, sp, #300	@ 0x12c
   249e0:	708b      	strb	r3, [r1, #2]
   249e2:	7853      	ldrb	r3, [r2, #1]
   249e4:	7892      	ldrb	r2, [r2, #2]
   249e6:	0212      	lsls	r2, r2, #8
   249e8:	18d2      	adds	r2, r2, r3
   249ea:	800a      	strh	r2, [r1, #0]
   249ec:	9e08      	ldr	r6, [sp, #32]
   249ee:	4634      	mov	r4, r6
   249f0:	3460      	adds	r4, #96	@ 0x60
   249f2:	cc1c      	ldmia	r4, {r2, r3, r4}
   249f4:	0e25      	lsrs	r5, r4, #24
   249f6:	72c5      	strb	r5, [r0, #11]
   249f8:	0c25      	lsrs	r5, r4, #16
   249fa:	7285      	strb	r5, [r0, #10]
   249fc:	0a25      	lsrs	r5, r4, #8
   249fe:	7245      	strb	r5, [r0, #9]
   24a00:	7204      	strb	r4, [r0, #8]
   24a02:	0e1c      	lsrs	r4, r3, #24
   24a04:	71c4      	strb	r4, [r0, #7]
   24a06:	0c1c      	lsrs	r4, r3, #16
   24a08:	7184      	strb	r4, [r0, #6]
   24a0a:	0a1c      	lsrs	r4, r3, #8
   24a0c:	7144      	strb	r4, [r0, #5]
   24a0e:	7103      	strb	r3, [r0, #4]
   24a10:	0e13      	lsrs	r3, r2, #24
   24a12:	70c3      	strb	r3, [r0, #3]
   24a14:	0c13      	lsrs	r3, r2, #16
   24a16:	7083      	strb	r3, [r0, #2]
   24a18:	0a13      	lsrs	r3, r2, #8
   24a1a:	7043      	strb	r3, [r0, #1]
   24a1c:	7002      	strb	r2, [r0, #0]
   24a1e:	4c05      	ldr	r4, [pc, #20]	@ (24a34 <_start+0x7fc>)
   24a20:	446c      	add	r4, sp
   24a22:	4620      	mov	r0, r4
   24a24:	f7ff f88e 	bl	23b44 <_ZN20complex_full_dynamic3app17he8f61ecfe352a6a8E>
   24a28:	7820      	ldrb	r0, [r4, #0]
   24a2a:	2801      	cmp	r0, #1
   24a2c:	d106      	bne.n	24a3c <_start+0x804>
   24a2e:	6e30      	ldr	r0, [r6, #96]	@ 0x60
   24a30:	e6d9      	b.n	247e6 <_start+0x5ae>
   24a32:	46c0      	nop			@ (mov r8, r8)
   24a34:	00001404 	.word	0x00001404
   24a38:	000013a8 	.word	0x000013a8
   24a3c:	4816      	ldr	r0, [pc, #88]	@ (24a98 <_start+0x860>)
   24a3e:	4468      	add	r0, sp
   24a40:	78c1      	ldrb	r1, [r0, #3]
   24a42:	ac4f      	add	r4, sp, #316	@ 0x13c
   24a44:	70a1      	strb	r1, [r4, #2]
   24a46:	7841      	ldrb	r1, [r0, #1]
   24a48:	7882      	ldrb	r2, [r0, #2]
   24a4a:	0212      	lsls	r2, r2, #8
   24a4c:	1851      	adds	r1, r2, r1
   24a4e:	8021      	strh	r1, [r4, #0]
   24a50:	3008      	adds	r0, #8
   24a52:	6e31      	ldr	r1, [r6, #96]	@ 0x60
   24a54:	910a      	str	r1, [sp, #40]	@ 0x28
   24a56:	4b11      	ldr	r3, [pc, #68]	@ (24a9c <_start+0x864>)
   24a58:	446b      	add	r3, sp
   24a5a:	930b      	str	r3, [sp, #44]	@ 0x2c
   24a5c:	c864      	ldmia	r0!, {r2, r5, r6}
   24a5e:	c364      	stmia	r3!, {r2, r5, r6}
   24a60:	c866      	ldmia	r0!, {r1, r2, r5, r6}
   24a62:	c366      	stmia	r3!, {r1, r2, r5, r6}
   24a64:	8800      	ldrh	r0, [r0, #0]
   24a66:	8018      	strh	r0, [r3, #0]
   24a68:	990a      	ldr	r1, [sp, #40]	@ 0x28
   24a6a:	0e08      	lsrs	r0, r1, #24
   24a6c:	71a0      	strb	r0, [r4, #6]
   24a6e:	0c08      	lsrs	r0, r1, #16
   24a70:	7160      	strb	r0, [r4, #5]
   24a72:	0a08      	lsrs	r0, r1, #8
   24a74:	7120      	strb	r0, [r4, #4]
   24a76:	70e1      	strb	r1, [r4, #3]
   24a78:	1de0      	adds	r0, r4, #7
   24a7a:	221e      	movs	r2, #30
   24a7c:	990b      	ldr	r1, [sp, #44]	@ 0x2c
   24a7e:	f002 fc0c 	bl	2729a <__aeabi_memcpy>
   24a82:	4d05      	ldr	r5, [pc, #20]	@ (24a98 <_start+0x860>)
   24a84:	446d      	add	r5, sp
   24a86:	4628      	mov	r0, r5
   24a88:	4621      	mov	r1, r4
   24a8a:	f7ff f9bf 	bl	23e0c <_ZN20complex_full_dynamic3app17hf2f8b0a202fa2e17E>
   24a8e:	7828      	ldrb	r0, [r5, #0]
   24a90:	2801      	cmp	r0, #1
   24a92:	d105      	bne.n	24aa0 <_start+0x868>
   24a94:	e6a5      	b.n	247e2 <_start+0x5aa>
   24a96:	46c0      	nop			@ (mov r8, r8)
   24a98:	00001404 	.word	0x00001404
   24a9c:	000013a8 	.word	0x000013a8
   24aa0:	4817      	ldr	r0, [pc, #92]	@ (24b00 <_start+0x8c8>)
   24aa2:	4468      	add	r0, sp
   24aa4:	78c1      	ldrb	r1, [r0, #3]
   24aa6:	ac59      	add	r4, sp, #356	@ 0x164
   24aa8:	70a1      	strb	r1, [r4, #2]
   24aaa:	7841      	ldrb	r1, [r0, #1]
   24aac:	7882      	ldrb	r2, [r0, #2]
   24aae:	0212      	lsls	r2, r2, #8
   24ab0:	1851      	adds	r1, r2, r1
   24ab2:	8021      	strh	r1, [r4, #0]
   24ab4:	3008      	adds	r0, #8
   24ab6:	9908      	ldr	r1, [sp, #32]
   24ab8:	6e09      	ldr	r1, [r1, #96]	@ 0x60
   24aba:	910a      	str	r1, [sp, #40]	@ 0x28
   24abc:	4b11      	ldr	r3, [pc, #68]	@ (24b04 <_start+0x8cc>)
   24abe:	446b      	add	r3, sp
   24ac0:	930b      	str	r3, [sp, #44]	@ 0x2c
   24ac2:	c866      	ldmia	r0!, {r1, r2, r5, r6}
   24ac4:	c366      	stmia	r3!, {r1, r2, r5, r6}
   24ac6:	c866      	ldmia	r0!, {r1, r2, r5, r6}
   24ac8:	c366      	stmia	r3!, {r1, r2, r5, r6}
   24aca:	8801      	ldrh	r1, [r0, #0]
   24acc:	8019      	strh	r1, [r3, #0]
   24ace:	7880      	ldrb	r0, [r0, #2]
   24ad0:	7098      	strb	r0, [r3, #2]
   24ad2:	990a      	ldr	r1, [sp, #40]	@ 0x28
   24ad4:	0e08      	lsrs	r0, r1, #24
   24ad6:	71a0      	strb	r0, [r4, #6]
   24ad8:	0c08      	lsrs	r0, r1, #16
   24ada:	7160      	strb	r0, [r4, #5]
   24adc:	0a08      	lsrs	r0, r1, #8
   24ade:	7120      	strb	r0, [r4, #4]
   24ae0:	70e1      	strb	r1, [r4, #3]
   24ae2:	1de0      	adds	r0, r4, #7
   24ae4:	2223      	movs	r2, #35	@ 0x23
   24ae6:	990b      	ldr	r1, [sp, #44]	@ 0x2c
   24ae8:	f002 fbd7 	bl	2729a <__aeabi_memcpy>
   24aec:	4d04      	ldr	r5, [pc, #16]	@ (24b00 <_start+0x8c8>)
   24aee:	446d      	add	r5, sp
   24af0:	4628      	mov	r0, r5
   24af2:	4621      	mov	r1, r4
   24af4:	f7fb faf6 	bl	200e4 <_ZN20complex_full_dynamic3app17h00e6556cf3ff0e54E>
   24af8:	7828      	ldrb	r0, [r5, #0]
   24afa:	2801      	cmp	r0, #1
   24afc:	d104      	bne.n	24b08 <_start+0x8d0>
   24afe:	e670      	b.n	247e2 <_start+0x5aa>
   24b00:	00001404 	.word	0x00001404
   24b04:	000013a8 	.word	0x000013a8
   24b08:	4914      	ldr	r1, [pc, #80]	@ (24b5c <_start+0x924>)
   24b0a:	4469      	add	r1, sp
   24b0c:	78c8      	ldrb	r0, [r1, #3]
   24b0e:	ac64      	add	r4, sp, #400	@ 0x190
   24b10:	70a0      	strb	r0, [r4, #2]
   24b12:	7848      	ldrb	r0, [r1, #1]
   24b14:	788a      	ldrb	r2, [r1, #2]
   24b16:	0212      	lsls	r2, r2, #8
   24b18:	1810      	adds	r0, r2, r0
   24b1a:	8020      	strh	r0, [r4, #0]
   24b1c:	9808      	ldr	r0, [sp, #32]
   24b1e:	6e05      	ldr	r5, [r0, #96]	@ 0x60
   24b20:	3108      	adds	r1, #8
   24b22:	480f      	ldr	r0, [pc, #60]	@ (24b60 <_start+0x928>)
   24b24:	4468      	add	r0, sp
   24b26:	900b      	str	r0, [sp, #44]	@ 0x2c
   24b28:	265c      	movs	r6, #92	@ 0x5c
   24b2a:	4632      	mov	r2, r6
   24b2c:	f002 fa55 	bl	26fda <__aeabi_memcpy4>
   24b30:	0e28      	lsrs	r0, r5, #24
   24b32:	71a0      	strb	r0, [r4, #6]
   24b34:	0c28      	lsrs	r0, r5, #16
   24b36:	7160      	strb	r0, [r4, #5]
   24b38:	0a28      	lsrs	r0, r5, #8
   24b3a:	7120      	strb	r0, [r4, #4]
   24b3c:	70e5      	strb	r5, [r4, #3]
   24b3e:	1de0      	adds	r0, r4, #7
   24b40:	990b      	ldr	r1, [sp, #44]	@ 0x2c
   24b42:	4632      	mov	r2, r6
   24b44:	f002 fba9 	bl	2729a <__aeabi_memcpy>
   24b48:	4d04      	ldr	r5, [pc, #16]	@ (24b5c <_start+0x924>)
   24b4a:	446d      	add	r5, sp
   24b4c:	4628      	mov	r0, r5
   24b4e:	4621      	mov	r1, r4
   24b50:	f7fe fac0 	bl	230d4 <_ZN20complex_full_dynamic3app17haac0126965d73311E>
   24b54:	7828      	ldrb	r0, [r5, #0]
   24b56:	2801      	cmp	r0, #1
   24b58:	d104      	bne.n	24b64 <_start+0x92c>
   24b5a:	e642      	b.n	247e2 <_start+0x5aa>
   24b5c:	00001404 	.word	0x00001404
   24b60:	000013a8 	.word	0x000013a8
   24b64:	4815      	ldr	r0, [pc, #84]	@ (24bbc <_start+0x984>)
   24b66:	4468      	add	r0, sp
   24b68:	78c1      	ldrb	r1, [r0, #3]
   24b6a:	ac7d      	add	r4, sp, #500	@ 0x1f4
   24b6c:	70a1      	strb	r1, [r4, #2]
   24b6e:	7841      	ldrb	r1, [r0, #1]
   24b70:	7882      	ldrb	r2, [r0, #2]
   24b72:	0212      	lsls	r2, r2, #8
   24b74:	1851      	adds	r1, r2, r1
   24b76:	8021      	strh	r1, [r4, #0]
   24b78:	3008      	adds	r0, #8
   24b7a:	9908      	ldr	r1, [sp, #32]
   24b7c:	6e09      	ldr	r1, [r1, #96]	@ 0x60
   24b7e:	910a      	str	r1, [sp, #40]	@ 0x28
   24b80:	4b0f      	ldr	r3, [pc, #60]	@ (24bc0 <_start+0x988>)
   24b82:	446b      	add	r3, sp
   24b84:	930b      	str	r3, [sp, #44]	@ 0x2c
   24b86:	c866      	ldmia	r0!, {r1, r2, r5, r6}
   24b88:	c366      	stmia	r3!, {r1, r2, r5, r6}
   24b8a:	c866      	ldmia	r0!, {r1, r2, r5, r6}
   24b8c:	c366      	stmia	r3!, {r1, r2, r5, r6}
   24b8e:	990a      	ldr	r1, [sp, #40]	@ 0x28
   24b90:	0e08      	lsrs	r0, r1, #24
   24b92:	71a0      	strb	r0, [r4, #6]
   24b94:	0c08      	lsrs	r0, r1, #16
   24b96:	7160      	strb	r0, [r4, #5]
   24b98:	0a08      	lsrs	r0, r1, #8
   24b9a:	7120      	strb	r0, [r4, #4]
   24b9c:	70e1      	strb	r1, [r4, #3]
   24b9e:	1de0      	adds	r0, r4, #7
   24ba0:	2220      	movs	r2, #32
   24ba2:	990b      	ldr	r1, [sp, #44]	@ 0x2c
   24ba4:	f002 fb79 	bl	2729a <__aeabi_memcpy>
   24ba8:	4d04      	ldr	r5, [pc, #16]	@ (24bbc <_start+0x984>)
   24baa:	446d      	add	r5, sp
   24bac:	4628      	mov	r0, r5
   24bae:	4621      	mov	r1, r4
   24bb0:	f7fe f986 	bl	22ec0 <_ZN20complex_full_dynamic3app17ha6c24f268a65a904E>
   24bb4:	7828      	ldrb	r0, [r5, #0]
   24bb6:	2801      	cmp	r0, #1
   24bb8:	d104      	bne.n	24bc4 <_start+0x98c>
   24bba:	e612      	b.n	247e2 <_start+0x5aa>
   24bbc:	00001404 	.word	0x00001404
   24bc0:	000013a8 	.word	0x000013a8
   24bc4:	4816      	ldr	r0, [pc, #88]	@ (24c20 <_start+0x9e8>)
   24bc6:	4468      	add	r0, sp
   24bc8:	78c1      	ldrb	r1, [r0, #3]
   24bca:	ac87      	add	r4, sp, #540	@ 0x21c
   24bcc:	70a1      	strb	r1, [r4, #2]
   24bce:	7841      	ldrb	r1, [r0, #1]
   24bd0:	7882      	ldrb	r2, [r0, #2]
   24bd2:	0212      	lsls	r2, r2, #8
   24bd4:	1851      	adds	r1, r2, r1
   24bd6:	8021      	strh	r1, [r4, #0]
   24bd8:	3008      	adds	r0, #8
   24bda:	9908      	ldr	r1, [sp, #32]
   24bdc:	6e09      	ldr	r1, [r1, #96]	@ 0x60
   24bde:	4b11      	ldr	r3, [pc, #68]	@ (24c24 <_start+0x9ec>)
   24be0:	446b      	add	r3, sp
   24be2:	930b      	str	r3, [sp, #44]	@ 0x2c
   24be4:	c860      	ldmia	r0!, {r5, r6}
   24be6:	c360      	stmia	r3!, {r5, r6}
   24be8:	c864      	ldmia	r0!, {r2, r5, r6}
   24bea:	c364      	stmia	r3!, {r2, r5, r6}
   24bec:	8802      	ldrh	r2, [r0, #0]
   24bee:	801a      	strh	r2, [r3, #0]
   24bf0:	7880      	ldrb	r0, [r0, #2]
   24bf2:	7098      	strb	r0, [r3, #2]
   24bf4:	0e08      	lsrs	r0, r1, #24
   24bf6:	71a0      	strb	r0, [r4, #6]
   24bf8:	0c08      	lsrs	r0, r1, #16
   24bfa:	7160      	strb	r0, [r4, #5]
   24bfc:	0a08      	lsrs	r0, r1, #8
   24bfe:	7120      	strb	r0, [r4, #4]
   24c00:	70e1      	strb	r1, [r4, #3]
   24c02:	1de0      	adds	r0, r4, #7
   24c04:	2217      	movs	r2, #23
   24c06:	990b      	ldr	r1, [sp, #44]	@ 0x2c
   24c08:	f002 fb47 	bl	2729a <__aeabi_memcpy>
   24c0c:	4d04      	ldr	r5, [pc, #16]	@ (24c20 <_start+0x9e8>)
   24c0e:	446d      	add	r5, sp
   24c10:	4628      	mov	r0, r5
   24c12:	4621      	mov	r1, r4
   24c14:	f7fd fa64 	bl	220e0 <_ZN20complex_full_dynamic3app17h742212fefadfb77dE>
   24c18:	7828      	ldrb	r0, [r5, #0]
   24c1a:	2801      	cmp	r0, #1
   24c1c:	d104      	bne.n	24c28 <_start+0x9f0>
   24c1e:	e5e0      	b.n	247e2 <_start+0x5aa>
   24c20:	00001404 	.word	0x00001404
   24c24:	000013a8 	.word	0x000013a8
   24c28:	4816      	ldr	r0, [pc, #88]	@ (24c84 <_start+0xa4c>)
   24c2a:	4468      	add	r0, sp
   24c2c:	78c1      	ldrb	r1, [r0, #3]
   24c2e:	ac8f      	add	r4, sp, #572	@ 0x23c
   24c30:	70a1      	strb	r1, [r4, #2]
   24c32:	7841      	ldrb	r1, [r0, #1]
   24c34:	7882      	ldrb	r2, [r0, #2]
   24c36:	0212      	lsls	r2, r2, #8
   24c38:	1851      	adds	r1, r2, r1
   24c3a:	8021      	strh	r1, [r4, #0]
   24c3c:	3008      	adds	r0, #8
   24c3e:	9908      	ldr	r1, [sp, #32]
   24c40:	6e09      	ldr	r1, [r1, #96]	@ 0x60
   24c42:	4b11      	ldr	r3, [pc, #68]	@ (24c88 <_start+0xa50>)
   24c44:	446b      	add	r3, sp
   24c46:	930b      	str	r3, [sp, #44]	@ 0x2c
   24c48:	c864      	ldmia	r0!, {r2, r5, r6}
   24c4a:	c364      	stmia	r3!, {r2, r5, r6}
   24c4c:	c864      	ldmia	r0!, {r2, r5, r6}
   24c4e:	c364      	stmia	r3!, {r2, r5, r6}
   24c50:	c864      	ldmia	r0!, {r2, r5, r6}
   24c52:	c364      	stmia	r3!, {r2, r5, r6}
   24c54:	7800      	ldrb	r0, [r0, #0]
   24c56:	7018      	strb	r0, [r3, #0]
   24c58:	0e08      	lsrs	r0, r1, #24
   24c5a:	71a0      	strb	r0, [r4, #6]
   24c5c:	0c08      	lsrs	r0, r1, #16
   24c5e:	7160      	strb	r0, [r4, #5]
   24c60:	0a08      	lsrs	r0, r1, #8
   24c62:	7120      	strb	r0, [r4, #4]
   24c64:	70e1      	strb	r1, [r4, #3]
   24c66:	1de0      	adds	r0, r4, #7
   24c68:	2225      	movs	r2, #37	@ 0x25
   24c6a:	990b      	ldr	r1, [sp, #44]	@ 0x2c
   24c6c:	f002 fb15 	bl	2729a <__aeabi_memcpy>
   24c70:	4d04      	ldr	r5, [pc, #16]	@ (24c84 <_start+0xa4c>)
   24c72:	446d      	add	r5, sp
   24c74:	4628      	mov	r0, r5
   24c76:	4621      	mov	r1, r4
   24c78:	f7ff fa86 	bl	24188 <_ZN20complex_full_dynamic3app17hfffbfef1b680c326E>
   24c7c:	7828      	ldrb	r0, [r5, #0]
   24c7e:	2801      	cmp	r0, #1
   24c80:	d104      	bne.n	24c8c <_start+0xa54>
   24c82:	e5ae      	b.n	247e2 <_start+0x5aa>
   24c84:	00001404 	.word	0x00001404
   24c88:	000013a8 	.word	0x000013a8
   24c8c:	4816      	ldr	r0, [pc, #88]	@ (24ce8 <_start+0xab0>)
   24c8e:	4468      	add	r0, sp
   24c90:	78c1      	ldrb	r1, [r0, #3]
   24c92:	ac9a      	add	r4, sp, #616	@ 0x268
   24c94:	70a1      	strb	r1, [r4, #2]
   24c96:	7841      	ldrb	r1, [r0, #1]
   24c98:	7882      	ldrb	r2, [r0, #2]
   24c9a:	0212      	lsls	r2, r2, #8
   24c9c:	1851      	adds	r1, r2, r1
   24c9e:	8021      	strh	r1, [r4, #0]
   24ca0:	3008      	adds	r0, #8
   24ca2:	9908      	ldr	r1, [sp, #32]
   24ca4:	6e09      	ldr	r1, [r1, #96]	@ 0x60
   24ca6:	910a      	str	r1, [sp, #40]	@ 0x28
   24ca8:	4b10      	ldr	r3, [pc, #64]	@ (24cec <_start+0xab4>)
   24caa:	446b      	add	r3, sp
   24cac:	930b      	str	r3, [sp, #44]	@ 0x2c
   24cae:	c864      	ldmia	r0!, {r2, r5, r6}
   24cb0:	c364      	stmia	r3!, {r2, r5, r6}
   24cb2:	c866      	ldmia	r0!, {r1, r2, r5, r6}
   24cb4:	c366      	stmia	r3!, {r1, r2, r5, r6}
   24cb6:	8800      	ldrh	r0, [r0, #0]
   24cb8:	8018      	strh	r0, [r3, #0]
   24cba:	990a      	ldr	r1, [sp, #40]	@ 0x28
   24cbc:	0e08      	lsrs	r0, r1, #24
   24cbe:	71a0      	strb	r0, [r4, #6]
   24cc0:	0c08      	lsrs	r0, r1, #16
   24cc2:	7160      	strb	r0, [r4, #5]
   24cc4:	0a08      	lsrs	r0, r1, #8
   24cc6:	7120      	strb	r0, [r4, #4]
   24cc8:	70e1      	strb	r1, [r4, #3]
   24cca:	1de0      	adds	r0, r4, #7
   24ccc:	221e      	movs	r2, #30
   24cce:	990b      	ldr	r1, [sp, #44]	@ 0x2c
   24cd0:	f002 fae3 	bl	2729a <__aeabi_memcpy>
   24cd4:	4d04      	ldr	r5, [pc, #16]	@ (24ce8 <_start+0xab0>)
   24cd6:	446d      	add	r5, sp
   24cd8:	4628      	mov	r0, r5
   24cda:	4621      	mov	r1, r4
   24cdc:	f7fb ff8e 	bl	20bfc <_ZN20complex_full_dynamic3app17h27688393d26deca1E>
   24ce0:	7828      	ldrb	r0, [r5, #0]
   24ce2:	2801      	cmp	r0, #1
   24ce4:	d104      	bne.n	24cf0 <_start+0xab8>
   24ce6:	e57c      	b.n	247e2 <_start+0x5aa>
   24ce8:	00001404 	.word	0x00001404
   24cec:	000013a8 	.word	0x000013a8
   24cf0:	4815      	ldr	r0, [pc, #84]	@ (24d48 <_start+0xb10>)
   24cf2:	4468      	add	r0, sp
   24cf4:	78c1      	ldrb	r1, [r0, #3]
   24cf6:	aca4      	add	r4, sp, #656	@ 0x290
   24cf8:	70a1      	strb	r1, [r4, #2]
   24cfa:	7841      	ldrb	r1, [r0, #1]
   24cfc:	7882      	ldrb	r2, [r0, #2]
   24cfe:	0212      	lsls	r2, r2, #8
   24d00:	1851      	adds	r1, r2, r1
   24d02:	8021      	strh	r1, [r4, #0]
   24d04:	3008      	adds	r0, #8
   24d06:	9908      	ldr	r1, [sp, #32]
   24d08:	6e09      	ldr	r1, [r1, #96]	@ 0x60
   24d0a:	910a      	str	r1, [sp, #40]	@ 0x28
   24d0c:	4b0f      	ldr	r3, [pc, #60]	@ (24d4c <_start+0xb14>)
   24d0e:	446b      	add	r3, sp
   24d10:	930b      	str	r3, [sp, #44]	@ 0x2c
   24d12:	c866      	ldmia	r0!, {r1, r2, r5, r6}
   24d14:	c366      	stmia	r3!, {r1, r2, r5, r6}
   24d16:	7800      	ldrb	r0, [r0, #0]
   24d18:	7018      	strb	r0, [r3, #0]
   24d1a:	990a      	ldr	r1, [sp, #40]	@ 0x28
   24d1c:	0e08      	lsrs	r0, r1, #24
   24d1e:	71a0      	strb	r0, [r4, #6]
   24d20:	0c08      	lsrs	r0, r1, #16
   24d22:	7160      	strb	r0, [r4, #5]
   24d24:	0a08      	lsrs	r0, r1, #8
   24d26:	7120      	strb	r0, [r4, #4]
   24d28:	70e1      	strb	r1, [r4, #3]
   24d2a:	1de0      	adds	r0, r4, #7
   24d2c:	2211      	movs	r2, #17
   24d2e:	990b      	ldr	r1, [sp, #44]	@ 0x2c
   24d30:	f002 fab3 	bl	2729a <__aeabi_memcpy>
   24d34:	4d04      	ldr	r5, [pc, #16]	@ (24d48 <_start+0xb10>)
   24d36:	446d      	add	r5, sp
   24d38:	4628      	mov	r0, r5
   24d3a:	4621      	mov	r1, r4
   24d3c:	f7fd fc98 	bl	22670 <_ZN20complex_full_dynamic3app17h89edaded3cfbe9b8E>
   24d40:	7828      	ldrb	r0, [r5, #0]
   24d42:	2801      	cmp	r0, #1
   24d44:	d104      	bne.n	24d50 <_start+0xb18>
   24d46:	e54c      	b.n	247e2 <_start+0x5aa>
   24d48:	00001404 	.word	0x00001404
   24d4c:	000013a8 	.word	0x000013a8
   24d50:	4818      	ldr	r0, [pc, #96]	@ (24db4 <_start+0xb7c>)
   24d52:	4468      	add	r0, sp
   24d54:	78c1      	ldrb	r1, [r0, #3]
   24d56:	acaa      	add	r4, sp, #680	@ 0x2a8
   24d58:	70a1      	strb	r1, [r4, #2]
   24d5a:	7841      	ldrb	r1, [r0, #1]
   24d5c:	7882      	ldrb	r2, [r0, #2]
   24d5e:	0212      	lsls	r2, r2, #8
   24d60:	1851      	adds	r1, r2, r1
   24d62:	8021      	strh	r1, [r4, #0]
   24d64:	3008      	adds	r0, #8
   24d66:	9908      	ldr	r1, [sp, #32]
   24d68:	6e09      	ldr	r1, [r1, #96]	@ 0x60
   24d6a:	910a      	str	r1, [sp, #40]	@ 0x28
   24d6c:	4b12      	ldr	r3, [pc, #72]	@ (24db8 <_start+0xb80>)
   24d6e:	446b      	add	r3, sp
   24d70:	930b      	str	r3, [sp, #44]	@ 0x2c
   24d72:	c864      	ldmia	r0!, {r2, r5, r6}
   24d74:	c364      	stmia	r3!, {r2, r5, r6}
   24d76:	c866      	ldmia	r0!, {r1, r2, r5, r6}
   24d78:	c366      	stmia	r3!, {r1, r2, r5, r6}
   24d7a:	c866      	ldmia	r0!, {r1, r2, r5, r6}
   24d7c:	c366      	stmia	r3!, {r1, r2, r5, r6}
   24d7e:	8801      	ldrh	r1, [r0, #0]
   24d80:	8019      	strh	r1, [r3, #0]
   24d82:	7880      	ldrb	r0, [r0, #2]
   24d84:	7098      	strb	r0, [r3, #2]
   24d86:	990a      	ldr	r1, [sp, #40]	@ 0x28
   24d88:	0e08      	lsrs	r0, r1, #24
   24d8a:	71a0      	strb	r0, [r4, #6]
   24d8c:	0c08      	lsrs	r0, r1, #16
   24d8e:	7160      	strb	r0, [r4, #5]
   24d90:	0a08      	lsrs	r0, r1, #8
   24d92:	7120      	strb	r0, [r4, #4]
   24d94:	70e1      	strb	r1, [r4, #3]
   24d96:	1de0      	adds	r0, r4, #7
   24d98:	222f      	movs	r2, #47	@ 0x2f
   24d9a:	990b      	ldr	r1, [sp, #44]	@ 0x2c
   24d9c:	f002 fa7d 	bl	2729a <__aeabi_memcpy>
   24da0:	4d04      	ldr	r5, [pc, #16]	@ (24db4 <_start+0xb7c>)
   24da2:	446d      	add	r5, sp
   24da4:	4628      	mov	r0, r5
   24da6:	4621      	mov	r1, r4
   24da8:	f7fb f9f4 	bl	20194 <_ZN20complex_full_dynamic3app17h02fb61f499165b29E>
   24dac:	7828      	ldrb	r0, [r5, #0]
   24dae:	2801      	cmp	r0, #1
   24db0:	d104      	bne.n	24dbc <_start+0xb84>
   24db2:	e516      	b.n	247e2 <_start+0x5aa>
   24db4:	00001404 	.word	0x00001404
   24db8:	000013a8 	.word	0x000013a8
   24dbc:	4817      	ldr	r0, [pc, #92]	@ (24e1c <_start+0xbe4>)
   24dbe:	4468      	add	r0, sp
   24dc0:	78c1      	ldrb	r1, [r0, #3]
   24dc2:	acb8      	add	r4, sp, #736	@ 0x2e0
   24dc4:	70a1      	strb	r1, [r4, #2]
   24dc6:	7841      	ldrb	r1, [r0, #1]
   24dc8:	7882      	ldrb	r2, [r0, #2]
   24dca:	0212      	lsls	r2, r2, #8
   24dcc:	1851      	adds	r1, r2, r1
   24dce:	8021      	strh	r1, [r4, #0]
   24dd0:	3008      	adds	r0, #8
   24dd2:	9908      	ldr	r1, [sp, #32]
   24dd4:	6e09      	ldr	r1, [r1, #96]	@ 0x60
   24dd6:	910a      	str	r1, [sp, #40]	@ 0x28
   24dd8:	4b11      	ldr	r3, [pc, #68]	@ (24e20 <_start+0xbe8>)
   24dda:	446b      	add	r3, sp
   24ddc:	930b      	str	r3, [sp, #44]	@ 0x2c
   24dde:	c864      	ldmia	r0!, {r2, r5, r6}
   24de0:	c364      	stmia	r3!, {r2, r5, r6}
   24de2:	c866      	ldmia	r0!, {r1, r2, r5, r6}
   24de4:	c366      	stmia	r3!, {r1, r2, r5, r6}
   24de6:	c866      	ldmia	r0!, {r1, r2, r5, r6}
   24de8:	c366      	stmia	r3!, {r1, r2, r5, r6}
   24dea:	7800      	ldrb	r0, [r0, #0]
   24dec:	7018      	strb	r0, [r3, #0]
   24dee:	990a      	ldr	r1, [sp, #40]	@ 0x28
   24df0:	0e08      	lsrs	r0, r1, #24
   24df2:	71a0      	strb	r0, [r4, #6]
   24df4:	0c08      	lsrs	r0, r1, #16
   24df6:	7160      	strb	r0, [r4, #5]
   24df8:	0a08      	lsrs	r0, r1, #8
   24dfa:	7120      	strb	r0, [r4, #4]
   24dfc:	70e1      	strb	r1, [r4, #3]
   24dfe:	1de0      	adds	r0, r4, #7
   24e00:	222d      	movs	r2, #45	@ 0x2d
   24e02:	990b      	ldr	r1, [sp, #44]	@ 0x2c
   24e04:	f002 fa49 	bl	2729a <__aeabi_memcpy>
   24e08:	4d04      	ldr	r5, [pc, #16]	@ (24e1c <_start+0xbe4>)
   24e0a:	446d      	add	r5, sp
   24e0c:	4628      	mov	r0, r5
   24e0e:	4621      	mov	r1, r4
   24e10:	f7fb fe44 	bl	20a9c <_ZN20complex_full_dynamic3app17h1c247be06bf1d656E>
   24e14:	7828      	ldrb	r0, [r5, #0]
   24e16:	2801      	cmp	r0, #1
   24e18:	d104      	bne.n	24e24 <_start+0xbec>
   24e1a:	e4e2      	b.n	247e2 <_start+0x5aa>
   24e1c:	00001404 	.word	0x00001404
   24e20:	000013a8 	.word	0x000013a8
   24e24:	4817      	ldr	r0, [pc, #92]	@ (24e84 <_start+0xc4c>)
   24e26:	4468      	add	r0, sp
   24e28:	78c1      	ldrb	r1, [r0, #3]
   24e2a:	acc5      	add	r4, sp, #788	@ 0x314
   24e2c:	70a1      	strb	r1, [r4, #2]
   24e2e:	7841      	ldrb	r1, [r0, #1]
   24e30:	7882      	ldrb	r2, [r0, #2]
   24e32:	0212      	lsls	r2, r2, #8
   24e34:	1851      	adds	r1, r2, r1
   24e36:	8021      	strh	r1, [r4, #0]
   24e38:	3008      	adds	r0, #8
   24e3a:	9908      	ldr	r1, [sp, #32]
   24e3c:	6e09      	ldr	r1, [r1, #96]	@ 0x60
   24e3e:	4b12      	ldr	r3, [pc, #72]	@ (24e88 <_start+0xc50>)
   24e40:	446b      	add	r3, sp
   24e42:	930b      	str	r3, [sp, #44]	@ 0x2c
   24e44:	c864      	ldmia	r0!, {r2, r5, r6}
   24e46:	c364      	stmia	r3!, {r2, r5, r6}
   24e48:	c864      	ldmia	r0!, {r2, r5, r6}
   24e4a:	c364      	stmia	r3!, {r2, r5, r6}
   24e4c:	c864      	ldmia	r0!, {r2, r5, r6}
   24e4e:	c364      	stmia	r3!, {r2, r5, r6}
   24e50:	8802      	ldrh	r2, [r0, #0]
   24e52:	801a      	strh	r2, [r3, #0]
   24e54:	7880      	ldrb	r0, [r0, #2]
   24e56:	7098      	strb	r0, [r3, #2]
   24e58:	0e08      	lsrs	r0, r1, #24
   24e5a:	71a0      	strb	r0, [r4, #6]
   24e5c:	0c08      	lsrs	r0, r1, #16
   24e5e:	7160      	strb	r0, [r4, #5]
   24e60:	0a08      	lsrs	r0, r1, #8
   24e62:	7120      	strb	r0, [r4, #4]
   24e64:	70e1      	strb	r1, [r4, #3]
   24e66:	1de0      	adds	r0, r4, #7
   24e68:	2227      	movs	r2, #39	@ 0x27
   24e6a:	990b      	ldr	r1, [sp, #44]	@ 0x2c
   24e6c:	f002 fa15 	bl	2729a <__aeabi_memcpy>
   24e70:	4d04      	ldr	r5, [pc, #16]	@ (24e84 <_start+0xc4c>)
   24e72:	446d      	add	r5, sp
   24e74:	4628      	mov	r0, r5
   24e76:	4621      	mov	r1, r4
   24e78:	f7fd ff70 	bl	22d5c <_ZN20complex_full_dynamic3app17h9ee26d89e6340a07E>
   24e7c:	7828      	ldrb	r0, [r5, #0]
   24e7e:	2801      	cmp	r0, #1
   24e80:	d104      	bne.n	24e8c <_start+0xc54>
   24e82:	e4ae      	b.n	247e2 <_start+0x5aa>
   24e84:	00001404 	.word	0x00001404
   24e88:	000013a8 	.word	0x000013a8
   24e8c:	4817      	ldr	r0, [pc, #92]	@ (24eec <_start+0xcb4>)
   24e8e:	4468      	add	r0, sp
   24e90:	78c1      	ldrb	r1, [r0, #3]
   24e92:	acd1      	add	r4, sp, #836	@ 0x344
   24e94:	70a1      	strb	r1, [r4, #2]
   24e96:	7841      	ldrb	r1, [r0, #1]
   24e98:	7882      	ldrb	r2, [r0, #2]
   24e9a:	0212      	lsls	r2, r2, #8
   24e9c:	1851      	adds	r1, r2, r1
   24e9e:	8021      	strh	r1, [r4, #0]
   24ea0:	3008      	adds	r0, #8
   24ea2:	9908      	ldr	r1, [sp, #32]
   24ea4:	6e09      	ldr	r1, [r1, #96]	@ 0x60
   24ea6:	910a      	str	r1, [sp, #40]	@ 0x28
   24ea8:	4b11      	ldr	r3, [pc, #68]	@ (24ef0 <_start+0xcb8>)
   24eaa:	446b      	add	r3, sp
   24eac:	930b      	str	r3, [sp, #44]	@ 0x2c
   24eae:	c866      	ldmia	r0!, {r1, r2, r5, r6}
   24eb0:	c366      	stmia	r3!, {r1, r2, r5, r6}
   24eb2:	c866      	ldmia	r0!, {r1, r2, r5, r6}
   24eb4:	c366      	stmia	r3!, {r1, r2, r5, r6}
   24eb6:	c866      	ldmia	r0!, {r1, r2, r5, r6}
   24eb8:	c366      	stmia	r3!, {r1, r2, r5, r6}
   24eba:	7800      	ldrb	r0, [r0, #0]
   24ebc:	7018      	strb	r0, [r3, #0]
   24ebe:	990a      	ldr	r1, [sp, #40]	@ 0x28
   24ec0:	0e08      	lsrs	r0, r1, #24
   24ec2:	71a0      	strb	r0, [r4, #6]
   24ec4:	0c08      	lsrs	r0, r1, #16
   24ec6:	7160      	strb	r0, [r4, #5]
   24ec8:	0a08      	lsrs	r0, r1, #8
   24eca:	7120      	strb	r0, [r4, #4]
   24ecc:	70e1      	strb	r1, [r4, #3]
   24ece:	1de0      	adds	r0, r4, #7
   24ed0:	2231      	movs	r2, #49	@ 0x31
   24ed2:	990b      	ldr	r1, [sp, #44]	@ 0x2c
   24ed4:	f002 f9e1 	bl	2729a <__aeabi_memcpy>
   24ed8:	4d04      	ldr	r5, [pc, #16]	@ (24eec <_start+0xcb4>)
   24eda:	446d      	add	r5, sp
   24edc:	4628      	mov	r0, r5
   24ede:	4621      	mov	r1, r4
   24ee0:	f7fe fb0a 	bl	234f8 <_ZN20complex_full_dynamic3app17hc344416e021521d3E>
   24ee4:	7828      	ldrb	r0, [r5, #0]
   24ee6:	2801      	cmp	r0, #1
   24ee8:	d104      	bne.n	24ef4 <_start+0xcbc>
   24eea:	e47a      	b.n	247e2 <_start+0x5aa>
   24eec:	00001404 	.word	0x00001404
   24ef0:	000013a8 	.word	0x000013a8
   24ef4:	4817      	ldr	r0, [pc, #92]	@ (24f54 <_start+0xd1c>)
   24ef6:	4468      	add	r0, sp
   24ef8:	78c1      	ldrb	r1, [r0, #3]
   24efa:	acdf      	add	r4, sp, #892	@ 0x37c
   24efc:	70a1      	strb	r1, [r4, #2]
   24efe:	7841      	ldrb	r1, [r0, #1]
   24f00:	7882      	ldrb	r2, [r0, #2]
   24f02:	0212      	lsls	r2, r2, #8
   24f04:	1851      	adds	r1, r2, r1
   24f06:	8021      	strh	r1, [r4, #0]
   24f08:	3008      	adds	r0, #8
   24f0a:	9908      	ldr	r1, [sp, #32]
   24f0c:	6e09      	ldr	r1, [r1, #96]	@ 0x60
   24f0e:	910a      	str	r1, [sp, #40]	@ 0x28
   24f10:	4b11      	ldr	r3, [pc, #68]	@ (24f58 <_start+0xd20>)
   24f12:	446b      	add	r3, sp
   24f14:	930b      	str	r3, [sp, #44]	@ 0x2c
   24f16:	c864      	ldmia	r0!, {r2, r5, r6}
   24f18:	c364      	stmia	r3!, {r2, r5, r6}
   24f1a:	c866      	ldmia	r0!, {r1, r2, r5, r6}
   24f1c:	c366      	stmia	r3!, {r1, r2, r5, r6}
   24f1e:	c866      	ldmia	r0!, {r1, r2, r5, r6}
   24f20:	c366      	stmia	r3!, {r1, r2, r5, r6}
   24f22:	7800      	ldrb	r0, [r0, #0]
   24f24:	7018      	strb	r0, [r3, #0]
   24f26:	990a      	ldr	r1, [sp, #40]	@ 0x28
   24f28:	0e08      	lsrs	r0, r1, #24
   24f2a:	71a0      	strb	r0, [r4, #6]
   24f2c:	0c08      	lsrs	r0, r1, #16
   24f2e:	7160      	strb	r0, [r4, #5]
   24f30:	0a08      	lsrs	r0, r1, #8
   24f32:	7120      	strb	r0, [r4, #4]
   24f34:	70e1      	strb	r1, [r4, #3]
   24f36:	1de0      	adds	r0, r4, #7
   24f38:	222d      	movs	r2, #45	@ 0x2d
   24f3a:	990b      	ldr	r1, [sp, #44]	@ 0x2c
   24f3c:	f002 f9ad 	bl	2729a <__aeabi_memcpy>
   24f40:	4d04      	ldr	r5, [pc, #16]	@ (24f54 <_start+0xd1c>)
   24f42:	446d      	add	r5, sp
   24f44:	4628      	mov	r0, r5
   24f46:	4621      	mov	r1, r4
   24f48:	f7fb f9d6 	bl	202f8 <_ZN20complex_full_dynamic3app17h04d0feaeb6b31f2eE>
   24f4c:	7828      	ldrb	r0, [r5, #0]
   24f4e:	2801      	cmp	r0, #1
   24f50:	d104      	bne.n	24f5c <_start+0xd24>
   24f52:	e446      	b.n	247e2 <_start+0x5aa>
   24f54:	00001404 	.word	0x00001404
   24f58:	000013a8 	.word	0x000013a8
   24f5c:	4816      	ldr	r0, [pc, #88]	@ (24fb8 <_start+0xd80>)
   24f5e:	4468      	add	r0, sp
   24f60:	78c1      	ldrb	r1, [r0, #3]
   24f62:	acec      	add	r4, sp, #944	@ 0x3b0
   24f64:	70a1      	strb	r1, [r4, #2]
   24f66:	7841      	ldrb	r1, [r0, #1]
   24f68:	7882      	ldrb	r2, [r0, #2]
   24f6a:	0212      	lsls	r2, r2, #8
   24f6c:	1851      	adds	r1, r2, r1
   24f6e:	8021      	strh	r1, [r4, #0]
   24f70:	3008      	adds	r0, #8
   24f72:	9908      	ldr	r1, [sp, #32]
   24f74:	6e09      	ldr	r1, [r1, #96]	@ 0x60
   24f76:	910a      	str	r1, [sp, #40]	@ 0x28
   24f78:	4b10      	ldr	r3, [pc, #64]	@ (24fbc <_start+0xd84>)
   24f7a:	446b      	add	r3, sp
   24f7c:	930b      	str	r3, [sp, #44]	@ 0x2c
   24f7e:	c866      	ldmia	r0!, {r1, r2, r5, r6}
   24f80:	c366      	stmia	r3!, {r1, r2, r5, r6}
   24f82:	8801      	ldrh	r1, [r0, #0]
   24f84:	8019      	strh	r1, [r3, #0]
   24f86:	7880      	ldrb	r0, [r0, #2]
   24f88:	7098      	strb	r0, [r3, #2]
   24f8a:	990a      	ldr	r1, [sp, #40]	@ 0x28
   24f8c:	0e08      	lsrs	r0, r1, #24
   24f8e:	71a0      	strb	r0, [r4, #6]
   24f90:	0c08      	lsrs	r0, r1, #16
   24f92:	7160      	strb	r0, [r4, #5]
   24f94:	0a08      	lsrs	r0, r1, #8
   24f96:	7120      	strb	r0, [r4, #4]
   24f98:	70e1      	strb	r1, [r4, #3]
   24f9a:	1de0      	adds	r0, r4, #7
   24f9c:	2213      	movs	r2, #19
   24f9e:	990b      	ldr	r1, [sp, #44]	@ 0x2c
   24fa0:	f002 f97b 	bl	2729a <__aeabi_memcpy>
   24fa4:	4d04      	ldr	r5, [pc, #16]	@ (24fb8 <_start+0xd80>)
   24fa6:	446d      	add	r5, sp
   24fa8:	4628      	mov	r0, r5
   24faa:	4621      	mov	r1, r4
   24fac:	f7fc fa54 	bl	21458 <_ZN20complex_full_dynamic3app17h373a8b69497078baE>
   24fb0:	7828      	ldrb	r0, [r5, #0]
   24fb2:	2801      	cmp	r0, #1
   24fb4:	d104      	bne.n	24fc0 <_start+0xd88>
   24fb6:	e414      	b.n	247e2 <_start+0x5aa>
   24fb8:	00001404 	.word	0x00001404
   24fbc:	000013a8 	.word	0x000013a8
   24fc0:	4915      	ldr	r1, [pc, #84]	@ (25018 <_start+0xde0>)
   24fc2:	4469      	add	r1, sp
   24fc4:	78c8      	ldrb	r0, [r1, #3]
   24fc6:	acf3      	add	r4, sp, #972	@ 0x3cc
   24fc8:	70a0      	strb	r0, [r4, #2]
   24fca:	7848      	ldrb	r0, [r1, #1]
   24fcc:	788a      	ldrb	r2, [r1, #2]
   24fce:	0212      	lsls	r2, r2, #8
   24fd0:	1810      	adds	r0, r2, r0
   24fd2:	8020      	strh	r0, [r4, #0]
   24fd4:	9808      	ldr	r0, [sp, #32]
   24fd6:	6e05      	ldr	r5, [r0, #96]	@ 0x60
   24fd8:	3108      	adds	r1, #8
   24fda:	4810      	ldr	r0, [pc, #64]	@ (2501c <_start+0xde4>)
   24fdc:	4468      	add	r0, sp
   24fde:	900b      	str	r0, [sp, #44]	@ 0x2c
   24fe0:	2649      	movs	r6, #73	@ 0x49
   24fe2:	4632      	mov	r2, r6
   24fe4:	f001 fff9 	bl	26fda <__aeabi_memcpy4>
   24fe8:	0e28      	lsrs	r0, r5, #24
   24fea:	71a0      	strb	r0, [r4, #6]
   24fec:	0c28      	lsrs	r0, r5, #16
   24fee:	7160      	strb	r0, [r4, #5]
   24ff0:	0a28      	lsrs	r0, r5, #8
   24ff2:	7120      	strb	r0, [r4, #4]
   24ff4:	70e5      	strb	r5, [r4, #3]
   24ff6:	1de0      	adds	r0, r4, #7
   24ff8:	990b      	ldr	r1, [sp, #44]	@ 0x2c
   24ffa:	4632      	mov	r2, r6
   24ffc:	f002 f94d 	bl	2729a <__aeabi_memcpy>
   25000:	4d05      	ldr	r5, [pc, #20]	@ (25018 <_start+0xde0>)
   25002:	446d      	add	r5, sp
   25004:	4628      	mov	r0, r5
   25006:	4621      	mov	r1, r4
   25008:	f7fc fdf6 	bl	21bf8 <_ZN20complex_full_dynamic3app17h5f9127c6f1454eb4E>
   2500c:	7828      	ldrb	r0, [r5, #0]
   2500e:	2801      	cmp	r0, #1
   25010:	d106      	bne.n	25020 <_start+0xde8>
   25012:	f7ff fbe6 	bl	247e2 <_start+0x5aa>
   25016:	46c0      	nop			@ (mov r8, r8)
   25018:	00001404 	.word	0x00001404
   2501c:	000013a8 	.word	0x000013a8
   25020:	4819      	ldr	r0, [pc, #100]	@ (25088 <_start+0xe50>)
   25022:	4468      	add	r0, sp
   25024:	78c1      	ldrb	r1, [r0, #3]
   25026:	acff      	add	r4, sp, #1020	@ 0x3fc
   25028:	3420      	adds	r4, #32
   2502a:	70a1      	strb	r1, [r4, #2]
   2502c:	7841      	ldrb	r1, [r0, #1]
   2502e:	7882      	ldrb	r2, [r0, #2]
   25030:	0212      	lsls	r2, r2, #8
   25032:	1851      	adds	r1, r2, r1
   25034:	8021      	strh	r1, [r4, #0]
   25036:	3008      	adds	r0, #8
   25038:	9908      	ldr	r1, [sp, #32]
   2503a:	6e09      	ldr	r1, [r1, #96]	@ 0x60
   2503c:	910a      	str	r1, [sp, #40]	@ 0x28
   2503e:	4b13      	ldr	r3, [pc, #76]	@ (2508c <_start+0xe54>)
   25040:	446b      	add	r3, sp
   25042:	930b      	str	r3, [sp, #44]	@ 0x2c
   25044:	c864      	ldmia	r0!, {r2, r5, r6}
   25046:	c364      	stmia	r3!, {r2, r5, r6}
   25048:	c864      	ldmia	r0!, {r2, r5, r6}
   2504a:	c364      	stmia	r3!, {r2, r5, r6}
   2504c:	c864      	ldmia	r0!, {r2, r5, r6}
   2504e:	c364      	stmia	r3!, {r2, r5, r6}
   25050:	c866      	ldmia	r0!, {r1, r2, r5, r6}
   25052:	c366      	stmia	r3!, {r1, r2, r5, r6}
   25054:	7800      	ldrb	r0, [r0, #0]
   25056:	7018      	strb	r0, [r3, #0]
   25058:	990a      	ldr	r1, [sp, #40]	@ 0x28
   2505a:	0e08      	lsrs	r0, r1, #24
   2505c:	71a0      	strb	r0, [r4, #6]
   2505e:	0c08      	lsrs	r0, r1, #16
   25060:	7160      	strb	r0, [r4, #5]
   25062:	0a08      	lsrs	r0, r1, #8
   25064:	7120      	strb	r0, [r4, #4]
   25066:	70e1      	strb	r1, [r4, #3]
   25068:	1de0      	adds	r0, r4, #7
   2506a:	2235      	movs	r2, #53	@ 0x35
   2506c:	990b      	ldr	r1, [sp, #44]	@ 0x2c
   2506e:	f002 f914 	bl	2729a <__aeabi_memcpy>
   25072:	4d05      	ldr	r5, [pc, #20]	@ (25088 <_start+0xe50>)
   25074:	446d      	add	r5, sp
   25076:	4628      	mov	r0, r5
   25078:	4621      	mov	r1, r4
   2507a:	f7fc fcaf 	bl	219dc <_ZN20complex_full_dynamic3app17h55bacef572996773E>
   2507e:	7828      	ldrb	r0, [r5, #0]
   25080:	2801      	cmp	r0, #1
   25082:	d105      	bne.n	25090 <_start+0xe58>
   25084:	f7ff fbad 	bl	247e2 <_start+0x5aa>
   25088:	00001404 	.word	0x00001404
   2508c:	000013a8 	.word	0x000013a8
   25090:	4819      	ldr	r0, [pc, #100]	@ (250f8 <_start+0xec0>)
   25092:	4468      	add	r0, sp
   25094:	78c1      	ldrb	r1, [r0, #3]
   25096:	acff      	add	r4, sp, #1020	@ 0x3fc
   25098:	345c      	adds	r4, #92	@ 0x5c
   2509a:	70a1      	strb	r1, [r4, #2]
   2509c:	7841      	ldrb	r1, [r0, #1]
   2509e:	7882      	ldrb	r2, [r0, #2]
   250a0:	0212      	lsls	r2, r2, #8
   250a2:	1851      	adds	r1, r2, r1
   250a4:	8021      	strh	r1, [r4, #0]
   250a6:	3008      	adds	r0, #8
   250a8:	9908      	ldr	r1, [sp, #32]
   250aa:	6e09      	ldr	r1, [r1, #96]	@ 0x60
   250ac:	910a      	str	r1, [sp, #40]	@ 0x28
   250ae:	4b13      	ldr	r3, [pc, #76]	@ (250fc <_start+0xec4>)
   250b0:	446b      	add	r3, sp
   250b2:	930b      	str	r3, [sp, #44]	@ 0x2c
   250b4:	c864      	ldmia	r0!, {r2, r5, r6}
   250b6:	c364      	stmia	r3!, {r2, r5, r6}
   250b8:	c864      	ldmia	r0!, {r2, r5, r6}
   250ba:	c364      	stmia	r3!, {r2, r5, r6}
   250bc:	c866      	ldmia	r0!, {r1, r2, r5, r6}
   250be:	c366      	stmia	r3!, {r1, r2, r5, r6}
   250c0:	8801      	ldrh	r1, [r0, #0]
   250c2:	8019      	strh	r1, [r3, #0]
   250c4:	7880      	ldrb	r0, [r0, #2]
   250c6:	7098      	strb	r0, [r3, #2]
   250c8:	990a      	ldr	r1, [sp, #40]	@ 0x28
   250ca:	0e08      	lsrs	r0, r1, #24
   250cc:	71a0      	strb	r0, [r4, #6]
   250ce:	0c08      	lsrs	r0, r1, #16
   250d0:	7160      	strb	r0, [r4, #5]
   250d2:	0a08      	lsrs	r0, r1, #8
   250d4:	7120      	strb	r0, [r4, #4]
   250d6:	70e1      	strb	r1, [r4, #3]
   250d8:	1de0      	adds	r0, r4, #7
   250da:	222b      	movs	r2, #43	@ 0x2b
   250dc:	990b      	ldr	r1, [sp, #44]	@ 0x2c
   250de:	f002 f8dc 	bl	2729a <__aeabi_memcpy>
   250e2:	4d05      	ldr	r5, [pc, #20]	@ (250f8 <_start+0xec0>)
   250e4:	446d      	add	r5, sp
   250e6:	4628      	mov	r0, r5
   250e8:	4621      	mov	r1, r4
   250ea:	f7fe ff99 	bl	24020 <_ZN20complex_full_dynamic3app17hfbc5d1b5cd4f91dbE>
   250ee:	7828      	ldrb	r0, [r5, #0]
   250f0:	2801      	cmp	r0, #1
   250f2:	d105      	bne.n	25100 <_start+0xec8>
   250f4:	f7ff fb75 	bl	247e2 <_start+0x5aa>
   250f8:	00001404 	.word	0x00001404
   250fc:	000013a8 	.word	0x000013a8
   25100:	4819      	ldr	r0, [pc, #100]	@ (25168 <_start+0xf30>)
   25102:	4468      	add	r0, sp
   25104:	78c1      	ldrb	r1, [r0, #3]
   25106:	acff      	add	r4, sp, #1020	@ 0x3fc
   25108:	3490      	adds	r4, #144	@ 0x90
   2510a:	70a1      	strb	r1, [r4, #2]
   2510c:	7841      	ldrb	r1, [r0, #1]
   2510e:	7882      	ldrb	r2, [r0, #2]
   25110:	0212      	lsls	r2, r2, #8
   25112:	1851      	adds	r1, r2, r1
   25114:	8021      	strh	r1, [r4, #0]
   25116:	3008      	adds	r0, #8
   25118:	9908      	ldr	r1, [sp, #32]
   2511a:	6e09      	ldr	r1, [r1, #96]	@ 0x60
   2511c:	910a      	str	r1, [sp, #40]	@ 0x28
   2511e:	4b13      	ldr	r3, [pc, #76]	@ (2516c <_start+0xf34>)
   25120:	446b      	add	r3, sp
   25122:	930b      	str	r3, [sp, #44]	@ 0x2c
   25124:	c864      	ldmia	r0!, {r2, r5, r6}
   25126:	c364      	stmia	r3!, {r2, r5, r6}
   25128:	c864      	ldmia	r0!, {r2, r5, r6}
   2512a:	c364      	stmia	r3!, {r2, r5, r6}
   2512c:	c866      	ldmia	r0!, {r1, r2, r5, r6}
   2512e:	c366      	stmia	r3!, {r1, r2, r5, r6}
   25130:	8801      	ldrh	r1, [r0, #0]
   25132:	8019      	strh	r1, [r3, #0]
   25134:	7880      	ldrb	r0, [r0, #2]
   25136:	7098      	strb	r0, [r3, #2]
   25138:	990a      	ldr	r1, [sp, #40]	@ 0x28
   2513a:	0e08      	lsrs	r0, r1, #24
   2513c:	71a0      	strb	r0, [r4, #6]
   2513e:	0c08      	lsrs	r0, r1, #16
   25140:	7160      	strb	r0, [r4, #5]
   25142:	0a08      	lsrs	r0, r1, #8
   25144:	7120      	strb	r0, [r4, #4]
   25146:	70e1      	strb	r1, [r4, #3]
   25148:	1de0      	adds	r0, r4, #7
   2514a:	222b      	movs	r2, #43	@ 0x2b
   2514c:	990b      	ldr	r1, [sp, #44]	@ 0x2c
   2514e:	f002 f8a4 	bl	2729a <__aeabi_memcpy>
   25152:	4d05      	ldr	r5, [pc, #20]	@ (25168 <_start+0xf30>)
   25154:	446d      	add	r5, sp
   25156:	4628      	mov	r0, r5
   25158:	4621      	mov	r1, r4
   2515a:	f7fd ff63 	bl	23024 <_ZN20complex_full_dynamic3app17ha9b00a4f847171a1E>
   2515e:	7828      	ldrb	r0, [r5, #0]
   25160:	2801      	cmp	r0, #1
   25162:	d105      	bne.n	25170 <_start+0xf38>
   25164:	f7ff fb3d 	bl	247e2 <_start+0x5aa>
   25168:	00001404 	.word	0x00001404
   2516c:	000013a8 	.word	0x000013a8
   25170:	4914      	ldr	r1, [pc, #80]	@ (251c4 <_start+0xf8c>)
   25172:	4469      	add	r1, sp
   25174:	9b08      	ldr	r3, [sp, #32]
   25176:	6ed8      	ldr	r0, [r3, #108]	@ 0x6c
   25178:	7208      	strb	r0, [r1, #8]
   2517a:	4813      	ldr	r0, [pc, #76]	@ (251c8 <_start+0xf90>)
   2517c:	4468      	add	r0, sp
   2517e:	78c2      	ldrb	r2, [r0, #3]
   25180:	acff      	add	r4, sp, #1020	@ 0x3fc
   25182:	34c4      	adds	r4, #196	@ 0xc4
   25184:	70a2      	strb	r2, [r4, #2]
   25186:	7842      	ldrb	r2, [r0, #1]
   25188:	7880      	ldrb	r0, [r0, #2]
   2518a:	0200      	lsls	r0, r0, #8
   2518c:	1880      	adds	r0, r0, r2
   2518e:	8020      	strh	r0, [r4, #0]
   25190:	6e18      	ldr	r0, [r3, #96]	@ 0x60
   25192:	70e0      	strb	r0, [r4, #3]
   25194:	0e02      	lsrs	r2, r0, #24
   25196:	71a2      	strb	r2, [r4, #6]
   25198:	0c02      	lsrs	r2, r0, #16
   2519a:	7162      	strb	r2, [r4, #5]
   2519c:	0a00      	lsrs	r0, r0, #8
   2519e:	7120      	strb	r0, [r4, #4]
   251a0:	6e58      	ldr	r0, [r3, #100]	@ 0x64
   251a2:	6e9a      	ldr	r2, [r3, #104]	@ 0x68
   251a4:	c305      	stmia	r3!, {r0, r2}
   251a6:	1de0      	adds	r0, r4, #7
   251a8:	2209      	movs	r2, #9
   251aa:	f002 f876 	bl	2729a <__aeabi_memcpy>
   251ae:	4d06      	ldr	r5, [pc, #24]	@ (251c8 <_start+0xf90>)
   251b0:	446d      	add	r5, sp
   251b2:	4628      	mov	r0, r5
   251b4:	4621      	mov	r1, r4
   251b6:	f7fd fd21 	bl	22bfc <_ZN20complex_full_dynamic3app17h99d1c410ef3ba66dE>
   251ba:	7828      	ldrb	r0, [r5, #0]
   251bc:	2801      	cmp	r0, #1
   251be:	d105      	bne.n	251cc <_start+0xf94>
   251c0:	f7ff fb0f 	bl	247e2 <_start+0x5aa>
   251c4:	000013a8 	.word	0x000013a8
   251c8:	00001404 	.word	0x00001404
   251cc:	4819      	ldr	r0, [pc, #100]	@ (25234 <_start+0xffc>)
   251ce:	4468      	add	r0, sp
   251d0:	78c1      	ldrb	r1, [r0, #3]
   251d2:	acff      	add	r4, sp, #1020	@ 0x3fc
   251d4:	34d4      	adds	r4, #212	@ 0xd4
   251d6:	70a1      	strb	r1, [r4, #2]
   251d8:	7841      	ldrb	r1, [r0, #1]
   251da:	7882      	ldrb	r2, [r0, #2]
   251dc:	0212      	lsls	r2, r2, #8
   251de:	1851      	adds	r1, r2, r1
   251e0:	8021      	strh	r1, [r4, #0]
   251e2:	3008      	adds	r0, #8
   251e4:	9908      	ldr	r1, [sp, #32]
   251e6:	6e09      	ldr	r1, [r1, #96]	@ 0x60
   251e8:	910a      	str	r1, [sp, #40]	@ 0x28
   251ea:	4b13      	ldr	r3, [pc, #76]	@ (25238 <_start+0x1000>)
   251ec:	446b      	add	r3, sp
   251ee:	930b      	str	r3, [sp, #44]	@ 0x2c
   251f0:	c864      	ldmia	r0!, {r2, r5, r6}
   251f2:	c364      	stmia	r3!, {r2, r5, r6}
   251f4:	c866      	ldmia	r0!, {r1, r2, r5, r6}
   251f6:	c366      	stmia	r3!, {r1, r2, r5, r6}
   251f8:	c866      	ldmia	r0!, {r1, r2, r5, r6}
   251fa:	c366      	stmia	r3!, {r1, r2, r5, r6}
   251fc:	8801      	ldrh	r1, [r0, #0]
   251fe:	8019      	strh	r1, [r3, #0]
   25200:	7880      	ldrb	r0, [r0, #2]
   25202:	7098      	strb	r0, [r3, #2]
   25204:	990a      	ldr	r1, [sp, #40]	@ 0x28
   25206:	0e08      	lsrs	r0, r1, #24
   25208:	71a0      	strb	r0, [r4, #6]
   2520a:	0c08      	lsrs	r0, r1, #16
   2520c:	7160      	strb	r0, [r4, #5]
   2520e:	0a08      	lsrs	r0, r1, #8
   25210:	7120      	strb	r0, [r4, #4]
   25212:	70e1      	strb	r1, [r4, #3]
   25214:	1de0      	adds	r0, r4, #7
   25216:	222f      	movs	r2, #47	@ 0x2f
   25218:	990b      	ldr	r1, [sp, #44]	@ 0x2c
   2521a:	f002 f83e 	bl	2729a <__aeabi_memcpy>
   2521e:	4d05      	ldr	r5, [pc, #20]	@ (25234 <_start+0xffc>)
   25220:	446d      	add	r5, sp
   25222:	4628      	mov	r0, r5
   25224:	4621      	mov	r1, r4
   25226:	f7fb f91b 	bl	20460 <_ZN20complex_full_dynamic3app17h0935fe3169281970E>
   2522a:	7828      	ldrb	r0, [r5, #0]
   2522c:	2801      	cmp	r0, #1
   2522e:	d105      	bne.n	2523c <_start+0x1004>
   25230:	f7ff fad7 	bl	247e2 <_start+0x5aa>
   25234:	00001404 	.word	0x00001404
   25238:	000013a8 	.word	0x000013a8
   2523c:	9804      	ldr	r0, [sp, #16]
   2523e:	1cc0      	adds	r0, r0, #3
   25240:	4a16      	ldr	r2, [pc, #88]	@ (2529c <_start+0x1064>)
   25242:	446a      	add	r2, sp
   25244:	78d3      	ldrb	r3, [r2, #3]
   25246:	4916      	ldr	r1, [pc, #88]	@ (252a0 <_start+0x1068>)
   25248:	4469      	add	r1, sp
   2524a:	708b      	strb	r3, [r1, #2]
   2524c:	7853      	ldrb	r3, [r2, #1]
   2524e:	7892      	ldrb	r2, [r2, #2]
   25250:	0212      	lsls	r2, r2, #8
   25252:	18d2      	adds	r2, r2, r3
   25254:	800a      	strh	r2, [r1, #0]
   25256:	9c08      	ldr	r4, [sp, #32]
   25258:	3460      	adds	r4, #96	@ 0x60
   2525a:	cc1c      	ldmia	r4, {r2, r3, r4}
   2525c:	0e25      	lsrs	r5, r4, #24
   2525e:	72c5      	strb	r5, [r0, #11]
   25260:	0c25      	lsrs	r5, r4, #16
   25262:	7285      	strb	r5, [r0, #10]
   25264:	0a25      	lsrs	r5, r4, #8
   25266:	7245      	strb	r5, [r0, #9]
   25268:	7204      	strb	r4, [r0, #8]
   2526a:	0e1c      	lsrs	r4, r3, #24
   2526c:	71c4      	strb	r4, [r0, #7]
   2526e:	0c1c      	lsrs	r4, r3, #16
   25270:	7184      	strb	r4, [r0, #6]
   25272:	0a1c      	lsrs	r4, r3, #8
   25274:	7144      	strb	r4, [r0, #5]
   25276:	7103      	strb	r3, [r0, #4]
   25278:	0e13      	lsrs	r3, r2, #24
   2527a:	70c3      	strb	r3, [r0, #3]
   2527c:	0c13      	lsrs	r3, r2, #16
   2527e:	7083      	strb	r3, [r0, #2]
   25280:	0a13      	lsrs	r3, r2, #8
   25282:	7043      	strb	r3, [r0, #1]
   25284:	7002      	strb	r2, [r0, #0]
   25286:	4c05      	ldr	r4, [pc, #20]	@ (2529c <_start+0x1064>)
   25288:	446c      	add	r4, sp
   2528a:	4620      	mov	r0, r4
   2528c:	f7fe fd64 	bl	23d58 <_ZN20complex_full_dynamic3app17hee85fdc4c7366f8fE>
   25290:	7820      	ldrb	r0, [r4, #0]
   25292:	2801      	cmp	r0, #1
   25294:	d106      	bne.n	252a4 <_start+0x106c>
   25296:	f7ff faa4 	bl	247e2 <_start+0x5aa>
   2529a:	46c0      	nop			@ (mov r8, r8)
   2529c:	00001404 	.word	0x00001404
   252a0:	00000508 	.word	0x00000508
   252a4:	4813      	ldr	r0, [pc, #76]	@ (252f4 <_start+0x10bc>)
   252a6:	4468      	add	r0, sp
   252a8:	78c1      	ldrb	r1, [r0, #3]
   252aa:	4c13      	ldr	r4, [pc, #76]	@ (252f8 <_start+0x10c0>)
   252ac:	446c      	add	r4, sp
   252ae:	70a1      	strb	r1, [r4, #2]
   252b0:	7841      	ldrb	r1, [r0, #1]
   252b2:	7880      	ldrb	r0, [r0, #2]
   252b4:	0200      	lsls	r0, r0, #8
   252b6:	1840      	adds	r0, r0, r1
   252b8:	8020      	strh	r0, [r4, #0]
   252ba:	9e08      	ldr	r6, [sp, #32]
   252bc:	4633      	mov	r3, r6
   252be:	3360      	adds	r3, #96	@ 0x60
   252c0:	cb0f      	ldmia	r3, {r0, r1, r2, r3}
   252c2:	70e0      	strb	r0, [r4, #3]
   252c4:	0e05      	lsrs	r5, r0, #24
   252c6:	71a5      	strb	r5, [r4, #6]
   252c8:	0c05      	lsrs	r5, r0, #16
   252ca:	7165      	strb	r5, [r4, #5]
   252cc:	0a00      	lsrs	r0, r0, #8
   252ce:	7120      	strb	r0, [r4, #4]
   252d0:	c60e      	stmia	r6!, {r1, r2, r3}
   252d2:	1de0      	adds	r0, r4, #7
   252d4:	4909      	ldr	r1, [pc, #36]	@ (252fc <_start+0x10c4>)
   252d6:	4469      	add	r1, sp
   252d8:	220c      	movs	r2, #12
   252da:	f001 ffde 	bl	2729a <__aeabi_memcpy>
   252de:	4d05      	ldr	r5, [pc, #20]	@ (252f4 <_start+0x10bc>)
   252e0:	446d      	add	r5, sp
   252e2:	4628      	mov	r0, r5
   252e4:	4621      	mov	r1, r4
   252e6:	f7fe f9bb 	bl	23660 <_ZN20complex_full_dynamic3app17hca776eaf9a3a9b46E>
   252ea:	7828      	ldrb	r0, [r5, #0]
   252ec:	2801      	cmp	r0, #1
   252ee:	d107      	bne.n	25300 <_start+0x10c8>
   252f0:	f7ff fa77 	bl	247e2 <_start+0x5aa>
   252f4:	00001404 	.word	0x00001404
   252f8:	00000518 	.word	0x00000518
   252fc:	000013a8 	.word	0x000013a8
   25300:	4915      	ldr	r1, [pc, #84]	@ (25358 <_start+0x1120>)
   25302:	4469      	add	r1, sp
   25304:	78c8      	ldrb	r0, [r1, #3]
   25306:	4c15      	ldr	r4, [pc, #84]	@ (2535c <_start+0x1124>)
   25308:	446c      	add	r4, sp
   2530a:	70a0      	strb	r0, [r4, #2]
   2530c:	7848      	ldrb	r0, [r1, #1]
   2530e:	788a      	ldrb	r2, [r1, #2]
   25310:	0212      	lsls	r2, r2, #8
   25312:	1810      	adds	r0, r2, r0
   25314:	8020      	strh	r0, [r4, #0]
   25316:	9808      	ldr	r0, [sp, #32]
   25318:	6e05      	ldr	r5, [r0, #96]	@ 0x60
   2531a:	3108      	adds	r1, #8
   2531c:	4810      	ldr	r0, [pc, #64]	@ (25360 <_start+0x1128>)
   2531e:	4468      	add	r0, sp
   25320:	900b      	str	r0, [sp, #44]	@ 0x2c
   25322:	264e      	movs	r6, #78	@ 0x4e
   25324:	4632      	mov	r2, r6
   25326:	f001 fe58 	bl	26fda <__aeabi_memcpy4>
   2532a:	0e28      	lsrs	r0, r5, #24
   2532c:	71a0      	strb	r0, [r4, #6]
   2532e:	0c28      	lsrs	r0, r5, #16
   25330:	7160      	strb	r0, [r4, #5]
   25332:	0a28      	lsrs	r0, r5, #8
   25334:	7120      	strb	r0, [r4, #4]
   25336:	70e5      	strb	r5, [r4, #3]
   25338:	1de0      	adds	r0, r4, #7
   2533a:	990b      	ldr	r1, [sp, #44]	@ 0x2c
   2533c:	4632      	mov	r2, r6
   2533e:	f001 ffac 	bl	2729a <__aeabi_memcpy>
   25342:	4d05      	ldr	r5, [pc, #20]	@ (25358 <_start+0x1120>)
   25344:	446d      	add	r5, sp
   25346:	4628      	mov	r0, r5
   25348:	4621      	mov	r1, r4
   2534a:	f7fb f82f 	bl	203ac <_ZN20complex_full_dynamic3app17h05a947302f7cd833E>
   2534e:	7828      	ldrb	r0, [r5, #0]
   25350:	2801      	cmp	r0, #1
   25352:	d107      	bne.n	25364 <_start+0x112c>
   25354:	f7ff fa45 	bl	247e2 <_start+0x5aa>
   25358:	00001404 	.word	0x00001404
   2535c:	0000052c 	.word	0x0000052c
   25360:	000013a8 	.word	0x000013a8
   25364:	4819      	ldr	r0, [pc, #100]	@ (253cc <_start+0x1194>)
   25366:	4468      	add	r0, sp
   25368:	78c1      	ldrb	r1, [r0, #3]
   2536a:	4c19      	ldr	r4, [pc, #100]	@ (253d0 <_start+0x1198>)
   2536c:	446c      	add	r4, sp
   2536e:	70a1      	strb	r1, [r4, #2]
   25370:	7841      	ldrb	r1, [r0, #1]
   25372:	7882      	ldrb	r2, [r0, #2]
   25374:	0212      	lsls	r2, r2, #8
   25376:	1851      	adds	r1, r2, r1
   25378:	8021      	strh	r1, [r4, #0]
   2537a:	3008      	adds	r0, #8
   2537c:	9908      	ldr	r1, [sp, #32]
   2537e:	6e09      	ldr	r1, [r1, #96]	@ 0x60
   25380:	910a      	str	r1, [sp, #40]	@ 0x28
   25382:	4b14      	ldr	r3, [pc, #80]	@ (253d4 <_start+0x119c>)
   25384:	446b      	add	r3, sp
   25386:	930b      	str	r3, [sp, #44]	@ 0x2c
   25388:	c864      	ldmia	r0!, {r2, r5, r6}
   2538a:	c364      	stmia	r3!, {r2, r5, r6}
   2538c:	c864      	ldmia	r0!, {r2, r5, r6}
   2538e:	c364      	stmia	r3!, {r2, r5, r6}
   25390:	c866      	ldmia	r0!, {r1, r2, r5, r6}
   25392:	c366      	stmia	r3!, {r1, r2, r5, r6}
   25394:	8801      	ldrh	r1, [r0, #0]
   25396:	8019      	strh	r1, [r3, #0]
   25398:	7880      	ldrb	r0, [r0, #2]
   2539a:	7098      	strb	r0, [r3, #2]
   2539c:	990a      	ldr	r1, [sp, #40]	@ 0x28
   2539e:	0e08      	lsrs	r0, r1, #24
   253a0:	71a0      	strb	r0, [r4, #6]
   253a2:	0c08      	lsrs	r0, r1, #16
   253a4:	7160      	strb	r0, [r4, #5]
   253a6:	0a08      	lsrs	r0, r1, #8
   253a8:	7120      	strb	r0, [r4, #4]
   253aa:	70e1      	strb	r1, [r4, #3]
   253ac:	1de0      	adds	r0, r4, #7
   253ae:	222b      	movs	r2, #43	@ 0x2b
   253b0:	990b      	ldr	r1, [sp, #44]	@ 0x2c
   253b2:	f001 ff72 	bl	2729a <__aeabi_memcpy>
   253b6:	4d05      	ldr	r5, [pc, #20]	@ (253cc <_start+0x1194>)
   253b8:	446d      	add	r5, sp
   253ba:	4628      	mov	r0, r5
   253bc:	4621      	mov	r1, r4
   253be:	f7fe fa05 	bl	237cc <_ZN20complex_full_dynamic3app17hce64c8c98f4acb83E>
   253c2:	7828      	ldrb	r0, [r5, #0]
   253c4:	2801      	cmp	r0, #1
   253c6:	d107      	bne.n	253d8 <_start+0x11a0>
   253c8:	f7ff fa0b 	bl	247e2 <_start+0x5aa>
   253cc:	00001404 	.word	0x00001404
   253d0:	00000584 	.word	0x00000584
   253d4:	000013a8 	.word	0x000013a8
   253d8:	4819      	ldr	r0, [pc, #100]	@ (25440 <_start+0x1208>)
   253da:	4468      	add	r0, sp
   253dc:	78c1      	ldrb	r1, [r0, #3]
   253de:	4c19      	ldr	r4, [pc, #100]	@ (25444 <_start+0x120c>)
   253e0:	446c      	add	r4, sp
   253e2:	70a1      	strb	r1, [r4, #2]
   253e4:	7841      	ldrb	r1, [r0, #1]
   253e6:	7882      	ldrb	r2, [r0, #2]
   253e8:	0212      	lsls	r2, r2, #8
   253ea:	1851      	adds	r1, r2, r1
   253ec:	8021      	strh	r1, [r4, #0]
   253ee:	3008      	adds	r0, #8
   253f0:	9908      	ldr	r1, [sp, #32]
   253f2:	6e09      	ldr	r1, [r1, #96]	@ 0x60
   253f4:	910a      	str	r1, [sp, #40]	@ 0x28
   253f6:	4b14      	ldr	r3, [pc, #80]	@ (25448 <_start+0x1210>)
   253f8:	446b      	add	r3, sp
   253fa:	930b      	str	r3, [sp, #44]	@ 0x2c
   253fc:	c864      	ldmia	r0!, {r2, r5, r6}
   253fe:	c364      	stmia	r3!, {r2, r5, r6}
   25400:	c866      	ldmia	r0!, {r1, r2, r5, r6}
   25402:	c366      	stmia	r3!, {r1, r2, r5, r6}
   25404:	c826      	ldmia	r0!, {r1, r2, r5}
   25406:	c326      	stmia	r3!, {r1, r2, r5}
   25408:	c866      	ldmia	r0!, {r1, r2, r5, r6}
   2540a:	c366      	stmia	r3!, {r1, r2, r5, r6}
   2540c:	8800      	ldrh	r0, [r0, #0]
   2540e:	8018      	strh	r0, [r3, #0]
   25410:	990a      	ldr	r1, [sp, #40]	@ 0x28
   25412:	0e08      	lsrs	r0, r1, #24
   25414:	71a0      	strb	r0, [r4, #6]
   25416:	0c08      	lsrs	r0, r1, #16
   25418:	7160      	strb	r0, [r4, #5]
   2541a:	0a08      	lsrs	r0, r1, #8
   2541c:	7120      	strb	r0, [r4, #4]
   2541e:	70e1      	strb	r1, [r4, #3]
   25420:	1de0      	adds	r0, r4, #7
   25422:	223a      	movs	r2, #58	@ 0x3a
   25424:	990b      	ldr	r1, [sp, #44]	@ 0x2c
   25426:	f001 ff38 	bl	2729a <__aeabi_memcpy>
   2542a:	4d05      	ldr	r5, [pc, #20]	@ (25440 <_start+0x1208>)
   2542c:	446d      	add	r5, sp
   2542e:	4628      	mov	r0, r5
   25430:	4621      	mov	r1, r4
   25432:	f7fc fd4d 	bl	21ed0 <_ZN20complex_full_dynamic3app17h6abf90bd6a2e6aceE>
   25436:	7828      	ldrb	r0, [r5, #0]
   25438:	2801      	cmp	r0, #1
   2543a:	d107      	bne.n	2544c <_start+0x1214>
   2543c:	f7ff f9d1 	bl	247e2 <_start+0x5aa>
   25440:	00001404 	.word	0x00001404
   25444:	000005b8 	.word	0x000005b8
   25448:	000013a8 	.word	0x000013a8
   2544c:	4817      	ldr	r0, [pc, #92]	@ (254ac <_start+0x1274>)
   2544e:	4468      	add	r0, sp
   25450:	78c1      	ldrb	r1, [r0, #3]
   25452:	4c17      	ldr	r4, [pc, #92]	@ (254b0 <_start+0x1278>)
   25454:	446c      	add	r4, sp
   25456:	70a1      	strb	r1, [r4, #2]
   25458:	7841      	ldrb	r1, [r0, #1]
   2545a:	7882      	ldrb	r2, [r0, #2]
   2545c:	0212      	lsls	r2, r2, #8
   2545e:	1851      	adds	r1, r2, r1
   25460:	8021      	strh	r1, [r4, #0]
   25462:	3008      	adds	r0, #8
   25464:	9908      	ldr	r1, [sp, #32]
   25466:	6e09      	ldr	r1, [r1, #96]	@ 0x60
   25468:	4b12      	ldr	r3, [pc, #72]	@ (254b4 <_start+0x127c>)
   2546a:	446b      	add	r3, sp
   2546c:	930b      	str	r3, [sp, #44]	@ 0x2c
   2546e:	c864      	ldmia	r0!, {r2, r5, r6}
   25470:	c364      	stmia	r3!, {r2, r5, r6}
   25472:	c864      	ldmia	r0!, {r2, r5, r6}
   25474:	c364      	stmia	r3!, {r2, r5, r6}
   25476:	8802      	ldrh	r2, [r0, #0]
   25478:	801a      	strh	r2, [r3, #0]
   2547a:	7880      	ldrb	r0, [r0, #2]
   2547c:	7098      	strb	r0, [r3, #2]
   2547e:	0e08      	lsrs	r0, r1, #24
   25480:	71a0      	strb	r0, [r4, #6]
   25482:	0c08      	lsrs	r0, r1, #16
   25484:	7160      	strb	r0, [r4, #5]
   25486:	0a08      	lsrs	r0, r1, #8
   25488:	7120      	strb	r0, [r4, #4]
   2548a:	70e1      	strb	r1, [r4, #3]
   2548c:	1de0      	adds	r0, r4, #7
   2548e:	221b      	movs	r2, #27
   25490:	990b      	ldr	r1, [sp, #44]	@ 0x2c
   25492:	f001 ff02 	bl	2729a <__aeabi_memcpy>
   25496:	4d05      	ldr	r5, [pc, #20]	@ (254ac <_start+0x1274>)
   25498:	446d      	add	r5, sp
   2549a:	4628      	mov	r0, r5
   2549c:	4621      	mov	r1, r4
   2549e:	f7fd fa49 	bl	22934 <_ZN20complex_full_dynamic3app17h95cfeff6902b0424E>
   254a2:	7828      	ldrb	r0, [r5, #0]
   254a4:	2801      	cmp	r0, #1
   254a6:	d107      	bne.n	254b8 <_start+0x1280>
   254a8:	f7ff f99b 	bl	247e2 <_start+0x5aa>
   254ac:	00001404 	.word	0x00001404
   254b0:	000005fc 	.word	0x000005fc
   254b4:	000013a8 	.word	0x000013a8
   254b8:	4915      	ldr	r1, [pc, #84]	@ (25510 <_start+0x12d8>)
   254ba:	4469      	add	r1, sp
   254bc:	78c8      	ldrb	r0, [r1, #3]
   254be:	4c15      	ldr	r4, [pc, #84]	@ (25514 <_start+0x12dc>)
   254c0:	446c      	add	r4, sp
   254c2:	70a0      	strb	r0, [r4, #2]
   254c4:	7848      	ldrb	r0, [r1, #1]
   254c6:	788a      	ldrb	r2, [r1, #2]
   254c8:	0212      	lsls	r2, r2, #8
   254ca:	1810      	adds	r0, r2, r0
   254cc:	8020      	strh	r0, [r4, #0]
   254ce:	9808      	ldr	r0, [sp, #32]
   254d0:	6e05      	ldr	r5, [r0, #96]	@ 0x60
   254d2:	3108      	adds	r1, #8
   254d4:	4810      	ldr	r0, [pc, #64]	@ (25518 <_start+0x12e0>)
   254d6:	4468      	add	r0, sp
   254d8:	900b      	str	r0, [sp, #44]	@ 0x2c
   254da:	264a      	movs	r6, #74	@ 0x4a
   254dc:	4632      	mov	r2, r6
   254de:	f001 fd7c 	bl	26fda <__aeabi_memcpy4>
   254e2:	0e28      	lsrs	r0, r5, #24
   254e4:	71a0      	strb	r0, [r4, #6]
   254e6:	0c28      	lsrs	r0, r5, #16
   254e8:	7160      	strb	r0, [r4, #5]
   254ea:	0a28      	lsrs	r0, r5, #8
   254ec:	7120      	strb	r0, [r4, #4]
   254ee:	70e5      	strb	r5, [r4, #3]
   254f0:	1de0      	adds	r0, r4, #7
   254f2:	990b      	ldr	r1, [sp, #44]	@ 0x2c
   254f4:	4632      	mov	r2, r6
   254f6:	f001 fed0 	bl	2729a <__aeabi_memcpy>
   254fa:	4d05      	ldr	r5, [pc, #20]	@ (25510 <_start+0x12d8>)
   254fc:	446d      	add	r5, sp
   254fe:	4628      	mov	r0, r5
   25500:	4621      	mov	r1, r4
   25502:	f7fb f967 	bl	207d4 <_ZN20complex_full_dynamic3app17h189c30f235a7729aE>
   25506:	7828      	ldrb	r0, [r5, #0]
   25508:	2801      	cmp	r0, #1
   2550a:	d107      	bne.n	2551c <_start+0x12e4>
   2550c:	f7ff f969 	bl	247e2 <_start+0x5aa>
   25510:	00001404 	.word	0x00001404
   25514:	00000620 	.word	0x00000620
   25518:	000013a8 	.word	0x000013a8
   2551c:	4915      	ldr	r1, [pc, #84]	@ (25574 <_start+0x133c>)
   2551e:	4469      	add	r1, sp
   25520:	78c8      	ldrb	r0, [r1, #3]
   25522:	4c15      	ldr	r4, [pc, #84]	@ (25578 <_start+0x1340>)
   25524:	446c      	add	r4, sp
   25526:	70a0      	strb	r0, [r4, #2]
   25528:	7848      	ldrb	r0, [r1, #1]
   2552a:	788a      	ldrb	r2, [r1, #2]
   2552c:	0212      	lsls	r2, r2, #8
   2552e:	1810      	adds	r0, r2, r0
   25530:	8020      	strh	r0, [r4, #0]
   25532:	9808      	ldr	r0, [sp, #32]
   25534:	6e05      	ldr	r5, [r0, #96]	@ 0x60
   25536:	3108      	adds	r1, #8
   25538:	4810      	ldr	r0, [pc, #64]	@ (2557c <_start+0x1344>)
   2553a:	4468      	add	r0, sp
   2553c:	900b      	str	r0, [sp, #44]	@ 0x2c
   2553e:	2648      	movs	r6, #72	@ 0x48
   25540:	4632      	mov	r2, r6
   25542:	f001 fd4a 	bl	26fda <__aeabi_memcpy4>
   25546:	0e28      	lsrs	r0, r5, #24
   25548:	71a0      	strb	r0, [r4, #6]
   2554a:	0c28      	lsrs	r0, r5, #16
   2554c:	7160      	strb	r0, [r4, #5]
   2554e:	0a28      	lsrs	r0, r5, #8
   25550:	7120      	strb	r0, [r4, #4]
   25552:	70e5      	strb	r5, [r4, #3]
   25554:	1de0      	adds	r0, r4, #7
   25556:	990b      	ldr	r1, [sp, #44]	@ 0x2c
   25558:	4632      	mov	r2, r6
   2555a:	f001 fe9e 	bl	2729a <__aeabi_memcpy>
   2555e:	4d05      	ldr	r5, [pc, #20]	@ (25574 <_start+0x133c>)
   25560:	446d      	add	r5, sp
   25562:	4628      	mov	r0, r5
   25564:	4621      	mov	r1, r4
   25566:	f7fa fe6d 	bl	20244 <_ZN20complex_full_dynamic3app17h03dcc88312ac9a84E>
   2556a:	7828      	ldrb	r0, [r5, #0]
   2556c:	2801      	cmp	r0, #1
   2556e:	d107      	bne.n	25580 <_start+0x1348>
   25570:	f7ff f937 	bl	247e2 <_start+0x5aa>
   25574:	00001404 	.word	0x00001404
   25578:	00000674 	.word	0x00000674
   2557c:	000013a8 	.word	0x000013a8
   25580:	4818      	ldr	r0, [pc, #96]	@ (255e4 <_start+0x13ac>)
   25582:	4468      	add	r0, sp
   25584:	78c1      	ldrb	r1, [r0, #3]
   25586:	4c18      	ldr	r4, [pc, #96]	@ (255e8 <_start+0x13b0>)
   25588:	446c      	add	r4, sp
   2558a:	70a1      	strb	r1, [r4, #2]
   2558c:	7841      	ldrb	r1, [r0, #1]
   2558e:	7882      	ldrb	r2, [r0, #2]
   25590:	0212      	lsls	r2, r2, #8
   25592:	1851      	adds	r1, r2, r1
   25594:	8021      	strh	r1, [r4, #0]
   25596:	3008      	adds	r0, #8
   25598:	9908      	ldr	r1, [sp, #32]
   2559a:	6e09      	ldr	r1, [r1, #96]	@ 0x60
   2559c:	910a      	str	r1, [sp, #40]	@ 0x28
   2559e:	4b13      	ldr	r3, [pc, #76]	@ (255ec <_start+0x13b4>)
   255a0:	446b      	add	r3, sp
   255a2:	930b      	str	r3, [sp, #44]	@ 0x2c
   255a4:	c864      	ldmia	r0!, {r2, r5, r6}
   255a6:	c364      	stmia	r3!, {r2, r5, r6}
   255a8:	c864      	ldmia	r0!, {r2, r5, r6}
   255aa:	c364      	stmia	r3!, {r2, r5, r6}
   255ac:	c864      	ldmia	r0!, {r2, r5, r6}
   255ae:	c364      	stmia	r3!, {r2, r5, r6}
   255b0:	c866      	ldmia	r0!, {r1, r2, r5, r6}
   255b2:	c366      	stmia	r3!, {r1, r2, r5, r6}
   255b4:	990a      	ldr	r1, [sp, #40]	@ 0x28
   255b6:	0e08      	lsrs	r0, r1, #24
   255b8:	71a0      	strb	r0, [r4, #6]
   255ba:	0c08      	lsrs	r0, r1, #16
   255bc:	7160      	strb	r0, [r4, #5]
   255be:	0a08      	lsrs	r0, r1, #8
   255c0:	7120      	strb	r0, [r4, #4]
   255c2:	70e1      	strb	r1, [r4, #3]
   255c4:	1de0      	adds	r0, r4, #7
   255c6:	2234      	movs	r2, #52	@ 0x34
   255c8:	990b      	ldr	r1, [sp, #44]	@ 0x2c
   255ca:	f001 fe66 	bl	2729a <__aeabi_memcpy>
   255ce:	4d05      	ldr	r5, [pc, #20]	@ (255e4 <_start+0x13ac>)
   255d0:	446d      	add	r5, sp
   255d2:	4628      	mov	r0, r5
   255d4:	4621      	mov	r1, r4
   255d6:	f7fe fa5d 	bl	23a94 <_ZN20complex_full_dynamic3app17he44c667dda1868f4E>
   255da:	7828      	ldrb	r0, [r5, #0]
   255dc:	2801      	cmp	r0, #1
   255de:	d107      	bne.n	255f0 <_start+0x13b8>
   255e0:	f7ff f8ff 	bl	247e2 <_start+0x5aa>
   255e4:	00001404 	.word	0x00001404
   255e8:	000006c4 	.word	0x000006c4
   255ec:	000013a8 	.word	0x000013a8
   255f0:	4816      	ldr	r0, [pc, #88]	@ (2564c <_start+0x1414>)
   255f2:	4468      	add	r0, sp
   255f4:	78c1      	ldrb	r1, [r0, #3]
   255f6:	4c16      	ldr	r4, [pc, #88]	@ (25650 <_start+0x1418>)
   255f8:	446c      	add	r4, sp
   255fa:	70a1      	strb	r1, [r4, #2]
   255fc:	7841      	ldrb	r1, [r0, #1]
   255fe:	7882      	ldrb	r2, [r0, #2]
   25600:	0212      	lsls	r2, r2, #8
   25602:	1851      	adds	r1, r2, r1
   25604:	8021      	strh	r1, [r4, #0]
   25606:	3008      	adds	r0, #8
   25608:	9908      	ldr	r1, [sp, #32]
   2560a:	6e09      	ldr	r1, [r1, #96]	@ 0x60
   2560c:	910a      	str	r1, [sp, #40]	@ 0x28
   2560e:	4b11      	ldr	r3, [pc, #68]	@ (25654 <_start+0x141c>)
   25610:	446b      	add	r3, sp
   25612:	930b      	str	r3, [sp, #44]	@ 0x2c
   25614:	c866      	ldmia	r0!, {r1, r2, r5, r6}
   25616:	c366      	stmia	r3!, {r1, r2, r5, r6}
   25618:	c866      	ldmia	r0!, {r1, r2, r5, r6}
   2561a:	c366      	stmia	r3!, {r1, r2, r5, r6}
   2561c:	990a      	ldr	r1, [sp, #40]	@ 0x28
   2561e:	0e08      	lsrs	r0, r1, #24
   25620:	71a0      	strb	r0, [r4, #6]
   25622:	0c08      	lsrs	r0, r1, #16
   25624:	7160      	strb	r0, [r4, #5]
   25626:	0a08      	lsrs	r0, r1, #8
   25628:	7120      	strb	r0, [r4, #4]
   2562a:	70e1      	strb	r1, [r4, #3]
   2562c:	1de0      	adds	r0, r4, #7
   2562e:	2220      	movs	r2, #32
   25630:	990b      	ldr	r1, [sp, #44]	@ 0x2c
   25632:	f001 fe32 	bl	2729a <__aeabi_memcpy>
   25636:	4d05      	ldr	r5, [pc, #20]	@ (2564c <_start+0x1414>)
   25638:	446d      	add	r5, sp
   2563a:	4628      	mov	r0, r5
   2563c:	4621      	mov	r1, r4
   2563e:	f7fc fe03 	bl	22248 <_ZN20complex_full_dynamic3app17h7708849263a7b41cE>
   25642:	7828      	ldrb	r0, [r5, #0]
   25644:	2801      	cmp	r0, #1
   25646:	d107      	bne.n	25658 <_start+0x1420>
   25648:	f7ff f8cb 	bl	247e2 <_start+0x5aa>
   2564c:	00001404 	.word	0x00001404
   25650:	00000700 	.word	0x00000700
   25654:	000013a8 	.word	0x000013a8
   25658:	4915      	ldr	r1, [pc, #84]	@ (256b0 <_start+0x1478>)
   2565a:	4469      	add	r1, sp
   2565c:	9d08      	ldr	r5, [sp, #32]
   2565e:	6f28      	ldr	r0, [r5, #112]	@ 0x70
   25660:	7308      	strb	r0, [r1, #12]
   25662:	4814      	ldr	r0, [pc, #80]	@ (256b4 <_start+0x147c>)
   25664:	4468      	add	r0, sp
   25666:	78c2      	ldrb	r2, [r0, #3]
   25668:	4c13      	ldr	r4, [pc, #76]	@ (256b8 <_start+0x1480>)
   2566a:	446c      	add	r4, sp
   2566c:	70a2      	strb	r2, [r4, #2]
   2566e:	7842      	ldrb	r2, [r0, #1]
   25670:	7880      	ldrb	r0, [r0, #2]
   25672:	0200      	lsls	r0, r0, #8
   25674:	1880      	adds	r0, r0, r2
   25676:	8020      	strh	r0, [r4, #0]
   25678:	6e28      	ldr	r0, [r5, #96]	@ 0x60
   2567a:	70e0      	strb	r0, [r4, #3]
   2567c:	0e02      	lsrs	r2, r0, #24
   2567e:	71a2      	strb	r2, [r4, #6]
   25680:	0c02      	lsrs	r2, r0, #16
   25682:	7162      	strb	r2, [r4, #5]
   25684:	0a00      	lsrs	r0, r0, #8
   25686:	7120      	strb	r0, [r4, #4]
   25688:	462b      	mov	r3, r5
   2568a:	3364      	adds	r3, #100	@ 0x64
   2568c:	cb0d      	ldmia	r3, {r0, r2, r3}
   2568e:	c50d      	stmia	r5!, {r0, r2, r3}
   25690:	1de0      	adds	r0, r4, #7
   25692:	220d      	movs	r2, #13
   25694:	f001 fe01 	bl	2729a <__aeabi_memcpy>
   25698:	4d06      	ldr	r5, [pc, #24]	@ (256b4 <_start+0x147c>)
   2569a:	446d      	add	r5, sp
   2569c:	4628      	mov	r0, r5
   2569e:	4621      	mov	r1, r4
   256a0:	f7fd fbb6 	bl	22e10 <_ZN20complex_full_dynamic3app17ha6357d96bce04162E>
   256a4:	7828      	ldrb	r0, [r5, #0]
   256a6:	2801      	cmp	r0, #1
   256a8:	d108      	bne.n	256bc <_start+0x1484>
   256aa:	f7ff f89a 	bl	247e2 <_start+0x5aa>
   256ae:	46c0      	nop			@ (mov r8, r8)
   256b0:	000013a8 	.word	0x000013a8
   256b4:	00001404 	.word	0x00001404
   256b8:	00000728 	.word	0x00000728
   256bc:	4816      	ldr	r0, [pc, #88]	@ (25718 <_start+0x14e0>)
   256be:	4468      	add	r0, sp
   256c0:	78c1      	ldrb	r1, [r0, #3]
   256c2:	4c16      	ldr	r4, [pc, #88]	@ (2571c <_start+0x14e4>)
   256c4:	446c      	add	r4, sp
   256c6:	70a1      	strb	r1, [r4, #2]
   256c8:	7841      	ldrb	r1, [r0, #1]
   256ca:	7882      	ldrb	r2, [r0, #2]
   256cc:	0212      	lsls	r2, r2, #8
   256ce:	1851      	adds	r1, r2, r1
   256d0:	8021      	strh	r1, [r4, #0]
   256d2:	3008      	adds	r0, #8
   256d4:	9908      	ldr	r1, [sp, #32]
   256d6:	6e09      	ldr	r1, [r1, #96]	@ 0x60
   256d8:	4b11      	ldr	r3, [pc, #68]	@ (25720 <_start+0x14e8>)
   256da:	446b      	add	r3, sp
   256dc:	930b      	str	r3, [sp, #44]	@ 0x2c
   256de:	c864      	ldmia	r0!, {r2, r5, r6}
   256e0:	c364      	stmia	r3!, {r2, r5, r6}
   256e2:	c864      	ldmia	r0!, {r2, r5, r6}
   256e4:	c364      	stmia	r3!, {r2, r5, r6}
   256e6:	c864      	ldmia	r0!, {r2, r5, r6}
   256e8:	c364      	stmia	r3!, {r2, r5, r6}
   256ea:	0e08      	lsrs	r0, r1, #24
   256ec:	71a0      	strb	r0, [r4, #6]
   256ee:	0c08      	lsrs	r0, r1, #16
   256f0:	7160      	strb	r0, [r4, #5]
   256f2:	0a08      	lsrs	r0, r1, #8
   256f4:	7120      	strb	r0, [r4, #4]
   256f6:	70e1      	strb	r1, [r4, #3]
   256f8:	1de0      	adds	r0, r4, #7
   256fa:	2224      	movs	r2, #36	@ 0x24
   256fc:	990b      	ldr	r1, [sp, #44]	@ 0x2c
   256fe:	f001 fdcc 	bl	2729a <__aeabi_memcpy>
   25702:	4d05      	ldr	r5, [pc, #20]	@ (25718 <_start+0x14e0>)
   25704:	446d      	add	r5, sp
   25706:	4628      	mov	r0, r5
   25708:	4621      	mov	r1, r4
   2570a:	f7fc f9c1 	bl	21a90 <_ZN20complex_full_dynamic3app17h5a9d0e92739ca22cE>
   2570e:	7828      	ldrb	r0, [r5, #0]
   25710:	2801      	cmp	r0, #1
   25712:	d107      	bne.n	25724 <_start+0x14ec>
   25714:	f7ff f865 	bl	247e2 <_start+0x5aa>
   25718:	00001404 	.word	0x00001404
   2571c:	0000073c 	.word	0x0000073c
   25720:	000013a8 	.word	0x000013a8
   25724:	4817      	ldr	r0, [pc, #92]	@ (25784 <_start+0x154c>)
   25726:	4468      	add	r0, sp
   25728:	78c1      	ldrb	r1, [r0, #3]
   2572a:	4c17      	ldr	r4, [pc, #92]	@ (25788 <_start+0x1550>)
   2572c:	446c      	add	r4, sp
   2572e:	70a1      	strb	r1, [r4, #2]
   25730:	7841      	ldrb	r1, [r0, #1]
   25732:	7882      	ldrb	r2, [r0, #2]
   25734:	0212      	lsls	r2, r2, #8
   25736:	1851      	adds	r1, r2, r1
   25738:	8021      	strh	r1, [r4, #0]
   2573a:	3008      	adds	r0, #8
   2573c:	9908      	ldr	r1, [sp, #32]
   2573e:	6e09      	ldr	r1, [r1, #96]	@ 0x60
   25740:	4b12      	ldr	r3, [pc, #72]	@ (2578c <_start+0x1554>)
   25742:	446b      	add	r3, sp
   25744:	930b      	str	r3, [sp, #44]	@ 0x2c
   25746:	c860      	ldmia	r0!, {r5, r6}
   25748:	c360      	stmia	r3!, {r5, r6}
   2574a:	c864      	ldmia	r0!, {r2, r5, r6}
   2574c:	c364      	stmia	r3!, {r2, r5, r6}
   2574e:	8802      	ldrh	r2, [r0, #0]
   25750:	801a      	strh	r2, [r3, #0]
   25752:	7880      	ldrb	r0, [r0, #2]
   25754:	7098      	strb	r0, [r3, #2]
   25756:	0e08      	lsrs	r0, r1, #24
   25758:	71a0      	strb	r0, [r4, #6]
   2575a:	0c08      	lsrs	r0, r1, #16
   2575c:	7160      	strb	r0, [r4, #5]
   2575e:	0a08      	lsrs	r0, r1, #8
   25760:	7120      	strb	r0, [r4, #4]
   25762:	70e1      	strb	r1, [r4, #3]
   25764:	1de0      	adds	r0, r4, #7
   25766:	2217      	movs	r2, #23
   25768:	990b      	ldr	r1, [sp, #44]	@ 0x2c
   2576a:	f001 fd96 	bl	2729a <__aeabi_memcpy>
   2576e:	4d05      	ldr	r5, [pc, #20]	@ (25784 <_start+0x154c>)
   25770:	446d      	add	r5, sp
   25772:	4628      	mov	r0, r5
   25774:	4621      	mov	r1, r4
   25776:	f7fc fe19 	bl	223ac <_ZN20complex_full_dynamic3app17h7d1fd940084578deE>
   2577a:	7828      	ldrb	r0, [r5, #0]
   2577c:	2801      	cmp	r0, #1
   2577e:	d107      	bne.n	25790 <_start+0x1558>
   25780:	f7ff f82f 	bl	247e2 <_start+0x5aa>
   25784:	00001404 	.word	0x00001404
   25788:	00000768 	.word	0x00000768
   2578c:	000013a8 	.word	0x000013a8
   25790:	4915      	ldr	r1, [pc, #84]	@ (257e8 <_start+0x15b0>)
   25792:	4469      	add	r1, sp
   25794:	78c8      	ldrb	r0, [r1, #3]
   25796:	4c15      	ldr	r4, [pc, #84]	@ (257ec <_start+0x15b4>)
   25798:	446c      	add	r4, sp
   2579a:	70a0      	strb	r0, [r4, #2]
   2579c:	7848      	ldrb	r0, [r1, #1]
   2579e:	788a      	ldrb	r2, [r1, #2]
   257a0:	0212      	lsls	r2, r2, #8
   257a2:	1810      	adds	r0, r2, r0
   257a4:	8020      	strh	r0, [r4, #0]
   257a6:	9808      	ldr	r0, [sp, #32]
   257a8:	6e05      	ldr	r5, [r0, #96]	@ 0x60
   257aa:	3108      	adds	r1, #8
   257ac:	4810      	ldr	r0, [pc, #64]	@ (257f0 <_start+0x15b8>)
   257ae:	4468      	add	r0, sp
   257b0:	900b      	str	r0, [sp, #44]	@ 0x2c
   257b2:	264a      	movs	r6, #74	@ 0x4a
   257b4:	4632      	mov	r2, r6
   257b6:	f001 fc10 	bl	26fda <__aeabi_memcpy4>
   257ba:	0e28      	lsrs	r0, r5, #24
   257bc:	71a0      	strb	r0, [r4, #6]
   257be:	0c28      	lsrs	r0, r5, #16
   257c0:	7160      	strb	r0, [r4, #5]
   257c2:	0a28      	lsrs	r0, r5, #8
   257c4:	7120      	strb	r0, [r4, #4]
   257c6:	70e5      	strb	r5, [r4, #3]
   257c8:	1de0      	adds	r0, r4, #7
   257ca:	990b      	ldr	r1, [sp, #44]	@ 0x2c
   257cc:	4632      	mov	r2, r6
   257ce:	f001 fd64 	bl	2729a <__aeabi_memcpy>
   257d2:	4d05      	ldr	r5, [pc, #20]	@ (257e8 <_start+0x15b0>)
   257d4:	446d      	add	r5, sp
   257d6:	4628      	mov	r0, r5
   257d8:	4621      	mov	r1, r4
   257da:	f7fd f853 	bl	22884 <_ZN20complex_full_dynamic3app17h90d56a5c7759a8c5E>
   257de:	7828      	ldrb	r0, [r5, #0]
   257e0:	2801      	cmp	r0, #1
   257e2:	d107      	bne.n	257f4 <_start+0x15bc>
   257e4:	f7fe fffd 	bl	247e2 <_start+0x5aa>
   257e8:	00001404 	.word	0x00001404
   257ec:	00000788 	.word	0x00000788
   257f0:	000013a8 	.word	0x000013a8
   257f4:	9805      	ldr	r0, [sp, #20]
   257f6:	1cc0      	adds	r0, r0, #3
   257f8:	4a16      	ldr	r2, [pc, #88]	@ (25854 <_start+0x161c>)
   257fa:	446a      	add	r2, sp
   257fc:	78d3      	ldrb	r3, [r2, #3]
   257fe:	4916      	ldr	r1, [pc, #88]	@ (25858 <_start+0x1620>)
   25800:	4469      	add	r1, sp
   25802:	708b      	strb	r3, [r1, #2]
   25804:	7853      	ldrb	r3, [r2, #1]
   25806:	7892      	ldrb	r2, [r2, #2]
   25808:	0212      	lsls	r2, r2, #8
   2580a:	18d2      	adds	r2, r2, r3
   2580c:	800a      	strh	r2, [r1, #0]
   2580e:	9c08      	ldr	r4, [sp, #32]
   25810:	3460      	adds	r4, #96	@ 0x60
   25812:	cc1c      	ldmia	r4, {r2, r3, r4}
   25814:	0e25      	lsrs	r5, r4, #24
   25816:	72c5      	strb	r5, [r0, #11]
   25818:	0c25      	lsrs	r5, r4, #16
   2581a:	7285      	strb	r5, [r0, #10]
   2581c:	0a25      	lsrs	r5, r4, #8
   2581e:	7245      	strb	r5, [r0, #9]
   25820:	7204      	strb	r4, [r0, #8]
   25822:	0e1c      	lsrs	r4, r3, #24
   25824:	71c4      	strb	r4, [r0, #7]
   25826:	0c1c      	lsrs	r4, r3, #16
   25828:	7184      	strb	r4, [r0, #6]
   2582a:	0a1c      	lsrs	r4, r3, #8
   2582c:	7144      	strb	r4, [r0, #5]
   2582e:	7103      	strb	r3, [r0, #4]
   25830:	0e13      	lsrs	r3, r2, #24
   25832:	70c3      	strb	r3, [r0, #3]
   25834:	0c13      	lsrs	r3, r2, #16
   25836:	7083      	strb	r3, [r0, #2]
   25838:	0a13      	lsrs	r3, r2, #8
   2583a:	7043      	strb	r3, [r0, #1]
   2583c:	7002      	strb	r2, [r0, #0]
   2583e:	4c05      	ldr	r4, [pc, #20]	@ (25854 <_start+0x161c>)
   25840:	446c      	add	r4, sp
   25842:	4620      	mov	r0, r4
   25844:	f7fa ff6c 	bl	20720 <_ZN20complex_full_dynamic3app17h15b640592df1744cE>
   25848:	7820      	ldrb	r0, [r4, #0]
   2584a:	2801      	cmp	r0, #1
   2584c:	d106      	bne.n	2585c <_start+0x1624>
   2584e:	f7fe ffc8 	bl	247e2 <_start+0x5aa>
   25852:	46c0      	nop			@ (mov r8, r8)
   25854:	00001404 	.word	0x00001404
   25858:	000007dc 	.word	0x000007dc
   2585c:	481a      	ldr	r0, [pc, #104]	@ (258c8 <_start+0x1690>)
   2585e:	4468      	add	r0, sp
   25860:	78c1      	ldrb	r1, [r0, #3]
   25862:	4c1a      	ldr	r4, [pc, #104]	@ (258cc <_start+0x1694>)
   25864:	446c      	add	r4, sp
   25866:	70a1      	strb	r1, [r4, #2]
   25868:	7841      	ldrb	r1, [r0, #1]
   2586a:	7882      	ldrb	r2, [r0, #2]
   2586c:	0212      	lsls	r2, r2, #8
   2586e:	1851      	adds	r1, r2, r1
   25870:	8021      	strh	r1, [r4, #0]
   25872:	3008      	adds	r0, #8
   25874:	9908      	ldr	r1, [sp, #32]
   25876:	6e09      	ldr	r1, [r1, #96]	@ 0x60
   25878:	910a      	str	r1, [sp, #40]	@ 0x28
   2587a:	4b15      	ldr	r3, [pc, #84]	@ (258d0 <_start+0x1698>)
   2587c:	446b      	add	r3, sp
   2587e:	930b      	str	r3, [sp, #44]	@ 0x2c
   25880:	c864      	ldmia	r0!, {r2, r5, r6}
   25882:	c364      	stmia	r3!, {r2, r5, r6}
   25884:	c866      	ldmia	r0!, {r1, r2, r5, r6}
   25886:	c366      	stmia	r3!, {r1, r2, r5, r6}
   25888:	c866      	ldmia	r0!, {r1, r2, r5, r6}
   2588a:	c366      	stmia	r3!, {r1, r2, r5, r6}
   2588c:	c866      	ldmia	r0!, {r1, r2, r5, r6}
   2588e:	c366      	stmia	r3!, {r1, r2, r5, r6}
   25890:	8801      	ldrh	r1, [r0, #0]
   25892:	8019      	strh	r1, [r3, #0]
   25894:	7880      	ldrb	r0, [r0, #2]
   25896:	7098      	strb	r0, [r3, #2]
   25898:	990a      	ldr	r1, [sp, #40]	@ 0x28
   2589a:	0e08      	lsrs	r0, r1, #24
   2589c:	71a0      	strb	r0, [r4, #6]
   2589e:	0c08      	lsrs	r0, r1, #16
   258a0:	7160      	strb	r0, [r4, #5]
   258a2:	0a08      	lsrs	r0, r1, #8
   258a4:	7120      	strb	r0, [r4, #4]
   258a6:	70e1      	strb	r1, [r4, #3]
   258a8:	1de0      	adds	r0, r4, #7
   258aa:	223f      	movs	r2, #63	@ 0x3f
   258ac:	990b      	ldr	r1, [sp, #44]	@ 0x2c
   258ae:	f001 fcf4 	bl	2729a <__aeabi_memcpy>
   258b2:	4d05      	ldr	r5, [pc, #20]	@ (258c8 <_start+0x1690>)
   258b4:	446d      	add	r5, sp
   258b6:	4628      	mov	r0, r5
   258b8:	4621      	mov	r1, r4
   258ba:	f7fb fed5 	bl	21668 <_ZN20complex_full_dynamic3app17h4a13520f538cecb3E>
   258be:	7828      	ldrb	r0, [r5, #0]
   258c0:	2801      	cmp	r0, #1
   258c2:	d107      	bne.n	258d4 <_start+0x169c>
   258c4:	f7fe ff8d 	bl	247e2 <_start+0x5aa>
   258c8:	00001404 	.word	0x00001404
   258cc:	000007ec 	.word	0x000007ec
   258d0:	000013a8 	.word	0x000013a8
   258d4:	4915      	ldr	r1, [pc, #84]	@ (2592c <_start+0x16f4>)
   258d6:	4469      	add	r1, sp
   258d8:	78c8      	ldrb	r0, [r1, #3]
   258da:	4c15      	ldr	r4, [pc, #84]	@ (25930 <_start+0x16f8>)
   258dc:	446c      	add	r4, sp
   258de:	70a0      	strb	r0, [r4, #2]
   258e0:	7848      	ldrb	r0, [r1, #1]
   258e2:	788a      	ldrb	r2, [r1, #2]
   258e4:	0212      	lsls	r2, r2, #8
   258e6:	1810      	adds	r0, r2, r0
   258e8:	8020      	strh	r0, [r4, #0]
   258ea:	9808      	ldr	r0, [sp, #32]
   258ec:	6e05      	ldr	r5, [r0, #96]	@ 0x60
   258ee:	3108      	adds	r1, #8
   258f0:	4810      	ldr	r0, [pc, #64]	@ (25934 <_start+0x16fc>)
   258f2:	4468      	add	r0, sp
   258f4:	900b      	str	r0, [sp, #44]	@ 0x2c
   258f6:	264f      	movs	r6, #79	@ 0x4f
   258f8:	4632      	mov	r2, r6
   258fa:	f001 fb6e 	bl	26fda <__aeabi_memcpy4>
   258fe:	0e28      	lsrs	r0, r5, #24
   25900:	71a0      	strb	r0, [r4, #6]
   25902:	0c28      	lsrs	r0, r5, #16
   25904:	7160      	strb	r0, [r4, #5]
   25906:	0a28      	lsrs	r0, r5, #8
   25908:	7120      	strb	r0, [r4, #4]
   2590a:	70e5      	strb	r5, [r4, #3]
   2590c:	1de0      	adds	r0, r4, #7
   2590e:	990b      	ldr	r1, [sp, #44]	@ 0x2c
   25910:	4632      	mov	r2, r6
   25912:	f001 fcc2 	bl	2729a <__aeabi_memcpy>
   25916:	4d05      	ldr	r5, [pc, #20]	@ (2592c <_start+0x16f4>)
   25918:	446d      	add	r5, sp
   2591a:	4628      	mov	r0, r5
   2591c:	4621      	mov	r1, r4
   2591e:	f7fc feff 	bl	22720 <_ZN20complex_full_dynamic3app17h8d7c2f034675586aE>
   25922:	7828      	ldrb	r0, [r5, #0]
   25924:	2801      	cmp	r0, #1
   25926:	d107      	bne.n	25938 <_start+0x1700>
   25928:	f7fe ff5b 	bl	247e2 <_start+0x5aa>
   2592c:	00001404 	.word	0x00001404
   25930:	00000834 	.word	0x00000834
   25934:	000013a8 	.word	0x000013a8
   25938:	4915      	ldr	r1, [pc, #84]	@ (25990 <_start+0x1758>)
   2593a:	4469      	add	r1, sp
   2593c:	78c8      	ldrb	r0, [r1, #3]
   2593e:	4c15      	ldr	r4, [pc, #84]	@ (25994 <_start+0x175c>)
   25940:	446c      	add	r4, sp
   25942:	70a0      	strb	r0, [r4, #2]
   25944:	7848      	ldrb	r0, [r1, #1]
   25946:	788a      	ldrb	r2, [r1, #2]
   25948:	0212      	lsls	r2, r2, #8
   2594a:	1810      	adds	r0, r2, r0
   2594c:	8020      	strh	r0, [r4, #0]
   2594e:	9808      	ldr	r0, [sp, #32]
   25950:	6e05      	ldr	r5, [r0, #96]	@ 0x60
   25952:	3108      	adds	r1, #8
   25954:	4810      	ldr	r0, [pc, #64]	@ (25998 <_start+0x1760>)
   25956:	4468      	add	r0, sp
   25958:	900b      	str	r0, [sp, #44]	@ 0x2c
   2595a:	2642      	movs	r6, #66	@ 0x42
   2595c:	4632      	mov	r2, r6
   2595e:	f001 fb3c 	bl	26fda <__aeabi_memcpy4>
   25962:	0e28      	lsrs	r0, r5, #24
   25964:	71a0      	strb	r0, [r4, #6]
   25966:	0c28      	lsrs	r0, r5, #16
   25968:	7160      	strb	r0, [r4, #5]
   2596a:	0a28      	lsrs	r0, r5, #8
   2596c:	7120      	strb	r0, [r4, #4]
   2596e:	70e5      	strb	r5, [r4, #3]
   25970:	1de0      	adds	r0, r4, #7
   25972:	990b      	ldr	r1, [sp, #44]	@ 0x2c
   25974:	4632      	mov	r2, r6
   25976:	f001 fc90 	bl	2729a <__aeabi_memcpy>
   2597a:	4d05      	ldr	r5, [pc, #20]	@ (25990 <_start+0x1758>)
   2597c:	446d      	add	r5, sp
   2597e:	4628      	mov	r0, r5
   25980:	4621      	mov	r1, r4
   25982:	f7fb fa49 	bl	20e18 <_ZN20complex_full_dynamic3app17h299327d2816104f2E>
   25986:	7828      	ldrb	r0, [r5, #0]
   25988:	2801      	cmp	r0, #1
   2598a:	d107      	bne.n	2599c <_start+0x1764>
   2598c:	f7fe ff29 	bl	247e2 <_start+0x5aa>
   25990:	00001404 	.word	0x00001404
   25994:	0000088c 	.word	0x0000088c
   25998:	000013a8 	.word	0x000013a8
   2599c:	4816      	ldr	r0, [pc, #88]	@ (259f8 <_start+0x17c0>)
   2599e:	4468      	add	r0, sp
   259a0:	78c1      	ldrb	r1, [r0, #3]
   259a2:	4c16      	ldr	r4, [pc, #88]	@ (259fc <_start+0x17c4>)
   259a4:	446c      	add	r4, sp
   259a6:	70a1      	strb	r1, [r4, #2]
   259a8:	7841      	ldrb	r1, [r0, #1]
   259aa:	7882      	ldrb	r2, [r0, #2]
   259ac:	0212      	lsls	r2, r2, #8
   259ae:	1851      	adds	r1, r2, r1
   259b0:	8021      	strh	r1, [r4, #0]
   259b2:	3008      	adds	r0, #8
   259b4:	9908      	ldr	r1, [sp, #32]
   259b6:	6e09      	ldr	r1, [r1, #96]	@ 0x60
   259b8:	910a      	str	r1, [sp, #40]	@ 0x28
   259ba:	4b11      	ldr	r3, [pc, #68]	@ (25a00 <_start+0x17c8>)
   259bc:	446b      	add	r3, sp
   259be:	930b      	str	r3, [sp, #44]	@ 0x2c
   259c0:	c864      	ldmia	r0!, {r2, r5, r6}
   259c2:	c364      	stmia	r3!, {r2, r5, r6}
   259c4:	c866      	ldmia	r0!, {r1, r2, r5, r6}
   259c6:	c366      	stmia	r3!, {r1, r2, r5, r6}
   259c8:	990a      	ldr	r1, [sp, #40]	@ 0x28
   259ca:	0e08      	lsrs	r0, r1, #24
   259cc:	71a0      	strb	r0, [r4, #6]
   259ce:	0c08      	lsrs	r0, r1, #16
   259d0:	7160      	strb	r0, [r4, #5]
   259d2:	0a08      	lsrs	r0, r1, #8
   259d4:	7120      	strb	r0, [r4, #4]
   259d6:	70e1      	strb	r1, [r4, #3]
   259d8:	1de0      	adds	r0, r4, #7
   259da:	221c      	movs	r2, #28
   259dc:	990b      	ldr	r1, [sp, #44]	@ 0x2c
   259de:	f001 fc5c 	bl	2729a <__aeabi_memcpy>
   259e2:	4d05      	ldr	r5, [pc, #20]	@ (259f8 <_start+0x17c0>)
   259e4:	446d      	add	r5, sp
   259e6:	4628      	mov	r0, r5
   259e8:	4621      	mov	r1, r4
   259ea:	f7fc fef3 	bl	227d4 <_ZN20complex_full_dynamic3app17h8d96e0e7b220af38E>
   259ee:	7828      	ldrb	r0, [r5, #0]
   259f0:	2801      	cmp	r0, #1
   259f2:	d107      	bne.n	25a04 <_start+0x17cc>
   259f4:	f7fe fef5 	bl	247e2 <_start+0x5aa>
   259f8:	00001404 	.word	0x00001404
   259fc:	000008d8 	.word	0x000008d8
   25a00:	000013a8 	.word	0x000013a8
   25a04:	4816      	ldr	r0, [pc, #88]	@ (25a60 <_start+0x1828>)
   25a06:	4468      	add	r0, sp
   25a08:	78c1      	ldrb	r1, [r0, #3]
   25a0a:	4c16      	ldr	r4, [pc, #88]	@ (25a64 <_start+0x182c>)
   25a0c:	446c      	add	r4, sp
   25a0e:	70a1      	strb	r1, [r4, #2]
   25a10:	7841      	ldrb	r1, [r0, #1]
   25a12:	7882      	ldrb	r2, [r0, #2]
   25a14:	0212      	lsls	r2, r2, #8
   25a16:	1851      	adds	r1, r2, r1
   25a18:	8021      	strh	r1, [r4, #0]
   25a1a:	3008      	adds	r0, #8
   25a1c:	9908      	ldr	r1, [sp, #32]
   25a1e:	6e09      	ldr	r1, [r1, #96]	@ 0x60
   25a20:	4b11      	ldr	r3, [pc, #68]	@ (25a68 <_start+0x1830>)
   25a22:	446b      	add	r3, sp
   25a24:	930b      	str	r3, [sp, #44]	@ 0x2c
   25a26:	c864      	ldmia	r0!, {r2, r5, r6}
   25a28:	c364      	stmia	r3!, {r2, r5, r6}
   25a2a:	c864      	ldmia	r0!, {r2, r5, r6}
   25a2c:	c364      	stmia	r3!, {r2, r5, r6}
   25a2e:	c864      	ldmia	r0!, {r2, r5, r6}
   25a30:	c364      	stmia	r3!, {r2, r5, r6}
   25a32:	0e08      	lsrs	r0, r1, #24
   25a34:	71a0      	strb	r0, [r4, #6]
   25a36:	0c08      	lsrs	r0, r1, #16
   25a38:	7160      	strb	r0, [r4, #5]
   25a3a:	0a08      	lsrs	r0, r1, #8
   25a3c:	7120      	strb	r0, [r4, #4]
   25a3e:	70e1      	strb	r1, [r4, #3]
   25a40:	1de0      	adds	r0, r4, #7
   25a42:	2224      	movs	r2, #36	@ 0x24
   25a44:	990b      	ldr	r1, [sp, #44]	@ 0x2c
   25a46:	f001 fc28 	bl	2729a <__aeabi_memcpy>
   25a4a:	4d05      	ldr	r5, [pc, #20]	@ (25a60 <_start+0x1828>)
   25a4c:	446d      	add	r5, sp
   25a4e:	4628      	mov	r0, r5
   25a50:	4621      	mov	r1, r4
   25a52:	f7fd fbf1 	bl	23238 <_ZN20complex_full_dynamic3app17hb251538cedbd88e4E>
   25a56:	7828      	ldrb	r0, [r5, #0]
   25a58:	2801      	cmp	r0, #1
   25a5a:	d107      	bne.n	25a6c <_start+0x1834>
   25a5c:	f7fe fec1 	bl	247e2 <_start+0x5aa>
   25a60:	00001404 	.word	0x00001404
   25a64:	000008fc 	.word	0x000008fc
   25a68:	000013a8 	.word	0x000013a8
   25a6c:	4914      	ldr	r1, [pc, #80]	@ (25ac0 <_start+0x1888>)
   25a6e:	4469      	add	r1, sp
   25a70:	9b08      	ldr	r3, [sp, #32]
   25a72:	6e98      	ldr	r0, [r3, #104]	@ 0x68
   25a74:	8088      	strh	r0, [r1, #4]
   25a76:	4813      	ldr	r0, [pc, #76]	@ (25ac4 <_start+0x188c>)
   25a78:	4468      	add	r0, sp
   25a7a:	78c2      	ldrb	r2, [r0, #3]
   25a7c:	4c12      	ldr	r4, [pc, #72]	@ (25ac8 <_start+0x1890>)
   25a7e:	446c      	add	r4, sp
   25a80:	70a2      	strb	r2, [r4, #2]
   25a82:	7842      	ldrb	r2, [r0, #1]
   25a84:	7880      	ldrb	r0, [r0, #2]
   25a86:	0200      	lsls	r0, r0, #8
   25a88:	1880      	adds	r0, r0, r2
   25a8a:	8020      	strh	r0, [r4, #0]
   25a8c:	6e18      	ldr	r0, [r3, #96]	@ 0x60
   25a8e:	70e0      	strb	r0, [r4, #3]
   25a90:	0e02      	lsrs	r2, r0, #24
   25a92:	71a2      	strb	r2, [r4, #6]
   25a94:	0c02      	lsrs	r2, r0, #16
   25a96:	7162      	strb	r2, [r4, #5]
   25a98:	0a00      	lsrs	r0, r0, #8
   25a9a:	7120      	strb	r0, [r4, #4]
   25a9c:	6e58      	ldr	r0, [r3, #100]	@ 0x64
   25a9e:	6018      	str	r0, [r3, #0]
   25aa0:	1de0      	adds	r0, r4, #7
   25aa2:	2206      	movs	r2, #6
   25aa4:	f001 fbf9 	bl	2729a <__aeabi_memcpy>
   25aa8:	4d06      	ldr	r5, [pc, #24]	@ (25ac4 <_start+0x188c>)
   25aaa:	446d      	add	r5, sp
   25aac:	4628      	mov	r0, r5
   25aae:	4621      	mov	r1, r4
   25ab0:	f7fc f84a 	bl	21b48 <_ZN20complex_full_dynamic3app17h5d66c2ebe3f94d8eE>
   25ab4:	7828      	ldrb	r0, [r5, #0]
   25ab6:	2801      	cmp	r0, #1
   25ab8:	d108      	bne.n	25acc <_start+0x1894>
   25aba:	f7fe fe92 	bl	247e2 <_start+0x5aa>
   25abe:	46c0      	nop			@ (mov r8, r8)
   25ac0:	000013a8 	.word	0x000013a8
   25ac4:	00001404 	.word	0x00001404
   25ac8:	00000928 	.word	0x00000928
   25acc:	4816      	ldr	r0, [pc, #88]	@ (25b28 <_start+0x18f0>)
   25ace:	4468      	add	r0, sp
   25ad0:	78c1      	ldrb	r1, [r0, #3]
   25ad2:	4c16      	ldr	r4, [pc, #88]	@ (25b2c <_start+0x18f4>)
   25ad4:	446c      	add	r4, sp
   25ad6:	70a1      	strb	r1, [r4, #2]
   25ad8:	7841      	ldrb	r1, [r0, #1]
   25ada:	7882      	ldrb	r2, [r0, #2]
   25adc:	0212      	lsls	r2, r2, #8
   25ade:	1851      	adds	r1, r2, r1
   25ae0:	8021      	strh	r1, [r4, #0]
   25ae2:	3008      	adds	r0, #8
   25ae4:	9908      	ldr	r1, [sp, #32]
   25ae6:	6e09      	ldr	r1, [r1, #96]	@ 0x60
   25ae8:	4b11      	ldr	r3, [pc, #68]	@ (25b30 <_start+0x18f8>)
   25aea:	446b      	add	r3, sp
   25aec:	930b      	str	r3, [sp, #44]	@ 0x2c
   25aee:	c864      	ldmia	r0!, {r2, r5, r6}
   25af0:	c364      	stmia	r3!, {r2, r5, r6}
   25af2:	c864      	ldmia	r0!, {r2, r5, r6}
   25af4:	c364      	stmia	r3!, {r2, r5, r6}
   25af6:	8800      	ldrh	r0, [r0, #0]
   25af8:	8018      	strh	r0, [r3, #0]
   25afa:	0e08      	lsrs	r0, r1, #24
   25afc:	71a0      	strb	r0, [r4, #6]
   25afe:	0c08      	lsrs	r0, r1, #16
   25b00:	7160      	strb	r0, [r4, #5]
   25b02:	0a08      	lsrs	r0, r1, #8
   25b04:	7120      	strb	r0, [r4, #4]
   25b06:	70e1      	strb	r1, [r4, #3]
   25b08:	1de0      	adds	r0, r4, #7
   25b0a:	221a      	movs	r2, #26
   25b0c:	990b      	ldr	r1, [sp, #44]	@ 0x2c
   25b0e:	f001 fbc4 	bl	2729a <__aeabi_memcpy>
   25b12:	4d05      	ldr	r5, [pc, #20]	@ (25b28 <_start+0x18f0>)
   25b14:	446d      	add	r5, sp
   25b16:	4628      	mov	r0, r5
   25b18:	4621      	mov	r1, r4
   25b1a:	f7fa fd51 	bl	205c0 <_ZN20complex_full_dynamic3app17h11f7dab2f3eafed1E>
   25b1e:	7828      	ldrb	r0, [r5, #0]
   25b20:	2801      	cmp	r0, #1
   25b22:	d107      	bne.n	25b34 <_start+0x18fc>
   25b24:	f7fe fe5d 	bl	247e2 <_start+0x5aa>
   25b28:	00001404 	.word	0x00001404
   25b2c:	00000938 	.word	0x00000938
   25b30:	000013a8 	.word	0x000013a8
   25b34:	4915      	ldr	r1, [pc, #84]	@ (25b8c <_start+0x1954>)
   25b36:	4469      	add	r1, sp
   25b38:	78c8      	ldrb	r0, [r1, #3]
   25b3a:	4c15      	ldr	r4, [pc, #84]	@ (25b90 <_start+0x1958>)
   25b3c:	446c      	add	r4, sp
   25b3e:	70a0      	strb	r0, [r4, #2]
   25b40:	7848      	ldrb	r0, [r1, #1]
   25b42:	788a      	ldrb	r2, [r1, #2]
   25b44:	0212      	lsls	r2, r2, #8
   25b46:	1810      	adds	r0, r2, r0
   25b48:	8020      	strh	r0, [r4, #0]
   25b4a:	9808      	ldr	r0, [sp, #32]
   25b4c:	6e05      	ldr	r5, [r0, #96]	@ 0x60
   25b4e:	3108      	adds	r1, #8
   25b50:	4810      	ldr	r0, [pc, #64]	@ (25b94 <_start+0x195c>)
   25b52:	4468      	add	r0, sp
   25b54:	900b      	str	r0, [sp, #44]	@ 0x2c
   25b56:	264c      	movs	r6, #76	@ 0x4c
   25b58:	4632      	mov	r2, r6
   25b5a:	f001 fa3e 	bl	26fda <__aeabi_memcpy4>
   25b5e:	0e28      	lsrs	r0, r5, #24
   25b60:	71a0      	strb	r0, [r4, #6]
   25b62:	0c28      	lsrs	r0, r5, #16
   25b64:	7160      	strb	r0, [r4, #5]
   25b66:	0a28      	lsrs	r0, r5, #8
   25b68:	7120      	strb	r0, [r4, #4]
   25b6a:	70e5      	strb	r5, [r4, #3]
   25b6c:	1de0      	adds	r0, r4, #7
   25b6e:	990b      	ldr	r1, [sp, #44]	@ 0x2c
   25b70:	4632      	mov	r2, r6
   25b72:	f001 fb92 	bl	2729a <__aeabi_memcpy>
   25b76:	4d05      	ldr	r5, [pc, #20]	@ (25b8c <_start+0x1954>)
   25b78:	446d      	add	r5, sp
   25b7a:	4628      	mov	r0, r5
   25b7c:	4621      	mov	r1, r4
   25b7e:	f7fc f9ff 	bl	21f80 <_ZN20complex_full_dynamic3app17h6dbc431087d518e5E>
   25b82:	7828      	ldrb	r0, [r5, #0]
   25b84:	2801      	cmp	r0, #1
   25b86:	d107      	bne.n	25b98 <_start+0x1960>
   25b88:	f7fe fe2b 	bl	247e2 <_start+0x5aa>
   25b8c:	00001404 	.word	0x00001404
   25b90:	0000095c 	.word	0x0000095c
   25b94:	000013a8 	.word	0x000013a8
   25b98:	4915      	ldr	r1, [pc, #84]	@ (25bf0 <_start+0x19b8>)
   25b9a:	4469      	add	r1, sp
   25b9c:	78c8      	ldrb	r0, [r1, #3]
   25b9e:	4c15      	ldr	r4, [pc, #84]	@ (25bf4 <_start+0x19bc>)
   25ba0:	446c      	add	r4, sp
   25ba2:	70a0      	strb	r0, [r4, #2]
   25ba4:	7848      	ldrb	r0, [r1, #1]
   25ba6:	788a      	ldrb	r2, [r1, #2]
   25ba8:	0212      	lsls	r2, r2, #8
   25baa:	1810      	adds	r0, r2, r0
   25bac:	8020      	strh	r0, [r4, #0]
   25bae:	9808      	ldr	r0, [sp, #32]
   25bb0:	6e05      	ldr	r5, [r0, #96]	@ 0x60
   25bb2:	3108      	adds	r1, #8
   25bb4:	4810      	ldr	r0, [pc, #64]	@ (25bf8 <_start+0x19c0>)
   25bb6:	4468      	add	r0, sp
   25bb8:	900b      	str	r0, [sp, #44]	@ 0x2c
   25bba:	2646      	movs	r6, #70	@ 0x46
   25bbc:	4632      	mov	r2, r6
   25bbe:	f001 fa0c 	bl	26fda <__aeabi_memcpy4>
   25bc2:	0e28      	lsrs	r0, r5, #24
   25bc4:	71a0      	strb	r0, [r4, #6]
   25bc6:	0c28      	lsrs	r0, r5, #16
   25bc8:	7160      	strb	r0, [r4, #5]
   25bca:	0a28      	lsrs	r0, r5, #8
   25bcc:	7120      	strb	r0, [r4, #4]
   25bce:	70e5      	strb	r5, [r4, #3]
   25bd0:	1de0      	adds	r0, r4, #7
   25bd2:	990b      	ldr	r1, [sp, #44]	@ 0x2c
   25bd4:	4632      	mov	r2, r6
   25bd6:	f001 fb60 	bl	2729a <__aeabi_memcpy>
   25bda:	4d05      	ldr	r5, [pc, #20]	@ (25bf0 <_start+0x19b8>)
   25bdc:	446d      	add	r5, sp
   25bde:	4628      	mov	r0, r5
   25be0:	4621      	mov	r1, r4
   25be2:	f7fd fbd9 	bl	23398 <_ZN20complex_full_dynamic3app17hb9aa88ee1ce37a63E>
   25be6:	7828      	ldrb	r0, [r5, #0]
   25be8:	2801      	cmp	r0, #1
   25bea:	d107      	bne.n	25bfc <_start+0x19c4>
   25bec:	f7fe fdf9 	bl	247e2 <_start+0x5aa>
   25bf0:	00001404 	.word	0x00001404
   25bf4:	000009b0 	.word	0x000009b0
   25bf8:	000013a8 	.word	0x000013a8
   25bfc:	4819      	ldr	r0, [pc, #100]	@ (25c64 <_start+0x1a2c>)
   25bfe:	4468      	add	r0, sp
   25c00:	78c1      	ldrb	r1, [r0, #3]
   25c02:	4c19      	ldr	r4, [pc, #100]	@ (25c68 <_start+0x1a30>)
   25c04:	446c      	add	r4, sp
   25c06:	70a1      	strb	r1, [r4, #2]
   25c08:	7841      	ldrb	r1, [r0, #1]
   25c0a:	7882      	ldrb	r2, [r0, #2]
   25c0c:	0212      	lsls	r2, r2, #8
   25c0e:	1851      	adds	r1, r2, r1
   25c10:	8021      	strh	r1, [r4, #0]
   25c12:	3008      	adds	r0, #8
   25c14:	9908      	ldr	r1, [sp, #32]
   25c16:	6e09      	ldr	r1, [r1, #96]	@ 0x60
   25c18:	910a      	str	r1, [sp, #40]	@ 0x28
   25c1a:	4b14      	ldr	r3, [pc, #80]	@ (25c6c <_start+0x1a34>)
   25c1c:	446b      	add	r3, sp
   25c1e:	930b      	str	r3, [sp, #44]	@ 0x2c
   25c20:	c864      	ldmia	r0!, {r2, r5, r6}
   25c22:	c364      	stmia	r3!, {r2, r5, r6}
   25c24:	c864      	ldmia	r0!, {r2, r5, r6}
   25c26:	c364      	stmia	r3!, {r2, r5, r6}
   25c28:	c864      	ldmia	r0!, {r2, r5, r6}
   25c2a:	c364      	stmia	r3!, {r2, r5, r6}
   25c2c:	c866      	ldmia	r0!, {r1, r2, r5, r6}
   25c2e:	c366      	stmia	r3!, {r1, r2, r5, r6}
   25c30:	7800      	ldrb	r0, [r0, #0]
   25c32:	7018      	strb	r0, [r3, #0]
   25c34:	990a      	ldr	r1, [sp, #40]	@ 0x28
   25c36:	0e08      	lsrs	r0, r1, #24
   25c38:	71a0      	strb	r0, [r4, #6]
   25c3a:	0c08      	lsrs	r0, r1, #16
   25c3c:	7160      	strb	r0, [r4, #5]
   25c3e:	0a08      	lsrs	r0, r1, #8
   25c40:	7120      	strb	r0, [r4, #4]
   25c42:	70e1      	strb	r1, [r4, #3]
   25c44:	1de0      	adds	r0, r4, #7
   25c46:	2235      	movs	r2, #53	@ 0x35
   25c48:	990b      	ldr	r1, [sp, #44]	@ 0x2c
   25c4a:	f001 fb26 	bl	2729a <__aeabi_memcpy>
   25c4e:	4d05      	ldr	r5, [pc, #20]	@ (25c64 <_start+0x1a2c>)
   25c50:	446d      	add	r5, sp
   25c52:	4628      	mov	r0, r5
   25c54:	4621      	mov	r1, r4
   25c56:	f7fd fe6b 	bl	23930 <_ZN20complex_full_dynamic3app17hdd5c4c692812d455E>
   25c5a:	7828      	ldrb	r0, [r5, #0]
   25c5c:	2801      	cmp	r0, #1
   25c5e:	d107      	bne.n	25c70 <_start+0x1a38>
   25c60:	f7fe fdbf 	bl	247e2 <_start+0x5aa>
   25c64:	00001404 	.word	0x00001404
   25c68:	00000a00 	.word	0x00000a00
   25c6c:	000013a8 	.word	0x000013a8
   25c70:	4818      	ldr	r0, [pc, #96]	@ (25cd4 <_start+0x1a9c>)
   25c72:	4468      	add	r0, sp
   25c74:	78c1      	ldrb	r1, [r0, #3]
   25c76:	4c18      	ldr	r4, [pc, #96]	@ (25cd8 <_start+0x1aa0>)
   25c78:	446c      	add	r4, sp
   25c7a:	70a1      	strb	r1, [r4, #2]
   25c7c:	7841      	ldrb	r1, [r0, #1]
   25c7e:	7882      	ldrb	r2, [r0, #2]
   25c80:	0212      	lsls	r2, r2, #8
   25c82:	1851      	adds	r1, r2, r1
   25c84:	8021      	strh	r1, [r4, #0]
   25c86:	3008      	adds	r0, #8
   25c88:	9908      	ldr	r1, [sp, #32]
   25c8a:	6e09      	ldr	r1, [r1, #96]	@ 0x60
   25c8c:	910a      	str	r1, [sp, #40]	@ 0x28
   25c8e:	4b13      	ldr	r3, [pc, #76]	@ (25cdc <_start+0x1aa4>)
   25c90:	446b      	add	r3, sp
   25c92:	930b      	str	r3, [sp, #44]	@ 0x2c
   25c94:	c866      	ldmia	r0!, {r1, r2, r5, r6}
   25c96:	c366      	stmia	r3!, {r1, r2, r5, r6}
   25c98:	c866      	ldmia	r0!, {r1, r2, r5, r6}
   25c9a:	c366      	stmia	r3!, {r1, r2, r5, r6}
   25c9c:	c866      	ldmia	r0!, {r1, r2, r5, r6}
   25c9e:	c366      	stmia	r3!, {r1, r2, r5, r6}
   25ca0:	7800      	ldrb	r0, [r0, #0]
   25ca2:	7018      	strb	r0, [r3, #0]
   25ca4:	990a      	ldr	r1, [sp, #40]	@ 0x28
   25ca6:	0e08      	lsrs	r0, r1, #24
   25ca8:	71a0      	strb	r0, [r4, #6]
   25caa:	0c08      	lsrs	r0, r1, #16
   25cac:	7160      	strb	r0, [r4, #5]
   25cae:	0a08      	lsrs	r0, r1, #8
   25cb0:	7120      	strb	r0, [r4, #4]
   25cb2:	70e1      	strb	r1, [r4, #3]
   25cb4:	1de0      	adds	r0, r4, #7
   25cb6:	2231      	movs	r2, #49	@ 0x31
   25cb8:	990b      	ldr	r1, [sp, #44]	@ 0x2c
   25cba:	f001 faee 	bl	2729a <__aeabi_memcpy>
   25cbe:	4d05      	ldr	r5, [pc, #20]	@ (25cd4 <_start+0x1a9c>)
   25cc0:	446d      	add	r5, sp
   25cc2:	4628      	mov	r0, r5
   25cc4:	4621      	mov	r1, r4
   25cc6:	f7fb fb17 	bl	212f8 <_ZN20complex_full_dynamic3app17h36a2c40858310ceaE>
   25cca:	7828      	ldrb	r0, [r5, #0]
   25ccc:	2801      	cmp	r0, #1
   25cce:	d107      	bne.n	25ce0 <_start+0x1aa8>
   25cd0:	f7fe fd87 	bl	247e2 <_start+0x5aa>
   25cd4:	00001404 	.word	0x00001404
   25cd8:	00000a3c 	.word	0x00000a3c
   25cdc:	000013a8 	.word	0x000013a8
   25ce0:	4816      	ldr	r0, [pc, #88]	@ (25d3c <_start+0x1b04>)
   25ce2:	4468      	add	r0, sp
   25ce4:	78c1      	ldrb	r1, [r0, #3]
   25ce6:	4c16      	ldr	r4, [pc, #88]	@ (25d40 <_start+0x1b08>)
   25ce8:	446c      	add	r4, sp
   25cea:	70a1      	strb	r1, [r4, #2]
   25cec:	7841      	ldrb	r1, [r0, #1]
   25cee:	7882      	ldrb	r2, [r0, #2]
   25cf0:	0212      	lsls	r2, r2, #8
   25cf2:	1851      	adds	r1, r2, r1
   25cf4:	8021      	strh	r1, [r4, #0]
   25cf6:	3008      	adds	r0, #8
   25cf8:	9908      	ldr	r1, [sp, #32]
   25cfa:	6e09      	ldr	r1, [r1, #96]	@ 0x60
   25cfc:	910a      	str	r1, [sp, #40]	@ 0x28
   25cfe:	4b11      	ldr	r3, [pc, #68]	@ (25d44 <_start+0x1b0c>)
   25d00:	446b      	add	r3, sp
   25d02:	930b      	str	r3, [sp, #44]	@ 0x2c
   25d04:	c866      	ldmia	r0!, {r1, r2, r5, r6}
   25d06:	c366      	stmia	r3!, {r1, r2, r5, r6}
   25d08:	c866      	ldmia	r0!, {r1, r2, r5, r6}
   25d0a:	c366      	stmia	r3!, {r1, r2, r5, r6}
   25d0c:	990a      	ldr	r1, [sp, #40]	@ 0x28
   25d0e:	0e08      	lsrs	r0, r1, #24
   25d10:	71a0      	strb	r0, [r4, #6]
   25d12:	0c08      	lsrs	r0, r1, #16
   25d14:	7160      	strb	r0, [r4, #5]
   25d16:	0a08      	lsrs	r0, r1, #8
   25d18:	7120      	strb	r0, [r4, #4]
   25d1a:	70e1      	strb	r1, [r4, #3]
   25d1c:	1de0      	adds	r0, r4, #7
   25d1e:	2220      	movs	r2, #32
   25d20:	990b      	ldr	r1, [sp, #44]	@ 0x2c
   25d22:	f001 faba 	bl	2729a <__aeabi_memcpy>
   25d26:	4d05      	ldr	r5, [pc, #20]	@ (25d3c <_start+0x1b04>)
   25d28:	446d      	add	r5, sp
   25d2a:	4628      	mov	r0, r5
   25d2c:	4621      	mov	r1, r4
   25d2e:	f7fc fc47 	bl	225c0 <_ZN20complex_full_dynamic3app17h893cb76300c4aadcE>
   25d32:	7828      	ldrb	r0, [r5, #0]
   25d34:	2801      	cmp	r0, #1
   25d36:	d107      	bne.n	25d48 <_start+0x1b10>
   25d38:	f7fe fd53 	bl	247e2 <_start+0x5aa>
   25d3c:	00001404 	.word	0x00001404
   25d40:	00000a74 	.word	0x00000a74
   25d44:	000013a8 	.word	0x000013a8
   25d48:	4915      	ldr	r1, [pc, #84]	@ (25da0 <_start+0x1b68>)
   25d4a:	4469      	add	r1, sp
   25d4c:	78c8      	ldrb	r0, [r1, #3]
   25d4e:	4c15      	ldr	r4, [pc, #84]	@ (25da4 <_start+0x1b6c>)
   25d50:	446c      	add	r4, sp
   25d52:	70a0      	strb	r0, [r4, #2]
   25d54:	7848      	ldrb	r0, [r1, #1]
   25d56:	788a      	ldrb	r2, [r1, #2]
   25d58:	0212      	lsls	r2, r2, #8
   25d5a:	1810      	adds	r0, r2, r0
   25d5c:	8020      	strh	r0, [r4, #0]
   25d5e:	9808      	ldr	r0, [sp, #32]
   25d60:	6e05      	ldr	r5, [r0, #96]	@ 0x60
   25d62:	3108      	adds	r1, #8
   25d64:	4810      	ldr	r0, [pc, #64]	@ (25da8 <_start+0x1b70>)
   25d66:	4468      	add	r0, sp
   25d68:	900b      	str	r0, [sp, #44]	@ 0x2c
   25d6a:	264a      	movs	r6, #74	@ 0x4a
   25d6c:	4632      	mov	r2, r6
   25d6e:	f001 f934 	bl	26fda <__aeabi_memcpy4>
   25d72:	0e28      	lsrs	r0, r5, #24
   25d74:	71a0      	strb	r0, [r4, #6]
   25d76:	0c28      	lsrs	r0, r5, #16
   25d78:	7160      	strb	r0, [r4, #5]
   25d7a:	0a28      	lsrs	r0, r5, #8
   25d7c:	7120      	strb	r0, [r4, #4]
   25d7e:	70e5      	strb	r5, [r4, #3]
   25d80:	1de0      	adds	r0, r4, #7
   25d82:	990b      	ldr	r1, [sp, #44]	@ 0x2c
   25d84:	4632      	mov	r2, r6
   25d86:	f001 fa88 	bl	2729a <__aeabi_memcpy>
   25d8a:	4d05      	ldr	r5, [pc, #20]	@ (25da0 <_start+0x1b68>)
   25d8c:	446d      	add	r5, sp
   25d8e:	4628      	mov	r0, r5
   25d90:	4621      	mov	r1, r4
   25d92:	f7fc fab3 	bl	222fc <_ZN20complex_full_dynamic3app17h7922c01f5757a325E>
   25d96:	7828      	ldrb	r0, [r5, #0]
   25d98:	2801      	cmp	r0, #1
   25d9a:	d107      	bne.n	25dac <_start+0x1b74>
   25d9c:	f7fe fd21 	bl	247e2 <_start+0x5aa>
   25da0:	00001404 	.word	0x00001404
   25da4:	00000a9c 	.word	0x00000a9c
   25da8:	000013a8 	.word	0x000013a8
   25dac:	4915      	ldr	r1, [pc, #84]	@ (25e04 <_start+0x1bcc>)
   25dae:	4469      	add	r1, sp
   25db0:	78c8      	ldrb	r0, [r1, #3]
   25db2:	4c15      	ldr	r4, [pc, #84]	@ (25e08 <_start+0x1bd0>)
   25db4:	446c      	add	r4, sp
   25db6:	70a0      	strb	r0, [r4, #2]
   25db8:	7848      	ldrb	r0, [r1, #1]
   25dba:	788a      	ldrb	r2, [r1, #2]
   25dbc:	0212      	lsls	r2, r2, #8
   25dbe:	1810      	adds	r0, r2, r0
   25dc0:	8020      	strh	r0, [r4, #0]
   25dc2:	9808      	ldr	r0, [sp, #32]
   25dc4:	6e05      	ldr	r5, [r0, #96]	@ 0x60
   25dc6:	3108      	adds	r1, #8
   25dc8:	4810      	ldr	r0, [pc, #64]	@ (25e0c <_start+0x1bd4>)
   25dca:	4468      	add	r0, sp
   25dcc:	900b      	str	r0, [sp, #44]	@ 0x2c
   25dce:	2648      	movs	r6, #72	@ 0x48
   25dd0:	4632      	mov	r2, r6
   25dd2:	f001 f902 	bl	26fda <__aeabi_memcpy4>
   25dd6:	0e28      	lsrs	r0, r5, #24
   25dd8:	71a0      	strb	r0, [r4, #6]
   25dda:	0c28      	lsrs	r0, r5, #16
   25ddc:	7160      	strb	r0, [r4, #5]
   25dde:	0a28      	lsrs	r0, r5, #8
   25de0:	7120      	strb	r0, [r4, #4]
   25de2:	70e5      	strb	r5, [r4, #3]
   25de4:	1de0      	adds	r0, r4, #7
   25de6:	990b      	ldr	r1, [sp, #44]	@ 0x2c
   25de8:	4632      	mov	r2, r6
   25dea:	f001 fa56 	bl	2729a <__aeabi_memcpy>
   25dee:	4d05      	ldr	r5, [pc, #20]	@ (25e04 <_start+0x1bcc>)
   25df0:	446d      	add	r5, sp
   25df2:	4628      	mov	r0, r5
   25df4:	4621      	mov	r1, r4
   25df6:	f7fd fa77 	bl	232e8 <_ZN20complex_full_dynamic3app17hb8b2e82e474961d1E>
   25dfa:	7828      	ldrb	r0, [r5, #0]
   25dfc:	2801      	cmp	r0, #1
   25dfe:	d107      	bne.n	25e10 <_start+0x1bd8>
   25e00:	f7fe fcef 	bl	247e2 <_start+0x5aa>
   25e04:	00001404 	.word	0x00001404
   25e08:	00000af0 	.word	0x00000af0
   25e0c:	000013a8 	.word	0x000013a8
   25e10:	4915      	ldr	r1, [pc, #84]	@ (25e68 <_start+0x1c30>)
   25e12:	4469      	add	r1, sp
   25e14:	78c8      	ldrb	r0, [r1, #3]
   25e16:	4c15      	ldr	r4, [pc, #84]	@ (25e6c <_start+0x1c34>)
   25e18:	446c      	add	r4, sp
   25e1a:	70a0      	strb	r0, [r4, #2]
   25e1c:	7848      	ldrb	r0, [r1, #1]
   25e1e:	788a      	ldrb	r2, [r1, #2]
   25e20:	0212      	lsls	r2, r2, #8
   25e22:	1810      	adds	r0, r2, r0
   25e24:	8020      	strh	r0, [r4, #0]
   25e26:	9808      	ldr	r0, [sp, #32]
   25e28:	6e05      	ldr	r5, [r0, #96]	@ 0x60
   25e2a:	3108      	adds	r1, #8
   25e2c:	4810      	ldr	r0, [pc, #64]	@ (25e70 <_start+0x1c38>)
   25e2e:	4468      	add	r0, sp
   25e30:	900b      	str	r0, [sp, #44]	@ 0x2c
   25e32:	265a      	movs	r6, #90	@ 0x5a
   25e34:	4632      	mov	r2, r6
   25e36:	f001 f8d0 	bl	26fda <__aeabi_memcpy4>
   25e3a:	0e28      	lsrs	r0, r5, #24
   25e3c:	71a0      	strb	r0, [r4, #6]
   25e3e:	0c28      	lsrs	r0, r5, #16
   25e40:	7160      	strb	r0, [r4, #5]
   25e42:	0a28      	lsrs	r0, r5, #8
   25e44:	7120      	strb	r0, [r4, #4]
   25e46:	70e5      	strb	r5, [r4, #3]
   25e48:	1de0      	adds	r0, r4, #7
   25e4a:	990b      	ldr	r1, [sp, #44]	@ 0x2c
   25e4c:	4632      	mov	r2, r6
   25e4e:	f001 fa24 	bl	2729a <__aeabi_memcpy>
   25e52:	4d05      	ldr	r5, [pc, #20]	@ (25e68 <_start+0x1c30>)
   25e54:	446d      	add	r5, sp
   25e56:	4628      	mov	r0, r5
   25e58:	4621      	mov	r1, r4
   25e5a:	f7fb fbab 	bl	215b4 <_ZN20complex_full_dynamic3app17h44c00afd010d0f94E>
   25e5e:	7828      	ldrb	r0, [r5, #0]
   25e60:	2801      	cmp	r0, #1
   25e62:	d107      	bne.n	25e74 <_start+0x1c3c>
   25e64:	f7fe fcbd 	bl	247e2 <_start+0x5aa>
   25e68:	00001404 	.word	0x00001404
   25e6c:	00000b40 	.word	0x00000b40
   25e70:	000013a8 	.word	0x000013a8
   25e74:	4817      	ldr	r0, [pc, #92]	@ (25ed4 <_start+0x1c9c>)
   25e76:	4468      	add	r0, sp
   25e78:	78c1      	ldrb	r1, [r0, #3]
   25e7a:	4c17      	ldr	r4, [pc, #92]	@ (25ed8 <_start+0x1ca0>)
   25e7c:	446c      	add	r4, sp
   25e7e:	70a1      	strb	r1, [r4, #2]
   25e80:	7841      	ldrb	r1, [r0, #1]
   25e82:	7882      	ldrb	r2, [r0, #2]
   25e84:	0212      	lsls	r2, r2, #8
   25e86:	1851      	adds	r1, r2, r1
   25e88:	8021      	strh	r1, [r4, #0]
   25e8a:	3008      	adds	r0, #8
   25e8c:	9908      	ldr	r1, [sp, #32]
   25e8e:	6e09      	ldr	r1, [r1, #96]	@ 0x60
   25e90:	4b12      	ldr	r3, [pc, #72]	@ (25edc <_start+0x1ca4>)
   25e92:	446b      	add	r3, sp
   25e94:	930b      	str	r3, [sp, #44]	@ 0x2c
   25e96:	c860      	ldmia	r0!, {r5, r6}
   25e98:	c360      	stmia	r3!, {r5, r6}
   25e9a:	c864      	ldmia	r0!, {r2, r5, r6}
   25e9c:	c364      	stmia	r3!, {r2, r5, r6}
   25e9e:	8802      	ldrh	r2, [r0, #0]
   25ea0:	801a      	strh	r2, [r3, #0]
   25ea2:	7880      	ldrb	r0, [r0, #2]
   25ea4:	7098      	strb	r0, [r3, #2]
   25ea6:	0e08      	lsrs	r0, r1, #24
   25ea8:	71a0      	strb	r0, [r4, #6]
   25eaa:	0c08      	lsrs	r0, r1, #16
   25eac:	7160      	strb	r0, [r4, #5]
   25eae:	0a08      	lsrs	r0, r1, #8
   25eb0:	7120      	strb	r0, [r4, #4]
   25eb2:	70e1      	strb	r1, [r4, #3]
   25eb4:	1de0      	adds	r0, r4, #7
   25eb6:	2217      	movs	r2, #23
   25eb8:	990b      	ldr	r1, [sp, #44]	@ 0x2c
   25eba:	f001 f9ee 	bl	2729a <__aeabi_memcpy>
   25ebe:	4d05      	ldr	r5, [pc, #20]	@ (25ed4 <_start+0x1c9c>)
   25ec0:	446d      	add	r5, sp
   25ec2:	4628      	mov	r0, r5
   25ec4:	4621      	mov	r1, r4
   25ec6:	f7fb f8b1 	bl	2102c <_ZN20complex_full_dynamic3app17h3239da359baaa89aE>
   25eca:	7828      	ldrb	r0, [r5, #0]
   25ecc:	2801      	cmp	r0, #1
   25ece:	d107      	bne.n	25ee0 <_start+0x1ca8>
   25ed0:	f7fe fc87 	bl	247e2 <_start+0x5aa>
   25ed4:	00001404 	.word	0x00001404
   25ed8:	00000ba4 	.word	0x00000ba4
   25edc:	000013a8 	.word	0x000013a8
   25ee0:	4816      	ldr	r0, [pc, #88]	@ (25f3c <_start+0x1d04>)
   25ee2:	4468      	add	r0, sp
   25ee4:	78c1      	ldrb	r1, [r0, #3]
   25ee6:	4c16      	ldr	r4, [pc, #88]	@ (25f40 <_start+0x1d08>)
   25ee8:	446c      	add	r4, sp
   25eea:	70a1      	strb	r1, [r4, #2]
   25eec:	7841      	ldrb	r1, [r0, #1]
   25eee:	7882      	ldrb	r2, [r0, #2]
   25ef0:	0212      	lsls	r2, r2, #8
   25ef2:	1851      	adds	r1, r2, r1
   25ef4:	8021      	strh	r1, [r4, #0]
   25ef6:	3008      	adds	r0, #8
   25ef8:	9908      	ldr	r1, [sp, #32]
   25efa:	6e09      	ldr	r1, [r1, #96]	@ 0x60
   25efc:	4b11      	ldr	r3, [pc, #68]	@ (25f44 <_start+0x1d0c>)
   25efe:	446b      	add	r3, sp
   25f00:	930b      	str	r3, [sp, #44]	@ 0x2c
   25f02:	c864      	ldmia	r0!, {r2, r5, r6}
   25f04:	c364      	stmia	r3!, {r2, r5, r6}
   25f06:	c864      	ldmia	r0!, {r2, r5, r6}
   25f08:	c364      	stmia	r3!, {r2, r5, r6}
   25f0a:	8800      	ldrh	r0, [r0, #0]
   25f0c:	8018      	strh	r0, [r3, #0]
   25f0e:	0e08      	lsrs	r0, r1, #24
   25f10:	71a0      	strb	r0, [r4, #6]
   25f12:	0c08      	lsrs	r0, r1, #16
   25f14:	7160      	strb	r0, [r4, #5]
   25f16:	0a08      	lsrs	r0, r1, #8
   25f18:	7120      	strb	r0, [r4, #4]
   25f1a:	70e1      	strb	r1, [r4, #3]
   25f1c:	1de0      	adds	r0, r4, #7
   25f1e:	221a      	movs	r2, #26
   25f20:	990b      	ldr	r1, [sp, #44]	@ 0x2c
   25f22:	f001 f9ba 	bl	2729a <__aeabi_memcpy>
   25f26:	4d05      	ldr	r5, [pc, #20]	@ (25f3c <_start+0x1d04>)
   25f28:	446d      	add	r5, sp
   25f2a:	4628      	mov	r0, r5
   25f2c:	4621      	mov	r1, r4
   25f2e:	f7fb ff77 	bl	21e20 <_ZN20complex_full_dynamic3app17h69a10ebb9caa0603E>
   25f32:	7828      	ldrb	r0, [r5, #0]
   25f34:	2801      	cmp	r0, #1
   25f36:	d107      	bne.n	25f48 <_start+0x1d10>
   25f38:	f7fe fc53 	bl	247e2 <_start+0x5aa>
   25f3c:	00001404 	.word	0x00001404
   25f40:	00000bc4 	.word	0x00000bc4
   25f44:	000013a8 	.word	0x000013a8
   25f48:	4818      	ldr	r0, [pc, #96]	@ (25fac <_start+0x1d74>)
   25f4a:	4468      	add	r0, sp
   25f4c:	78c1      	ldrb	r1, [r0, #3]
   25f4e:	4c18      	ldr	r4, [pc, #96]	@ (25fb0 <_start+0x1d78>)
   25f50:	446c      	add	r4, sp
   25f52:	70a1      	strb	r1, [r4, #2]
   25f54:	7841      	ldrb	r1, [r0, #1]
   25f56:	7882      	ldrb	r2, [r0, #2]
   25f58:	0212      	lsls	r2, r2, #8
   25f5a:	1851      	adds	r1, r2, r1
   25f5c:	8021      	strh	r1, [r4, #0]
   25f5e:	3008      	adds	r0, #8
   25f60:	9908      	ldr	r1, [sp, #32]
   25f62:	6e09      	ldr	r1, [r1, #96]	@ 0x60
   25f64:	910a      	str	r1, [sp, #40]	@ 0x28
   25f66:	4b13      	ldr	r3, [pc, #76]	@ (25fb4 <_start+0x1d7c>)
   25f68:	446b      	add	r3, sp
   25f6a:	930b      	str	r3, [sp, #44]	@ 0x2c
   25f6c:	c866      	ldmia	r0!, {r1, r2, r5, r6}
   25f6e:	c366      	stmia	r3!, {r1, r2, r5, r6}
   25f70:	c866      	ldmia	r0!, {r1, r2, r5, r6}
   25f72:	c366      	stmia	r3!, {r1, r2, r5, r6}
   25f74:	8801      	ldrh	r1, [r0, #0]
   25f76:	8019      	strh	r1, [r3, #0]
   25f78:	7880      	ldrb	r0, [r0, #2]
   25f7a:	7098      	strb	r0, [r3, #2]
   25f7c:	990a      	ldr	r1, [sp, #40]	@ 0x28
   25f7e:	0e08      	lsrs	r0, r1, #24
   25f80:	71a0      	strb	r0, [r4, #6]
   25f82:	0c08      	lsrs	r0, r1, #16
   25f84:	7160      	strb	r0, [r4, #5]
   25f86:	0a08      	lsrs	r0, r1, #8
   25f88:	7120      	strb	r0, [r4, #4]
   25f8a:	70e1      	strb	r1, [r4, #3]
   25f8c:	1de0      	adds	r0, r4, #7
   25f8e:	2223      	movs	r2, #35	@ 0x23
   25f90:	990b      	ldr	r1, [sp, #44]	@ 0x2c
   25f92:	f001 f982 	bl	2729a <__aeabi_memcpy>
   25f96:	4d05      	ldr	r5, [pc, #20]	@ (25fac <_start+0x1d74>)
   25f98:	446d      	add	r5, sp
   25f9a:	4628      	mov	r0, r5
   25f9c:	4621      	mov	r1, r4
   25f9e:	f7fb fbbb 	bl	21718 <_ZN20complex_full_dynamic3app17h4afe455b9fb9ced3E>
   25fa2:	7828      	ldrb	r0, [r5, #0]
   25fa4:	2801      	cmp	r0, #1
   25fa6:	d107      	bne.n	25fb8 <_start+0x1d80>
   25fa8:	f7fe fc1b 	bl	247e2 <_start+0x5aa>
   25fac:	00001404 	.word	0x00001404
   25fb0:	00000be8 	.word	0x00000be8
   25fb4:	000013a8 	.word	0x000013a8
   25fb8:	4915      	ldr	r1, [pc, #84]	@ (26010 <_start+0x1dd8>)
   25fba:	4469      	add	r1, sp
   25fbc:	78c8      	ldrb	r0, [r1, #3]
   25fbe:	4c15      	ldr	r4, [pc, #84]	@ (26014 <_start+0x1ddc>)
   25fc0:	446c      	add	r4, sp
   25fc2:	70a0      	strb	r0, [r4, #2]
   25fc4:	7848      	ldrb	r0, [r1, #1]
   25fc6:	788a      	ldrb	r2, [r1, #2]
   25fc8:	0212      	lsls	r2, r2, #8
   25fca:	1810      	adds	r0, r2, r0
   25fcc:	8020      	strh	r0, [r4, #0]
   25fce:	9808      	ldr	r0, [sp, #32]
   25fd0:	6e05      	ldr	r5, [r0, #96]	@ 0x60
   25fd2:	3108      	adds	r1, #8
   25fd4:	4810      	ldr	r0, [pc, #64]	@ (26018 <_start+0x1de0>)
   25fd6:	4468      	add	r0, sp
   25fd8:	900b      	str	r0, [sp, #44]	@ 0x2c
   25fda:	2652      	movs	r6, #82	@ 0x52
   25fdc:	4632      	mov	r2, r6
   25fde:	f000 fffc 	bl	26fda <__aeabi_memcpy4>
   25fe2:	0e28      	lsrs	r0, r5, #24
   25fe4:	71a0      	strb	r0, [r4, #6]
   25fe6:	0c28      	lsrs	r0, r5, #16
   25fe8:	7160      	strb	r0, [r4, #5]
   25fea:	0a28      	lsrs	r0, r5, #8
   25fec:	7120      	strb	r0, [r4, #4]
   25fee:	70e5      	strb	r5, [r4, #3]
   25ff0:	1de0      	adds	r0, r4, #7
   25ff2:	990b      	ldr	r1, [sp, #44]	@ 0x2c
   25ff4:	4632      	mov	r2, r6
   25ff6:	f001 f950 	bl	2729a <__aeabi_memcpy>
   25ffa:	4d05      	ldr	r5, [pc, #20]	@ (26010 <_start+0x1dd8>)
   25ffc:	446d      	add	r5, sp
   25ffe:	4628      	mov	r0, r5
   26000:	4621      	mov	r1, r4
   26002:	f7fd fe51 	bl	23ca8 <_ZN20complex_full_dynamic3app17hee7ef07769ccb0acE>
   26006:	7828      	ldrb	r0, [r5, #0]
   26008:	2801      	cmp	r0, #1
   2600a:	d107      	bne.n	2601c <_start+0x1de4>
   2600c:	f7fe fbe9 	bl	247e2 <_start+0x5aa>
   26010:	00001404 	.word	0x00001404
   26014:	00000c14 	.word	0x00000c14
   26018:	000013a8 	.word	0x000013a8
   2601c:	4915      	ldr	r1, [pc, #84]	@ (26074 <_start+0x1e3c>)
   2601e:	4469      	add	r1, sp
   26020:	78c8      	ldrb	r0, [r1, #3]
   26022:	4c15      	ldr	r4, [pc, #84]	@ (26078 <_start+0x1e40>)
   26024:	446c      	add	r4, sp
   26026:	70a0      	strb	r0, [r4, #2]
   26028:	7848      	ldrb	r0, [r1, #1]
   2602a:	788a      	ldrb	r2, [r1, #2]
   2602c:	0212      	lsls	r2, r2, #8
   2602e:	1810      	adds	r0, r2, r0
   26030:	8020      	strh	r0, [r4, #0]
   26032:	9808      	ldr	r0, [sp, #32]
   26034:	6e05      	ldr	r5, [r0, #96]	@ 0x60
   26036:	3108      	adds	r1, #8
   26038:	4810      	ldr	r0, [pc, #64]	@ (2607c <_start+0x1e44>)
   2603a:	4468      	add	r0, sp
   2603c:	900b      	str	r0, [sp, #44]	@ 0x2c
   2603e:	2643      	movs	r6, #67	@ 0x43
   26040:	4632      	mov	r2, r6
   26042:	f000 ffca 	bl	26fda <__aeabi_memcpy4>
   26046:	0e28      	lsrs	r0, r5, #24
   26048:	71a0      	strb	r0, [r4, #6]
   2604a:	0c28      	lsrs	r0, r5, #16
   2604c:	7160      	strb	r0, [r4, #5]
   2604e:	0a28      	lsrs	r0, r5, #8
   26050:	7120      	strb	r0, [r4, #4]
   26052:	70e5      	strb	r5, [r4, #3]
   26054:	1de0      	adds	r0, r4, #7
   26056:	990b      	ldr	r1, [sp, #44]	@ 0x2c
   26058:	4632      	mov	r2, r6
   2605a:	f001 f91e 	bl	2729a <__aeabi_memcpy>
   2605e:	4d05      	ldr	r5, [pc, #20]	@ (26074 <_start+0x1e3c>)
   26060:	446d      	add	r5, sp
   26062:	4628      	mov	r0, r5
   26064:	4621      	mov	r1, r4
   26066:	f7fb ffe3 	bl	22030 <_ZN20complex_full_dynamic3app17h6eb4ec99a92c02b5E>
   2606a:	7828      	ldrb	r0, [r5, #0]
   2606c:	2801      	cmp	r0, #1
   2606e:	d107      	bne.n	26080 <_start+0x1e48>
   26070:	f7fe fbb7 	bl	247e2 <_start+0x5aa>
   26074:	00001404 	.word	0x00001404
   26078:	00000c70 	.word	0x00000c70
   2607c:	000013a8 	.word	0x000013a8
   26080:	4817      	ldr	r0, [pc, #92]	@ (260e0 <_start+0x1ea8>)
   26082:	4468      	add	r0, sp
   26084:	78c1      	ldrb	r1, [r0, #3]
   26086:	4c17      	ldr	r4, [pc, #92]	@ (260e4 <_start+0x1eac>)
   26088:	446c      	add	r4, sp
   2608a:	70a1      	strb	r1, [r4, #2]
   2608c:	7841      	ldrb	r1, [r0, #1]
   2608e:	7882      	ldrb	r2, [r0, #2]
   26090:	0212      	lsls	r2, r2, #8
   26092:	1851      	adds	r1, r2, r1
   26094:	8021      	strh	r1, [r4, #0]
   26096:	3008      	adds	r0, #8
   26098:	9908      	ldr	r1, [sp, #32]
   2609a:	6e09      	ldr	r1, [r1, #96]	@ 0x60
   2609c:	4b12      	ldr	r3, [pc, #72]	@ (260e8 <_start+0x1eb0>)
   2609e:	446b      	add	r3, sp
   260a0:	930b      	str	r3, [sp, #44]	@ 0x2c
   260a2:	c864      	ldmia	r0!, {r2, r5, r6}
   260a4:	c364      	stmia	r3!, {r2, r5, r6}
   260a6:	c864      	ldmia	r0!, {r2, r5, r6}
   260a8:	c364      	stmia	r3!, {r2, r5, r6}
   260aa:	c864      	ldmia	r0!, {r2, r5, r6}
   260ac:	c364      	stmia	r3!, {r2, r5, r6}
   260ae:	8800      	ldrh	r0, [r0, #0]
   260b0:	8018      	strh	r0, [r3, #0]
   260b2:	0e08      	lsrs	r0, r1, #24
   260b4:	71a0      	strb	r0, [r4, #6]
   260b6:	0c08      	lsrs	r0, r1, #16
   260b8:	7160      	strb	r0, [r4, #5]
   260ba:	0a08      	lsrs	r0, r1, #8
   260bc:	7120      	strb	r0, [r4, #4]
   260be:	70e1      	strb	r1, [r4, #3]
   260c0:	1de0      	adds	r0, r4, #7
   260c2:	2226      	movs	r2, #38	@ 0x26
   260c4:	990b      	ldr	r1, [sp, #44]	@ 0x2c
   260c6:	f001 f8e8 	bl	2729a <__aeabi_memcpy>
   260ca:	4d05      	ldr	r5, [pc, #20]	@ (260e0 <_start+0x1ea8>)
   260cc:	446d      	add	r5, sp
   260ce:	4628      	mov	r0, r5
   260d0:	4621      	mov	r1, r4
   260d2:	f7fc fc89 	bl	229e8 <_ZN20complex_full_dynamic3app17h96a61920066cafe1E>
   260d6:	7828      	ldrb	r0, [r5, #0]
   260d8:	2801      	cmp	r0, #1
   260da:	d107      	bne.n	260ec <_start+0x1eb4>
   260dc:	f7fe fb81 	bl	247e2 <_start+0x5aa>
   260e0:	00001404 	.word	0x00001404
   260e4:	00000cbc 	.word	0x00000cbc
   260e8:	000013a8 	.word	0x000013a8
   260ec:	4915      	ldr	r1, [pc, #84]	@ (26144 <_start+0x1f0c>)
   260ee:	4469      	add	r1, sp
   260f0:	78c8      	ldrb	r0, [r1, #3]
   260f2:	4c15      	ldr	r4, [pc, #84]	@ (26148 <_start+0x1f10>)
   260f4:	446c      	add	r4, sp
   260f6:	70a0      	strb	r0, [r4, #2]
   260f8:	7848      	ldrb	r0, [r1, #1]
   260fa:	788a      	ldrb	r2, [r1, #2]
   260fc:	0212      	lsls	r2, r2, #8
   260fe:	1810      	adds	r0, r2, r0
   26100:	8020      	strh	r0, [r4, #0]
   26102:	9808      	ldr	r0, [sp, #32]
   26104:	6e05      	ldr	r5, [r0, #96]	@ 0x60
   26106:	3108      	adds	r1, #8
   26108:	4810      	ldr	r0, [pc, #64]	@ (2614c <_start+0x1f14>)
   2610a:	4468      	add	r0, sp
   2610c:	900b      	str	r0, [sp, #44]	@ 0x2c
   2610e:	264c      	movs	r6, #76	@ 0x4c
   26110:	4632      	mov	r2, r6
   26112:	f000 ff62 	bl	26fda <__aeabi_memcpy4>
   26116:	0e28      	lsrs	r0, r5, #24
   26118:	71a0      	strb	r0, [r4, #6]
   2611a:	0c28      	lsrs	r0, r5, #16
   2611c:	7160      	strb	r0, [r4, #5]
   2611e:	0a28      	lsrs	r0, r5, #8
   26120:	7120      	strb	r0, [r4, #4]
   26122:	70e5      	strb	r5, [r4, #3]
   26124:	1de0      	adds	r0, r4, #7
   26126:	990b      	ldr	r1, [sp, #44]	@ 0x2c
   26128:	4632      	mov	r2, r6
   2612a:	f001 f8b6 	bl	2729a <__aeabi_memcpy>
   2612e:	4d05      	ldr	r5, [pc, #20]	@ (26144 <_start+0x1f0c>)
   26130:	446d      	add	r5, sp
   26132:	4628      	mov	r0, r5
   26134:	4621      	mov	r1, r4
   26136:	f7fa ffd3 	bl	210e0 <_ZN20complex_full_dynamic3app17h338b5878b1de5c0bE>
   2613a:	7828      	ldrb	r0, [r5, #0]
   2613c:	2801      	cmp	r0, #1
   2613e:	d107      	bne.n	26150 <_start+0x1f18>
   26140:	f7fe fb4f 	bl	247e2 <_start+0x5aa>
   26144:	00001404 	.word	0x00001404
   26148:	00000cec 	.word	0x00000cec
   2614c:	000013a8 	.word	0x000013a8
   26150:	4819      	ldr	r0, [pc, #100]	@ (261b8 <_start+0x1f80>)
   26152:	4468      	add	r0, sp
   26154:	78c1      	ldrb	r1, [r0, #3]
   26156:	4c19      	ldr	r4, [pc, #100]	@ (261bc <_start+0x1f84>)
   26158:	446c      	add	r4, sp
   2615a:	70a1      	strb	r1, [r4, #2]
   2615c:	7841      	ldrb	r1, [r0, #1]
   2615e:	7882      	ldrb	r2, [r0, #2]
   26160:	0212      	lsls	r2, r2, #8
   26162:	1851      	adds	r1, r2, r1
   26164:	8021      	strh	r1, [r4, #0]
   26166:	3008      	adds	r0, #8
   26168:	9908      	ldr	r1, [sp, #32]
   2616a:	6e09      	ldr	r1, [r1, #96]	@ 0x60
   2616c:	910a      	str	r1, [sp, #40]	@ 0x28
   2616e:	4b14      	ldr	r3, [pc, #80]	@ (261c0 <_start+0x1f88>)
   26170:	446b      	add	r3, sp
   26172:	930b      	str	r3, [sp, #44]	@ 0x2c
   26174:	c866      	ldmia	r0!, {r1, r2, r5, r6}
   26176:	c366      	stmia	r3!, {r1, r2, r5, r6}
   26178:	c866      	ldmia	r0!, {r1, r2, r5, r6}
   2617a:	c366      	stmia	r3!, {r1, r2, r5, r6}
   2617c:	c866      	ldmia	r0!, {r1, r2, r5, r6}
   2617e:	c366      	stmia	r3!, {r1, r2, r5, r6}
   26180:	8801      	ldrh	r1, [r0, #0]
   26182:	8019      	strh	r1, [r3, #0]
   26184:	7880      	ldrb	r0, [r0, #2]
   26186:	7098      	strb	r0, [r3, #2]
   26188:	990a      	ldr	r1, [sp, #40]	@ 0x28
   2618a:	0e08      	lsrs	r0, r1, #24
   2618c:	71a0      	strb	r0, [r4, #6]
   2618e:	0c08      	lsrs	r0, r1, #16
   26190:	7160      	strb	r0, [r4, #5]
   26192:	0a08      	lsrs	r0, r1, #8
   26194:	7120      	strb	r0, [r4, #4]
   26196:	70e1      	strb	r1, [r4, #3]
   26198:	1de0      	adds	r0, r4, #7
   2619a:	2233      	movs	r2, #51	@ 0x33
   2619c:	990b      	ldr	r1, [sp, #44]	@ 0x2c
   2619e:	f001 f87c 	bl	2729a <__aeabi_memcpy>
   261a2:	4d05      	ldr	r5, [pc, #20]	@ (261b8 <_start+0x1f80>)
   261a4:	446d      	add	r5, sp
   261a6:	4628      	mov	r0, r5
   261a8:	4621      	mov	r1, r4
   261aa:	f7fb fbbd 	bl	21928 <_ZN20complex_full_dynamic3app17h528ff2f579312c24E>
   261ae:	7828      	ldrb	r0, [r5, #0]
   261b0:	2801      	cmp	r0, #1
   261b2:	d107      	bne.n	261c4 <_start+0x1f8c>
   261b4:	f7fe fb15 	bl	247e2 <_start+0x5aa>
   261b8:	00001404 	.word	0x00001404
   261bc:	00000d40 	.word	0x00000d40
   261c0:	000013a8 	.word	0x000013a8
   261c4:	4915      	ldr	r1, [pc, #84]	@ (2621c <_start+0x1fe4>)
   261c6:	4469      	add	r1, sp
   261c8:	78c8      	ldrb	r0, [r1, #3]
   261ca:	4c15      	ldr	r4, [pc, #84]	@ (26220 <_start+0x1fe8>)
   261cc:	446c      	add	r4, sp
   261ce:	70a0      	strb	r0, [r4, #2]
   261d0:	7848      	ldrb	r0, [r1, #1]
   261d2:	788a      	ldrb	r2, [r1, #2]
   261d4:	0212      	lsls	r2, r2, #8
   261d6:	1810      	adds	r0, r2, r0
   261d8:	8020      	strh	r0, [r4, #0]
   261da:	9808      	ldr	r0, [sp, #32]
   261dc:	6e05      	ldr	r5, [r0, #96]	@ 0x60
   261de:	3108      	adds	r1, #8
   261e0:	4810      	ldr	r0, [pc, #64]	@ (26224 <_start+0x1fec>)
   261e2:	4468      	add	r0, sp
   261e4:	900b      	str	r0, [sp, #44]	@ 0x2c
   261e6:	2656      	movs	r6, #86	@ 0x56
   261e8:	4632      	mov	r2, r6
   261ea:	f000 fef6 	bl	26fda <__aeabi_memcpy4>
   261ee:	0e28      	lsrs	r0, r5, #24
   261f0:	71a0      	strb	r0, [r4, #6]
   261f2:	0c28      	lsrs	r0, r5, #16
   261f4:	7160      	strb	r0, [r4, #5]
   261f6:	0a28      	lsrs	r0, r5, #8
   261f8:	7120      	strb	r0, [r4, #4]
   261fa:	70e5      	strb	r5, [r4, #3]
   261fc:	1de0      	adds	r0, r4, #7
   261fe:	990b      	ldr	r1, [sp, #44]	@ 0x2c
   26200:	4632      	mov	r2, r6
   26202:	f001 f84a 	bl	2729a <__aeabi_memcpy>
   26206:	4d05      	ldr	r5, [pc, #20]	@ (2621c <_start+0x1fe4>)
   26208:	446d      	add	r5, sp
   2620a:	4628      	mov	r0, r5
   2620c:	4621      	mov	r1, r4
   2620e:	f7fa f97f 	bl	20510 <_ZN20complex_full_dynamic3app17h09786f74586f6faaE>
   26212:	7828      	ldrb	r0, [r5, #0]
   26214:	2801      	cmp	r0, #1
   26216:	d107      	bne.n	26228 <_start+0x1ff0>
   26218:	f7fe fae3 	bl	247e2 <_start+0x5aa>
   2621c:	00001404 	.word	0x00001404
   26220:	00000d7c 	.word	0x00000d7c
   26224:	000013a8 	.word	0x000013a8
   26228:	4819      	ldr	r0, [pc, #100]	@ (26290 <_start+0x2058>)
   2622a:	4468      	add	r0, sp
   2622c:	78c1      	ldrb	r1, [r0, #3]
   2622e:	4c19      	ldr	r4, [pc, #100]	@ (26294 <_start+0x205c>)
   26230:	446c      	add	r4, sp
   26232:	70a1      	strb	r1, [r4, #2]
   26234:	7841      	ldrb	r1, [r0, #1]
   26236:	7882      	ldrb	r2, [r0, #2]
   26238:	0212      	lsls	r2, r2, #8
   2623a:	1851      	adds	r1, r2, r1
   2623c:	8021      	strh	r1, [r4, #0]
   2623e:	3008      	adds	r0, #8
   26240:	9908      	ldr	r1, [sp, #32]
   26242:	6e09      	ldr	r1, [r1, #96]	@ 0x60
   26244:	910a      	str	r1, [sp, #40]	@ 0x28
   26246:	4b14      	ldr	r3, [pc, #80]	@ (26298 <_start+0x2060>)
   26248:	446b      	add	r3, sp
   2624a:	930b      	str	r3, [sp, #44]	@ 0x2c
   2624c:	c864      	ldmia	r0!, {r2, r5, r6}
   2624e:	c364      	stmia	r3!, {r2, r5, r6}
   26250:	c866      	ldmia	r0!, {r1, r2, r5, r6}
   26252:	c366      	stmia	r3!, {r1, r2, r5, r6}
   26254:	c826      	ldmia	r0!, {r1, r2, r5}
   26256:	c326      	stmia	r3!, {r1, r2, r5}
   26258:	c866      	ldmia	r0!, {r1, r2, r5, r6}
   2625a:	c366      	stmia	r3!, {r1, r2, r5, r6}
   2625c:	7800      	ldrb	r0, [r0, #0]
   2625e:	7018      	strb	r0, [r3, #0]
   26260:	990a      	ldr	r1, [sp, #40]	@ 0x28
   26262:	0e08      	lsrs	r0, r1, #24
   26264:	71a0      	strb	r0, [r4, #6]
   26266:	0c08      	lsrs	r0, r1, #16
   26268:	7160      	strb	r0, [r4, #5]
   2626a:	0a08      	lsrs	r0, r1, #8
   2626c:	7120      	strb	r0, [r4, #4]
   2626e:	70e1      	strb	r1, [r4, #3]
   26270:	1de0      	adds	r0, r4, #7
   26272:	2239      	movs	r2, #57	@ 0x39
   26274:	990b      	ldr	r1, [sp, #44]	@ 0x2c
   26276:	f001 f810 	bl	2729a <__aeabi_memcpy>
   2627a:	4d05      	ldr	r5, [pc, #20]	@ (26290 <_start+0x2058>)
   2627c:	446d      	add	r5, sp
   2627e:	4628      	mov	r0, r5
   26280:	4621      	mov	r1, r4
   26282:	f7fc fc61 	bl	22b48 <_ZN20complex_full_dynamic3app17h98c5dc0c093f445dE>
   26286:	7828      	ldrb	r0, [r5, #0]
   26288:	2801      	cmp	r0, #1
   2628a:	d107      	bne.n	2629c <_start+0x2064>
   2628c:	f7fe faa9 	bl	247e2 <_start+0x5aa>
   26290:	00001404 	.word	0x00001404
   26294:	00000ddc 	.word	0x00000ddc
   26298:	000013a8 	.word	0x000013a8
   2629c:	4818      	ldr	r0, [pc, #96]	@ (26300 <_start+0x20c8>)
   2629e:	4468      	add	r0, sp
   262a0:	78c1      	ldrb	r1, [r0, #3]
   262a2:	4c18      	ldr	r4, [pc, #96]	@ (26304 <_start+0x20cc>)
   262a4:	446c      	add	r4, sp
   262a6:	70a1      	strb	r1, [r4, #2]
   262a8:	7841      	ldrb	r1, [r0, #1]
   262aa:	7882      	ldrb	r2, [r0, #2]
   262ac:	0212      	lsls	r2, r2, #8
   262ae:	1851      	adds	r1, r2, r1
   262b0:	8021      	strh	r1, [r4, #0]
   262b2:	3008      	adds	r0, #8
   262b4:	9908      	ldr	r1, [sp, #32]
   262b6:	6e09      	ldr	r1, [r1, #96]	@ 0x60
   262b8:	910a      	str	r1, [sp, #40]	@ 0x28
   262ba:	4b13      	ldr	r3, [pc, #76]	@ (26308 <_start+0x20d0>)
   262bc:	446b      	add	r3, sp
   262be:	930b      	str	r3, [sp, #44]	@ 0x2c
   262c0:	c864      	ldmia	r0!, {r2, r5, r6}
   262c2:	c364      	stmia	r3!, {r2, r5, r6}
   262c4:	c864      	ldmia	r0!, {r2, r5, r6}
   262c6:	c364      	stmia	r3!, {r2, r5, r6}
   262c8:	c866      	ldmia	r0!, {r1, r2, r5, r6}
   262ca:	c366      	stmia	r3!, {r1, r2, r5, r6}
   262cc:	8800      	ldrh	r0, [r0, #0]
   262ce:	8018      	strh	r0, [r3, #0]
   262d0:	990a      	ldr	r1, [sp, #40]	@ 0x28
   262d2:	0e08      	lsrs	r0, r1, #24
   262d4:	71a0      	strb	r0, [r4, #6]
   262d6:	0c08      	lsrs	r0, r1, #16
   262d8:	7160      	strb	r0, [r4, #5]
   262da:	0a08      	lsrs	r0, r1, #8
   262dc:	7120      	strb	r0, [r4, #4]
   262de:	70e1      	strb	r1, [r4, #3]
   262e0:	1de0      	adds	r0, r4, #7
   262e2:	222a      	movs	r2, #42	@ 0x2a
   262e4:	990b      	ldr	r1, [sp, #44]	@ 0x2c
   262e6:	f000 ffd8 	bl	2729a <__aeabi_memcpy>
   262ea:	4d05      	ldr	r5, [pc, #20]	@ (26300 <_start+0x20c8>)
   262ec:	446d      	add	r5, sp
   262ee:	4628      	mov	r0, r5
   262f0:	4621      	mov	r1, r4
   262f2:	f7fa fe43 	bl	20f7c <_ZN20complex_full_dynamic3app17h30bcd72d39797225E>
   262f6:	7828      	ldrb	r0, [r5, #0]
   262f8:	2801      	cmp	r0, #1
   262fa:	d107      	bne.n	2630c <_start+0x20d4>
   262fc:	f7fe fa71 	bl	247e2 <_start+0x5aa>
   26300:	00001404 	.word	0x00001404
   26304:	00000e1c 	.word	0x00000e1c
   26308:	000013a8 	.word	0x000013a8
   2630c:	4915      	ldr	r1, [pc, #84]	@ (26364 <_start+0x212c>)
   2630e:	4469      	add	r1, sp
   26310:	78c8      	ldrb	r0, [r1, #3]
   26312:	4c15      	ldr	r4, [pc, #84]	@ (26368 <_start+0x2130>)
   26314:	446c      	add	r4, sp
   26316:	70a0      	strb	r0, [r4, #2]
   26318:	7848      	ldrb	r0, [r1, #1]
   2631a:	788a      	ldrb	r2, [r1, #2]
   2631c:	0212      	lsls	r2, r2, #8
   2631e:	1810      	adds	r0, r2, r0
   26320:	8020      	strh	r0, [r4, #0]
   26322:	9808      	ldr	r0, [sp, #32]
   26324:	6e05      	ldr	r5, [r0, #96]	@ 0x60
   26326:	3108      	adds	r1, #8
   26328:	4810      	ldr	r0, [pc, #64]	@ (2636c <_start+0x2134>)
   2632a:	4468      	add	r0, sp
   2632c:	900b      	str	r0, [sp, #44]	@ 0x2c
   2632e:	2641      	movs	r6, #65	@ 0x41
   26330:	4632      	mov	r2, r6
   26332:	f000 fe52 	bl	26fda <__aeabi_memcpy4>
   26336:	0e28      	lsrs	r0, r5, #24
   26338:	71a0      	strb	r0, [r4, #6]
   2633a:	0c28      	lsrs	r0, r5, #16
   2633c:	7160      	strb	r0, [r4, #5]
   2633e:	0a28      	lsrs	r0, r5, #8
   26340:	7120      	strb	r0, [r4, #4]
   26342:	70e5      	strb	r5, [r4, #3]
   26344:	1de0      	adds	r0, r4, #7
   26346:	990b      	ldr	r1, [sp, #44]	@ 0x2c
   26348:	4632      	mov	r2, r6
   2634a:	f000 ffa6 	bl	2729a <__aeabi_memcpy>
   2634e:	4d05      	ldr	r5, [pc, #20]	@ (26364 <_start+0x212c>)
   26350:	446d      	add	r5, sp
   26352:	4628      	mov	r0, r5
   26354:	4621      	mov	r1, r4
   26356:	f7fd fe0b 	bl	23f70 <_ZN20complex_full_dynamic3app17hf4455b0208d2dc56E>
   2635a:	7828      	ldrb	r0, [r5, #0]
   2635c:	2801      	cmp	r0, #1
   2635e:	d107      	bne.n	26370 <_start+0x2138>
   26360:	f7fe fa3f 	bl	247e2 <_start+0x5aa>
   26364:	00001404 	.word	0x00001404
   26368:	00000e50 	.word	0x00000e50
   2636c:	000013a8 	.word	0x000013a8
   26370:	4817      	ldr	r0, [pc, #92]	@ (263d0 <_start+0x2198>)
   26372:	4468      	add	r0, sp
   26374:	78c1      	ldrb	r1, [r0, #3]
   26376:	4c17      	ldr	r4, [pc, #92]	@ (263d4 <_start+0x219c>)
   26378:	446c      	add	r4, sp
   2637a:	70a1      	strb	r1, [r4, #2]
   2637c:	7841      	ldrb	r1, [r0, #1]
   2637e:	7882      	ldrb	r2, [r0, #2]
   26380:	0212      	lsls	r2, r2, #8
   26382:	1851      	adds	r1, r2, r1
   26384:	8021      	strh	r1, [r4, #0]
   26386:	3008      	adds	r0, #8
   26388:	9908      	ldr	r1, [sp, #32]
   2638a:	6e09      	ldr	r1, [r1, #96]	@ 0x60
   2638c:	910a      	str	r1, [sp, #40]	@ 0x28
   2638e:	4b12      	ldr	r3, [pc, #72]	@ (263d8 <_start+0x21a0>)
   26390:	446b      	add	r3, sp
   26392:	930b      	str	r3, [sp, #44]	@ 0x2c
   26394:	c866      	ldmia	r0!, {r1, r2, r5, r6}
   26396:	c366      	stmia	r3!, {r1, r2, r5, r6}
   26398:	c866      	ldmia	r0!, {r1, r2, r5, r6}
   2639a:	c366      	stmia	r3!, {r1, r2, r5, r6}
   2639c:	8800      	ldrh	r0, [r0, #0]
   2639e:	8018      	strh	r0, [r3, #0]
   263a0:	990a      	ldr	r1, [sp, #40]	@ 0x28
   263a2:	0e08      	lsrs	r0, r1, #24
   263a4:	71a0      	strb	r0, [r4, #6]
   263a6:	0c08      	lsrs	r0, r1, #16
   263a8:	7160      	strb	r0, [r4, #5]
   263aa:	0a08      	lsrs	r0, r1, #8
   263ac:	7120      	strb	r0, [r4, #4]
   263ae:	70e1      	strb	r1, [r4, #3]
   263b0:	1de0      	adds	r0, r4, #7
   263b2:	2222      	movs	r2, #34	@ 0x22
   263b4:	990b      	ldr	r1, [sp, #44]	@ 0x2c
   263b6:	f000 ff70 	bl	2729a <__aeabi_memcpy>
   263ba:	4d05      	ldr	r5, [pc, #20]	@ (263d0 <_start+0x2198>)
   263bc:	446d      	add	r5, sp
   263be:	4628      	mov	r0, r5
   263c0:	4621      	mov	r1, r4
   263c2:	f7fa fc77 	bl	20cb4 <_ZN20complex_full_dynamic3app17h2895bec7d6e30f57E>
   263c6:	7828      	ldrb	r0, [r5, #0]
   263c8:	2801      	cmp	r0, #1
   263ca:	d107      	bne.n	263dc <_start+0x21a4>
   263cc:	f7fe fa09 	bl	247e2 <_start+0x5aa>
   263d0:	00001404 	.word	0x00001404
   263d4:	00000e98 	.word	0x00000e98
   263d8:	000013a8 	.word	0x000013a8
   263dc:	4817      	ldr	r0, [pc, #92]	@ (2643c <_start+0x2204>)
   263de:	4468      	add	r0, sp
   263e0:	78c1      	ldrb	r1, [r0, #3]
   263e2:	4c17      	ldr	r4, [pc, #92]	@ (26440 <_start+0x2208>)
   263e4:	446c      	add	r4, sp
   263e6:	70a1      	strb	r1, [r4, #2]
   263e8:	7841      	ldrb	r1, [r0, #1]
   263ea:	7882      	ldrb	r2, [r0, #2]
   263ec:	0212      	lsls	r2, r2, #8
   263ee:	1851      	adds	r1, r2, r1
   263f0:	8021      	strh	r1, [r4, #0]
   263f2:	3008      	adds	r0, #8
   263f4:	9908      	ldr	r1, [sp, #32]
   263f6:	6e09      	ldr	r1, [r1, #96]	@ 0x60
   263f8:	910a      	str	r1, [sp, #40]	@ 0x28
   263fa:	4b12      	ldr	r3, [pc, #72]	@ (26444 <_start+0x220c>)
   263fc:	446b      	add	r3, sp
   263fe:	930b      	str	r3, [sp, #44]	@ 0x2c
   26400:	c866      	ldmia	r0!, {r1, r2, r5, r6}
   26402:	c366      	stmia	r3!, {r1, r2, r5, r6}
   26404:	8801      	ldrh	r1, [r0, #0]
   26406:	8019      	strh	r1, [r3, #0]
   26408:	7880      	ldrb	r0, [r0, #2]
   2640a:	7098      	strb	r0, [r3, #2]
   2640c:	990a      	ldr	r1, [sp, #40]	@ 0x28
   2640e:	0e08      	lsrs	r0, r1, #24
   26410:	71a0      	strb	r0, [r4, #6]
   26412:	0c08      	lsrs	r0, r1, #16
   26414:	7160      	strb	r0, [r4, #5]
   26416:	0a08      	lsrs	r0, r1, #8
   26418:	7120      	strb	r0, [r4, #4]
   2641a:	70e1      	strb	r1, [r4, #3]
   2641c:	1de0      	adds	r0, r4, #7
   2641e:	2213      	movs	r2, #19
   26420:	990b      	ldr	r1, [sp, #44]	@ 0x2c
   26422:	f000 ff3a 	bl	2729a <__aeabi_memcpy>
   26426:	4d05      	ldr	r5, [pc, #20]	@ (2643c <_start+0x2204>)
   26428:	446d      	add	r5, sp
   2642a:	4628      	mov	r0, r5
   2642c:	4621      	mov	r1, r4
   2642e:	f7fd f971 	bl	23714 <_ZN20complex_full_dynamic3app17hcd619064efa40958E>
   26432:	7828      	ldrb	r0, [r5, #0]
   26434:	2801      	cmp	r0, #1
   26436:	d107      	bne.n	26448 <_start+0x2210>
   26438:	f7fe f9d3 	bl	247e2 <_start+0x5aa>
   2643c:	00001404 	.word	0x00001404
   26440:	00000ec4 	.word	0x00000ec4
   26444:	000013a8 	.word	0x000013a8
   26448:	4815      	ldr	r0, [pc, #84]	@ (264a0 <_start+0x2268>)
   2644a:	4468      	add	r0, sp
   2644c:	78c1      	ldrb	r1, [r0, #3]
   2644e:	4c15      	ldr	r4, [pc, #84]	@ (264a4 <_start+0x226c>)
   26450:	446c      	add	r4, sp
   26452:	70a1      	strb	r1, [r4, #2]
   26454:	7841      	ldrb	r1, [r0, #1]
   26456:	7882      	ldrb	r2, [r0, #2]
   26458:	0212      	lsls	r2, r2, #8
   2645a:	1851      	adds	r1, r2, r1
   2645c:	8021      	strh	r1, [r4, #0]
   2645e:	3008      	adds	r0, #8
   26460:	9908      	ldr	r1, [sp, #32]
   26462:	6e09      	ldr	r1, [r1, #96]	@ 0x60
   26464:	4b10      	ldr	r3, [pc, #64]	@ (264a8 <_start+0x2270>)
   26466:	446b      	add	r3, sp
   26468:	930b      	str	r3, [sp, #44]	@ 0x2c
   2646a:	c860      	ldmia	r0!, {r5, r6}
   2646c:	c360      	stmia	r3!, {r5, r6}
   2646e:	c864      	ldmia	r0!, {r2, r5, r6}
   26470:	c364      	stmia	r3!, {r2, r5, r6}
   26472:	0e08      	lsrs	r0, r1, #24
   26474:	71a0      	strb	r0, [r4, #6]
   26476:	0c08      	lsrs	r0, r1, #16
   26478:	7160      	strb	r0, [r4, #5]
   2647a:	0a08      	lsrs	r0, r1, #8
   2647c:	7120      	strb	r0, [r4, #4]
   2647e:	70e1      	strb	r1, [r4, #3]
   26480:	1de0      	adds	r0, r4, #7
   26482:	2214      	movs	r2, #20
   26484:	990b      	ldr	r1, [sp, #44]	@ 0x2c
   26486:	f000 ff08 	bl	2729a <__aeabi_memcpy>
   2648a:	4d05      	ldr	r5, [pc, #20]	@ (264a0 <_start+0x2268>)
   2648c:	446d      	add	r5, sp
   2648e:	4628      	mov	r0, r5
   26490:	4621      	mov	r1, r4
   26492:	f7fc fe77 	bl	23184 <_ZN20complex_full_dynamic3app17hab2211565ab07236E>
   26496:	7828      	ldrb	r0, [r5, #0]
   26498:	2801      	cmp	r0, #1
   2649a:	d107      	bne.n	264ac <_start+0x2274>
   2649c:	f7fe f9a1 	bl	247e2 <_start+0x5aa>
   264a0:	00001404 	.word	0x00001404
   264a4:	00000ee0 	.word	0x00000ee0
   264a8:	000013a8 	.word	0x000013a8
   264ac:	4819      	ldr	r0, [pc, #100]	@ (26514 <_start+0x22dc>)
   264ae:	4468      	add	r0, sp
   264b0:	78c1      	ldrb	r1, [r0, #3]
   264b2:	4c19      	ldr	r4, [pc, #100]	@ (26518 <_start+0x22e0>)
   264b4:	446c      	add	r4, sp
   264b6:	70a1      	strb	r1, [r4, #2]
   264b8:	7841      	ldrb	r1, [r0, #1]
   264ba:	7882      	ldrb	r2, [r0, #2]
   264bc:	0212      	lsls	r2, r2, #8
   264be:	1851      	adds	r1, r2, r1
   264c0:	8021      	strh	r1, [r4, #0]
   264c2:	3008      	adds	r0, #8
   264c4:	9908      	ldr	r1, [sp, #32]
   264c6:	6e09      	ldr	r1, [r1, #96]	@ 0x60
   264c8:	910a      	str	r1, [sp, #40]	@ 0x28
   264ca:	4b14      	ldr	r3, [pc, #80]	@ (2651c <_start+0x22e4>)
   264cc:	446b      	add	r3, sp
   264ce:	930b      	str	r3, [sp, #44]	@ 0x2c
   264d0:	c864      	ldmia	r0!, {r2, r5, r6}
   264d2:	c364      	stmia	r3!, {r2, r5, r6}
   264d4:	c866      	ldmia	r0!, {r1, r2, r5, r6}
   264d6:	c366      	stmia	r3!, {r1, r2, r5, r6}
   264d8:	c826      	ldmia	r0!, {r1, r2, r5}
   264da:	c326      	stmia	r3!, {r1, r2, r5}
   264dc:	c866      	ldmia	r0!, {r1, r2, r5, r6}
   264de:	c366      	stmia	r3!, {r1, r2, r5, r6}
   264e0:	8800      	ldrh	r0, [r0, #0]
   264e2:	8018      	strh	r0, [r3, #0]
   264e4:	990a      	ldr	r1, [sp, #40]	@ 0x28
   264e6:	0e08      	lsrs	r0, r1, #24
   264e8:	71a0      	strb	r0, [r4, #6]
   264ea:	0c08      	lsrs	r0, r1, #16
   264ec:	7160      	strb	r0, [r4, #5]
   264ee:	0a08      	lsrs	r0, r1, #8
   264f0:	7120      	strb	r0, [r4, #4]
   264f2:	70e1      	strb	r1, [r4, #3]
   264f4:	1de0      	adds	r0, r4, #7
   264f6:	223a      	movs	r2, #58	@ 0x3a
   264f8:	990b      	ldr	r1, [sp, #44]	@ 0x2c
   264fa:	f000 fece 	bl	2729a <__aeabi_memcpy>
   264fe:	4d05      	ldr	r5, [pc, #20]	@ (26514 <_start+0x22dc>)
   26500:	446d      	add	r5, sp
   26502:	4628      	mov	r0, r5
   26504:	4621      	mov	r1, r4
   26506:	f7fd fcd9 	bl	23ebc <_ZN20complex_full_dynamic3app17hf308afbc5ced72caE>
   2650a:	7828      	ldrb	r0, [r5, #0]
   2650c:	2801      	cmp	r0, #1
   2650e:	d107      	bne.n	26520 <_start+0x22e8>
   26510:	f7fe f967 	bl	247e2 <_start+0x5aa>
   26514:	00001404 	.word	0x00001404
   26518:	00000efc 	.word	0x00000efc
   2651c:	000013a8 	.word	0x000013a8
   26520:	4816      	ldr	r0, [pc, #88]	@ (2657c <_start+0x2344>)
   26522:	4468      	add	r0, sp
   26524:	78c1      	ldrb	r1, [r0, #3]
   26526:	4c16      	ldr	r4, [pc, #88]	@ (26580 <_start+0x2348>)
   26528:	446c      	add	r4, sp
   2652a:	70a1      	strb	r1, [r4, #2]
   2652c:	7841      	ldrb	r1, [r0, #1]
   2652e:	7882      	ldrb	r2, [r0, #2]
   26530:	0212      	lsls	r2, r2, #8
   26532:	1851      	adds	r1, r2, r1
   26534:	8021      	strh	r1, [r4, #0]
   26536:	3008      	adds	r0, #8
   26538:	9908      	ldr	r1, [sp, #32]
   2653a:	6e09      	ldr	r1, [r1, #96]	@ 0x60
   2653c:	910a      	str	r1, [sp, #40]	@ 0x28
   2653e:	4b11      	ldr	r3, [pc, #68]	@ (26584 <_start+0x234c>)
   26540:	446b      	add	r3, sp
   26542:	930b      	str	r3, [sp, #44]	@ 0x2c
   26544:	c866      	ldmia	r0!, {r1, r2, r5, r6}
   26546:	c366      	stmia	r3!, {r1, r2, r5, r6}
   26548:	7800      	ldrb	r0, [r0, #0]
   2654a:	7018      	strb	r0, [r3, #0]
   2654c:	990a      	ldr	r1, [sp, #40]	@ 0x28
   2654e:	0e08      	lsrs	r0, r1, #24
   26550:	71a0      	strb	r0, [r4, #6]
   26552:	0c08      	lsrs	r0, r1, #16
   26554:	7160      	strb	r0, [r4, #5]
   26556:	0a08      	lsrs	r0, r1, #8
   26558:	7120      	strb	r0, [r4, #4]
   2655a:	70e1      	strb	r1, [r4, #3]
   2655c:	1de0      	adds	r0, r4, #7
   2655e:	2211      	movs	r2, #17
   26560:	990b      	ldr	r1, [sp, #44]	@ 0x2c
   26562:	f000 fe9a 	bl	2729a <__aeabi_memcpy>
   26566:	4d05      	ldr	r5, [pc, #20]	@ (2657c <_start+0x2344>)
   26568:	446d      	add	r5, sp
   2656a:	4628      	mov	r0, r5
   2656c:	4621      	mov	r1, r4
   2656e:	f7fd f81b 	bl	235a8 <_ZN20complex_full_dynamic3app17hca38d533fcf04282E>
   26572:	7828      	ldrb	r0, [r5, #0]
   26574:	2801      	cmp	r0, #1
   26576:	d107      	bne.n	26588 <_start+0x2350>
   26578:	f7fe f933 	bl	247e2 <_start+0x5aa>
   2657c:	00001404 	.word	0x00001404
   26580:	00000f40 	.word	0x00000f40
   26584:	000013a8 	.word	0x000013a8
   26588:	4817      	ldr	r0, [pc, #92]	@ (265e8 <_start+0x23b0>)
   2658a:	4468      	add	r0, sp
   2658c:	78c1      	ldrb	r1, [r0, #3]
   2658e:	4c17      	ldr	r4, [pc, #92]	@ (265ec <_start+0x23b4>)
   26590:	446c      	add	r4, sp
   26592:	70a1      	strb	r1, [r4, #2]
   26594:	7841      	ldrb	r1, [r0, #1]
   26596:	7882      	ldrb	r2, [r0, #2]
   26598:	0212      	lsls	r2, r2, #8
   2659a:	1851      	adds	r1, r2, r1
   2659c:	8021      	strh	r1, [r4, #0]
   2659e:	3008      	adds	r0, #8
   265a0:	9908      	ldr	r1, [sp, #32]
   265a2:	6e09      	ldr	r1, [r1, #96]	@ 0x60
   265a4:	4b12      	ldr	r3, [pc, #72]	@ (265f0 <_start+0x23b8>)
   265a6:	446b      	add	r3, sp
   265a8:	930b      	str	r3, [sp, #44]	@ 0x2c
   265aa:	c860      	ldmia	r0!, {r5, r6}
   265ac:	c360      	stmia	r3!, {r5, r6}
   265ae:	c864      	ldmia	r0!, {r2, r5, r6}
   265b0:	c364      	stmia	r3!, {r2, r5, r6}
   265b2:	8802      	ldrh	r2, [r0, #0]
   265b4:	801a      	strh	r2, [r3, #0]
   265b6:	7880      	ldrb	r0, [r0, #2]
   265b8:	7098      	strb	r0, [r3, #2]
   265ba:	0e08      	lsrs	r0, r1, #24
   265bc:	71a0      	strb	r0, [r4, #6]
   265be:	0c08      	lsrs	r0, r1, #16
   265c0:	7160      	strb	r0, [r4, #5]
   265c2:	0a08      	lsrs	r0, r1, #8
   265c4:	7120      	strb	r0, [r4, #4]
   265c6:	70e1      	strb	r1, [r4, #3]
   265c8:	1de0      	adds	r0, r4, #7
   265ca:	2217      	movs	r2, #23
   265cc:	990b      	ldr	r1, [sp, #44]	@ 0x2c
   265ce:	f000 fe64 	bl	2729a <__aeabi_memcpy>
   265d2:	4d05      	ldr	r5, [pc, #20]	@ (265e8 <_start+0x23b0>)
   265d4:	446d      	add	r5, sp
   265d6:	4628      	mov	r0, r5
   265d8:	4621      	mov	r1, r4
   265da:	f7fa f849 	bl	20670 <_ZN20complex_full_dynamic3app17h1582dd4fc80a8303E>
   265de:	7828      	ldrb	r0, [r5, #0]
   265e0:	2801      	cmp	r0, #1
   265e2:	d107      	bne.n	265f4 <_start+0x23bc>
   265e4:	f7fe f8fd 	bl	247e2 <_start+0x5aa>
   265e8:	00001404 	.word	0x00001404
   265ec:	00000f58 	.word	0x00000f58
   265f0:	000013a8 	.word	0x000013a8
   265f4:	4819      	ldr	r0, [pc, #100]	@ (2665c <_start+0x2424>)
   265f6:	4468      	add	r0, sp
   265f8:	78c1      	ldrb	r1, [r0, #3]
   265fa:	4c19      	ldr	r4, [pc, #100]	@ (26660 <_start+0x2428>)
   265fc:	446c      	add	r4, sp
   265fe:	70a1      	strb	r1, [r4, #2]
   26600:	7841      	ldrb	r1, [r0, #1]
   26602:	7882      	ldrb	r2, [r0, #2]
   26604:	0212      	lsls	r2, r2, #8
   26606:	1851      	adds	r1, r2, r1
   26608:	8021      	strh	r1, [r4, #0]
   2660a:	3008      	adds	r0, #8
   2660c:	9908      	ldr	r1, [sp, #32]
   2660e:	6e09      	ldr	r1, [r1, #96]	@ 0x60
   26610:	910a      	str	r1, [sp, #40]	@ 0x28
   26612:	4b14      	ldr	r3, [pc, #80]	@ (26664 <_start+0x242c>)
   26614:	446b      	add	r3, sp
   26616:	930b      	str	r3, [sp, #44]	@ 0x2c
   26618:	c864      	ldmia	r0!, {r2, r5, r6}
   2661a:	c364      	stmia	r3!, {r2, r5, r6}
   2661c:	c864      	ldmia	r0!, {r2, r5, r6}
   2661e:	c364      	stmia	r3!, {r2, r5, r6}
   26620:	c864      	ldmia	r0!, {r2, r5, r6}
   26622:	c364      	stmia	r3!, {r2, r5, r6}
   26624:	c866      	ldmia	r0!, {r1, r2, r5, r6}
   26626:	c366      	stmia	r3!, {r1, r2, r5, r6}
   26628:	7800      	ldrb	r0, [r0, #0]
   2662a:	7018      	strb	r0, [r3, #0]
   2662c:	990a      	ldr	r1, [sp, #40]	@ 0x28
   2662e:	0e08      	lsrs	r0, r1, #24
   26630:	71a0      	strb	r0, [r4, #6]
   26632:	0c08      	lsrs	r0, r1, #16
   26634:	7160      	strb	r0, [r4, #5]
   26636:	0a08      	lsrs	r0, r1, #8
   26638:	7120      	strb	r0, [r4, #4]
   2663a:	70e1      	strb	r1, [r4, #3]
   2663c:	1de0      	adds	r0, r4, #7
   2663e:	2235      	movs	r2, #53	@ 0x35
   26640:	990b      	ldr	r1, [sp, #44]	@ 0x2c
   26642:	f000 fe2a 	bl	2729a <__aeabi_memcpy>
   26646:	4d05      	ldr	r5, [pc, #20]	@ (2665c <_start+0x2424>)
   26648:	446d      	add	r5, sp
   2664a:	4628      	mov	r0, r5
   2664c:	4621      	mov	r1, r4
   2664e:	f7fb ff5d 	bl	2250c <_ZN20complex_full_dynamic3app17h8520ed0ed332408bE>
   26652:	7828      	ldrb	r0, [r5, #0]
   26654:	2801      	cmp	r0, #1
   26656:	d107      	bne.n	26668 <_start+0x2430>
   26658:	f7fe f8c3 	bl	247e2 <_start+0x5aa>
   2665c:	00001404 	.word	0x00001404
   26660:	00000f78 	.word	0x00000f78
   26664:	000013a8 	.word	0x000013a8
   26668:	4817      	ldr	r0, [pc, #92]	@ (266c8 <_start+0x2490>)
   2666a:	4468      	add	r0, sp
   2666c:	78c1      	ldrb	r1, [r0, #3]
   2666e:	4c17      	ldr	r4, [pc, #92]	@ (266cc <_start+0x2494>)
   26670:	446c      	add	r4, sp
   26672:	70a1      	strb	r1, [r4, #2]
   26674:	7841      	ldrb	r1, [r0, #1]
   26676:	7882      	ldrb	r2, [r0, #2]
   26678:	0212      	lsls	r2, r2, #8
   2667a:	1851      	adds	r1, r2, r1
   2667c:	8021      	strh	r1, [r4, #0]
   2667e:	3008      	adds	r0, #8
   26680:	9908      	ldr	r1, [sp, #32]
   26682:	6e09      	ldr	r1, [r1, #96]	@ 0x60
   26684:	4b12      	ldr	r3, [pc, #72]	@ (266d0 <_start+0x2498>)
   26686:	446b      	add	r3, sp
   26688:	930b      	str	r3, [sp, #44]	@ 0x2c
   2668a:	c864      	ldmia	r0!, {r2, r5, r6}
   2668c:	c364      	stmia	r3!, {r2, r5, r6}
   2668e:	c864      	ldmia	r0!, {r2, r5, r6}
   26690:	c364      	stmia	r3!, {r2, r5, r6}
   26692:	c864      	ldmia	r0!, {r2, r5, r6}
   26694:	c364      	stmia	r3!, {r2, r5, r6}
   26696:	7800      	ldrb	r0, [r0, #0]
   26698:	7018      	strb	r0, [r3, #0]
   2669a:	0e08      	lsrs	r0, r1, #24
   2669c:	71a0      	strb	r0, [r4, #6]
   2669e:	0c08      	lsrs	r0, r1, #16
   266a0:	7160      	strb	r0, [r4, #5]
   266a2:	0a08      	lsrs	r0, r1, #8
   266a4:	7120      	strb	r0, [r4, #4]
   266a6:	70e1      	strb	r1, [r4, #3]
   266a8:	1de0      	adds	r0, r4, #7
   266aa:	2225      	movs	r2, #37	@ 0x25
   266ac:	990b      	ldr	r1, [sp, #44]	@ 0x2c
   266ae:	f000 fdf4 	bl	2729a <__aeabi_memcpy>
   266b2:	4d05      	ldr	r5, [pc, #20]	@ (266c8 <_start+0x2490>)
   266b4:	446d      	add	r5, sp
   266b6:	4628      	mov	r0, r5
   266b8:	4621      	mov	r1, r4
   266ba:	f7fa fa47 	bl	20b4c <_ZN20complex_full_dynamic3app17h25d4b982648b1da3E>
   266be:	7828      	ldrb	r0, [r5, #0]
   266c0:	2801      	cmp	r0, #1
   266c2:	d107      	bne.n	266d4 <_start+0x249c>
   266c4:	f7fe f88d 	bl	247e2 <_start+0x5aa>
   266c8:	00001404 	.word	0x00001404
   266cc:	00000fb4 	.word	0x00000fb4
   266d0:	000013a8 	.word	0x000013a8
   266d4:	4816      	ldr	r0, [pc, #88]	@ (26730 <_start+0x24f8>)
   266d6:	4468      	add	r0, sp
   266d8:	78c1      	ldrb	r1, [r0, #3]
   266da:	4c16      	ldr	r4, [pc, #88]	@ (26734 <_start+0x24fc>)
   266dc:	446c      	add	r4, sp
   266de:	70a1      	strb	r1, [r4, #2]
   266e0:	7841      	ldrb	r1, [r0, #1]
   266e2:	7882      	ldrb	r2, [r0, #2]
   266e4:	0212      	lsls	r2, r2, #8
   266e6:	1851      	adds	r1, r2, r1
   266e8:	8021      	strh	r1, [r4, #0]
   266ea:	3008      	adds	r0, #8
   266ec:	9908      	ldr	r1, [sp, #32]
   266ee:	6e09      	ldr	r1, [r1, #96]	@ 0x60
   266f0:	910a      	str	r1, [sp, #40]	@ 0x28
   266f2:	4b11      	ldr	r3, [pc, #68]	@ (26738 <_start+0x2500>)
   266f4:	446b      	add	r3, sp
   266f6:	930b      	str	r3, [sp, #44]	@ 0x2c
   266f8:	c866      	ldmia	r0!, {r1, r2, r5, r6}
   266fa:	c366      	stmia	r3!, {r1, r2, r5, r6}
   266fc:	c866      	ldmia	r0!, {r1, r2, r5, r6}
   266fe:	c366      	stmia	r3!, {r1, r2, r5, r6}
   26700:	990a      	ldr	r1, [sp, #40]	@ 0x28
   26702:	0e08      	lsrs	r0, r1, #24
   26704:	71a0      	strb	r0, [r4, #6]
   26706:	0c08      	lsrs	r0, r1, #16
   26708:	7160      	strb	r0, [r4, #5]
   2670a:	0a08      	lsrs	r0, r1, #8
   2670c:	7120      	strb	r0, [r4, #4]
   2670e:	70e1      	strb	r1, [r4, #3]
   26710:	1de0      	adds	r0, r4, #7
   26712:	2220      	movs	r2, #32
   26714:	990b      	ldr	r1, [sp, #44]	@ 0x2c
   26716:	f000 fdc0 	bl	2729a <__aeabi_memcpy>
   2671a:	4d05      	ldr	r5, [pc, #20]	@ (26730 <_start+0x24f8>)
   2671c:	446d      	add	r5, sp
   2671e:	4628      	mov	r0, r5
   26720:	4621      	mov	r1, r4
   26722:	f7fb f851 	bl	217c8 <_ZN20complex_full_dynamic3app17h4d55beb34658154bE>
   26726:	7828      	ldrb	r0, [r5, #0]
   26728:	2801      	cmp	r0, #1
   2672a:	d107      	bne.n	2673c <_start+0x2504>
   2672c:	f7fe f859 	bl	247e2 <_start+0x5aa>
   26730:	00001404 	.word	0x00001404
   26734:	00000fe0 	.word	0x00000fe0
   26738:	000013a8 	.word	0x000013a8
   2673c:	4915      	ldr	r1, [pc, #84]	@ (26794 <_start+0x255c>)
   2673e:	4469      	add	r1, sp
   26740:	78c8      	ldrb	r0, [r1, #3]
   26742:	4c15      	ldr	r4, [pc, #84]	@ (26798 <_start+0x2560>)
   26744:	446c      	add	r4, sp
   26746:	70a0      	strb	r0, [r4, #2]
   26748:	7848      	ldrb	r0, [r1, #1]
   2674a:	788a      	ldrb	r2, [r1, #2]
   2674c:	0212      	lsls	r2, r2, #8
   2674e:	1810      	adds	r0, r2, r0
   26750:	8020      	strh	r0, [r4, #0]
   26752:	9808      	ldr	r0, [sp, #32]
   26754:	6e05      	ldr	r5, [r0, #96]	@ 0x60
   26756:	3108      	adds	r1, #8
   26758:	4810      	ldr	r0, [pc, #64]	@ (2679c <_start+0x2564>)
   2675a:	4468      	add	r0, sp
   2675c:	900b      	str	r0, [sp, #44]	@ 0x2c
   2675e:	2648      	movs	r6, #72	@ 0x48
   26760:	4632      	mov	r2, r6
   26762:	f000 fc3a 	bl	26fda <__aeabi_memcpy4>
   26766:	0e28      	lsrs	r0, r5, #24
   26768:	71a0      	strb	r0, [r4, #6]
   2676a:	0c28      	lsrs	r0, r5, #16
   2676c:	7160      	strb	r0, [r4, #5]
   2676e:	0a28      	lsrs	r0, r5, #8
   26770:	7120      	strb	r0, [r4, #4]
   26772:	70e5      	strb	r5, [r4, #3]
   26774:	1de0      	adds	r0, r4, #7
   26776:	990b      	ldr	r1, [sp, #44]	@ 0x2c
   26778:	4632      	mov	r2, r6
   2677a:	f000 fd8e 	bl	2729a <__aeabi_memcpy>
   2677e:	4d05      	ldr	r5, [pc, #20]	@ (26794 <_start+0x255c>)
   26780:	446d      	add	r5, sp
   26782:	4628      	mov	r0, r5
   26784:	4621      	mov	r1, r4
   26786:	f7fa fd5d 	bl	21244 <_ZN20complex_full_dynamic3app17h3603d88d0d17cb06E>
   2678a:	7828      	ldrb	r0, [r5, #0]
   2678c:	2801      	cmp	r0, #1
   2678e:	d107      	bne.n	267a0 <_start+0x2568>
   26790:	f7fe f827 	bl	247e2 <_start+0x5aa>
   26794:	00001404 	.word	0x00001404
   26798:	00001008 	.word	0x00001008
   2679c:	000013a8 	.word	0x000013a8
   267a0:	4818      	ldr	r0, [pc, #96]	@ (26804 <_start+0x25cc>)
   267a2:	4468      	add	r0, sp
   267a4:	78c1      	ldrb	r1, [r0, #3]
   267a6:	4c18      	ldr	r4, [pc, #96]	@ (26808 <_start+0x25d0>)
   267a8:	446c      	add	r4, sp
   267aa:	70a1      	strb	r1, [r4, #2]
   267ac:	7841      	ldrb	r1, [r0, #1]
   267ae:	7882      	ldrb	r2, [r0, #2]
   267b0:	0212      	lsls	r2, r2, #8
   267b2:	1851      	adds	r1, r2, r1
   267b4:	8021      	strh	r1, [r4, #0]
   267b6:	3008      	adds	r0, #8
   267b8:	9908      	ldr	r1, [sp, #32]
   267ba:	6e09      	ldr	r1, [r1, #96]	@ 0x60
   267bc:	910a      	str	r1, [sp, #40]	@ 0x28
   267be:	4b13      	ldr	r3, [pc, #76]	@ (2680c <_start+0x25d4>)
   267c0:	446b      	add	r3, sp
   267c2:	930b      	str	r3, [sp, #44]	@ 0x2c
   267c4:	c864      	ldmia	r0!, {r2, r5, r6}
   267c6:	c364      	stmia	r3!, {r2, r5, r6}
   267c8:	c866      	ldmia	r0!, {r1, r2, r5, r6}
   267ca:	c366      	stmia	r3!, {r1, r2, r5, r6}
   267cc:	c866      	ldmia	r0!, {r1, r2, r5, r6}
   267ce:	c366      	stmia	r3!, {r1, r2, r5, r6}
   267d0:	8800      	ldrh	r0, [r0, #0]
   267d2:	8018      	strh	r0, [r3, #0]
   267d4:	990a      	ldr	r1, [sp, #40]	@ 0x28
   267d6:	0e08      	lsrs	r0, r1, #24
   267d8:	71a0      	strb	r0, [r4, #6]
   267da:	0c08      	lsrs	r0, r1, #16
   267dc:	7160      	strb	r0, [r4, #5]
   267de:	0a08      	lsrs	r0, r1, #8
   267e0:	7120      	strb	r0, [r4, #4]
   267e2:	70e1      	strb	r1, [r4, #3]
   267e4:	1de0      	adds	r0, r4, #7
   267e6:	222e      	movs	r2, #46	@ 0x2e
   267e8:	990b      	ldr	r1, [sp, #44]	@ 0x2c
   267ea:	f000 fd56 	bl	2729a <__aeabi_memcpy>
   267ee:	4d05      	ldr	r5, [pc, #20]	@ (26804 <_start+0x25cc>)
   267f0:	446d      	add	r5, sp
   267f2:	4628      	mov	r0, r5
   267f4:	4621      	mov	r1, r4
   267f6:	f7fb fa59 	bl	21cac <_ZN20complex_full_dynamic3app17h65a0f1c2d2546b94E>
   267fa:	7828      	ldrb	r0, [r5, #0]
   267fc:	2801      	cmp	r0, #1
   267fe:	d107      	bne.n	26810 <_start+0x25d8>
   26800:	f7fd ffef 	bl	247e2 <_start+0x5aa>
   26804:	00001404 	.word	0x00001404
   26808:	00001058 	.word	0x00001058
   2680c:	000013a8 	.word	0x000013a8
   26810:	4818      	ldr	r0, [pc, #96]	@ (26874 <_start+0x263c>)
   26812:	4468      	add	r0, sp
   26814:	78c1      	ldrb	r1, [r0, #3]
   26816:	4c18      	ldr	r4, [pc, #96]	@ (26878 <_start+0x2640>)
   26818:	446c      	add	r4, sp
   2681a:	70a1      	strb	r1, [r4, #2]
   2681c:	7841      	ldrb	r1, [r0, #1]
   2681e:	7882      	ldrb	r2, [r0, #2]
   26820:	0212      	lsls	r2, r2, #8
   26822:	1851      	adds	r1, r2, r1
   26824:	8021      	strh	r1, [r4, #0]
   26826:	3008      	adds	r0, #8
   26828:	9908      	ldr	r1, [sp, #32]
   2682a:	6e09      	ldr	r1, [r1, #96]	@ 0x60
   2682c:	910a      	str	r1, [sp, #40]	@ 0x28
   2682e:	4b13      	ldr	r3, [pc, #76]	@ (2687c <_start+0x2644>)
   26830:	446b      	add	r3, sp
   26832:	930b      	str	r3, [sp, #44]	@ 0x2c
   26834:	c864      	ldmia	r0!, {r2, r5, r6}
   26836:	c364      	stmia	r3!, {r2, r5, r6}
   26838:	c866      	ldmia	r0!, {r1, r2, r5, r6}
   2683a:	c366      	stmia	r3!, {r1, r2, r5, r6}
   2683c:	c826      	ldmia	r0!, {r1, r2, r5}
   2683e:	c326      	stmia	r3!, {r1, r2, r5}
   26840:	c866      	ldmia	r0!, {r1, r2, r5, r6}
   26842:	c366      	stmia	r3!, {r1, r2, r5, r6}
   26844:	990a      	ldr	r1, [sp, #40]	@ 0x28
   26846:	0e08      	lsrs	r0, r1, #24
   26848:	71a0      	strb	r0, [r4, #6]
   2684a:	0c08      	lsrs	r0, r1, #16
   2684c:	7160      	strb	r0, [r4, #5]
   2684e:	0a08      	lsrs	r0, r1, #8
   26850:	7120      	strb	r0, [r4, #4]
   26852:	70e1      	strb	r1, [r4, #3]
   26854:	1de0      	adds	r0, r4, #7
   26856:	2238      	movs	r2, #56	@ 0x38
   26858:	990b      	ldr	r1, [sp, #44]	@ 0x2c
   2685a:	f000 fd1e 	bl	2729a <__aeabi_memcpy>
   2685e:	4d05      	ldr	r5, [pc, #20]	@ (26874 <_start+0x263c>)
   26860:	446d      	add	r5, sp
   26862:	4628      	mov	r0, r5
   26864:	4621      	mov	r1, r4
   26866:	f7fa fe4f 	bl	21508 <_ZN20complex_full_dynamic3app17h3949df2e5913a101E>
   2686a:	7828      	ldrb	r0, [r5, #0]
   2686c:	2801      	cmp	r0, #1
   2686e:	d107      	bne.n	26880 <_start+0x2648>
   26870:	f7fd ffb7 	bl	247e2 <_start+0x5aa>
   26874:	00001404 	.word	0x00001404
   26878:	00001090 	.word	0x00001090
   2687c:	000013a8 	.word	0x000013a8
   26880:	4914      	ldr	r1, [pc, #80]	@ (268d4 <_start+0x269c>)
   26882:	4469      	add	r1, sp
   26884:	9b08      	ldr	r3, [sp, #32]
   26886:	6ed8      	ldr	r0, [r3, #108]	@ 0x6c
   26888:	8108      	strh	r0, [r1, #8]
   2688a:	4813      	ldr	r0, [pc, #76]	@ (268d8 <_start+0x26a0>)
   2688c:	4468      	add	r0, sp
   2688e:	78c2      	ldrb	r2, [r0, #3]
   26890:	4c12      	ldr	r4, [pc, #72]	@ (268dc <_start+0x26a4>)
   26892:	446c      	add	r4, sp
   26894:	70a2      	strb	r2, [r4, #2]
   26896:	7842      	ldrb	r2, [r0, #1]
   26898:	7880      	ldrb	r0, [r0, #2]
   2689a:	0200      	lsls	r0, r0, #8
   2689c:	1880      	adds	r0, r0, r2
   2689e:	8020      	strh	r0, [r4, #0]
   268a0:	6e18      	ldr	r0, [r3, #96]	@ 0x60
   268a2:	70e0      	strb	r0, [r4, #3]
   268a4:	0e02      	lsrs	r2, r0, #24
   268a6:	71a2      	strb	r2, [r4, #6]
   268a8:	0c02      	lsrs	r2, r0, #16
   268aa:	7162      	strb	r2, [r4, #5]
   268ac:	0a00      	lsrs	r0, r0, #8
   268ae:	7120      	strb	r0, [r4, #4]
   268b0:	6e58      	ldr	r0, [r3, #100]	@ 0x64
   268b2:	6e9a      	ldr	r2, [r3, #104]	@ 0x68
   268b4:	c305      	stmia	r3!, {r0, r2}
   268b6:	1de0      	adds	r0, r4, #7
   268b8:	220a      	movs	r2, #10
   268ba:	f000 fcee 	bl	2729a <__aeabi_memcpy>
   268be:	4d06      	ldr	r5, [pc, #24]	@ (268d8 <_start+0x26a0>)
   268c0:	446d      	add	r5, sp
   268c2:	4628      	mov	r0, r5
   268c4:	4621      	mov	r1, r4
   268c6:	f7fa fb01 	bl	20ecc <_ZN20complex_full_dynamic3app17h2e3847296a1c187dE>
   268ca:	7828      	ldrb	r0, [r5, #0]
   268cc:	2801      	cmp	r0, #1
   268ce:	d107      	bne.n	268e0 <_start+0x26a8>
   268d0:	f7fd ff87 	bl	247e2 <_start+0x5aa>
   268d4:	000013a8 	.word	0x000013a8
   268d8:	00001404 	.word	0x00001404
   268dc:	000010d0 	.word	0x000010d0
   268e0:	4818      	ldr	r0, [pc, #96]	@ (26944 <_start+0x270c>)
   268e2:	4468      	add	r0, sp
   268e4:	78c1      	ldrb	r1, [r0, #3]
   268e6:	4c18      	ldr	r4, [pc, #96]	@ (26948 <_start+0x2710>)
   268e8:	446c      	add	r4, sp
   268ea:	70a1      	strb	r1, [r4, #2]
   268ec:	7841      	ldrb	r1, [r0, #1]
   268ee:	7882      	ldrb	r2, [r0, #2]
   268f0:	0212      	lsls	r2, r2, #8
   268f2:	1851      	adds	r1, r2, r1
   268f4:	8021      	strh	r1, [r4, #0]
   268f6:	3008      	adds	r0, #8
   268f8:	9908      	ldr	r1, [sp, #32]
   268fa:	6e09      	ldr	r1, [r1, #96]	@ 0x60
   268fc:	910a      	str	r1, [sp, #40]	@ 0x28
   268fe:	4b13      	ldr	r3, [pc, #76]	@ (2694c <_start+0x2714>)
   26900:	446b      	add	r3, sp
   26902:	930b      	str	r3, [sp, #44]	@ 0x2c
   26904:	c864      	ldmia	r0!, {r2, r5, r6}
   26906:	c364      	stmia	r3!, {r2, r5, r6}
   26908:	c866      	ldmia	r0!, {r1, r2, r5, r6}
   2690a:	c366      	stmia	r3!, {r1, r2, r5, r6}
   2690c:	c826      	ldmia	r0!, {r1, r2, r5}
   2690e:	c326      	stmia	r3!, {r1, r2, r5}
   26910:	c866      	ldmia	r0!, {r1, r2, r5, r6}
   26912:	c366      	stmia	r3!, {r1, r2, r5, r6}
   26914:	990a      	ldr	r1, [sp, #40]	@ 0x28
   26916:	0e08      	lsrs	r0, r1, #24
   26918:	71a0      	strb	r0, [r4, #6]
   2691a:	0c08      	lsrs	r0, r1, #16
   2691c:	7160      	strb	r0, [r4, #5]
   2691e:	0a08      	lsrs	r0, r1, #8
   26920:	7120      	strb	r0, [r4, #4]
   26922:	70e1      	strb	r1, [r4, #3]
   26924:	1de0      	adds	r0, r4, #7
   26926:	2238      	movs	r2, #56	@ 0x38
   26928:	990b      	ldr	r1, [sp, #44]	@ 0x2c
   2692a:	f000 fcb6 	bl	2729a <__aeabi_memcpy>
   2692e:	4d05      	ldr	r5, [pc, #20]	@ (26944 <_start+0x270c>)
   26930:	446d      	add	r5, sp
   26932:	4628      	mov	r0, r5
   26934:	4621      	mov	r1, r4
   26936:	f7fb fc2b 	bl	22190 <_ZN20complex_full_dynamic3app17h744e32e3583bf296E>
   2693a:	7828      	ldrb	r0, [r5, #0]
   2693c:	2801      	cmp	r0, #1
   2693e:	d107      	bne.n	26950 <_start+0x2718>
   26940:	f7fd ff4f 	bl	247e2 <_start+0x5aa>
   26944:	00001404 	.word	0x00001404
   26948:	000010e4 	.word	0x000010e4
   2694c:	000013a8 	.word	0x000013a8
   26950:	4816      	ldr	r0, [pc, #88]	@ (269ac <_start+0x2774>)
   26952:	4468      	add	r0, sp
   26954:	78c1      	ldrb	r1, [r0, #3]
   26956:	4c16      	ldr	r4, [pc, #88]	@ (269b0 <_start+0x2778>)
   26958:	446c      	add	r4, sp
   2695a:	70a1      	strb	r1, [r4, #2]
   2695c:	7841      	ldrb	r1, [r0, #1]
   2695e:	7882      	ldrb	r2, [r0, #2]
   26960:	0212      	lsls	r2, r2, #8
   26962:	1851      	adds	r1, r2, r1
   26964:	8021      	strh	r1, [r4, #0]
   26966:	3008      	adds	r0, #8
   26968:	9908      	ldr	r1, [sp, #32]
   2696a:	6e09      	ldr	r1, [r1, #96]	@ 0x60
   2696c:	4b11      	ldr	r3, [pc, #68]	@ (269b4 <_start+0x277c>)
   2696e:	446b      	add	r3, sp
   26970:	930b      	str	r3, [sp, #44]	@ 0x2c
   26972:	c860      	ldmia	r0!, {r5, r6}
   26974:	c360      	stmia	r3!, {r5, r6}
   26976:	c864      	ldmia	r0!, {r2, r5, r6}
   26978:	c364      	stmia	r3!, {r2, r5, r6}
   2697a:	7800      	ldrb	r0, [r0, #0]
   2697c:	7018      	strb	r0, [r3, #0]
   2697e:	0e08      	lsrs	r0, r1, #24
   26980:	71a0      	strb	r0, [r4, #6]
   26982:	0c08      	lsrs	r0, r1, #16
   26984:	7160      	strb	r0, [r4, #5]
   26986:	0a08      	lsrs	r0, r1, #8
   26988:	7120      	strb	r0, [r4, #4]
   2698a:	70e1      	strb	r1, [r4, #3]
   2698c:	1de0      	adds	r0, r4, #7
   2698e:	2215      	movs	r2, #21
   26990:	990b      	ldr	r1, [sp, #44]	@ 0x2c
   26992:	f000 fc82 	bl	2729a <__aeabi_memcpy>
   26996:	4d05      	ldr	r5, [pc, #20]	@ (269ac <_start+0x2774>)
   26998:	446d      	add	r5, sp
   2699a:	4628      	mov	r0, r5
   2699c:	4621      	mov	r1, r4
   2699e:	f7fd f81f 	bl	239e0 <_ZN20complex_full_dynamic3app17he0f47623015c113fE>
   269a2:	7828      	ldrb	r0, [r5, #0]
   269a4:	2801      	cmp	r0, #1
   269a6:	d107      	bne.n	269b8 <_start+0x2780>
   269a8:	f7fd ff1b 	bl	247e2 <_start+0x5aa>
   269ac:	00001404 	.word	0x00001404
   269b0:	00001124 	.word	0x00001124
   269b4:	000013a8 	.word	0x000013a8
   269b8:	4915      	ldr	r1, [pc, #84]	@ (26a10 <_start+0x27d8>)
   269ba:	4469      	add	r1, sp
   269bc:	78c8      	ldrb	r0, [r1, #3]
   269be:	4c15      	ldr	r4, [pc, #84]	@ (26a14 <_start+0x27dc>)
   269c0:	446c      	add	r4, sp
   269c2:	70a0      	strb	r0, [r4, #2]
   269c4:	7848      	ldrb	r0, [r1, #1]
   269c6:	788a      	ldrb	r2, [r1, #2]
   269c8:	0212      	lsls	r2, r2, #8
   269ca:	1810      	adds	r0, r2, r0
   269cc:	8020      	strh	r0, [r4, #0]
   269ce:	9808      	ldr	r0, [sp, #32]
   269d0:	6e05      	ldr	r5, [r0, #96]	@ 0x60
   269d2:	3108      	adds	r1, #8
   269d4:	4810      	ldr	r0, [pc, #64]	@ (26a18 <_start+0x27e0>)
   269d6:	4468      	add	r0, sp
   269d8:	900b      	str	r0, [sp, #44]	@ 0x2c
   269da:	2656      	movs	r6, #86	@ 0x56
   269dc:	4632      	mov	r2, r6
   269de:	f000 fafc 	bl	26fda <__aeabi_memcpy4>
   269e2:	0e28      	lsrs	r0, r5, #24
   269e4:	71a0      	strb	r0, [r4, #6]
   269e6:	0c28      	lsrs	r0, r5, #16
   269e8:	7160      	strb	r0, [r4, #5]
   269ea:	0a28      	lsrs	r0, r5, #8
   269ec:	7120      	strb	r0, [r4, #4]
   269ee:	70e5      	strb	r5, [r4, #3]
   269f0:	1de0      	adds	r0, r4, #7
   269f2:	990b      	ldr	r1, [sp, #44]	@ 0x2c
   269f4:	4632      	mov	r2, r6
   269f6:	f000 fc50 	bl	2729a <__aeabi_memcpy>
   269fa:	4d05      	ldr	r5, [pc, #20]	@ (26a10 <_start+0x27d8>)
   269fc:	446d      	add	r5, sp
   269fe:	4628      	mov	r0, r5
   26a00:	4621      	mov	r1, r4
   26a02:	f7fa fcd1 	bl	213a8 <_ZN20complex_full_dynamic3app17h370104b626045ad7E>
   26a06:	7828      	ldrb	r0, [r5, #0]
   26a08:	2801      	cmp	r0, #1
   26a0a:	d107      	bne.n	26a1c <_start+0x27e4>
   26a0c:	f7fd fee9 	bl	247e2 <_start+0x5aa>
   26a10:	00001404 	.word	0x00001404
   26a14:	00001140 	.word	0x00001140
   26a18:	000013a8 	.word	0x000013a8
   26a1c:	4915      	ldr	r1, [pc, #84]	@ (26a74 <_start+0x283c>)
   26a1e:	4469      	add	r1, sp
   26a20:	9b08      	ldr	r3, [sp, #32]
   26a22:	6ed8      	ldr	r0, [r3, #108]	@ 0x6c
   26a24:	8108      	strh	r0, [r1, #8]
   26a26:	4814      	ldr	r0, [pc, #80]	@ (26a78 <_start+0x2840>)
   26a28:	4468      	add	r0, sp
   26a2a:	78c2      	ldrb	r2, [r0, #3]
   26a2c:	4c13      	ldr	r4, [pc, #76]	@ (26a7c <_start+0x2844>)
   26a2e:	446c      	add	r4, sp
   26a30:	70a2      	strb	r2, [r4, #2]
   26a32:	7c82      	ldrb	r2, [r0, #18]
   26a34:	728a      	strb	r2, [r1, #10]
   26a36:	7842      	ldrb	r2, [r0, #1]
   26a38:	7880      	ldrb	r0, [r0, #2]
   26a3a:	0200      	lsls	r0, r0, #8
   26a3c:	1880      	adds	r0, r0, r2
   26a3e:	8020      	strh	r0, [r4, #0]
   26a40:	6e18      	ldr	r0, [r3, #96]	@ 0x60
   26a42:	70e0      	strb	r0, [r4, #3]
   26a44:	0e02      	lsrs	r2, r0, #24
   26a46:	71a2      	strb	r2, [r4, #6]
   26a48:	0c02      	lsrs	r2, r0, #16
   26a4a:	7162      	strb	r2, [r4, #5]
   26a4c:	0a00      	lsrs	r0, r0, #8
   26a4e:	7120      	strb	r0, [r4, #4]
   26a50:	6e58      	ldr	r0, [r3, #100]	@ 0x64
   26a52:	6e9a      	ldr	r2, [r3, #104]	@ 0x68
   26a54:	c305      	stmia	r3!, {r0, r2}
   26a56:	1de0      	adds	r0, r4, #7
   26a58:	220b      	movs	r2, #11
   26a5a:	f000 fc1e 	bl	2729a <__aeabi_memcpy>
   26a5e:	4d06      	ldr	r5, [pc, #24]	@ (26a78 <_start+0x2840>)
   26a60:	446d      	add	r5, sp
   26a62:	4628      	mov	r0, r5
   26a64:	4621      	mov	r1, r4
   26a66:	f7f9 ff0d 	bl	20884 <_ZN20complex_full_dynamic3app17h18eafb374fb31718E>
   26a6a:	7828      	ldrb	r0, [r5, #0]
   26a6c:	2801      	cmp	r0, #1
   26a6e:	d107      	bne.n	26a80 <_start+0x2848>
   26a70:	f7fd feb7 	bl	247e2 <_start+0x5aa>
   26a74:	000013a8 	.word	0x000013a8
   26a78:	00001404 	.word	0x00001404
   26a7c:	000011a0 	.word	0x000011a0
   26a80:	4819      	ldr	r0, [pc, #100]	@ (26ae8 <_start+0x28b0>)
   26a82:	4468      	add	r0, sp
   26a84:	78c1      	ldrb	r1, [r0, #3]
   26a86:	4c19      	ldr	r4, [pc, #100]	@ (26aec <_start+0x28b4>)
   26a88:	446c      	add	r4, sp
   26a8a:	70a1      	strb	r1, [r4, #2]
   26a8c:	7841      	ldrb	r1, [r0, #1]
   26a8e:	7882      	ldrb	r2, [r0, #2]
   26a90:	0212      	lsls	r2, r2, #8
   26a92:	1851      	adds	r1, r2, r1
   26a94:	8021      	strh	r1, [r4, #0]
   26a96:	3008      	adds	r0, #8
   26a98:	9908      	ldr	r1, [sp, #32]
   26a9a:	6e09      	ldr	r1, [r1, #96]	@ 0x60
   26a9c:	910a      	str	r1, [sp, #40]	@ 0x28
   26a9e:	4b14      	ldr	r3, [pc, #80]	@ (26af0 <_start+0x28b8>)
   26aa0:	446b      	add	r3, sp
   26aa2:	930b      	str	r3, [sp, #44]	@ 0x2c
   26aa4:	c864      	ldmia	r0!, {r2, r5, r6}
   26aa6:	c364      	stmia	r3!, {r2, r5, r6}
   26aa8:	c866      	ldmia	r0!, {r1, r2, r5, r6}
   26aaa:	c366      	stmia	r3!, {r1, r2, r5, r6}
   26aac:	c866      	ldmia	r0!, {r1, r2, r5, r6}
   26aae:	c366      	stmia	r3!, {r1, r2, r5, r6}
   26ab0:	c866      	ldmia	r0!, {r1, r2, r5, r6}
   26ab2:	c366      	stmia	r3!, {r1, r2, r5, r6}
   26ab4:	7800      	ldrb	r0, [r0, #0]
   26ab6:	7018      	strb	r0, [r3, #0]
   26ab8:	990a      	ldr	r1, [sp, #40]	@ 0x28
   26aba:	0e08      	lsrs	r0, r1, #24
   26abc:	71a0      	strb	r0, [r4, #6]
   26abe:	0c08      	lsrs	r0, r1, #16
   26ac0:	7160      	strb	r0, [r4, #5]
   26ac2:	0a08      	lsrs	r0, r1, #8
   26ac4:	7120      	strb	r0, [r4, #4]
   26ac6:	70e1      	strb	r1, [r4, #3]
   26ac8:	1de0      	adds	r0, r4, #7
   26aca:	223d      	movs	r2, #61	@ 0x3d
   26acc:	990b      	ldr	r1, [sp, #44]	@ 0x2c
   26ace:	f000 fbe4 	bl	2729a <__aeabi_memcpy>
   26ad2:	4d05      	ldr	r5, [pc, #20]	@ (26ae8 <_start+0x28b0>)
   26ad4:	446d      	add	r5, sp
   26ad6:	4628      	mov	r0, r5
   26ad8:	4621      	mov	r1, r4
   26ada:	f7fb ffdd 	bl	22a98 <_ZN20complex_full_dynamic3app17h970a663f7d581606E>
   26ade:	7828      	ldrb	r0, [r5, #0]
   26ae0:	2801      	cmp	r0, #1
   26ae2:	d107      	bne.n	26af4 <_start+0x28bc>
   26ae4:	f7fd fe7d 	bl	247e2 <_start+0x5aa>
   26ae8:	00001404 	.word	0x00001404
   26aec:	000011b4 	.word	0x000011b4
   26af0:	000013a8 	.word	0x000013a8
   26af4:	48fb      	ldr	r0, [pc, #1004]	@ (26ee4 <_start+0x2cac>)
   26af6:	4468      	add	r0, sp
   26af8:	78c1      	ldrb	r1, [r0, #3]
   26afa:	4cfc      	ldr	r4, [pc, #1008]	@ (26eec <_start+0x2cb4>)
   26afc:	446c      	add	r4, sp
   26afe:	70a1      	strb	r1, [r4, #2]
   26b00:	7841      	ldrb	r1, [r0, #1]
   26b02:	7882      	ldrb	r2, [r0, #2]
   26b04:	0212      	lsls	r2, r2, #8
   26b06:	1851      	adds	r1, r2, r1
   26b08:	8021      	strh	r1, [r4, #0]
   26b0a:	3008      	adds	r0, #8
   26b0c:	9908      	ldr	r1, [sp, #32]
   26b0e:	6e09      	ldr	r1, [r1, #96]	@ 0x60
   26b10:	910a      	str	r1, [sp, #40]	@ 0x28
   26b12:	4bf5      	ldr	r3, [pc, #980]	@ (26ee8 <_start+0x2cb0>)
   26b14:	446b      	add	r3, sp
   26b16:	930b      	str	r3, [sp, #44]	@ 0x2c
   26b18:	c864      	ldmia	r0!, {r2, r5, r6}
   26b1a:	c364      	stmia	r3!, {r2, r5, r6}
   26b1c:	c866      	ldmia	r0!, {r1, r2, r5, r6}
   26b1e:	c366      	stmia	r3!, {r1, r2, r5, r6}
   26b20:	990a      	ldr	r1, [sp, #40]	@ 0x28
   26b22:	0e08      	lsrs	r0, r1, #24
   26b24:	71a0      	strb	r0, [r4, #6]
   26b26:	0c08      	lsrs	r0, r1, #16
   26b28:	7160      	strb	r0, [r4, #5]
   26b2a:	0a08      	lsrs	r0, r1, #8
   26b2c:	7120      	strb	r0, [r4, #4]
   26b2e:	70e1      	strb	r1, [r4, #3]
   26b30:	1de0      	adds	r0, r4, #7
   26b32:	221c      	movs	r2, #28
   26b34:	990b      	ldr	r1, [sp, #44]	@ 0x2c
   26b36:	f000 fbb0 	bl	2729a <__aeabi_memcpy>
   26b3a:	4dea      	ldr	r5, [pc, #936]	@ (26ee4 <_start+0x2cac>)
   26b3c:	446d      	add	r5, sp
   26b3e:	4628      	mov	r0, r5
   26b40:	4621      	mov	r1, r4
   26b42:	f7fc fa17 	bl	22f74 <_ZN20complex_full_dynamic3app17ha94d986f9c2d0ac3E>
   26b46:	7828      	ldrb	r0, [r5, #0]
   26b48:	2801      	cmp	r0, #1
   26b4a:	d101      	bne.n	26b50 <_start+0x2918>
   26b4c:	f7fd fe49 	bl	247e2 <_start+0x5aa>
   26b50:	48e4      	ldr	r0, [pc, #912]	@ (26ee4 <_start+0x2cac>)
   26b52:	4468      	add	r0, sp
   26b54:	78c1      	ldrb	r1, [r0, #3]
   26b56:	4ce6      	ldr	r4, [pc, #920]	@ (26ef0 <_start+0x2cb8>)
   26b58:	446c      	add	r4, sp
   26b5a:	70a1      	strb	r1, [r4, #2]
   26b5c:	7841      	ldrb	r1, [r0, #1]
   26b5e:	7882      	ldrb	r2, [r0, #2]
   26b60:	0212      	lsls	r2, r2, #8
   26b62:	1851      	adds	r1, r2, r1
   26b64:	8021      	strh	r1, [r4, #0]
   26b66:	3008      	adds	r0, #8
   26b68:	9908      	ldr	r1, [sp, #32]
   26b6a:	6e09      	ldr	r1, [r1, #96]	@ 0x60
   26b6c:	910a      	str	r1, [sp, #40]	@ 0x28
   26b6e:	4bde      	ldr	r3, [pc, #888]	@ (26ee8 <_start+0x2cb0>)
   26b70:	446b      	add	r3, sp
   26b72:	930b      	str	r3, [sp, #44]	@ 0x2c
   26b74:	c864      	ldmia	r0!, {r2, r5, r6}
   26b76:	c364      	stmia	r3!, {r2, r5, r6}
   26b78:	c866      	ldmia	r0!, {r1, r2, r5, r6}
   26b7a:	c366      	stmia	r3!, {r1, r2, r5, r6}
   26b7c:	7800      	ldrb	r0, [r0, #0]
   26b7e:	7018      	strb	r0, [r3, #0]
   26b80:	990a      	ldr	r1, [sp, #40]	@ 0x28
   26b82:	0e08      	lsrs	r0, r1, #24
   26b84:	71a0      	strb	r0, [r4, #6]
   26b86:	0c08      	lsrs	r0, r1, #16
   26b88:	7160      	strb	r0, [r4, #5]
   26b8a:	0a08      	lsrs	r0, r1, #8
   26b8c:	7120      	strb	r0, [r4, #4]
   26b8e:	70e1      	strb	r1, [r4, #3]
   26b90:	1de0      	adds	r0, r4, #7
   26b92:	221d      	movs	r2, #29
   26b94:	990b      	ldr	r1, [sp, #44]	@ 0x2c
   26b96:	f000 fb80 	bl	2729a <__aeabi_memcpy>
   26b9a:	4dd2      	ldr	r5, [pc, #840]	@ (26ee4 <_start+0x2cac>)
   26b9c:	446d      	add	r5, sp
   26b9e:	4628      	mov	r0, r5
   26ba0:	4621      	mov	r1, r4
   26ba2:	f7fd fa97 	bl	240d4 <_ZN20complex_full_dynamic3app17hfcf36271d8a7114bE>
   26ba6:	7828      	ldrb	r0, [r5, #0]
   26ba8:	2801      	cmp	r0, #1
   26baa:	d101      	bne.n	26bb0 <_start+0x2978>
   26bac:	f7fd fe19 	bl	247e2 <_start+0x5aa>
   26bb0:	48cc      	ldr	r0, [pc, #816]	@ (26ee4 <_start+0x2cac>)
   26bb2:	4468      	add	r0, sp
   26bb4:	78c1      	ldrb	r1, [r0, #3]
   26bb6:	4ccf      	ldr	r4, [pc, #828]	@ (26ef4 <_start+0x2cbc>)
   26bb8:	446c      	add	r4, sp
   26bba:	70a1      	strb	r1, [r4, #2]
   26bbc:	7841      	ldrb	r1, [r0, #1]
   26bbe:	7882      	ldrb	r2, [r0, #2]
   26bc0:	0212      	lsls	r2, r2, #8
   26bc2:	1851      	adds	r1, r2, r1
   26bc4:	8021      	strh	r1, [r4, #0]
   26bc6:	3008      	adds	r0, #8
   26bc8:	9908      	ldr	r1, [sp, #32]
   26bca:	6e09      	ldr	r1, [r1, #96]	@ 0x60
   26bcc:	910a      	str	r1, [sp, #40]	@ 0x28
   26bce:	4bc6      	ldr	r3, [pc, #792]	@ (26ee8 <_start+0x2cb0>)
   26bd0:	446b      	add	r3, sp
   26bd2:	930b      	str	r3, [sp, #44]	@ 0x2c
   26bd4:	c864      	ldmia	r0!, {r2, r5, r6}
   26bd6:	c364      	stmia	r3!, {r2, r5, r6}
   26bd8:	c864      	ldmia	r0!, {r2, r5, r6}
   26bda:	c364      	stmia	r3!, {r2, r5, r6}
   26bdc:	c866      	ldmia	r0!, {r1, r2, r5, r6}
   26bde:	c366      	stmia	r3!, {r1, r2, r5, r6}
   26be0:	990a      	ldr	r1, [sp, #40]	@ 0x28
   26be2:	0e08      	lsrs	r0, r1, #24
   26be4:	71a0      	strb	r0, [r4, #6]
   26be6:	0c08      	lsrs	r0, r1, #16
   26be8:	7160      	strb	r0, [r4, #5]
   26bea:	0a08      	lsrs	r0, r1, #8
   26bec:	7120      	strb	r0, [r4, #4]
   26bee:	70e1      	strb	r1, [r4, #3]
   26bf0:	1de0      	adds	r0, r4, #7
   26bf2:	2228      	movs	r2, #40	@ 0x28
   26bf4:	990b      	ldr	r1, [sp, #44]	@ 0x2c
   26bf6:	f000 fb50 	bl	2729a <__aeabi_memcpy>
   26bfa:	4dba      	ldr	r5, [pc, #744]	@ (26ee4 <_start+0x2cac>)
   26bfc:	446d      	add	r5, sp
   26bfe:	4628      	mov	r0, r5
   26c00:	4621      	mov	r1, r4
   26c02:	f7f9 fe97 	bl	20934 <_ZN20complex_full_dynamic3app17h19d05553b562df2aE>
   26c06:	7828      	ldrb	r0, [r5, #0]
   26c08:	2801      	cmp	r0, #1
   26c0a:	d101      	bne.n	26c10 <_start+0x29d8>
   26c0c:	f7fd fde9 	bl	247e2 <_start+0x5aa>
   26c10:	49b4      	ldr	r1, [pc, #720]	@ (26ee4 <_start+0x2cac>)
   26c12:	4469      	add	r1, sp
   26c14:	78c8      	ldrb	r0, [r1, #3]
   26c16:	4cb8      	ldr	r4, [pc, #736]	@ (26ef8 <_start+0x2cc0>)
   26c18:	446c      	add	r4, sp
   26c1a:	70a0      	strb	r0, [r4, #2]
   26c1c:	7848      	ldrb	r0, [r1, #1]
   26c1e:	788a      	ldrb	r2, [r1, #2]
   26c20:	0212      	lsls	r2, r2, #8
   26c22:	1810      	adds	r0, r2, r0
   26c24:	8020      	strh	r0, [r4, #0]
   26c26:	9808      	ldr	r0, [sp, #32]
   26c28:	6e05      	ldr	r5, [r0, #96]	@ 0x60
   26c2a:	3108      	adds	r1, #8
   26c2c:	48ae      	ldr	r0, [pc, #696]	@ (26ee8 <_start+0x2cb0>)
   26c2e:	4468      	add	r0, sp
   26c30:	900b      	str	r0, [sp, #44]	@ 0x2c
   26c32:	2657      	movs	r6, #87	@ 0x57
   26c34:	4632      	mov	r2, r6
   26c36:	f000 f9d0 	bl	26fda <__aeabi_memcpy4>
   26c3a:	0e28      	lsrs	r0, r5, #24
   26c3c:	71a0      	strb	r0, [r4, #6]
   26c3e:	0c28      	lsrs	r0, r5, #16
   26c40:	7160      	strb	r0, [r4, #5]
   26c42:	0a28      	lsrs	r0, r5, #8
   26c44:	7120      	strb	r0, [r4, #4]
   26c46:	70e5      	strb	r5, [r4, #3]
   26c48:	1de0      	adds	r0, r4, #7
   26c4a:	990b      	ldr	r1, [sp, #44]	@ 0x2c
   26c4c:	4632      	mov	r2, r6
   26c4e:	f000 fb24 	bl	2729a <__aeabi_memcpy>
   26c52:	4da4      	ldr	r5, [pc, #656]	@ (26ee4 <_start+0x2cac>)
   26c54:	446d      	add	r5, sp
   26c56:	4628      	mov	r0, r5
   26c58:	4621      	mov	r1, r4
   26c5a:	f7fb fbff 	bl	2245c <_ZN20complex_full_dynamic3app17h83e95ae6c2de8162E>
   26c5e:	7828      	ldrb	r0, [r5, #0]
   26c60:	2801      	cmp	r0, #1
   26c62:	d101      	bne.n	26c68 <_start+0x2a30>
   26c64:	f7fd fdbd 	bl	247e2 <_start+0x5aa>
   26c68:	499e      	ldr	r1, [pc, #632]	@ (26ee4 <_start+0x2cac>)
   26c6a:	4469      	add	r1, sp
   26c6c:	78c8      	ldrb	r0, [r1, #3]
   26c6e:	4ca3      	ldr	r4, [pc, #652]	@ (26efc <_start+0x2cc4>)
   26c70:	446c      	add	r4, sp
   26c72:	70a0      	strb	r0, [r4, #2]
   26c74:	7848      	ldrb	r0, [r1, #1]
   26c76:	788a      	ldrb	r2, [r1, #2]
   26c78:	0212      	lsls	r2, r2, #8
   26c7a:	1810      	adds	r0, r2, r0
   26c7c:	8020      	strh	r0, [r4, #0]
   26c7e:	9808      	ldr	r0, [sp, #32]
   26c80:	6e05      	ldr	r5, [r0, #96]	@ 0x60
   26c82:	3108      	adds	r1, #8
   26c84:	4898      	ldr	r0, [pc, #608]	@ (26ee8 <_start+0x2cb0>)
   26c86:	4468      	add	r0, sp
   26c88:	900b      	str	r0, [sp, #44]	@ 0x2c
   26c8a:	264e      	movs	r6, #78	@ 0x4e
   26c8c:	4632      	mov	r2, r6
   26c8e:	f000 f9a4 	bl	26fda <__aeabi_memcpy4>
   26c92:	0e28      	lsrs	r0, r5, #24
   26c94:	71a0      	strb	r0, [r4, #6]
   26c96:	0c28      	lsrs	r0, r5, #16
   26c98:	7160      	strb	r0, [r4, #5]
   26c9a:	0a28      	lsrs	r0, r5, #8
   26c9c:	7120      	strb	r0, [r4, #4]
   26c9e:	70e5      	strb	r5, [r4, #3]
   26ca0:	1de0      	adds	r0, r4, #7
   26ca2:	990b      	ldr	r1, [sp, #44]	@ 0x2c
   26ca4:	4632      	mov	r2, r6
   26ca6:	f000 faf8 	bl	2729a <__aeabi_memcpy>
   26caa:	4d8e      	ldr	r5, [pc, #568]	@ (26ee4 <_start+0x2cac>)
   26cac:	446d      	add	r5, sp
   26cae:	4628      	mov	r0, r5
   26cb0:	4621      	mov	r1, r4
   26cb2:	f7fc fbc9 	bl	23448 <_ZN20complex_full_dynamic3app17hbab0699497ec9ab0E>
   26cb6:	7828      	ldrb	r0, [r5, #0]
   26cb8:	2801      	cmp	r0, #1
   26cba:	d101      	bne.n	26cc0 <_start+0x2a88>
   26cbc:	f7fd fd91 	bl	247e2 <_start+0x5aa>
   26cc0:	4989      	ldr	r1, [pc, #548]	@ (26ee8 <_start+0x2cb0>)
   26cc2:	4469      	add	r1, sp
   26cc4:	9b08      	ldr	r3, [sp, #32]
   26cc6:	6ed8      	ldr	r0, [r3, #108]	@ 0x6c
   26cc8:	8108      	strh	r0, [r1, #8]
   26cca:	4886      	ldr	r0, [pc, #536]	@ (26ee4 <_start+0x2cac>)
   26ccc:	4468      	add	r0, sp
   26cce:	78c2      	ldrb	r2, [r0, #3]
   26cd0:	4c8b      	ldr	r4, [pc, #556]	@ (26f00 <_start+0x2cc8>)
   26cd2:	446c      	add	r4, sp
   26cd4:	70a2      	strb	r2, [r4, #2]
   26cd6:	7842      	ldrb	r2, [r0, #1]
   26cd8:	7880      	ldrb	r0, [r0, #2]
   26cda:	0200      	lsls	r0, r0, #8
   26cdc:	1880      	adds	r0, r0, r2
   26cde:	8020      	strh	r0, [r4, #0]
   26ce0:	6e18      	ldr	r0, [r3, #96]	@ 0x60
   26ce2:	70e0      	strb	r0, [r4, #3]
   26ce4:	0e02      	lsrs	r2, r0, #24
   26ce6:	71a2      	strb	r2, [r4, #6]
   26ce8:	0c02      	lsrs	r2, r0, #16
   26cea:	7162      	strb	r2, [r4, #5]
   26cec:	0a00      	lsrs	r0, r0, #8
   26cee:	7120      	strb	r0, [r4, #4]
   26cf0:	6e58      	ldr	r0, [r3, #100]	@ 0x64
   26cf2:	6e9a      	ldr	r2, [r3, #104]	@ 0x68
   26cf4:	c305      	stmia	r3!, {r0, r2}
   26cf6:	1de0      	adds	r0, r4, #7
   26cf8:	220a      	movs	r2, #10
   26cfa:	f000 face 	bl	2729a <__aeabi_memcpy>
   26cfe:	4d79      	ldr	r5, [pc, #484]	@ (26ee4 <_start+0x2cac>)
   26d00:	446d      	add	r5, sp
   26d02:	4628      	mov	r0, r5
   26d04:	4621      	mov	r1, r4
   26d06:	f7f9 fe6f 	bl	209e8 <_ZN20complex_full_dynamic3app17h1b623c6722e465f0E>
   26d0a:	7828      	ldrb	r0, [r5, #0]
   26d0c:	2801      	cmp	r0, #1
   26d0e:	d101      	bne.n	26d14 <_start+0x2adc>
   26d10:	f7fd fd67 	bl	247e2 <_start+0x5aa>
   26d14:	4973      	ldr	r1, [pc, #460]	@ (26ee4 <_start+0x2cac>)
   26d16:	4469      	add	r1, sp
   26d18:	78c8      	ldrb	r0, [r1, #3]
   26d1a:	4c7a      	ldr	r4, [pc, #488]	@ (26f04 <_start+0x2ccc>)
   26d1c:	446c      	add	r4, sp
   26d1e:	70a0      	strb	r0, [r4, #2]
   26d20:	7848      	ldrb	r0, [r1, #1]
   26d22:	788a      	ldrb	r2, [r1, #2]
   26d24:	0212      	lsls	r2, r2, #8
   26d26:	1810      	adds	r0, r2, r0
   26d28:	8020      	strh	r0, [r4, #0]
   26d2a:	9808      	ldr	r0, [sp, #32]
   26d2c:	6e05      	ldr	r5, [r0, #96]	@ 0x60
   26d2e:	3108      	adds	r1, #8
   26d30:	486d      	ldr	r0, [pc, #436]	@ (26ee8 <_start+0x2cb0>)
   26d32:	4468      	add	r0, sp
   26d34:	900b      	str	r0, [sp, #44]	@ 0x2c
   26d36:	2649      	movs	r6, #73	@ 0x49
   26d38:	4632      	mov	r2, r6
   26d3a:	f000 f94e 	bl	26fda <__aeabi_memcpy4>
   26d3e:	0e28      	lsrs	r0, r5, #24
   26d40:	71a0      	strb	r0, [r4, #6]
   26d42:	0c28      	lsrs	r0, r5, #16
   26d44:	7160      	strb	r0, [r4, #5]
   26d46:	0a28      	lsrs	r0, r5, #8
   26d48:	7120      	strb	r0, [r4, #4]
   26d4a:	70e5      	strb	r5, [r4, #3]
   26d4c:	1de0      	adds	r0, r4, #7
   26d4e:	990b      	ldr	r1, [sp, #44]	@ 0x2c
   26d50:	4632      	mov	r2, r6
   26d52:	f000 faa2 	bl	2729a <__aeabi_memcpy>
   26d56:	4d63      	ldr	r5, [pc, #396]	@ (26ee4 <_start+0x2cac>)
   26d58:	446d      	add	r5, sp
   26d5a:	4628      	mov	r0, r5
   26d5c:	4621      	mov	r1, r4
   26d5e:	f7fa fffd 	bl	21d5c <_ZN20complex_full_dynamic3app17h66b30a329b38a0e8E>
   26d62:	7828      	ldrb	r0, [r5, #0]
   26d64:	2801      	cmp	r0, #1
   26d66:	d101      	bne.n	26d6c <_start+0x2b34>
   26d68:	f7fd fd3b 	bl	247e2 <_start+0x5aa>
   26d6c:	485d      	ldr	r0, [pc, #372]	@ (26ee4 <_start+0x2cac>)
   26d6e:	4468      	add	r0, sp
   26d70:	78c1      	ldrb	r1, [r0, #3]
   26d72:	4c65      	ldr	r4, [pc, #404]	@ (26f08 <_start+0x2cd0>)
   26d74:	446c      	add	r4, sp
   26d76:	70a1      	strb	r1, [r4, #2]
   26d78:	7841      	ldrb	r1, [r0, #1]
   26d7a:	7882      	ldrb	r2, [r0, #2]
   26d7c:	0212      	lsls	r2, r2, #8
   26d7e:	1851      	adds	r1, r2, r1
   26d80:	8021      	strh	r1, [r4, #0]
   26d82:	3008      	adds	r0, #8
   26d84:	9908      	ldr	r1, [sp, #32]
   26d86:	6e09      	ldr	r1, [r1, #96]	@ 0x60
   26d88:	4b57      	ldr	r3, [pc, #348]	@ (26ee8 <_start+0x2cb0>)
   26d8a:	446b      	add	r3, sp
   26d8c:	930b      	str	r3, [sp, #44]	@ 0x2c
   26d8e:	c860      	ldmia	r0!, {r5, r6}
   26d90:	c360      	stmia	r3!, {r5, r6}
   26d92:	c864      	ldmia	r0!, {r2, r5, r6}
   26d94:	c364      	stmia	r3!, {r2, r5, r6}
   26d96:	0e08      	lsrs	r0, r1, #24
   26d98:	71a0      	strb	r0, [r4, #6]
   26d9a:	0c08      	lsrs	r0, r1, #16
   26d9c:	7160      	strb	r0, [r4, #5]
   26d9e:	0a08      	lsrs	r0, r1, #8
   26da0:	7120      	strb	r0, [r4, #4]
   26da2:	70e1      	strb	r1, [r4, #3]
   26da4:	1de0      	adds	r0, r4, #7
   26da6:	2214      	movs	r2, #20
   26da8:	990b      	ldr	r1, [sp, #44]	@ 0x2c
   26daa:	f000 fa76 	bl	2729a <__aeabi_memcpy>
   26dae:	4d4d      	ldr	r5, [pc, #308]	@ (26ee4 <_start+0x2cac>)
   26db0:	446d      	add	r5, sp
   26db2:	4628      	mov	r0, r5
   26db4:	4621      	mov	r1, r4
   26db6:	f7fa fd5f 	bl	21878 <_ZN20complex_full_dynamic3app17h51c8bc7875e83086E>
   26dba:	7828      	ldrb	r0, [r5, #0]
   26dbc:	2801      	cmp	r0, #1
   26dbe:	d101      	bne.n	26dc4 <_start+0x2b8c>
   26dc0:	f7fd fd0f 	bl	247e2 <_start+0x5aa>
   26dc4:	4947      	ldr	r1, [pc, #284]	@ (26ee4 <_start+0x2cac>)
   26dc6:	4469      	add	r1, sp
   26dc8:	78c8      	ldrb	r0, [r1, #3]
   26dca:	4c50      	ldr	r4, [pc, #320]	@ (26f0c <_start+0x2cd4>)
   26dcc:	446c      	add	r4, sp
   26dce:	70a0      	strb	r0, [r4, #2]
   26dd0:	7848      	ldrb	r0, [r1, #1]
   26dd2:	788a      	ldrb	r2, [r1, #2]
   26dd4:	0212      	lsls	r2, r2, #8
   26dd6:	1810      	adds	r0, r2, r0
   26dd8:	8020      	strh	r0, [r4, #0]
   26dda:	9808      	ldr	r0, [sp, #32]
   26ddc:	6e05      	ldr	r5, [r0, #96]	@ 0x60
   26dde:	3108      	adds	r1, #8
   26de0:	4841      	ldr	r0, [pc, #260]	@ (26ee8 <_start+0x2cb0>)
   26de2:	4468      	add	r0, sp
   26de4:	900b      	str	r0, [sp, #44]	@ 0x2c
   26de6:	265c      	movs	r6, #92	@ 0x5c
   26de8:	4632      	mov	r2, r6
   26dea:	f000 f8f6 	bl	26fda <__aeabi_memcpy4>
   26dee:	0e28      	lsrs	r0, r5, #24
   26df0:	71a0      	strb	r0, [r4, #6]
   26df2:	0c28      	lsrs	r0, r5, #16
   26df4:	7160      	strb	r0, [r4, #5]
   26df6:	0a28      	lsrs	r0, r5, #8
   26df8:	7120      	strb	r0, [r4, #4]
   26dfa:	70e5      	strb	r5, [r4, #3]
   26dfc:	1de0      	adds	r0, r4, #7
   26dfe:	990b      	ldr	r1, [sp, #44]	@ 0x2c
   26e00:	4632      	mov	r2, r6
   26e02:	f000 fa4a 	bl	2729a <__aeabi_memcpy>
   26e06:	4d37      	ldr	r5, [pc, #220]	@ (26ee4 <_start+0x2cac>)
   26e08:	446d      	add	r5, sp
   26e0a:	4628      	mov	r0, r5
   26e0c:	4621      	mov	r1, r4
   26e0e:	f7fb ff4d 	bl	22cac <_ZN20complex_full_dynamic3app17h9d4baa9847af4abbE>
   26e12:	7828      	ldrb	r0, [r5, #0]
   26e14:	2801      	cmp	r0, #1
   26e16:	d101      	bne.n	26e1c <_start+0x2be4>
   26e18:	f7fd fce3 	bl	247e2 <_start+0x5aa>
   26e1c:	4831      	ldr	r0, [pc, #196]	@ (26ee4 <_start+0x2cac>)
   26e1e:	4468      	add	r0, sp
   26e20:	78c1      	ldrb	r1, [r0, #3]
   26e22:	4c3b      	ldr	r4, [pc, #236]	@ (26f10 <_start+0x2cd8>)
   26e24:	446c      	add	r4, sp
   26e26:	70a1      	strb	r1, [r4, #2]
   26e28:	7841      	ldrb	r1, [r0, #1]
   26e2a:	7882      	ldrb	r2, [r0, #2]
   26e2c:	0212      	lsls	r2, r2, #8
   26e2e:	1851      	adds	r1, r2, r1
   26e30:	8021      	strh	r1, [r4, #0]
   26e32:	3008      	adds	r0, #8
   26e34:	9908      	ldr	r1, [sp, #32]
   26e36:	6e09      	ldr	r1, [r1, #96]	@ 0x60
   26e38:	4b2b      	ldr	r3, [pc, #172]	@ (26ee8 <_start+0x2cb0>)
   26e3a:	446b      	add	r3, sp
   26e3c:	930b      	str	r3, [sp, #44]	@ 0x2c
   26e3e:	c864      	ldmia	r0!, {r2, r5, r6}
   26e40:	c364      	stmia	r3!, {r2, r5, r6}
   26e42:	c864      	ldmia	r0!, {r2, r5, r6}
   26e44:	c364      	stmia	r3!, {r2, r5, r6}
   26e46:	c864      	ldmia	r0!, {r2, r5, r6}
   26e48:	c364      	stmia	r3!, {r2, r5, r6}
   26e4a:	7800      	ldrb	r0, [r0, #0]
   26e4c:	7018      	strb	r0, [r3, #0]
   26e4e:	0e08      	lsrs	r0, r1, #24
   26e50:	71a0      	strb	r0, [r4, #6]
   26e52:	0c08      	lsrs	r0, r1, #16
   26e54:	7160      	strb	r0, [r4, #5]
   26e56:	0a08      	lsrs	r0, r1, #8
   26e58:	7120      	strb	r0, [r4, #4]
   26e5a:	70e1      	strb	r1, [r4, #3]
   26e5c:	1de0      	adds	r0, r4, #7
   26e5e:	2225      	movs	r2, #37	@ 0x25
   26e60:	990b      	ldr	r1, [sp, #44]	@ 0x2c
   26e62:	f000 fa1a 	bl	2729a <__aeabi_memcpy>
   26e66:	4d1f      	ldr	r5, [pc, #124]	@ (26ee4 <_start+0x2cac>)
   26e68:	446d      	add	r5, sp
   26e6a:	4628      	mov	r0, r5
   26e6c:	4621      	mov	r1, r4
   26e6e:	f7fc fd07 	bl	23880 <_ZN20complex_full_dynamic3app17hdd53c92b76f00e5fE>
   26e72:	7828      	ldrb	r0, [r5, #0]
   26e74:	2801      	cmp	r0, #1
   26e76:	d101      	bne.n	26e7c <_start+0x2c44>
   26e78:	f7fd fcb3 	bl	247e2 <_start+0x5aa>
   26e7c:	4819      	ldr	r0, [pc, #100]	@ (26ee4 <_start+0x2cac>)
   26e7e:	4468      	add	r0, sp
   26e80:	78c1      	ldrb	r1, [r0, #3]
   26e82:	4c24      	ldr	r4, [pc, #144]	@ (26f14 <_start+0x2cdc>)
   26e84:	446c      	add	r4, sp
   26e86:	70a1      	strb	r1, [r4, #2]
   26e88:	7841      	ldrb	r1, [r0, #1]
   26e8a:	7882      	ldrb	r2, [r0, #2]
   26e8c:	0212      	lsls	r2, r2, #8
   26e8e:	1851      	adds	r1, r2, r1
   26e90:	8021      	strh	r1, [r4, #0]
   26e92:	3008      	adds	r0, #8
   26e94:	9908      	ldr	r1, [sp, #32]
   26e96:	6e09      	ldr	r1, [r1, #96]	@ 0x60
   26e98:	910a      	str	r1, [sp, #40]	@ 0x28
   26e9a:	4b13      	ldr	r3, [pc, #76]	@ (26ee8 <_start+0x2cb0>)
   26e9c:	446b      	add	r3, sp
   26e9e:	930b      	str	r3, [sp, #44]	@ 0x2c
   26ea0:	c866      	ldmia	r0!, {r1, r2, r5, r6}
   26ea2:	c366      	stmia	r3!, {r1, r2, r5, r6}
   26ea4:	c866      	ldmia	r0!, {r1, r2, r5, r6}
   26ea6:	c366      	stmia	r3!, {r1, r2, r5, r6}
   26ea8:	8801      	ldrh	r1, [r0, #0]
   26eaa:	8019      	strh	r1, [r3, #0]
   26eac:	7880      	ldrb	r0, [r0, #2]
   26eae:	7098      	strb	r0, [r3, #2]
   26eb0:	990a      	ldr	r1, [sp, #40]	@ 0x28
   26eb2:	0e08      	lsrs	r0, r1, #24
   26eb4:	71a0      	strb	r0, [r4, #6]
   26eb6:	0c08      	lsrs	r0, r1, #16
   26eb8:	7160      	strb	r0, [r4, #5]
   26eba:	0a08      	lsrs	r0, r1, #8
   26ebc:	7120      	strb	r0, [r4, #4]
   26ebe:	70e1      	strb	r1, [r4, #3]
   26ec0:	1de0      	adds	r0, r4, #7
   26ec2:	2223      	movs	r2, #35	@ 0x23
   26ec4:	990b      	ldr	r1, [sp, #44]	@ 0x2c
   26ec6:	f000 f9e8 	bl	2729a <__aeabi_memcpy>
   26eca:	4d06      	ldr	r5, [pc, #24]	@ (26ee4 <_start+0x2cac>)
   26ecc:	446d      	add	r5, sp
   26ece:	4628      	mov	r0, r5
   26ed0:	4621      	mov	r1, r4
   26ed2:	f7f9 ff49 	bl	20d68 <_ZN20complex_full_dynamic3app17h297aad9134ec7717E>
   26ed6:	7828      	ldrb	r0, [r5, #0]
   26ed8:	9908      	ldr	r1, [sp, #32]
   26eda:	6e09      	ldr	r1, [r1, #96]	@ 0x60
   26edc:	910b      	str	r1, [sp, #44]	@ 0x2c
   26ede:	f7fd fc84 	bl	247ea <_start+0x5b2>
   26ee2:	46c0      	nop			@ (mov r8, r8)
   26ee4:	00001404 	.word	0x00001404
   26ee8:	000013a8 	.word	0x000013a8
   26eec:	000011f8 	.word	0x000011f8
   26ef0:	0000121c 	.word	0x0000121c
   26ef4:	00001240 	.word	0x00001240
   26ef8:	00001270 	.word	0x00001270
   26efc:	000012d0 	.word	0x000012d0
   26f00:	00001328 	.word	0x00001328
   26f04:	0000133c 	.word	0x0000133c
   26f08:	0000138c 	.word	0x0000138c
   26f0c:	00001468 	.word	0x00001468
   26f10:	000014cc 	.word	0x000014cc
   26f14:	000014f8 	.word	0x000014f8

00026f18 <_ZN9allow_pin12full_dynamic17unshare_if_shared17hc627a04126f70c57E>:
   26f18:	b5d0      	push	{r4, r6, r7, lr}
   26f1a:	af02      	add	r7, sp, #8
   26f1c:	7a02      	ldrb	r2, [r0, #8]
   26f1e:	2a02      	cmp	r2, #2
   26f20:	d00d      	beq.n	26f3e <_ZN9allow_pin12full_dynamic17unshare_if_shared17hc627a04126f70c57E+0x26>
   26f22:	4604      	mov	r4, r0
   26f24:	6800      	ldr	r0, [r0, #0]
   26f26:	6861      	ldr	r1, [r4, #4]
   26f28:	2a03      	cmp	r2, #3
   26f2a:	d103      	bne.n	26f34 <_ZN9allow_pin12full_dynamic17unshare_if_shared17hc627a04126f70c57E+0x1c>
   26f2c:	2200      	movs	r2, #0
   26f2e:	4613      	mov	r3, r2
   26f30:	df03      	svc	3
   26f32:	e002      	b.n	26f3a <_ZN9allow_pin12full_dynamic17unshare_if_shared17hc627a04126f70c57E+0x22>
   26f34:	2200      	movs	r2, #0
   26f36:	4613      	mov	r3, r2
   26f38:	df04      	svc	4
   26f3a:	2002      	movs	r0, #2
   26f3c:	7220      	strb	r0, [r4, #8]
   26f3e:	bdd0      	pop	{r4, r6, r7, pc}

00026f40 <__aeabi_memclr4>:
   26f40:	b5f0      	push	{r4, r5, r6, r7, lr}
   26f42:	af03      	add	r7, sp, #12
   26f44:	2904      	cmp	r1, #4
   26f46:	d311      	bcc.n	26f6c <__aeabi_memclr4+0x2c>
   26f48:	1f0c      	subs	r4, r1, #4
   26f4a:	250c      	movs	r5, #12
   26f4c:	4025      	ands	r5, r4
   26f4e:	2d0c      	cmp	r5, #12
   26f50:	d012      	beq.n	26f78 <__aeabi_memclr4+0x38>
   26f52:	2600      	movs	r6, #0
   26f54:	4602      	mov	r2, r0
   26f56:	c240      	stmia	r2!, {r6}
   26f58:	0723      	lsls	r3, r4, #28
   26f5a:	0f9b      	lsrs	r3, r3, #30
   26f5c:	4623      	mov	r3, r4
   26f5e:	d00d      	beq.n	26f7c <__aeabi_memclr4+0x3c>
   26f60:	6046      	str	r6, [r0, #4]
   26f62:	2d04      	cmp	r5, #4
   26f64:	d105      	bne.n	26f72 <__aeabi_memclr4+0x32>
   26f66:	3908      	subs	r1, #8
   26f68:	3008      	adds	r0, #8
   26f6a:	e005      	b.n	26f78 <__aeabi_memclr4+0x38>
   26f6c:	460b      	mov	r3, r1
   26f6e:	4602      	mov	r2, r0
   26f70:	e00f      	b.n	26f92 <__aeabi_memclr4+0x52>
   26f72:	6086      	str	r6, [r0, #8]
   26f74:	390c      	subs	r1, #12
   26f76:	300c      	adds	r0, #12
   26f78:	4602      	mov	r2, r0
   26f7a:	460b      	mov	r3, r1
   26f7c:	2c0c      	cmp	r4, #12
   26f7e:	d308      	bcc.n	26f92 <__aeabi_memclr4+0x52>
   26f80:	2000      	movs	r0, #0
   26f82:	6010      	str	r0, [r2, #0]
   26f84:	6050      	str	r0, [r2, #4]
   26f86:	6090      	str	r0, [r2, #8]
   26f88:	60d0      	str	r0, [r2, #12]
   26f8a:	3210      	adds	r2, #16
   26f8c:	3b10      	subs	r3, #16
   26f8e:	2b03      	cmp	r3, #3
   26f90:	d8f6      	bhi.n	26f80 <__aeabi_memclr4+0x40>
   26f92:	18d0      	adds	r0, r2, r3
   26f94:	4282      	cmp	r2, r0
   26f96:	d21a      	bcs.n	26fce <__aeabi_memclr4+0x8e>
   26f98:	2403      	movs	r4, #3
   26f9a:	401c      	ands	r4, r3
   26f9c:	1e59      	subs	r1, r3, #1
   26f9e:	2c00      	cmp	r4, #0
   26fa0:	d00b      	beq.n	26fba <__aeabi_memclr4+0x7a>
   26fa2:	2300      	movs	r3, #0
   26fa4:	7013      	strb	r3, [r2, #0]
   26fa6:	2c01      	cmp	r4, #1
   26fa8:	d103      	bne.n	26fb2 <__aeabi_memclr4+0x72>
   26faa:	1c52      	adds	r2, r2, #1
   26fac:	2903      	cmp	r1, #3
   26fae:	d206      	bcs.n	26fbe <__aeabi_memclr4+0x7e>
   26fb0:	e00d      	b.n	26fce <__aeabi_memclr4+0x8e>
   26fb2:	7053      	strb	r3, [r2, #1]
   26fb4:	2c02      	cmp	r4, #2
   26fb6:	d10b      	bne.n	26fd0 <__aeabi_memclr4+0x90>
   26fb8:	1c92      	adds	r2, r2, #2
   26fba:	2903      	cmp	r1, #3
   26fbc:	d307      	bcc.n	26fce <__aeabi_memclr4+0x8e>
   26fbe:	2100      	movs	r1, #0
   26fc0:	70d1      	strb	r1, [r2, #3]
   26fc2:	7091      	strb	r1, [r2, #2]
   26fc4:	7051      	strb	r1, [r2, #1]
   26fc6:	7011      	strb	r1, [r2, #0]
   26fc8:	1d12      	adds	r2, r2, #4
   26fca:	4282      	cmp	r2, r0
   26fcc:	d1f7      	bne.n	26fbe <__aeabi_memclr4+0x7e>
   26fce:	bdf0      	pop	{r4, r5, r6, r7, pc}
   26fd0:	7093      	strb	r3, [r2, #2]
   26fd2:	1cd2      	adds	r2, r2, #3
   26fd4:	2903      	cmp	r1, #3
   26fd6:	d2f2      	bcs.n	26fbe <__aeabi_memclr4+0x7e>
   26fd8:	e7f9      	b.n	26fce <__aeabi_memclr4+0x8e>

00026fda <__aeabi_memcpy4>:
   26fda:	b5f0      	push	{r4, r5, r6, r7, lr}
   26fdc:	af03      	add	r7, sp, #12
   26fde:	b081      	sub	sp, #4
   26fe0:	2a04      	cmp	r2, #4
   26fe2:	d32d      	bcc.n	27040 <__aeabi_memcpy4+0x66>
   26fe4:	1f13      	subs	r3, r2, #4
   26fe6:	250c      	movs	r5, #12
   26fe8:	401d      	ands	r5, r3
   26fea:	2d0c      	cmp	r5, #12
   26fec:	d019      	beq.n	27022 <__aeabi_memcpy4+0x48>
   26fee:	9200      	str	r2, [sp, #0]
   26ff0:	460e      	mov	r6, r1
   26ff2:	c904      	ldmia	r1!, {r2}
   26ff4:	4604      	mov	r4, r0
   26ff6:	c004      	stmia	r0!, {r2}
   26ff8:	071a      	lsls	r2, r3, #28
   26ffa:	0f92      	lsrs	r2, r2, #30
   26ffc:	461a      	mov	r2, r3
   26ffe:	d010      	beq.n	27022 <__aeabi_memcpy4+0x48>
   27000:	4631      	mov	r1, r6
   27002:	6872      	ldr	r2, [r6, #4]
   27004:	6062      	str	r2, [r4, #4]
   27006:	2d04      	cmp	r5, #4
   27008:	d104      	bne.n	27014 <__aeabi_memcpy4+0x3a>
   2700a:	9a00      	ldr	r2, [sp, #0]
   2700c:	3a08      	subs	r2, #8
   2700e:	3108      	adds	r1, #8
   27010:	3408      	adds	r4, #8
   27012:	e005      	b.n	27020 <__aeabi_memcpy4+0x46>
   27014:	688a      	ldr	r2, [r1, #8]
   27016:	60a2      	str	r2, [r4, #8]
   27018:	9a00      	ldr	r2, [sp, #0]
   2701a:	3a0c      	subs	r2, #12
   2701c:	310c      	adds	r1, #12
   2701e:	340c      	adds	r4, #12
   27020:	4620      	mov	r0, r4
   27022:	2b0c      	cmp	r3, #12
   27024:	d30c      	bcc.n	27040 <__aeabi_memcpy4+0x66>
   27026:	680b      	ldr	r3, [r1, #0]
   27028:	6003      	str	r3, [r0, #0]
   2702a:	684b      	ldr	r3, [r1, #4]
   2702c:	6043      	str	r3, [r0, #4]
   2702e:	688b      	ldr	r3, [r1, #8]
   27030:	6083      	str	r3, [r0, #8]
   27032:	68cb      	ldr	r3, [r1, #12]
   27034:	60c3      	str	r3, [r0, #12]
   27036:	3110      	adds	r1, #16
   27038:	3010      	adds	r0, #16
   2703a:	3a10      	subs	r2, #16
   2703c:	2a03      	cmp	r2, #3
   2703e:	d8f2      	bhi.n	27026 <__aeabi_memcpy4+0x4c>
   27040:	f000 f802 	bl	27048 <_ZN17compiler_builtins3mem6memcpy17h1f9dbb1c3fd18e2fE>
   27044:	b001      	add	sp, #4
   27046:	bdf0      	pop	{r4, r5, r6, r7, pc}

00027048 <_ZN17compiler_builtins3mem6memcpy17h1f9dbb1c3fd18e2fE>:
   27048:	b5f0      	push	{r4, r5, r6, r7, lr}
   2704a:	af03      	add	r7, sp, #12
   2704c:	b08f      	sub	sp, #60	@ 0x3c
   2704e:	2a10      	cmp	r2, #16
   27050:	d315      	bcc.n	2707e <_ZN17compiler_builtins3mem6memcpy17h1f9dbb1c3fd18e2fE+0x36>
   27052:	920b      	str	r2, [sp, #44]	@ 0x2c
   27054:	4242      	negs	r2, r0
   27056:	2303      	movs	r3, #3
   27058:	9308      	str	r3, [sp, #32]
   2705a:	401a      	ands	r2, r3
   2705c:	1885      	adds	r5, r0, r2
   2705e:	900a      	str	r0, [sp, #40]	@ 0x28
   27060:	42a8      	cmp	r0, r5
   27062:	d22a      	bcs.n	270ba <_ZN17compiler_builtins3mem6memcpy17h1f9dbb1c3fd18e2fE+0x72>
   27064:	1e54      	subs	r4, r2, #1
   27066:	2a00      	cmp	r2, #0
   27068:	980a      	ldr	r0, [sp, #40]	@ 0x28
   2706a:	4606      	mov	r6, r0
   2706c:	460b      	mov	r3, r1
   2706e:	d016      	beq.n	2709e <_ZN17compiler_builtins3mem6memcpy17h1f9dbb1c3fd18e2fE+0x56>
   27070:	780b      	ldrb	r3, [r1, #0]
   27072:	7003      	strb	r3, [r0, #0]
   27074:	2a01      	cmp	r2, #1
   27076:	d107      	bne.n	27088 <_ZN17compiler_builtins3mem6memcpy17h1f9dbb1c3fd18e2fE+0x40>
   27078:	1c4b      	adds	r3, r1, #1
   2707a:	1c46      	adds	r6, r0, #1
   2707c:	e00f      	b.n	2709e <_ZN17compiler_builtins3mem6memcpy17h1f9dbb1c3fd18e2fE+0x56>
   2707e:	4603      	mov	r3, r0
   27080:	189c      	adds	r4, r3, r2
   27082:	42a3      	cmp	r3, r4
   27084:	d341      	bcc.n	2710a <_ZN17compiler_builtins3mem6memcpy17h1f9dbb1c3fd18e2fE+0xc2>
   27086:	e062      	b.n	2714e <_ZN17compiler_builtins3mem6memcpy17h1f9dbb1c3fd18e2fE+0x106>
   27088:	784b      	ldrb	r3, [r1, #1]
   2708a:	7043      	strb	r3, [r0, #1]
   2708c:	2a02      	cmp	r2, #2
   2708e:	d102      	bne.n	27096 <_ZN17compiler_builtins3mem6memcpy17h1f9dbb1c3fd18e2fE+0x4e>
   27090:	1c8b      	adds	r3, r1, #2
   27092:	1c86      	adds	r6, r0, #2
   27094:	e003      	b.n	2709e <_ZN17compiler_builtins3mem6memcpy17h1f9dbb1c3fd18e2fE+0x56>
   27096:	788b      	ldrb	r3, [r1, #2]
   27098:	7083      	strb	r3, [r0, #2]
   2709a:	1ccb      	adds	r3, r1, #3
   2709c:	1cc6      	adds	r6, r0, #3
   2709e:	2c03      	cmp	r4, #3
   270a0:	d30b      	bcc.n	270ba <_ZN17compiler_builtins3mem6memcpy17h1f9dbb1c3fd18e2fE+0x72>
   270a2:	781c      	ldrb	r4, [r3, #0]
   270a4:	7034      	strb	r4, [r6, #0]
   270a6:	785c      	ldrb	r4, [r3, #1]
   270a8:	7074      	strb	r4, [r6, #1]
   270aa:	789c      	ldrb	r4, [r3, #2]
   270ac:	70b4      	strb	r4, [r6, #2]
   270ae:	78dc      	ldrb	r4, [r3, #3]
   270b0:	70f4      	strb	r4, [r6, #3]
   270b2:	1d1b      	adds	r3, r3, #4
   270b4:	1d36      	adds	r6, r6, #4
   270b6:	42ae      	cmp	r6, r5
   270b8:	d1f3      	bne.n	270a2 <_ZN17compiler_builtins3mem6memcpy17h1f9dbb1c3fd18e2fE+0x5a>
   270ba:	980b      	ldr	r0, [sp, #44]	@ 0x2c
   270bc:	1a80      	subs	r0, r0, r2
   270be:	900b      	str	r0, [sp, #44]	@ 0x2c
   270c0:	9c08      	ldr	r4, [sp, #32]
   270c2:	43a0      	bics	r0, r4
   270c4:	182b      	adds	r3, r5, r0
   270c6:	188e      	adds	r6, r1, r2
   270c8:	9609      	str	r6, [sp, #36]	@ 0x24
   270ca:	4026      	ands	r6, r4
   270cc:	9007      	str	r0, [sp, #28]
   270ce:	d147      	bne.n	27160 <_ZN17compiler_builtins3mem6memcpy17h1f9dbb1c3fd18e2fE+0x118>
   270d0:	429d      	cmp	r5, r3
   270d2:	9a0b      	ldr	r2, [sp, #44]	@ 0x2c
   270d4:	9e09      	ldr	r6, [sp, #36]	@ 0x24
   270d6:	d211      	bcs.n	270fc <_ZN17compiler_builtins3mem6memcpy17h1f9dbb1c3fd18e2fE+0xb4>
   270d8:	4631      	mov	r1, r6
   270da:	6808      	ldr	r0, [r1, #0]
   270dc:	c501      	stmia	r5!, {r0}
   270de:	429d      	cmp	r5, r3
   270e0:	d20c      	bcs.n	270fc <_ZN17compiler_builtins3mem6memcpy17h1f9dbb1c3fd18e2fE+0xb4>
   270e2:	6848      	ldr	r0, [r1, #4]
   270e4:	c501      	stmia	r5!, {r0}
   270e6:	429d      	cmp	r5, r3
   270e8:	d208      	bcs.n	270fc <_ZN17compiler_builtins3mem6memcpy17h1f9dbb1c3fd18e2fE+0xb4>
   270ea:	6888      	ldr	r0, [r1, #8]
   270ec:	c501      	stmia	r5!, {r0}
   270ee:	429d      	cmp	r5, r3
   270f0:	d204      	bcs.n	270fc <_ZN17compiler_builtins3mem6memcpy17h1f9dbb1c3fd18e2fE+0xb4>
   270f2:	68c8      	ldr	r0, [r1, #12]
   270f4:	c501      	stmia	r5!, {r0}
   270f6:	3110      	adds	r1, #16
   270f8:	429d      	cmp	r5, r3
   270fa:	d3ee      	bcc.n	270da <_ZN17compiler_builtins3mem6memcpy17h1f9dbb1c3fd18e2fE+0x92>
   270fc:	4022      	ands	r2, r4
   270fe:	9807      	ldr	r0, [sp, #28]
   27100:	1831      	adds	r1, r6, r0
   27102:	980a      	ldr	r0, [sp, #40]	@ 0x28
   27104:	189c      	adds	r4, r3, r2
   27106:	42a3      	cmp	r3, r4
   27108:	d221      	bcs.n	2714e <_ZN17compiler_builtins3mem6memcpy17h1f9dbb1c3fd18e2fE+0x106>
   2710a:	2503      	movs	r5, #3
   2710c:	4015      	ands	r5, r2
   2710e:	1e52      	subs	r2, r2, #1
   27110:	2d00      	cmp	r5, #0
   27112:	d00e      	beq.n	27132 <_ZN17compiler_builtins3mem6memcpy17h1f9dbb1c3fd18e2fE+0xea>
   27114:	780e      	ldrb	r6, [r1, #0]
   27116:	701e      	strb	r6, [r3, #0]
   27118:	2d01      	cmp	r5, #1
   2711a:	d104      	bne.n	27126 <_ZN17compiler_builtins3mem6memcpy17h1f9dbb1c3fd18e2fE+0xde>
   2711c:	1c49      	adds	r1, r1, #1
   2711e:	1c5b      	adds	r3, r3, #1
   27120:	2a03      	cmp	r2, #3
   27122:	d208      	bcs.n	27136 <_ZN17compiler_builtins3mem6memcpy17h1f9dbb1c3fd18e2fE+0xee>
   27124:	e013      	b.n	2714e <_ZN17compiler_builtins3mem6memcpy17h1f9dbb1c3fd18e2fE+0x106>
   27126:	784e      	ldrb	r6, [r1, #1]
   27128:	705e      	strb	r6, [r3, #1]
   2712a:	2d02      	cmp	r5, #2
   2712c:	d111      	bne.n	27152 <_ZN17compiler_builtins3mem6memcpy17h1f9dbb1c3fd18e2fE+0x10a>
   2712e:	1c89      	adds	r1, r1, #2
   27130:	1c9b      	adds	r3, r3, #2
   27132:	2a03      	cmp	r2, #3
   27134:	d30b      	bcc.n	2714e <_ZN17compiler_builtins3mem6memcpy17h1f9dbb1c3fd18e2fE+0x106>
   27136:	780a      	ldrb	r2, [r1, #0]
   27138:	701a      	strb	r2, [r3, #0]
   2713a:	784a      	ldrb	r2, [r1, #1]
   2713c:	705a      	strb	r2, [r3, #1]
   2713e:	788a      	ldrb	r2, [r1, #2]
   27140:	709a      	strb	r2, [r3, #2]
   27142:	78ca      	ldrb	r2, [r1, #3]
   27144:	70da      	strb	r2, [r3, #3]
   27146:	1d09      	adds	r1, r1, #4
   27148:	1d1b      	adds	r3, r3, #4
   2714a:	42a3      	cmp	r3, r4
   2714c:	d1f3      	bne.n	27136 <_ZN17compiler_builtins3mem6memcpy17h1f9dbb1c3fd18e2fE+0xee>
   2714e:	b00f      	add	sp, #60	@ 0x3c
   27150:	bdf0      	pop	{r4, r5, r6, r7, pc}
   27152:	788d      	ldrb	r5, [r1, #2]
   27154:	709d      	strb	r5, [r3, #2]
   27156:	1cc9      	adds	r1, r1, #3
   27158:	1cdb      	adds	r3, r3, #3
   2715a:	2a03      	cmp	r2, #3
   2715c:	d2eb      	bcs.n	27136 <_ZN17compiler_builtins3mem6memcpy17h1f9dbb1c3fd18e2fE+0xee>
   2715e:	e7f6      	b.n	2714e <_ZN17compiler_builtins3mem6memcpy17h1f9dbb1c3fd18e2fE+0x106>
   27160:	2400      	movs	r4, #0
   27162:	9406      	str	r4, [sp, #24]
   27164:	940e      	str	r4, [sp, #56]	@ 0x38
   27166:	ac0e      	add	r4, sp, #56	@ 0x38
   27168:	19a4      	adds	r4, r4, r6
   2716a:	9405      	str	r4, [sp, #20]
   2716c:	2404      	movs	r4, #4
   2716e:	1ba4      	subs	r4, r4, r6
   27170:	9404      	str	r4, [sp, #16]
   27172:	07e4      	lsls	r4, r4, #31
   27174:	9600      	str	r6, [sp, #0]
   27176:	d006      	beq.n	27186 <_ZN17compiler_builtins3mem6memcpy17h1f9dbb1c3fd18e2fE+0x13e>
   27178:	9c09      	ldr	r4, [sp, #36]	@ 0x24
   2717a:	7824      	ldrb	r4, [r4, #0]
   2717c:	9e05      	ldr	r6, [sp, #20]
   2717e:	7034      	strb	r4, [r6, #0]
   27180:	9e00      	ldr	r6, [sp, #0]
   27182:	2401      	movs	r4, #1
   27184:	9406      	str	r4, [sp, #24]
   27186:	9c04      	ldr	r4, [sp, #16]
   27188:	07a4      	lsls	r4, r4, #30
   2718a:	d508      	bpl.n	2719e <_ZN17compiler_builtins3mem6memcpy17h1f9dbb1c3fd18e2fE+0x156>
   2718c:	9c09      	ldr	r4, [sp, #36]	@ 0x24
   2718e:	9204      	str	r2, [sp, #16]
   27190:	9a06      	ldr	r2, [sp, #24]
   27192:	5aa4      	ldrh	r4, [r4, r2]
   27194:	9e05      	ldr	r6, [sp, #20]
   27196:	9a06      	ldr	r2, [sp, #24]
   27198:	52b4      	strh	r4, [r6, r2]
   2719a:	9a04      	ldr	r2, [sp, #16]
   2719c:	9e00      	ldr	r6, [sp, #0]
   2719e:	00f4      	lsls	r4, r6, #3
   271a0:	9403      	str	r4, [sp, #12]
   271a2:	9c0e      	ldr	r4, [sp, #56]	@ 0x38
   271a4:	9406      	str	r4, [sp, #24]
   271a6:	1d2c      	adds	r4, r5, #4
   271a8:	429c      	cmp	r4, r3
   271aa:	d236      	bcs.n	2721a <_ZN17compiler_builtins3mem6memcpy17h1f9dbb1c3fd18e2fE+0x1d2>
   271ac:	4274      	negs	r4, r6
   271ae:	1909      	adds	r1, r1, r4
   271b0:	9105      	str	r1, [sp, #20]
   271b2:	9d03      	ldr	r5, [sp, #12]
   271b4:	4269      	negs	r1, r5
   271b6:	2418      	movs	r4, #24
   271b8:	400c      	ands	r4, r1
   271ba:	9402      	str	r4, [sp, #8]
   271bc:	990a      	ldr	r1, [sp, #40]	@ 0x28
   271be:	9104      	str	r1, [sp, #16]
   271c0:	4629      	mov	r1, r5
   271c2:	9c06      	ldr	r4, [sp, #24]
   271c4:	40cc      	lsrs	r4, r1
   271c6:	9406      	str	r4, [sp, #24]
   271c8:	9905      	ldr	r1, [sp, #20]
   271ca:	1889      	adds	r1, r1, r2
   271cc:	9101      	str	r1, [sp, #4]
   271ce:	6849      	ldr	r1, [r1, #4]
   271d0:	460c      	mov	r4, r1
   271d2:	9d02      	ldr	r5, [sp, #8]
   271d4:	40ac      	lsls	r4, r5
   271d6:	9d06      	ldr	r5, [sp, #24]
   271d8:	432c      	orrs	r4, r5
   271da:	9d04      	ldr	r5, [sp, #16]
   271dc:	50ac      	str	r4, [r5, r2]
   271de:	18ad      	adds	r5, r5, r2
   271e0:	462c      	mov	r4, r5
   271e2:	3408      	adds	r4, #8
   271e4:	429c      	cmp	r4, r3
   271e6:	d21c      	bcs.n	27222 <_ZN17compiler_builtins3mem6memcpy17h1f9dbb1c3fd18e2fE+0x1da>
   271e8:	9c03      	ldr	r4, [sp, #12]
   271ea:	40e1      	lsrs	r1, r4
   271ec:	9c01      	ldr	r4, [sp, #4]
   271ee:	68a4      	ldr	r4, [r4, #8]
   271f0:	9406      	str	r4, [sp, #24]
   271f2:	9501      	str	r5, [sp, #4]
   271f4:	9d02      	ldr	r5, [sp, #8]
   271f6:	40ac      	lsls	r4, r5
   271f8:	430c      	orrs	r4, r1
   271fa:	9901      	ldr	r1, [sp, #4]
   271fc:	604c      	str	r4, [r1, #4]
   271fe:	9904      	ldr	r1, [sp, #16]
   27200:	3108      	adds	r1, #8
   27202:	9104      	str	r1, [sp, #16]
   27204:	188d      	adds	r5, r1, r2
   27206:	1d29      	adds	r1, r5, #4
   27208:	9c05      	ldr	r4, [sp, #20]
   2720a:	3408      	adds	r4, #8
   2720c:	9405      	str	r4, [sp, #20]
   2720e:	4299      	cmp	r1, r3
   27210:	9903      	ldr	r1, [sp, #12]
   27212:	d3d6      	bcc.n	271c2 <_ZN17compiler_builtins3mem6memcpy17h1f9dbb1c3fd18e2fE+0x17a>
   27214:	9805      	ldr	r0, [sp, #20]
   27216:	1880      	adds	r0, r0, r2
   27218:	e001      	b.n	2721e <_ZN17compiler_builtins3mem6memcpy17h1f9dbb1c3fd18e2fE+0x1d6>
   2721a:	9809      	ldr	r0, [sp, #36]	@ 0x24
   2721c:	1b80      	subs	r0, r0, r6
   2721e:	9005      	str	r0, [sp, #20]
   27220:	e004      	b.n	2722c <_ZN17compiler_builtins3mem6memcpy17h1f9dbb1c3fd18e2fE+0x1e4>
   27222:	9801      	ldr	r0, [sp, #4]
   27224:	1d00      	adds	r0, r0, #4
   27226:	9005      	str	r0, [sp, #20]
   27228:	1d2d      	adds	r5, r5, #4
   2722a:	9106      	str	r1, [sp, #24]
   2722c:	a80d      	add	r0, sp, #52	@ 0x34
   2722e:	2100      	movs	r1, #0
   27230:	9004      	str	r0, [sp, #16]
   27232:	7001      	strb	r1, [r0, #0]
   27234:	a80c      	add	r0, sp, #48	@ 0x30
   27236:	7001      	strb	r1, [r0, #0]
   27238:	2e01      	cmp	r6, #1
   2723a:	460e      	mov	r6, r1
   2723c:	460c      	mov	r4, r1
   2723e:	9102      	str	r1, [sp, #8]
   27240:	9a0b      	ldr	r2, [sp, #44]	@ 0x2c
   27242:	d009      	beq.n	27258 <_ZN17compiler_builtins3mem6memcpy17h1f9dbb1c3fd18e2fE+0x210>
   27244:	9c05      	ldr	r4, [sp, #20]
   27246:	7960      	ldrb	r0, [r4, #5]
   27248:	7926      	ldrb	r6, [r4, #4]
   2724a:	ac0d      	add	r4, sp, #52	@ 0x34
   2724c:	7026      	strb	r6, [r4, #0]
   2724e:	0204      	lsls	r4, r0, #8
   27250:	2002      	movs	r0, #2
   27252:	9002      	str	r0, [sp, #8]
   27254:	a80c      	add	r0, sp, #48	@ 0x30
   27256:	9004      	str	r0, [sp, #16]
   27258:	9809      	ldr	r0, [sp, #36]	@ 0x24
   2725a:	07c0      	lsls	r0, r0, #31
   2725c:	d00a      	beq.n	27274 <_ZN17compiler_builtins3mem6memcpy17h1f9dbb1c3fd18e2fE+0x22c>
   2725e:	9805      	ldr	r0, [sp, #20]
   27260:	1d00      	adds	r0, r0, #4
   27262:	9902      	ldr	r1, [sp, #8]
   27264:	5c40      	ldrb	r0, [r0, r1]
   27266:	9904      	ldr	r1, [sp, #16]
   27268:	7008      	strb	r0, [r1, #0]
   2726a:	a80d      	add	r0, sp, #52	@ 0x34
   2726c:	7806      	ldrb	r6, [r0, #0]
   2726e:	a80c      	add	r0, sp, #48	@ 0x30
   27270:	7800      	ldrb	r0, [r0, #0]
   27272:	0401      	lsls	r1, r0, #16
   27274:	9605      	str	r6, [sp, #20]
   27276:	9803      	ldr	r0, [sp, #12]
   27278:	4240      	negs	r0, r0
   2727a:	9004      	str	r0, [sp, #16]
   2727c:	2618      	movs	r6, #24
   2727e:	9804      	ldr	r0, [sp, #16]
   27280:	4006      	ands	r6, r0
   27282:	430c      	orrs	r4, r1
   27284:	9905      	ldr	r1, [sp, #20]
   27286:	430c      	orrs	r4, r1
   27288:	40b4      	lsls	r4, r6
   2728a:	9906      	ldr	r1, [sp, #24]
   2728c:	9803      	ldr	r0, [sp, #12]
   2728e:	40c1      	lsrs	r1, r0
   27290:	4321      	orrs	r1, r4
   27292:	6029      	str	r1, [r5, #0]
   27294:	9c08      	ldr	r4, [sp, #32]
   27296:	9e09      	ldr	r6, [sp, #36]	@ 0x24
   27298:	e730      	b.n	270fc <_ZN17compiler_builtins3mem6memcpy17h1f9dbb1c3fd18e2fE+0xb4>

0002729a <__aeabi_memcpy>:
   2729a:	b580      	push	{r7, lr}
   2729c:	af00      	add	r7, sp, #0
   2729e:	f7ff fed3 	bl	27048 <_ZN17compiler_builtins3mem6memcpy17h1f9dbb1c3fd18e2fE>
   272a2:	bd80      	pop	{r7, pc}
