
target/riscv32imc-unknown-none-elf/opt-3/examples/complex_full_dynamic:     file format elf32-littleriscv

Sections:
Idx Name          Size      VMA       LMA       File off  Algn
  0 .eh_frame     00000060  000100d4  000100d4  000000d4  2**2
                  CONTENTS, ALLOC, LOAD, READONLY, DATA
  1 .text         00009fe4  00011134  00011134  00000134  2**1
                  CONTENTS, ALLOC, LOAD, READONLY, CODE
  2 .comment      0000008b  00000000  00000000  0000a118  2**0
                  CONTENTS, READONLY
  3 .riscv.attributes 0000002f  00000000  00000000  0000a1a3  2**0
                  CONTENTS, READONLY

Disassembly of section .text:

00011134 <_ZN20complex_full_dynamic3app17h01ee66be6d45ae44E>:
   11134:	7175                	addi	sp,sp,-144
   11136:	c706                	sw	ra,140(sp)
   11138:	c522                	sw	s0,136(sp)
   1113a:	c326                	sw	s1,132(sp)
   1113c:	c14a                	sw	s2,128(sp)
   1113e:	dece                	sw	s3,124(sp)
   11140:	892a                	mv	s2,a0
   11142:	4409                	li	s0,2
   11144:	00810823          	sb	s0,16(sp)
   11148:	0844                	addi	s1,sp,20
   1114a:	04100613          	li	a2,65
   1114e:	8526                	mv	a0,s1
   11150:	0000a097          	auipc	ra,0xa
   11154:	e22080e7          	jalr	-478(ra) # 1af72 <memcpy>
   11158:	8626                	mv	a2,s1
   1115a:	d882                	sw	zero,112(sp)
   1115c:	da82                	sw	zero,116(sp)
   1115e:	dc82                	sw	zero,120(sp)
   11160:	06810023          	sb	s0,96(sp)
   11164:	d282                	sw	zero,100(sp)
   11166:	d482                	sw	zero,104(sp)
   11168:	d682                	sw	zero,108(sp)
   1116a:	6509                	lui	a0,0x2
   1116c:	4485                	li	s1,1
   1116e:	4811                	li	a6,4
   11170:	4585                	li	a1,1
   11172:	15650793          	addi	a5,a0,342 # 2156 <.Lline_table_start1+0x1f2b>
   11176:	04100693          	li	a3,65
   1117a:	4711                	li	a4,4
   1117c:	853e                	mv	a0,a5
   1117e:	00000073          	ecall
   11182:	04850463          	beq	a0,s0,111ca <_ZN20complex_full_dynamic3app17h01ee66be6d45ae44E+0x96>
   11186:	853e                	mv	a0,a5
   11188:	06410993          	addi	s3,sp,100
   1118c:	c43e                	sw	a5,8(sp)
   1118e:	c626                	sw	s1,12(sp)
   11190:	01010823          	sb	a6,16(sp)
   11194:	44a5                	li	s1,9
   11196:	480d                	li	a6,3
   11198:	45a5                	li	a1,9
   1119a:	46e1                	li	a3,24
   1119c:	470d                	li	a4,3
   1119e:	864e                	mv	a2,s3
   111a0:	00000073          	ecall
   111a4:	02850363          	beq	a0,s0,111ca <_ZN20complex_full_dynamic3app17h01ee66be6d45ae44E+0x96>
   111a8:	ccbe                	sw	a5,88(sp)
   111aa:	cea6                	sw	s1,92(sp)
   111ac:	07010023          	sb	a6,96(sp)
   111b0:	6509                	lui	a0,0x2
   111b2:	4585                	li	a1,1
   111b4:	4625                	li	a2,9
   111b6:	15650513          	addi	a0,a0,342 # 2156 <.Lline_table_start1+0x1f2b>
   111ba:	4709                	li	a4,2
   111bc:	07f00793          	li	a5,127
   111c0:	4681                	li	a3,0
   111c2:	00000073          	ecall
   111c6:	02a7e863          	bltu	a5,a0,111f6 <_ZN20complex_full_dynamic3app17h01ee66be6d45ae44E+0xc2>
   111ca:	00b92223          	sw	a1,4(s2)
   111ce:	4505                	li	a0,1
   111d0:	00a90023          	sb	a0,0(s2)
   111d4:	08a8                	addi	a0,sp,88
   111d6:	0000a097          	auipc	ra,0xa
   111da:	d10080e7          	jalr	-752(ra) # 1aee6 <_ZN9allow_pin12full_dynamic17unshare_if_shared17h3ae8596986353d28E>
   111de:	0028                	addi	a0,sp,8
   111e0:	0000a097          	auipc	ra,0xa
   111e4:	d06080e7          	jalr	-762(ra) # 1aee6 <_ZN9allow_pin12full_dynamic17unshare_if_shared17h3ae8596986353d28E>
   111e8:	40ba                	lw	ra,140(sp)
   111ea:	442a                	lw	s0,136(sp)
   111ec:	449a                	lw	s1,132(sp)
   111ee:	490a                	lw	s2,128(sp)
   111f0:	59f6                	lw	s3,124(sp)
   111f2:	6149                	addi	sp,sp,144
   111f4:	8082                	ret
   111f6:	0028                	addi	a0,sp,8
   111f8:	0000a097          	auipc	ra,0xa
   111fc:	cee080e7          	jalr	-786(ra) # 1aee6 <_ZN9allow_pin12full_dynamic17unshare_if_shared17h3ae8596986353d28E>
   11200:	08a8                	addi	a0,sp,88
   11202:	0000a097          	auipc	ra,0xa
   11206:	ce4080e7          	jalr	-796(ra) # 1aee6 <_ZN9allow_pin12full_dynamic17unshare_if_shared17h3ae8596986353d28E>
   1120a:	08a8                	addi	a0,sp,88
   1120c:	0000a097          	auipc	ra,0xa
   11210:	cda080e7          	jalr	-806(ra) # 1aee6 <_ZN9allow_pin12full_dynamic17unshare_if_shared17h3ae8596986353d28E>
   11214:	00190513          	addi	a0,s2,1
   11218:	4661                	li	a2,24
   1121a:	85ce                	mv	a1,s3
   1121c:	0000a097          	auipc	ra,0xa
   11220:	d56080e7          	jalr	-682(ra) # 1af72 <memcpy>
   11224:	4501                	li	a0,0
   11226:	b76d                	j	111d0 <_ZN20complex_full_dynamic3app17h01ee66be6d45ae44E+0x9c>

00011228 <_ZN20complex_full_dynamic3app17h067349086c69ab83E>:
   11228:	7171                	addi	sp,sp,-176
   1122a:	d706                	sw	ra,172(sp)
   1122c:	d522                	sw	s0,168(sp)
   1122e:	d326                	sw	s1,164(sp)
   11230:	d14a                	sw	s2,160(sp)
   11232:	cf4e                	sw	s3,156(sp)
   11234:	89aa                	mv	s3,a0
   11236:	4409                	li	s0,2
   11238:	00810a23          	sb	s0,20(sp)
   1123c:	0824                	addi	s1,sp,24
   1123e:	03200613          	li	a2,50
   11242:	8526                	mv	a0,s1
   11244:	0000a097          	auipc	ra,0xa
   11248:	d2e080e7          	jalr	-722(ra) # 1af72 <memcpy>
   1124c:	05810913          	addi	s2,sp,88
   11250:	04100613          	li	a2,65
   11254:	854a                	mv	a0,s2
   11256:	4581                	li	a1,0
   11258:	0000a097          	auipc	ra,0xa
   1125c:	cae080e7          	jalr	-850(ra) # 1af06 <memset>
   11260:	8626                	mv	a2,s1
   11262:	04810a23          	sb	s0,84(sp)
   11266:	6505                	lui	a0,0x1
   11268:	449d                	li	s1,7
   1126a:	4811                	li	a6,4
   1126c:	459d                	li	a1,7
   1126e:	91d50793          	addi	a5,a0,-1763 # 91d <.Lline_table_start1+0x6f2>
   11272:	03200693          	li	a3,50
   11276:	4711                	li	a4,4
   11278:	853e                	mv	a0,a5
   1127a:	00000073          	ecall
   1127e:	04850363          	beq	a0,s0,112c4 <_ZN20complex_full_dynamic3app17h067349086c69ab83E+0x9c>
   11282:	853e                	mv	a0,a5
   11284:	864a                	mv	a2,s2
   11286:	c63e                	sw	a5,12(sp)
   11288:	c826                	sw	s1,16(sp)
   1128a:	01010a23          	sb	a6,20(sp)
   1128e:	4495                	li	s1,5
   11290:	480d                	li	a6,3
   11292:	4595                	li	a1,5
   11294:	04100693          	li	a3,65
   11298:	470d                	li	a4,3
   1129a:	00000073          	ecall
   1129e:	02850363          	beq	a0,s0,112c4 <_ZN20complex_full_dynamic3app17h067349086c69ab83E+0x9c>
   112a2:	c6be                	sw	a5,76(sp)
   112a4:	c8a6                	sw	s1,80(sp)
   112a6:	05010a23          	sb	a6,84(sp)
   112aa:	6505                	lui	a0,0x1
   112ac:	459d                	li	a1,7
   112ae:	4615                	li	a2,5
   112b0:	91d50513          	addi	a0,a0,-1763 # 91d <.Lline_table_start1+0x6f2>
   112b4:	4709                	li	a4,2
   112b6:	07f00793          	li	a5,127
   112ba:	4681                	li	a3,0
   112bc:	00000073          	ecall
   112c0:	02a7e863          	bltu	a5,a0,112f0 <_ZN20complex_full_dynamic3app17h067349086c69ab83E+0xc8>
   112c4:	00b9a223          	sw	a1,4(s3)
   112c8:	4505                	li	a0,1
   112ca:	00a98023          	sb	a0,0(s3)
   112ce:	00e8                	addi	a0,sp,76
   112d0:	0000a097          	auipc	ra,0xa
   112d4:	c16080e7          	jalr	-1002(ra) # 1aee6 <_ZN9allow_pin12full_dynamic17unshare_if_shared17h3ae8596986353d28E>
   112d8:	0068                	addi	a0,sp,12
   112da:	0000a097          	auipc	ra,0xa
   112de:	c0c080e7          	jalr	-1012(ra) # 1aee6 <_ZN9allow_pin12full_dynamic17unshare_if_shared17h3ae8596986353d28E>
   112e2:	50ba                	lw	ra,172(sp)
   112e4:	542a                	lw	s0,168(sp)
   112e6:	549a                	lw	s1,164(sp)
   112e8:	590a                	lw	s2,160(sp)
   112ea:	49fa                	lw	s3,156(sp)
   112ec:	614d                	addi	sp,sp,176
   112ee:	8082                	ret
   112f0:	0068                	addi	a0,sp,12
   112f2:	0000a097          	auipc	ra,0xa
   112f6:	bf4080e7          	jalr	-1036(ra) # 1aee6 <_ZN9allow_pin12full_dynamic17unshare_if_shared17h3ae8596986353d28E>
   112fa:	00e8                	addi	a0,sp,76
   112fc:	0000a097          	auipc	ra,0xa
   11300:	bea080e7          	jalr	-1046(ra) # 1aee6 <_ZN9allow_pin12full_dynamic17unshare_if_shared17h3ae8596986353d28E>
   11304:	00e8                	addi	a0,sp,76
   11306:	0000a097          	auipc	ra,0xa
   1130a:	be0080e7          	jalr	-1056(ra) # 1aee6 <_ZN9allow_pin12full_dynamic17unshare_if_shared17h3ae8596986353d28E>
   1130e:	00198513          	addi	a0,s3,1
   11312:	04100613          	li	a2,65
   11316:	85ca                	mv	a1,s2
   11318:	0000a097          	auipc	ra,0xa
   1131c:	c5a080e7          	jalr	-934(ra) # 1af72 <memcpy>
   11320:	4501                	li	a0,0
   11322:	b765                	j	112ca <_ZN20complex_full_dynamic3app17h067349086c69ab83E+0xa2>

00011324 <_ZN20complex_full_dynamic3app17h0779741d898456b9E>:
   11324:	7135                	addi	sp,sp,-160
   11326:	cf06                	sw	ra,156(sp)
   11328:	cd22                	sw	s0,152(sp)
   1132a:	cb26                	sw	s1,148(sp)
   1132c:	c94a                	sw	s2,144(sp)
   1132e:	c74e                	sw	s3,140(sp)
   11330:	89aa                	mv	s3,a0
   11332:	4409                	li	s0,2
   11334:	00810423          	sb	s0,8(sp)
   11338:	0064                	addi	s1,sp,12
   1133a:	03c00613          	li	a2,60
   1133e:	8526                	mv	a0,s1
   11340:	0000a097          	auipc	ra,0xa
   11344:	c32080e7          	jalr	-974(ra) # 1af72 <memcpy>
   11348:	05410913          	addi	s2,sp,84
   1134c:	03800613          	li	a2,56
   11350:	854a                	mv	a0,s2
   11352:	4581                	li	a1,0
   11354:	0000a097          	auipc	ra,0xa
   11358:	bb2080e7          	jalr	-1102(ra) # 1af06 <memset>
   1135c:	8626                	mv	a2,s1
   1135e:	04810823          	sb	s0,80(sp)
   11362:	6509                	lui	a0,0x2
   11364:	448d                	li	s1,3
   11366:	4811                	li	a6,4
   11368:	458d                	li	a1,3
   1136a:	d1950793          	addi	a5,a0,-743 # 1d19 <.Lline_table_start1+0x1aee>
   1136e:	03c00693          	li	a3,60
   11372:	4711                	li	a4,4
   11374:	853e                	mv	a0,a5
   11376:	00000073          	ecall
   1137a:	04850263          	beq	a0,s0,113be <_ZN20complex_full_dynamic3app17h0779741d898456b9E+0x9a>
   1137e:	c03e                	sw	a5,0(sp)
   11380:	c226                	sw	s1,4(sp)
   11382:	01010423          	sb	a6,8(sp)
   11386:	458d                	li	a1,3
   11388:	03800693          	li	a3,56
   1138c:	470d                	li	a4,3
   1138e:	853e                	mv	a0,a5
   11390:	864a                	mv	a2,s2
   11392:	00000073          	ecall
   11396:	02850463          	beq	a0,s0,113be <_ZN20complex_full_dynamic3app17h0779741d898456b9E+0x9a>
   1139a:	450d                	li	a0,3
   1139c:	6689                	lui	a3,0x2
   1139e:	458d                	li	a1,3
   113a0:	460d                	li	a2,3
   113a2:	c4be                	sw	a5,72(sp)
   113a4:	c6aa                	sw	a0,76(sp)
   113a6:	04a10823          	sb	a0,80(sp)
   113aa:	d1968513          	addi	a0,a3,-743 # 1d19 <.Lline_table_start1+0x1aee>
   113ae:	4709                	li	a4,2
   113b0:	07f00793          	li	a5,127
   113b4:	4681                	li	a3,0
   113b6:	00000073          	ecall
   113ba:	02a7e863          	bltu	a5,a0,113ea <_ZN20complex_full_dynamic3app17h0779741d898456b9E+0xc6>
   113be:	00b9a223          	sw	a1,4(s3)
   113c2:	4505                	li	a0,1
   113c4:	00a98023          	sb	a0,0(s3)
   113c8:	00a8                	addi	a0,sp,72
   113ca:	0000a097          	auipc	ra,0xa
   113ce:	b1c080e7          	jalr	-1252(ra) # 1aee6 <_ZN9allow_pin12full_dynamic17unshare_if_shared17h3ae8596986353d28E>
   113d2:	850a                	mv	a0,sp
   113d4:	0000a097          	auipc	ra,0xa
   113d8:	b12080e7          	jalr	-1262(ra) # 1aee6 <_ZN9allow_pin12full_dynamic17unshare_if_shared17h3ae8596986353d28E>
   113dc:	40fa                	lw	ra,156(sp)
   113de:	446a                	lw	s0,152(sp)
   113e0:	44da                	lw	s1,148(sp)
   113e2:	494a                	lw	s2,144(sp)
   113e4:	49ba                	lw	s3,140(sp)
   113e6:	610d                	addi	sp,sp,160
   113e8:	8082                	ret
   113ea:	850a                	mv	a0,sp
   113ec:	0000a097          	auipc	ra,0xa
   113f0:	afa080e7          	jalr	-1286(ra) # 1aee6 <_ZN9allow_pin12full_dynamic17unshare_if_shared17h3ae8596986353d28E>
   113f4:	00a8                	addi	a0,sp,72
   113f6:	0000a097          	auipc	ra,0xa
   113fa:	af0080e7          	jalr	-1296(ra) # 1aee6 <_ZN9allow_pin12full_dynamic17unshare_if_shared17h3ae8596986353d28E>
   113fe:	00a8                	addi	a0,sp,72
   11400:	0000a097          	auipc	ra,0xa
   11404:	ae6080e7          	jalr	-1306(ra) # 1aee6 <_ZN9allow_pin12full_dynamic17unshare_if_shared17h3ae8596986353d28E>
   11408:	00198513          	addi	a0,s3,1
   1140c:	03800613          	li	a2,56
   11410:	85ca                	mv	a1,s2
   11412:	0000a097          	auipc	ra,0xa
   11416:	b60080e7          	jalr	-1184(ra) # 1af72 <memcpy>
   1141a:	4501                	li	a0,0
   1141c:	b765                	j	113c4 <_ZN20complex_full_dynamic3app17h0779741d898456b9E+0xa0>

0001141e <_ZN20complex_full_dynamic3app17h078e09842da22c0dE>:
   1141e:	7159                	addi	sp,sp,-112
   11420:	d686                	sw	ra,108(sp)
   11422:	d4a2                	sw	s0,104(sp)
   11424:	d2a6                	sw	s1,100(sp)
   11426:	d0ca                	sw	s2,96(sp)
   11428:	cece                	sw	s3,92(sp)
   1142a:	89aa                	mv	s3,a0
   1142c:	4409                	li	s0,2
   1142e:	00810a23          	sb	s0,20(sp)
   11432:	0824                	addi	s1,sp,24
   11434:	463d                	li	a2,15
   11436:	8526                	mv	a0,s1
   11438:	0000a097          	auipc	ra,0xa
   1143c:	b3a080e7          	jalr	-1222(ra) # 1af72 <memcpy>
   11440:	03410913          	addi	s2,sp,52
   11444:	02500613          	li	a2,37
   11448:	854a                	mv	a0,s2
   1144a:	4581                	li	a1,0
   1144c:	0000a097          	auipc	ra,0xa
   11450:	aba080e7          	jalr	-1350(ra) # 1af06 <memset>
   11454:	8626                	mv	a2,s1
   11456:	02810823          	sb	s0,48(sp)
   1145a:	0a200793          	li	a5,162
   1145e:	44a1                	li	s1,8
   11460:	4811                	li	a6,4
   11462:	0a200513          	li	a0,162
   11466:	45a1                	li	a1,8
   11468:	46bd                	li	a3,15
   1146a:	4711                	li	a4,4
   1146c:	00000073          	ecall
   11470:	04850463          	beq	a0,s0,114b8 <_ZN20complex_full_dynamic3app17h078e09842da22c0dE+0x9a>
   11474:	4581                	li	a1,0
   11476:	864a                	mv	a2,s2
   11478:	c63e                	sw	a5,12(sp)
   1147a:	c826                	sw	s1,16(sp)
   1147c:	01010a23          	sb	a6,20(sp)
   11480:	478d                	li	a5,3
   11482:	0a200513          	li	a0,162
   11486:	02500693          	li	a3,37
   1148a:	470d                	li	a4,3
   1148c:	00000073          	ecall
   11490:	02850463          	beq	a0,s0,114b8 <_ZN20complex_full_dynamic3app17h078e09842da22c0dE+0x9a>
   11494:	0a200613          	li	a2,162
   11498:	0a200513          	li	a0,162
   1149c:	45a1                	li	a1,8
   1149e:	4709                	li	a4,2
   114a0:	07f00493          	li	s1,127
   114a4:	d432                	sw	a2,40(sp)
   114a6:	d602                	sw	zero,44(sp)
   114a8:	02f10823          	sb	a5,48(sp)
   114ac:	4601                	li	a2,0
   114ae:	4681                	li	a3,0
   114b0:	00000073          	ecall
   114b4:	02a4e863          	bltu	s1,a0,114e4 <_ZN20complex_full_dynamic3app17h078e09842da22c0dE+0xc6>
   114b8:	00b9a223          	sw	a1,4(s3)
   114bc:	4505                	li	a0,1
   114be:	00a98023          	sb	a0,0(s3)
   114c2:	1028                	addi	a0,sp,40
   114c4:	0000a097          	auipc	ra,0xa
   114c8:	a22080e7          	jalr	-1502(ra) # 1aee6 <_ZN9allow_pin12full_dynamic17unshare_if_shared17h3ae8596986353d28E>
   114cc:	0068                	addi	a0,sp,12
   114ce:	0000a097          	auipc	ra,0xa
   114d2:	a18080e7          	jalr	-1512(ra) # 1aee6 <_ZN9allow_pin12full_dynamic17unshare_if_shared17h3ae8596986353d28E>
   114d6:	50b6                	lw	ra,108(sp)
   114d8:	5426                	lw	s0,104(sp)
   114da:	5496                	lw	s1,100(sp)
   114dc:	5906                	lw	s2,96(sp)
   114de:	49f6                	lw	s3,92(sp)
   114e0:	6165                	addi	sp,sp,112
   114e2:	8082                	ret
   114e4:	0068                	addi	a0,sp,12
   114e6:	0000a097          	auipc	ra,0xa
   114ea:	a00080e7          	jalr	-1536(ra) # 1aee6 <_ZN9allow_pin12full_dynamic17unshare_if_shared17h3ae8596986353d28E>
   114ee:	1028                	addi	a0,sp,40
   114f0:	0000a097          	auipc	ra,0xa
   114f4:	9f6080e7          	jalr	-1546(ra) # 1aee6 <_ZN9allow_pin12full_dynamic17unshare_if_shared17h3ae8596986353d28E>
   114f8:	1028                	addi	a0,sp,40
   114fa:	0000a097          	auipc	ra,0xa
   114fe:	9ec080e7          	jalr	-1556(ra) # 1aee6 <_ZN9allow_pin12full_dynamic17unshare_if_shared17h3ae8596986353d28E>
   11502:	00198513          	addi	a0,s3,1
   11506:	02500613          	li	a2,37
   1150a:	85ca                	mv	a1,s2
   1150c:	0000a097          	auipc	ra,0xa
   11510:	a66080e7          	jalr	-1434(ra) # 1af72 <memcpy>
   11514:	4501                	li	a0,0
   11516:	b765                	j	114be <_ZN20complex_full_dynamic3app17h078e09842da22c0dE+0xa0>

00011518 <_ZN20complex_full_dynamic3app17h0cb2b5f2c7bba0a4E>:
   11518:	7131                	addi	sp,sp,-192
   1151a:	df06                	sw	ra,188(sp)
   1151c:	dd22                	sw	s0,184(sp)
   1151e:	db26                	sw	s1,180(sp)
   11520:	d94a                	sw	s2,176(sp)
   11522:	d74e                	sw	s3,172(sp)
   11524:	89aa                	mv	s3,a0
   11526:	4409                	li	s0,2
   11528:	00810623          	sb	s0,12(sp)
   1152c:	0804                	addi	s1,sp,16
   1152e:	06300613          	li	a2,99
   11532:	8526                	mv	a0,s1
   11534:	0000a097          	auipc	ra,0xa
   11538:	a3e080e7          	jalr	-1474(ra) # 1af72 <memcpy>
   1153c:	08010913          	addi	s2,sp,128
   11540:	02c00613          	li	a2,44
   11544:	854a                	mv	a0,s2
   11546:	4581                	li	a1,0
   11548:	0000a097          	auipc	ra,0xa
   1154c:	9be080e7          	jalr	-1602(ra) # 1af06 <memset>
   11550:	8626                	mv	a2,s1
   11552:	06810e23          	sb	s0,124(sp)
   11556:	47e1                	li	a5,24
   11558:	4495                	li	s1,5
   1155a:	4811                	li	a6,4
   1155c:	4561                	li	a0,24
   1155e:	4595                	li	a1,5
   11560:	06300693          	li	a3,99
   11564:	4711                	li	a4,4
   11566:	00000073          	ecall
   1156a:	04850163          	beq	a0,s0,115ac <_ZN20complex_full_dynamic3app17h0cb2b5f2c7bba0a4E+0x94>
   1156e:	864a                	mv	a2,s2
   11570:	c23e                	sw	a5,4(sp)
   11572:	c426                	sw	s1,8(sp)
   11574:	01010623          	sb	a6,12(sp)
   11578:	478d                	li	a5,3
   1157a:	4561                	li	a0,24
   1157c:	458d                	li	a1,3
   1157e:	02c00693          	li	a3,44
   11582:	470d                	li	a4,3
   11584:	00000073          	ecall
   11588:	02850263          	beq	a0,s0,115ac <_ZN20complex_full_dynamic3app17h0cb2b5f2c7bba0a4E+0x94>
   1158c:	46e1                	li	a3,24
   1158e:	4561                	li	a0,24
   11590:	4595                	li	a1,5
   11592:	460d                	li	a2,3
   11594:	4709                	li	a4,2
   11596:	07f00493          	li	s1,127
   1159a:	dab6                	sw	a3,116(sp)
   1159c:	dcbe                	sw	a5,120(sp)
   1159e:	06f10e23          	sb	a5,124(sp)
   115a2:	4681                	li	a3,0
   115a4:	00000073          	ecall
   115a8:	02a4e863          	bltu	s1,a0,115d8 <_ZN20complex_full_dynamic3app17h0cb2b5f2c7bba0a4E+0xc0>
   115ac:	00b9a223          	sw	a1,4(s3)
   115b0:	4505                	li	a0,1
   115b2:	00a98023          	sb	a0,0(s3)
   115b6:	18c8                	addi	a0,sp,116
   115b8:	0000a097          	auipc	ra,0xa
   115bc:	92e080e7          	jalr	-1746(ra) # 1aee6 <_ZN9allow_pin12full_dynamic17unshare_if_shared17h3ae8596986353d28E>
   115c0:	0048                	addi	a0,sp,4
   115c2:	0000a097          	auipc	ra,0xa
   115c6:	924080e7          	jalr	-1756(ra) # 1aee6 <_ZN9allow_pin12full_dynamic17unshare_if_shared17h3ae8596986353d28E>
   115ca:	50fa                	lw	ra,188(sp)
   115cc:	546a                	lw	s0,184(sp)
   115ce:	54da                	lw	s1,180(sp)
   115d0:	594a                	lw	s2,176(sp)
   115d2:	59ba                	lw	s3,172(sp)
   115d4:	6129                	addi	sp,sp,192
   115d6:	8082                	ret
   115d8:	0048                	addi	a0,sp,4
   115da:	0000a097          	auipc	ra,0xa
   115de:	90c080e7          	jalr	-1780(ra) # 1aee6 <_ZN9allow_pin12full_dynamic17unshare_if_shared17h3ae8596986353d28E>
   115e2:	18c8                	addi	a0,sp,116
   115e4:	0000a097          	auipc	ra,0xa
   115e8:	902080e7          	jalr	-1790(ra) # 1aee6 <_ZN9allow_pin12full_dynamic17unshare_if_shared17h3ae8596986353d28E>
   115ec:	18c8                	addi	a0,sp,116
   115ee:	0000a097          	auipc	ra,0xa
   115f2:	8f8080e7          	jalr	-1800(ra) # 1aee6 <_ZN9allow_pin12full_dynamic17unshare_if_shared17h3ae8596986353d28E>
   115f6:	00198513          	addi	a0,s3,1
   115fa:	02c00613          	li	a2,44
   115fe:	85ca                	mv	a1,s2
   11600:	0000a097          	auipc	ra,0xa
   11604:	972080e7          	jalr	-1678(ra) # 1af72 <memcpy>
   11608:	4501                	li	a0,0
   1160a:	b765                	j	115b2 <_ZN20complex_full_dynamic3app17h0cb2b5f2c7bba0a4E+0x9a>

0001160c <_ZN20complex_full_dynamic3app17h0f1cb326b048eff3E>:
   1160c:	7131                	addi	sp,sp,-192
   1160e:	df06                	sw	ra,188(sp)
   11610:	dd22                	sw	s0,184(sp)
   11612:	db26                	sw	s1,180(sp)
   11614:	d94a                	sw	s2,176(sp)
   11616:	d74e                	sw	s3,172(sp)
   11618:	89aa                	mv	s3,a0
   1161a:	4409                	li	s0,2
   1161c:	00810823          	sb	s0,16(sp)
   11620:	0844                	addi	s1,sp,20
   11622:	05000613          	li	a2,80
   11626:	8526                	mv	a0,s1
   11628:	0000a097          	auipc	ra,0xa
   1162c:	94a080e7          	jalr	-1718(ra) # 1af72 <memcpy>
   11630:	07010913          	addi	s2,sp,112
   11634:	03c00613          	li	a2,60
   11638:	854a                	mv	a0,s2
   1163a:	4581                	li	a1,0
   1163c:	0000a097          	auipc	ra,0xa
   11640:	8ca080e7          	jalr	-1846(ra) # 1af06 <memset>
   11644:	8626                	mv	a2,s1
   11646:	06810623          	sb	s0,108(sp)
   1164a:	6505                	lui	a0,0x1
   1164c:	448d                	li	s1,3
   1164e:	4811                	li	a6,4
   11650:	458d                	li	a1,3
   11652:	d7a50793          	addi	a5,a0,-646 # d7a <.Lline_table_start1+0xb4f>
   11656:	05000693          	li	a3,80
   1165a:	4711                	li	a4,4
   1165c:	853e                	mv	a0,a5
   1165e:	00000073          	ecall
   11662:	04850363          	beq	a0,s0,116a8 <_ZN20complex_full_dynamic3app17h0f1cb326b048eff3E+0x9c>
   11666:	853e                	mv	a0,a5
   11668:	864a                	mv	a2,s2
   1166a:	c43e                	sw	a5,8(sp)
   1166c:	c626                	sw	s1,12(sp)
   1166e:	01010823          	sb	a6,16(sp)
   11672:	44a5                	li	s1,9
   11674:	45a5                	li	a1,9
   11676:	03c00693          	li	a3,60
   1167a:	470d                	li	a4,3
   1167c:	00000073          	ecall
   11680:	02850463          	beq	a0,s0,116a8 <_ZN20complex_full_dynamic3app17h0f1cb326b048eff3E+0x9c>
   11684:	450d                	li	a0,3
   11686:	6685                	lui	a3,0x1
   11688:	458d                	li	a1,3
   1168a:	4625                	li	a2,9
   1168c:	d2be                	sw	a5,100(sp)
   1168e:	d4a6                	sw	s1,104(sp)
   11690:	06a10623          	sb	a0,108(sp)
   11694:	d7a68513          	addi	a0,a3,-646 # d7a <.Lline_table_start1+0xb4f>
   11698:	4709                	li	a4,2
   1169a:	07f00793          	li	a5,127
   1169e:	4681                	li	a3,0
   116a0:	00000073          	ecall
   116a4:	02a7e863          	bltu	a5,a0,116d4 <_ZN20complex_full_dynamic3app17h0f1cb326b048eff3E+0xc8>
   116a8:	00b9a223          	sw	a1,4(s3)
   116ac:	4505                	li	a0,1
   116ae:	00a98023          	sb	a0,0(s3)
   116b2:	10c8                	addi	a0,sp,100
   116b4:	0000a097          	auipc	ra,0xa
   116b8:	832080e7          	jalr	-1998(ra) # 1aee6 <_ZN9allow_pin12full_dynamic17unshare_if_shared17h3ae8596986353d28E>
   116bc:	0028                	addi	a0,sp,8
   116be:	0000a097          	auipc	ra,0xa
   116c2:	828080e7          	jalr	-2008(ra) # 1aee6 <_ZN9allow_pin12full_dynamic17unshare_if_shared17h3ae8596986353d28E>
   116c6:	50fa                	lw	ra,188(sp)
   116c8:	546a                	lw	s0,184(sp)
   116ca:	54da                	lw	s1,180(sp)
   116cc:	594a                	lw	s2,176(sp)
   116ce:	59ba                	lw	s3,172(sp)
   116d0:	6129                	addi	sp,sp,192
   116d2:	8082                	ret
   116d4:	0028                	addi	a0,sp,8
   116d6:	0000a097          	auipc	ra,0xa
   116da:	810080e7          	jalr	-2032(ra) # 1aee6 <_ZN9allow_pin12full_dynamic17unshare_if_shared17h3ae8596986353d28E>
   116de:	10c8                	addi	a0,sp,100
   116e0:	0000a097          	auipc	ra,0xa
   116e4:	806080e7          	jalr	-2042(ra) # 1aee6 <_ZN9allow_pin12full_dynamic17unshare_if_shared17h3ae8596986353d28E>
   116e8:	10c8                	addi	a0,sp,100
   116ea:	00009097          	auipc	ra,0x9
   116ee:	7fc080e7          	jalr	2044(ra) # 1aee6 <_ZN9allow_pin12full_dynamic17unshare_if_shared17h3ae8596986353d28E>
   116f2:	00198513          	addi	a0,s3,1
   116f6:	03c00613          	li	a2,60
   116fa:	85ca                	mv	a1,s2
   116fc:	0000a097          	auipc	ra,0xa
   11700:	876080e7          	jalr	-1930(ra) # 1af72 <memcpy>
   11704:	4501                	li	a0,0
   11706:	b765                	j	116ae <_ZN20complex_full_dynamic3app17h0f1cb326b048eff3E+0xa2>

00011708 <_ZN20complex_full_dynamic3app17h0f9c47301dabcf42E>:
   11708:	7159                	addi	sp,sp,-112
   1170a:	d686                	sw	ra,108(sp)
   1170c:	d4a2                	sw	s0,104(sp)
   1170e:	d2a6                	sw	s1,100(sp)
   11710:	d0ca                	sw	s2,96(sp)
   11712:	cece                	sw	s3,92(sp)
   11714:	892a                	mv	s2,a0
   11716:	4409                	li	s0,2
   11718:	00810a23          	sb	s0,20(sp)
   1171c:	0824                	addi	s1,sp,24
   1171e:	4661                	li	a2,24
   11720:	8526                	mv	a0,s1
   11722:	0000a097          	auipc	ra,0xa
   11726:	850080e7          	jalr	-1968(ra) # 1af72 <memcpy>
   1172a:	8626                	mv	a2,s1
   1172c:	04011c23          	sh	zero,88(sp)
   11730:	c482                	sw	zero,72(sp)
   11732:	c682                	sw	zero,76(sp)
   11734:	c882                	sw	zero,80(sp)
   11736:	ca82                	sw	zero,84(sp)
   11738:	02810c23          	sb	s0,56(sp)
   1173c:	de02                	sw	zero,60(sp)
   1173e:	c082                	sw	zero,64(sp)
   11740:	c282                	sw	zero,68(sp)
   11742:	6505                	lui	a0,0x1
   11744:	44a5                	li	s1,9
   11746:	4811                	li	a6,4
   11748:	45a5                	li	a1,9
   1174a:	cbb50793          	addi	a5,a0,-837 # cbb <.Lline_table_start1+0xa90>
   1174e:	46e1                	li	a3,24
   11750:	4711                	li	a4,4
   11752:	853e                	mv	a0,a5
   11754:	00000073          	ecall
   11758:	04850463          	beq	a0,s0,117a0 <_ZN20complex_full_dynamic3app17h0f9c47301dabcf42E+0x98>
   1175c:	853e                	mv	a0,a5
   1175e:	03c10993          	addi	s3,sp,60
   11762:	c63e                	sw	a5,12(sp)
   11764:	c826                	sw	s1,16(sp)
   11766:	01010a23          	sb	a6,20(sp)
   1176a:	4495                	li	s1,5
   1176c:	480d                	li	a6,3
   1176e:	4595                	li	a1,5
   11770:	46f9                	li	a3,30
   11772:	470d                	li	a4,3
   11774:	864e                	mv	a2,s3
   11776:	00000073          	ecall
   1177a:	02850363          	beq	a0,s0,117a0 <_ZN20complex_full_dynamic3app17h0f9c47301dabcf42E+0x98>
   1177e:	d83e                	sw	a5,48(sp)
   11780:	da26                	sw	s1,52(sp)
   11782:	03010c23          	sb	a6,56(sp)
   11786:	6505                	lui	a0,0x1
   11788:	45a5                	li	a1,9
   1178a:	4615                	li	a2,5
   1178c:	cbb50513          	addi	a0,a0,-837 # cbb <.Lline_table_start1+0xa90>
   11790:	4709                	li	a4,2
   11792:	07f00793          	li	a5,127
   11796:	4681                	li	a3,0
   11798:	00000073          	ecall
   1179c:	02a7e863          	bltu	a5,a0,117cc <_ZN20complex_full_dynamic3app17h0f9c47301dabcf42E+0xc4>
   117a0:	00b92223          	sw	a1,4(s2)
   117a4:	4505                	li	a0,1
   117a6:	00a90023          	sb	a0,0(s2)
   117aa:	1808                	addi	a0,sp,48
   117ac:	00009097          	auipc	ra,0x9
   117b0:	73a080e7          	jalr	1850(ra) # 1aee6 <_ZN9allow_pin12full_dynamic17unshare_if_shared17h3ae8596986353d28E>
   117b4:	0068                	addi	a0,sp,12
   117b6:	00009097          	auipc	ra,0x9
   117ba:	730080e7          	jalr	1840(ra) # 1aee6 <_ZN9allow_pin12full_dynamic17unshare_if_shared17h3ae8596986353d28E>
   117be:	50b6                	lw	ra,108(sp)
   117c0:	5426                	lw	s0,104(sp)
   117c2:	5496                	lw	s1,100(sp)
   117c4:	5906                	lw	s2,96(sp)
   117c6:	49f6                	lw	s3,92(sp)
   117c8:	6165                	addi	sp,sp,112
   117ca:	8082                	ret
   117cc:	0068                	addi	a0,sp,12
   117ce:	00009097          	auipc	ra,0x9
   117d2:	718080e7          	jalr	1816(ra) # 1aee6 <_ZN9allow_pin12full_dynamic17unshare_if_shared17h3ae8596986353d28E>
   117d6:	1808                	addi	a0,sp,48
   117d8:	00009097          	auipc	ra,0x9
   117dc:	70e080e7          	jalr	1806(ra) # 1aee6 <_ZN9allow_pin12full_dynamic17unshare_if_shared17h3ae8596986353d28E>
   117e0:	1808                	addi	a0,sp,48
   117e2:	00009097          	auipc	ra,0x9
   117e6:	704080e7          	jalr	1796(ra) # 1aee6 <_ZN9allow_pin12full_dynamic17unshare_if_shared17h3ae8596986353d28E>
   117ea:	00190513          	addi	a0,s2,1
   117ee:	4679                	li	a2,30
   117f0:	85ce                	mv	a1,s3
   117f2:	00009097          	auipc	ra,0x9
   117f6:	780080e7          	jalr	1920(ra) # 1af72 <memcpy>
   117fa:	4501                	li	a0,0
   117fc:	b76d                	j	117a6 <_ZN20complex_full_dynamic3app17h0f9c47301dabcf42E+0x9e>

000117fe <_ZN20complex_full_dynamic3app17h10371af6d1d11d1fE>:
   117fe:	7171                	addi	sp,sp,-176
   11800:	d706                	sw	ra,172(sp)
   11802:	d522                	sw	s0,168(sp)
   11804:	d326                	sw	s1,164(sp)
   11806:	d14a                	sw	s2,160(sp)
   11808:	cf4e                	sw	s3,156(sp)
   1180a:	89aa                	mv	s3,a0
   1180c:	4409                	li	s0,2
   1180e:	00810823          	sb	s0,16(sp)
   11812:	0844                	addi	s1,sp,20
   11814:	04a00613          	li	a2,74
   11818:	8526                	mv	a0,s1
   1181a:	00009097          	auipc	ra,0x9
   1181e:	758080e7          	jalr	1880(ra) # 1af72 <memcpy>
   11822:	06c10913          	addi	s2,sp,108
   11826:	02d00613          	li	a2,45
   1182a:	854a                	mv	a0,s2
   1182c:	4581                	li	a1,0
   1182e:	00009097          	auipc	ra,0x9
   11832:	6d8080e7          	jalr	1752(ra) # 1af06 <memset>
   11836:	8626                	mv	a2,s1
   11838:	06810423          	sb	s0,104(sp)
   1183c:	6505                	lui	a0,0x1
   1183e:	4491                	li	s1,4
   11840:	4589                	li	a1,2
   11842:	e3d50793          	addi	a5,a0,-451 # e3d <.Lline_table_start1+0xc12>
   11846:	04a00693          	li	a3,74
   1184a:	4711                	li	a4,4
   1184c:	853e                	mv	a0,a5
   1184e:	00000073          	ecall
   11852:	04850263          	beq	a0,s0,11896 <_ZN20complex_full_dynamic3app17h10371af6d1d11d1fE+0x98>
   11856:	853e                	mv	a0,a5
   11858:	864a                	mv	a2,s2
   1185a:	c43e                	sw	a5,8(sp)
   1185c:	c622                	sw	s0,12(sp)
   1185e:	00910823          	sb	s1,16(sp)
   11862:	448d                	li	s1,3
   11864:	458d                	li	a1,3
   11866:	02d00693          	li	a3,45
   1186a:	470d                	li	a4,3
   1186c:	00000073          	ecall
   11870:	02850363          	beq	a0,s0,11896 <_ZN20complex_full_dynamic3app17h10371af6d1d11d1fE+0x98>
   11874:	d0be                	sw	a5,96(sp)
   11876:	d2a6                	sw	s1,100(sp)
   11878:	06910423          	sb	s1,104(sp)
   1187c:	6505                	lui	a0,0x1
   1187e:	4589                	li	a1,2
   11880:	460d                	li	a2,3
   11882:	e3d50513          	addi	a0,a0,-451 # e3d <.Lline_table_start1+0xc12>
   11886:	4709                	li	a4,2
   11888:	07f00793          	li	a5,127
   1188c:	4681                	li	a3,0
   1188e:	00000073          	ecall
   11892:	02a7e863          	bltu	a5,a0,118c2 <_ZN20complex_full_dynamic3app17h10371af6d1d11d1fE+0xc4>
   11896:	00b9a223          	sw	a1,4(s3)
   1189a:	4505                	li	a0,1
   1189c:	00a98023          	sb	a0,0(s3)
   118a0:	1088                	addi	a0,sp,96
   118a2:	00009097          	auipc	ra,0x9
   118a6:	644080e7          	jalr	1604(ra) # 1aee6 <_ZN9allow_pin12full_dynamic17unshare_if_shared17h3ae8596986353d28E>
   118aa:	0028                	addi	a0,sp,8
   118ac:	00009097          	auipc	ra,0x9
   118b0:	63a080e7          	jalr	1594(ra) # 1aee6 <_ZN9allow_pin12full_dynamic17unshare_if_shared17h3ae8596986353d28E>
   118b4:	50ba                	lw	ra,172(sp)
   118b6:	542a                	lw	s0,168(sp)
   118b8:	549a                	lw	s1,164(sp)
   118ba:	590a                	lw	s2,160(sp)
   118bc:	49fa                	lw	s3,156(sp)
   118be:	614d                	addi	sp,sp,176
   118c0:	8082                	ret
   118c2:	0028                	addi	a0,sp,8
   118c4:	00009097          	auipc	ra,0x9
   118c8:	622080e7          	jalr	1570(ra) # 1aee6 <_ZN9allow_pin12full_dynamic17unshare_if_shared17h3ae8596986353d28E>
   118cc:	1088                	addi	a0,sp,96
   118ce:	00009097          	auipc	ra,0x9
   118d2:	618080e7          	jalr	1560(ra) # 1aee6 <_ZN9allow_pin12full_dynamic17unshare_if_shared17h3ae8596986353d28E>
   118d6:	1088                	addi	a0,sp,96
   118d8:	00009097          	auipc	ra,0x9
   118dc:	60e080e7          	jalr	1550(ra) # 1aee6 <_ZN9allow_pin12full_dynamic17unshare_if_shared17h3ae8596986353d28E>
   118e0:	00198513          	addi	a0,s3,1
   118e4:	02d00613          	li	a2,45
   118e8:	85ca                	mv	a1,s2
   118ea:	00009097          	auipc	ra,0x9
   118ee:	688080e7          	jalr	1672(ra) # 1af72 <memcpy>
   118f2:	4501                	li	a0,0
   118f4:	b765                	j	1189c <_ZN20complex_full_dynamic3app17h10371af6d1d11d1fE+0x9e>

000118f6 <_ZN20complex_full_dynamic3app17h12e754b9bd091674E>:
   118f6:	7115                	addi	sp,sp,-224
   118f8:	cf86                	sw	ra,220(sp)
   118fa:	cda2                	sw	s0,216(sp)
   118fc:	cba6                	sw	s1,212(sp)
   118fe:	c9ca                	sw	s2,208(sp)
   11900:	c7ce                	sw	s3,204(sp)
   11902:	89aa                	mv	s3,a0
   11904:	4409                	li	s0,2
   11906:	00810a23          	sb	s0,20(sp)
   1190a:	0824                	addi	s1,sp,24
   1190c:	05900613          	li	a2,89
   11910:	8526                	mv	a0,s1
   11912:	00009097          	auipc	ra,0x9
   11916:	660080e7          	jalr	1632(ra) # 1af72 <memcpy>
   1191a:	08010913          	addi	s2,sp,128
   1191e:	04a00613          	li	a2,74
   11922:	854a                	mv	a0,s2
   11924:	4581                	li	a1,0
   11926:	00009097          	auipc	ra,0x9
   1192a:	5e0080e7          	jalr	1504(ra) # 1af06 <memset>
   1192e:	4581                	li	a1,0
   11930:	8626                	mv	a2,s1
   11932:	06810e23          	sb	s0,124(sp)
   11936:	6505                	lui	a0,0x1
   11938:	4491                	li	s1,4
   1193a:	48450793          	addi	a5,a0,1156 # 1484 <.Lline_table_start1+0x1259>
   1193e:	05900693          	li	a3,89
   11942:	4711                	li	a4,4
   11944:	853e                	mv	a0,a5
   11946:	00000073          	ecall
   1194a:	04850363          	beq	a0,s0,11990 <_ZN20complex_full_dynamic3app17h12e754b9bd091674E+0x9a>
   1194e:	853e                	mv	a0,a5
   11950:	864a                	mv	a2,s2
   11952:	c63e                	sw	a5,12(sp)
   11954:	c802                	sw	zero,16(sp)
   11956:	00910a23          	sb	s1,20(sp)
   1195a:	448d                	li	s1,3
   1195c:	4591                	li	a1,4
   1195e:	04a00693          	li	a3,74
   11962:	470d                	li	a4,3
   11964:	00000073          	ecall
   11968:	02850463          	beq	a0,s0,11990 <_ZN20complex_full_dynamic3app17h12e754b9bd091674E+0x9a>
   1196c:	4511                	li	a0,4
   1196e:	6585                	lui	a1,0x1
   11970:	4611                	li	a2,4
   11972:	dabe                	sw	a5,116(sp)
   11974:	dcaa                	sw	a0,120(sp)
   11976:	06910e23          	sb	s1,124(sp)
   1197a:	48458513          	addi	a0,a1,1156 # 1484 <.Lline_table_start1+0x1259>
   1197e:	4709                	li	a4,2
   11980:	07f00793          	li	a5,127
   11984:	4581                	li	a1,0
   11986:	4681                	li	a3,0
   11988:	00000073          	ecall
   1198c:	02a7e863          	bltu	a5,a0,119bc <_ZN20complex_full_dynamic3app17h12e754b9bd091674E+0xc6>
   11990:	00b9a223          	sw	a1,4(s3)
   11994:	4505                	li	a0,1
   11996:	00a98023          	sb	a0,0(s3)
   1199a:	18c8                	addi	a0,sp,116
   1199c:	00009097          	auipc	ra,0x9
   119a0:	54a080e7          	jalr	1354(ra) # 1aee6 <_ZN9allow_pin12full_dynamic17unshare_if_shared17h3ae8596986353d28E>
   119a4:	0068                	addi	a0,sp,12
   119a6:	00009097          	auipc	ra,0x9
   119aa:	540080e7          	jalr	1344(ra) # 1aee6 <_ZN9allow_pin12full_dynamic17unshare_if_shared17h3ae8596986353d28E>
   119ae:	40fe                	lw	ra,220(sp)
   119b0:	446e                	lw	s0,216(sp)
   119b2:	44de                	lw	s1,212(sp)
   119b4:	494e                	lw	s2,208(sp)
   119b6:	49be                	lw	s3,204(sp)
   119b8:	612d                	addi	sp,sp,224
   119ba:	8082                	ret
   119bc:	0068                	addi	a0,sp,12
   119be:	00009097          	auipc	ra,0x9
   119c2:	528080e7          	jalr	1320(ra) # 1aee6 <_ZN9allow_pin12full_dynamic17unshare_if_shared17h3ae8596986353d28E>
   119c6:	18c8                	addi	a0,sp,116
   119c8:	00009097          	auipc	ra,0x9
   119cc:	51e080e7          	jalr	1310(ra) # 1aee6 <_ZN9allow_pin12full_dynamic17unshare_if_shared17h3ae8596986353d28E>
   119d0:	18c8                	addi	a0,sp,116
   119d2:	00009097          	auipc	ra,0x9
   119d6:	514080e7          	jalr	1300(ra) # 1aee6 <_ZN9allow_pin12full_dynamic17unshare_if_shared17h3ae8596986353d28E>
   119da:	00198513          	addi	a0,s3,1
   119de:	04a00613          	li	a2,74
   119e2:	85ca                	mv	a1,s2
   119e4:	00009097          	auipc	ra,0x9
   119e8:	58e080e7          	jalr	1422(ra) # 1af72 <memcpy>
   119ec:	4501                	li	a0,0
   119ee:	b765                	j	11996 <_ZN20complex_full_dynamic3app17h12e754b9bd091674E+0xa0>

000119f0 <_ZN20complex_full_dynamic3app17h13ab51d56169627eE>:
   119f0:	7171                	addi	sp,sp,-176
   119f2:	d706                	sw	ra,172(sp)
   119f4:	d522                	sw	s0,168(sp)
   119f6:	d326                	sw	s1,164(sp)
   119f8:	d14a                	sw	s2,160(sp)
   119fa:	cf4e                	sw	s3,156(sp)
   119fc:	89aa                	mv	s3,a0
   119fe:	4409                	li	s0,2
   11a00:	00810423          	sb	s0,8(sp)
   11a04:	0064                	addi	s1,sp,12
   11a06:	02d00613          	li	a2,45
   11a0a:	8526                	mv	a0,s1
   11a0c:	00009097          	auipc	ra,0x9
   11a10:	566080e7          	jalr	1382(ra) # 1af72 <memcpy>
   11a14:	04810913          	addi	s2,sp,72
   11a18:	05300613          	li	a2,83
   11a1c:	854a                	mv	a0,s2
   11a1e:	4581                	li	a1,0
   11a20:	00009097          	auipc	ra,0x9
   11a24:	4e6080e7          	jalr	1254(ra) # 1af06 <memset>
   11a28:	8626                	mv	a2,s1
   11a2a:	04810223          	sb	s0,68(sp)
   11a2e:	6505                	lui	a0,0x1
   11a30:	4491                	li	s1,4
   11a32:	4589                	li	a1,2
   11a34:	ec350793          	addi	a5,a0,-317 # ec3 <.Lline_table_start1+0xc98>
   11a38:	02d00693          	li	a3,45
   11a3c:	4711                	li	a4,4
   11a3e:	853e                	mv	a0,a5
   11a40:	00000073          	ecall
   11a44:	04850363          	beq	a0,s0,11a8a <_ZN20complex_full_dynamic3app17h13ab51d56169627eE+0x9a>
   11a48:	853e                	mv	a0,a5
   11a4a:	864a                	mv	a2,s2
   11a4c:	c03e                	sw	a5,0(sp)
   11a4e:	c222                	sw	s0,4(sp)
   11a50:	00910423          	sb	s1,8(sp)
   11a54:	449d                	li	s1,7
   11a56:	480d                	li	a6,3
   11a58:	459d                	li	a1,7
   11a5a:	05300693          	li	a3,83
   11a5e:	470d                	li	a4,3
   11a60:	00000073          	ecall
   11a64:	02850363          	beq	a0,s0,11a8a <_ZN20complex_full_dynamic3app17h13ab51d56169627eE+0x9a>
   11a68:	de3e                	sw	a5,60(sp)
   11a6a:	c0a6                	sw	s1,64(sp)
   11a6c:	05010223          	sb	a6,68(sp)
   11a70:	6505                	lui	a0,0x1
   11a72:	4589                	li	a1,2
   11a74:	461d                	li	a2,7
   11a76:	ec350513          	addi	a0,a0,-317 # ec3 <.Lline_table_start1+0xc98>
   11a7a:	4709                	li	a4,2
   11a7c:	07f00793          	li	a5,127
   11a80:	4681                	li	a3,0
   11a82:	00000073          	ecall
   11a86:	02a7e863          	bltu	a5,a0,11ab6 <_ZN20complex_full_dynamic3app17h13ab51d56169627eE+0xc6>
   11a8a:	00b9a223          	sw	a1,4(s3)
   11a8e:	4505                	li	a0,1
   11a90:	00a98023          	sb	a0,0(s3)
   11a94:	1868                	addi	a0,sp,60
   11a96:	00009097          	auipc	ra,0x9
   11a9a:	450080e7          	jalr	1104(ra) # 1aee6 <_ZN9allow_pin12full_dynamic17unshare_if_shared17h3ae8596986353d28E>
   11a9e:	850a                	mv	a0,sp
   11aa0:	00009097          	auipc	ra,0x9
   11aa4:	446080e7          	jalr	1094(ra) # 1aee6 <_ZN9allow_pin12full_dynamic17unshare_if_shared17h3ae8596986353d28E>
   11aa8:	50ba                	lw	ra,172(sp)
   11aaa:	542a                	lw	s0,168(sp)
   11aac:	549a                	lw	s1,164(sp)
   11aae:	590a                	lw	s2,160(sp)
   11ab0:	49fa                	lw	s3,156(sp)
   11ab2:	614d                	addi	sp,sp,176
   11ab4:	8082                	ret
   11ab6:	850a                	mv	a0,sp
   11ab8:	00009097          	auipc	ra,0x9
   11abc:	42e080e7          	jalr	1070(ra) # 1aee6 <_ZN9allow_pin12full_dynamic17unshare_if_shared17h3ae8596986353d28E>
   11ac0:	1868                	addi	a0,sp,60
   11ac2:	00009097          	auipc	ra,0x9
   11ac6:	424080e7          	jalr	1060(ra) # 1aee6 <_ZN9allow_pin12full_dynamic17unshare_if_shared17h3ae8596986353d28E>
   11aca:	1868                	addi	a0,sp,60
   11acc:	00009097          	auipc	ra,0x9
   11ad0:	41a080e7          	jalr	1050(ra) # 1aee6 <_ZN9allow_pin12full_dynamic17unshare_if_shared17h3ae8596986353d28E>
   11ad4:	00198513          	addi	a0,s3,1
   11ad8:	05300613          	li	a2,83
   11adc:	85ca                	mv	a1,s2
   11ade:	00009097          	auipc	ra,0x9
   11ae2:	494080e7          	jalr	1172(ra) # 1af72 <memcpy>
   11ae6:	4501                	li	a0,0
   11ae8:	b765                	j	11a90 <_ZN20complex_full_dynamic3app17h13ab51d56169627eE+0xa0>

00011aea <_ZN20complex_full_dynamic3app17h17cf9186bc7a1c29E>:
   11aea:	715d                	addi	sp,sp,-80
   11aec:	c686                	sw	ra,76(sp)
   11aee:	c4a2                	sw	s0,72(sp)
   11af0:	c2a6                	sw	s1,68(sp)
   11af2:	c0ca                	sw	s2,64(sp)
   11af4:	de4e                	sw	s3,60(sp)
   11af6:	892a                	mv	s2,a0
   11af8:	4409                	li	s0,2
   11afa:	00810423          	sb	s0,8(sp)
   11afe:	0064                	addi	s1,sp,12
   11b00:	463d                	li	a2,15
   11b02:	8526                	mv	a0,s1
   11b04:	00009097          	auipc	ra,0x9
   11b08:	46e080e7          	jalr	1134(ra) # 1af72 <memcpy>
   11b0c:	8626                	mv	a2,s1
   11b0e:	da02                	sw	zero,52(sp)
   11b10:	02011c23          	sh	zero,56(sp)
   11b14:	02010d23          	sb	zero,58(sp)
   11b18:	02810223          	sb	s0,36(sp)
   11b1c:	d402                	sw	zero,40(sp)
   11b1e:	d602                	sw	zero,44(sp)
   11b20:	d802                	sw	zero,48(sp)
   11b22:	6509                	lui	a0,0x2
   11b24:	448d                	li	s1,3
   11b26:	4811                	li	a6,4
   11b28:	458d                	li	a1,3
   11b2a:	e4b50793          	addi	a5,a0,-437 # 1e4b <.Lline_table_start1+0x1c20>
   11b2e:	46bd                	li	a3,15
   11b30:	4711                	li	a4,4
   11b32:	853e                	mv	a0,a5
   11b34:	00000073          	ecall
   11b38:	04850363          	beq	a0,s0,11b7e <_ZN20complex_full_dynamic3app17h17cf9186bc7a1c29E+0x94>
   11b3c:	02810993          	addi	s3,sp,40
   11b40:	c03e                	sw	a5,0(sp)
   11b42:	c226                	sw	s1,4(sp)
   11b44:	01010423          	sb	a6,8(sp)
   11b48:	46cd                	li	a3,19
   11b4a:	470d                	li	a4,3
   11b4c:	853e                	mv	a0,a5
   11b4e:	4581                	li	a1,0
   11b50:	864e                	mv	a2,s3
   11b52:	00000073          	ecall
   11b56:	02850463          	beq	a0,s0,11b7e <_ZN20complex_full_dynamic3app17h17cf9186bc7a1c29E+0x94>
   11b5a:	450d                	li	a0,3
   11b5c:	6609                	lui	a2,0x2
   11b5e:	458d                	li	a1,3
   11b60:	ce3e                	sw	a5,28(sp)
   11b62:	d002                	sw	zero,32(sp)
   11b64:	02a10223          	sb	a0,36(sp)
   11b68:	e4b60513          	addi	a0,a2,-437 # 1e4b <.Lline_table_start1+0x1c20>
   11b6c:	4709                	li	a4,2
   11b6e:	07f00793          	li	a5,127
   11b72:	4601                	li	a2,0
   11b74:	4681                	li	a3,0
   11b76:	00000073          	ecall
   11b7a:	02a7e863          	bltu	a5,a0,11baa <_ZN20complex_full_dynamic3app17h17cf9186bc7a1c29E+0xc0>
   11b7e:	00b92223          	sw	a1,4(s2)
   11b82:	4505                	li	a0,1
   11b84:	00a90023          	sb	a0,0(s2)
   11b88:	0868                	addi	a0,sp,28
   11b8a:	00009097          	auipc	ra,0x9
   11b8e:	35c080e7          	jalr	860(ra) # 1aee6 <_ZN9allow_pin12full_dynamic17unshare_if_shared17h3ae8596986353d28E>
   11b92:	850a                	mv	a0,sp
   11b94:	00009097          	auipc	ra,0x9
   11b98:	352080e7          	jalr	850(ra) # 1aee6 <_ZN9allow_pin12full_dynamic17unshare_if_shared17h3ae8596986353d28E>
   11b9c:	40b6                	lw	ra,76(sp)
   11b9e:	4426                	lw	s0,72(sp)
   11ba0:	4496                	lw	s1,68(sp)
   11ba2:	4906                	lw	s2,64(sp)
   11ba4:	59f2                	lw	s3,60(sp)
   11ba6:	6161                	addi	sp,sp,80
   11ba8:	8082                	ret
   11baa:	850a                	mv	a0,sp
   11bac:	00009097          	auipc	ra,0x9
   11bb0:	33a080e7          	jalr	826(ra) # 1aee6 <_ZN9allow_pin12full_dynamic17unshare_if_shared17h3ae8596986353d28E>
   11bb4:	0868                	addi	a0,sp,28
   11bb6:	00009097          	auipc	ra,0x9
   11bba:	330080e7          	jalr	816(ra) # 1aee6 <_ZN9allow_pin12full_dynamic17unshare_if_shared17h3ae8596986353d28E>
   11bbe:	0868                	addi	a0,sp,28
   11bc0:	00009097          	auipc	ra,0x9
   11bc4:	326080e7          	jalr	806(ra) # 1aee6 <_ZN9allow_pin12full_dynamic17unshare_if_shared17h3ae8596986353d28E>
   11bc8:	00190513          	addi	a0,s2,1
   11bcc:	464d                	li	a2,19
   11bce:	85ce                	mv	a1,s3
   11bd0:	00009097          	auipc	ra,0x9
   11bd4:	3a2080e7          	jalr	930(ra) # 1af72 <memcpy>
   11bd8:	4501                	li	a0,0
   11bda:	b76d                	j	11b84 <_ZN20complex_full_dynamic3app17h17cf9186bc7a1c29E+0x9a>

00011bdc <_ZN20complex_full_dynamic3app17h17f00b5b3f789598E>:
   11bdc:	7171                	addi	sp,sp,-176
   11bde:	d706                	sw	ra,172(sp)
   11be0:	d522                	sw	s0,168(sp)
   11be2:	d326                	sw	s1,164(sp)
   11be4:	d14a                	sw	s2,160(sp)
   11be6:	cf4e                	sw	s3,156(sp)
   11be8:	89aa                	mv	s3,a0
   11bea:	4409                	li	s0,2
   11bec:	00810823          	sb	s0,16(sp)
   11bf0:	0844                	addi	s1,sp,20
   11bf2:	4671                	li	a2,28
   11bf4:	8526                	mv	a0,s1
   11bf6:	00009097          	auipc	ra,0x9
   11bfa:	37c080e7          	jalr	892(ra) # 1af72 <memcpy>
   11bfe:	03c10913          	addi	s2,sp,60
   11c02:	05d00613          	li	a2,93
   11c06:	854a                	mv	a0,s2
   11c08:	4581                	li	a1,0
   11c0a:	00009097          	auipc	ra,0x9
   11c0e:	2fc080e7          	jalr	764(ra) # 1af06 <memset>
   11c12:	8626                	mv	a2,s1
   11c14:	02810c23          	sb	s0,56(sp)
   11c18:	6505                	lui	a0,0x1
   11c1a:	44a1                	li	s1,8
   11c1c:	4811                	li	a6,4
   11c1e:	45a1                	li	a1,8
   11c20:	c3e50793          	addi	a5,a0,-962 # c3e <.Lline_table_start1+0xa13>
   11c24:	46f1                	li	a3,28
   11c26:	4711                	li	a4,4
   11c28:	853e                	mv	a0,a5
   11c2a:	00000073          	ecall
   11c2e:	04850363          	beq	a0,s0,11c74 <_ZN20complex_full_dynamic3app17h17f00b5b3f789598E+0x98>
   11c32:	853e                	mv	a0,a5
   11c34:	864a                	mv	a2,s2
   11c36:	c43e                	sw	a5,8(sp)
   11c38:	c626                	sw	s1,12(sp)
   11c3a:	01010823          	sb	a6,16(sp)
   11c3e:	4495                	li	s1,5
   11c40:	480d                	li	a6,3
   11c42:	4595                	li	a1,5
   11c44:	05d00693          	li	a3,93
   11c48:	470d                	li	a4,3
   11c4a:	00000073          	ecall
   11c4e:	02850363          	beq	a0,s0,11c74 <_ZN20complex_full_dynamic3app17h17f00b5b3f789598E+0x98>
   11c52:	d83e                	sw	a5,48(sp)
   11c54:	da26                	sw	s1,52(sp)
   11c56:	03010c23          	sb	a6,56(sp)
   11c5a:	6505                	lui	a0,0x1
   11c5c:	45a1                	li	a1,8
   11c5e:	4615                	li	a2,5
   11c60:	c3e50513          	addi	a0,a0,-962 # c3e <.Lline_table_start1+0xa13>
   11c64:	4709                	li	a4,2
   11c66:	07f00793          	li	a5,127
   11c6a:	4681                	li	a3,0
   11c6c:	00000073          	ecall
   11c70:	02a7e863          	bltu	a5,a0,11ca0 <_ZN20complex_full_dynamic3app17h17f00b5b3f789598E+0xc4>
   11c74:	00b9a223          	sw	a1,4(s3)
   11c78:	4505                	li	a0,1
   11c7a:	00a98023          	sb	a0,0(s3)
   11c7e:	1808                	addi	a0,sp,48
   11c80:	00009097          	auipc	ra,0x9
   11c84:	266080e7          	jalr	614(ra) # 1aee6 <_ZN9allow_pin12full_dynamic17unshare_if_shared17h3ae8596986353d28E>
   11c88:	0028                	addi	a0,sp,8
   11c8a:	00009097          	auipc	ra,0x9
   11c8e:	25c080e7          	jalr	604(ra) # 1aee6 <_ZN9allow_pin12full_dynamic17unshare_if_shared17h3ae8596986353d28E>
   11c92:	50ba                	lw	ra,172(sp)
   11c94:	542a                	lw	s0,168(sp)
   11c96:	549a                	lw	s1,164(sp)
   11c98:	590a                	lw	s2,160(sp)
   11c9a:	49fa                	lw	s3,156(sp)
   11c9c:	614d                	addi	sp,sp,176
   11c9e:	8082                	ret
   11ca0:	0028                	addi	a0,sp,8
   11ca2:	00009097          	auipc	ra,0x9
   11ca6:	244080e7          	jalr	580(ra) # 1aee6 <_ZN9allow_pin12full_dynamic17unshare_if_shared17h3ae8596986353d28E>
   11caa:	1808                	addi	a0,sp,48
   11cac:	00009097          	auipc	ra,0x9
   11cb0:	23a080e7          	jalr	570(ra) # 1aee6 <_ZN9allow_pin12full_dynamic17unshare_if_shared17h3ae8596986353d28E>
   11cb4:	1808                	addi	a0,sp,48
   11cb6:	00009097          	auipc	ra,0x9
   11cba:	230080e7          	jalr	560(ra) # 1aee6 <_ZN9allow_pin12full_dynamic17unshare_if_shared17h3ae8596986353d28E>
   11cbe:	00198513          	addi	a0,s3,1
   11cc2:	05d00613          	li	a2,93
   11cc6:	85ca                	mv	a1,s2
   11cc8:	00009097          	auipc	ra,0x9
   11ccc:	2aa080e7          	jalr	682(ra) # 1af72 <memcpy>
   11cd0:	4501                	li	a0,0
   11cd2:	b765                	j	11c7a <_ZN20complex_full_dynamic3app17h17f00b5b3f789598E+0x9e>

00011cd4 <_ZN20complex_full_dynamic3app17h1a6d342e34f8c021E>:
   11cd4:	7119                	addi	sp,sp,-128
   11cd6:	de86                	sw	ra,124(sp)
   11cd8:	dca2                	sw	s0,120(sp)
   11cda:	daa6                	sw	s1,116(sp)
   11cdc:	d8ca                	sw	s2,112(sp)
   11cde:	d6ce                	sw	s3,108(sp)
   11ce0:	892a                	mv	s2,a0
   11ce2:	4409                	li	s0,2
   11ce4:	00810823          	sb	s0,16(sp)
   11ce8:	0844                	addi	s1,sp,20
   11cea:	02b00613          	li	a2,43
   11cee:	8526                	mv	a0,s1
   11cf0:	00009097          	auipc	ra,0x9
   11cf4:	282080e7          	jalr	642(ra) # 1af72 <memcpy>
   11cf8:	8626                	mv	a2,s1
   11cfa:	06011423          	sh	zero,104(sp)
   11cfe:	cc82                	sw	zero,88(sp)
   11d00:	ce82                	sw	zero,92(sp)
   11d02:	d082                	sw	zero,96(sp)
   11d04:	d282                	sw	zero,100(sp)
   11d06:	04810423          	sb	s0,72(sp)
   11d0a:	c682                	sw	zero,76(sp)
   11d0c:	c882                	sw	zero,80(sp)
   11d0e:	ca82                	sw	zero,84(sp)
   11d10:	7e300793          	li	a5,2019
   11d14:	449d                	li	s1,7
   11d16:	4811                	li	a6,4
   11d18:	7e300513          	li	a0,2019
   11d1c:	459d                	li	a1,7
   11d1e:	02b00693          	li	a3,43
   11d22:	4711                	li	a4,4
   11d24:	00000073          	ecall
   11d28:	04850663          	beq	a0,s0,11d74 <_ZN20complex_full_dynamic3app17h1a6d342e34f8c021E+0xa0>
   11d2c:	04c10993          	addi	s3,sp,76
   11d30:	c43e                	sw	a5,8(sp)
   11d32:	c626                	sw	s1,12(sp)
   11d34:	01010823          	sb	a6,16(sp)
   11d38:	47a1                	li	a5,8
   11d3a:	448d                	li	s1,3
   11d3c:	7e300513          	li	a0,2019
   11d40:	45a1                	li	a1,8
   11d42:	46f9                	li	a3,30
   11d44:	470d                	li	a4,3
   11d46:	864e                	mv	a2,s3
   11d48:	00000073          	ecall
   11d4c:	02850463          	beq	a0,s0,11d74 <_ZN20complex_full_dynamic3app17h1a6d342e34f8c021E+0xa0>
   11d50:	7e300693          	li	a3,2019
   11d54:	7e300513          	li	a0,2019
   11d58:	459d                	li	a1,7
   11d5a:	4621                	li	a2,8
   11d5c:	4709                	li	a4,2
   11d5e:	07f00413          	li	s0,127
   11d62:	c0b6                	sw	a3,64(sp)
   11d64:	c2be                	sw	a5,68(sp)
   11d66:	04910423          	sb	s1,72(sp)
   11d6a:	4681                	li	a3,0
   11d6c:	00000073          	ecall
   11d70:	02a46863          	bltu	s0,a0,11da0 <_ZN20complex_full_dynamic3app17h1a6d342e34f8c021E+0xcc>
   11d74:	00b92223          	sw	a1,4(s2)
   11d78:	4505                	li	a0,1
   11d7a:	00a90023          	sb	a0,0(s2)
   11d7e:	0088                	addi	a0,sp,64
   11d80:	00009097          	auipc	ra,0x9
   11d84:	166080e7          	jalr	358(ra) # 1aee6 <_ZN9allow_pin12full_dynamic17unshare_if_shared17h3ae8596986353d28E>
   11d88:	0028                	addi	a0,sp,8
   11d8a:	00009097          	auipc	ra,0x9
   11d8e:	15c080e7          	jalr	348(ra) # 1aee6 <_ZN9allow_pin12full_dynamic17unshare_if_shared17h3ae8596986353d28E>
   11d92:	50f6                	lw	ra,124(sp)
   11d94:	5466                	lw	s0,120(sp)
   11d96:	54d6                	lw	s1,116(sp)
   11d98:	5946                	lw	s2,112(sp)
   11d9a:	59b6                	lw	s3,108(sp)
   11d9c:	6109                	addi	sp,sp,128
   11d9e:	8082                	ret
   11da0:	0028                	addi	a0,sp,8
   11da2:	00009097          	auipc	ra,0x9
   11da6:	144080e7          	jalr	324(ra) # 1aee6 <_ZN9allow_pin12full_dynamic17unshare_if_shared17h3ae8596986353d28E>
   11daa:	0088                	addi	a0,sp,64
   11dac:	00009097          	auipc	ra,0x9
   11db0:	13a080e7          	jalr	314(ra) # 1aee6 <_ZN9allow_pin12full_dynamic17unshare_if_shared17h3ae8596986353d28E>
   11db4:	0088                	addi	a0,sp,64
   11db6:	00009097          	auipc	ra,0x9
   11dba:	130080e7          	jalr	304(ra) # 1aee6 <_ZN9allow_pin12full_dynamic17unshare_if_shared17h3ae8596986353d28E>
   11dbe:	00190513          	addi	a0,s2,1
   11dc2:	4679                	li	a2,30
   11dc4:	85ce                	mv	a1,s3
   11dc6:	00009097          	auipc	ra,0x9
   11dca:	1ac080e7          	jalr	428(ra) # 1af72 <memcpy>
   11dce:	4501                	li	a0,0
   11dd0:	b76d                	j	11d7a <_ZN20complex_full_dynamic3app17h1a6d342e34f8c021E+0xa6>

00011dd2 <_ZN20complex_full_dynamic3app17h1ab5186166b3b793E>:
   11dd2:	7175                	addi	sp,sp,-144
   11dd4:	c706                	sw	ra,140(sp)
   11dd6:	c522                	sw	s0,136(sp)
   11dd8:	c326                	sw	s1,132(sp)
   11dda:	c14a                	sw	s2,128(sp)
   11ddc:	dece                	sw	s3,124(sp)
   11dde:	89aa                	mv	s3,a0
   11de0:	4409                	li	s0,2
   11de2:	00810423          	sb	s0,8(sp)
   11de6:	0064                	addi	s1,sp,12
   11de8:	4645                	li	a2,17
   11dea:	8526                	mv	a0,s1
   11dec:	00009097          	auipc	ra,0x9
   11df0:	186080e7          	jalr	390(ra) # 1af72 <memcpy>
   11df4:	02c10913          	addi	s2,sp,44
   11df8:	05000613          	li	a2,80
   11dfc:	854a                	mv	a0,s2
   11dfe:	4581                	li	a1,0
   11e00:	00009097          	auipc	ra,0x9
   11e04:	106080e7          	jalr	262(ra) # 1af06 <memset>
   11e08:	8626                	mv	a2,s1
   11e0a:	02810423          	sb	s0,40(sp)
   11e0e:	6509                	lui	a0,0x2
   11e10:	4499                	li	s1,6
   11e12:	4811                	li	a6,4
   11e14:	4599                	li	a1,6
   11e16:	aa950793          	addi	a5,a0,-1367 # 1aa9 <.Lline_table_start1+0x187e>
   11e1a:	46c5                	li	a3,17
   11e1c:	4711                	li	a4,4
   11e1e:	853e                	mv	a0,a5
   11e20:	00000073          	ecall
   11e24:	04850363          	beq	a0,s0,11e6a <_ZN20complex_full_dynamic3app17h1ab5186166b3b793E+0x98>
   11e28:	853e                	mv	a0,a5
   11e2a:	864a                	mv	a2,s2
   11e2c:	c03e                	sw	a5,0(sp)
   11e2e:	c226                	sw	s1,4(sp)
   11e30:	01010423          	sb	a6,8(sp)
   11e34:	4495                	li	s1,5
   11e36:	480d                	li	a6,3
   11e38:	4595                	li	a1,5
   11e3a:	05000693          	li	a3,80
   11e3e:	470d                	li	a4,3
   11e40:	00000073          	ecall
   11e44:	02850363          	beq	a0,s0,11e6a <_ZN20complex_full_dynamic3app17h1ab5186166b3b793E+0x98>
   11e48:	d03e                	sw	a5,32(sp)
   11e4a:	d226                	sw	s1,36(sp)
   11e4c:	03010423          	sb	a6,40(sp)
   11e50:	6509                	lui	a0,0x2
   11e52:	4599                	li	a1,6
   11e54:	4615                	li	a2,5
   11e56:	aa950513          	addi	a0,a0,-1367 # 1aa9 <.Lline_table_start1+0x187e>
   11e5a:	4709                	li	a4,2
   11e5c:	07f00793          	li	a5,127
   11e60:	4681                	li	a3,0
   11e62:	00000073          	ecall
   11e66:	02a7e863          	bltu	a5,a0,11e96 <_ZN20complex_full_dynamic3app17h1ab5186166b3b793E+0xc4>
   11e6a:	00b9a223          	sw	a1,4(s3)
   11e6e:	4505                	li	a0,1
   11e70:	00a98023          	sb	a0,0(s3)
   11e74:	1008                	addi	a0,sp,32
   11e76:	00009097          	auipc	ra,0x9
   11e7a:	070080e7          	jalr	112(ra) # 1aee6 <_ZN9allow_pin12full_dynamic17unshare_if_shared17h3ae8596986353d28E>
   11e7e:	850a                	mv	a0,sp
   11e80:	00009097          	auipc	ra,0x9
   11e84:	066080e7          	jalr	102(ra) # 1aee6 <_ZN9allow_pin12full_dynamic17unshare_if_shared17h3ae8596986353d28E>
   11e88:	40ba                	lw	ra,140(sp)
   11e8a:	442a                	lw	s0,136(sp)
   11e8c:	449a                	lw	s1,132(sp)
   11e8e:	490a                	lw	s2,128(sp)
   11e90:	59f6                	lw	s3,124(sp)
   11e92:	6149                	addi	sp,sp,144
   11e94:	8082                	ret
   11e96:	850a                	mv	a0,sp
   11e98:	00009097          	auipc	ra,0x9
   11e9c:	04e080e7          	jalr	78(ra) # 1aee6 <_ZN9allow_pin12full_dynamic17unshare_if_shared17h3ae8596986353d28E>
   11ea0:	1008                	addi	a0,sp,32
   11ea2:	00009097          	auipc	ra,0x9
   11ea6:	044080e7          	jalr	68(ra) # 1aee6 <_ZN9allow_pin12full_dynamic17unshare_if_shared17h3ae8596986353d28E>
   11eaa:	1008                	addi	a0,sp,32
   11eac:	00009097          	auipc	ra,0x9
   11eb0:	03a080e7          	jalr	58(ra) # 1aee6 <_ZN9allow_pin12full_dynamic17unshare_if_shared17h3ae8596986353d28E>
   11eb4:	00198513          	addi	a0,s3,1
   11eb8:	05000613          	li	a2,80
   11ebc:	85ca                	mv	a1,s2
   11ebe:	00009097          	auipc	ra,0x9
   11ec2:	0b4080e7          	jalr	180(ra) # 1af72 <memcpy>
   11ec6:	4501                	li	a0,0
   11ec8:	b765                	j	11e70 <_ZN20complex_full_dynamic3app17h1ab5186166b3b793E+0x9e>

00011eca <_ZN20complex_full_dynamic3app17h1e20a8cd901ed96aE>:
   11eca:	7171                	addi	sp,sp,-176
   11ecc:	d706                	sw	ra,172(sp)
   11ece:	d522                	sw	s0,168(sp)
   11ed0:	d326                	sw	s1,164(sp)
   11ed2:	d14a                	sw	s2,160(sp)
   11ed4:	cf4e                	sw	s3,156(sp)
   11ed6:	89aa                	mv	s3,a0
   11ed8:	4409                	li	s0,2
   11eda:	00810a23          	sb	s0,20(sp)
   11ede:	0824                	addi	s1,sp,24
   11ee0:	02700613          	li	a2,39
   11ee4:	8526                	mv	a0,s1
   11ee6:	00009097          	auipc	ra,0x9
   11eea:	08c080e7          	jalr	140(ra) # 1af72 <memcpy>
   11eee:	04c10913          	addi	s2,sp,76
   11ef2:	04f00613          	li	a2,79
   11ef6:	854a                	mv	a0,s2
   11ef8:	4581                	li	a1,0
   11efa:	00009097          	auipc	ra,0x9
   11efe:	00c080e7          	jalr	12(ra) # 1af06 <memset>
   11f02:	8626                	mv	a2,s1
   11f04:	04810423          	sb	s0,72(sp)
   11f08:	6505                	lui	a0,0x1
   11f0a:	44a5                	li	s1,9
   11f0c:	4811                	li	a6,4
   11f0e:	45a5                	li	a1,9
   11f10:	b4c50793          	addi	a5,a0,-1204 # b4c <.Lline_table_start1+0x921>
   11f14:	02700693          	li	a3,39
   11f18:	4711                	li	a4,4
   11f1a:	853e                	mv	a0,a5
   11f1c:	00000073          	ecall
   11f20:	04850263          	beq	a0,s0,11f64 <_ZN20complex_full_dynamic3app17h1e20a8cd901ed96aE+0x9a>
   11f24:	853e                	mv	a0,a5
   11f26:	4581                	li	a1,0
   11f28:	864a                	mv	a2,s2
   11f2a:	c63e                	sw	a5,12(sp)
   11f2c:	c826                	sw	s1,16(sp)
   11f2e:	01010a23          	sb	a6,20(sp)
   11f32:	448d                	li	s1,3
   11f34:	04f00693          	li	a3,79
   11f38:	470d                	li	a4,3
   11f3a:	00000073          	ecall
   11f3e:	02850363          	beq	a0,s0,11f64 <_ZN20complex_full_dynamic3app17h1e20a8cd901ed96aE+0x9a>
   11f42:	c0be                	sw	a5,64(sp)
   11f44:	c282                	sw	zero,68(sp)
   11f46:	04910423          	sb	s1,72(sp)
   11f4a:	6505                	lui	a0,0x1
   11f4c:	45a5                	li	a1,9
   11f4e:	b4c50513          	addi	a0,a0,-1204 # b4c <.Lline_table_start1+0x921>
   11f52:	4709                	li	a4,2
   11f54:	07f00793          	li	a5,127
   11f58:	4601                	li	a2,0
   11f5a:	4681                	li	a3,0
   11f5c:	00000073          	ecall
   11f60:	02a7e863          	bltu	a5,a0,11f90 <_ZN20complex_full_dynamic3app17h1e20a8cd901ed96aE+0xc6>
   11f64:	00b9a223          	sw	a1,4(s3)
   11f68:	4505                	li	a0,1
   11f6a:	00a98023          	sb	a0,0(s3)
   11f6e:	0088                	addi	a0,sp,64
   11f70:	00009097          	auipc	ra,0x9
   11f74:	f76080e7          	jalr	-138(ra) # 1aee6 <_ZN9allow_pin12full_dynamic17unshare_if_shared17h3ae8596986353d28E>
   11f78:	0068                	addi	a0,sp,12
   11f7a:	00009097          	auipc	ra,0x9
   11f7e:	f6c080e7          	jalr	-148(ra) # 1aee6 <_ZN9allow_pin12full_dynamic17unshare_if_shared17h3ae8596986353d28E>
   11f82:	50ba                	lw	ra,172(sp)
   11f84:	542a                	lw	s0,168(sp)
   11f86:	549a                	lw	s1,164(sp)
   11f88:	590a                	lw	s2,160(sp)
   11f8a:	49fa                	lw	s3,156(sp)
   11f8c:	614d                	addi	sp,sp,176
   11f8e:	8082                	ret
   11f90:	0068                	addi	a0,sp,12
   11f92:	00009097          	auipc	ra,0x9
   11f96:	f54080e7          	jalr	-172(ra) # 1aee6 <_ZN9allow_pin12full_dynamic17unshare_if_shared17h3ae8596986353d28E>
   11f9a:	0088                	addi	a0,sp,64
   11f9c:	00009097          	auipc	ra,0x9
   11fa0:	f4a080e7          	jalr	-182(ra) # 1aee6 <_ZN9allow_pin12full_dynamic17unshare_if_shared17h3ae8596986353d28E>
   11fa4:	0088                	addi	a0,sp,64
   11fa6:	00009097          	auipc	ra,0x9
   11faa:	f40080e7          	jalr	-192(ra) # 1aee6 <_ZN9allow_pin12full_dynamic17unshare_if_shared17h3ae8596986353d28E>
   11fae:	00198513          	addi	a0,s3,1
   11fb2:	04f00613          	li	a2,79
   11fb6:	85ca                	mv	a1,s2
   11fb8:	00009097          	auipc	ra,0x9
   11fbc:	fba080e7          	jalr	-70(ra) # 1af72 <memcpy>
   11fc0:	4501                	li	a0,0
   11fc2:	b765                	j	11f6a <_ZN20complex_full_dynamic3app17h1e20a8cd901ed96aE+0xa0>

00011fc4 <_ZN20complex_full_dynamic3app17h20d94bf29d074cddE>:
   11fc4:	7119                	addi	sp,sp,-128
   11fc6:	de86                	sw	ra,124(sp)
   11fc8:	dca2                	sw	s0,120(sp)
   11fca:	daa6                	sw	s1,116(sp)
   11fcc:	d8ca                	sw	s2,112(sp)
   11fce:	d6ce                	sw	s3,108(sp)
   11fd0:	89aa                	mv	s3,a0
   11fd2:	4409                	li	s0,2
   11fd4:	00810623          	sb	s0,12(sp)
   11fd8:	0804                	addi	s1,sp,16
   11fda:	4661                	li	a2,24
   11fdc:	8526                	mv	a0,s1
   11fde:	00009097          	auipc	ra,0x9
   11fe2:	f94080e7          	jalr	-108(ra) # 1af72 <memcpy>
   11fe6:	03410913          	addi	s2,sp,52
   11fea:	03600613          	li	a2,54
   11fee:	854a                	mv	a0,s2
   11ff0:	4581                	li	a1,0
   11ff2:	00009097          	auipc	ra,0x9
   11ff6:	f14080e7          	jalr	-236(ra) # 1af06 <memset>
   11ffa:	8626                	mv	a2,s1
   11ffc:	02810823          	sb	s0,48(sp)
   12000:	0f300793          	li	a5,243
   12004:	44a1                	li	s1,8
   12006:	4811                	li	a6,4
   12008:	0f300513          	li	a0,243
   1200c:	45a1                	li	a1,8
   1200e:	46e1                	li	a3,24
   12010:	4711                	li	a4,4
   12012:	00000073          	ecall
   12016:	04850563          	beq	a0,s0,12060 <_ZN20complex_full_dynamic3app17h20d94bf29d074cddE+0x9c>
   1201a:	864a                	mv	a2,s2
   1201c:	c23e                	sw	a5,4(sp)
   1201e:	c426                	sw	s1,8(sp)
   12020:	01010623          	sb	a6,12(sp)
   12024:	478d                	li	a5,3
   12026:	0f300513          	li	a0,243
   1202a:	4591                	li	a1,4
   1202c:	03600693          	li	a3,54
   12030:	470d                	li	a4,3
   12032:	00000073          	ecall
   12036:	02850563          	beq	a0,s0,12060 <_ZN20complex_full_dynamic3app17h20d94bf29d074cddE+0x9c>
   1203a:	0f300693          	li	a3,243
   1203e:	4491                	li	s1,4
   12040:	0f300513          	li	a0,243
   12044:	45a1                	li	a1,8
   12046:	4611                	li	a2,4
   12048:	4709                	li	a4,2
   1204a:	07f00413          	li	s0,127
   1204e:	d436                	sw	a3,40(sp)
   12050:	d626                	sw	s1,44(sp)
   12052:	02f10823          	sb	a5,48(sp)
   12056:	4681                	li	a3,0
   12058:	00000073          	ecall
   1205c:	02a46863          	bltu	s0,a0,1208c <_ZN20complex_full_dynamic3app17h20d94bf29d074cddE+0xc8>
   12060:	00b9a223          	sw	a1,4(s3)
   12064:	4505                	li	a0,1
   12066:	00a98023          	sb	a0,0(s3)
   1206a:	1028                	addi	a0,sp,40
   1206c:	00009097          	auipc	ra,0x9
   12070:	e7a080e7          	jalr	-390(ra) # 1aee6 <_ZN9allow_pin12full_dynamic17unshare_if_shared17h3ae8596986353d28E>
   12074:	0048                	addi	a0,sp,4
   12076:	00009097          	auipc	ra,0x9
   1207a:	e70080e7          	jalr	-400(ra) # 1aee6 <_ZN9allow_pin12full_dynamic17unshare_if_shared17h3ae8596986353d28E>
   1207e:	50f6                	lw	ra,124(sp)
   12080:	5466                	lw	s0,120(sp)
   12082:	54d6                	lw	s1,116(sp)
   12084:	5946                	lw	s2,112(sp)
   12086:	59b6                	lw	s3,108(sp)
   12088:	6109                	addi	sp,sp,128
   1208a:	8082                	ret
   1208c:	0048                	addi	a0,sp,4
   1208e:	00009097          	auipc	ra,0x9
   12092:	e58080e7          	jalr	-424(ra) # 1aee6 <_ZN9allow_pin12full_dynamic17unshare_if_shared17h3ae8596986353d28E>
   12096:	1028                	addi	a0,sp,40
   12098:	00009097          	auipc	ra,0x9
   1209c:	e4e080e7          	jalr	-434(ra) # 1aee6 <_ZN9allow_pin12full_dynamic17unshare_if_shared17h3ae8596986353d28E>
   120a0:	1028                	addi	a0,sp,40
   120a2:	00009097          	auipc	ra,0x9
   120a6:	e44080e7          	jalr	-444(ra) # 1aee6 <_ZN9allow_pin12full_dynamic17unshare_if_shared17h3ae8596986353d28E>
   120aa:	00198513          	addi	a0,s3,1
   120ae:	03600613          	li	a2,54
   120b2:	85ca                	mv	a1,s2
   120b4:	00009097          	auipc	ra,0x9
   120b8:	ebe080e7          	jalr	-322(ra) # 1af72 <memcpy>
   120bc:	4501                	li	a0,0
   120be:	b765                	j	12066 <_ZN20complex_full_dynamic3app17h20d94bf29d074cddE+0xa2>

000120c0 <_ZN20complex_full_dynamic3app17h21fd502e786be3f0E>:
   120c0:	7175                	addi	sp,sp,-144
   120c2:	c706                	sw	ra,140(sp)
   120c4:	c522                	sw	s0,136(sp)
   120c6:	c326                	sw	s1,132(sp)
   120c8:	c14a                	sw	s2,128(sp)
   120ca:	dece                	sw	s3,124(sp)
   120cc:	89aa                	mv	s3,a0
   120ce:	4409                	li	s0,2
   120d0:	00810a23          	sb	s0,20(sp)
   120d4:	0824                	addi	s1,sp,24
   120d6:	463d                	li	a2,15
   120d8:	8526                	mv	a0,s1
   120da:	00009097          	auipc	ra,0x9
   120de:	e98080e7          	jalr	-360(ra) # 1af72 <memcpy>
   120e2:	03410913          	addi	s2,sp,52
   120e6:	04600613          	li	a2,70
   120ea:	854a                	mv	a0,s2
   120ec:	4581                	li	a1,0
   120ee:	00009097          	auipc	ra,0x9
   120f2:	e18080e7          	jalr	-488(ra) # 1af06 <memset>
   120f6:	8626                	mv	a2,s1
   120f8:	02810823          	sb	s0,48(sp)
   120fc:	6509                	lui	a0,0x2
   120fe:	44a5                	li	s1,9
   12100:	4811                	li	a6,4
   12102:	45a5                	li	a1,9
   12104:	d7e50793          	addi	a5,a0,-642 # 1d7e <.Lline_table_start1+0x1b53>
   12108:	46bd                	li	a3,15
   1210a:	4711                	li	a4,4
   1210c:	853e                	mv	a0,a5
   1210e:	00000073          	ecall
   12112:	04850363          	beq	a0,s0,12158 <_ZN20complex_full_dynamic3app17h21fd502e786be3f0E+0x98>
   12116:	853e                	mv	a0,a5
   12118:	864a                	mv	a2,s2
   1211a:	c63e                	sw	a5,12(sp)
   1211c:	c826                	sw	s1,16(sp)
   1211e:	01010a23          	sb	a6,20(sp)
   12122:	448d                	li	s1,3
   12124:	4589                	li	a1,2
   12126:	04600693          	li	a3,70
   1212a:	470d                	li	a4,3
   1212c:	00000073          	ecall
   12130:	02850463          	beq	a0,s0,12158 <_ZN20complex_full_dynamic3app17h21fd502e786be3f0E+0x98>
   12134:	4509                	li	a0,2
   12136:	6689                	lui	a3,0x2
   12138:	45a5                	li	a1,9
   1213a:	4609                	li	a2,2
   1213c:	d43e                	sw	a5,40(sp)
   1213e:	d62a                	sw	a0,44(sp)
   12140:	02910823          	sb	s1,48(sp)
   12144:	d7e68513          	addi	a0,a3,-642 # 1d7e <.Lline_table_start1+0x1b53>
   12148:	4709                	li	a4,2
   1214a:	07f00793          	li	a5,127
   1214e:	4681                	li	a3,0
   12150:	00000073          	ecall
   12154:	02a7e863          	bltu	a5,a0,12184 <_ZN20complex_full_dynamic3app17h21fd502e786be3f0E+0xc4>
   12158:	00b9a223          	sw	a1,4(s3)
   1215c:	4505                	li	a0,1
   1215e:	00a98023          	sb	a0,0(s3)
   12162:	1028                	addi	a0,sp,40
   12164:	00009097          	auipc	ra,0x9
   12168:	d82080e7          	jalr	-638(ra) # 1aee6 <_ZN9allow_pin12full_dynamic17unshare_if_shared17h3ae8596986353d28E>
   1216c:	0068                	addi	a0,sp,12
   1216e:	00009097          	auipc	ra,0x9
   12172:	d78080e7          	jalr	-648(ra) # 1aee6 <_ZN9allow_pin12full_dynamic17unshare_if_shared17h3ae8596986353d28E>
   12176:	40ba                	lw	ra,140(sp)
   12178:	442a                	lw	s0,136(sp)
   1217a:	449a                	lw	s1,132(sp)
   1217c:	490a                	lw	s2,128(sp)
   1217e:	59f6                	lw	s3,124(sp)
   12180:	6149                	addi	sp,sp,144
   12182:	8082                	ret
   12184:	0068                	addi	a0,sp,12
   12186:	00009097          	auipc	ra,0x9
   1218a:	d60080e7          	jalr	-672(ra) # 1aee6 <_ZN9allow_pin12full_dynamic17unshare_if_shared17h3ae8596986353d28E>
   1218e:	1028                	addi	a0,sp,40
   12190:	00009097          	auipc	ra,0x9
   12194:	d56080e7          	jalr	-682(ra) # 1aee6 <_ZN9allow_pin12full_dynamic17unshare_if_shared17h3ae8596986353d28E>
   12198:	1028                	addi	a0,sp,40
   1219a:	00009097          	auipc	ra,0x9
   1219e:	d4c080e7          	jalr	-692(ra) # 1aee6 <_ZN9allow_pin12full_dynamic17unshare_if_shared17h3ae8596986353d28E>
   121a2:	00198513          	addi	a0,s3,1
   121a6:	04600613          	li	a2,70
   121aa:	85ca                	mv	a1,s2
   121ac:	00009097          	auipc	ra,0x9
   121b0:	dc6080e7          	jalr	-570(ra) # 1af72 <memcpy>
   121b4:	4501                	li	a0,0
   121b6:	b765                	j	1215e <_ZN20complex_full_dynamic3app17h21fd502e786be3f0E+0x9e>

000121b8 <_ZN20complex_full_dynamic3app17h22bba4e91ccad10fE>:
   121b8:	7119                	addi	sp,sp,-128
   121ba:	de86                	sw	ra,124(sp)
   121bc:	dca2                	sw	s0,120(sp)
   121be:	daa6                	sw	s1,116(sp)
   121c0:	d8ca                	sw	s2,112(sp)
   121c2:	d6ce                	sw	s3,108(sp)
   121c4:	892a                	mv	s2,a0
   121c6:	4409                	li	s0,2
   121c8:	00810a23          	sb	s0,20(sp)
   121cc:	0824                	addi	s1,sp,24
   121ce:	02700613          	li	a2,39
   121d2:	8526                	mv	a0,s1
   121d4:	00009097          	auipc	ra,0x9
   121d8:	d9e080e7          	jalr	-610(ra) # 1af72 <memcpy>
   121dc:	8626                	mv	a2,s1
   121de:	06011423          	sh	zero,104(sp)
   121e2:	cc82                	sw	zero,88(sp)
   121e4:	ce82                	sw	zero,92(sp)
   121e6:	d082                	sw	zero,96(sp)
   121e8:	d282                	sw	zero,100(sp)
   121ea:	04810423          	sb	s0,72(sp)
   121ee:	c682                	sw	zero,76(sp)
   121f0:	c882                	sw	zero,80(sp)
   121f2:	ca82                	sw	zero,84(sp)
   121f4:	6505                	lui	a0,0x1
   121f6:	448d                	li	s1,3
   121f8:	4811                	li	a6,4
   121fa:	458d                	li	a1,3
   121fc:	0e250793          	addi	a5,a0,226 # 10e2 <.Lline_table_start1+0xeb7>
   12200:	02700693          	li	a3,39
   12204:	4711                	li	a4,4
   12206:	853e                	mv	a0,a5
   12208:	00000073          	ecall
   1220c:	04850363          	beq	a0,s0,12252 <_ZN20complex_full_dynamic3app17h22bba4e91ccad10fE+0x9a>
   12210:	04c10993          	addi	s3,sp,76
   12214:	c63e                	sw	a5,12(sp)
   12216:	c826                	sw	s1,16(sp)
   12218:	01010a23          	sb	a6,20(sp)
   1221c:	458d                	li	a1,3
   1221e:	46f9                	li	a3,30
   12220:	470d                	li	a4,3
   12222:	853e                	mv	a0,a5
   12224:	864e                	mv	a2,s3
   12226:	00000073          	ecall
   1222a:	02850463          	beq	a0,s0,12252 <_ZN20complex_full_dynamic3app17h22bba4e91ccad10fE+0x9a>
   1222e:	450d                	li	a0,3
   12230:	6685                	lui	a3,0x1
   12232:	458d                	li	a1,3
   12234:	460d                	li	a2,3
   12236:	c0be                	sw	a5,64(sp)
   12238:	c2aa                	sw	a0,68(sp)
   1223a:	04a10423          	sb	a0,72(sp)
   1223e:	0e268513          	addi	a0,a3,226 # 10e2 <.Lline_table_start1+0xeb7>
   12242:	4709                	li	a4,2
   12244:	07f00793          	li	a5,127
   12248:	4681                	li	a3,0
   1224a:	00000073          	ecall
   1224e:	02a7e863          	bltu	a5,a0,1227e <_ZN20complex_full_dynamic3app17h22bba4e91ccad10fE+0xc6>
   12252:	00b92223          	sw	a1,4(s2)
   12256:	4505                	li	a0,1
   12258:	00a90023          	sb	a0,0(s2)
   1225c:	0088                	addi	a0,sp,64
   1225e:	00009097          	auipc	ra,0x9
   12262:	c88080e7          	jalr	-888(ra) # 1aee6 <_ZN9allow_pin12full_dynamic17unshare_if_shared17h3ae8596986353d28E>
   12266:	0068                	addi	a0,sp,12
   12268:	00009097          	auipc	ra,0x9
   1226c:	c7e080e7          	jalr	-898(ra) # 1aee6 <_ZN9allow_pin12full_dynamic17unshare_if_shared17h3ae8596986353d28E>
   12270:	50f6                	lw	ra,124(sp)
   12272:	5466                	lw	s0,120(sp)
   12274:	54d6                	lw	s1,116(sp)
   12276:	5946                	lw	s2,112(sp)
   12278:	59b6                	lw	s3,108(sp)
   1227a:	6109                	addi	sp,sp,128
   1227c:	8082                	ret
   1227e:	0068                	addi	a0,sp,12
   12280:	00009097          	auipc	ra,0x9
   12284:	c66080e7          	jalr	-922(ra) # 1aee6 <_ZN9allow_pin12full_dynamic17unshare_if_shared17h3ae8596986353d28E>
   12288:	0088                	addi	a0,sp,64
   1228a:	00009097          	auipc	ra,0x9
   1228e:	c5c080e7          	jalr	-932(ra) # 1aee6 <_ZN9allow_pin12full_dynamic17unshare_if_shared17h3ae8596986353d28E>
   12292:	0088                	addi	a0,sp,64
   12294:	00009097          	auipc	ra,0x9
   12298:	c52080e7          	jalr	-942(ra) # 1aee6 <_ZN9allow_pin12full_dynamic17unshare_if_shared17h3ae8596986353d28E>
   1229c:	00190513          	addi	a0,s2,1
   122a0:	4679                	li	a2,30
   122a2:	85ce                	mv	a1,s3
   122a4:	00009097          	auipc	ra,0x9
   122a8:	cce080e7          	jalr	-818(ra) # 1af72 <memcpy>
   122ac:	4501                	li	a0,0
   122ae:	b76d                	j	12258 <_ZN20complex_full_dynamic3app17h22bba4e91ccad10fE+0xa0>

000122b0 <_ZN20complex_full_dynamic3app17h246d93ea47089129E>:
   122b0:	7159                	addi	sp,sp,-112
   122b2:	d686                	sw	ra,108(sp)
   122b4:	d4a2                	sw	s0,104(sp)
   122b6:	d2a6                	sw	s1,100(sp)
   122b8:	d0ca                	sw	s2,96(sp)
   122ba:	cece                	sw	s3,92(sp)
   122bc:	892a                	mv	s2,a0
   122be:	4409                	li	s0,2
   122c0:	00810423          	sb	s0,8(sp)
   122c4:	0064                	addi	s1,sp,12
   122c6:	03200613          	li	a2,50
   122ca:	8526                	mv	a0,s1
   122cc:	00009097          	auipc	ra,0x9
   122d0:	ca6080e7          	jalr	-858(ra) # 1af72 <memcpy>
   122d4:	8626                	mv	a2,s1
   122d6:	cc82                	sw	zero,88(sp)
   122d8:	04810423          	sb	s0,72(sp)
   122dc:	c682                	sw	zero,76(sp)
   122de:	c882                	sw	zero,80(sp)
   122e0:	ca82                	sw	zero,84(sp)
   122e2:	6509                	lui	a0,0x2
   122e4:	4491                	li	s1,4
   122e6:	4591                	li	a1,4
   122e8:	9d650793          	addi	a5,a0,-1578 # 19d6 <.Lline_table_start1+0x17ab>
   122ec:	03200693          	li	a3,50
   122f0:	4711                	li	a4,4
   122f2:	853e                	mv	a0,a5
   122f4:	00000073          	ecall
   122f8:	04850463          	beq	a0,s0,12340 <_ZN20complex_full_dynamic3app17h246d93ea47089129E+0x90>
   122fc:	853e                	mv	a0,a5
   122fe:	04c10993          	addi	s3,sp,76
   12302:	c03e                	sw	a5,0(sp)
   12304:	c226                	sw	s1,4(sp)
   12306:	00910423          	sb	s1,8(sp)
   1230a:	44a5                	li	s1,9
   1230c:	480d                	li	a6,3
   1230e:	45a5                	li	a1,9
   12310:	46c1                	li	a3,16
   12312:	470d                	li	a4,3
   12314:	864e                	mv	a2,s3
   12316:	00000073          	ecall
   1231a:	02850363          	beq	a0,s0,12340 <_ZN20complex_full_dynamic3app17h246d93ea47089129E+0x90>
   1231e:	c0be                	sw	a5,64(sp)
   12320:	c2a6                	sw	s1,68(sp)
   12322:	05010423          	sb	a6,72(sp)
   12326:	6509                	lui	a0,0x2
   12328:	4591                	li	a1,4
   1232a:	4625                	li	a2,9
   1232c:	9d650513          	addi	a0,a0,-1578 # 19d6 <.Lline_table_start1+0x17ab>
   12330:	4709                	li	a4,2
   12332:	07f00793          	li	a5,127
   12336:	4681                	li	a3,0
   12338:	00000073          	ecall
   1233c:	02a7e863          	bltu	a5,a0,1236c <_ZN20complex_full_dynamic3app17h246d93ea47089129E+0xbc>
   12340:	00b92223          	sw	a1,4(s2)
   12344:	4505                	li	a0,1
   12346:	00a90023          	sb	a0,0(s2)
   1234a:	0088                	addi	a0,sp,64
   1234c:	00009097          	auipc	ra,0x9
   12350:	b9a080e7          	jalr	-1126(ra) # 1aee6 <_ZN9allow_pin12full_dynamic17unshare_if_shared17h3ae8596986353d28E>
   12354:	850a                	mv	a0,sp
   12356:	00009097          	auipc	ra,0x9
   1235a:	b90080e7          	jalr	-1136(ra) # 1aee6 <_ZN9allow_pin12full_dynamic17unshare_if_shared17h3ae8596986353d28E>
   1235e:	50b6                	lw	ra,108(sp)
   12360:	5426                	lw	s0,104(sp)
   12362:	5496                	lw	s1,100(sp)
   12364:	5906                	lw	s2,96(sp)
   12366:	49f6                	lw	s3,92(sp)
   12368:	6165                	addi	sp,sp,112
   1236a:	8082                	ret
   1236c:	850a                	mv	a0,sp
   1236e:	00009097          	auipc	ra,0x9
   12372:	b78080e7          	jalr	-1160(ra) # 1aee6 <_ZN9allow_pin12full_dynamic17unshare_if_shared17h3ae8596986353d28E>
   12376:	0088                	addi	a0,sp,64
   12378:	00009097          	auipc	ra,0x9
   1237c:	b6e080e7          	jalr	-1170(ra) # 1aee6 <_ZN9allow_pin12full_dynamic17unshare_if_shared17h3ae8596986353d28E>
   12380:	0088                	addi	a0,sp,64
   12382:	00009097          	auipc	ra,0x9
   12386:	b64080e7          	jalr	-1180(ra) # 1aee6 <_ZN9allow_pin12full_dynamic17unshare_if_shared17h3ae8596986353d28E>
   1238a:	00190513          	addi	a0,s2,1
   1238e:	4641                	li	a2,16
   12390:	85ce                	mv	a1,s3
   12392:	00009097          	auipc	ra,0x9
   12396:	be0080e7          	jalr	-1056(ra) # 1af72 <memcpy>
   1239a:	4501                	li	a0,0
   1239c:	b76d                	j	12346 <_ZN20complex_full_dynamic3app17h246d93ea47089129E+0x96>

0001239e <_ZN20complex_full_dynamic3app17h2689e4b8cf270b1eE>:
   1239e:	7175                	addi	sp,sp,-144
   123a0:	c706                	sw	ra,140(sp)
   123a2:	c522                	sw	s0,136(sp)
   123a4:	c326                	sw	s1,132(sp)
   123a6:	c14a                	sw	s2,128(sp)
   123a8:	dece                	sw	s3,124(sp)
   123aa:	892a                	mv	s2,a0
   123ac:	4409                	li	s0,2
   123ae:	00810a23          	sb	s0,20(sp)
   123b2:	0824                	addi	s1,sp,24
   123b4:	04800613          	li	a2,72
   123b8:	8526                	mv	a0,s1
   123ba:	00009097          	auipc	ra,0x9
   123be:	bb8080e7          	jalr	-1096(ra) # 1af72 <memcpy>
   123c2:	8626                	mv	a2,s1
   123c4:	06011c23          	sh	zero,120(sp)
   123c8:	06010d23          	sb	zero,122(sp)
   123cc:	06810423          	sb	s0,104(sp)
   123d0:	d682                	sw	zero,108(sp)
   123d2:	d882                	sw	zero,112(sp)
   123d4:	da82                	sw	zero,116(sp)
   123d6:	6505                	lui	a0,0x1
   123d8:	44a1                	li	s1,8
   123da:	4811                	li	a6,4
   123dc:	45a1                	li	a1,8
   123de:	11d50793          	addi	a5,a0,285 # 111d <.Lline_table_start1+0xef2>
   123e2:	04800693          	li	a3,72
   123e6:	4711                	li	a4,4
   123e8:	853e                	mv	a0,a5
   123ea:	00000073          	ecall
   123ee:	04850463          	beq	a0,s0,12436 <_ZN20complex_full_dynamic3app17h2689e4b8cf270b1eE+0x98>
   123f2:	853e                	mv	a0,a5
   123f4:	06c10993          	addi	s3,sp,108
   123f8:	c63e                	sw	a5,12(sp)
   123fa:	c826                	sw	s1,16(sp)
   123fc:	01010a23          	sb	a6,20(sp)
   12400:	44a5                	li	s1,9
   12402:	480d                	li	a6,3
   12404:	45a5                	li	a1,9
   12406:	46bd                	li	a3,15
   12408:	470d                	li	a4,3
   1240a:	864e                	mv	a2,s3
   1240c:	00000073          	ecall
   12410:	02850363          	beq	a0,s0,12436 <_ZN20complex_full_dynamic3app17h2689e4b8cf270b1eE+0x98>
   12414:	d0be                	sw	a5,96(sp)
   12416:	d2a6                	sw	s1,100(sp)
   12418:	07010423          	sb	a6,104(sp)
   1241c:	6505                	lui	a0,0x1
   1241e:	45a1                	li	a1,8
   12420:	4625                	li	a2,9
   12422:	11d50513          	addi	a0,a0,285 # 111d <.Lline_table_start1+0xef2>
   12426:	4709                	li	a4,2
   12428:	07f00793          	li	a5,127
   1242c:	4681                	li	a3,0
   1242e:	00000073          	ecall
   12432:	02a7e863          	bltu	a5,a0,12462 <_ZN20complex_full_dynamic3app17h2689e4b8cf270b1eE+0xc4>
   12436:	00b92223          	sw	a1,4(s2)
   1243a:	4505                	li	a0,1
   1243c:	00a90023          	sb	a0,0(s2)
   12440:	1088                	addi	a0,sp,96
   12442:	00009097          	auipc	ra,0x9
   12446:	aa4080e7          	jalr	-1372(ra) # 1aee6 <_ZN9allow_pin12full_dynamic17unshare_if_shared17h3ae8596986353d28E>
   1244a:	0068                	addi	a0,sp,12
   1244c:	00009097          	auipc	ra,0x9
   12450:	a9a080e7          	jalr	-1382(ra) # 1aee6 <_ZN9allow_pin12full_dynamic17unshare_if_shared17h3ae8596986353d28E>
   12454:	40ba                	lw	ra,140(sp)
   12456:	442a                	lw	s0,136(sp)
   12458:	449a                	lw	s1,132(sp)
   1245a:	490a                	lw	s2,128(sp)
   1245c:	59f6                	lw	s3,124(sp)
   1245e:	6149                	addi	sp,sp,144
   12460:	8082                	ret
   12462:	0068                	addi	a0,sp,12
   12464:	00009097          	auipc	ra,0x9
   12468:	a82080e7          	jalr	-1406(ra) # 1aee6 <_ZN9allow_pin12full_dynamic17unshare_if_shared17h3ae8596986353d28E>
   1246c:	1088                	addi	a0,sp,96
   1246e:	00009097          	auipc	ra,0x9
   12472:	a78080e7          	jalr	-1416(ra) # 1aee6 <_ZN9allow_pin12full_dynamic17unshare_if_shared17h3ae8596986353d28E>
   12476:	1088                	addi	a0,sp,96
   12478:	00009097          	auipc	ra,0x9
   1247c:	a6e080e7          	jalr	-1426(ra) # 1aee6 <_ZN9allow_pin12full_dynamic17unshare_if_shared17h3ae8596986353d28E>
   12480:	00190513          	addi	a0,s2,1
   12484:	463d                	li	a2,15
   12486:	85ce                	mv	a1,s3
   12488:	00009097          	auipc	ra,0x9
   1248c:	aea080e7          	jalr	-1302(ra) # 1af72 <memcpy>
   12490:	4501                	li	a0,0
   12492:	b76d                	j	1243c <_ZN20complex_full_dynamic3app17h2689e4b8cf270b1eE+0x9e>

00012494 <_ZN20complex_full_dynamic3app17h29bbdbfb7b7086daE>:
   12494:	7135                	addi	sp,sp,-160
   12496:	cf06                	sw	ra,156(sp)
   12498:	cd22                	sw	s0,152(sp)
   1249a:	cb26                	sw	s1,148(sp)
   1249c:	c94a                	sw	s2,144(sp)
   1249e:	c74e                	sw	s3,140(sp)
   124a0:	89aa                	mv	s3,a0
   124a2:	4409                	li	s0,2
   124a4:	00810823          	sb	s0,16(sp)
   124a8:	0844                	addi	s1,sp,20
   124aa:	464d                	li	a2,19
   124ac:	8526                	mv	a0,s1
   124ae:	00009097          	auipc	ra,0x9
   124b2:	ac4080e7          	jalr	-1340(ra) # 1af72 <memcpy>
   124b6:	03410913          	addi	s2,sp,52
   124ba:	05500613          	li	a2,85
   124be:	854a                	mv	a0,s2
   124c0:	4581                	li	a1,0
   124c2:	00009097          	auipc	ra,0x9
   124c6:	a44080e7          	jalr	-1468(ra) # 1af06 <memset>
   124ca:	8626                	mv	a2,s1
   124cc:	02810823          	sb	s0,48(sp)
   124d0:	32e00793          	li	a5,814
   124d4:	44a5                	li	s1,9
   124d6:	4811                	li	a6,4
   124d8:	32e00513          	li	a0,814
   124dc:	45a5                	li	a1,9
   124de:	46cd                	li	a3,19
   124e0:	4711                	li	a4,4
   124e2:	00000073          	ecall
   124e6:	04850563          	beq	a0,s0,12530 <_ZN20complex_full_dynamic3app17h29bbdbfb7b7086daE+0x9c>
   124ea:	864a                	mv	a2,s2
   124ec:	c43e                	sw	a5,8(sp)
   124ee:	c626                	sw	s1,12(sp)
   124f0:	01010823          	sb	a6,16(sp)
   124f4:	479d                	li	a5,7
   124f6:	448d                	li	s1,3
   124f8:	32e00513          	li	a0,814
   124fc:	459d                	li	a1,7
   124fe:	05500693          	li	a3,85
   12502:	470d                	li	a4,3
   12504:	00000073          	ecall
   12508:	02850463          	beq	a0,s0,12530 <_ZN20complex_full_dynamic3app17h29bbdbfb7b7086daE+0x9c>
   1250c:	32e00693          	li	a3,814
   12510:	32e00513          	li	a0,814
   12514:	45a5                	li	a1,9
   12516:	461d                	li	a2,7
   12518:	4709                	li	a4,2
   1251a:	07f00413          	li	s0,127
   1251e:	d436                	sw	a3,40(sp)
   12520:	d63e                	sw	a5,44(sp)
   12522:	02910823          	sb	s1,48(sp)
   12526:	4681                	li	a3,0
   12528:	00000073          	ecall
   1252c:	02a46863          	bltu	s0,a0,1255c <_ZN20complex_full_dynamic3app17h29bbdbfb7b7086daE+0xc8>
   12530:	00b9a223          	sw	a1,4(s3)
   12534:	4505                	li	a0,1
   12536:	00a98023          	sb	a0,0(s3)
   1253a:	1028                	addi	a0,sp,40
   1253c:	00009097          	auipc	ra,0x9
   12540:	9aa080e7          	jalr	-1622(ra) # 1aee6 <_ZN9allow_pin12full_dynamic17unshare_if_shared17h3ae8596986353d28E>
   12544:	0028                	addi	a0,sp,8
   12546:	00009097          	auipc	ra,0x9
   1254a:	9a0080e7          	jalr	-1632(ra) # 1aee6 <_ZN9allow_pin12full_dynamic17unshare_if_shared17h3ae8596986353d28E>
   1254e:	40fa                	lw	ra,156(sp)
   12550:	446a                	lw	s0,152(sp)
   12552:	44da                	lw	s1,148(sp)
   12554:	494a                	lw	s2,144(sp)
   12556:	49ba                	lw	s3,140(sp)
   12558:	610d                	addi	sp,sp,160
   1255a:	8082                	ret
   1255c:	0028                	addi	a0,sp,8
   1255e:	00009097          	auipc	ra,0x9
   12562:	988080e7          	jalr	-1656(ra) # 1aee6 <_ZN9allow_pin12full_dynamic17unshare_if_shared17h3ae8596986353d28E>
   12566:	1028                	addi	a0,sp,40
   12568:	00009097          	auipc	ra,0x9
   1256c:	97e080e7          	jalr	-1666(ra) # 1aee6 <_ZN9allow_pin12full_dynamic17unshare_if_shared17h3ae8596986353d28E>
   12570:	1028                	addi	a0,sp,40
   12572:	00009097          	auipc	ra,0x9
   12576:	974080e7          	jalr	-1676(ra) # 1aee6 <_ZN9allow_pin12full_dynamic17unshare_if_shared17h3ae8596986353d28E>
   1257a:	00198513          	addi	a0,s3,1
   1257e:	05500613          	li	a2,85
   12582:	85ca                	mv	a1,s2
   12584:	00009097          	auipc	ra,0x9
   12588:	9ee080e7          	jalr	-1554(ra) # 1af72 <memcpy>
   1258c:	4501                	li	a0,0
   1258e:	b765                	j	12536 <_ZN20complex_full_dynamic3app17h29bbdbfb7b7086daE+0xa2>

00012590 <_ZN20complex_full_dynamic3app17h2e05ac0be9f80869E>:
   12590:	7155                	addi	sp,sp,-208
   12592:	c786                	sw	ra,204(sp)
   12594:	c5a2                	sw	s0,200(sp)
   12596:	c3a6                	sw	s1,196(sp)
   12598:	c1ca                	sw	s2,192(sp)
   1259a:	df4e                	sw	s3,188(sp)
   1259c:	89aa                	mv	s3,a0
   1259e:	4409                	li	s0,2
   125a0:	00810823          	sb	s0,16(sp)
   125a4:	0844                	addi	s1,sp,20
   125a6:	03a00613          	li	a2,58
   125aa:	8526                	mv	a0,s1
   125ac:	00009097          	auipc	ra,0x9
   125b0:	9c6080e7          	jalr	-1594(ra) # 1af72 <memcpy>
   125b4:	05c10913          	addi	s2,sp,92
   125b8:	05d00613          	li	a2,93
   125bc:	854a                	mv	a0,s2
   125be:	4581                	li	a1,0
   125c0:	00009097          	auipc	ra,0x9
   125c4:	946080e7          	jalr	-1722(ra) # 1af06 <memset>
   125c8:	4581                	li	a1,0
   125ca:	8626                	mv	a2,s1
   125cc:	04810c23          	sb	s0,88(sp)
   125d0:	6505                	lui	a0,0x1
   125d2:	4491                	li	s1,4
   125d4:	4a450793          	addi	a5,a0,1188 # 14a4 <.Lline_table_start1+0x1279>
   125d8:	03a00693          	li	a3,58
   125dc:	4711                	li	a4,4
   125de:	853e                	mv	a0,a5
   125e0:	00000073          	ecall
   125e4:	04850363          	beq	a0,s0,1262a <_ZN20complex_full_dynamic3app17h2e05ac0be9f80869E+0x9a>
   125e8:	853e                	mv	a0,a5
   125ea:	864a                	mv	a2,s2
   125ec:	c43e                	sw	a5,8(sp)
   125ee:	c602                	sw	zero,12(sp)
   125f0:	00910823          	sb	s1,16(sp)
   125f4:	4495                	li	s1,5
   125f6:	480d                	li	a6,3
   125f8:	4595                	li	a1,5
   125fa:	05d00693          	li	a3,93
   125fe:	470d                	li	a4,3
   12600:	00000073          	ecall
   12604:	02850363          	beq	a0,s0,1262a <_ZN20complex_full_dynamic3app17h2e05ac0be9f80869E+0x9a>
   12608:	c8be                	sw	a5,80(sp)
   1260a:	caa6                	sw	s1,84(sp)
   1260c:	05010c23          	sb	a6,88(sp)
   12610:	6505                	lui	a0,0x1
   12612:	4615                	li	a2,5
   12614:	4a450513          	addi	a0,a0,1188 # 14a4 <.Lline_table_start1+0x1279>
   12618:	4709                	li	a4,2
   1261a:	07f00793          	li	a5,127
   1261e:	4581                	li	a1,0
   12620:	4681                	li	a3,0
   12622:	00000073          	ecall
   12626:	02a7e863          	bltu	a5,a0,12656 <_ZN20complex_full_dynamic3app17h2e05ac0be9f80869E+0xc6>
   1262a:	00b9a223          	sw	a1,4(s3)
   1262e:	4505                	li	a0,1
   12630:	00a98023          	sb	a0,0(s3)
   12634:	0888                	addi	a0,sp,80
   12636:	00009097          	auipc	ra,0x9
   1263a:	8b0080e7          	jalr	-1872(ra) # 1aee6 <_ZN9allow_pin12full_dynamic17unshare_if_shared17h3ae8596986353d28E>
   1263e:	0028                	addi	a0,sp,8
   12640:	00009097          	auipc	ra,0x9
   12644:	8a6080e7          	jalr	-1882(ra) # 1aee6 <_ZN9allow_pin12full_dynamic17unshare_if_shared17h3ae8596986353d28E>
   12648:	40be                	lw	ra,204(sp)
   1264a:	442e                	lw	s0,200(sp)
   1264c:	449e                	lw	s1,196(sp)
   1264e:	490e                	lw	s2,192(sp)
   12650:	59fa                	lw	s3,188(sp)
   12652:	6169                	addi	sp,sp,208
   12654:	8082                	ret
   12656:	0028                	addi	a0,sp,8
   12658:	00009097          	auipc	ra,0x9
   1265c:	88e080e7          	jalr	-1906(ra) # 1aee6 <_ZN9allow_pin12full_dynamic17unshare_if_shared17h3ae8596986353d28E>
   12660:	0888                	addi	a0,sp,80
   12662:	00009097          	auipc	ra,0x9
   12666:	884080e7          	jalr	-1916(ra) # 1aee6 <_ZN9allow_pin12full_dynamic17unshare_if_shared17h3ae8596986353d28E>
   1266a:	0888                	addi	a0,sp,80
   1266c:	00009097          	auipc	ra,0x9
   12670:	87a080e7          	jalr	-1926(ra) # 1aee6 <_ZN9allow_pin12full_dynamic17unshare_if_shared17h3ae8596986353d28E>
   12674:	00198513          	addi	a0,s3,1
   12678:	05d00613          	li	a2,93
   1267c:	85ca                	mv	a1,s2
   1267e:	00009097          	auipc	ra,0x9
   12682:	8f4080e7          	jalr	-1804(ra) # 1af72 <memcpy>
   12686:	4501                	li	a0,0
   12688:	b765                	j	12630 <_ZN20complex_full_dynamic3app17h2e05ac0be9f80869E+0xa0>

0001268a <_ZN20complex_full_dynamic3app17h3191e5166e932e0cE>:
   1268a:	7135                	addi	sp,sp,-160
   1268c:	cf06                	sw	ra,156(sp)
   1268e:	cd22                	sw	s0,152(sp)
   12690:	cb26                	sw	s1,148(sp)
   12692:	c94a                	sw	s2,144(sp)
   12694:	c74e                	sw	s3,140(sp)
   12696:	892a                	mv	s2,a0
   12698:	4409                	li	s0,2
   1269a:	00810823          	sb	s0,16(sp)
   1269e:	0844                	addi	s1,sp,20
   126a0:	05000613          	li	a2,80
   126a4:	8526                	mv	a0,s1
   126a6:	00009097          	auipc	ra,0x9
   126aa:	8cc080e7          	jalr	-1844(ra) # 1af72 <memcpy>
   126ae:	8626                	mv	a2,s1
   126b0:	08010523          	sb	zero,138(sp)
   126b4:	de82                	sw	zero,124(sp)
   126b6:	c102                	sw	zero,128(sp)
   126b8:	c302                	sw	zero,132(sp)
   126ba:	08011423          	sh	zero,136(sp)
   126be:	06810623          	sb	s0,108(sp)
   126c2:	d882                	sw	zero,112(sp)
   126c4:	da82                	sw	zero,116(sp)
   126c6:	dc82                	sw	zero,120(sp)
   126c8:	3d900793          	li	a5,985
   126cc:	4485                	li	s1,1
   126ce:	4811                	li	a6,4
   126d0:	3d900513          	li	a0,985
   126d4:	4585                	li	a1,1
   126d6:	05000693          	li	a3,80
   126da:	4711                	li	a4,4
   126dc:	00000073          	ecall
   126e0:	04850663          	beq	a0,s0,1272c <_ZN20complex_full_dynamic3app17h3191e5166e932e0cE+0xa2>
   126e4:	07010993          	addi	s3,sp,112
   126e8:	c43e                	sw	a5,8(sp)
   126ea:	c626                	sw	s1,12(sp)
   126ec:	01010823          	sb	a6,16(sp)
   126f0:	478d                	li	a5,3
   126f2:	3d900513          	li	a0,985
   126f6:	4589                	li	a1,2
   126f8:	46ed                	li	a3,27
   126fa:	470d                	li	a4,3
   126fc:	864e                	mv	a2,s3
   126fe:	00000073          	ecall
   12702:	02850563          	beq	a0,s0,1272c <_ZN20complex_full_dynamic3app17h3191e5166e932e0cE+0xa2>
   12706:	3d900693          	li	a3,985
   1270a:	4489                	li	s1,2
   1270c:	3d900513          	li	a0,985
   12710:	4585                	li	a1,1
   12712:	4609                	li	a2,2
   12714:	4709                	li	a4,2
   12716:	07f00413          	li	s0,127
   1271a:	d2b6                	sw	a3,100(sp)
   1271c:	d4a6                	sw	s1,104(sp)
   1271e:	06f10623          	sb	a5,108(sp)
   12722:	4681                	li	a3,0
   12724:	00000073          	ecall
   12728:	02a46863          	bltu	s0,a0,12758 <_ZN20complex_full_dynamic3app17h3191e5166e932e0cE+0xce>
   1272c:	00b92223          	sw	a1,4(s2)
   12730:	4505                	li	a0,1
   12732:	00a90023          	sb	a0,0(s2)
   12736:	10c8                	addi	a0,sp,100
   12738:	00008097          	auipc	ra,0x8
   1273c:	7ae080e7          	jalr	1966(ra) # 1aee6 <_ZN9allow_pin12full_dynamic17unshare_if_shared17h3ae8596986353d28E>
   12740:	0028                	addi	a0,sp,8
   12742:	00008097          	auipc	ra,0x8
   12746:	7a4080e7          	jalr	1956(ra) # 1aee6 <_ZN9allow_pin12full_dynamic17unshare_if_shared17h3ae8596986353d28E>
   1274a:	40fa                	lw	ra,156(sp)
   1274c:	446a                	lw	s0,152(sp)
   1274e:	44da                	lw	s1,148(sp)
   12750:	494a                	lw	s2,144(sp)
   12752:	49ba                	lw	s3,140(sp)
   12754:	610d                	addi	sp,sp,160
   12756:	8082                	ret
   12758:	0028                	addi	a0,sp,8
   1275a:	00008097          	auipc	ra,0x8
   1275e:	78c080e7          	jalr	1932(ra) # 1aee6 <_ZN9allow_pin12full_dynamic17unshare_if_shared17h3ae8596986353d28E>
   12762:	10c8                	addi	a0,sp,100
   12764:	00008097          	auipc	ra,0x8
   12768:	782080e7          	jalr	1922(ra) # 1aee6 <_ZN9allow_pin12full_dynamic17unshare_if_shared17h3ae8596986353d28E>
   1276c:	10c8                	addi	a0,sp,100
   1276e:	00008097          	auipc	ra,0x8
   12772:	778080e7          	jalr	1912(ra) # 1aee6 <_ZN9allow_pin12full_dynamic17unshare_if_shared17h3ae8596986353d28E>
   12776:	00190513          	addi	a0,s2,1
   1277a:	466d                	li	a2,27
   1277c:	85ce                	mv	a1,s3
   1277e:	00008097          	auipc	ra,0x8
   12782:	7f4080e7          	jalr	2036(ra) # 1af72 <memcpy>
   12786:	4501                	li	a0,0
   12788:	b76d                	j	12732 <_ZN20complex_full_dynamic3app17h3191e5166e932e0cE+0xa8>

0001278a <_ZN20complex_full_dynamic3app17h38420ad4236e0aa4E>:
   1278a:	7155                	addi	sp,sp,-208
   1278c:	c786                	sw	ra,204(sp)
   1278e:	c5a2                	sw	s0,200(sp)
   12790:	c3a6                	sw	s1,196(sp)
   12792:	c1ca                	sw	s2,192(sp)
   12794:	df4e                	sw	s3,188(sp)
   12796:	89aa                	mv	s3,a0
   12798:	4409                	li	s0,2
   1279a:	00810423          	sb	s0,8(sp)
   1279e:	0064                	addi	s1,sp,12
   127a0:	05100613          	li	a2,81
   127a4:	8526                	mv	a0,s1
   127a6:	00008097          	auipc	ra,0x8
   127aa:	7cc080e7          	jalr	1996(ra) # 1af72 <memcpy>
   127ae:	06c10913          	addi	s2,sp,108
   127b2:	04f00613          	li	a2,79
   127b6:	854a                	mv	a0,s2
   127b8:	4581                	li	a1,0
   127ba:	00008097          	auipc	ra,0x8
   127be:	74c080e7          	jalr	1868(ra) # 1af06 <memset>
   127c2:	8626                	mv	a2,s1
   127c4:	06810423          	sb	s0,104(sp)
   127c8:	6505                	lui	a0,0x1
   127ca:	4491                	li	s1,4
   127cc:	4589                	li	a1,2
   127ce:	e1650793          	addi	a5,a0,-490 # e16 <.Lline_table_start1+0xbeb>
   127d2:	05100693          	li	a3,81
   127d6:	4711                	li	a4,4
   127d8:	853e                	mv	a0,a5
   127da:	00000073          	ecall
   127de:	04850363          	beq	a0,s0,12824 <_ZN20complex_full_dynamic3app17h38420ad4236e0aa4E+0x9a>
   127e2:	853e                	mv	a0,a5
   127e4:	864a                	mv	a2,s2
   127e6:	c03e                	sw	a5,0(sp)
   127e8:	c222                	sw	s0,4(sp)
   127ea:	00910423          	sb	s1,8(sp)
   127ee:	448d                	li	s1,3
   127f0:	4591                	li	a1,4
   127f2:	04f00693          	li	a3,79
   127f6:	470d                	li	a4,3
   127f8:	00000073          	ecall
   127fc:	02850463          	beq	a0,s0,12824 <_ZN20complex_full_dynamic3app17h38420ad4236e0aa4E+0x9a>
   12800:	4511                	li	a0,4
   12802:	6685                	lui	a3,0x1
   12804:	4589                	li	a1,2
   12806:	4611                	li	a2,4
   12808:	d0be                	sw	a5,96(sp)
   1280a:	d2aa                	sw	a0,100(sp)
   1280c:	06910423          	sb	s1,104(sp)
   12810:	e1668513          	addi	a0,a3,-490 # e16 <.Lline_table_start1+0xbeb>
   12814:	4709                	li	a4,2
   12816:	07f00793          	li	a5,127
   1281a:	4681                	li	a3,0
   1281c:	00000073          	ecall
   12820:	02a7e863          	bltu	a5,a0,12850 <_ZN20complex_full_dynamic3app17h38420ad4236e0aa4E+0xc6>
   12824:	00b9a223          	sw	a1,4(s3)
   12828:	4505                	li	a0,1
   1282a:	00a98023          	sb	a0,0(s3)
   1282e:	1088                	addi	a0,sp,96
   12830:	00008097          	auipc	ra,0x8
   12834:	6b6080e7          	jalr	1718(ra) # 1aee6 <_ZN9allow_pin12full_dynamic17unshare_if_shared17h3ae8596986353d28E>
   12838:	850a                	mv	a0,sp
   1283a:	00008097          	auipc	ra,0x8
   1283e:	6ac080e7          	jalr	1708(ra) # 1aee6 <_ZN9allow_pin12full_dynamic17unshare_if_shared17h3ae8596986353d28E>
   12842:	40be                	lw	ra,204(sp)
   12844:	442e                	lw	s0,200(sp)
   12846:	449e                	lw	s1,196(sp)
   12848:	490e                	lw	s2,192(sp)
   1284a:	59fa                	lw	s3,188(sp)
   1284c:	6169                	addi	sp,sp,208
   1284e:	8082                	ret
   12850:	850a                	mv	a0,sp
   12852:	00008097          	auipc	ra,0x8
   12856:	694080e7          	jalr	1684(ra) # 1aee6 <_ZN9allow_pin12full_dynamic17unshare_if_shared17h3ae8596986353d28E>
   1285a:	1088                	addi	a0,sp,96
   1285c:	00008097          	auipc	ra,0x8
   12860:	68a080e7          	jalr	1674(ra) # 1aee6 <_ZN9allow_pin12full_dynamic17unshare_if_shared17h3ae8596986353d28E>
   12864:	1088                	addi	a0,sp,96
   12866:	00008097          	auipc	ra,0x8
   1286a:	680080e7          	jalr	1664(ra) # 1aee6 <_ZN9allow_pin12full_dynamic17unshare_if_shared17h3ae8596986353d28E>
   1286e:	00198513          	addi	a0,s3,1
   12872:	04f00613          	li	a2,79
   12876:	85ca                	mv	a1,s2
   12878:	00008097          	auipc	ra,0x8
   1287c:	6fa080e7          	jalr	1786(ra) # 1af72 <memcpy>
   12880:	4501                	li	a0,0
   12882:	b765                	j	1282a <_ZN20complex_full_dynamic3app17h38420ad4236e0aa4E+0xa0>

00012884 <_ZN20complex_full_dynamic3app17h3a207196075d5365E>:
   12884:	7135                	addi	sp,sp,-160
   12886:	cf06                	sw	ra,156(sp)
   12888:	cd22                	sw	s0,152(sp)
   1288a:	cb26                	sw	s1,148(sp)
   1288c:	c94a                	sw	s2,144(sp)
   1288e:	c74e                	sw	s3,140(sp)
   12890:	89aa                	mv	s3,a0
   12892:	4409                	li	s0,2
   12894:	00810623          	sb	s0,12(sp)
   12898:	0804                	addi	s1,sp,16
   1289a:	04900613          	li	a2,73
   1289e:	8526                	mv	a0,s1
   128a0:	00008097          	auipc	ra,0x8
   128a4:	6d2080e7          	jalr	1746(ra) # 1af72 <memcpy>
   128a8:	06810913          	addi	s2,sp,104
   128ac:	02300613          	li	a2,35
   128b0:	854a                	mv	a0,s2
   128b2:	4581                	li	a1,0
   128b4:	00008097          	auipc	ra,0x8
   128b8:	652080e7          	jalr	1618(ra) # 1af06 <memset>
   128bc:	8626                	mv	a2,s1
   128be:	06810223          	sb	s0,100(sp)
   128c2:	6505                	lui	a0,0x1
   128c4:	449d                	li	s1,7
   128c6:	4811                	li	a6,4
   128c8:	459d                	li	a1,7
   128ca:	55150793          	addi	a5,a0,1361 # 1551 <.Lline_table_start1+0x1326>
   128ce:	04900693          	li	a3,73
   128d2:	4711                	li	a4,4
   128d4:	853e                	mv	a0,a5
   128d6:	00000073          	ecall
   128da:	04850363          	beq	a0,s0,12920 <_ZN20complex_full_dynamic3app17h3a207196075d5365E+0x9c>
   128de:	853e                	mv	a0,a5
   128e0:	864a                	mv	a2,s2
   128e2:	c23e                	sw	a5,4(sp)
   128e4:	c426                	sw	s1,8(sp)
   128e6:	01010623          	sb	a6,12(sp)
   128ea:	4485                	li	s1,1
   128ec:	480d                	li	a6,3
   128ee:	4585                	li	a1,1
   128f0:	02300693          	li	a3,35
   128f4:	470d                	li	a4,3
   128f6:	00000073          	ecall
   128fa:	02850363          	beq	a0,s0,12920 <_ZN20complex_full_dynamic3app17h3a207196075d5365E+0x9c>
   128fe:	cebe                	sw	a5,92(sp)
   12900:	d0a6                	sw	s1,96(sp)
   12902:	07010223          	sb	a6,100(sp)
   12906:	6505                	lui	a0,0x1
   12908:	459d                	li	a1,7
   1290a:	4605                	li	a2,1
   1290c:	55150513          	addi	a0,a0,1361 # 1551 <.Lline_table_start1+0x1326>
   12910:	4709                	li	a4,2
   12912:	07f00793          	li	a5,127
   12916:	4681                	li	a3,0
   12918:	00000073          	ecall
   1291c:	02a7e863          	bltu	a5,a0,1294c <_ZN20complex_full_dynamic3app17h3a207196075d5365E+0xc8>
   12920:	00b9a223          	sw	a1,4(s3)
   12924:	4505                	li	a0,1
   12926:	00a98023          	sb	a0,0(s3)
   1292a:	08e8                	addi	a0,sp,92
   1292c:	00008097          	auipc	ra,0x8
   12930:	5ba080e7          	jalr	1466(ra) # 1aee6 <_ZN9allow_pin12full_dynamic17unshare_if_shared17h3ae8596986353d28E>
   12934:	0048                	addi	a0,sp,4
   12936:	00008097          	auipc	ra,0x8
   1293a:	5b0080e7          	jalr	1456(ra) # 1aee6 <_ZN9allow_pin12full_dynamic17unshare_if_shared17h3ae8596986353d28E>
   1293e:	40fa                	lw	ra,156(sp)
   12940:	446a                	lw	s0,152(sp)
   12942:	44da                	lw	s1,148(sp)
   12944:	494a                	lw	s2,144(sp)
   12946:	49ba                	lw	s3,140(sp)
   12948:	610d                	addi	sp,sp,160
   1294a:	8082                	ret
   1294c:	0048                	addi	a0,sp,4
   1294e:	00008097          	auipc	ra,0x8
   12952:	598080e7          	jalr	1432(ra) # 1aee6 <_ZN9allow_pin12full_dynamic17unshare_if_shared17h3ae8596986353d28E>
   12956:	08e8                	addi	a0,sp,92
   12958:	00008097          	auipc	ra,0x8
   1295c:	58e080e7          	jalr	1422(ra) # 1aee6 <_ZN9allow_pin12full_dynamic17unshare_if_shared17h3ae8596986353d28E>
   12960:	08e8                	addi	a0,sp,92
   12962:	00008097          	auipc	ra,0x8
   12966:	584080e7          	jalr	1412(ra) # 1aee6 <_ZN9allow_pin12full_dynamic17unshare_if_shared17h3ae8596986353d28E>
   1296a:	00198513          	addi	a0,s3,1
   1296e:	02300613          	li	a2,35
   12972:	85ca                	mv	a1,s2
   12974:	00008097          	auipc	ra,0x8
   12978:	5fe080e7          	jalr	1534(ra) # 1af72 <memcpy>
   1297c:	4501                	li	a0,0
   1297e:	b765                	j	12926 <_ZN20complex_full_dynamic3app17h3a207196075d5365E+0xa2>

00012980 <_ZN20complex_full_dynamic3app17h3aa7d5176f8b8ec8E>:
   12980:	7155                	addi	sp,sp,-208
   12982:	c786                	sw	ra,204(sp)
   12984:	c5a2                	sw	s0,200(sp)
   12986:	c3a6                	sw	s1,196(sp)
   12988:	c1ca                	sw	s2,192(sp)
   1298a:	df4e                	sw	s3,188(sp)
   1298c:	89aa                	mv	s3,a0
   1298e:	4409                	li	s0,2
   12990:	00810423          	sb	s0,8(sp)
   12994:	0064                	addi	s1,sp,12
   12996:	05300613          	li	a2,83
   1299a:	8526                	mv	a0,s1
   1299c:	00008097          	auipc	ra,0x8
   129a0:	5d6080e7          	jalr	1494(ra) # 1af72 <memcpy>
   129a4:	06c10913          	addi	s2,sp,108
   129a8:	04d00613          	li	a2,77
   129ac:	854a                	mv	a0,s2
   129ae:	4581                	li	a1,0
   129b0:	00008097          	auipc	ra,0x8
   129b4:	556080e7          	jalr	1366(ra) # 1af06 <memset>
   129b8:	8626                	mv	a2,s1
   129ba:	06810423          	sb	s0,104(sp)
   129be:	6505                	lui	a0,0x1
   129c0:	44a5                	li	s1,9
   129c2:	4811                	li	a6,4
   129c4:	45a5                	li	a1,9
   129c6:	6ba50793          	addi	a5,a0,1722 # 16ba <.Lline_table_start1+0x148f>
   129ca:	05300693          	li	a3,83
   129ce:	4711                	li	a4,4
   129d0:	853e                	mv	a0,a5
   129d2:	00000073          	ecall
   129d6:	04850363          	beq	a0,s0,12a1c <_ZN20complex_full_dynamic3app17h3aa7d5176f8b8ec8E+0x9c>
   129da:	853e                	mv	a0,a5
   129dc:	864a                	mv	a2,s2
   129de:	c03e                	sw	a5,0(sp)
   129e0:	c226                	sw	s1,4(sp)
   129e2:	01010423          	sb	a6,8(sp)
   129e6:	448d                	li	s1,3
   129e8:	4591                	li	a1,4
   129ea:	04d00693          	li	a3,77
   129ee:	470d                	li	a4,3
   129f0:	00000073          	ecall
   129f4:	02850463          	beq	a0,s0,12a1c <_ZN20complex_full_dynamic3app17h3aa7d5176f8b8ec8E+0x9c>
   129f8:	4511                	li	a0,4
   129fa:	6685                	lui	a3,0x1
   129fc:	45a5                	li	a1,9
   129fe:	4611                	li	a2,4
   12a00:	d0be                	sw	a5,96(sp)
   12a02:	d2aa                	sw	a0,100(sp)
   12a04:	06910423          	sb	s1,104(sp)
   12a08:	6ba68513          	addi	a0,a3,1722 # 16ba <.Lline_table_start1+0x148f>
   12a0c:	4709                	li	a4,2
   12a0e:	07f00793          	li	a5,127
   12a12:	4681                	li	a3,0
   12a14:	00000073          	ecall
   12a18:	02a7e863          	bltu	a5,a0,12a48 <_ZN20complex_full_dynamic3app17h3aa7d5176f8b8ec8E+0xc8>
   12a1c:	00b9a223          	sw	a1,4(s3)
   12a20:	4505                	li	a0,1
   12a22:	00a98023          	sb	a0,0(s3)
   12a26:	1088                	addi	a0,sp,96
   12a28:	00008097          	auipc	ra,0x8
   12a2c:	4be080e7          	jalr	1214(ra) # 1aee6 <_ZN9allow_pin12full_dynamic17unshare_if_shared17h3ae8596986353d28E>
   12a30:	850a                	mv	a0,sp
   12a32:	00008097          	auipc	ra,0x8
   12a36:	4b4080e7          	jalr	1204(ra) # 1aee6 <_ZN9allow_pin12full_dynamic17unshare_if_shared17h3ae8596986353d28E>
   12a3a:	40be                	lw	ra,204(sp)
   12a3c:	442e                	lw	s0,200(sp)
   12a3e:	449e                	lw	s1,196(sp)
   12a40:	490e                	lw	s2,192(sp)
   12a42:	59fa                	lw	s3,188(sp)
   12a44:	6169                	addi	sp,sp,208
   12a46:	8082                	ret
   12a48:	850a                	mv	a0,sp
   12a4a:	00008097          	auipc	ra,0x8
   12a4e:	49c080e7          	jalr	1180(ra) # 1aee6 <_ZN9allow_pin12full_dynamic17unshare_if_shared17h3ae8596986353d28E>
   12a52:	1088                	addi	a0,sp,96
   12a54:	00008097          	auipc	ra,0x8
   12a58:	492080e7          	jalr	1170(ra) # 1aee6 <_ZN9allow_pin12full_dynamic17unshare_if_shared17h3ae8596986353d28E>
   12a5c:	1088                	addi	a0,sp,96
   12a5e:	00008097          	auipc	ra,0x8
   12a62:	488080e7          	jalr	1160(ra) # 1aee6 <_ZN9allow_pin12full_dynamic17unshare_if_shared17h3ae8596986353d28E>
   12a66:	00198513          	addi	a0,s3,1
   12a6a:	04d00613          	li	a2,77
   12a6e:	85ca                	mv	a1,s2
   12a70:	00008097          	auipc	ra,0x8
   12a74:	502080e7          	jalr	1282(ra) # 1af72 <memcpy>
   12a78:	4501                	li	a0,0
   12a7a:	b765                	j	12a22 <_ZN20complex_full_dynamic3app17h3aa7d5176f8b8ec8E+0xa2>

00012a7c <_ZN20complex_full_dynamic3app17h41eebe53a81ab9c1E>:
   12a7c:	7155                	addi	sp,sp,-208
   12a7e:	c786                	sw	ra,204(sp)
   12a80:	c5a2                	sw	s0,200(sp)
   12a82:	c3a6                	sw	s1,196(sp)
   12a84:	c1ca                	sw	s2,192(sp)
   12a86:	df4e                	sw	s3,188(sp)
   12a88:	89aa                	mv	s3,a0
   12a8a:	4409                	li	s0,2
   12a8c:	00810423          	sb	s0,8(sp)
   12a90:	0064                	addi	s1,sp,12
   12a92:	05600613          	li	a2,86
   12a96:	8526                	mv	a0,s1
   12a98:	00008097          	auipc	ra,0x8
   12a9c:	4da080e7          	jalr	1242(ra) # 1af72 <memcpy>
   12aa0:	07010913          	addi	s2,sp,112
   12aa4:	04900613          	li	a2,73
   12aa8:	854a                	mv	a0,s2
   12aaa:	4581                	li	a1,0
   12aac:	00008097          	auipc	ra,0x8
   12ab0:	45a080e7          	jalr	1114(ra) # 1af06 <memset>
   12ab4:	8626                	mv	a2,s1
   12ab6:	06810623          	sb	s0,108(sp)
   12aba:	6509                	lui	a0,0x2
   12abc:	4499                	li	s1,6
   12abe:	4811                	li	a6,4
   12ac0:	4599                	li	a1,6
   12ac2:	c6b50793          	addi	a5,a0,-917 # 1c6b <.Lline_table_start1+0x1a40>
   12ac6:	05600693          	li	a3,86
   12aca:	4711                	li	a4,4
   12acc:	853e                	mv	a0,a5
   12ace:	00000073          	ecall
   12ad2:	04850363          	beq	a0,s0,12b18 <_ZN20complex_full_dynamic3app17h41eebe53a81ab9c1E+0x9c>
   12ad6:	853e                	mv	a0,a5
   12ad8:	864a                	mv	a2,s2
   12ada:	c03e                	sw	a5,0(sp)
   12adc:	c226                	sw	s1,4(sp)
   12ade:	01010423          	sb	a6,8(sp)
   12ae2:	448d                	li	s1,3
   12ae4:	4599                	li	a1,6
   12ae6:	04900693          	li	a3,73
   12aea:	470d                	li	a4,3
   12aec:	00000073          	ecall
   12af0:	02850463          	beq	a0,s0,12b18 <_ZN20complex_full_dynamic3app17h41eebe53a81ab9c1E+0x9c>
   12af4:	4519                	li	a0,6
   12af6:	6689                	lui	a3,0x2
   12af8:	4599                	li	a1,6
   12afa:	4619                	li	a2,6
   12afc:	d2be                	sw	a5,100(sp)
   12afe:	d4aa                	sw	a0,104(sp)
   12b00:	06910623          	sb	s1,108(sp)
   12b04:	c6b68513          	addi	a0,a3,-917 # 1c6b <.Lline_table_start1+0x1a40>
   12b08:	4709                	li	a4,2
   12b0a:	07f00793          	li	a5,127
   12b0e:	4681                	li	a3,0
   12b10:	00000073          	ecall
   12b14:	02a7e863          	bltu	a5,a0,12b44 <_ZN20complex_full_dynamic3app17h41eebe53a81ab9c1E+0xc8>
   12b18:	00b9a223          	sw	a1,4(s3)
   12b1c:	4505                	li	a0,1
   12b1e:	00a98023          	sb	a0,0(s3)
   12b22:	10c8                	addi	a0,sp,100
   12b24:	00008097          	auipc	ra,0x8
   12b28:	3c2080e7          	jalr	962(ra) # 1aee6 <_ZN9allow_pin12full_dynamic17unshare_if_shared17h3ae8596986353d28E>
   12b2c:	850a                	mv	a0,sp
   12b2e:	00008097          	auipc	ra,0x8
   12b32:	3b8080e7          	jalr	952(ra) # 1aee6 <_ZN9allow_pin12full_dynamic17unshare_if_shared17h3ae8596986353d28E>
   12b36:	40be                	lw	ra,204(sp)
   12b38:	442e                	lw	s0,200(sp)
   12b3a:	449e                	lw	s1,196(sp)
   12b3c:	490e                	lw	s2,192(sp)
   12b3e:	59fa                	lw	s3,188(sp)
   12b40:	6169                	addi	sp,sp,208
   12b42:	8082                	ret
   12b44:	850a                	mv	a0,sp
   12b46:	00008097          	auipc	ra,0x8
   12b4a:	3a0080e7          	jalr	928(ra) # 1aee6 <_ZN9allow_pin12full_dynamic17unshare_if_shared17h3ae8596986353d28E>
   12b4e:	10c8                	addi	a0,sp,100
   12b50:	00008097          	auipc	ra,0x8
   12b54:	396080e7          	jalr	918(ra) # 1aee6 <_ZN9allow_pin12full_dynamic17unshare_if_shared17h3ae8596986353d28E>
   12b58:	10c8                	addi	a0,sp,100
   12b5a:	00008097          	auipc	ra,0x8
   12b5e:	38c080e7          	jalr	908(ra) # 1aee6 <_ZN9allow_pin12full_dynamic17unshare_if_shared17h3ae8596986353d28E>
   12b62:	00198513          	addi	a0,s3,1
   12b66:	04900613          	li	a2,73
   12b6a:	85ca                	mv	a1,s2
   12b6c:	00008097          	auipc	ra,0x8
   12b70:	406080e7          	jalr	1030(ra) # 1af72 <memcpy>
   12b74:	4501                	li	a0,0
   12b76:	b765                	j	12b1e <_ZN20complex_full_dynamic3app17h41eebe53a81ab9c1E+0xa2>

00012b78 <_ZN20complex_full_dynamic3app17h475a14ff046dcf5cE>:
   12b78:	7119                	addi	sp,sp,-128
   12b7a:	de86                	sw	ra,124(sp)
   12b7c:	dca2                	sw	s0,120(sp)
   12b7e:	daa6                	sw	s1,116(sp)
   12b80:	d8ca                	sw	s2,112(sp)
   12b82:	d6ce                	sw	s3,108(sp)
   12b84:	89aa                	mv	s3,a0
   12b86:	4409                	li	s0,2
   12b88:	00810423          	sb	s0,8(sp)
   12b8c:	0064                	addi	s1,sp,12
   12b8e:	02a00613          	li	a2,42
   12b92:	8526                	mv	a0,s1
   12b94:	00008097          	auipc	ra,0x8
   12b98:	3de080e7          	jalr	990(ra) # 1af72 <memcpy>
   12b9c:	04410913          	addi	s2,sp,68
   12ba0:	02800613          	li	a2,40
   12ba4:	854a                	mv	a0,s2
   12ba6:	4581                	li	a1,0
   12ba8:	00008097          	auipc	ra,0x8
   12bac:	35e080e7          	jalr	862(ra) # 1af06 <memset>
   12bb0:	8626                	mv	a2,s1
   12bb2:	04810023          	sb	s0,64(sp)
   12bb6:	6509                	lui	a0,0x2
   12bb8:	4491                	li	s1,4
   12bba:	4591                	li	a1,4
   12bbc:	efa50793          	addi	a5,a0,-262 # 1efa <.Lline_table_start1+0x1ccf>
   12bc0:	02a00693          	li	a3,42
   12bc4:	4711                	li	a4,4
   12bc6:	853e                	mv	a0,a5
   12bc8:	00000073          	ecall
   12bcc:	04850363          	beq	a0,s0,12c12 <_ZN20complex_full_dynamic3app17h475a14ff046dcf5cE+0x9a>
   12bd0:	853e                	mv	a0,a5
   12bd2:	864a                	mv	a2,s2
   12bd4:	c03e                	sw	a5,0(sp)
   12bd6:	c226                	sw	s1,4(sp)
   12bd8:	00910423          	sb	s1,8(sp)
   12bdc:	44a1                	li	s1,8
   12bde:	480d                	li	a6,3
   12be0:	45a1                	li	a1,8
   12be2:	02800693          	li	a3,40
   12be6:	470d                	li	a4,3
   12be8:	00000073          	ecall
   12bec:	02850363          	beq	a0,s0,12c12 <_ZN20complex_full_dynamic3app17h475a14ff046dcf5cE+0x9a>
   12bf0:	dc3e                	sw	a5,56(sp)
   12bf2:	de26                	sw	s1,60(sp)
   12bf4:	05010023          	sb	a6,64(sp)
   12bf8:	6509                	lui	a0,0x2
   12bfa:	4591                	li	a1,4
   12bfc:	4621                	li	a2,8
   12bfe:	efa50513          	addi	a0,a0,-262 # 1efa <.Lline_table_start1+0x1ccf>
   12c02:	4709                	li	a4,2
   12c04:	07f00793          	li	a5,127
   12c08:	4681                	li	a3,0
   12c0a:	00000073          	ecall
   12c0e:	02a7e863          	bltu	a5,a0,12c3e <_ZN20complex_full_dynamic3app17h475a14ff046dcf5cE+0xc6>
   12c12:	00b9a223          	sw	a1,4(s3)
   12c16:	4505                	li	a0,1
   12c18:	00a98023          	sb	a0,0(s3)
   12c1c:	1828                	addi	a0,sp,56
   12c1e:	00008097          	auipc	ra,0x8
   12c22:	2c8080e7          	jalr	712(ra) # 1aee6 <_ZN9allow_pin12full_dynamic17unshare_if_shared17h3ae8596986353d28E>
   12c26:	850a                	mv	a0,sp
   12c28:	00008097          	auipc	ra,0x8
   12c2c:	2be080e7          	jalr	702(ra) # 1aee6 <_ZN9allow_pin12full_dynamic17unshare_if_shared17h3ae8596986353d28E>
   12c30:	50f6                	lw	ra,124(sp)
   12c32:	5466                	lw	s0,120(sp)
   12c34:	54d6                	lw	s1,116(sp)
   12c36:	5946                	lw	s2,112(sp)
   12c38:	59b6                	lw	s3,108(sp)
   12c3a:	6109                	addi	sp,sp,128
   12c3c:	8082                	ret
   12c3e:	850a                	mv	a0,sp
   12c40:	00008097          	auipc	ra,0x8
   12c44:	2a6080e7          	jalr	678(ra) # 1aee6 <_ZN9allow_pin12full_dynamic17unshare_if_shared17h3ae8596986353d28E>
   12c48:	1828                	addi	a0,sp,56
   12c4a:	00008097          	auipc	ra,0x8
   12c4e:	29c080e7          	jalr	668(ra) # 1aee6 <_ZN9allow_pin12full_dynamic17unshare_if_shared17h3ae8596986353d28E>
   12c52:	1828                	addi	a0,sp,56
   12c54:	00008097          	auipc	ra,0x8
   12c58:	292080e7          	jalr	658(ra) # 1aee6 <_ZN9allow_pin12full_dynamic17unshare_if_shared17h3ae8596986353d28E>
   12c5c:	00198513          	addi	a0,s3,1
   12c60:	02800613          	li	a2,40
   12c64:	85ca                	mv	a1,s2
   12c66:	00008097          	auipc	ra,0x8
   12c6a:	30c080e7          	jalr	780(ra) # 1af72 <memcpy>
   12c6e:	4501                	li	a0,0
   12c70:	b765                	j	12c18 <_ZN20complex_full_dynamic3app17h475a14ff046dcf5cE+0xa0>

00012c72 <_ZN20complex_full_dynamic3app17h490cab217b5aff55E>:
   12c72:	7135                	addi	sp,sp,-160
   12c74:	cf06                	sw	ra,156(sp)
   12c76:	cd22                	sw	s0,152(sp)
   12c78:	cb26                	sw	s1,148(sp)
   12c7a:	c94a                	sw	s2,144(sp)
   12c7c:	c74e                	sw	s3,140(sp)
   12c7e:	89aa                	mv	s3,a0
   12c80:	4409                	li	s0,2
   12c82:	00810423          	sb	s0,8(sp)
   12c86:	0064                	addi	s1,sp,12
   12c88:	04000613          	li	a2,64
   12c8c:	8526                	mv	a0,s1
   12c8e:	00008097          	auipc	ra,0x8
   12c92:	2e4080e7          	jalr	740(ra) # 1af72 <memcpy>
   12c96:	05810913          	addi	s2,sp,88
   12c9a:	03100613          	li	a2,49
   12c9e:	854a                	mv	a0,s2
   12ca0:	4581                	li	a1,0
   12ca2:	00008097          	auipc	ra,0x8
   12ca6:	264080e7          	jalr	612(ra) # 1af06 <memset>
   12caa:	8626                	mv	a2,s1
   12cac:	04810a23          	sb	s0,84(sp)
   12cb0:	6505                	lui	a0,0x1
   12cb2:	44a1                	li	s1,8
   12cb4:	4811                	li	a6,4
   12cb6:	45a1                	li	a1,8
   12cb8:	fce50793          	addi	a5,a0,-50 # fce <.Lline_table_start1+0xda3>
   12cbc:	04000693          	li	a3,64
   12cc0:	4711                	li	a4,4
   12cc2:	853e                	mv	a0,a5
   12cc4:	00000073          	ecall
   12cc8:	04850363          	beq	a0,s0,12d0e <_ZN20complex_full_dynamic3app17h490cab217b5aff55E+0x9c>
   12ccc:	853e                	mv	a0,a5
   12cce:	864a                	mv	a2,s2
   12cd0:	c03e                	sw	a5,0(sp)
   12cd2:	c226                	sw	s1,4(sp)
   12cd4:	01010423          	sb	a6,8(sp)
   12cd8:	4495                	li	s1,5
   12cda:	480d                	li	a6,3
   12cdc:	4595                	li	a1,5
   12cde:	03100693          	li	a3,49
   12ce2:	470d                	li	a4,3
   12ce4:	00000073          	ecall
   12ce8:	02850363          	beq	a0,s0,12d0e <_ZN20complex_full_dynamic3app17h490cab217b5aff55E+0x9c>
   12cec:	c6be                	sw	a5,76(sp)
   12cee:	c8a6                	sw	s1,80(sp)
   12cf0:	05010a23          	sb	a6,84(sp)
   12cf4:	6505                	lui	a0,0x1
   12cf6:	45a1                	li	a1,8
   12cf8:	4615                	li	a2,5
   12cfa:	fce50513          	addi	a0,a0,-50 # fce <.Lline_table_start1+0xda3>
   12cfe:	4709                	li	a4,2
   12d00:	07f00793          	li	a5,127
   12d04:	4681                	li	a3,0
   12d06:	00000073          	ecall
   12d0a:	02a7e863          	bltu	a5,a0,12d3a <_ZN20complex_full_dynamic3app17h490cab217b5aff55E+0xc8>
   12d0e:	00b9a223          	sw	a1,4(s3)
   12d12:	4505                	li	a0,1
   12d14:	00a98023          	sb	a0,0(s3)
   12d18:	00e8                	addi	a0,sp,76
   12d1a:	00008097          	auipc	ra,0x8
   12d1e:	1cc080e7          	jalr	460(ra) # 1aee6 <_ZN9allow_pin12full_dynamic17unshare_if_shared17h3ae8596986353d28E>
   12d22:	850a                	mv	a0,sp
   12d24:	00008097          	auipc	ra,0x8
   12d28:	1c2080e7          	jalr	450(ra) # 1aee6 <_ZN9allow_pin12full_dynamic17unshare_if_shared17h3ae8596986353d28E>
   12d2c:	40fa                	lw	ra,156(sp)
   12d2e:	446a                	lw	s0,152(sp)
   12d30:	44da                	lw	s1,148(sp)
   12d32:	494a                	lw	s2,144(sp)
   12d34:	49ba                	lw	s3,140(sp)
   12d36:	610d                	addi	sp,sp,160
   12d38:	8082                	ret
   12d3a:	850a                	mv	a0,sp
   12d3c:	00008097          	auipc	ra,0x8
   12d40:	1aa080e7          	jalr	426(ra) # 1aee6 <_ZN9allow_pin12full_dynamic17unshare_if_shared17h3ae8596986353d28E>
   12d44:	00e8                	addi	a0,sp,76
   12d46:	00008097          	auipc	ra,0x8
   12d4a:	1a0080e7          	jalr	416(ra) # 1aee6 <_ZN9allow_pin12full_dynamic17unshare_if_shared17h3ae8596986353d28E>
   12d4e:	00e8                	addi	a0,sp,76
   12d50:	00008097          	auipc	ra,0x8
   12d54:	196080e7          	jalr	406(ra) # 1aee6 <_ZN9allow_pin12full_dynamic17unshare_if_shared17h3ae8596986353d28E>
   12d58:	00198513          	addi	a0,s3,1
   12d5c:	03100613          	li	a2,49
   12d60:	85ca                	mv	a1,s2
   12d62:	00008097          	auipc	ra,0x8
   12d66:	210080e7          	jalr	528(ra) # 1af72 <memcpy>
   12d6a:	4501                	li	a0,0
   12d6c:	b765                	j	12d14 <_ZN20complex_full_dynamic3app17h490cab217b5aff55E+0xa2>

00012d6e <_ZN20complex_full_dynamic3app17h4c97096e31d208f7E>:
   12d6e:	7171                	addi	sp,sp,-176
   12d70:	d706                	sw	ra,172(sp)
   12d72:	d522                	sw	s0,168(sp)
   12d74:	d326                	sw	s1,164(sp)
   12d76:	d14a                	sw	s2,160(sp)
   12d78:	cf4e                	sw	s3,156(sp)
   12d7a:	892a                	mv	s2,a0
   12d7c:	4409                	li	s0,2
   12d7e:	00810423          	sb	s0,8(sp)
   12d82:	0064                	addi	s1,sp,12
   12d84:	06100613          	li	a2,97
   12d88:	8526                	mv	a0,s1
   12d8a:	00008097          	auipc	ra,0x8
   12d8e:	1e8080e7          	jalr	488(ra) # 1af72 <memcpy>
   12d92:	8626                	mv	a2,s1
   12d94:	08011c23          	sh	zero,152(sp)
   12d98:	c502                	sw	zero,136(sp)
   12d9a:	c702                	sw	zero,140(sp)
   12d9c:	c902                	sw	zero,144(sp)
   12d9e:	cb02                	sw	zero,148(sp)
   12da0:	06810c23          	sb	s0,120(sp)
   12da4:	de82                	sw	zero,124(sp)
   12da6:	c102                	sw	zero,128(sp)
   12da8:	c302                	sw	zero,132(sp)
   12daa:	18800493          	li	s1,392
   12dae:	4791                	li	a5,4
   12db0:	18800513          	li	a0,392
   12db4:	4591                	li	a1,4
   12db6:	06100693          	li	a3,97
   12dba:	4711                	li	a4,4
   12dbc:	00000073          	ecall
   12dc0:	04850663          	beq	a0,s0,12e0c <_ZN20complex_full_dynamic3app17h4c97096e31d208f7E+0x9e>
   12dc4:	07c10993          	addi	s3,sp,124
   12dc8:	c026                	sw	s1,0(sp)
   12dca:	c23e                	sw	a5,4(sp)
   12dcc:	00f10423          	sb	a5,8(sp)
   12dd0:	4799                	li	a5,6
   12dd2:	448d                	li	s1,3
   12dd4:	18800513          	li	a0,392
   12dd8:	4599                	li	a1,6
   12dda:	46f9                	li	a3,30
   12ddc:	470d                	li	a4,3
   12dde:	864e                	mv	a2,s3
   12de0:	00000073          	ecall
   12de4:	02850463          	beq	a0,s0,12e0c <_ZN20complex_full_dynamic3app17h4c97096e31d208f7E+0x9e>
   12de8:	18800693          	li	a3,392
   12dec:	18800513          	li	a0,392
   12df0:	4591                	li	a1,4
   12df2:	4619                	li	a2,6
   12df4:	4709                	li	a4,2
   12df6:	07f00413          	li	s0,127
   12dfa:	d8b6                	sw	a3,112(sp)
   12dfc:	dabe                	sw	a5,116(sp)
   12dfe:	06910c23          	sb	s1,120(sp)
   12e02:	4681                	li	a3,0
   12e04:	00000073          	ecall
   12e08:	02a46863          	bltu	s0,a0,12e38 <_ZN20complex_full_dynamic3app17h4c97096e31d208f7E+0xca>
   12e0c:	00b92223          	sw	a1,4(s2)
   12e10:	4505                	li	a0,1
   12e12:	00a90023          	sb	a0,0(s2)
   12e16:	1888                	addi	a0,sp,112
   12e18:	00008097          	auipc	ra,0x8
   12e1c:	0ce080e7          	jalr	206(ra) # 1aee6 <_ZN9allow_pin12full_dynamic17unshare_if_shared17h3ae8596986353d28E>
   12e20:	850a                	mv	a0,sp
   12e22:	00008097          	auipc	ra,0x8
   12e26:	0c4080e7          	jalr	196(ra) # 1aee6 <_ZN9allow_pin12full_dynamic17unshare_if_shared17h3ae8596986353d28E>
   12e2a:	50ba                	lw	ra,172(sp)
   12e2c:	542a                	lw	s0,168(sp)
   12e2e:	549a                	lw	s1,164(sp)
   12e30:	590a                	lw	s2,160(sp)
   12e32:	49fa                	lw	s3,156(sp)
   12e34:	614d                	addi	sp,sp,176
   12e36:	8082                	ret
   12e38:	850a                	mv	a0,sp
   12e3a:	00008097          	auipc	ra,0x8
   12e3e:	0ac080e7          	jalr	172(ra) # 1aee6 <_ZN9allow_pin12full_dynamic17unshare_if_shared17h3ae8596986353d28E>
   12e42:	1888                	addi	a0,sp,112
   12e44:	00008097          	auipc	ra,0x8
   12e48:	0a2080e7          	jalr	162(ra) # 1aee6 <_ZN9allow_pin12full_dynamic17unshare_if_shared17h3ae8596986353d28E>
   12e4c:	1888                	addi	a0,sp,112
   12e4e:	00008097          	auipc	ra,0x8
   12e52:	098080e7          	jalr	152(ra) # 1aee6 <_ZN9allow_pin12full_dynamic17unshare_if_shared17h3ae8596986353d28E>
   12e56:	00190513          	addi	a0,s2,1
   12e5a:	4679                	li	a2,30
   12e5c:	85ce                	mv	a1,s3
   12e5e:	00008097          	auipc	ra,0x8
   12e62:	114080e7          	jalr	276(ra) # 1af72 <memcpy>
   12e66:	4501                	li	a0,0
   12e68:	b76d                	j	12e12 <_ZN20complex_full_dynamic3app17h4c97096e31d208f7E+0xa4>

00012e6a <_ZN20complex_full_dynamic3app17h4e9dfa3660b1ed96E>:
   12e6a:	7119                	addi	sp,sp,-128
   12e6c:	de86                	sw	ra,124(sp)
   12e6e:	dca2                	sw	s0,120(sp)
   12e70:	daa6                	sw	s1,116(sp)
   12e72:	d8ca                	sw	s2,112(sp)
   12e74:	d6ce                	sw	s3,108(sp)
   12e76:	89aa                	mv	s3,a0
   12e78:	4409                	li	s0,2
   12e7a:	00810423          	sb	s0,8(sp)
   12e7e:	0064                	addi	s1,sp,12
   12e80:	02500613          	li	a2,37
   12e84:	8526                	mv	a0,s1
   12e86:	00008097          	auipc	ra,0x8
   12e8a:	0ec080e7          	jalr	236(ra) # 1af72 <memcpy>
   12e8e:	04010913          	addi	s2,sp,64
   12e92:	02a00613          	li	a2,42
   12e96:	854a                	mv	a0,s2
   12e98:	4581                	li	a1,0
   12e9a:	00008097          	auipc	ra,0x8
   12e9e:	06c080e7          	jalr	108(ra) # 1af06 <memset>
   12ea2:	4581                	li	a1,0
   12ea4:	8626                	mv	a2,s1
   12ea6:	02810e23          	sb	s0,60(sp)
   12eaa:	6505                	lui	a0,0x1
   12eac:	4491                	li	s1,4
   12eae:	93c50793          	addi	a5,a0,-1732 # 93c <.Lline_table_start1+0x711>
   12eb2:	02500693          	li	a3,37
   12eb6:	4711                	li	a4,4
   12eb8:	853e                	mv	a0,a5
   12eba:	00000073          	ecall
   12ebe:	04850263          	beq	a0,s0,12f02 <_ZN20complex_full_dynamic3app17h4e9dfa3660b1ed96E+0x98>
   12ec2:	853e                	mv	a0,a5
   12ec4:	864a                	mv	a2,s2
   12ec6:	c03e                	sw	a5,0(sp)
   12ec8:	c202                	sw	zero,4(sp)
   12eca:	00910423          	sb	s1,8(sp)
   12ece:	448d                	li	s1,3
   12ed0:	458d                	li	a1,3
   12ed2:	02a00693          	li	a3,42
   12ed6:	470d                	li	a4,3
   12ed8:	00000073          	ecall
   12edc:	02850363          	beq	a0,s0,12f02 <_ZN20complex_full_dynamic3app17h4e9dfa3660b1ed96E+0x98>
   12ee0:	da3e                	sw	a5,52(sp)
   12ee2:	dc26                	sw	s1,56(sp)
   12ee4:	02910e23          	sb	s1,60(sp)
   12ee8:	6505                	lui	a0,0x1
   12eea:	460d                	li	a2,3
   12eec:	93c50513          	addi	a0,a0,-1732 # 93c <.Lline_table_start1+0x711>
   12ef0:	4709                	li	a4,2
   12ef2:	07f00793          	li	a5,127
   12ef6:	4581                	li	a1,0
   12ef8:	4681                	li	a3,0
   12efa:	00000073          	ecall
   12efe:	02a7e863          	bltu	a5,a0,12f2e <_ZN20complex_full_dynamic3app17h4e9dfa3660b1ed96E+0xc4>
   12f02:	00b9a223          	sw	a1,4(s3)
   12f06:	4505                	li	a0,1
   12f08:	00a98023          	sb	a0,0(s3)
   12f0c:	1848                	addi	a0,sp,52
   12f0e:	00008097          	auipc	ra,0x8
   12f12:	fd8080e7          	jalr	-40(ra) # 1aee6 <_ZN9allow_pin12full_dynamic17unshare_if_shared17h3ae8596986353d28E>
   12f16:	850a                	mv	a0,sp
   12f18:	00008097          	auipc	ra,0x8
   12f1c:	fce080e7          	jalr	-50(ra) # 1aee6 <_ZN9allow_pin12full_dynamic17unshare_if_shared17h3ae8596986353d28E>
   12f20:	50f6                	lw	ra,124(sp)
   12f22:	5466                	lw	s0,120(sp)
   12f24:	54d6                	lw	s1,116(sp)
   12f26:	5946                	lw	s2,112(sp)
   12f28:	59b6                	lw	s3,108(sp)
   12f2a:	6109                	addi	sp,sp,128
   12f2c:	8082                	ret
   12f2e:	850a                	mv	a0,sp
   12f30:	00008097          	auipc	ra,0x8
   12f34:	fb6080e7          	jalr	-74(ra) # 1aee6 <_ZN9allow_pin12full_dynamic17unshare_if_shared17h3ae8596986353d28E>
   12f38:	1848                	addi	a0,sp,52
   12f3a:	00008097          	auipc	ra,0x8
   12f3e:	fac080e7          	jalr	-84(ra) # 1aee6 <_ZN9allow_pin12full_dynamic17unshare_if_shared17h3ae8596986353d28E>
   12f42:	1848                	addi	a0,sp,52
   12f44:	00008097          	auipc	ra,0x8
   12f48:	fa2080e7          	jalr	-94(ra) # 1aee6 <_ZN9allow_pin12full_dynamic17unshare_if_shared17h3ae8596986353d28E>
   12f4c:	00198513          	addi	a0,s3,1
   12f50:	02a00613          	li	a2,42
   12f54:	85ca                	mv	a1,s2
   12f56:	00008097          	auipc	ra,0x8
   12f5a:	01c080e7          	jalr	28(ra) # 1af72 <memcpy>
   12f5e:	4501                	li	a0,0
   12f60:	b765                	j	12f08 <_ZN20complex_full_dynamic3app17h4e9dfa3660b1ed96E+0x9e>

00012f62 <_ZN20complex_full_dynamic3app17h50570bc240cc493aE>:
   12f62:	7135                	addi	sp,sp,-160
   12f64:	cf06                	sw	ra,156(sp)
   12f66:	cd22                	sw	s0,152(sp)
   12f68:	cb26                	sw	s1,148(sp)
   12f6a:	c94a                	sw	s2,144(sp)
   12f6c:	c74e                	sw	s3,140(sp)
   12f6e:	89aa                	mv	s3,a0
   12f70:	4409                	li	s0,2
   12f72:	00810a23          	sb	s0,20(sp)
   12f76:	0824                	addi	s1,sp,24
   12f78:	03200613          	li	a2,50
   12f7c:	8526                	mv	a0,s1
   12f7e:	00008097          	auipc	ra,0x8
   12f82:	ff4080e7          	jalr	-12(ra) # 1af72 <memcpy>
   12f86:	05810913          	addi	s2,sp,88
   12f8a:	03200613          	li	a2,50
   12f8e:	854a                	mv	a0,s2
   12f90:	4581                	li	a1,0
   12f92:	00008097          	auipc	ra,0x8
   12f96:	f74080e7          	jalr	-140(ra) # 1af06 <memset>
   12f9a:	8626                	mv	a2,s1
   12f9c:	04810a23          	sb	s0,84(sp)
   12fa0:	6509                	lui	a0,0x2
   12fa2:	448d                	li	s1,3
   12fa4:	4811                	li	a6,4
   12fa6:	458d                	li	a1,3
   12fa8:	f0750793          	addi	a5,a0,-249 # 1f07 <.Lline_table_start1+0x1cdc>
   12fac:	03200693          	li	a3,50
   12fb0:	4711                	li	a4,4
   12fb2:	853e                	mv	a0,a5
   12fb4:	00000073          	ecall
   12fb8:	04850363          	beq	a0,s0,12ffe <_ZN20complex_full_dynamic3app17h50570bc240cc493aE+0x9c>
   12fbc:	853e                	mv	a0,a5
   12fbe:	864a                	mv	a2,s2
   12fc0:	c63e                	sw	a5,12(sp)
   12fc2:	c826                	sw	s1,16(sp)
   12fc4:	01010a23          	sb	a6,20(sp)
   12fc8:	4485                	li	s1,1
   12fca:	4585                	li	a1,1
   12fcc:	03200693          	li	a3,50
   12fd0:	470d                	li	a4,3
   12fd2:	00000073          	ecall
   12fd6:	02850463          	beq	a0,s0,12ffe <_ZN20complex_full_dynamic3app17h50570bc240cc493aE+0x9c>
   12fda:	450d                	li	a0,3
   12fdc:	6689                	lui	a3,0x2
   12fde:	458d                	li	a1,3
   12fe0:	4605                	li	a2,1
   12fe2:	c6be                	sw	a5,76(sp)
   12fe4:	c8a6                	sw	s1,80(sp)
   12fe6:	04a10a23          	sb	a0,84(sp)
   12fea:	f0768513          	addi	a0,a3,-249 # 1f07 <.Lline_table_start1+0x1cdc>
   12fee:	4709                	li	a4,2
   12ff0:	07f00793          	li	a5,127
   12ff4:	4681                	li	a3,0
   12ff6:	00000073          	ecall
   12ffa:	02a7e863          	bltu	a5,a0,1302a <_ZN20complex_full_dynamic3app17h50570bc240cc493aE+0xc8>
   12ffe:	00b9a223          	sw	a1,4(s3)
   13002:	4505                	li	a0,1
   13004:	00a98023          	sb	a0,0(s3)
   13008:	00e8                	addi	a0,sp,76
   1300a:	00008097          	auipc	ra,0x8
   1300e:	edc080e7          	jalr	-292(ra) # 1aee6 <_ZN9allow_pin12full_dynamic17unshare_if_shared17h3ae8596986353d28E>
   13012:	0068                	addi	a0,sp,12
   13014:	00008097          	auipc	ra,0x8
   13018:	ed2080e7          	jalr	-302(ra) # 1aee6 <_ZN9allow_pin12full_dynamic17unshare_if_shared17h3ae8596986353d28E>
   1301c:	40fa                	lw	ra,156(sp)
   1301e:	446a                	lw	s0,152(sp)
   13020:	44da                	lw	s1,148(sp)
   13022:	494a                	lw	s2,144(sp)
   13024:	49ba                	lw	s3,140(sp)
   13026:	610d                	addi	sp,sp,160
   13028:	8082                	ret
   1302a:	0068                	addi	a0,sp,12
   1302c:	00008097          	auipc	ra,0x8
   13030:	eba080e7          	jalr	-326(ra) # 1aee6 <_ZN9allow_pin12full_dynamic17unshare_if_shared17h3ae8596986353d28E>
   13034:	00e8                	addi	a0,sp,76
   13036:	00008097          	auipc	ra,0x8
   1303a:	eb0080e7          	jalr	-336(ra) # 1aee6 <_ZN9allow_pin12full_dynamic17unshare_if_shared17h3ae8596986353d28E>
   1303e:	00e8                	addi	a0,sp,76
   13040:	00008097          	auipc	ra,0x8
   13044:	ea6080e7          	jalr	-346(ra) # 1aee6 <_ZN9allow_pin12full_dynamic17unshare_if_shared17h3ae8596986353d28E>
   13048:	00198513          	addi	a0,s3,1
   1304c:	03200613          	li	a2,50
   13050:	85ca                	mv	a1,s2
   13052:	00008097          	auipc	ra,0x8
   13056:	f20080e7          	jalr	-224(ra) # 1af72 <memcpy>
   1305a:	4501                	li	a0,0
   1305c:	b765                	j	13004 <_ZN20complex_full_dynamic3app17h50570bc240cc493aE+0xa2>

0001305e <_ZN20complex_full_dynamic3app17h54837dbdd4e7ae3bE>:
   1305e:	7155                	addi	sp,sp,-208
   13060:	c786                	sw	ra,204(sp)
   13062:	c5a2                	sw	s0,200(sp)
   13064:	c3a6                	sw	s1,196(sp)
   13066:	c1ca                	sw	s2,192(sp)
   13068:	df4e                	sw	s3,188(sp)
   1306a:	89aa                	mv	s3,a0
   1306c:	4409                	li	s0,2
   1306e:	00810623          	sb	s0,12(sp)
   13072:	0804                	addi	s1,sp,16
   13074:	05d00613          	li	a2,93
   13078:	8526                	mv	a0,s1
   1307a:	00008097          	auipc	ra,0x8
   1307e:	ef8080e7          	jalr	-264(ra) # 1af72 <memcpy>
   13082:	07c10913          	addi	s2,sp,124
   13086:	04000613          	li	a2,64
   1308a:	854a                	mv	a0,s2
   1308c:	4581                	li	a1,0
   1308e:	00008097          	auipc	ra,0x8
   13092:	e78080e7          	jalr	-392(ra) # 1af06 <memset>
   13096:	8626                	mv	a2,s1
   13098:	06810c23          	sb	s0,120(sp)
   1309c:	6505                	lui	a0,0x1
   1309e:	44a1                	li	s1,8
   130a0:	4811                	li	a6,4
   130a2:	45a1                	li	a1,8
   130a4:	02850793          	addi	a5,a0,40 # 1028 <.Lline_table_start1+0xdfd>
   130a8:	05d00693          	li	a3,93
   130ac:	4711                	li	a4,4
   130ae:	853e                	mv	a0,a5
   130b0:	00000073          	ecall
   130b4:	04850363          	beq	a0,s0,130fa <_ZN20complex_full_dynamic3app17h54837dbdd4e7ae3bE+0x9c>
   130b8:	853e                	mv	a0,a5
   130ba:	864a                	mv	a2,s2
   130bc:	c23e                	sw	a5,4(sp)
   130be:	c426                	sw	s1,8(sp)
   130c0:	01010623          	sb	a6,12(sp)
   130c4:	448d                	li	s1,3
   130c6:	4591                	li	a1,4
   130c8:	04000693          	li	a3,64
   130cc:	470d                	li	a4,3
   130ce:	00000073          	ecall
   130d2:	02850463          	beq	a0,s0,130fa <_ZN20complex_full_dynamic3app17h54837dbdd4e7ae3bE+0x9c>
   130d6:	4511                	li	a0,4
   130d8:	6685                	lui	a3,0x1
   130da:	45a1                	li	a1,8
   130dc:	4611                	li	a2,4
   130de:	d8be                	sw	a5,112(sp)
   130e0:	daaa                	sw	a0,116(sp)
   130e2:	06910c23          	sb	s1,120(sp)
   130e6:	02868513          	addi	a0,a3,40 # 1028 <.Lline_table_start1+0xdfd>
   130ea:	4709                	li	a4,2
   130ec:	07f00793          	li	a5,127
   130f0:	4681                	li	a3,0
   130f2:	00000073          	ecall
   130f6:	02a7e863          	bltu	a5,a0,13126 <_ZN20complex_full_dynamic3app17h54837dbdd4e7ae3bE+0xc8>
   130fa:	00b9a223          	sw	a1,4(s3)
   130fe:	4505                	li	a0,1
   13100:	00a98023          	sb	a0,0(s3)
   13104:	1888                	addi	a0,sp,112
   13106:	00008097          	auipc	ra,0x8
   1310a:	de0080e7          	jalr	-544(ra) # 1aee6 <_ZN9allow_pin12full_dynamic17unshare_if_shared17h3ae8596986353d28E>
   1310e:	0048                	addi	a0,sp,4
   13110:	00008097          	auipc	ra,0x8
   13114:	dd6080e7          	jalr	-554(ra) # 1aee6 <_ZN9allow_pin12full_dynamic17unshare_if_shared17h3ae8596986353d28E>
   13118:	40be                	lw	ra,204(sp)
   1311a:	442e                	lw	s0,200(sp)
   1311c:	449e                	lw	s1,196(sp)
   1311e:	490e                	lw	s2,192(sp)
   13120:	59fa                	lw	s3,188(sp)
   13122:	6169                	addi	sp,sp,208
   13124:	8082                	ret
   13126:	0048                	addi	a0,sp,4
   13128:	00008097          	auipc	ra,0x8
   1312c:	dbe080e7          	jalr	-578(ra) # 1aee6 <_ZN9allow_pin12full_dynamic17unshare_if_shared17h3ae8596986353d28E>
   13130:	1888                	addi	a0,sp,112
   13132:	00008097          	auipc	ra,0x8
   13136:	db4080e7          	jalr	-588(ra) # 1aee6 <_ZN9allow_pin12full_dynamic17unshare_if_shared17h3ae8596986353d28E>
   1313a:	1888                	addi	a0,sp,112
   1313c:	00008097          	auipc	ra,0x8
   13140:	daa080e7          	jalr	-598(ra) # 1aee6 <_ZN9allow_pin12full_dynamic17unshare_if_shared17h3ae8596986353d28E>
   13144:	00198513          	addi	a0,s3,1
   13148:	04000613          	li	a2,64
   1314c:	85ca                	mv	a1,s2
   1314e:	00008097          	auipc	ra,0x8
   13152:	e24080e7          	jalr	-476(ra) # 1af72 <memcpy>
   13156:	4501                	li	a0,0
   13158:	b765                	j	13100 <_ZN20complex_full_dynamic3app17h54837dbdd4e7ae3bE+0xa2>

0001315a <_ZN20complex_full_dynamic3app17h5ccdd70e511613a3E>:
   1315a:	7159                	addi	sp,sp,-112
   1315c:	d686                	sw	ra,108(sp)
   1315e:	d4a2                	sw	s0,104(sp)
   13160:	d2a6                	sw	s1,100(sp)
   13162:	d0ca                	sw	s2,96(sp)
   13164:	cece                	sw	s3,92(sp)
   13166:	892a                	mv	s2,a0
   13168:	4409                	li	s0,2
   1316a:	00810823          	sb	s0,16(sp)
   1316e:	0844                	addi	s1,sp,20
   13170:	02700613          	li	a2,39
   13174:	8526                	mv	a0,s1
   13176:	00008097          	auipc	ra,0x8
   1317a:	dfc080e7          	jalr	-516(ra) # 1af72 <memcpy>
   1317e:	8626                	mv	a2,s1
   13180:	ca82                	sw	zero,84(sp)
   13182:	cc82                	sw	zero,88(sp)
   13184:	04810223          	sb	s0,68(sp)
   13188:	c482                	sw	zero,72(sp)
   1318a:	c682                	sw	zero,76(sp)
   1318c:	c882                	sw	zero,80(sp)
   1318e:	6509                	lui	a0,0x2
   13190:	4499                	li	s1,6
   13192:	4811                	li	a6,4
   13194:	4599                	li	a1,6
   13196:	2c950793          	addi	a5,a0,713 # 22c9 <.Lline_table_start1+0x209e>
   1319a:	02700693          	li	a3,39
   1319e:	4711                	li	a4,4
   131a0:	853e                	mv	a0,a5
   131a2:	00000073          	ecall
   131a6:	04850463          	beq	a0,s0,131ee <_ZN20complex_full_dynamic3app17h5ccdd70e511613a3E+0x94>
   131aa:	853e                	mv	a0,a5
   131ac:	04810993          	addi	s3,sp,72
   131b0:	c43e                	sw	a5,8(sp)
   131b2:	c626                	sw	s1,12(sp)
   131b4:	01010823          	sb	a6,16(sp)
   131b8:	4495                	li	s1,5
   131ba:	480d                	li	a6,3
   131bc:	4595                	li	a1,5
   131be:	46d1                	li	a3,20
   131c0:	470d                	li	a4,3
   131c2:	864e                	mv	a2,s3
   131c4:	00000073          	ecall
   131c8:	02850363          	beq	a0,s0,131ee <_ZN20complex_full_dynamic3app17h5ccdd70e511613a3E+0x94>
   131cc:	de3e                	sw	a5,60(sp)
   131ce:	c0a6                	sw	s1,64(sp)
   131d0:	05010223          	sb	a6,68(sp)
   131d4:	6509                	lui	a0,0x2
   131d6:	4599                	li	a1,6
   131d8:	4615                	li	a2,5
   131da:	2c950513          	addi	a0,a0,713 # 22c9 <.Lline_table_start1+0x209e>
   131de:	4709                	li	a4,2
   131e0:	07f00793          	li	a5,127
   131e4:	4681                	li	a3,0
   131e6:	00000073          	ecall
   131ea:	02a7e863          	bltu	a5,a0,1321a <_ZN20complex_full_dynamic3app17h5ccdd70e511613a3E+0xc0>
   131ee:	00b92223          	sw	a1,4(s2)
   131f2:	4505                	li	a0,1
   131f4:	00a90023          	sb	a0,0(s2)
   131f8:	1868                	addi	a0,sp,60
   131fa:	00008097          	auipc	ra,0x8
   131fe:	cec080e7          	jalr	-788(ra) # 1aee6 <_ZN9allow_pin12full_dynamic17unshare_if_shared17h3ae8596986353d28E>
   13202:	0028                	addi	a0,sp,8
   13204:	00008097          	auipc	ra,0x8
   13208:	ce2080e7          	jalr	-798(ra) # 1aee6 <_ZN9allow_pin12full_dynamic17unshare_if_shared17h3ae8596986353d28E>
   1320c:	50b6                	lw	ra,108(sp)
   1320e:	5426                	lw	s0,104(sp)
   13210:	5496                	lw	s1,100(sp)
   13212:	5906                	lw	s2,96(sp)
   13214:	49f6                	lw	s3,92(sp)
   13216:	6165                	addi	sp,sp,112
   13218:	8082                	ret
   1321a:	0028                	addi	a0,sp,8
   1321c:	00008097          	auipc	ra,0x8
   13220:	cca080e7          	jalr	-822(ra) # 1aee6 <_ZN9allow_pin12full_dynamic17unshare_if_shared17h3ae8596986353d28E>
   13224:	1868                	addi	a0,sp,60
   13226:	00008097          	auipc	ra,0x8
   1322a:	cc0080e7          	jalr	-832(ra) # 1aee6 <_ZN9allow_pin12full_dynamic17unshare_if_shared17h3ae8596986353d28E>
   1322e:	1868                	addi	a0,sp,60
   13230:	00008097          	auipc	ra,0x8
   13234:	cb6080e7          	jalr	-842(ra) # 1aee6 <_ZN9allow_pin12full_dynamic17unshare_if_shared17h3ae8596986353d28E>
   13238:	00190513          	addi	a0,s2,1
   1323c:	4651                	li	a2,20
   1323e:	85ce                	mv	a1,s3
   13240:	00008097          	auipc	ra,0x8
   13244:	d32080e7          	jalr	-718(ra) # 1af72 <memcpy>
   13248:	4501                	li	a0,0
   1324a:	b76d                	j	131f4 <_ZN20complex_full_dynamic3app17h5ccdd70e511613a3E+0x9a>

0001324c <_ZN20complex_full_dynamic3app17h5f421c9eff1637f5E>:
   1324c:	7119                	addi	sp,sp,-128
   1324e:	de86                	sw	ra,124(sp)
   13250:	dca2                	sw	s0,120(sp)
   13252:	daa6                	sw	s1,116(sp)
   13254:	d8ca                	sw	s2,112(sp)
   13256:	d6ce                	sw	s3,108(sp)
   13258:	89aa                	mv	s3,a0
   1325a:	4409                	li	s0,2
   1325c:	00810823          	sb	s0,16(sp)
   13260:	0844                	addi	s1,sp,20
   13262:	4679                	li	a2,30
   13264:	8526                	mv	a0,s1
   13266:	00008097          	auipc	ra,0x8
   1326a:	d0c080e7          	jalr	-756(ra) # 1af72 <memcpy>
   1326e:	04010913          	addi	s2,sp,64
   13272:	02c00613          	li	a2,44
   13276:	854a                	mv	a0,s2
   13278:	4581                	li	a1,0
   1327a:	00008097          	auipc	ra,0x8
   1327e:	c8c080e7          	jalr	-884(ra) # 1af06 <memset>
   13282:	8626                	mv	a2,s1
   13284:	02810e23          	sb	s0,60(sp)
   13288:	3fb00793          	li	a5,1019
   1328c:	449d                	li	s1,7
   1328e:	4811                	li	a6,4
   13290:	3fb00513          	li	a0,1019
   13294:	459d                	li	a1,7
   13296:	46f9                	li	a3,30
   13298:	4711                	li	a4,4
   1329a:	00000073          	ecall
   1329e:	04850463          	beq	a0,s0,132e6 <_ZN20complex_full_dynamic3app17h5f421c9eff1637f5E+0x9a>
   132a2:	4581                	li	a1,0
   132a4:	864a                	mv	a2,s2
   132a6:	c43e                	sw	a5,8(sp)
   132a8:	c626                	sw	s1,12(sp)
   132aa:	01010823          	sb	a6,16(sp)
   132ae:	478d                	li	a5,3
   132b0:	3fb00513          	li	a0,1019
   132b4:	02c00693          	li	a3,44
   132b8:	470d                	li	a4,3
   132ba:	00000073          	ecall
   132be:	02850463          	beq	a0,s0,132e6 <_ZN20complex_full_dynamic3app17h5f421c9eff1637f5E+0x9a>
   132c2:	3fb00613          	li	a2,1019
   132c6:	3fb00513          	li	a0,1019
   132ca:	459d                	li	a1,7
   132cc:	4709                	li	a4,2
   132ce:	07f00493          	li	s1,127
   132d2:	da32                	sw	a2,52(sp)
   132d4:	dc02                	sw	zero,56(sp)
   132d6:	02f10e23          	sb	a5,60(sp)
   132da:	4601                	li	a2,0
   132dc:	4681                	li	a3,0
   132de:	00000073          	ecall
   132e2:	02a4e863          	bltu	s1,a0,13312 <_ZN20complex_full_dynamic3app17h5f421c9eff1637f5E+0xc6>
   132e6:	00b9a223          	sw	a1,4(s3)
   132ea:	4505                	li	a0,1
   132ec:	00a98023          	sb	a0,0(s3)
   132f0:	1848                	addi	a0,sp,52
   132f2:	00008097          	auipc	ra,0x8
   132f6:	bf4080e7          	jalr	-1036(ra) # 1aee6 <_ZN9allow_pin12full_dynamic17unshare_if_shared17h3ae8596986353d28E>
   132fa:	0028                	addi	a0,sp,8
   132fc:	00008097          	auipc	ra,0x8
   13300:	bea080e7          	jalr	-1046(ra) # 1aee6 <_ZN9allow_pin12full_dynamic17unshare_if_shared17h3ae8596986353d28E>
   13304:	50f6                	lw	ra,124(sp)
   13306:	5466                	lw	s0,120(sp)
   13308:	54d6                	lw	s1,116(sp)
   1330a:	5946                	lw	s2,112(sp)
   1330c:	59b6                	lw	s3,108(sp)
   1330e:	6109                	addi	sp,sp,128
   13310:	8082                	ret
   13312:	0028                	addi	a0,sp,8
   13314:	00008097          	auipc	ra,0x8
   13318:	bd2080e7          	jalr	-1070(ra) # 1aee6 <_ZN9allow_pin12full_dynamic17unshare_if_shared17h3ae8596986353d28E>
   1331c:	1848                	addi	a0,sp,52
   1331e:	00008097          	auipc	ra,0x8
   13322:	bc8080e7          	jalr	-1080(ra) # 1aee6 <_ZN9allow_pin12full_dynamic17unshare_if_shared17h3ae8596986353d28E>
   13326:	1848                	addi	a0,sp,52
   13328:	00008097          	auipc	ra,0x8
   1332c:	bbe080e7          	jalr	-1090(ra) # 1aee6 <_ZN9allow_pin12full_dynamic17unshare_if_shared17h3ae8596986353d28E>
   13330:	00198513          	addi	a0,s3,1
   13334:	02c00613          	li	a2,44
   13338:	85ca                	mv	a1,s2
   1333a:	00008097          	auipc	ra,0x8
   1333e:	c38080e7          	jalr	-968(ra) # 1af72 <memcpy>
   13342:	4501                	li	a0,0
   13344:	b765                	j	132ec <_ZN20complex_full_dynamic3app17h5f421c9eff1637f5E+0xa0>

00013346 <_ZN20complex_full_dynamic3app17h65a66e846b62284bE>:
   13346:	7171                	addi	sp,sp,-176
   13348:	d706                	sw	ra,172(sp)
   1334a:	d522                	sw	s0,168(sp)
   1334c:	d326                	sw	s1,164(sp)
   1334e:	d14a                	sw	s2,160(sp)
   13350:	cf4e                	sw	s3,156(sp)
   13352:	89aa                	mv	s3,a0
   13354:	4409                	li	s0,2
   13356:	00810a23          	sb	s0,20(sp)
   1335a:	0824                	addi	s1,sp,24
   1335c:	02200613          	li	a2,34
   13360:	8526                	mv	a0,s1
   13362:	00008097          	auipc	ra,0x8
   13366:	c10080e7          	jalr	-1008(ra) # 1af72 <memcpy>
   1336a:	04810913          	addi	s2,sp,72
   1336e:	05100613          	li	a2,81
   13372:	854a                	mv	a0,s2
   13374:	4581                	li	a1,0
   13376:	00008097          	auipc	ra,0x8
   1337a:	b90080e7          	jalr	-1136(ra) # 1af06 <memset>
   1337e:	8626                	mv	a2,s1
   13380:	04810223          	sb	s0,68(sp)
   13384:	55e00793          	li	a5,1374
   13388:	44a5                	li	s1,9
   1338a:	4811                	li	a6,4
   1338c:	55e00513          	li	a0,1374
   13390:	45a5                	li	a1,9
   13392:	02200693          	li	a3,34
   13396:	4711                	li	a4,4
   13398:	00000073          	ecall
   1339c:	04850563          	beq	a0,s0,133e6 <_ZN20complex_full_dynamic3app17h65a66e846b62284bE+0xa0>
   133a0:	864a                	mv	a2,s2
   133a2:	c63e                	sw	a5,12(sp)
   133a4:	c826                	sw	s1,16(sp)
   133a6:	01010a23          	sb	a6,20(sp)
   133aa:	478d                	li	a5,3
   133ac:	55e00513          	li	a0,1374
   133b0:	45a5                	li	a1,9
   133b2:	05100693          	li	a3,81
   133b6:	470d                	li	a4,3
   133b8:	00000073          	ecall
   133bc:	02850563          	beq	a0,s0,133e6 <_ZN20complex_full_dynamic3app17h65a66e846b62284bE+0xa0>
   133c0:	55e00693          	li	a3,1374
   133c4:	44a5                	li	s1,9
   133c6:	55e00513          	li	a0,1374
   133ca:	45a5                	li	a1,9
   133cc:	4625                	li	a2,9
   133ce:	4709                	li	a4,2
   133d0:	07f00413          	li	s0,127
   133d4:	de36                	sw	a3,60(sp)
   133d6:	c0a6                	sw	s1,64(sp)
   133d8:	04f10223          	sb	a5,68(sp)
   133dc:	4681                	li	a3,0
   133de:	00000073          	ecall
   133e2:	02a46863          	bltu	s0,a0,13412 <_ZN20complex_full_dynamic3app17h65a66e846b62284bE+0xcc>
   133e6:	00b9a223          	sw	a1,4(s3)
   133ea:	4505                	li	a0,1
   133ec:	00a98023          	sb	a0,0(s3)
   133f0:	1868                	addi	a0,sp,60
   133f2:	00008097          	auipc	ra,0x8
   133f6:	af4080e7          	jalr	-1292(ra) # 1aee6 <_ZN9allow_pin12full_dynamic17unshare_if_shared17h3ae8596986353d28E>
   133fa:	0068                	addi	a0,sp,12
   133fc:	00008097          	auipc	ra,0x8
   13400:	aea080e7          	jalr	-1302(ra) # 1aee6 <_ZN9allow_pin12full_dynamic17unshare_if_shared17h3ae8596986353d28E>
   13404:	50ba                	lw	ra,172(sp)
   13406:	542a                	lw	s0,168(sp)
   13408:	549a                	lw	s1,164(sp)
   1340a:	590a                	lw	s2,160(sp)
   1340c:	49fa                	lw	s3,156(sp)
   1340e:	614d                	addi	sp,sp,176
   13410:	8082                	ret
   13412:	0068                	addi	a0,sp,12
   13414:	00008097          	auipc	ra,0x8
   13418:	ad2080e7          	jalr	-1326(ra) # 1aee6 <_ZN9allow_pin12full_dynamic17unshare_if_shared17h3ae8596986353d28E>
   1341c:	1868                	addi	a0,sp,60
   1341e:	00008097          	auipc	ra,0x8
   13422:	ac8080e7          	jalr	-1336(ra) # 1aee6 <_ZN9allow_pin12full_dynamic17unshare_if_shared17h3ae8596986353d28E>
   13426:	1868                	addi	a0,sp,60
   13428:	00008097          	auipc	ra,0x8
   1342c:	abe080e7          	jalr	-1346(ra) # 1aee6 <_ZN9allow_pin12full_dynamic17unshare_if_shared17h3ae8596986353d28E>
   13430:	00198513          	addi	a0,s3,1
   13434:	05100613          	li	a2,81
   13438:	85ca                	mv	a1,s2
   1343a:	00008097          	auipc	ra,0x8
   1343e:	b38080e7          	jalr	-1224(ra) # 1af72 <memcpy>
   13442:	4501                	li	a0,0
   13444:	b765                	j	133ec <_ZN20complex_full_dynamic3app17h65a66e846b62284bE+0xa6>

00013446 <_ZN20complex_full_dynamic3app17h65f14d0ff0606077E>:
   13446:	7175                	addi	sp,sp,-144
   13448:	c706                	sw	ra,140(sp)
   1344a:	c522                	sw	s0,136(sp)
   1344c:	c326                	sw	s1,132(sp)
   1344e:	c14a                	sw	s2,128(sp)
   13450:	dece                	sw	s3,124(sp)
   13452:	892a                	mv	s2,a0
   13454:	4409                	li	s0,2
   13456:	00810823          	sb	s0,16(sp)
   1345a:	0844                	addi	s1,sp,20
   1345c:	03f00613          	li	a2,63
   13460:	8526                	mv	a0,s1
   13462:	00008097          	auipc	ra,0x8
   13466:	b10080e7          	jalr	-1264(ra) # 1af72 <memcpy>
   1346a:	8626                	mv	a2,s1
   1346c:	d682                	sw	zero,108(sp)
   1346e:	d882                	sw	zero,112(sp)
   13470:	da82                	sw	zero,116(sp)
   13472:	dc82                	sw	zero,120(sp)
   13474:	04810e23          	sb	s0,92(sp)
   13478:	d082                	sw	zero,96(sp)
   1347a:	d282                	sw	zero,100(sp)
   1347c:	d482                	sw	zero,104(sp)
   1347e:	6505                	lui	a0,0x1
   13480:	4495                	li	s1,5
   13482:	4811                	li	a6,4
   13484:	4595                	li	a1,5
   13486:	69450793          	addi	a5,a0,1684 # 1694 <.Lline_table_start1+0x1469>
   1348a:	03f00693          	li	a3,63
   1348e:	4711                	li	a4,4
   13490:	853e                	mv	a0,a5
   13492:	00000073          	ecall
   13496:	04850463          	beq	a0,s0,134de <_ZN20complex_full_dynamic3app17h65f14d0ff0606077E+0x98>
   1349a:	853e                	mv	a0,a5
   1349c:	06010993          	addi	s3,sp,96
   134a0:	c43e                	sw	a5,8(sp)
   134a2:	c626                	sw	s1,12(sp)
   134a4:	01010823          	sb	a6,16(sp)
   134a8:	44a5                	li	s1,9
   134aa:	480d                	li	a6,3
   134ac:	45a5                	li	a1,9
   134ae:	46f1                	li	a3,28
   134b0:	470d                	li	a4,3
   134b2:	864e                	mv	a2,s3
   134b4:	00000073          	ecall
   134b8:	02850363          	beq	a0,s0,134de <_ZN20complex_full_dynamic3app17h65f14d0ff0606077E+0x98>
   134bc:	cabe                	sw	a5,84(sp)
   134be:	cca6                	sw	s1,88(sp)
   134c0:	05010e23          	sb	a6,92(sp)
   134c4:	6505                	lui	a0,0x1
   134c6:	4595                	li	a1,5
   134c8:	4625                	li	a2,9
   134ca:	69450513          	addi	a0,a0,1684 # 1694 <.Lline_table_start1+0x1469>
   134ce:	4709                	li	a4,2
   134d0:	07f00793          	li	a5,127
   134d4:	4681                	li	a3,0
   134d6:	00000073          	ecall
   134da:	02a7e863          	bltu	a5,a0,1350a <_ZN20complex_full_dynamic3app17h65f14d0ff0606077E+0xc4>
   134de:	00b92223          	sw	a1,4(s2)
   134e2:	4505                	li	a0,1
   134e4:	00a90023          	sb	a0,0(s2)
   134e8:	08c8                	addi	a0,sp,84
   134ea:	00008097          	auipc	ra,0x8
   134ee:	9fc080e7          	jalr	-1540(ra) # 1aee6 <_ZN9allow_pin12full_dynamic17unshare_if_shared17h3ae8596986353d28E>
   134f2:	0028                	addi	a0,sp,8
   134f4:	00008097          	auipc	ra,0x8
   134f8:	9f2080e7          	jalr	-1550(ra) # 1aee6 <_ZN9allow_pin12full_dynamic17unshare_if_shared17h3ae8596986353d28E>
   134fc:	40ba                	lw	ra,140(sp)
   134fe:	442a                	lw	s0,136(sp)
   13500:	449a                	lw	s1,132(sp)
   13502:	490a                	lw	s2,128(sp)
   13504:	59f6                	lw	s3,124(sp)
   13506:	6149                	addi	sp,sp,144
   13508:	8082                	ret
   1350a:	0028                	addi	a0,sp,8
   1350c:	00008097          	auipc	ra,0x8
   13510:	9da080e7          	jalr	-1574(ra) # 1aee6 <_ZN9allow_pin12full_dynamic17unshare_if_shared17h3ae8596986353d28E>
   13514:	08c8                	addi	a0,sp,84
   13516:	00008097          	auipc	ra,0x8
   1351a:	9d0080e7          	jalr	-1584(ra) # 1aee6 <_ZN9allow_pin12full_dynamic17unshare_if_shared17h3ae8596986353d28E>
   1351e:	08c8                	addi	a0,sp,84
   13520:	00008097          	auipc	ra,0x8
   13524:	9c6080e7          	jalr	-1594(ra) # 1aee6 <_ZN9allow_pin12full_dynamic17unshare_if_shared17h3ae8596986353d28E>
   13528:	00190513          	addi	a0,s2,1
   1352c:	4671                	li	a2,28
   1352e:	85ce                	mv	a1,s3
   13530:	00008097          	auipc	ra,0x8
   13534:	a42080e7          	jalr	-1470(ra) # 1af72 <memcpy>
   13538:	4501                	li	a0,0
   1353a:	b76d                	j	134e4 <_ZN20complex_full_dynamic3app17h65f14d0ff0606077E+0x9e>

0001353c <_ZN20complex_full_dynamic3app17h663608b1da8046a4E>:
   1353c:	7159                	addi	sp,sp,-112
   1353e:	d686                	sw	ra,108(sp)
   13540:	d4a2                	sw	s0,104(sp)
   13542:	d2a6                	sw	s1,100(sp)
   13544:	d0ca                	sw	s2,96(sp)
   13546:	cece                	sw	s3,92(sp)
   13548:	892a                	mv	s2,a0
   1354a:	4409                	li	s0,2
   1354c:	00810823          	sb	s0,16(sp)
   13550:	0844                	addi	s1,sp,20
   13552:	02b00613          	li	a2,43
   13556:	8526                	mv	a0,s1
   13558:	00008097          	auipc	ra,0x8
   1355c:	a1a080e7          	jalr	-1510(ra) # 1af72 <memcpy>
   13560:	8626                	mv	a2,s1
   13562:	04010c23          	sb	zero,88(sp)
   13566:	04810423          	sb	s0,72(sp)
   1356a:	c682                	sw	zero,76(sp)
   1356c:	c882                	sw	zero,80(sp)
   1356e:	ca82                	sw	zero,84(sp)
   13570:	6505                	lui	a0,0x1
   13572:	4499                	li	s1,6
   13574:	4811                	li	a6,4
   13576:	4599                	li	a1,6
   13578:	46550793          	addi	a5,a0,1125 # 1465 <.Lline_table_start1+0x123a>
   1357c:	02b00693          	li	a3,43
   13580:	4711                	li	a4,4
   13582:	853e                	mv	a0,a5
   13584:	00000073          	ecall
   13588:	04850363          	beq	a0,s0,135ce <_ZN20complex_full_dynamic3app17h663608b1da8046a4E+0x92>
   1358c:	853e                	mv	a0,a5
   1358e:	4581                	li	a1,0
   13590:	04c10993          	addi	s3,sp,76
   13594:	c43e                	sw	a5,8(sp)
   13596:	c626                	sw	s1,12(sp)
   13598:	01010823          	sb	a6,16(sp)
   1359c:	448d                	li	s1,3
   1359e:	46b5                	li	a3,13
   135a0:	470d                	li	a4,3
   135a2:	864e                	mv	a2,s3
   135a4:	00000073          	ecall
   135a8:	02850363          	beq	a0,s0,135ce <_ZN20complex_full_dynamic3app17h663608b1da8046a4E+0x92>
   135ac:	c0be                	sw	a5,64(sp)
   135ae:	c282                	sw	zero,68(sp)
   135b0:	04910423          	sb	s1,72(sp)
   135b4:	6505                	lui	a0,0x1
   135b6:	4599                	li	a1,6
   135b8:	46550513          	addi	a0,a0,1125 # 1465 <.Lline_table_start1+0x123a>
   135bc:	4709                	li	a4,2
   135be:	07f00793          	li	a5,127
   135c2:	4601                	li	a2,0
   135c4:	4681                	li	a3,0
   135c6:	00000073          	ecall
   135ca:	02a7e863          	bltu	a5,a0,135fa <_ZN20complex_full_dynamic3app17h663608b1da8046a4E+0xbe>
   135ce:	00b92223          	sw	a1,4(s2)
   135d2:	4505                	li	a0,1
   135d4:	00a90023          	sb	a0,0(s2)
   135d8:	0088                	addi	a0,sp,64
   135da:	00008097          	auipc	ra,0x8
   135de:	90c080e7          	jalr	-1780(ra) # 1aee6 <_ZN9allow_pin12full_dynamic17unshare_if_shared17h3ae8596986353d28E>
   135e2:	0028                	addi	a0,sp,8
   135e4:	00008097          	auipc	ra,0x8
   135e8:	902080e7          	jalr	-1790(ra) # 1aee6 <_ZN9allow_pin12full_dynamic17unshare_if_shared17h3ae8596986353d28E>
   135ec:	50b6                	lw	ra,108(sp)
   135ee:	5426                	lw	s0,104(sp)
   135f0:	5496                	lw	s1,100(sp)
   135f2:	5906                	lw	s2,96(sp)
   135f4:	49f6                	lw	s3,92(sp)
   135f6:	6165                	addi	sp,sp,112
   135f8:	8082                	ret
   135fa:	0028                	addi	a0,sp,8
   135fc:	00008097          	auipc	ra,0x8
   13600:	8ea080e7          	jalr	-1814(ra) # 1aee6 <_ZN9allow_pin12full_dynamic17unshare_if_shared17h3ae8596986353d28E>
   13604:	0088                	addi	a0,sp,64
   13606:	00008097          	auipc	ra,0x8
   1360a:	8e0080e7          	jalr	-1824(ra) # 1aee6 <_ZN9allow_pin12full_dynamic17unshare_if_shared17h3ae8596986353d28E>
   1360e:	0088                	addi	a0,sp,64
   13610:	00008097          	auipc	ra,0x8
   13614:	8d6080e7          	jalr	-1834(ra) # 1aee6 <_ZN9allow_pin12full_dynamic17unshare_if_shared17h3ae8596986353d28E>
   13618:	00190513          	addi	a0,s2,1
   1361c:	4635                	li	a2,13
   1361e:	85ce                	mv	a1,s3
   13620:	00008097          	auipc	ra,0x8
   13624:	952080e7          	jalr	-1710(ra) # 1af72 <memcpy>
   13628:	4501                	li	a0,0
   1362a:	b76d                	j	135d4 <_ZN20complex_full_dynamic3app17h663608b1da8046a4E+0x98>

0001362c <_ZN20complex_full_dynamic3app17h6789c25db9832d4eE>:
   1362c:	7131                	addi	sp,sp,-192
   1362e:	df06                	sw	ra,188(sp)
   13630:	dd22                	sw	s0,184(sp)
   13632:	db26                	sw	s1,180(sp)
   13634:	d94a                	sw	s2,176(sp)
   13636:	d74e                	sw	s3,172(sp)
   13638:	89aa                	mv	s3,a0
   1363a:	4409                	li	s0,2
   1363c:	00810823          	sb	s0,16(sp)
   13640:	0844                	addi	s1,sp,20
   13642:	04f00613          	li	a2,79
   13646:	8526                	mv	a0,s1
   13648:	00008097          	auipc	ra,0x8
   1364c:	92a080e7          	jalr	-1750(ra) # 1af72 <memcpy>
   13650:	07010913          	addi	s2,sp,112
   13654:	03b00613          	li	a2,59
   13658:	854a                	mv	a0,s2
   1365a:	4581                	li	a1,0
   1365c:	00008097          	auipc	ra,0x8
   13660:	8aa080e7          	jalr	-1878(ra) # 1af06 <memset>
   13664:	8626                	mv	a2,s1
   13666:	06810623          	sb	s0,108(sp)
   1366a:	6505                	lui	a0,0x1
   1366c:	44a1                	li	s1,8
   1366e:	4811                	li	a6,4
   13670:	45a1                	li	a1,8
   13672:	a0650793          	addi	a5,a0,-1530 # a06 <.Lline_table_start1+0x7db>
   13676:	04f00693          	li	a3,79
   1367a:	4711                	li	a4,4
   1367c:	853e                	mv	a0,a5
   1367e:	00000073          	ecall
   13682:	04850363          	beq	a0,s0,136c8 <_ZN20complex_full_dynamic3app17h6789c25db9832d4eE+0x9c>
   13686:	853e                	mv	a0,a5
   13688:	864a                	mv	a2,s2
   1368a:	c43e                	sw	a5,8(sp)
   1368c:	c626                	sw	s1,12(sp)
   1368e:	01010823          	sb	a6,16(sp)
   13692:	4495                	li	s1,5
   13694:	480d                	li	a6,3
   13696:	4595                	li	a1,5
   13698:	03b00693          	li	a3,59
   1369c:	470d                	li	a4,3
   1369e:	00000073          	ecall
   136a2:	02850363          	beq	a0,s0,136c8 <_ZN20complex_full_dynamic3app17h6789c25db9832d4eE+0x9c>
   136a6:	d2be                	sw	a5,100(sp)
   136a8:	d4a6                	sw	s1,104(sp)
   136aa:	07010623          	sb	a6,108(sp)
   136ae:	6505                	lui	a0,0x1
   136b0:	45a1                	li	a1,8
   136b2:	4615                	li	a2,5
   136b4:	a0650513          	addi	a0,a0,-1530 # a06 <.Lline_table_start1+0x7db>
   136b8:	4709                	li	a4,2
   136ba:	07f00793          	li	a5,127
   136be:	4681                	li	a3,0
   136c0:	00000073          	ecall
   136c4:	02a7e863          	bltu	a5,a0,136f4 <_ZN20complex_full_dynamic3app17h6789c25db9832d4eE+0xc8>
   136c8:	00b9a223          	sw	a1,4(s3)
   136cc:	4505                	li	a0,1
   136ce:	00a98023          	sb	a0,0(s3)
   136d2:	10c8                	addi	a0,sp,100
   136d4:	00008097          	auipc	ra,0x8
   136d8:	812080e7          	jalr	-2030(ra) # 1aee6 <_ZN9allow_pin12full_dynamic17unshare_if_shared17h3ae8596986353d28E>
   136dc:	0028                	addi	a0,sp,8
   136de:	00008097          	auipc	ra,0x8
   136e2:	808080e7          	jalr	-2040(ra) # 1aee6 <_ZN9allow_pin12full_dynamic17unshare_if_shared17h3ae8596986353d28E>
   136e6:	50fa                	lw	ra,188(sp)
   136e8:	546a                	lw	s0,184(sp)
   136ea:	54da                	lw	s1,180(sp)
   136ec:	594a                	lw	s2,176(sp)
   136ee:	59ba                	lw	s3,172(sp)
   136f0:	6129                	addi	sp,sp,192
   136f2:	8082                	ret
   136f4:	0028                	addi	a0,sp,8
   136f6:	00007097          	auipc	ra,0x7
   136fa:	7f0080e7          	jalr	2032(ra) # 1aee6 <_ZN9allow_pin12full_dynamic17unshare_if_shared17h3ae8596986353d28E>
   136fe:	10c8                	addi	a0,sp,100
   13700:	00007097          	auipc	ra,0x7
   13704:	7e6080e7          	jalr	2022(ra) # 1aee6 <_ZN9allow_pin12full_dynamic17unshare_if_shared17h3ae8596986353d28E>
   13708:	10c8                	addi	a0,sp,100
   1370a:	00007097          	auipc	ra,0x7
   1370e:	7dc080e7          	jalr	2012(ra) # 1aee6 <_ZN9allow_pin12full_dynamic17unshare_if_shared17h3ae8596986353d28E>
   13712:	00198513          	addi	a0,s3,1
   13716:	03b00613          	li	a2,59
   1371a:	85ca                	mv	a1,s2
   1371c:	00008097          	auipc	ra,0x8
   13720:	856080e7          	jalr	-1962(ra) # 1af72 <memcpy>
   13724:	4501                	li	a0,0
   13726:	b765                	j	136ce <_ZN20complex_full_dynamic3app17h6789c25db9832d4eE+0xa2>

00013728 <_ZN20complex_full_dynamic3app17h683878e367986755E>:
   13728:	7131                	addi	sp,sp,-192
   1372a:	df06                	sw	ra,188(sp)
   1372c:	dd22                	sw	s0,184(sp)
   1372e:	db26                	sw	s1,180(sp)
   13730:	d94a                	sw	s2,176(sp)
   13732:	d74e                	sw	s3,172(sp)
   13734:	89aa                	mv	s3,a0
   13736:	4409                	li	s0,2
   13738:	00810a23          	sb	s0,20(sp)
   1373c:	0824                	addi	s1,sp,24
   1373e:	04f00613          	li	a2,79
   13742:	8526                	mv	a0,s1
   13744:	00008097          	auipc	ra,0x8
   13748:	82e080e7          	jalr	-2002(ra) # 1af72 <memcpy>
   1374c:	07410913          	addi	s2,sp,116
   13750:	03500613          	li	a2,53
   13754:	854a                	mv	a0,s2
   13756:	4581                	li	a1,0
   13758:	00007097          	auipc	ra,0x7
   1375c:	7ae080e7          	jalr	1966(ra) # 1af06 <memset>
   13760:	8626                	mv	a2,s1
   13762:	06810823          	sb	s0,112(sp)
   13766:	6505                	lui	a0,0x1
   13768:	449d                	li	s1,7
   1376a:	4811                	li	a6,4
   1376c:	459d                	li	a1,7
   1376e:	6d750793          	addi	a5,a0,1751 # 16d7 <.Lline_table_start1+0x14ac>
   13772:	04f00693          	li	a3,79
   13776:	4711                	li	a4,4
   13778:	853e                	mv	a0,a5
   1377a:	00000073          	ecall
   1377e:	04850363          	beq	a0,s0,137c4 <_ZN20complex_full_dynamic3app17h683878e367986755E+0x9c>
   13782:	853e                	mv	a0,a5
   13784:	864a                	mv	a2,s2
   13786:	c63e                	sw	a5,12(sp)
   13788:	c826                	sw	s1,16(sp)
   1378a:	01010a23          	sb	a6,20(sp)
   1378e:	4485                	li	s1,1
   13790:	480d                	li	a6,3
   13792:	4585                	li	a1,1
   13794:	03500693          	li	a3,53
   13798:	470d                	li	a4,3
   1379a:	00000073          	ecall
   1379e:	02850363          	beq	a0,s0,137c4 <_ZN20complex_full_dynamic3app17h683878e367986755E+0x9c>
   137a2:	d4be                	sw	a5,104(sp)
   137a4:	d6a6                	sw	s1,108(sp)
   137a6:	07010823          	sb	a6,112(sp)
   137aa:	6505                	lui	a0,0x1
   137ac:	459d                	li	a1,7
   137ae:	4605                	li	a2,1
   137b0:	6d750513          	addi	a0,a0,1751 # 16d7 <.Lline_table_start1+0x14ac>
   137b4:	4709                	li	a4,2
   137b6:	07f00793          	li	a5,127
   137ba:	4681                	li	a3,0
   137bc:	00000073          	ecall
   137c0:	02a7e863          	bltu	a5,a0,137f0 <_ZN20complex_full_dynamic3app17h683878e367986755E+0xc8>
   137c4:	00b9a223          	sw	a1,4(s3)
   137c8:	4505                	li	a0,1
   137ca:	00a98023          	sb	a0,0(s3)
   137ce:	10a8                	addi	a0,sp,104
   137d0:	00007097          	auipc	ra,0x7
   137d4:	716080e7          	jalr	1814(ra) # 1aee6 <_ZN9allow_pin12full_dynamic17unshare_if_shared17h3ae8596986353d28E>
   137d8:	0068                	addi	a0,sp,12
   137da:	00007097          	auipc	ra,0x7
   137de:	70c080e7          	jalr	1804(ra) # 1aee6 <_ZN9allow_pin12full_dynamic17unshare_if_shared17h3ae8596986353d28E>
   137e2:	50fa                	lw	ra,188(sp)
   137e4:	546a                	lw	s0,184(sp)
   137e6:	54da                	lw	s1,180(sp)
   137e8:	594a                	lw	s2,176(sp)
   137ea:	59ba                	lw	s3,172(sp)
   137ec:	6129                	addi	sp,sp,192
   137ee:	8082                	ret
   137f0:	0068                	addi	a0,sp,12
   137f2:	00007097          	auipc	ra,0x7
   137f6:	6f4080e7          	jalr	1780(ra) # 1aee6 <_ZN9allow_pin12full_dynamic17unshare_if_shared17h3ae8596986353d28E>
   137fa:	10a8                	addi	a0,sp,104
   137fc:	00007097          	auipc	ra,0x7
   13800:	6ea080e7          	jalr	1770(ra) # 1aee6 <_ZN9allow_pin12full_dynamic17unshare_if_shared17h3ae8596986353d28E>
   13804:	10a8                	addi	a0,sp,104
   13806:	00007097          	auipc	ra,0x7
   1380a:	6e0080e7          	jalr	1760(ra) # 1aee6 <_ZN9allow_pin12full_dynamic17unshare_if_shared17h3ae8596986353d28E>
   1380e:	00198513          	addi	a0,s3,1
   13812:	03500613          	li	a2,53
   13816:	85ca                	mv	a1,s2
   13818:	00007097          	auipc	ra,0x7
   1381c:	75a080e7          	jalr	1882(ra) # 1af72 <memcpy>
   13820:	4501                	li	a0,0
   13822:	b765                	j	137ca <_ZN20complex_full_dynamic3app17h683878e367986755E+0xa2>

00013824 <_ZN20complex_full_dynamic3app17h6d45b41a517dc24fE>:
   13824:	7119                	addi	sp,sp,-128
   13826:	de86                	sw	ra,124(sp)
   13828:	dca2                	sw	s0,120(sp)
   1382a:	daa6                	sw	s1,116(sp)
   1382c:	d8ca                	sw	s2,112(sp)
   1382e:	d6ce                	sw	s3,108(sp)
   13830:	892a                	mv	s2,a0
   13832:	4409                	li	s0,2
   13834:	00810423          	sb	s0,8(sp)
   13838:	0064                	addi	s1,sp,12
   1383a:	03f00613          	li	a2,63
   1383e:	8526                	mv	a0,s1
   13840:	00007097          	auipc	ra,0x7
   13844:	732080e7          	jalr	1842(ra) # 1af72 <memcpy>
   13848:	8626                	mv	a2,s1
   1384a:	d282                	sw	zero,100(sp)
   1384c:	06010423          	sb	zero,104(sp)
   13850:	04810a23          	sb	s0,84(sp)
   13854:	cc82                	sw	zero,88(sp)
   13856:	ce82                	sw	zero,92(sp)
   13858:	d082                	sw	zero,96(sp)
   1385a:	6505                	lui	a0,0x1
   1385c:	4491                	li	s1,4
   1385e:	4591                	li	a1,4
   13860:	4d750793          	addi	a5,a0,1239 # 14d7 <.Lline_table_start1+0x12ac>
   13864:	03f00693          	li	a3,63
   13868:	4711                	li	a4,4
   1386a:	853e                	mv	a0,a5
   1386c:	00000073          	ecall
   13870:	04850363          	beq	a0,s0,138b6 <_ZN20complex_full_dynamic3app17h6d45b41a517dc24fE+0x92>
   13874:	853e                	mv	a0,a5
   13876:	05810993          	addi	s3,sp,88
   1387a:	c03e                	sw	a5,0(sp)
   1387c:	c226                	sw	s1,4(sp)
   1387e:	00910423          	sb	s1,8(sp)
   13882:	448d                	li	s1,3
   13884:	458d                	li	a1,3
   13886:	46c5                	li	a3,17
   13888:	470d                	li	a4,3
   1388a:	864e                	mv	a2,s3
   1388c:	00000073          	ecall
   13890:	02850363          	beq	a0,s0,138b6 <_ZN20complex_full_dynamic3app17h6d45b41a517dc24fE+0x92>
   13894:	c6be                	sw	a5,76(sp)
   13896:	c8a6                	sw	s1,80(sp)
   13898:	04910a23          	sb	s1,84(sp)
   1389c:	6505                	lui	a0,0x1
   1389e:	4591                	li	a1,4
   138a0:	460d                	li	a2,3
   138a2:	4d750513          	addi	a0,a0,1239 # 14d7 <.Lline_table_start1+0x12ac>
   138a6:	4709                	li	a4,2
   138a8:	07f00793          	li	a5,127
   138ac:	4681                	li	a3,0
   138ae:	00000073          	ecall
   138b2:	02a7e863          	bltu	a5,a0,138e2 <_ZN20complex_full_dynamic3app17h6d45b41a517dc24fE+0xbe>
   138b6:	00b92223          	sw	a1,4(s2)
   138ba:	4505                	li	a0,1
   138bc:	00a90023          	sb	a0,0(s2)
   138c0:	00e8                	addi	a0,sp,76
   138c2:	00007097          	auipc	ra,0x7
   138c6:	624080e7          	jalr	1572(ra) # 1aee6 <_ZN9allow_pin12full_dynamic17unshare_if_shared17h3ae8596986353d28E>
   138ca:	850a                	mv	a0,sp
   138cc:	00007097          	auipc	ra,0x7
   138d0:	61a080e7          	jalr	1562(ra) # 1aee6 <_ZN9allow_pin12full_dynamic17unshare_if_shared17h3ae8596986353d28E>
   138d4:	50f6                	lw	ra,124(sp)
   138d6:	5466                	lw	s0,120(sp)
   138d8:	54d6                	lw	s1,116(sp)
   138da:	5946                	lw	s2,112(sp)
   138dc:	59b6                	lw	s3,108(sp)
   138de:	6109                	addi	sp,sp,128
   138e0:	8082                	ret
   138e2:	850a                	mv	a0,sp
   138e4:	00007097          	auipc	ra,0x7
   138e8:	602080e7          	jalr	1538(ra) # 1aee6 <_ZN9allow_pin12full_dynamic17unshare_if_shared17h3ae8596986353d28E>
   138ec:	00e8                	addi	a0,sp,76
   138ee:	00007097          	auipc	ra,0x7
   138f2:	5f8080e7          	jalr	1528(ra) # 1aee6 <_ZN9allow_pin12full_dynamic17unshare_if_shared17h3ae8596986353d28E>
   138f6:	00e8                	addi	a0,sp,76
   138f8:	00007097          	auipc	ra,0x7
   138fc:	5ee080e7          	jalr	1518(ra) # 1aee6 <_ZN9allow_pin12full_dynamic17unshare_if_shared17h3ae8596986353d28E>
   13900:	00190513          	addi	a0,s2,1
   13904:	4645                	li	a2,17
   13906:	85ce                	mv	a1,s3
   13908:	00007097          	auipc	ra,0x7
   1390c:	66a080e7          	jalr	1642(ra) # 1af72 <memcpy>
   13910:	4501                	li	a0,0
   13912:	b76d                	j	138bc <_ZN20complex_full_dynamic3app17h6d45b41a517dc24fE+0x98>

00013914 <_ZN20complex_full_dynamic3app17h6de85724dced86fcE>:
   13914:	7131                	addi	sp,sp,-192
   13916:	df06                	sw	ra,188(sp)
   13918:	dd22                	sw	s0,184(sp)
   1391a:	db26                	sw	s1,180(sp)
   1391c:	d94a                	sw	s2,176(sp)
   1391e:	d74e                	sw	s3,172(sp)
   13920:	89aa                	mv	s3,a0
   13922:	4409                	li	s0,2
   13924:	00810823          	sb	s0,16(sp)
   13928:	0844                	addi	s1,sp,20
   1392a:	05500613          	li	a2,85
   1392e:	8526                	mv	a0,s1
   13930:	00007097          	auipc	ra,0x7
   13934:	642080e7          	jalr	1602(ra) # 1af72 <memcpy>
   13938:	07810913          	addi	s2,sp,120
   1393c:	03200613          	li	a2,50
   13940:	854a                	mv	a0,s2
   13942:	4581                	li	a1,0
   13944:	00007097          	auipc	ra,0x7
   13948:	5c2080e7          	jalr	1474(ra) # 1af06 <memset>
   1394c:	8626                	mv	a2,s1
   1394e:	06810a23          	sb	s0,116(sp)
   13952:	6509                	lui	a0,0x2
   13954:	44a1                	li	s1,8
   13956:	4811                	li	a6,4
   13958:	45a1                	li	a1,8
   1395a:	09550793          	addi	a5,a0,149 # 2095 <.Lline_table_start1+0x1e6a>
   1395e:	05500693          	li	a3,85
   13962:	4711                	li	a4,4
   13964:	853e                	mv	a0,a5
   13966:	00000073          	ecall
   1396a:	04850363          	beq	a0,s0,139b0 <_ZN20complex_full_dynamic3app17h6de85724dced86fcE+0x9c>
   1396e:	853e                	mv	a0,a5
   13970:	864a                	mv	a2,s2
   13972:	c43e                	sw	a5,8(sp)
   13974:	c626                	sw	s1,12(sp)
   13976:	01010823          	sb	a6,16(sp)
   1397a:	448d                	li	s1,3
   1397c:	45a1                	li	a1,8
   1397e:	03200693          	li	a3,50
   13982:	470d                	li	a4,3
   13984:	00000073          	ecall
   13988:	02850463          	beq	a0,s0,139b0 <_ZN20complex_full_dynamic3app17h6de85724dced86fcE+0x9c>
   1398c:	4521                	li	a0,8
   1398e:	6689                	lui	a3,0x2
   13990:	45a1                	li	a1,8
   13992:	4621                	li	a2,8
   13994:	d6be                	sw	a5,108(sp)
   13996:	d8aa                	sw	a0,112(sp)
   13998:	06910a23          	sb	s1,116(sp)
   1399c:	09568513          	addi	a0,a3,149 # 2095 <.Lline_table_start1+0x1e6a>
   139a0:	4709                	li	a4,2
   139a2:	07f00793          	li	a5,127
   139a6:	4681                	li	a3,0
   139a8:	00000073          	ecall
   139ac:	02a7e863          	bltu	a5,a0,139dc <_ZN20complex_full_dynamic3app17h6de85724dced86fcE+0xc8>
   139b0:	00b9a223          	sw	a1,4(s3)
   139b4:	4505                	li	a0,1
   139b6:	00a98023          	sb	a0,0(s3)
   139ba:	10e8                	addi	a0,sp,108
   139bc:	00007097          	auipc	ra,0x7
   139c0:	52a080e7          	jalr	1322(ra) # 1aee6 <_ZN9allow_pin12full_dynamic17unshare_if_shared17h3ae8596986353d28E>
   139c4:	0028                	addi	a0,sp,8
   139c6:	00007097          	auipc	ra,0x7
   139ca:	520080e7          	jalr	1312(ra) # 1aee6 <_ZN9allow_pin12full_dynamic17unshare_if_shared17h3ae8596986353d28E>
   139ce:	50fa                	lw	ra,188(sp)
   139d0:	546a                	lw	s0,184(sp)
   139d2:	54da                	lw	s1,180(sp)
   139d4:	594a                	lw	s2,176(sp)
   139d6:	59ba                	lw	s3,172(sp)
   139d8:	6129                	addi	sp,sp,192
   139da:	8082                	ret
   139dc:	0028                	addi	a0,sp,8
   139de:	00007097          	auipc	ra,0x7
   139e2:	508080e7          	jalr	1288(ra) # 1aee6 <_ZN9allow_pin12full_dynamic17unshare_if_shared17h3ae8596986353d28E>
   139e6:	10e8                	addi	a0,sp,108
   139e8:	00007097          	auipc	ra,0x7
   139ec:	4fe080e7          	jalr	1278(ra) # 1aee6 <_ZN9allow_pin12full_dynamic17unshare_if_shared17h3ae8596986353d28E>
   139f0:	10e8                	addi	a0,sp,108
   139f2:	00007097          	auipc	ra,0x7
   139f6:	4f4080e7          	jalr	1268(ra) # 1aee6 <_ZN9allow_pin12full_dynamic17unshare_if_shared17h3ae8596986353d28E>
   139fa:	00198513          	addi	a0,s3,1
   139fe:	03200613          	li	a2,50
   13a02:	85ca                	mv	a1,s2
   13a04:	00007097          	auipc	ra,0x7
   13a08:	56e080e7          	jalr	1390(ra) # 1af72 <memcpy>
   13a0c:	4501                	li	a0,0
   13a0e:	b765                	j	139b6 <_ZN20complex_full_dynamic3app17h6de85724dced86fcE+0xa2>

00013a10 <_ZN20complex_full_dynamic3app17h70de7c9e8bea423eE>:
   13a10:	7131                	addi	sp,sp,-192
   13a12:	df06                	sw	ra,188(sp)
   13a14:	dd22                	sw	s0,184(sp)
   13a16:	db26                	sw	s1,180(sp)
   13a18:	d94a                	sw	s2,176(sp)
   13a1a:	d74e                	sw	s3,172(sp)
   13a1c:	89aa                	mv	s3,a0
   13a1e:	4409                	li	s0,2
   13a20:	00810623          	sb	s0,12(sp)
   13a24:	0804                	addi	s1,sp,16
   13a26:	05300613          	li	a2,83
   13a2a:	8526                	mv	a0,s1
   13a2c:	00007097          	auipc	ra,0x7
   13a30:	546080e7          	jalr	1350(ra) # 1af72 <memcpy>
   13a34:	07010913          	addi	s2,sp,112
   13a38:	03a00613          	li	a2,58
   13a3c:	854a                	mv	a0,s2
   13a3e:	4581                	li	a1,0
   13a40:	00007097          	auipc	ra,0x7
   13a44:	4c6080e7          	jalr	1222(ra) # 1af06 <memset>
   13a48:	8626                	mv	a2,s1
   13a4a:	06810623          	sb	s0,108(sp)
   13a4e:	6509                	lui	a0,0x2
   13a50:	4499                	li	s1,6
   13a52:	4811                	li	a6,4
   13a54:	4599                	li	a1,6
   13a56:	64550793          	addi	a5,a0,1605 # 2645 <.Lline_table_start1+0x241a>
   13a5a:	05300693          	li	a3,83
   13a5e:	4711                	li	a4,4
   13a60:	853e                	mv	a0,a5
   13a62:	00000073          	ecall
   13a66:	04850363          	beq	a0,s0,13aac <_ZN20complex_full_dynamic3app17h70de7c9e8bea423eE+0x9c>
   13a6a:	853e                	mv	a0,a5
   13a6c:	864a                	mv	a2,s2
   13a6e:	c23e                	sw	a5,4(sp)
   13a70:	c426                	sw	s1,8(sp)
   13a72:	01010623          	sb	a6,12(sp)
   13a76:	449d                	li	s1,7
   13a78:	480d                	li	a6,3
   13a7a:	459d                	li	a1,7
   13a7c:	03a00693          	li	a3,58
   13a80:	470d                	li	a4,3
   13a82:	00000073          	ecall
   13a86:	02850363          	beq	a0,s0,13aac <_ZN20complex_full_dynamic3app17h70de7c9e8bea423eE+0x9c>
   13a8a:	d2be                	sw	a5,100(sp)
   13a8c:	d4a6                	sw	s1,104(sp)
   13a8e:	07010623          	sb	a6,108(sp)
   13a92:	6509                	lui	a0,0x2
   13a94:	4599                	li	a1,6
   13a96:	461d                	li	a2,7
   13a98:	64550513          	addi	a0,a0,1605 # 2645 <.Lline_table_start1+0x241a>
   13a9c:	4709                	li	a4,2
   13a9e:	07f00793          	li	a5,127
   13aa2:	4681                	li	a3,0
   13aa4:	00000073          	ecall
   13aa8:	02a7e863          	bltu	a5,a0,13ad8 <_ZN20complex_full_dynamic3app17h70de7c9e8bea423eE+0xc8>
   13aac:	00b9a223          	sw	a1,4(s3)
   13ab0:	4505                	li	a0,1
   13ab2:	00a98023          	sb	a0,0(s3)
   13ab6:	10c8                	addi	a0,sp,100
   13ab8:	00007097          	auipc	ra,0x7
   13abc:	42e080e7          	jalr	1070(ra) # 1aee6 <_ZN9allow_pin12full_dynamic17unshare_if_shared17h3ae8596986353d28E>
   13ac0:	0048                	addi	a0,sp,4
   13ac2:	00007097          	auipc	ra,0x7
   13ac6:	424080e7          	jalr	1060(ra) # 1aee6 <_ZN9allow_pin12full_dynamic17unshare_if_shared17h3ae8596986353d28E>
   13aca:	50fa                	lw	ra,188(sp)
   13acc:	546a                	lw	s0,184(sp)
   13ace:	54da                	lw	s1,180(sp)
   13ad0:	594a                	lw	s2,176(sp)
   13ad2:	59ba                	lw	s3,172(sp)
   13ad4:	6129                	addi	sp,sp,192
   13ad6:	8082                	ret
   13ad8:	0048                	addi	a0,sp,4
   13ada:	00007097          	auipc	ra,0x7
   13ade:	40c080e7          	jalr	1036(ra) # 1aee6 <_ZN9allow_pin12full_dynamic17unshare_if_shared17h3ae8596986353d28E>
   13ae2:	10c8                	addi	a0,sp,100
   13ae4:	00007097          	auipc	ra,0x7
   13ae8:	402080e7          	jalr	1026(ra) # 1aee6 <_ZN9allow_pin12full_dynamic17unshare_if_shared17h3ae8596986353d28E>
   13aec:	10c8                	addi	a0,sp,100
   13aee:	00007097          	auipc	ra,0x7
   13af2:	3f8080e7          	jalr	1016(ra) # 1aee6 <_ZN9allow_pin12full_dynamic17unshare_if_shared17h3ae8596986353d28E>
   13af6:	00198513          	addi	a0,s3,1
   13afa:	03a00613          	li	a2,58
   13afe:	85ca                	mv	a1,s2
   13b00:	00007097          	auipc	ra,0x7
   13b04:	472080e7          	jalr	1138(ra) # 1af72 <memcpy>
   13b08:	4501                	li	a0,0
   13b0a:	b765                	j	13ab2 <_ZN20complex_full_dynamic3app17h70de7c9e8bea423eE+0xa2>

00013b0c <_ZN20complex_full_dynamic3app17h71ee51ef90915b43E>:
   13b0c:	7171                	addi	sp,sp,-176
   13b0e:	d706                	sw	ra,172(sp)
   13b10:	d522                	sw	s0,168(sp)
   13b12:	d326                	sw	s1,164(sp)
   13b14:	d14a                	sw	s2,160(sp)
   13b16:	cf4e                	sw	s3,156(sp)
   13b18:	89aa                	mv	s3,a0
   13b1a:	4409                	li	s0,2
   13b1c:	00810a23          	sb	s0,20(sp)
   13b20:	0824                	addi	s1,sp,24
   13b22:	02100613          	li	a2,33
   13b26:	8526                	mv	a0,s1
   13b28:	00007097          	auipc	ra,0x7
   13b2c:	44a080e7          	jalr	1098(ra) # 1af72 <memcpy>
   13b30:	04810913          	addi	s2,sp,72
   13b34:	05300613          	li	a2,83
   13b38:	854a                	mv	a0,s2
   13b3a:	4581                	li	a1,0
   13b3c:	00007097          	auipc	ra,0x7
   13b40:	3ca080e7          	jalr	970(ra) # 1af06 <memset>
   13b44:	8626                	mv	a2,s1
   13b46:	04810223          	sb	s0,68(sp)
   13b4a:	6509                	lui	a0,0x2
   13b4c:	4491                	li	s1,4
   13b4e:	4589                	li	a1,2
   13b50:	53e50793          	addi	a5,a0,1342 # 253e <.Lline_table_start1+0x2313>
   13b54:	02100693          	li	a3,33
   13b58:	4711                	li	a4,4
   13b5a:	853e                	mv	a0,a5
   13b5c:	00000073          	ecall
   13b60:	04850363          	beq	a0,s0,13ba6 <_ZN20complex_full_dynamic3app17h71ee51ef90915b43E+0x9a>
   13b64:	853e                	mv	a0,a5
   13b66:	864a                	mv	a2,s2
   13b68:	c63e                	sw	a5,12(sp)
   13b6a:	c822                	sw	s0,16(sp)
   13b6c:	00910a23          	sb	s1,20(sp)
   13b70:	44a1                	li	s1,8
   13b72:	480d                	li	a6,3
   13b74:	45a1                	li	a1,8
   13b76:	05300693          	li	a3,83
   13b7a:	470d                	li	a4,3
   13b7c:	00000073          	ecall
   13b80:	02850363          	beq	a0,s0,13ba6 <_ZN20complex_full_dynamic3app17h71ee51ef90915b43E+0x9a>
   13b84:	de3e                	sw	a5,60(sp)
   13b86:	c0a6                	sw	s1,64(sp)
   13b88:	05010223          	sb	a6,68(sp)
   13b8c:	6509                	lui	a0,0x2
   13b8e:	4589                	li	a1,2
   13b90:	4621                	li	a2,8
   13b92:	53e50513          	addi	a0,a0,1342 # 253e <.Lline_table_start1+0x2313>
   13b96:	4709                	li	a4,2
   13b98:	07f00793          	li	a5,127
   13b9c:	4681                	li	a3,0
   13b9e:	00000073          	ecall
   13ba2:	02a7e863          	bltu	a5,a0,13bd2 <_ZN20complex_full_dynamic3app17h71ee51ef90915b43E+0xc6>
   13ba6:	00b9a223          	sw	a1,4(s3)
   13baa:	4505                	li	a0,1
   13bac:	00a98023          	sb	a0,0(s3)
   13bb0:	1868                	addi	a0,sp,60
   13bb2:	00007097          	auipc	ra,0x7
   13bb6:	334080e7          	jalr	820(ra) # 1aee6 <_ZN9allow_pin12full_dynamic17unshare_if_shared17h3ae8596986353d28E>
   13bba:	0068                	addi	a0,sp,12
   13bbc:	00007097          	auipc	ra,0x7
   13bc0:	32a080e7          	jalr	810(ra) # 1aee6 <_ZN9allow_pin12full_dynamic17unshare_if_shared17h3ae8596986353d28E>
   13bc4:	50ba                	lw	ra,172(sp)
   13bc6:	542a                	lw	s0,168(sp)
   13bc8:	549a                	lw	s1,164(sp)
   13bca:	590a                	lw	s2,160(sp)
   13bcc:	49fa                	lw	s3,156(sp)
   13bce:	614d                	addi	sp,sp,176
   13bd0:	8082                	ret
   13bd2:	0068                	addi	a0,sp,12
   13bd4:	00007097          	auipc	ra,0x7
   13bd8:	312080e7          	jalr	786(ra) # 1aee6 <_ZN9allow_pin12full_dynamic17unshare_if_shared17h3ae8596986353d28E>
   13bdc:	1868                	addi	a0,sp,60
   13bde:	00007097          	auipc	ra,0x7
   13be2:	308080e7          	jalr	776(ra) # 1aee6 <_ZN9allow_pin12full_dynamic17unshare_if_shared17h3ae8596986353d28E>
   13be6:	1868                	addi	a0,sp,60
   13be8:	00007097          	auipc	ra,0x7
   13bec:	2fe080e7          	jalr	766(ra) # 1aee6 <_ZN9allow_pin12full_dynamic17unshare_if_shared17h3ae8596986353d28E>
   13bf0:	00198513          	addi	a0,s3,1
   13bf4:	05300613          	li	a2,83
   13bf8:	85ca                	mv	a1,s2
   13bfa:	00007097          	auipc	ra,0x7
   13bfe:	378080e7          	jalr	888(ra) # 1af72 <memcpy>
   13c02:	4501                	li	a0,0
   13c04:	b765                	j	13bac <_ZN20complex_full_dynamic3app17h71ee51ef90915b43E+0xa0>

00013c06 <_ZN20complex_full_dynamic3app17h737f100c66612ac7E>:
   13c06:	7175                	addi	sp,sp,-144
   13c08:	c706                	sw	ra,140(sp)
   13c0a:	c522                	sw	s0,136(sp)
   13c0c:	c326                	sw	s1,132(sp)
   13c0e:	c14a                	sw	s2,128(sp)
   13c10:	dece                	sw	s3,124(sp)
   13c12:	892a                	mv	s2,a0
   13c14:	4409                	li	s0,2
   13c16:	00810423          	sb	s0,8(sp)
   13c1a:	0064                	addi	s1,sp,12
   13c1c:	05100613          	li	a2,81
   13c20:	8526                	mv	a0,s1
   13c22:	00007097          	auipc	ra,0x7
   13c26:	350080e7          	jalr	848(ra) # 1af72 <memcpy>
   13c2a:	4581                	li	a1,0
   13c2c:	8626                	mv	a2,s1
   13c2e:	06011c23          	sh	zero,120(sp)
   13c32:	06010d23          	sb	zero,122(sp)
   13c36:	06810423          	sb	s0,104(sp)
   13c3a:	d682                	sw	zero,108(sp)
   13c3c:	d882                	sw	zero,112(sp)
   13c3e:	da82                	sw	zero,116(sp)
   13c40:	6505                	lui	a0,0x1
   13c42:	4491                	li	s1,4
   13c44:	3bf50793          	addi	a5,a0,959 # 13bf <.Lline_table_start1+0x1194>
   13c48:	05100693          	li	a3,81
   13c4c:	4711                	li	a4,4
   13c4e:	853e                	mv	a0,a5
   13c50:	00000073          	ecall
   13c54:	04850363          	beq	a0,s0,13c9a <_ZN20complex_full_dynamic3app17h737f100c66612ac7E+0x94>
   13c58:	853e                	mv	a0,a5
   13c5a:	06c10993          	addi	s3,sp,108
   13c5e:	c03e                	sw	a5,0(sp)
   13c60:	c202                	sw	zero,4(sp)
   13c62:	00910423          	sb	s1,8(sp)
   13c66:	448d                	li	s1,3
   13c68:	458d                	li	a1,3
   13c6a:	46bd                	li	a3,15
   13c6c:	470d                	li	a4,3
   13c6e:	864e                	mv	a2,s3
   13c70:	00000073          	ecall
   13c74:	02850363          	beq	a0,s0,13c9a <_ZN20complex_full_dynamic3app17h737f100c66612ac7E+0x94>
   13c78:	d0be                	sw	a5,96(sp)
   13c7a:	d2a6                	sw	s1,100(sp)
   13c7c:	06910423          	sb	s1,104(sp)
   13c80:	6505                	lui	a0,0x1
   13c82:	460d                	li	a2,3
   13c84:	3bf50513          	addi	a0,a0,959 # 13bf <.Lline_table_start1+0x1194>
   13c88:	4709                	li	a4,2
   13c8a:	07f00793          	li	a5,127
   13c8e:	4581                	li	a1,0
   13c90:	4681                	li	a3,0
   13c92:	00000073          	ecall
   13c96:	02a7e863          	bltu	a5,a0,13cc6 <_ZN20complex_full_dynamic3app17h737f100c66612ac7E+0xc0>
   13c9a:	00b92223          	sw	a1,4(s2)
   13c9e:	4505                	li	a0,1
   13ca0:	00a90023          	sb	a0,0(s2)
   13ca4:	1088                	addi	a0,sp,96
   13ca6:	00007097          	auipc	ra,0x7
   13caa:	240080e7          	jalr	576(ra) # 1aee6 <_ZN9allow_pin12full_dynamic17unshare_if_shared17h3ae8596986353d28E>
   13cae:	850a                	mv	a0,sp
   13cb0:	00007097          	auipc	ra,0x7
   13cb4:	236080e7          	jalr	566(ra) # 1aee6 <_ZN9allow_pin12full_dynamic17unshare_if_shared17h3ae8596986353d28E>
   13cb8:	40ba                	lw	ra,140(sp)
   13cba:	442a                	lw	s0,136(sp)
   13cbc:	449a                	lw	s1,132(sp)
   13cbe:	490a                	lw	s2,128(sp)
   13cc0:	59f6                	lw	s3,124(sp)
   13cc2:	6149                	addi	sp,sp,144
   13cc4:	8082                	ret
   13cc6:	850a                	mv	a0,sp
   13cc8:	00007097          	auipc	ra,0x7
   13ccc:	21e080e7          	jalr	542(ra) # 1aee6 <_ZN9allow_pin12full_dynamic17unshare_if_shared17h3ae8596986353d28E>
   13cd0:	1088                	addi	a0,sp,96
   13cd2:	00007097          	auipc	ra,0x7
   13cd6:	214080e7          	jalr	532(ra) # 1aee6 <_ZN9allow_pin12full_dynamic17unshare_if_shared17h3ae8596986353d28E>
   13cda:	1088                	addi	a0,sp,96
   13cdc:	00007097          	auipc	ra,0x7
   13ce0:	20a080e7          	jalr	522(ra) # 1aee6 <_ZN9allow_pin12full_dynamic17unshare_if_shared17h3ae8596986353d28E>
   13ce4:	00190513          	addi	a0,s2,1
   13ce8:	463d                	li	a2,15
   13cea:	85ce                	mv	a1,s3
   13cec:	00007097          	auipc	ra,0x7
   13cf0:	286080e7          	jalr	646(ra) # 1af72 <memcpy>
   13cf4:	4501                	li	a0,0
   13cf6:	b76d                	j	13ca0 <_ZN20complex_full_dynamic3app17h737f100c66612ac7E+0x9a>

00013cf8 <_ZN20complex_full_dynamic3app17h74447211b42c5b25E>:
   13cf8:	7131                	addi	sp,sp,-192
   13cfa:	df06                	sw	ra,188(sp)
   13cfc:	dd22                	sw	s0,184(sp)
   13cfe:	db26                	sw	s1,180(sp)
   13d00:	d94a                	sw	s2,176(sp)
   13d02:	d74e                	sw	s3,172(sp)
   13d04:	89aa                	mv	s3,a0
   13d06:	4409                	li	s0,2
   13d08:	00810623          	sb	s0,12(sp)
   13d0c:	0804                	addi	s1,sp,16
   13d0e:	02f00613          	li	a2,47
   13d12:	8526                	mv	a0,s1
   13d14:	00007097          	auipc	ra,0x7
   13d18:	25e080e7          	jalr	606(ra) # 1af72 <memcpy>
   13d1c:	04c10913          	addi	s2,sp,76
   13d20:	05e00613          	li	a2,94
   13d24:	854a                	mv	a0,s2
   13d26:	4581                	li	a1,0
   13d28:	00007097          	auipc	ra,0x7
   13d2c:	1de080e7          	jalr	478(ra) # 1af06 <memset>
   13d30:	8626                	mv	a2,s1
   13d32:	04810423          	sb	s0,72(sp)
   13d36:	22b00793          	li	a5,555
   13d3a:	4495                	li	s1,5
   13d3c:	4811                	li	a6,4
   13d3e:	22b00513          	li	a0,555
   13d42:	4595                	li	a1,5
   13d44:	02f00693          	li	a3,47
   13d48:	4711                	li	a4,4
   13d4a:	00000073          	ecall
   13d4e:	04850563          	beq	a0,s0,13d98 <_ZN20complex_full_dynamic3app17h74447211b42c5b25E+0xa0>
   13d52:	864a                	mv	a2,s2
   13d54:	c23e                	sw	a5,4(sp)
   13d56:	c426                	sw	s1,8(sp)
   13d58:	01010623          	sb	a6,12(sp)
   13d5c:	478d                	li	a5,3
   13d5e:	22b00513          	li	a0,555
   13d62:	4589                	li	a1,2
   13d64:	05e00693          	li	a3,94
   13d68:	470d                	li	a4,3
   13d6a:	00000073          	ecall
   13d6e:	02850563          	beq	a0,s0,13d98 <_ZN20complex_full_dynamic3app17h74447211b42c5b25E+0xa0>
   13d72:	22b00693          	li	a3,555
   13d76:	4489                	li	s1,2
   13d78:	22b00513          	li	a0,555
   13d7c:	4595                	li	a1,5
   13d7e:	4609                	li	a2,2
   13d80:	4709                	li	a4,2
   13d82:	07f00413          	li	s0,127
   13d86:	c0b6                	sw	a3,64(sp)
   13d88:	c2a6                	sw	s1,68(sp)
   13d8a:	04f10423          	sb	a5,72(sp)
   13d8e:	4681                	li	a3,0
   13d90:	00000073          	ecall
   13d94:	02a46863          	bltu	s0,a0,13dc4 <_ZN20complex_full_dynamic3app17h74447211b42c5b25E+0xcc>
   13d98:	00b9a223          	sw	a1,4(s3)
   13d9c:	4505                	li	a0,1
   13d9e:	00a98023          	sb	a0,0(s3)
   13da2:	0088                	addi	a0,sp,64
   13da4:	00007097          	auipc	ra,0x7
   13da8:	142080e7          	jalr	322(ra) # 1aee6 <_ZN9allow_pin12full_dynamic17unshare_if_shared17h3ae8596986353d28E>
   13dac:	0048                	addi	a0,sp,4
   13dae:	00007097          	auipc	ra,0x7
   13db2:	138080e7          	jalr	312(ra) # 1aee6 <_ZN9allow_pin12full_dynamic17unshare_if_shared17h3ae8596986353d28E>
   13db6:	50fa                	lw	ra,188(sp)
   13db8:	546a                	lw	s0,184(sp)
   13dba:	54da                	lw	s1,180(sp)
   13dbc:	594a                	lw	s2,176(sp)
   13dbe:	59ba                	lw	s3,172(sp)
   13dc0:	6129                	addi	sp,sp,192
   13dc2:	8082                	ret
   13dc4:	0048                	addi	a0,sp,4
   13dc6:	00007097          	auipc	ra,0x7
   13dca:	120080e7          	jalr	288(ra) # 1aee6 <_ZN9allow_pin12full_dynamic17unshare_if_shared17h3ae8596986353d28E>
   13dce:	0088                	addi	a0,sp,64
   13dd0:	00007097          	auipc	ra,0x7
   13dd4:	116080e7          	jalr	278(ra) # 1aee6 <_ZN9allow_pin12full_dynamic17unshare_if_shared17h3ae8596986353d28E>
   13dd8:	0088                	addi	a0,sp,64
   13dda:	00007097          	auipc	ra,0x7
   13dde:	10c080e7          	jalr	268(ra) # 1aee6 <_ZN9allow_pin12full_dynamic17unshare_if_shared17h3ae8596986353d28E>
   13de2:	00198513          	addi	a0,s3,1
   13de6:	05e00613          	li	a2,94
   13dea:	85ca                	mv	a1,s2
   13dec:	00007097          	auipc	ra,0x7
   13df0:	186080e7          	jalr	390(ra) # 1af72 <memcpy>
   13df4:	4501                	li	a0,0
   13df6:	b765                	j	13d9e <_ZN20complex_full_dynamic3app17h74447211b42c5b25E+0xa6>

00013df8 <_ZN20complex_full_dynamic3app17h7a3d8806911b5b6fE>:
   13df8:	7159                	addi	sp,sp,-112
   13dfa:	d686                	sw	ra,108(sp)
   13dfc:	d4a2                	sw	s0,104(sp)
   13dfe:	d2a6                	sw	s1,100(sp)
   13e00:	d0ca                	sw	s2,96(sp)
   13e02:	cece                	sw	s3,92(sp)
   13e04:	89aa                	mv	s3,a0
   13e06:	4409                	li	s0,2
   13e08:	00810623          	sb	s0,12(sp)
   13e0c:	0804                	addi	s1,sp,16
   13e0e:	4651                	li	a2,20
   13e10:	8526                	mv	a0,s1
   13e12:	00007097          	auipc	ra,0x7
   13e16:	160080e7          	jalr	352(ra) # 1af72 <memcpy>
   13e1a:	03010913          	addi	s2,sp,48
   13e1e:	02b00613          	li	a2,43
   13e22:	854a                	mv	a0,s2
   13e24:	4581                	li	a1,0
   13e26:	00007097          	auipc	ra,0x7
   13e2a:	0e0080e7          	jalr	224(ra) # 1af06 <memset>
   13e2e:	8626                	mv	a2,s1
   13e30:	02810623          	sb	s0,44(sp)
   13e34:	6509                	lui	a0,0x2
   13e36:	44a1                	li	s1,8
   13e38:	4811                	li	a6,4
   13e3a:	45a1                	li	a1,8
   13e3c:	39f50793          	addi	a5,a0,927 # 239f <.Lline_table_start1+0x2174>
   13e40:	46d1                	li	a3,20
   13e42:	4711                	li	a4,4
   13e44:	853e                	mv	a0,a5
   13e46:	00000073          	ecall
   13e4a:	04850363          	beq	a0,s0,13e90 <_ZN20complex_full_dynamic3app17h7a3d8806911b5b6fE+0x98>
   13e4e:	853e                	mv	a0,a5
   13e50:	864a                	mv	a2,s2
   13e52:	c23e                	sw	a5,4(sp)
   13e54:	c426                	sw	s1,8(sp)
   13e56:	01010623          	sb	a6,12(sp)
   13e5a:	448d                	li	s1,3
   13e5c:	4591                	li	a1,4
   13e5e:	02b00693          	li	a3,43
   13e62:	470d                	li	a4,3
   13e64:	00000073          	ecall
   13e68:	02850463          	beq	a0,s0,13e90 <_ZN20complex_full_dynamic3app17h7a3d8806911b5b6fE+0x98>
   13e6c:	4511                	li	a0,4
   13e6e:	6689                	lui	a3,0x2
   13e70:	45a1                	li	a1,8
   13e72:	4611                	li	a2,4
   13e74:	d23e                	sw	a5,36(sp)
   13e76:	d42a                	sw	a0,40(sp)
   13e78:	02910623          	sb	s1,44(sp)
   13e7c:	39f68513          	addi	a0,a3,927 # 239f <.Lline_table_start1+0x2174>
   13e80:	4709                	li	a4,2
   13e82:	07f00793          	li	a5,127
   13e86:	4681                	li	a3,0
   13e88:	00000073          	ecall
   13e8c:	02a7e863          	bltu	a5,a0,13ebc <_ZN20complex_full_dynamic3app17h7a3d8806911b5b6fE+0xc4>
   13e90:	00b9a223          	sw	a1,4(s3)
   13e94:	4505                	li	a0,1
   13e96:	00a98023          	sb	a0,0(s3)
   13e9a:	1048                	addi	a0,sp,36
   13e9c:	00007097          	auipc	ra,0x7
   13ea0:	04a080e7          	jalr	74(ra) # 1aee6 <_ZN9allow_pin12full_dynamic17unshare_if_shared17h3ae8596986353d28E>
   13ea4:	0048                	addi	a0,sp,4
   13ea6:	00007097          	auipc	ra,0x7
   13eaa:	040080e7          	jalr	64(ra) # 1aee6 <_ZN9allow_pin12full_dynamic17unshare_if_shared17h3ae8596986353d28E>
   13eae:	50b6                	lw	ra,108(sp)
   13eb0:	5426                	lw	s0,104(sp)
   13eb2:	5496                	lw	s1,100(sp)
   13eb4:	5906                	lw	s2,96(sp)
   13eb6:	49f6                	lw	s3,92(sp)
   13eb8:	6165                	addi	sp,sp,112
   13eba:	8082                	ret
   13ebc:	0048                	addi	a0,sp,4
   13ebe:	00007097          	auipc	ra,0x7
   13ec2:	028080e7          	jalr	40(ra) # 1aee6 <_ZN9allow_pin12full_dynamic17unshare_if_shared17h3ae8596986353d28E>
   13ec6:	1048                	addi	a0,sp,36
   13ec8:	00007097          	auipc	ra,0x7
   13ecc:	01e080e7          	jalr	30(ra) # 1aee6 <_ZN9allow_pin12full_dynamic17unshare_if_shared17h3ae8596986353d28E>
   13ed0:	1048                	addi	a0,sp,36
   13ed2:	00007097          	auipc	ra,0x7
   13ed6:	014080e7          	jalr	20(ra) # 1aee6 <_ZN9allow_pin12full_dynamic17unshare_if_shared17h3ae8596986353d28E>
   13eda:	00198513          	addi	a0,s3,1
   13ede:	02b00613          	li	a2,43
   13ee2:	85ca                	mv	a1,s2
   13ee4:	00007097          	auipc	ra,0x7
   13ee8:	08e080e7          	jalr	142(ra) # 1af72 <memcpy>
   13eec:	4501                	li	a0,0
   13eee:	b765                	j	13e96 <_ZN20complex_full_dynamic3app17h7a3d8806911b5b6fE+0x9e>

00013ef0 <_ZN20complex_full_dynamic3app17h7c365c257fcdd75eE>:
   13ef0:	7131                	addi	sp,sp,-192
   13ef2:	df06                	sw	ra,188(sp)
   13ef4:	dd22                	sw	s0,184(sp)
   13ef6:	db26                	sw	s1,180(sp)
   13ef8:	d94a                	sw	s2,176(sp)
   13efa:	d74e                	sw	s3,172(sp)
   13efc:	89aa                	mv	s3,a0
   13efe:	4409                	li	s0,2
   13f00:	00810623          	sb	s0,12(sp)
   13f04:	0804                	addi	s1,sp,16
   13f06:	02a00613          	li	a2,42
   13f0a:	8526                	mv	a0,s1
   13f0c:	00007097          	auipc	ra,0x7
   13f10:	066080e7          	jalr	102(ra) # 1af72 <memcpy>
   13f14:	04810913          	addi	s2,sp,72
   13f18:	06300613          	li	a2,99
   13f1c:	854a                	mv	a0,s2
   13f1e:	4581                	li	a1,0
   13f20:	00007097          	auipc	ra,0x7
   13f24:	fe6080e7          	jalr	-26(ra) # 1af06 <memset>
   13f28:	8626                	mv	a2,s1
   13f2a:	04810223          	sb	s0,68(sp)
   13f2e:	6509                	lui	a0,0x2
   13f30:	4491                	li	s1,4
   13f32:	4591                	li	a1,4
   13f34:	c7c50793          	addi	a5,a0,-900 # 1c7c <.Lline_table_start1+0x1a51>
   13f38:	02a00693          	li	a3,42
   13f3c:	4711                	li	a4,4
   13f3e:	853e                	mv	a0,a5
   13f40:	00000073          	ecall
   13f44:	04850263          	beq	a0,s0,13f88 <_ZN20complex_full_dynamic3app17h7c365c257fcdd75eE+0x98>
   13f48:	853e                	mv	a0,a5
   13f4a:	4581                	li	a1,0
   13f4c:	864a                	mv	a2,s2
   13f4e:	c23e                	sw	a5,4(sp)
   13f50:	c426                	sw	s1,8(sp)
   13f52:	00910623          	sb	s1,12(sp)
   13f56:	448d                	li	s1,3
   13f58:	06300693          	li	a3,99
   13f5c:	470d                	li	a4,3
   13f5e:	00000073          	ecall
   13f62:	02850363          	beq	a0,s0,13f88 <_ZN20complex_full_dynamic3app17h7c365c257fcdd75eE+0x98>
   13f66:	de3e                	sw	a5,60(sp)
   13f68:	c082                	sw	zero,64(sp)
   13f6a:	04910223          	sb	s1,68(sp)
   13f6e:	6509                	lui	a0,0x2
   13f70:	4591                	li	a1,4
   13f72:	c7c50513          	addi	a0,a0,-900 # 1c7c <.Lline_table_start1+0x1a51>
   13f76:	4709                	li	a4,2
   13f78:	07f00793          	li	a5,127
   13f7c:	4601                	li	a2,0
   13f7e:	4681                	li	a3,0
   13f80:	00000073          	ecall
   13f84:	02a7e863          	bltu	a5,a0,13fb4 <_ZN20complex_full_dynamic3app17h7c365c257fcdd75eE+0xc4>
   13f88:	00b9a223          	sw	a1,4(s3)
   13f8c:	4505                	li	a0,1
   13f8e:	00a98023          	sb	a0,0(s3)
   13f92:	1868                	addi	a0,sp,60
   13f94:	00007097          	auipc	ra,0x7
   13f98:	f52080e7          	jalr	-174(ra) # 1aee6 <_ZN9allow_pin12full_dynamic17unshare_if_shared17h3ae8596986353d28E>
   13f9c:	0048                	addi	a0,sp,4
   13f9e:	00007097          	auipc	ra,0x7
   13fa2:	f48080e7          	jalr	-184(ra) # 1aee6 <_ZN9allow_pin12full_dynamic17unshare_if_shared17h3ae8596986353d28E>
   13fa6:	50fa                	lw	ra,188(sp)
   13fa8:	546a                	lw	s0,184(sp)
   13faa:	54da                	lw	s1,180(sp)
   13fac:	594a                	lw	s2,176(sp)
   13fae:	59ba                	lw	s3,172(sp)
   13fb0:	6129                	addi	sp,sp,192
   13fb2:	8082                	ret
   13fb4:	0048                	addi	a0,sp,4
   13fb6:	00007097          	auipc	ra,0x7
   13fba:	f30080e7          	jalr	-208(ra) # 1aee6 <_ZN9allow_pin12full_dynamic17unshare_if_shared17h3ae8596986353d28E>
   13fbe:	1868                	addi	a0,sp,60
   13fc0:	00007097          	auipc	ra,0x7
   13fc4:	f26080e7          	jalr	-218(ra) # 1aee6 <_ZN9allow_pin12full_dynamic17unshare_if_shared17h3ae8596986353d28E>
   13fc8:	1868                	addi	a0,sp,60
   13fca:	00007097          	auipc	ra,0x7
   13fce:	f1c080e7          	jalr	-228(ra) # 1aee6 <_ZN9allow_pin12full_dynamic17unshare_if_shared17h3ae8596986353d28E>
   13fd2:	00198513          	addi	a0,s3,1
   13fd6:	06300613          	li	a2,99
   13fda:	85ca                	mv	a1,s2
   13fdc:	00007097          	auipc	ra,0x7
   13fe0:	f96080e7          	jalr	-106(ra) # 1af72 <memcpy>
   13fe4:	4501                	li	a0,0
   13fe6:	b765                	j	13f8e <_ZN20complex_full_dynamic3app17h7c365c257fcdd75eE+0x9e>

00013fe8 <_ZN20complex_full_dynamic3app17h7c542c9653752907E>:
   13fe8:	7131                	addi	sp,sp,-192
   13fea:	df06                	sw	ra,188(sp)
   13fec:	dd22                	sw	s0,184(sp)
   13fee:	db26                	sw	s1,180(sp)
   13ff0:	d94a                	sw	s2,176(sp)
   13ff2:	d74e                	sw	s3,172(sp)
   13ff4:	89aa                	mv	s3,a0
   13ff6:	4409                	li	s0,2
   13ff8:	00810823          	sb	s0,16(sp)
   13ffc:	0844                	addi	s1,sp,20
   13ffe:	06300613          	li	a2,99
   14002:	8526                	mv	a0,s1
   14004:	00007097          	auipc	ra,0x7
   14008:	f6e080e7          	jalr	-146(ra) # 1af72 <memcpy>
   1400c:	08410913          	addi	s2,sp,132
   14010:	02700613          	li	a2,39
   14014:	854a                	mv	a0,s2
   14016:	4581                	li	a1,0
   14018:	00007097          	auipc	ra,0x7
   1401c:	eee080e7          	jalr	-274(ra) # 1af06 <memset>
   14020:	8626                	mv	a2,s1
   14022:	08810023          	sb	s0,128(sp)
   14026:	6509                	lui	a0,0x2
   14028:	449d                	li	s1,7
   1402a:	4811                	li	a6,4
   1402c:	459d                	li	a1,7
   1402e:	e5450793          	addi	a5,a0,-428 # 1e54 <.Lline_table_start1+0x1c29>
   14032:	06300693          	li	a3,99
   14036:	4711                	li	a4,4
   14038:	853e                	mv	a0,a5
   1403a:	00000073          	ecall
   1403e:	04850263          	beq	a0,s0,14082 <_ZN20complex_full_dynamic3app17h7c542c9653752907E+0x9a>
   14042:	853e                	mv	a0,a5
   14044:	4581                	li	a1,0
   14046:	864a                	mv	a2,s2
   14048:	c43e                	sw	a5,8(sp)
   1404a:	c626                	sw	s1,12(sp)
   1404c:	01010823          	sb	a6,16(sp)
   14050:	448d                	li	s1,3
   14052:	02700693          	li	a3,39
   14056:	470d                	li	a4,3
   14058:	00000073          	ecall
   1405c:	02850363          	beq	a0,s0,14082 <_ZN20complex_full_dynamic3app17h7c542c9653752907E+0x9a>
   14060:	dcbe                	sw	a5,120(sp)
   14062:	de82                	sw	zero,124(sp)
   14064:	08910023          	sb	s1,128(sp)
   14068:	6509                	lui	a0,0x2
   1406a:	459d                	li	a1,7
   1406c:	e5450513          	addi	a0,a0,-428 # 1e54 <.Lline_table_start1+0x1c29>
   14070:	4709                	li	a4,2
   14072:	07f00793          	li	a5,127
   14076:	4601                	li	a2,0
   14078:	4681                	li	a3,0
   1407a:	00000073          	ecall
   1407e:	02a7e863          	bltu	a5,a0,140ae <_ZN20complex_full_dynamic3app17h7c542c9653752907E+0xc6>
   14082:	00b9a223          	sw	a1,4(s3)
   14086:	4505                	li	a0,1
   14088:	00a98023          	sb	a0,0(s3)
   1408c:	18a8                	addi	a0,sp,120
   1408e:	00007097          	auipc	ra,0x7
   14092:	e58080e7          	jalr	-424(ra) # 1aee6 <_ZN9allow_pin12full_dynamic17unshare_if_shared17h3ae8596986353d28E>
   14096:	0028                	addi	a0,sp,8
   14098:	00007097          	auipc	ra,0x7
   1409c:	e4e080e7          	jalr	-434(ra) # 1aee6 <_ZN9allow_pin12full_dynamic17unshare_if_shared17h3ae8596986353d28E>
   140a0:	50fa                	lw	ra,188(sp)
   140a2:	546a                	lw	s0,184(sp)
   140a4:	54da                	lw	s1,180(sp)
   140a6:	594a                	lw	s2,176(sp)
   140a8:	59ba                	lw	s3,172(sp)
   140aa:	6129                	addi	sp,sp,192
   140ac:	8082                	ret
   140ae:	0028                	addi	a0,sp,8
   140b0:	00007097          	auipc	ra,0x7
   140b4:	e36080e7          	jalr	-458(ra) # 1aee6 <_ZN9allow_pin12full_dynamic17unshare_if_shared17h3ae8596986353d28E>
   140b8:	18a8                	addi	a0,sp,120
   140ba:	00007097          	auipc	ra,0x7
   140be:	e2c080e7          	jalr	-468(ra) # 1aee6 <_ZN9allow_pin12full_dynamic17unshare_if_shared17h3ae8596986353d28E>
   140c2:	18a8                	addi	a0,sp,120
   140c4:	00007097          	auipc	ra,0x7
   140c8:	e22080e7          	jalr	-478(ra) # 1aee6 <_ZN9allow_pin12full_dynamic17unshare_if_shared17h3ae8596986353d28E>
   140cc:	00198513          	addi	a0,s3,1
   140d0:	02700613          	li	a2,39
   140d4:	85ca                	mv	a1,s2
   140d6:	00007097          	auipc	ra,0x7
   140da:	e9c080e7          	jalr	-356(ra) # 1af72 <memcpy>
   140de:	4501                	li	a0,0
   140e0:	b765                	j	14088 <_ZN20complex_full_dynamic3app17h7c542c9653752907E+0xa0>

000140e2 <_ZN20complex_full_dynamic3app17h7cfbe845dc8c8b21E>:
   140e2:	7115                	addi	sp,sp,-224
   140e4:	cf86                	sw	ra,220(sp)
   140e6:	cda2                	sw	s0,216(sp)
   140e8:	cba6                	sw	s1,212(sp)
   140ea:	c9ca                	sw	s2,208(sp)
   140ec:	c7ce                	sw	s3,204(sp)
   140ee:	89aa                	mv	s3,a0
   140f0:	4409                	li	s0,2
   140f2:	00810423          	sb	s0,8(sp)
   140f6:	0064                	addi	s1,sp,12
   140f8:	04f00613          	li	a2,79
   140fc:	8526                	mv	a0,s1
   140fe:	00007097          	auipc	ra,0x7
   14102:	e74080e7          	jalr	-396(ra) # 1af72 <memcpy>
   14106:	06810913          	addi	s2,sp,104
   1410a:	06100613          	li	a2,97
   1410e:	854a                	mv	a0,s2
   14110:	4581                	li	a1,0
   14112:	00007097          	auipc	ra,0x7
   14116:	df4080e7          	jalr	-524(ra) # 1af06 <memset>
   1411a:	8626                	mv	a2,s1
   1411c:	06810223          	sb	s0,100(sp)
   14120:	1b600493          	li	s1,438
   14124:	4791                	li	a5,4
   14126:	1b600513          	li	a0,438
   1412a:	4589                	li	a1,2
   1412c:	04f00693          	li	a3,79
   14130:	4711                	li	a4,4
   14132:	00000073          	ecall
   14136:	04850563          	beq	a0,s0,14180 <_ZN20complex_full_dynamic3app17h7cfbe845dc8c8b21E+0x9e>
   1413a:	864a                	mv	a2,s2
   1413c:	c026                	sw	s1,0(sp)
   1413e:	c222                	sw	s0,4(sp)
   14140:	00f10423          	sb	a5,8(sp)
   14144:	47a1                	li	a5,8
   14146:	448d                	li	s1,3
   14148:	1b600513          	li	a0,438
   1414c:	45a1                	li	a1,8
   1414e:	06100693          	li	a3,97
   14152:	470d                	li	a4,3
   14154:	00000073          	ecall
   14158:	02850463          	beq	a0,s0,14180 <_ZN20complex_full_dynamic3app17h7cfbe845dc8c8b21E+0x9e>
   1415c:	1b600693          	li	a3,438
   14160:	1b600513          	li	a0,438
   14164:	4589                	li	a1,2
   14166:	4621                	li	a2,8
   14168:	4709                	li	a4,2
   1416a:	07f00413          	li	s0,127
   1416e:	ceb6                	sw	a3,92(sp)
   14170:	d0be                	sw	a5,96(sp)
   14172:	06910223          	sb	s1,100(sp)
   14176:	4681                	li	a3,0
   14178:	00000073          	ecall
   1417c:	02a46863          	bltu	s0,a0,141ac <_ZN20complex_full_dynamic3app17h7cfbe845dc8c8b21E+0xca>
   14180:	00b9a223          	sw	a1,4(s3)
   14184:	4505                	li	a0,1
   14186:	00a98023          	sb	a0,0(s3)
   1418a:	08e8                	addi	a0,sp,92
   1418c:	00007097          	auipc	ra,0x7
   14190:	d5a080e7          	jalr	-678(ra) # 1aee6 <_ZN9allow_pin12full_dynamic17unshare_if_shared17h3ae8596986353d28E>
   14194:	850a                	mv	a0,sp
   14196:	00007097          	auipc	ra,0x7
   1419a:	d50080e7          	jalr	-688(ra) # 1aee6 <_ZN9allow_pin12full_dynamic17unshare_if_shared17h3ae8596986353d28E>
   1419e:	40fe                	lw	ra,220(sp)
   141a0:	446e                	lw	s0,216(sp)
   141a2:	44de                	lw	s1,212(sp)
   141a4:	494e                	lw	s2,208(sp)
   141a6:	49be                	lw	s3,204(sp)
   141a8:	612d                	addi	sp,sp,224
   141aa:	8082                	ret
   141ac:	850a                	mv	a0,sp
   141ae:	00007097          	auipc	ra,0x7
   141b2:	d38080e7          	jalr	-712(ra) # 1aee6 <_ZN9allow_pin12full_dynamic17unshare_if_shared17h3ae8596986353d28E>
   141b6:	08e8                	addi	a0,sp,92
   141b8:	00007097          	auipc	ra,0x7
   141bc:	d2e080e7          	jalr	-722(ra) # 1aee6 <_ZN9allow_pin12full_dynamic17unshare_if_shared17h3ae8596986353d28E>
   141c0:	08e8                	addi	a0,sp,92
   141c2:	00007097          	auipc	ra,0x7
   141c6:	d24080e7          	jalr	-732(ra) # 1aee6 <_ZN9allow_pin12full_dynamic17unshare_if_shared17h3ae8596986353d28E>
   141ca:	00198513          	addi	a0,s3,1
   141ce:	06100613          	li	a2,97
   141d2:	85ca                	mv	a1,s2
   141d4:	00007097          	auipc	ra,0x7
   141d8:	d9e080e7          	jalr	-610(ra) # 1af72 <memcpy>
   141dc:	4501                	li	a0,0
   141de:	b765                	j	14186 <_ZN20complex_full_dynamic3app17h7cfbe845dc8c8b21E+0xa4>

000141e0 <_ZN20complex_full_dynamic3app17h801c5cde0de093a4E>:
   141e0:	7119                	addi	sp,sp,-128
   141e2:	de86                	sw	ra,124(sp)
   141e4:	dca2                	sw	s0,120(sp)
   141e6:	daa6                	sw	s1,116(sp)
   141e8:	d8ca                	sw	s2,112(sp)
   141ea:	d6ce                	sw	s3,108(sp)
   141ec:	89aa                	mv	s3,a0
   141ee:	4409                	li	s0,2
   141f0:	00810623          	sb	s0,12(sp)
   141f4:	0804                	addi	s1,sp,16
   141f6:	02300613          	li	a2,35
   141fa:	8526                	mv	a0,s1
   141fc:	00007097          	auipc	ra,0x7
   14200:	d76080e7          	jalr	-650(ra) # 1af72 <memcpy>
   14204:	04010913          	addi	s2,sp,64
   14208:	02b00613          	li	a2,43
   1420c:	854a                	mv	a0,s2
   1420e:	4581                	li	a1,0
   14210:	00007097          	auipc	ra,0x7
   14214:	cf6080e7          	jalr	-778(ra) # 1af06 <memset>
   14218:	8626                	mv	a2,s1
   1421a:	02810e23          	sb	s0,60(sp)
   1421e:	6505                	lui	a0,0x1
   14220:	4491                	li	s1,4
   14222:	4589                	li	a1,2
   14224:	d5d50793          	addi	a5,a0,-675 # d5d <.Lline_table_start1+0xb32>
   14228:	02300693          	li	a3,35
   1422c:	4711                	li	a4,4
   1422e:	853e                	mv	a0,a5
   14230:	00000073          	ecall
   14234:	04850263          	beq	a0,s0,14278 <_ZN20complex_full_dynamic3app17h801c5cde0de093a4E+0x98>
   14238:	853e                	mv	a0,a5
   1423a:	4581                	li	a1,0
   1423c:	864a                	mv	a2,s2
   1423e:	c23e                	sw	a5,4(sp)
   14240:	c422                	sw	s0,8(sp)
   14242:	00910623          	sb	s1,12(sp)
   14246:	448d                	li	s1,3
   14248:	02b00693          	li	a3,43
   1424c:	470d                	li	a4,3
   1424e:	00000073          	ecall
   14252:	02850363          	beq	a0,s0,14278 <_ZN20complex_full_dynamic3app17h801c5cde0de093a4E+0x98>
   14256:	da3e                	sw	a5,52(sp)
   14258:	dc02                	sw	zero,56(sp)
   1425a:	02910e23          	sb	s1,60(sp)
   1425e:	6505                	lui	a0,0x1
   14260:	4589                	li	a1,2
   14262:	d5d50513          	addi	a0,a0,-675 # d5d <.Lline_table_start1+0xb32>
   14266:	4709                	li	a4,2
   14268:	07f00793          	li	a5,127
   1426c:	4601                	li	a2,0
   1426e:	4681                	li	a3,0
   14270:	00000073          	ecall
   14274:	02a7e863          	bltu	a5,a0,142a4 <_ZN20complex_full_dynamic3app17h801c5cde0de093a4E+0xc4>
   14278:	00b9a223          	sw	a1,4(s3)
   1427c:	4505                	li	a0,1
   1427e:	00a98023          	sb	a0,0(s3)
   14282:	1848                	addi	a0,sp,52
   14284:	00007097          	auipc	ra,0x7
   14288:	c62080e7          	jalr	-926(ra) # 1aee6 <_ZN9allow_pin12full_dynamic17unshare_if_shared17h3ae8596986353d28E>
   1428c:	0048                	addi	a0,sp,4
   1428e:	00007097          	auipc	ra,0x7
   14292:	c58080e7          	jalr	-936(ra) # 1aee6 <_ZN9allow_pin12full_dynamic17unshare_if_shared17h3ae8596986353d28E>
   14296:	50f6                	lw	ra,124(sp)
   14298:	5466                	lw	s0,120(sp)
   1429a:	54d6                	lw	s1,116(sp)
   1429c:	5946                	lw	s2,112(sp)
   1429e:	59b6                	lw	s3,108(sp)
   142a0:	6109                	addi	sp,sp,128
   142a2:	8082                	ret
   142a4:	0048                	addi	a0,sp,4
   142a6:	00007097          	auipc	ra,0x7
   142aa:	c40080e7          	jalr	-960(ra) # 1aee6 <_ZN9allow_pin12full_dynamic17unshare_if_shared17h3ae8596986353d28E>
   142ae:	1848                	addi	a0,sp,52
   142b0:	00007097          	auipc	ra,0x7
   142b4:	c36080e7          	jalr	-970(ra) # 1aee6 <_ZN9allow_pin12full_dynamic17unshare_if_shared17h3ae8596986353d28E>
   142b8:	1848                	addi	a0,sp,52
   142ba:	00007097          	auipc	ra,0x7
   142be:	c2c080e7          	jalr	-980(ra) # 1aee6 <_ZN9allow_pin12full_dynamic17unshare_if_shared17h3ae8596986353d28E>
   142c2:	00198513          	addi	a0,s3,1
   142c6:	02b00613          	li	a2,43
   142ca:	85ca                	mv	a1,s2
   142cc:	00007097          	auipc	ra,0x7
   142d0:	ca6080e7          	jalr	-858(ra) # 1af72 <memcpy>
   142d4:	4501                	li	a0,0
   142d6:	b765                	j	1427e <_ZN20complex_full_dynamic3app17h801c5cde0de093a4E+0x9e>

000142d8 <_ZN20complex_full_dynamic3app17h860bf58e6bbd4fb8E>:
   142d8:	7175                	addi	sp,sp,-144
   142da:	c706                	sw	ra,140(sp)
   142dc:	c522                	sw	s0,136(sp)
   142de:	c326                	sw	s1,132(sp)
   142e0:	c14a                	sw	s2,128(sp)
   142e2:	dece                	sw	s3,124(sp)
   142e4:	89aa                	mv	s3,a0
   142e6:	4409                	li	s0,2
   142e8:	00810823          	sb	s0,16(sp)
   142ec:	0844                	addi	s1,sp,20
   142ee:	4679                	li	a2,30
   142f0:	8526                	mv	a0,s1
   142f2:	00007097          	auipc	ra,0x7
   142f6:	c80080e7          	jalr	-896(ra) # 1af72 <memcpy>
   142fa:	04010913          	addi	s2,sp,64
   142fe:	03c00613          	li	a2,60
   14302:	854a                	mv	a0,s2
   14304:	4581                	li	a1,0
   14306:	00007097          	auipc	ra,0x7
   1430a:	c00080e7          	jalr	-1024(ra) # 1af06 <memset>
   1430e:	8626                	mv	a2,s1
   14310:	02810e23          	sb	s0,60(sp)
   14314:	6505                	lui	a0,0x1
   14316:	4491                	li	s1,4
   14318:	4589                	li	a1,2
   1431a:	b3c50793          	addi	a5,a0,-1220 # b3c <.Lline_table_start1+0x911>
   1431e:	46f9                	li	a3,30
   14320:	4711                	li	a4,4
   14322:	853e                	mv	a0,a5
   14324:	00000073          	ecall
   14328:	04850263          	beq	a0,s0,1436c <_ZN20complex_full_dynamic3app17h860bf58e6bbd4fb8E+0x94>
   1432c:	853e                	mv	a0,a5
   1432e:	864a                	mv	a2,s2
   14330:	c43e                	sw	a5,8(sp)
   14332:	c622                	sw	s0,12(sp)
   14334:	00910823          	sb	s1,16(sp)
   14338:	448d                	li	s1,3
   1433a:	458d                	li	a1,3
   1433c:	03c00693          	li	a3,60
   14340:	470d                	li	a4,3
   14342:	00000073          	ecall
   14346:	02850363          	beq	a0,s0,1436c <_ZN20complex_full_dynamic3app17h860bf58e6bbd4fb8E+0x94>
   1434a:	da3e                	sw	a5,52(sp)
   1434c:	dc26                	sw	s1,56(sp)
   1434e:	02910e23          	sb	s1,60(sp)
   14352:	6505                	lui	a0,0x1
   14354:	4589                	li	a1,2
   14356:	460d                	li	a2,3
   14358:	b3c50513          	addi	a0,a0,-1220 # b3c <.Lline_table_start1+0x911>
   1435c:	4709                	li	a4,2
   1435e:	07f00793          	li	a5,127
   14362:	4681                	li	a3,0
   14364:	00000073          	ecall
   14368:	02a7e863          	bltu	a5,a0,14398 <_ZN20complex_full_dynamic3app17h860bf58e6bbd4fb8E+0xc0>
   1436c:	00b9a223          	sw	a1,4(s3)
   14370:	4505                	li	a0,1
   14372:	00a98023          	sb	a0,0(s3)
   14376:	1848                	addi	a0,sp,52
   14378:	00007097          	auipc	ra,0x7
   1437c:	b6e080e7          	jalr	-1170(ra) # 1aee6 <_ZN9allow_pin12full_dynamic17unshare_if_shared17h3ae8596986353d28E>
   14380:	0028                	addi	a0,sp,8
   14382:	00007097          	auipc	ra,0x7
   14386:	b64080e7          	jalr	-1180(ra) # 1aee6 <_ZN9allow_pin12full_dynamic17unshare_if_shared17h3ae8596986353d28E>
   1438a:	40ba                	lw	ra,140(sp)
   1438c:	442a                	lw	s0,136(sp)
   1438e:	449a                	lw	s1,132(sp)
   14390:	490a                	lw	s2,128(sp)
   14392:	59f6                	lw	s3,124(sp)
   14394:	6149                	addi	sp,sp,144
   14396:	8082                	ret
   14398:	0028                	addi	a0,sp,8
   1439a:	00007097          	auipc	ra,0x7
   1439e:	b4c080e7          	jalr	-1204(ra) # 1aee6 <_ZN9allow_pin12full_dynamic17unshare_if_shared17h3ae8596986353d28E>
   143a2:	1848                	addi	a0,sp,52
   143a4:	00007097          	auipc	ra,0x7
   143a8:	b42080e7          	jalr	-1214(ra) # 1aee6 <_ZN9allow_pin12full_dynamic17unshare_if_shared17h3ae8596986353d28E>
   143ac:	1848                	addi	a0,sp,52
   143ae:	00007097          	auipc	ra,0x7
   143b2:	b38080e7          	jalr	-1224(ra) # 1aee6 <_ZN9allow_pin12full_dynamic17unshare_if_shared17h3ae8596986353d28E>
   143b6:	00198513          	addi	a0,s3,1
   143ba:	03c00613          	li	a2,60
   143be:	85ca                	mv	a1,s2
   143c0:	00007097          	auipc	ra,0x7
   143c4:	bb2080e7          	jalr	-1102(ra) # 1af72 <memcpy>
   143c8:	4501                	li	a0,0
   143ca:	b765                	j	14372 <_ZN20complex_full_dynamic3app17h860bf58e6bbd4fb8E+0x9a>

000143cc <_ZN20complex_full_dynamic3app17h8698e4e7a4c10cc2E>:
   143cc:	7131                	addi	sp,sp,-192
   143ce:	df06                	sw	ra,188(sp)
   143d0:	dd22                	sw	s0,184(sp)
   143d2:	db26                	sw	s1,180(sp)
   143d4:	d94a                	sw	s2,176(sp)
   143d6:	d74e                	sw	s3,172(sp)
   143d8:	89aa                	mv	s3,a0
   143da:	4409                	li	s0,2
   143dc:	00810823          	sb	s0,16(sp)
   143e0:	0844                	addi	s1,sp,20
   143e2:	04d00613          	li	a2,77
   143e6:	8526                	mv	a0,s1
   143e8:	00007097          	auipc	ra,0x7
   143ec:	b8a080e7          	jalr	-1142(ra) # 1af72 <memcpy>
   143f0:	07010913          	addi	s2,sp,112
   143f4:	03c00613          	li	a2,60
   143f8:	854a                	mv	a0,s2
   143fa:	4581                	li	a1,0
   143fc:	00007097          	auipc	ra,0x7
   14400:	b0a080e7          	jalr	-1270(ra) # 1af06 <memset>
   14404:	8626                	mv	a2,s1
   14406:	06810623          	sb	s0,108(sp)
   1440a:	6509                	lui	a0,0x2
   1440c:	4491                	li	s1,4
   1440e:	4591                	li	a1,4
   14410:	1ab50793          	addi	a5,a0,427 # 21ab <.Lline_table_start1+0x1f80>
   14414:	04d00693          	li	a3,77
   14418:	4711                	li	a4,4
   1441a:	853e                	mv	a0,a5
   1441c:	00000073          	ecall
   14420:	04850363          	beq	a0,s0,14466 <_ZN20complex_full_dynamic3app17h8698e4e7a4c10cc2E+0x9a>
   14424:	853e                	mv	a0,a5
   14426:	864a                	mv	a2,s2
   14428:	c43e                	sw	a5,8(sp)
   1442a:	c626                	sw	s1,12(sp)
   1442c:	00910823          	sb	s1,16(sp)
   14430:	44a5                	li	s1,9
   14432:	480d                	li	a6,3
   14434:	45a5                	li	a1,9
   14436:	03c00693          	li	a3,60
   1443a:	470d                	li	a4,3
   1443c:	00000073          	ecall
   14440:	02850363          	beq	a0,s0,14466 <_ZN20complex_full_dynamic3app17h8698e4e7a4c10cc2E+0x9a>
   14444:	d2be                	sw	a5,100(sp)
   14446:	d4a6                	sw	s1,104(sp)
   14448:	07010623          	sb	a6,108(sp)
   1444c:	6509                	lui	a0,0x2
   1444e:	4591                	li	a1,4
   14450:	4625                	li	a2,9
   14452:	1ab50513          	addi	a0,a0,427 # 21ab <.Lline_table_start1+0x1f80>
   14456:	4709                	li	a4,2
   14458:	07f00793          	li	a5,127
   1445c:	4681                	li	a3,0
   1445e:	00000073          	ecall
   14462:	02a7e863          	bltu	a5,a0,14492 <_ZN20complex_full_dynamic3app17h8698e4e7a4c10cc2E+0xc6>
   14466:	00b9a223          	sw	a1,4(s3)
   1446a:	4505                	li	a0,1
   1446c:	00a98023          	sb	a0,0(s3)
   14470:	10c8                	addi	a0,sp,100
   14472:	00007097          	auipc	ra,0x7
   14476:	a74080e7          	jalr	-1420(ra) # 1aee6 <_ZN9allow_pin12full_dynamic17unshare_if_shared17h3ae8596986353d28E>
   1447a:	0028                	addi	a0,sp,8
   1447c:	00007097          	auipc	ra,0x7
   14480:	a6a080e7          	jalr	-1430(ra) # 1aee6 <_ZN9allow_pin12full_dynamic17unshare_if_shared17h3ae8596986353d28E>
   14484:	50fa                	lw	ra,188(sp)
   14486:	546a                	lw	s0,184(sp)
   14488:	54da                	lw	s1,180(sp)
   1448a:	594a                	lw	s2,176(sp)
   1448c:	59ba                	lw	s3,172(sp)
   1448e:	6129                	addi	sp,sp,192
   14490:	8082                	ret
   14492:	0028                	addi	a0,sp,8
   14494:	00007097          	auipc	ra,0x7
   14498:	a52080e7          	jalr	-1454(ra) # 1aee6 <_ZN9allow_pin12full_dynamic17unshare_if_shared17h3ae8596986353d28E>
   1449c:	10c8                	addi	a0,sp,100
   1449e:	00007097          	auipc	ra,0x7
   144a2:	a48080e7          	jalr	-1464(ra) # 1aee6 <_ZN9allow_pin12full_dynamic17unshare_if_shared17h3ae8596986353d28E>
   144a6:	10c8                	addi	a0,sp,100
   144a8:	00007097          	auipc	ra,0x7
   144ac:	a3e080e7          	jalr	-1474(ra) # 1aee6 <_ZN9allow_pin12full_dynamic17unshare_if_shared17h3ae8596986353d28E>
   144b0:	00198513          	addi	a0,s3,1
   144b4:	03c00613          	li	a2,60
   144b8:	85ca                	mv	a1,s2
   144ba:	00007097          	auipc	ra,0x7
   144be:	ab8080e7          	jalr	-1352(ra) # 1af72 <memcpy>
   144c2:	4501                	li	a0,0
   144c4:	b765                	j	1446c <_ZN20complex_full_dynamic3app17h8698e4e7a4c10cc2E+0xa0>

000144c6 <_ZN20complex_full_dynamic3app17h86b6a4f7a94c4999E>:
   144c6:	7175                	addi	sp,sp,-144
   144c8:	c706                	sw	ra,140(sp)
   144ca:	c522                	sw	s0,136(sp)
   144cc:	c326                	sw	s1,132(sp)
   144ce:	c14a                	sw	s2,128(sp)
   144d0:	dece                	sw	s3,124(sp)
   144d2:	89aa                	mv	s3,a0
   144d4:	4409                	li	s0,2
   144d6:	00810423          	sb	s0,8(sp)
   144da:	0064                	addi	s1,sp,12
   144dc:	03400613          	li	a2,52
   144e0:	8526                	mv	a0,s1
   144e2:	00007097          	auipc	ra,0x7
   144e6:	a90080e7          	jalr	-1392(ra) # 1af72 <memcpy>
   144ea:	04c10913          	addi	s2,sp,76
   144ee:	02e00613          	li	a2,46
   144f2:	854a                	mv	a0,s2
   144f4:	4581                	li	a1,0
   144f6:	00007097          	auipc	ra,0x7
   144fa:	a10080e7          	jalr	-1520(ra) # 1af06 <memset>
   144fe:	8626                	mv	a2,s1
   14500:	04810423          	sb	s0,72(sp)
   14504:	20900493          	li	s1,521
   14508:	4791                	li	a5,4
   1450a:	20900513          	li	a0,521
   1450e:	4589                	li	a1,2
   14510:	03400693          	li	a3,52
   14514:	4711                	li	a4,4
   14516:	00000073          	ecall
   1451a:	04850563          	beq	a0,s0,14564 <_ZN20complex_full_dynamic3app17h86b6a4f7a94c4999E+0x9e>
   1451e:	864a                	mv	a2,s2
   14520:	c026                	sw	s1,0(sp)
   14522:	c222                	sw	s0,4(sp)
   14524:	00f10423          	sb	a5,8(sp)
   14528:	47a1                	li	a5,8
   1452a:	448d                	li	s1,3
   1452c:	20900513          	li	a0,521
   14530:	45a1                	li	a1,8
   14532:	02e00693          	li	a3,46
   14536:	470d                	li	a4,3
   14538:	00000073          	ecall
   1453c:	02850463          	beq	a0,s0,14564 <_ZN20complex_full_dynamic3app17h86b6a4f7a94c4999E+0x9e>
   14540:	20900693          	li	a3,521
   14544:	20900513          	li	a0,521
   14548:	4589                	li	a1,2
   1454a:	4621                	li	a2,8
   1454c:	4709                	li	a4,2
   1454e:	07f00413          	li	s0,127
   14552:	c0b6                	sw	a3,64(sp)
   14554:	c2be                	sw	a5,68(sp)
   14556:	04910423          	sb	s1,72(sp)
   1455a:	4681                	li	a3,0
   1455c:	00000073          	ecall
   14560:	02a46863          	bltu	s0,a0,14590 <_ZN20complex_full_dynamic3app17h86b6a4f7a94c4999E+0xca>
   14564:	00b9a223          	sw	a1,4(s3)
   14568:	4505                	li	a0,1
   1456a:	00a98023          	sb	a0,0(s3)
   1456e:	0088                	addi	a0,sp,64
   14570:	00007097          	auipc	ra,0x7
   14574:	976080e7          	jalr	-1674(ra) # 1aee6 <_ZN9allow_pin12full_dynamic17unshare_if_shared17h3ae8596986353d28E>
   14578:	850a                	mv	a0,sp
   1457a:	00007097          	auipc	ra,0x7
   1457e:	96c080e7          	jalr	-1684(ra) # 1aee6 <_ZN9allow_pin12full_dynamic17unshare_if_shared17h3ae8596986353d28E>
   14582:	40ba                	lw	ra,140(sp)
   14584:	442a                	lw	s0,136(sp)
   14586:	449a                	lw	s1,132(sp)
   14588:	490a                	lw	s2,128(sp)
   1458a:	59f6                	lw	s3,124(sp)
   1458c:	6149                	addi	sp,sp,144
   1458e:	8082                	ret
   14590:	850a                	mv	a0,sp
   14592:	00007097          	auipc	ra,0x7
   14596:	954080e7          	jalr	-1708(ra) # 1aee6 <_ZN9allow_pin12full_dynamic17unshare_if_shared17h3ae8596986353d28E>
   1459a:	0088                	addi	a0,sp,64
   1459c:	00007097          	auipc	ra,0x7
   145a0:	94a080e7          	jalr	-1718(ra) # 1aee6 <_ZN9allow_pin12full_dynamic17unshare_if_shared17h3ae8596986353d28E>
   145a4:	0088                	addi	a0,sp,64
   145a6:	00007097          	auipc	ra,0x7
   145aa:	940080e7          	jalr	-1728(ra) # 1aee6 <_ZN9allow_pin12full_dynamic17unshare_if_shared17h3ae8596986353d28E>
   145ae:	00198513          	addi	a0,s3,1
   145b2:	02e00613          	li	a2,46
   145b6:	85ca                	mv	a1,s2
   145b8:	00007097          	auipc	ra,0x7
   145bc:	9ba080e7          	jalr	-1606(ra) # 1af72 <memcpy>
   145c0:	4501                	li	a0,0
   145c2:	b765                	j	1456a <_ZN20complex_full_dynamic3app17h86b6a4f7a94c4999E+0xa4>

000145c4 <_ZN20complex_full_dynamic3app17h8bdc81589df0f56bE>:
   145c4:	7175                	addi	sp,sp,-144
   145c6:	c706                	sw	ra,140(sp)
   145c8:	c522                	sw	s0,136(sp)
   145ca:	c326                	sw	s1,132(sp)
   145cc:	c14a                	sw	s2,128(sp)
   145ce:	dece                	sw	s3,124(sp)
   145d0:	89aa                	mv	s3,a0
   145d2:	4409                	li	s0,2
   145d4:	00810a23          	sb	s0,20(sp)
   145d8:	0824                	addi	s1,sp,24
   145da:	4639                	li	a2,14
   145dc:	8526                	mv	a0,s1
   145de:	00007097          	auipc	ra,0x7
   145e2:	994080e7          	jalr	-1644(ra) # 1af72 <memcpy>
   145e6:	03410913          	addi	s2,sp,52
   145ea:	04800613          	li	a2,72
   145ee:	854a                	mv	a0,s2
   145f0:	4581                	li	a1,0
   145f2:	00007097          	auipc	ra,0x7
   145f6:	914080e7          	jalr	-1772(ra) # 1af06 <memset>
   145fa:	8626                	mv	a2,s1
   145fc:	02810823          	sb	s0,48(sp)
   14600:	6505                	lui	a0,0x1
   14602:	448d                	li	s1,3
   14604:	4811                	li	a6,4
   14606:	458d                	li	a1,3
   14608:	2d150793          	addi	a5,a0,721 # 12d1 <.Lline_table_start1+0x10a6>
   1460c:	46b9                	li	a3,14
   1460e:	4711                	li	a4,4
   14610:	853e                	mv	a0,a5
   14612:	00000073          	ecall
   14616:	04850363          	beq	a0,s0,1465c <_ZN20complex_full_dynamic3app17h8bdc81589df0f56bE+0x98>
   1461a:	853e                	mv	a0,a5
   1461c:	864a                	mv	a2,s2
   1461e:	c63e                	sw	a5,12(sp)
   14620:	c826                	sw	s1,16(sp)
   14622:	01010a23          	sb	a6,20(sp)
   14626:	44a1                	li	s1,8
   14628:	45a1                	li	a1,8
   1462a:	04800693          	li	a3,72
   1462e:	470d                	li	a4,3
   14630:	00000073          	ecall
   14634:	02850463          	beq	a0,s0,1465c <_ZN20complex_full_dynamic3app17h8bdc81589df0f56bE+0x98>
   14638:	450d                	li	a0,3
   1463a:	6685                	lui	a3,0x1
   1463c:	458d                	li	a1,3
   1463e:	4621                	li	a2,8
   14640:	d43e                	sw	a5,40(sp)
   14642:	d626                	sw	s1,44(sp)
   14644:	02a10823          	sb	a0,48(sp)
   14648:	2d168513          	addi	a0,a3,721 # 12d1 <.Lline_table_start1+0x10a6>
   1464c:	4709                	li	a4,2
   1464e:	07f00793          	li	a5,127
   14652:	4681                	li	a3,0
   14654:	00000073          	ecall
   14658:	02a7e863          	bltu	a5,a0,14688 <_ZN20complex_full_dynamic3app17h8bdc81589df0f56bE+0xc4>
   1465c:	00b9a223          	sw	a1,4(s3)
   14660:	4505                	li	a0,1
   14662:	00a98023          	sb	a0,0(s3)
   14666:	1028                	addi	a0,sp,40
   14668:	00007097          	auipc	ra,0x7
   1466c:	87e080e7          	jalr	-1922(ra) # 1aee6 <_ZN9allow_pin12full_dynamic17unshare_if_shared17h3ae8596986353d28E>
   14670:	0068                	addi	a0,sp,12
   14672:	00007097          	auipc	ra,0x7
   14676:	874080e7          	jalr	-1932(ra) # 1aee6 <_ZN9allow_pin12full_dynamic17unshare_if_shared17h3ae8596986353d28E>
   1467a:	40ba                	lw	ra,140(sp)
   1467c:	442a                	lw	s0,136(sp)
   1467e:	449a                	lw	s1,132(sp)
   14680:	490a                	lw	s2,128(sp)
   14682:	59f6                	lw	s3,124(sp)
   14684:	6149                	addi	sp,sp,144
   14686:	8082                	ret
   14688:	0068                	addi	a0,sp,12
   1468a:	00007097          	auipc	ra,0x7
   1468e:	85c080e7          	jalr	-1956(ra) # 1aee6 <_ZN9allow_pin12full_dynamic17unshare_if_shared17h3ae8596986353d28E>
   14692:	1028                	addi	a0,sp,40
   14694:	00007097          	auipc	ra,0x7
   14698:	852080e7          	jalr	-1966(ra) # 1aee6 <_ZN9allow_pin12full_dynamic17unshare_if_shared17h3ae8596986353d28E>
   1469c:	1028                	addi	a0,sp,40
   1469e:	00007097          	auipc	ra,0x7
   146a2:	848080e7          	jalr	-1976(ra) # 1aee6 <_ZN9allow_pin12full_dynamic17unshare_if_shared17h3ae8596986353d28E>
   146a6:	00198513          	addi	a0,s3,1
   146aa:	04800613          	li	a2,72
   146ae:	85ca                	mv	a1,s2
   146b0:	00007097          	auipc	ra,0x7
   146b4:	8c2080e7          	jalr	-1854(ra) # 1af72 <memcpy>
   146b8:	4501                	li	a0,0
   146ba:	b765                	j	14662 <_ZN20complex_full_dynamic3app17h8bdc81589df0f56bE+0x9e>

000146bc <_ZN20complex_full_dynamic3app17h8c2ce55f3fa1d871E>:
   146bc:	7171                	addi	sp,sp,-176
   146be:	d706                	sw	ra,172(sp)
   146c0:	d522                	sw	s0,168(sp)
   146c2:	d326                	sw	s1,164(sp)
   146c4:	d14a                	sw	s2,160(sp)
   146c6:	cf4e                	sw	s3,156(sp)
   146c8:	89aa                	mv	s3,a0
   146ca:	4409                	li	s0,2
   146cc:	00810623          	sb	s0,12(sp)
   146d0:	0804                	addi	s1,sp,16
   146d2:	466d                	li	a2,27
   146d4:	8526                	mv	a0,s1
   146d6:	00007097          	auipc	ra,0x7
   146da:	89c080e7          	jalr	-1892(ra) # 1af72 <memcpy>
   146de:	03810913          	addi	s2,sp,56
   146e2:	06300613          	li	a2,99
   146e6:	854a                	mv	a0,s2
   146e8:	4581                	li	a1,0
   146ea:	00007097          	auipc	ra,0x7
   146ee:	81c080e7          	jalr	-2020(ra) # 1af06 <memset>
   146f2:	8626                	mv	a2,s1
   146f4:	02810a23          	sb	s0,52(sp)
   146f8:	6509                	lui	a0,0x2
   146fa:	448d                	li	s1,3
   146fc:	4811                	li	a6,4
   146fe:	458d                	li	a1,3
   14700:	54850793          	addi	a5,a0,1352 # 2548 <.Lline_table_start1+0x231d>
   14704:	46ed                	li	a3,27
   14706:	4711                	li	a4,4
   14708:	853e                	mv	a0,a5
   1470a:	00000073          	ecall
   1470e:	04850263          	beq	a0,s0,14752 <_ZN20complex_full_dynamic3app17h8c2ce55f3fa1d871E+0x96>
   14712:	c23e                	sw	a5,4(sp)
   14714:	c426                	sw	s1,8(sp)
   14716:	01010623          	sb	a6,12(sp)
   1471a:	458d                	li	a1,3
   1471c:	06300693          	li	a3,99
   14720:	470d                	li	a4,3
   14722:	853e                	mv	a0,a5
   14724:	864a                	mv	a2,s2
   14726:	00000073          	ecall
   1472a:	02850463          	beq	a0,s0,14752 <_ZN20complex_full_dynamic3app17h8c2ce55f3fa1d871E+0x96>
   1472e:	450d                	li	a0,3
   14730:	6689                	lui	a3,0x2
   14732:	458d                	li	a1,3
   14734:	460d                	li	a2,3
   14736:	d63e                	sw	a5,44(sp)
   14738:	d82a                	sw	a0,48(sp)
   1473a:	02a10a23          	sb	a0,52(sp)
   1473e:	54868513          	addi	a0,a3,1352 # 2548 <.Lline_table_start1+0x231d>
   14742:	4709                	li	a4,2
   14744:	07f00793          	li	a5,127
   14748:	4681                	li	a3,0
   1474a:	00000073          	ecall
   1474e:	02a7e863          	bltu	a5,a0,1477e <_ZN20complex_full_dynamic3app17h8c2ce55f3fa1d871E+0xc2>
   14752:	00b9a223          	sw	a1,4(s3)
   14756:	4505                	li	a0,1
   14758:	00a98023          	sb	a0,0(s3)
   1475c:	1068                	addi	a0,sp,44
   1475e:	00006097          	auipc	ra,0x6
   14762:	788080e7          	jalr	1928(ra) # 1aee6 <_ZN9allow_pin12full_dynamic17unshare_if_shared17h3ae8596986353d28E>
   14766:	0048                	addi	a0,sp,4
   14768:	00006097          	auipc	ra,0x6
   1476c:	77e080e7          	jalr	1918(ra) # 1aee6 <_ZN9allow_pin12full_dynamic17unshare_if_shared17h3ae8596986353d28E>
   14770:	50ba                	lw	ra,172(sp)
   14772:	542a                	lw	s0,168(sp)
   14774:	549a                	lw	s1,164(sp)
   14776:	590a                	lw	s2,160(sp)
   14778:	49fa                	lw	s3,156(sp)
   1477a:	614d                	addi	sp,sp,176
   1477c:	8082                	ret
   1477e:	0048                	addi	a0,sp,4
   14780:	00006097          	auipc	ra,0x6
   14784:	766080e7          	jalr	1894(ra) # 1aee6 <_ZN9allow_pin12full_dynamic17unshare_if_shared17h3ae8596986353d28E>
   14788:	1068                	addi	a0,sp,44
   1478a:	00006097          	auipc	ra,0x6
   1478e:	75c080e7          	jalr	1884(ra) # 1aee6 <_ZN9allow_pin12full_dynamic17unshare_if_shared17h3ae8596986353d28E>
   14792:	1068                	addi	a0,sp,44
   14794:	00006097          	auipc	ra,0x6
   14798:	752080e7          	jalr	1874(ra) # 1aee6 <_ZN9allow_pin12full_dynamic17unshare_if_shared17h3ae8596986353d28E>
   1479c:	00198513          	addi	a0,s3,1
   147a0:	06300613          	li	a2,99
   147a4:	85ca                	mv	a1,s2
   147a6:	00006097          	auipc	ra,0x6
   147aa:	7cc080e7          	jalr	1996(ra) # 1af72 <memcpy>
   147ae:	4501                	li	a0,0
   147b0:	b765                	j	14758 <_ZN20complex_full_dynamic3app17h8c2ce55f3fa1d871E+0x9c>

000147b2 <_ZN20complex_full_dynamic3app17h92bdc1a4ab331708E>:
   147b2:	7159                	addi	sp,sp,-112
   147b4:	d686                	sw	ra,108(sp)
   147b6:	d4a2                	sw	s0,104(sp)
   147b8:	d2a6                	sw	s1,100(sp)
   147ba:	d0ca                	sw	s2,96(sp)
   147bc:	cece                	sw	s3,92(sp)
   147be:	892a                	mv	s2,a0
   147c0:	4409                	li	s0,2
   147c2:	00810a23          	sb	s0,20(sp)
   147c6:	0824                	addi	s1,sp,24
   147c8:	4669                	li	a2,26
   147ca:	8526                	mv	a0,s1
   147cc:	00006097          	auipc	ra,0x6
   147d0:	7a6080e7          	jalr	1958(ra) # 1af72 <memcpy>
   147d4:	8626                	mv	a2,s1
   147d6:	04010d23          	sb	zero,90(sp)
   147da:	c682                	sw	zero,76(sp)
   147dc:	c882                	sw	zero,80(sp)
   147de:	ca82                	sw	zero,84(sp)
   147e0:	04011c23          	sh	zero,88(sp)
   147e4:	02810e23          	sb	s0,60(sp)
   147e8:	c082                	sw	zero,64(sp)
   147ea:	c282                	sw	zero,68(sp)
   147ec:	c482                	sw	zero,72(sp)
   147ee:	6509                	lui	a0,0x2
   147f0:	4495                	li	s1,5
   147f2:	4811                	li	a6,4
   147f4:	4595                	li	a1,5
   147f6:	cce50793          	addi	a5,a0,-818 # 1cce <.Lline_table_start1+0x1aa3>
   147fa:	46e9                	li	a3,26
   147fc:	4711                	li	a4,4
   147fe:	853e                	mv	a0,a5
   14800:	00000073          	ecall
   14804:	04850463          	beq	a0,s0,1484c <_ZN20complex_full_dynamic3app17h92bdc1a4ab331708E+0x9a>
   14808:	853e                	mv	a0,a5
   1480a:	04010993          	addi	s3,sp,64
   1480e:	c63e                	sw	a5,12(sp)
   14810:	c826                	sw	s1,16(sp)
   14812:	01010a23          	sb	a6,20(sp)
   14816:	448d                	li	s1,3
   14818:	4589                	li	a1,2
   1481a:	46ed                	li	a3,27
   1481c:	470d                	li	a4,3
   1481e:	864e                	mv	a2,s3
   14820:	00000073          	ecall
   14824:	02850463          	beq	a0,s0,1484c <_ZN20complex_full_dynamic3app17h92bdc1a4ab331708E+0x9a>
   14828:	4509                	li	a0,2
   1482a:	6689                	lui	a3,0x2
   1482c:	4595                	li	a1,5
   1482e:	4609                	li	a2,2
   14830:	da3e                	sw	a5,52(sp)
   14832:	dc2a                	sw	a0,56(sp)
   14834:	02910e23          	sb	s1,60(sp)
   14838:	cce68513          	addi	a0,a3,-818 # 1cce <.Lline_table_start1+0x1aa3>
   1483c:	4709                	li	a4,2
   1483e:	07f00793          	li	a5,127
   14842:	4681                	li	a3,0
   14844:	00000073          	ecall
   14848:	02a7e863          	bltu	a5,a0,14878 <_ZN20complex_full_dynamic3app17h92bdc1a4ab331708E+0xc6>
   1484c:	00b92223          	sw	a1,4(s2)
   14850:	4505                	li	a0,1
   14852:	00a90023          	sb	a0,0(s2)
   14856:	1848                	addi	a0,sp,52
   14858:	00006097          	auipc	ra,0x6
   1485c:	68e080e7          	jalr	1678(ra) # 1aee6 <_ZN9allow_pin12full_dynamic17unshare_if_shared17h3ae8596986353d28E>
   14860:	0068                	addi	a0,sp,12
   14862:	00006097          	auipc	ra,0x6
   14866:	684080e7          	jalr	1668(ra) # 1aee6 <_ZN9allow_pin12full_dynamic17unshare_if_shared17h3ae8596986353d28E>
   1486a:	50b6                	lw	ra,108(sp)
   1486c:	5426                	lw	s0,104(sp)
   1486e:	5496                	lw	s1,100(sp)
   14870:	5906                	lw	s2,96(sp)
   14872:	49f6                	lw	s3,92(sp)
   14874:	6165                	addi	sp,sp,112
   14876:	8082                	ret
   14878:	0068                	addi	a0,sp,12
   1487a:	00006097          	auipc	ra,0x6
   1487e:	66c080e7          	jalr	1644(ra) # 1aee6 <_ZN9allow_pin12full_dynamic17unshare_if_shared17h3ae8596986353d28E>
   14882:	1848                	addi	a0,sp,52
   14884:	00006097          	auipc	ra,0x6
   14888:	662080e7          	jalr	1634(ra) # 1aee6 <_ZN9allow_pin12full_dynamic17unshare_if_shared17h3ae8596986353d28E>
   1488c:	1848                	addi	a0,sp,52
   1488e:	00006097          	auipc	ra,0x6
   14892:	658080e7          	jalr	1624(ra) # 1aee6 <_ZN9allow_pin12full_dynamic17unshare_if_shared17h3ae8596986353d28E>
   14896:	00190513          	addi	a0,s2,1
   1489a:	466d                	li	a2,27
   1489c:	85ce                	mv	a1,s3
   1489e:	00006097          	auipc	ra,0x6
   148a2:	6d4080e7          	jalr	1748(ra) # 1af72 <memcpy>
   148a6:	4501                	li	a0,0
   148a8:	b76d                	j	14852 <_ZN20complex_full_dynamic3app17h92bdc1a4ab331708E+0xa0>

000148aa <_ZN20complex_full_dynamic3app17h974ad76dc273766aE>:
   148aa:	7135                	addi	sp,sp,-160
   148ac:	cf06                	sw	ra,156(sp)
   148ae:	cd22                	sw	s0,152(sp)
   148b0:	cb26                	sw	s1,148(sp)
   148b2:	c94a                	sw	s2,144(sp)
   148b4:	c74e                	sw	s3,140(sp)
   148b6:	89aa                	mv	s3,a0
   148b8:	4409                	li	s0,2
   148ba:	00810a23          	sb	s0,20(sp)
   148be:	0824                	addi	s1,sp,24
   148c0:	03c00613          	li	a2,60
   148c4:	8526                	mv	a0,s1
   148c6:	00006097          	auipc	ra,0x6
   148ca:	6ac080e7          	jalr	1708(ra) # 1af72 <memcpy>
   148ce:	06010913          	addi	s2,sp,96
   148d2:	02c00613          	li	a2,44
   148d6:	854a                	mv	a0,s2
   148d8:	4581                	li	a1,0
   148da:	00006097          	auipc	ra,0x6
   148de:	62c080e7          	jalr	1580(ra) # 1af06 <memset>
   148e2:	8626                	mv	a2,s1
   148e4:	04810e23          	sb	s0,92(sp)
   148e8:	6509                	lui	a0,0x2
   148ea:	4495                	li	s1,5
   148ec:	4811                	li	a6,4
   148ee:	4595                	li	a1,5
   148f0:	eac50793          	addi	a5,a0,-340 # 1eac <.Lline_table_start1+0x1c81>
   148f4:	03c00693          	li	a3,60
   148f8:	4711                	li	a4,4
   148fa:	853e                	mv	a0,a5
   148fc:	00000073          	ecall
   14900:	04850363          	beq	a0,s0,14946 <_ZN20complex_full_dynamic3app17h974ad76dc273766aE+0x9c>
   14904:	853e                	mv	a0,a5
   14906:	864a                	mv	a2,s2
   14908:	c63e                	sw	a5,12(sp)
   1490a:	c826                	sw	s1,16(sp)
   1490c:	01010a23          	sb	a6,20(sp)
   14910:	449d                	li	s1,7
   14912:	480d                	li	a6,3
   14914:	459d                	li	a1,7
   14916:	02c00693          	li	a3,44
   1491a:	470d                	li	a4,3
   1491c:	00000073          	ecall
   14920:	02850363          	beq	a0,s0,14946 <_ZN20complex_full_dynamic3app17h974ad76dc273766aE+0x9c>
   14924:	cabe                	sw	a5,84(sp)
   14926:	cca6                	sw	s1,88(sp)
   14928:	05010e23          	sb	a6,92(sp)
   1492c:	6509                	lui	a0,0x2
   1492e:	4595                	li	a1,5
   14930:	461d                	li	a2,7
   14932:	eac50513          	addi	a0,a0,-340 # 1eac <.Lline_table_start1+0x1c81>
   14936:	4709                	li	a4,2
   14938:	07f00793          	li	a5,127
   1493c:	4681                	li	a3,0
   1493e:	00000073          	ecall
   14942:	02a7e863          	bltu	a5,a0,14972 <_ZN20complex_full_dynamic3app17h974ad76dc273766aE+0xc8>
   14946:	00b9a223          	sw	a1,4(s3)
   1494a:	4505                	li	a0,1
   1494c:	00a98023          	sb	a0,0(s3)
   14950:	08c8                	addi	a0,sp,84
   14952:	00006097          	auipc	ra,0x6
   14956:	594080e7          	jalr	1428(ra) # 1aee6 <_ZN9allow_pin12full_dynamic17unshare_if_shared17h3ae8596986353d28E>
   1495a:	0068                	addi	a0,sp,12
   1495c:	00006097          	auipc	ra,0x6
   14960:	58a080e7          	jalr	1418(ra) # 1aee6 <_ZN9allow_pin12full_dynamic17unshare_if_shared17h3ae8596986353d28E>
   14964:	40fa                	lw	ra,156(sp)
   14966:	446a                	lw	s0,152(sp)
   14968:	44da                	lw	s1,148(sp)
   1496a:	494a                	lw	s2,144(sp)
   1496c:	49ba                	lw	s3,140(sp)
   1496e:	610d                	addi	sp,sp,160
   14970:	8082                	ret
   14972:	0068                	addi	a0,sp,12
   14974:	00006097          	auipc	ra,0x6
   14978:	572080e7          	jalr	1394(ra) # 1aee6 <_ZN9allow_pin12full_dynamic17unshare_if_shared17h3ae8596986353d28E>
   1497c:	08c8                	addi	a0,sp,84
   1497e:	00006097          	auipc	ra,0x6
   14982:	568080e7          	jalr	1384(ra) # 1aee6 <_ZN9allow_pin12full_dynamic17unshare_if_shared17h3ae8596986353d28E>
   14986:	08c8                	addi	a0,sp,84
   14988:	00006097          	auipc	ra,0x6
   1498c:	55e080e7          	jalr	1374(ra) # 1aee6 <_ZN9allow_pin12full_dynamic17unshare_if_shared17h3ae8596986353d28E>
   14990:	00198513          	addi	a0,s3,1
   14994:	02c00613          	li	a2,44
   14998:	85ca                	mv	a1,s2
   1499a:	00006097          	auipc	ra,0x6
   1499e:	5d8080e7          	jalr	1496(ra) # 1af72 <memcpy>
   149a2:	4501                	li	a0,0
   149a4:	b765                	j	1494c <_ZN20complex_full_dynamic3app17h974ad76dc273766aE+0xa2>

000149a6 <_ZN20complex_full_dynamic3app17h97ae5af537735097E>:
   149a6:	7119                	addi	sp,sp,-128
   149a8:	de86                	sw	ra,124(sp)
   149aa:	dca2                	sw	s0,120(sp)
   149ac:	daa6                	sw	s1,116(sp)
   149ae:	d8ca                	sw	s2,112(sp)
   149b0:	d6ce                	sw	s3,108(sp)
   149b2:	89aa                	mv	s3,a0
   149b4:	4409                	li	s0,2
   149b6:	00810423          	sb	s0,8(sp)
   149ba:	0064                	addi	s1,sp,12
   149bc:	02400613          	li	a2,36
   149c0:	8526                	mv	a0,s1
   149c2:	00006097          	auipc	ra,0x6
   149c6:	5b0080e7          	jalr	1456(ra) # 1af72 <memcpy>
   149ca:	03c10913          	addi	s2,sp,60
   149ce:	02f00613          	li	a2,47
   149d2:	854a                	mv	a0,s2
   149d4:	4581                	li	a1,0
   149d6:	00006097          	auipc	ra,0x6
   149da:	530080e7          	jalr	1328(ra) # 1af06 <memset>
   149de:	8626                	mv	a2,s1
   149e0:	02810c23          	sb	s0,56(sp)
   149e4:	6505                	lui	a0,0x1
   149e6:	4499                	li	s1,6
   149e8:	4811                	li	a6,4
   149ea:	4599                	li	a1,6
   149ec:	27350793          	addi	a5,a0,627 # 1273 <.Lline_table_start1+0x1048>
   149f0:	02400693          	li	a3,36
   149f4:	4711                	li	a4,4
   149f6:	853e                	mv	a0,a5
   149f8:	00000073          	ecall
   149fc:	04850363          	beq	a0,s0,14a42 <_ZN20complex_full_dynamic3app17h97ae5af537735097E+0x9c>
   14a00:	853e                	mv	a0,a5
   14a02:	864a                	mv	a2,s2
   14a04:	c03e                	sw	a5,0(sp)
   14a06:	c226                	sw	s1,4(sp)
   14a08:	01010423          	sb	a6,8(sp)
   14a0c:	44a5                	li	s1,9
   14a0e:	480d                	li	a6,3
   14a10:	45a5                	li	a1,9
   14a12:	02f00693          	li	a3,47
   14a16:	470d                	li	a4,3
   14a18:	00000073          	ecall
   14a1c:	02850363          	beq	a0,s0,14a42 <_ZN20complex_full_dynamic3app17h97ae5af537735097E+0x9c>
   14a20:	d83e                	sw	a5,48(sp)
   14a22:	da26                	sw	s1,52(sp)
   14a24:	03010c23          	sb	a6,56(sp)
   14a28:	6505                	lui	a0,0x1
   14a2a:	4599                	li	a1,6
   14a2c:	4625                	li	a2,9
   14a2e:	27350513          	addi	a0,a0,627 # 1273 <.Lline_table_start1+0x1048>
   14a32:	4709                	li	a4,2
   14a34:	07f00793          	li	a5,127
   14a38:	4681                	li	a3,0
   14a3a:	00000073          	ecall
   14a3e:	02a7e863          	bltu	a5,a0,14a6e <_ZN20complex_full_dynamic3app17h97ae5af537735097E+0xc8>
   14a42:	00b9a223          	sw	a1,4(s3)
   14a46:	4505                	li	a0,1
   14a48:	00a98023          	sb	a0,0(s3)
   14a4c:	1808                	addi	a0,sp,48
   14a4e:	00006097          	auipc	ra,0x6
   14a52:	498080e7          	jalr	1176(ra) # 1aee6 <_ZN9allow_pin12full_dynamic17unshare_if_shared17h3ae8596986353d28E>
   14a56:	850a                	mv	a0,sp
   14a58:	00006097          	auipc	ra,0x6
   14a5c:	48e080e7          	jalr	1166(ra) # 1aee6 <_ZN9allow_pin12full_dynamic17unshare_if_shared17h3ae8596986353d28E>
   14a60:	50f6                	lw	ra,124(sp)
   14a62:	5466                	lw	s0,120(sp)
   14a64:	54d6                	lw	s1,116(sp)
   14a66:	5946                	lw	s2,112(sp)
   14a68:	59b6                	lw	s3,108(sp)
   14a6a:	6109                	addi	sp,sp,128
   14a6c:	8082                	ret
   14a6e:	850a                	mv	a0,sp
   14a70:	00006097          	auipc	ra,0x6
   14a74:	476080e7          	jalr	1142(ra) # 1aee6 <_ZN9allow_pin12full_dynamic17unshare_if_shared17h3ae8596986353d28E>
   14a78:	1808                	addi	a0,sp,48
   14a7a:	00006097          	auipc	ra,0x6
   14a7e:	46c080e7          	jalr	1132(ra) # 1aee6 <_ZN9allow_pin12full_dynamic17unshare_if_shared17h3ae8596986353d28E>
   14a82:	1808                	addi	a0,sp,48
   14a84:	00006097          	auipc	ra,0x6
   14a88:	462080e7          	jalr	1122(ra) # 1aee6 <_ZN9allow_pin12full_dynamic17unshare_if_shared17h3ae8596986353d28E>
   14a8c:	00198513          	addi	a0,s3,1
   14a90:	02f00613          	li	a2,47
   14a94:	85ca                	mv	a1,s2
   14a96:	00006097          	auipc	ra,0x6
   14a9a:	4dc080e7          	jalr	1244(ra) # 1af72 <memcpy>
   14a9e:	4501                	li	a0,0
   14aa0:	b765                	j	14a48 <_ZN20complex_full_dynamic3app17h97ae5af537735097E+0xa2>

00014aa2 <_ZN20complex_full_dynamic3app17h9ed6843b01ed39acE>:
   14aa2:	7171                	addi	sp,sp,-176
   14aa4:	d706                	sw	ra,172(sp)
   14aa6:	d522                	sw	s0,168(sp)
   14aa8:	d326                	sw	s1,164(sp)
   14aaa:	d14a                	sw	s2,160(sp)
   14aac:	cf4e                	sw	s3,156(sp)
   14aae:	89aa                	mv	s3,a0
   14ab0:	4409                	li	s0,2
   14ab2:	00810823          	sb	s0,16(sp)
   14ab6:	0844                	addi	s1,sp,20
   14ab8:	02700613          	li	a2,39
   14abc:	8526                	mv	a0,s1
   14abe:	00006097          	auipc	ra,0x6
   14ac2:	4b4080e7          	jalr	1204(ra) # 1af72 <memcpy>
   14ac6:	04810913          	addi	s2,sp,72
   14aca:	05100613          	li	a2,81
   14ace:	854a                	mv	a0,s2
   14ad0:	4581                	li	a1,0
   14ad2:	00006097          	auipc	ra,0x6
   14ad6:	434080e7          	jalr	1076(ra) # 1af06 <memset>
   14ada:	4581                	li	a1,0
   14adc:	8626                	mv	a2,s1
   14ade:	04810223          	sb	s0,68(sp)
   14ae2:	6505                	lui	a0,0x1
   14ae4:	4491                	li	s1,4
   14ae6:	a3650793          	addi	a5,a0,-1482 # a36 <.Lline_table_start1+0x80b>
   14aea:	02700693          	li	a3,39
   14aee:	4711                	li	a4,4
   14af0:	853e                	mv	a0,a5
   14af2:	00000073          	ecall
   14af6:	04850363          	beq	a0,s0,14b3c <_ZN20complex_full_dynamic3app17h9ed6843b01ed39acE+0x9a>
   14afa:	853e                	mv	a0,a5
   14afc:	864a                	mv	a2,s2
   14afe:	c43e                	sw	a5,8(sp)
   14b00:	c602                	sw	zero,12(sp)
   14b02:	00910823          	sb	s1,16(sp)
   14b06:	448d                	li	s1,3
   14b08:	4591                	li	a1,4
   14b0a:	05100693          	li	a3,81
   14b0e:	470d                	li	a4,3
   14b10:	00000073          	ecall
   14b14:	02850463          	beq	a0,s0,14b3c <_ZN20complex_full_dynamic3app17h9ed6843b01ed39acE+0x9a>
   14b18:	4511                	li	a0,4
   14b1a:	6585                	lui	a1,0x1
   14b1c:	4611                	li	a2,4
   14b1e:	de3e                	sw	a5,60(sp)
   14b20:	c0aa                	sw	a0,64(sp)
   14b22:	04910223          	sb	s1,68(sp)
   14b26:	a3658513          	addi	a0,a1,-1482 # a36 <.Lline_table_start1+0x80b>
   14b2a:	4709                	li	a4,2
   14b2c:	07f00793          	li	a5,127
   14b30:	4581                	li	a1,0
   14b32:	4681                	li	a3,0
   14b34:	00000073          	ecall
   14b38:	02a7e863          	bltu	a5,a0,14b68 <_ZN20complex_full_dynamic3app17h9ed6843b01ed39acE+0xc6>
   14b3c:	00b9a223          	sw	a1,4(s3)
   14b40:	4505                	li	a0,1
   14b42:	00a98023          	sb	a0,0(s3)
   14b46:	1868                	addi	a0,sp,60
   14b48:	00006097          	auipc	ra,0x6
   14b4c:	39e080e7          	jalr	926(ra) # 1aee6 <_ZN9allow_pin12full_dynamic17unshare_if_shared17h3ae8596986353d28E>
   14b50:	0028                	addi	a0,sp,8
   14b52:	00006097          	auipc	ra,0x6
   14b56:	394080e7          	jalr	916(ra) # 1aee6 <_ZN9allow_pin12full_dynamic17unshare_if_shared17h3ae8596986353d28E>
   14b5a:	50ba                	lw	ra,172(sp)
   14b5c:	542a                	lw	s0,168(sp)
   14b5e:	549a                	lw	s1,164(sp)
   14b60:	590a                	lw	s2,160(sp)
   14b62:	49fa                	lw	s3,156(sp)
   14b64:	614d                	addi	sp,sp,176
   14b66:	8082                	ret
   14b68:	0028                	addi	a0,sp,8
   14b6a:	00006097          	auipc	ra,0x6
   14b6e:	37c080e7          	jalr	892(ra) # 1aee6 <_ZN9allow_pin12full_dynamic17unshare_if_shared17h3ae8596986353d28E>
   14b72:	1868                	addi	a0,sp,60
   14b74:	00006097          	auipc	ra,0x6
   14b78:	372080e7          	jalr	882(ra) # 1aee6 <_ZN9allow_pin12full_dynamic17unshare_if_shared17h3ae8596986353d28E>
   14b7c:	1868                	addi	a0,sp,60
   14b7e:	00006097          	auipc	ra,0x6
   14b82:	368080e7          	jalr	872(ra) # 1aee6 <_ZN9allow_pin12full_dynamic17unshare_if_shared17h3ae8596986353d28E>
   14b86:	00198513          	addi	a0,s3,1
   14b8a:	05100613          	li	a2,81
   14b8e:	85ca                	mv	a1,s2
   14b90:	00006097          	auipc	ra,0x6
   14b94:	3e2080e7          	jalr	994(ra) # 1af72 <memcpy>
   14b98:	4501                	li	a0,0
   14b9a:	b765                	j	14b42 <_ZN20complex_full_dynamic3app17h9ed6843b01ed39acE+0xa0>

00014b9c <_ZN20complex_full_dynamic3app17ha771beb6c60cd297E>:
   14b9c:	7175                	addi	sp,sp,-144
   14b9e:	c706                	sw	ra,140(sp)
   14ba0:	c522                	sw	s0,136(sp)
   14ba2:	c326                	sw	s1,132(sp)
   14ba4:	c14a                	sw	s2,128(sp)
   14ba6:	dece                	sw	s3,124(sp)
   14ba8:	89aa                	mv	s3,a0
   14baa:	4409                	li	s0,2
   14bac:	00810423          	sb	s0,8(sp)
   14bb0:	0064                	addi	s1,sp,12
   14bb2:	03b00613          	li	a2,59
   14bb6:	8526                	mv	a0,s1
   14bb8:	00006097          	auipc	ra,0x6
   14bbc:	3ba080e7          	jalr	954(ra) # 1af72 <memcpy>
   14bc0:	05410913          	addi	s2,sp,84
   14bc4:	02700613          	li	a2,39
   14bc8:	854a                	mv	a0,s2
   14bca:	4581                	li	a1,0
   14bcc:	00006097          	auipc	ra,0x6
   14bd0:	33a080e7          	jalr	826(ra) # 1af06 <memset>
   14bd4:	8626                	mv	a2,s1
   14bd6:	04810823          	sb	s0,80(sp)
   14bda:	6505                	lui	a0,0x1
   14bdc:	4495                	li	s1,5
   14bde:	4811                	li	a6,4
   14be0:	4595                	li	a1,5
   14be2:	bd350793          	addi	a5,a0,-1069 # bd3 <.Lline_table_start1+0x9a8>
   14be6:	03b00693          	li	a3,59
   14bea:	4711                	li	a4,4
   14bec:	853e                	mv	a0,a5
   14bee:	00000073          	ecall
   14bf2:	04850263          	beq	a0,s0,14c36 <_ZN20complex_full_dynamic3app17ha771beb6c60cd297E+0x9a>
   14bf6:	853e                	mv	a0,a5
   14bf8:	864a                	mv	a2,s2
   14bfa:	c03e                	sw	a5,0(sp)
   14bfc:	c226                	sw	s1,4(sp)
   14bfe:	01010423          	sb	a6,8(sp)
   14c02:	448d                	li	s1,3
   14c04:	458d                	li	a1,3
   14c06:	02700693          	li	a3,39
   14c0a:	470d                	li	a4,3
   14c0c:	00000073          	ecall
   14c10:	02850363          	beq	a0,s0,14c36 <_ZN20complex_full_dynamic3app17ha771beb6c60cd297E+0x9a>
   14c14:	c4be                	sw	a5,72(sp)
   14c16:	c6a6                	sw	s1,76(sp)
   14c18:	04910823          	sb	s1,80(sp)
   14c1c:	6505                	lui	a0,0x1
   14c1e:	4595                	li	a1,5
   14c20:	460d                	li	a2,3
   14c22:	bd350513          	addi	a0,a0,-1069 # bd3 <.Lline_table_start1+0x9a8>
   14c26:	4709                	li	a4,2
   14c28:	07f00793          	li	a5,127
   14c2c:	4681                	li	a3,0
   14c2e:	00000073          	ecall
   14c32:	02a7e863          	bltu	a5,a0,14c62 <_ZN20complex_full_dynamic3app17ha771beb6c60cd297E+0xc6>
   14c36:	00b9a223          	sw	a1,4(s3)
   14c3a:	4505                	li	a0,1
   14c3c:	00a98023          	sb	a0,0(s3)
   14c40:	00a8                	addi	a0,sp,72
   14c42:	00006097          	auipc	ra,0x6
   14c46:	2a4080e7          	jalr	676(ra) # 1aee6 <_ZN9allow_pin12full_dynamic17unshare_if_shared17h3ae8596986353d28E>
   14c4a:	850a                	mv	a0,sp
   14c4c:	00006097          	auipc	ra,0x6
   14c50:	29a080e7          	jalr	666(ra) # 1aee6 <_ZN9allow_pin12full_dynamic17unshare_if_shared17h3ae8596986353d28E>
   14c54:	40ba                	lw	ra,140(sp)
   14c56:	442a                	lw	s0,136(sp)
   14c58:	449a                	lw	s1,132(sp)
   14c5a:	490a                	lw	s2,128(sp)
   14c5c:	59f6                	lw	s3,124(sp)
   14c5e:	6149                	addi	sp,sp,144
   14c60:	8082                	ret
   14c62:	850a                	mv	a0,sp
   14c64:	00006097          	auipc	ra,0x6
   14c68:	282080e7          	jalr	642(ra) # 1aee6 <_ZN9allow_pin12full_dynamic17unshare_if_shared17h3ae8596986353d28E>
   14c6c:	00a8                	addi	a0,sp,72
   14c6e:	00006097          	auipc	ra,0x6
   14c72:	278080e7          	jalr	632(ra) # 1aee6 <_ZN9allow_pin12full_dynamic17unshare_if_shared17h3ae8596986353d28E>
   14c76:	00a8                	addi	a0,sp,72
   14c78:	00006097          	auipc	ra,0x6
   14c7c:	26e080e7          	jalr	622(ra) # 1aee6 <_ZN9allow_pin12full_dynamic17unshare_if_shared17h3ae8596986353d28E>
   14c80:	00198513          	addi	a0,s3,1
   14c84:	02700613          	li	a2,39
   14c88:	85ca                	mv	a1,s2
   14c8a:	00006097          	auipc	ra,0x6
   14c8e:	2e8080e7          	jalr	744(ra) # 1af72 <memcpy>
   14c92:	4501                	li	a0,0
   14c94:	b765                	j	14c3c <_ZN20complex_full_dynamic3app17ha771beb6c60cd297E+0xa0>

00014c96 <_ZN20complex_full_dynamic3app17ha9e2d55699ee3c9eE>:
   14c96:	7135                	addi	sp,sp,-160
   14c98:	cf06                	sw	ra,156(sp)
   14c9a:	cd22                	sw	s0,152(sp)
   14c9c:	cb26                	sw	s1,148(sp)
   14c9e:	c94a                	sw	s2,144(sp)
   14ca0:	c74e                	sw	s3,140(sp)
   14ca2:	89aa                	mv	s3,a0
   14ca4:	4409                	li	s0,2
   14ca6:	00810823          	sb	s0,16(sp)
   14caa:	0844                	addi	s1,sp,20
   14cac:	03600613          	li	a2,54
   14cb0:	8526                	mv	a0,s1
   14cb2:	00006097          	auipc	ra,0x6
   14cb6:	2c0080e7          	jalr	704(ra) # 1af72 <memcpy>
   14cba:	05810913          	addi	s2,sp,88
   14cbe:	03400613          	li	a2,52
   14cc2:	854a                	mv	a0,s2
   14cc4:	4581                	li	a1,0
   14cc6:	00006097          	auipc	ra,0x6
   14cca:	240080e7          	jalr	576(ra) # 1af06 <memset>
   14cce:	8626                	mv	a2,s1
   14cd0:	04810a23          	sb	s0,84(sp)
   14cd4:	6509                	lui	a0,0x2
   14cd6:	4491                	li	s1,4
   14cd8:	4591                	li	a1,4
   14cda:	3c650793          	addi	a5,a0,966 # 23c6 <.Lline_table_start1+0x219b>
   14cde:	03600693          	li	a3,54
   14ce2:	4711                	li	a4,4
   14ce4:	853e                	mv	a0,a5
   14ce6:	00000073          	ecall
   14cea:	04850363          	beq	a0,s0,14d30 <_ZN20complex_full_dynamic3app17ha9e2d55699ee3c9eE+0x9a>
   14cee:	853e                	mv	a0,a5
   14cf0:	864a                	mv	a2,s2
   14cf2:	c43e                	sw	a5,8(sp)
   14cf4:	c626                	sw	s1,12(sp)
   14cf6:	00910823          	sb	s1,16(sp)
   14cfa:	448d                	li	s1,3
   14cfc:	4589                	li	a1,2
   14cfe:	03400693          	li	a3,52
   14d02:	470d                	li	a4,3
   14d04:	00000073          	ecall
   14d08:	02850463          	beq	a0,s0,14d30 <_ZN20complex_full_dynamic3app17ha9e2d55699ee3c9eE+0x9a>
   14d0c:	4509                	li	a0,2
   14d0e:	6689                	lui	a3,0x2
   14d10:	4591                	li	a1,4
   14d12:	4609                	li	a2,2
   14d14:	c6be                	sw	a5,76(sp)
   14d16:	c8aa                	sw	a0,80(sp)
   14d18:	04910a23          	sb	s1,84(sp)
   14d1c:	3c668513          	addi	a0,a3,966 # 23c6 <.Lline_table_start1+0x219b>
   14d20:	4709                	li	a4,2
   14d22:	07f00793          	li	a5,127
   14d26:	4681                	li	a3,0
   14d28:	00000073          	ecall
   14d2c:	02a7e863          	bltu	a5,a0,14d5c <_ZN20complex_full_dynamic3app17ha9e2d55699ee3c9eE+0xc6>
   14d30:	00b9a223          	sw	a1,4(s3)
   14d34:	4505                	li	a0,1
   14d36:	00a98023          	sb	a0,0(s3)
   14d3a:	00e8                	addi	a0,sp,76
   14d3c:	00006097          	auipc	ra,0x6
   14d40:	1aa080e7          	jalr	426(ra) # 1aee6 <_ZN9allow_pin12full_dynamic17unshare_if_shared17h3ae8596986353d28E>
   14d44:	0028                	addi	a0,sp,8
   14d46:	00006097          	auipc	ra,0x6
   14d4a:	1a0080e7          	jalr	416(ra) # 1aee6 <_ZN9allow_pin12full_dynamic17unshare_if_shared17h3ae8596986353d28E>
   14d4e:	40fa                	lw	ra,156(sp)
   14d50:	446a                	lw	s0,152(sp)
   14d52:	44da                	lw	s1,148(sp)
   14d54:	494a                	lw	s2,144(sp)
   14d56:	49ba                	lw	s3,140(sp)
   14d58:	610d                	addi	sp,sp,160
   14d5a:	8082                	ret
   14d5c:	0028                	addi	a0,sp,8
   14d5e:	00006097          	auipc	ra,0x6
   14d62:	188080e7          	jalr	392(ra) # 1aee6 <_ZN9allow_pin12full_dynamic17unshare_if_shared17h3ae8596986353d28E>
   14d66:	00e8                	addi	a0,sp,76
   14d68:	00006097          	auipc	ra,0x6
   14d6c:	17e080e7          	jalr	382(ra) # 1aee6 <_ZN9allow_pin12full_dynamic17unshare_if_shared17h3ae8596986353d28E>
   14d70:	00e8                	addi	a0,sp,76
   14d72:	00006097          	auipc	ra,0x6
   14d76:	174080e7          	jalr	372(ra) # 1aee6 <_ZN9allow_pin12full_dynamic17unshare_if_shared17h3ae8596986353d28E>
   14d7a:	00198513          	addi	a0,s3,1
   14d7e:	03400613          	li	a2,52
   14d82:	85ca                	mv	a1,s2
   14d84:	00006097          	auipc	ra,0x6
   14d88:	1ee080e7          	jalr	494(ra) # 1af72 <memcpy>
   14d8c:	4501                	li	a0,0
   14d8e:	b765                	j	14d36 <_ZN20complex_full_dynamic3app17ha9e2d55699ee3c9eE+0xa0>

00014d90 <_ZN20complex_full_dynamic3app17hac5d38cc211d84a3E>:
   14d90:	7135                	addi	sp,sp,-160
   14d92:	cf06                	sw	ra,156(sp)
   14d94:	cd22                	sw	s0,152(sp)
   14d96:	cb26                	sw	s1,148(sp)
   14d98:	c94a                	sw	s2,144(sp)
   14d9a:	c74e                	sw	s3,140(sp)
   14d9c:	89aa                	mv	s3,a0
   14d9e:	4409                	li	s0,2
   14da0:	00810423          	sb	s0,8(sp)
   14da4:	0064                	addi	s1,sp,12
   14da6:	4679                	li	a2,30
   14da8:	8526                	mv	a0,s1
   14daa:	00006097          	auipc	ra,0x6
   14dae:	1c8080e7          	jalr	456(ra) # 1af72 <memcpy>
   14db2:	03810913          	addi	s2,sp,56
   14db6:	05100613          	li	a2,81
   14dba:	854a                	mv	a0,s2
   14dbc:	4581                	li	a1,0
   14dbe:	00006097          	auipc	ra,0x6
   14dc2:	148080e7          	jalr	328(ra) # 1af06 <memset>
   14dc6:	8626                	mv	a2,s1
   14dc8:	02810a23          	sb	s0,52(sp)
   14dcc:	6509                	lui	a0,0x2
   14dce:	4491                	li	s1,4
   14dd0:	4589                	li	a1,2
   14dd2:	96b50793          	addi	a5,a0,-1685 # 196b <.Lline_table_start1+0x1740>
   14dd6:	46f9                	li	a3,30
   14dd8:	4711                	li	a4,4
   14dda:	853e                	mv	a0,a5
   14ddc:	00000073          	ecall
   14de0:	04850263          	beq	a0,s0,14e24 <_ZN20complex_full_dynamic3app17hac5d38cc211d84a3E+0x94>
   14de4:	853e                	mv	a0,a5
   14de6:	4581                	li	a1,0
   14de8:	864a                	mv	a2,s2
   14dea:	c03e                	sw	a5,0(sp)
   14dec:	c222                	sw	s0,4(sp)
   14dee:	00910423          	sb	s1,8(sp)
   14df2:	448d                	li	s1,3
   14df4:	05100693          	li	a3,81
   14df8:	470d                	li	a4,3
   14dfa:	00000073          	ecall
   14dfe:	02850363          	beq	a0,s0,14e24 <_ZN20complex_full_dynamic3app17hac5d38cc211d84a3E+0x94>
   14e02:	d63e                	sw	a5,44(sp)
   14e04:	d802                	sw	zero,48(sp)
   14e06:	02910a23          	sb	s1,52(sp)
   14e0a:	6509                	lui	a0,0x2
   14e0c:	4589                	li	a1,2
   14e0e:	96b50513          	addi	a0,a0,-1685 # 196b <.Lline_table_start1+0x1740>
   14e12:	4709                	li	a4,2
   14e14:	07f00793          	li	a5,127
   14e18:	4601                	li	a2,0
   14e1a:	4681                	li	a3,0
   14e1c:	00000073          	ecall
   14e20:	02a7e863          	bltu	a5,a0,14e50 <_ZN20complex_full_dynamic3app17hac5d38cc211d84a3E+0xc0>
   14e24:	00b9a223          	sw	a1,4(s3)
   14e28:	4505                	li	a0,1
   14e2a:	00a98023          	sb	a0,0(s3)
   14e2e:	1068                	addi	a0,sp,44
   14e30:	00006097          	auipc	ra,0x6
   14e34:	0b6080e7          	jalr	182(ra) # 1aee6 <_ZN9allow_pin12full_dynamic17unshare_if_shared17h3ae8596986353d28E>
   14e38:	850a                	mv	a0,sp
   14e3a:	00006097          	auipc	ra,0x6
   14e3e:	0ac080e7          	jalr	172(ra) # 1aee6 <_ZN9allow_pin12full_dynamic17unshare_if_shared17h3ae8596986353d28E>
   14e42:	40fa                	lw	ra,156(sp)
   14e44:	446a                	lw	s0,152(sp)
   14e46:	44da                	lw	s1,148(sp)
   14e48:	494a                	lw	s2,144(sp)
   14e4a:	49ba                	lw	s3,140(sp)
   14e4c:	610d                	addi	sp,sp,160
   14e4e:	8082                	ret
   14e50:	850a                	mv	a0,sp
   14e52:	00006097          	auipc	ra,0x6
   14e56:	094080e7          	jalr	148(ra) # 1aee6 <_ZN9allow_pin12full_dynamic17unshare_if_shared17h3ae8596986353d28E>
   14e5a:	1068                	addi	a0,sp,44
   14e5c:	00006097          	auipc	ra,0x6
   14e60:	08a080e7          	jalr	138(ra) # 1aee6 <_ZN9allow_pin12full_dynamic17unshare_if_shared17h3ae8596986353d28E>
   14e64:	1068                	addi	a0,sp,44
   14e66:	00006097          	auipc	ra,0x6
   14e6a:	080080e7          	jalr	128(ra) # 1aee6 <_ZN9allow_pin12full_dynamic17unshare_if_shared17h3ae8596986353d28E>
   14e6e:	00198513          	addi	a0,s3,1
   14e72:	05100613          	li	a2,81
   14e76:	85ca                	mv	a1,s2
   14e78:	00006097          	auipc	ra,0x6
   14e7c:	0fa080e7          	jalr	250(ra) # 1af72 <memcpy>
   14e80:	4501                	li	a0,0
   14e82:	b765                	j	14e2a <_ZN20complex_full_dynamic3app17hac5d38cc211d84a3E+0x9a>

00014e84 <_ZN20complex_full_dynamic3app17hadd6e4fd2d82935fE>:
   14e84:	7135                	addi	sp,sp,-160
   14e86:	cf06                	sw	ra,156(sp)
   14e88:	cd22                	sw	s0,152(sp)
   14e8a:	cb26                	sw	s1,148(sp)
   14e8c:	c94a                	sw	s2,144(sp)
   14e8e:	c74e                	sw	s3,140(sp)
   14e90:	89aa                	mv	s3,a0
   14e92:	4409                	li	s0,2
   14e94:	00810423          	sb	s0,8(sp)
   14e98:	0064                	addi	s1,sp,12
   14e9a:	04800613          	li	a2,72
   14e9e:	8526                	mv	a0,s1
   14ea0:	00006097          	auipc	ra,0x6
   14ea4:	0d2080e7          	jalr	210(ra) # 1af72 <memcpy>
   14ea8:	06010913          	addi	s2,sp,96
   14eac:	02900613          	li	a2,41
   14eb0:	854a                	mv	a0,s2
   14eb2:	4581                	li	a1,0
   14eb4:	00006097          	auipc	ra,0x6
   14eb8:	052080e7          	jalr	82(ra) # 1af06 <memset>
   14ebc:	8626                	mv	a2,s1
   14ebe:	04810e23          	sb	s0,92(sp)
   14ec2:	6509                	lui	a0,0x2
   14ec4:	448d                	li	s1,3
   14ec6:	4811                	li	a6,4
   14ec8:	458d                	li	a1,3
   14eca:	6a450793          	addi	a5,a0,1700 # 26a4 <.Lline_table_start1+0x2479>
   14ece:	04800693          	li	a3,72
   14ed2:	4711                	li	a4,4
   14ed4:	853e                	mv	a0,a5
   14ed6:	00000073          	ecall
   14eda:	04850363          	beq	a0,s0,14f20 <_ZN20complex_full_dynamic3app17hadd6e4fd2d82935fE+0x9c>
   14ede:	c03e                	sw	a5,0(sp)
   14ee0:	c226                	sw	s1,4(sp)
   14ee2:	01010423          	sb	a6,8(sp)
   14ee6:	4591                	li	a1,4
   14ee8:	02900693          	li	a3,41
   14eec:	470d                	li	a4,3
   14eee:	853e                	mv	a0,a5
   14ef0:	864a                	mv	a2,s2
   14ef2:	00000073          	ecall
   14ef6:	02850563          	beq	a0,s0,14f20 <_ZN20complex_full_dynamic3app17hadd6e4fd2d82935fE+0x9c>
   14efa:	4511                	li	a0,4
   14efc:	468d                	li	a3,3
   14efe:	6709                	lui	a4,0x2
   14f00:	458d                	li	a1,3
   14f02:	4611                	li	a2,4
   14f04:	cabe                	sw	a5,84(sp)
   14f06:	ccaa                	sw	a0,88(sp)
   14f08:	04d10e23          	sb	a3,92(sp)
   14f0c:	6a470513          	addi	a0,a4,1700 # 26a4 <.Lline_table_start1+0x2479>
   14f10:	4709                	li	a4,2
   14f12:	07f00793          	li	a5,127
   14f16:	4681                	li	a3,0
   14f18:	00000073          	ecall
   14f1c:	02a7e863          	bltu	a5,a0,14f4c <_ZN20complex_full_dynamic3app17hadd6e4fd2d82935fE+0xc8>
   14f20:	00b9a223          	sw	a1,4(s3)
   14f24:	4505                	li	a0,1
   14f26:	00a98023          	sb	a0,0(s3)
   14f2a:	08c8                	addi	a0,sp,84
   14f2c:	00006097          	auipc	ra,0x6
   14f30:	fba080e7          	jalr	-70(ra) # 1aee6 <_ZN9allow_pin12full_dynamic17unshare_if_shared17h3ae8596986353d28E>
   14f34:	850a                	mv	a0,sp
   14f36:	00006097          	auipc	ra,0x6
   14f3a:	fb0080e7          	jalr	-80(ra) # 1aee6 <_ZN9allow_pin12full_dynamic17unshare_if_shared17h3ae8596986353d28E>
   14f3e:	40fa                	lw	ra,156(sp)
   14f40:	446a                	lw	s0,152(sp)
   14f42:	44da                	lw	s1,148(sp)
   14f44:	494a                	lw	s2,144(sp)
   14f46:	49ba                	lw	s3,140(sp)
   14f48:	610d                	addi	sp,sp,160
   14f4a:	8082                	ret
   14f4c:	850a                	mv	a0,sp
   14f4e:	00006097          	auipc	ra,0x6
   14f52:	f98080e7          	jalr	-104(ra) # 1aee6 <_ZN9allow_pin12full_dynamic17unshare_if_shared17h3ae8596986353d28E>
   14f56:	08c8                	addi	a0,sp,84
   14f58:	00006097          	auipc	ra,0x6
   14f5c:	f8e080e7          	jalr	-114(ra) # 1aee6 <_ZN9allow_pin12full_dynamic17unshare_if_shared17h3ae8596986353d28E>
   14f60:	08c8                	addi	a0,sp,84
   14f62:	00006097          	auipc	ra,0x6
   14f66:	f84080e7          	jalr	-124(ra) # 1aee6 <_ZN9allow_pin12full_dynamic17unshare_if_shared17h3ae8596986353d28E>
   14f6a:	00198513          	addi	a0,s3,1
   14f6e:	02900613          	li	a2,41
   14f72:	85ca                	mv	a1,s2
   14f74:	00006097          	auipc	ra,0x6
   14f78:	ffe080e7          	jalr	-2(ra) # 1af72 <memcpy>
   14f7c:	4501                	li	a0,0
   14f7e:	b765                	j	14f26 <_ZN20complex_full_dynamic3app17hadd6e4fd2d82935fE+0xa2>

00014f80 <_ZN20complex_full_dynamic3app17haf66a5350c367c0bE>:
   14f80:	7175                	addi	sp,sp,-144
   14f82:	c706                	sw	ra,140(sp)
   14f84:	c522                	sw	s0,136(sp)
   14f86:	c326                	sw	s1,132(sp)
   14f88:	c14a                	sw	s2,128(sp)
   14f8a:	dece                	sw	s3,124(sp)
   14f8c:	89aa                	mv	s3,a0
   14f8e:	4409                	li	s0,2
   14f90:	00810a23          	sb	s0,20(sp)
   14f94:	0824                	addi	s1,sp,24
   14f96:	02c00613          	li	a2,44
   14f9a:	8526                	mv	a0,s1
   14f9c:	00006097          	auipc	ra,0x6
   14fa0:	fd6080e7          	jalr	-42(ra) # 1af72 <memcpy>
   14fa4:	05010913          	addi	s2,sp,80
   14fa8:	02a00613          	li	a2,42
   14fac:	854a                	mv	a0,s2
   14fae:	4581                	li	a1,0
   14fb0:	00006097          	auipc	ra,0x6
   14fb4:	f56080e7          	jalr	-170(ra) # 1af06 <memset>
   14fb8:	8626                	mv	a2,s1
   14fba:	04810623          	sb	s0,76(sp)
   14fbe:	6509                	lui	a0,0x2
   14fc0:	448d                	li	s1,3
   14fc2:	4811                	li	a6,4
   14fc4:	458d                	li	a1,3
   14fc6:	4f050793          	addi	a5,a0,1264 # 24f0 <.Lline_table_start1+0x22c5>
   14fca:	02c00693          	li	a3,44
   14fce:	4711                	li	a4,4
   14fd0:	853e                	mv	a0,a5
   14fd2:	00000073          	ecall
   14fd6:	04850263          	beq	a0,s0,1501a <_ZN20complex_full_dynamic3app17haf66a5350c367c0bE+0x9a>
   14fda:	c63e                	sw	a5,12(sp)
   14fdc:	c826                	sw	s1,16(sp)
   14fde:	01010a23          	sb	a6,20(sp)
   14fe2:	02a00693          	li	a3,42
   14fe6:	470d                	li	a4,3
   14fe8:	853e                	mv	a0,a5
   14fea:	4581                	li	a1,0
   14fec:	864a                	mv	a2,s2
   14fee:	00000073          	ecall
   14ff2:	02850463          	beq	a0,s0,1501a <_ZN20complex_full_dynamic3app17haf66a5350c367c0bE+0x9a>
   14ff6:	450d                	li	a0,3
   14ff8:	6609                	lui	a2,0x2
   14ffa:	458d                	li	a1,3
   14ffc:	c2be                	sw	a5,68(sp)
   14ffe:	c482                	sw	zero,72(sp)
   15000:	04a10623          	sb	a0,76(sp)
   15004:	4f060513          	addi	a0,a2,1264 # 24f0 <.Lline_table_start1+0x22c5>
   15008:	4709                	li	a4,2
   1500a:	07f00793          	li	a5,127
   1500e:	4601                	li	a2,0
   15010:	4681                	li	a3,0
   15012:	00000073          	ecall
   15016:	02a7e863          	bltu	a5,a0,15046 <_ZN20complex_full_dynamic3app17haf66a5350c367c0bE+0xc6>
   1501a:	00b9a223          	sw	a1,4(s3)
   1501e:	4505                	li	a0,1
   15020:	00a98023          	sb	a0,0(s3)
   15024:	00c8                	addi	a0,sp,68
   15026:	00006097          	auipc	ra,0x6
   1502a:	ec0080e7          	jalr	-320(ra) # 1aee6 <_ZN9allow_pin12full_dynamic17unshare_if_shared17h3ae8596986353d28E>
   1502e:	0068                	addi	a0,sp,12
   15030:	00006097          	auipc	ra,0x6
   15034:	eb6080e7          	jalr	-330(ra) # 1aee6 <_ZN9allow_pin12full_dynamic17unshare_if_shared17h3ae8596986353d28E>
   15038:	40ba                	lw	ra,140(sp)
   1503a:	442a                	lw	s0,136(sp)
   1503c:	449a                	lw	s1,132(sp)
   1503e:	490a                	lw	s2,128(sp)
   15040:	59f6                	lw	s3,124(sp)
   15042:	6149                	addi	sp,sp,144
   15044:	8082                	ret
   15046:	0068                	addi	a0,sp,12
   15048:	00006097          	auipc	ra,0x6
   1504c:	e9e080e7          	jalr	-354(ra) # 1aee6 <_ZN9allow_pin12full_dynamic17unshare_if_shared17h3ae8596986353d28E>
   15050:	00c8                	addi	a0,sp,68
   15052:	00006097          	auipc	ra,0x6
   15056:	e94080e7          	jalr	-364(ra) # 1aee6 <_ZN9allow_pin12full_dynamic17unshare_if_shared17h3ae8596986353d28E>
   1505a:	00c8                	addi	a0,sp,68
   1505c:	00006097          	auipc	ra,0x6
   15060:	e8a080e7          	jalr	-374(ra) # 1aee6 <_ZN9allow_pin12full_dynamic17unshare_if_shared17h3ae8596986353d28E>
   15064:	00198513          	addi	a0,s3,1
   15068:	02a00613          	li	a2,42
   1506c:	85ca                	mv	a1,s2
   1506e:	00006097          	auipc	ra,0x6
   15072:	f04080e7          	jalr	-252(ra) # 1af72 <memcpy>
   15076:	4501                	li	a0,0
   15078:	b765                	j	15020 <_ZN20complex_full_dynamic3app17haf66a5350c367c0bE+0xa0>

0001507a <_ZN20complex_full_dynamic3app17hb278029c01d2bea1E>:
   1507a:	7135                	addi	sp,sp,-160
   1507c:	cf06                	sw	ra,156(sp)
   1507e:	cd22                	sw	s0,152(sp)
   15080:	cb26                	sw	s1,148(sp)
   15082:	c94a                	sw	s2,144(sp)
   15084:	c74e                	sw	s3,140(sp)
   15086:	89aa                	mv	s3,a0
   15088:	4409                	li	s0,2
   1508a:	00810a23          	sb	s0,20(sp)
   1508e:	0824                	addi	s1,sp,24
   15090:	04100613          	li	a2,65
   15094:	8526                	mv	a0,s1
   15096:	00006097          	auipc	ra,0x6
   1509a:	edc080e7          	jalr	-292(ra) # 1af72 <memcpy>
   1509e:	06810913          	addi	s2,sp,104
   150a2:	02200613          	li	a2,34
   150a6:	854a                	mv	a0,s2
   150a8:	4581                	li	a1,0
   150aa:	00006097          	auipc	ra,0x6
   150ae:	e5c080e7          	jalr	-420(ra) # 1af06 <memset>
   150b2:	8626                	mv	a2,s1
   150b4:	06810223          	sb	s0,100(sp)
   150b8:	6509                	lui	a0,0x2
   150ba:	4485                	li	s1,1
   150bc:	4811                	li	a6,4
   150be:	4585                	li	a1,1
   150c0:	47c50793          	addi	a5,a0,1148 # 247c <.Lline_table_start1+0x2251>
   150c4:	04100693          	li	a3,65
   150c8:	4711                	li	a4,4
   150ca:	853e                	mv	a0,a5
   150cc:	00000073          	ecall
   150d0:	04850263          	beq	a0,s0,15114 <_ZN20complex_full_dynamic3app17hb278029c01d2bea1E+0x9a>
   150d4:	853e                	mv	a0,a5
   150d6:	4581                	li	a1,0
   150d8:	864a                	mv	a2,s2
   150da:	c63e                	sw	a5,12(sp)
   150dc:	c826                	sw	s1,16(sp)
   150de:	01010a23          	sb	a6,20(sp)
   150e2:	448d                	li	s1,3
   150e4:	02200693          	li	a3,34
   150e8:	470d                	li	a4,3
   150ea:	00000073          	ecall
   150ee:	02850363          	beq	a0,s0,15114 <_ZN20complex_full_dynamic3app17hb278029c01d2bea1E+0x9a>
   150f2:	cebe                	sw	a5,92(sp)
   150f4:	d082                	sw	zero,96(sp)
   150f6:	06910223          	sb	s1,100(sp)
   150fa:	6509                	lui	a0,0x2
   150fc:	4585                	li	a1,1
   150fe:	47c50513          	addi	a0,a0,1148 # 247c <.Lline_table_start1+0x2251>
   15102:	4709                	li	a4,2
   15104:	07f00793          	li	a5,127
   15108:	4601                	li	a2,0
   1510a:	4681                	li	a3,0
   1510c:	00000073          	ecall
   15110:	02a7e863          	bltu	a5,a0,15140 <_ZN20complex_full_dynamic3app17hb278029c01d2bea1E+0xc6>
   15114:	00b9a223          	sw	a1,4(s3)
   15118:	4505                	li	a0,1
   1511a:	00a98023          	sb	a0,0(s3)
   1511e:	08e8                	addi	a0,sp,92
   15120:	00006097          	auipc	ra,0x6
   15124:	dc6080e7          	jalr	-570(ra) # 1aee6 <_ZN9allow_pin12full_dynamic17unshare_if_shared17h3ae8596986353d28E>
   15128:	0068                	addi	a0,sp,12
   1512a:	00006097          	auipc	ra,0x6
   1512e:	dbc080e7          	jalr	-580(ra) # 1aee6 <_ZN9allow_pin12full_dynamic17unshare_if_shared17h3ae8596986353d28E>
   15132:	40fa                	lw	ra,156(sp)
   15134:	446a                	lw	s0,152(sp)
   15136:	44da                	lw	s1,148(sp)
   15138:	494a                	lw	s2,144(sp)
   1513a:	49ba                	lw	s3,140(sp)
   1513c:	610d                	addi	sp,sp,160
   1513e:	8082                	ret
   15140:	0068                	addi	a0,sp,12
   15142:	00006097          	auipc	ra,0x6
   15146:	da4080e7          	jalr	-604(ra) # 1aee6 <_ZN9allow_pin12full_dynamic17unshare_if_shared17h3ae8596986353d28E>
   1514a:	08e8                	addi	a0,sp,92
   1514c:	00006097          	auipc	ra,0x6
   15150:	d9a080e7          	jalr	-614(ra) # 1aee6 <_ZN9allow_pin12full_dynamic17unshare_if_shared17h3ae8596986353d28E>
   15154:	08e8                	addi	a0,sp,92
   15156:	00006097          	auipc	ra,0x6
   1515a:	d90080e7          	jalr	-624(ra) # 1aee6 <_ZN9allow_pin12full_dynamic17unshare_if_shared17h3ae8596986353d28E>
   1515e:	00198513          	addi	a0,s3,1
   15162:	02200613          	li	a2,34
   15166:	85ca                	mv	a1,s2
   15168:	00006097          	auipc	ra,0x6
   1516c:	e0a080e7          	jalr	-502(ra) # 1af72 <memcpy>
   15170:	4501                	li	a0,0
   15172:	b765                	j	1511a <_ZN20complex_full_dynamic3app17hb278029c01d2bea1E+0xa0>

00015174 <_ZN20complex_full_dynamic3app17hb320f7cc0cdab317E>:
   15174:	7135                	addi	sp,sp,-160
   15176:	cf06                	sw	ra,156(sp)
   15178:	cd22                	sw	s0,152(sp)
   1517a:	cb26                	sw	s1,148(sp)
   1517c:	c94a                	sw	s2,144(sp)
   1517e:	c74e                	sw	s3,140(sp)
   15180:	892a                	mv	s2,a0
   15182:	4409                	li	s0,2
   15184:	00810823          	sb	s0,16(sp)
   15188:	0844                	addi	s1,sp,20
   1518a:	05500613          	li	a2,85
   1518e:	8526                	mv	a0,s1
   15190:	00006097          	auipc	ra,0x6
   15194:	de2080e7          	jalr	-542(ra) # 1af72 <memcpy>
   15198:	8626                	mv	a2,s1
   1519a:	c302                	sw	zero,132(sp)
   1519c:	08010423          	sb	zero,136(sp)
   151a0:	06810a23          	sb	s0,116(sp)
   151a4:	dc82                	sw	zero,120(sp)
   151a6:	de82                	sw	zero,124(sp)
   151a8:	c102                	sw	zero,128(sp)
   151aa:	6505                	lui	a0,0x1
   151ac:	4491                	li	s1,4
   151ae:	4589                	li	a1,2
   151b0:	c8950793          	addi	a5,a0,-887 # c89 <.Lline_table_start1+0xa5e>
   151b4:	05500693          	li	a3,85
   151b8:	4711                	li	a4,4
   151ba:	853e                	mv	a0,a5
   151bc:	00000073          	ecall
   151c0:	04850463          	beq	a0,s0,15208 <_ZN20complex_full_dynamic3app17hb320f7cc0cdab317E+0x94>
   151c4:	853e                	mv	a0,a5
   151c6:	07810993          	addi	s3,sp,120
   151ca:	c43e                	sw	a5,8(sp)
   151cc:	c622                	sw	s0,12(sp)
   151ce:	00910823          	sb	s1,16(sp)
   151d2:	448d                	li	s1,3
   151d4:	4589                	li	a1,2
   151d6:	46c5                	li	a3,17
   151d8:	470d                	li	a4,3
   151da:	864e                	mv	a2,s3
   151dc:	00000073          	ecall
   151e0:	02850463          	beq	a0,s0,15208 <_ZN20complex_full_dynamic3app17hb320f7cc0cdab317E+0x94>
   151e4:	4509                	li	a0,2
   151e6:	6685                	lui	a3,0x1
   151e8:	4589                	li	a1,2
   151ea:	4609                	li	a2,2
   151ec:	d6be                	sw	a5,108(sp)
   151ee:	d8aa                	sw	a0,112(sp)
   151f0:	06910a23          	sb	s1,116(sp)
   151f4:	c8968513          	addi	a0,a3,-887 # c89 <.Lline_table_start1+0xa5e>
   151f8:	4709                	li	a4,2
   151fa:	07f00793          	li	a5,127
   151fe:	4681                	li	a3,0
   15200:	00000073          	ecall
   15204:	02a7e863          	bltu	a5,a0,15234 <_ZN20complex_full_dynamic3app17hb320f7cc0cdab317E+0xc0>
   15208:	00b92223          	sw	a1,4(s2)
   1520c:	4505                	li	a0,1
   1520e:	00a90023          	sb	a0,0(s2)
   15212:	10e8                	addi	a0,sp,108
   15214:	00006097          	auipc	ra,0x6
   15218:	cd2080e7          	jalr	-814(ra) # 1aee6 <_ZN9allow_pin12full_dynamic17unshare_if_shared17h3ae8596986353d28E>
   1521c:	0028                	addi	a0,sp,8
   1521e:	00006097          	auipc	ra,0x6
   15222:	cc8080e7          	jalr	-824(ra) # 1aee6 <_ZN9allow_pin12full_dynamic17unshare_if_shared17h3ae8596986353d28E>
   15226:	40fa                	lw	ra,156(sp)
   15228:	446a                	lw	s0,152(sp)
   1522a:	44da                	lw	s1,148(sp)
   1522c:	494a                	lw	s2,144(sp)
   1522e:	49ba                	lw	s3,140(sp)
   15230:	610d                	addi	sp,sp,160
   15232:	8082                	ret
   15234:	0028                	addi	a0,sp,8
   15236:	00006097          	auipc	ra,0x6
   1523a:	cb0080e7          	jalr	-848(ra) # 1aee6 <_ZN9allow_pin12full_dynamic17unshare_if_shared17h3ae8596986353d28E>
   1523e:	10e8                	addi	a0,sp,108
   15240:	00006097          	auipc	ra,0x6
   15244:	ca6080e7          	jalr	-858(ra) # 1aee6 <_ZN9allow_pin12full_dynamic17unshare_if_shared17h3ae8596986353d28E>
   15248:	10e8                	addi	a0,sp,108
   1524a:	00006097          	auipc	ra,0x6
   1524e:	c9c080e7          	jalr	-868(ra) # 1aee6 <_ZN9allow_pin12full_dynamic17unshare_if_shared17h3ae8596986353d28E>
   15252:	00190513          	addi	a0,s2,1
   15256:	4645                	li	a2,17
   15258:	85ce                	mv	a1,s3
   1525a:	00006097          	auipc	ra,0x6
   1525e:	d18080e7          	jalr	-744(ra) # 1af72 <memcpy>
   15262:	4501                	li	a0,0
   15264:	b76d                	j	1520e <_ZN20complex_full_dynamic3app17hb320f7cc0cdab317E+0x9a>

00015266 <_ZN20complex_full_dynamic3app17hb4b867df5ea095c4E>:
   15266:	7119                	addi	sp,sp,-128
   15268:	de86                	sw	ra,124(sp)
   1526a:	dca2                	sw	s0,120(sp)
   1526c:	daa6                	sw	s1,116(sp)
   1526e:	d8ca                	sw	s2,112(sp)
   15270:	d6ce                	sw	s3,108(sp)
   15272:	89aa                	mv	s3,a0
   15274:	4409                	li	s0,2
   15276:	00810423          	sb	s0,8(sp)
   1527a:	0064                	addi	s1,sp,12
   1527c:	4645                	li	a2,17
   1527e:	8526                	mv	a0,s1
   15280:	00006097          	auipc	ra,0x6
   15284:	cf2080e7          	jalr	-782(ra) # 1af72 <memcpy>
   15288:	02c10913          	addi	s2,sp,44
   1528c:	03f00613          	li	a2,63
   15290:	854a                	mv	a0,s2
   15292:	4581                	li	a1,0
   15294:	00006097          	auipc	ra,0x6
   15298:	c72080e7          	jalr	-910(ra) # 1af06 <memset>
   1529c:	8626                	mv	a2,s1
   1529e:	02810423          	sb	s0,40(sp)
   152a2:	6505                	lui	a0,0x1
   152a4:	449d                	li	s1,7
   152a6:	4811                	li	a6,4
   152a8:	459d                	li	a1,7
   152aa:	cb050793          	addi	a5,a0,-848 # cb0 <.Lline_table_start1+0xa85>
   152ae:	46c5                	li	a3,17
   152b0:	4711                	li	a4,4
   152b2:	853e                	mv	a0,a5
   152b4:	00000073          	ecall
   152b8:	04850363          	beq	a0,s0,152fe <_ZN20complex_full_dynamic3app17hb4b867df5ea095c4E+0x98>
   152bc:	853e                	mv	a0,a5
   152be:	864a                	mv	a2,s2
   152c0:	c03e                	sw	a5,0(sp)
   152c2:	c226                	sw	s1,4(sp)
   152c4:	01010423          	sb	a6,8(sp)
   152c8:	448d                	li	s1,3
   152ca:	4591                	li	a1,4
   152cc:	03f00693          	li	a3,63
   152d0:	470d                	li	a4,3
   152d2:	00000073          	ecall
   152d6:	02850463          	beq	a0,s0,152fe <_ZN20complex_full_dynamic3app17hb4b867df5ea095c4E+0x98>
   152da:	4511                	li	a0,4
   152dc:	6685                	lui	a3,0x1
   152de:	459d                	li	a1,7
   152e0:	4611                	li	a2,4
   152e2:	d03e                	sw	a5,32(sp)
   152e4:	d22a                	sw	a0,36(sp)
   152e6:	02910423          	sb	s1,40(sp)
   152ea:	cb068513          	addi	a0,a3,-848 # cb0 <.Lline_table_start1+0xa85>
   152ee:	4709                	li	a4,2
   152f0:	07f00793          	li	a5,127
   152f4:	4681                	li	a3,0
   152f6:	00000073          	ecall
   152fa:	02a7e863          	bltu	a5,a0,1532a <_ZN20complex_full_dynamic3app17hb4b867df5ea095c4E+0xc4>
   152fe:	00b9a223          	sw	a1,4(s3)
   15302:	4505                	li	a0,1
   15304:	00a98023          	sb	a0,0(s3)
   15308:	1008                	addi	a0,sp,32
   1530a:	00006097          	auipc	ra,0x6
   1530e:	bdc080e7          	jalr	-1060(ra) # 1aee6 <_ZN9allow_pin12full_dynamic17unshare_if_shared17h3ae8596986353d28E>
   15312:	850a                	mv	a0,sp
   15314:	00006097          	auipc	ra,0x6
   15318:	bd2080e7          	jalr	-1070(ra) # 1aee6 <_ZN9allow_pin12full_dynamic17unshare_if_shared17h3ae8596986353d28E>
   1531c:	50f6                	lw	ra,124(sp)
   1531e:	5466                	lw	s0,120(sp)
   15320:	54d6                	lw	s1,116(sp)
   15322:	5946                	lw	s2,112(sp)
   15324:	59b6                	lw	s3,108(sp)
   15326:	6109                	addi	sp,sp,128
   15328:	8082                	ret
   1532a:	850a                	mv	a0,sp
   1532c:	00006097          	auipc	ra,0x6
   15330:	bba080e7          	jalr	-1094(ra) # 1aee6 <_ZN9allow_pin12full_dynamic17unshare_if_shared17h3ae8596986353d28E>
   15334:	1008                	addi	a0,sp,32
   15336:	00006097          	auipc	ra,0x6
   1533a:	bb0080e7          	jalr	-1104(ra) # 1aee6 <_ZN9allow_pin12full_dynamic17unshare_if_shared17h3ae8596986353d28E>
   1533e:	1008                	addi	a0,sp,32
   15340:	00006097          	auipc	ra,0x6
   15344:	ba6080e7          	jalr	-1114(ra) # 1aee6 <_ZN9allow_pin12full_dynamic17unshare_if_shared17h3ae8596986353d28E>
   15348:	00198513          	addi	a0,s3,1
   1534c:	03f00613          	li	a2,63
   15350:	85ca                	mv	a1,s2
   15352:	00006097          	auipc	ra,0x6
   15356:	c20080e7          	jalr	-992(ra) # 1af72 <memcpy>
   1535a:	4501                	li	a0,0
   1535c:	b765                	j	15304 <_ZN20complex_full_dynamic3app17hb4b867df5ea095c4E+0x9e>

0001535e <_ZN20complex_full_dynamic3app17hb588d360c63fe67cE>:
   1535e:	711d                	addi	sp,sp,-96
   15360:	ce86                	sw	ra,92(sp)
   15362:	cca2                	sw	s0,88(sp)
   15364:	caa6                	sw	s1,84(sp)
   15366:	c8ca                	sw	s2,80(sp)
   15368:	c6ce                	sw	s3,76(sp)
   1536a:	89aa                	mv	s3,a0
   1536c:	4409                	li	s0,2
   1536e:	00810423          	sb	s0,8(sp)
   15372:	0064                	addi	s1,sp,12
   15374:	4635                	li	a2,13
   15376:	8526                	mv	a0,s1
   15378:	00006097          	auipc	ra,0x6
   1537c:	bfa080e7          	jalr	-1030(ra) # 1af72 <memcpy>
   15380:	02810913          	addi	s2,sp,40
   15384:	02100613          	li	a2,33
   15388:	854a                	mv	a0,s2
   1538a:	4581                	li	a1,0
   1538c:	00006097          	auipc	ra,0x6
   15390:	b7a080e7          	jalr	-1158(ra) # 1af06 <memset>
   15394:	4581                	li	a1,0
   15396:	8626                	mv	a2,s1
   15398:	02810223          	sb	s0,36(sp)
   1539c:	6505                	lui	a0,0x1
   1539e:	4491                	li	s1,4
   153a0:	6b050793          	addi	a5,a0,1712 # 16b0 <.Lline_table_start1+0x1485>
   153a4:	46b5                	li	a3,13
   153a6:	4711                	li	a4,4
   153a8:	853e                	mv	a0,a5
   153aa:	00000073          	ecall
   153ae:	04850263          	beq	a0,s0,153f2 <_ZN20complex_full_dynamic3app17hb588d360c63fe67cE+0x94>
   153b2:	853e                	mv	a0,a5
   153b4:	4581                	li	a1,0
   153b6:	864a                	mv	a2,s2
   153b8:	c03e                	sw	a5,0(sp)
   153ba:	c202                	sw	zero,4(sp)
   153bc:	00910423          	sb	s1,8(sp)
   153c0:	448d                	li	s1,3
   153c2:	02100693          	li	a3,33
   153c6:	470d                	li	a4,3
   153c8:	00000073          	ecall
   153cc:	02850363          	beq	a0,s0,153f2 <_ZN20complex_full_dynamic3app17hb588d360c63fe67cE+0x94>
   153d0:	ce3e                	sw	a5,28(sp)
   153d2:	d002                	sw	zero,32(sp)
   153d4:	02910223          	sb	s1,36(sp)
   153d8:	6505                	lui	a0,0x1
   153da:	6b050513          	addi	a0,a0,1712 # 16b0 <.Lline_table_start1+0x1485>
   153de:	4709                	li	a4,2
   153e0:	07f00793          	li	a5,127
   153e4:	4581                	li	a1,0
   153e6:	4601                	li	a2,0
   153e8:	4681                	li	a3,0
   153ea:	00000073          	ecall
   153ee:	02a7e863          	bltu	a5,a0,1541e <_ZN20complex_full_dynamic3app17hb588d360c63fe67cE+0xc0>
   153f2:	00b9a223          	sw	a1,4(s3)
   153f6:	4505                	li	a0,1
   153f8:	00a98023          	sb	a0,0(s3)
   153fc:	0868                	addi	a0,sp,28
   153fe:	00006097          	auipc	ra,0x6
   15402:	ae8080e7          	jalr	-1304(ra) # 1aee6 <_ZN9allow_pin12full_dynamic17unshare_if_shared17h3ae8596986353d28E>
   15406:	850a                	mv	a0,sp
   15408:	00006097          	auipc	ra,0x6
   1540c:	ade080e7          	jalr	-1314(ra) # 1aee6 <_ZN9allow_pin12full_dynamic17unshare_if_shared17h3ae8596986353d28E>
   15410:	40f6                	lw	ra,92(sp)
   15412:	4466                	lw	s0,88(sp)
   15414:	44d6                	lw	s1,84(sp)
   15416:	4946                	lw	s2,80(sp)
   15418:	49b6                	lw	s3,76(sp)
   1541a:	6125                	addi	sp,sp,96
   1541c:	8082                	ret
   1541e:	850a                	mv	a0,sp
   15420:	00006097          	auipc	ra,0x6
   15424:	ac6080e7          	jalr	-1338(ra) # 1aee6 <_ZN9allow_pin12full_dynamic17unshare_if_shared17h3ae8596986353d28E>
   15428:	0868                	addi	a0,sp,28
   1542a:	00006097          	auipc	ra,0x6
   1542e:	abc080e7          	jalr	-1348(ra) # 1aee6 <_ZN9allow_pin12full_dynamic17unshare_if_shared17h3ae8596986353d28E>
   15432:	0868                	addi	a0,sp,28
   15434:	00006097          	auipc	ra,0x6
   15438:	ab2080e7          	jalr	-1358(ra) # 1aee6 <_ZN9allow_pin12full_dynamic17unshare_if_shared17h3ae8596986353d28E>
   1543c:	00198513          	addi	a0,s3,1
   15440:	02100613          	li	a2,33
   15444:	85ca                	mv	a1,s2
   15446:	00006097          	auipc	ra,0x6
   1544a:	b2c080e7          	jalr	-1236(ra) # 1af72 <memcpy>
   1544e:	4501                	li	a0,0
   15450:	b765                	j	153f8 <_ZN20complex_full_dynamic3app17hb588d360c63fe67cE+0x9a>

00015452 <_ZN20complex_full_dynamic3app17hbdd5bdb9be28df4bE>:
   15452:	7119                	addi	sp,sp,-128
   15454:	de86                	sw	ra,124(sp)
   15456:	dca2                	sw	s0,120(sp)
   15458:	daa6                	sw	s1,116(sp)
   1545a:	d8ca                	sw	s2,112(sp)
   1545c:	d6ce                	sw	s3,108(sp)
   1545e:	89aa                	mv	s3,a0
   15460:	4409                	li	s0,2
   15462:	00810423          	sb	s0,8(sp)
   15466:	0064                	addi	s1,sp,12
   15468:	02c00613          	li	a2,44
   1546c:	8526                	mv	a0,s1
   1546e:	00006097          	auipc	ra,0x6
   15472:	b04080e7          	jalr	-1276(ra) # 1af72 <memcpy>
   15476:	04410913          	addi	s2,sp,68
   1547a:	02500613          	li	a2,37
   1547e:	854a                	mv	a0,s2
   15480:	4581                	li	a1,0
   15482:	00006097          	auipc	ra,0x6
   15486:	a84080e7          	jalr	-1404(ra) # 1af06 <memset>
   1548a:	8626                	mv	a2,s1
   1548c:	04810023          	sb	s0,64(sp)
   15490:	77f00793          	li	a5,1919
   15494:	448d                	li	s1,3
   15496:	4811                	li	a6,4
   15498:	77f00513          	li	a0,1919
   1549c:	458d                	li	a1,3
   1549e:	02c00693          	li	a3,44
   154a2:	4711                	li	a4,4
   154a4:	00000073          	ecall
   154a8:	04850463          	beq	a0,s0,154f0 <_ZN20complex_full_dynamic3app17hbdd5bdb9be28df4bE+0x9e>
   154ac:	c03e                	sw	a5,0(sp)
   154ae:	c226                	sw	s1,4(sp)
   154b0:	01010423          	sb	a6,8(sp)
   154b4:	77f00513          	li	a0,1919
   154b8:	02500693          	li	a3,37
   154bc:	470d                	li	a4,3
   154be:	4581                	li	a1,0
   154c0:	864a                	mv	a2,s2
   154c2:	00000073          	ecall
   154c6:	02850563          	beq	a0,s0,154f0 <_ZN20complex_full_dynamic3app17hbdd5bdb9be28df4bE+0x9e>
   154ca:	77f00613          	li	a2,1919
   154ce:	468d                	li	a3,3
   154d0:	77f00513          	li	a0,1919
   154d4:	458d                	li	a1,3
   154d6:	4709                	li	a4,2
   154d8:	07f00793          	li	a5,127
   154dc:	dc32                	sw	a2,56(sp)
   154de:	de02                	sw	zero,60(sp)
   154e0:	04d10023          	sb	a3,64(sp)
   154e4:	4601                	li	a2,0
   154e6:	4681                	li	a3,0
   154e8:	00000073          	ecall
   154ec:	02a7e863          	bltu	a5,a0,1551c <_ZN20complex_full_dynamic3app17hbdd5bdb9be28df4bE+0xca>
   154f0:	00b9a223          	sw	a1,4(s3)
   154f4:	4505                	li	a0,1
   154f6:	00a98023          	sb	a0,0(s3)
   154fa:	1828                	addi	a0,sp,56
   154fc:	00006097          	auipc	ra,0x6
   15500:	9ea080e7          	jalr	-1558(ra) # 1aee6 <_ZN9allow_pin12full_dynamic17unshare_if_shared17h3ae8596986353d28E>
   15504:	850a                	mv	a0,sp
   15506:	00006097          	auipc	ra,0x6
   1550a:	9e0080e7          	jalr	-1568(ra) # 1aee6 <_ZN9allow_pin12full_dynamic17unshare_if_shared17h3ae8596986353d28E>
   1550e:	50f6                	lw	ra,124(sp)
   15510:	5466                	lw	s0,120(sp)
   15512:	54d6                	lw	s1,116(sp)
   15514:	5946                	lw	s2,112(sp)
   15516:	59b6                	lw	s3,108(sp)
   15518:	6109                	addi	sp,sp,128
   1551a:	8082                	ret
   1551c:	850a                	mv	a0,sp
   1551e:	00006097          	auipc	ra,0x6
   15522:	9c8080e7          	jalr	-1592(ra) # 1aee6 <_ZN9allow_pin12full_dynamic17unshare_if_shared17h3ae8596986353d28E>
   15526:	1828                	addi	a0,sp,56
   15528:	00006097          	auipc	ra,0x6
   1552c:	9be080e7          	jalr	-1602(ra) # 1aee6 <_ZN9allow_pin12full_dynamic17unshare_if_shared17h3ae8596986353d28E>
   15530:	1828                	addi	a0,sp,56
   15532:	00006097          	auipc	ra,0x6
   15536:	9b4080e7          	jalr	-1612(ra) # 1aee6 <_ZN9allow_pin12full_dynamic17unshare_if_shared17h3ae8596986353d28E>
   1553a:	00198513          	addi	a0,s3,1
   1553e:	02500613          	li	a2,37
   15542:	85ca                	mv	a1,s2
   15544:	00006097          	auipc	ra,0x6
   15548:	a2e080e7          	jalr	-1490(ra) # 1af72 <memcpy>
   1554c:	4501                	li	a0,0
   1554e:	b765                	j	154f6 <_ZN20complex_full_dynamic3app17hbdd5bdb9be28df4bE+0xa4>

00015550 <_ZN20complex_full_dynamic3app17hc0c3d3bb5c5064d1E>:
   15550:	7119                	addi	sp,sp,-128
   15552:	de86                	sw	ra,124(sp)
   15554:	dca2                	sw	s0,120(sp)
   15556:	daa6                	sw	s1,116(sp)
   15558:	d8ca                	sw	s2,112(sp)
   1555a:	d6ce                	sw	s3,108(sp)
   1555c:	892a                	mv	s2,a0
   1555e:	4409                	li	s0,2
   15560:	00810a23          	sb	s0,20(sp)
   15564:	0824                	addi	s1,sp,24
   15566:	02900613          	li	a2,41
   1556a:	8526                	mv	a0,s1
   1556c:	00006097          	auipc	ra,0x6
   15570:	a06080e7          	jalr	-1530(ra) # 1af72 <memcpy>
   15574:	8626                	mv	a2,s1
   15576:	ce82                	sw	zero,92(sp)
   15578:	d082                	sw	zero,96(sp)
   1557a:	d282                	sw	zero,100(sp)
   1557c:	06011423          	sh	zero,104(sp)
   15580:	04810623          	sb	s0,76(sp)
   15584:	c882                	sw	zero,80(sp)
   15586:	ca82                	sw	zero,84(sp)
   15588:	cc82                	sw	zero,88(sp)
   1558a:	6509                	lui	a0,0x2
   1558c:	4495                	li	s1,5
   1558e:	4811                	li	a6,4
   15590:	4595                	li	a1,5
   15592:	04850793          	addi	a5,a0,72 # 2048 <.Lline_table_start1+0x1e1d>
   15596:	02900693          	li	a3,41
   1559a:	4711                	li	a4,4
   1559c:	853e                	mv	a0,a5
   1559e:	00000073          	ecall
   155a2:	04850363          	beq	a0,s0,155e8 <_ZN20complex_full_dynamic3app17hc0c3d3bb5c5064d1E+0x98>
   155a6:	853e                	mv	a0,a5
   155a8:	05010993          	addi	s3,sp,80
   155ac:	c63e                	sw	a5,12(sp)
   155ae:	c826                	sw	s1,16(sp)
   155b0:	01010a23          	sb	a6,20(sp)
   155b4:	448d                	li	s1,3
   155b6:	458d                	li	a1,3
   155b8:	46e9                	li	a3,26
   155ba:	470d                	li	a4,3
   155bc:	864e                	mv	a2,s3
   155be:	00000073          	ecall
   155c2:	02850363          	beq	a0,s0,155e8 <_ZN20complex_full_dynamic3app17hc0c3d3bb5c5064d1E+0x98>
   155c6:	c2be                	sw	a5,68(sp)
   155c8:	c4a6                	sw	s1,72(sp)
   155ca:	04910623          	sb	s1,76(sp)
   155ce:	6509                	lui	a0,0x2
   155d0:	4595                	li	a1,5
   155d2:	460d                	li	a2,3
   155d4:	04850513          	addi	a0,a0,72 # 2048 <.Lline_table_start1+0x1e1d>
   155d8:	4709                	li	a4,2
   155da:	07f00793          	li	a5,127
   155de:	4681                	li	a3,0
   155e0:	00000073          	ecall
   155e4:	02a7e863          	bltu	a5,a0,15614 <_ZN20complex_full_dynamic3app17hc0c3d3bb5c5064d1E+0xc4>
   155e8:	00b92223          	sw	a1,4(s2)
   155ec:	4505                	li	a0,1
   155ee:	00a90023          	sb	a0,0(s2)
   155f2:	00c8                	addi	a0,sp,68
   155f4:	00006097          	auipc	ra,0x6
   155f8:	8f2080e7          	jalr	-1806(ra) # 1aee6 <_ZN9allow_pin12full_dynamic17unshare_if_shared17h3ae8596986353d28E>
   155fc:	0068                	addi	a0,sp,12
   155fe:	00006097          	auipc	ra,0x6
   15602:	8e8080e7          	jalr	-1816(ra) # 1aee6 <_ZN9allow_pin12full_dynamic17unshare_if_shared17h3ae8596986353d28E>
   15606:	50f6                	lw	ra,124(sp)
   15608:	5466                	lw	s0,120(sp)
   1560a:	54d6                	lw	s1,116(sp)
   1560c:	5946                	lw	s2,112(sp)
   1560e:	59b6                	lw	s3,108(sp)
   15610:	6109                	addi	sp,sp,128
   15612:	8082                	ret
   15614:	0068                	addi	a0,sp,12
   15616:	00006097          	auipc	ra,0x6
   1561a:	8d0080e7          	jalr	-1840(ra) # 1aee6 <_ZN9allow_pin12full_dynamic17unshare_if_shared17h3ae8596986353d28E>
   1561e:	00c8                	addi	a0,sp,68
   15620:	00006097          	auipc	ra,0x6
   15624:	8c6080e7          	jalr	-1850(ra) # 1aee6 <_ZN9allow_pin12full_dynamic17unshare_if_shared17h3ae8596986353d28E>
   15628:	00c8                	addi	a0,sp,68
   1562a:	00006097          	auipc	ra,0x6
   1562e:	8bc080e7          	jalr	-1860(ra) # 1aee6 <_ZN9allow_pin12full_dynamic17unshare_if_shared17h3ae8596986353d28E>
   15632:	00190513          	addi	a0,s2,1
   15636:	4669                	li	a2,26
   15638:	85ce                	mv	a1,s3
   1563a:	00006097          	auipc	ra,0x6
   1563e:	938080e7          	jalr	-1736(ra) # 1af72 <memcpy>
   15642:	4501                	li	a0,0
   15644:	b76d                	j	155ee <_ZN20complex_full_dynamic3app17hc0c3d3bb5c5064d1E+0x9e>

00015646 <_ZN20complex_full_dynamic3app17hc5bcbe742c077244E>:
   15646:	7159                	addi	sp,sp,-112
   15648:	d686                	sw	ra,108(sp)
   1564a:	d4a2                	sw	s0,104(sp)
   1564c:	d2a6                	sw	s1,100(sp)
   1564e:	d0ca                	sw	s2,96(sp)
   15650:	cece                	sw	s3,92(sp)
   15652:	89aa                	mv	s3,a0
   15654:	4409                	li	s0,2
   15656:	00810423          	sb	s0,8(sp)
   1565a:	0064                	addi	s1,sp,12
   1565c:	4679                	li	a2,30
   1565e:	8526                	mv	a0,s1
   15660:	00006097          	auipc	ra,0x6
   15664:	912080e7          	jalr	-1774(ra) # 1af72 <memcpy>
   15668:	03810913          	addi	s2,sp,56
   1566c:	02100613          	li	a2,33
   15670:	854a                	mv	a0,s2
   15672:	4581                	li	a1,0
   15674:	00006097          	auipc	ra,0x6
   15678:	892080e7          	jalr	-1902(ra) # 1af06 <memset>
   1567c:	8626                	mv	a2,s1
   1567e:	02810a23          	sb	s0,52(sp)
   15682:	6509                	lui	a0,0x2
   15684:	4499                	li	s1,6
   15686:	4811                	li	a6,4
   15688:	4599                	li	a1,6
   1568a:	9b550793          	addi	a5,a0,-1611 # 19b5 <.Lline_table_start1+0x178a>
   1568e:	46f9                	li	a3,30
   15690:	4711                	li	a4,4
   15692:	853e                	mv	a0,a5
   15694:	00000073          	ecall
   15698:	04850363          	beq	a0,s0,156de <_ZN20complex_full_dynamic3app17hc5bcbe742c077244E+0x98>
   1569c:	853e                	mv	a0,a5
   1569e:	864a                	mv	a2,s2
   156a0:	c03e                	sw	a5,0(sp)
   156a2:	c226                	sw	s1,4(sp)
   156a4:	01010423          	sb	a6,8(sp)
   156a8:	44a5                	li	s1,9
   156aa:	480d                	li	a6,3
   156ac:	45a5                	li	a1,9
   156ae:	02100693          	li	a3,33
   156b2:	470d                	li	a4,3
   156b4:	00000073          	ecall
   156b8:	02850363          	beq	a0,s0,156de <_ZN20complex_full_dynamic3app17hc5bcbe742c077244E+0x98>
   156bc:	d63e                	sw	a5,44(sp)
   156be:	d826                	sw	s1,48(sp)
   156c0:	03010a23          	sb	a6,52(sp)
   156c4:	6509                	lui	a0,0x2
   156c6:	4599                	li	a1,6
   156c8:	4625                	li	a2,9
   156ca:	9b550513          	addi	a0,a0,-1611 # 19b5 <.Lline_table_start1+0x178a>
   156ce:	4709                	li	a4,2
   156d0:	07f00793          	li	a5,127
   156d4:	4681                	li	a3,0
   156d6:	00000073          	ecall
   156da:	02a7e863          	bltu	a5,a0,1570a <_ZN20complex_full_dynamic3app17hc5bcbe742c077244E+0xc4>
   156de:	00b9a223          	sw	a1,4(s3)
   156e2:	4505                	li	a0,1
   156e4:	00a98023          	sb	a0,0(s3)
   156e8:	1068                	addi	a0,sp,44
   156ea:	00005097          	auipc	ra,0x5
   156ee:	7fc080e7          	jalr	2044(ra) # 1aee6 <_ZN9allow_pin12full_dynamic17unshare_if_shared17h3ae8596986353d28E>
   156f2:	850a                	mv	a0,sp
   156f4:	00005097          	auipc	ra,0x5
   156f8:	7f2080e7          	jalr	2034(ra) # 1aee6 <_ZN9allow_pin12full_dynamic17unshare_if_shared17h3ae8596986353d28E>
   156fc:	50b6                	lw	ra,108(sp)
   156fe:	5426                	lw	s0,104(sp)
   15700:	5496                	lw	s1,100(sp)
   15702:	5906                	lw	s2,96(sp)
   15704:	49f6                	lw	s3,92(sp)
   15706:	6165                	addi	sp,sp,112
   15708:	8082                	ret
   1570a:	850a                	mv	a0,sp
   1570c:	00005097          	auipc	ra,0x5
   15710:	7da080e7          	jalr	2010(ra) # 1aee6 <_ZN9allow_pin12full_dynamic17unshare_if_shared17h3ae8596986353d28E>
   15714:	1068                	addi	a0,sp,44
   15716:	00005097          	auipc	ra,0x5
   1571a:	7d0080e7          	jalr	2000(ra) # 1aee6 <_ZN9allow_pin12full_dynamic17unshare_if_shared17h3ae8596986353d28E>
   1571e:	1068                	addi	a0,sp,44
   15720:	00005097          	auipc	ra,0x5
   15724:	7c6080e7          	jalr	1990(ra) # 1aee6 <_ZN9allow_pin12full_dynamic17unshare_if_shared17h3ae8596986353d28E>
   15728:	00198513          	addi	a0,s3,1
   1572c:	02100613          	li	a2,33
   15730:	85ca                	mv	a1,s2
   15732:	00006097          	auipc	ra,0x6
   15736:	840080e7          	jalr	-1984(ra) # 1af72 <memcpy>
   1573a:	4501                	li	a0,0
   1573c:	b765                	j	156e4 <_ZN20complex_full_dynamic3app17hc5bcbe742c077244E+0x9e>

0001573e <_ZN20complex_full_dynamic3app17hc6d73a41d38d3ed5E>:
   1573e:	7175                	addi	sp,sp,-144
   15740:	c706                	sw	ra,140(sp)
   15742:	c522                	sw	s0,136(sp)
   15744:	c326                	sw	s1,132(sp)
   15746:	c14a                	sw	s2,128(sp)
   15748:	dece                	sw	s3,124(sp)
   1574a:	89aa                	mv	s3,a0
   1574c:	4409                	li	s0,2
   1574e:	00810623          	sb	s0,12(sp)
   15752:	0804                	addi	s1,sp,16
   15754:	466d                	li	a2,27
   15756:	8526                	mv	a0,s1
   15758:	00006097          	auipc	ra,0x6
   1575c:	81a080e7          	jalr	-2022(ra) # 1af72 <memcpy>
   15760:	03810913          	addi	s2,sp,56
   15764:	04100613          	li	a2,65
   15768:	854a                	mv	a0,s2
   1576a:	4581                	li	a1,0
   1576c:	00005097          	auipc	ra,0x5
   15770:	79a080e7          	jalr	1946(ra) # 1af06 <memset>
   15774:	8626                	mv	a2,s1
   15776:	02810a23          	sb	s0,52(sp)
   1577a:	14000793          	li	a5,320
   1577e:	44a1                	li	s1,8
   15780:	4811                	li	a6,4
   15782:	14000513          	li	a0,320
   15786:	45a1                	li	a1,8
   15788:	46ed                	li	a3,27
   1578a:	4711                	li	a4,4
   1578c:	00000073          	ecall
   15790:	04850563          	beq	a0,s0,157da <_ZN20complex_full_dynamic3app17hc6d73a41d38d3ed5E+0x9c>
   15794:	864a                	mv	a2,s2
   15796:	c23e                	sw	a5,4(sp)
   15798:	c426                	sw	s1,8(sp)
   1579a:	01010623          	sb	a6,12(sp)
   1579e:	47a5                	li	a5,9
   157a0:	448d                	li	s1,3
   157a2:	14000513          	li	a0,320
   157a6:	45a5                	li	a1,9
   157a8:	04100693          	li	a3,65
   157ac:	470d                	li	a4,3
   157ae:	00000073          	ecall
   157b2:	02850463          	beq	a0,s0,157da <_ZN20complex_full_dynamic3app17hc6d73a41d38d3ed5E+0x9c>
   157b6:	14000693          	li	a3,320
   157ba:	14000513          	li	a0,320
   157be:	45a1                	li	a1,8
   157c0:	4625                	li	a2,9
   157c2:	4709                	li	a4,2
   157c4:	07f00413          	li	s0,127
   157c8:	d636                	sw	a3,44(sp)
   157ca:	d83e                	sw	a5,48(sp)
   157cc:	02910a23          	sb	s1,52(sp)
   157d0:	4681                	li	a3,0
   157d2:	00000073          	ecall
   157d6:	02a46863          	bltu	s0,a0,15806 <_ZN20complex_full_dynamic3app17hc6d73a41d38d3ed5E+0xc8>
   157da:	00b9a223          	sw	a1,4(s3)
   157de:	4505                	li	a0,1
   157e0:	00a98023          	sb	a0,0(s3)
   157e4:	1068                	addi	a0,sp,44
   157e6:	00005097          	auipc	ra,0x5
   157ea:	700080e7          	jalr	1792(ra) # 1aee6 <_ZN9allow_pin12full_dynamic17unshare_if_shared17h3ae8596986353d28E>
   157ee:	0048                	addi	a0,sp,4
   157f0:	00005097          	auipc	ra,0x5
   157f4:	6f6080e7          	jalr	1782(ra) # 1aee6 <_ZN9allow_pin12full_dynamic17unshare_if_shared17h3ae8596986353d28E>
   157f8:	40ba                	lw	ra,140(sp)
   157fa:	442a                	lw	s0,136(sp)
   157fc:	449a                	lw	s1,132(sp)
   157fe:	490a                	lw	s2,128(sp)
   15800:	59f6                	lw	s3,124(sp)
   15802:	6149                	addi	sp,sp,144
   15804:	8082                	ret
   15806:	0048                	addi	a0,sp,4
   15808:	00005097          	auipc	ra,0x5
   1580c:	6de080e7          	jalr	1758(ra) # 1aee6 <_ZN9allow_pin12full_dynamic17unshare_if_shared17h3ae8596986353d28E>
   15810:	1068                	addi	a0,sp,44
   15812:	00005097          	auipc	ra,0x5
   15816:	6d4080e7          	jalr	1748(ra) # 1aee6 <_ZN9allow_pin12full_dynamic17unshare_if_shared17h3ae8596986353d28E>
   1581a:	1068                	addi	a0,sp,44
   1581c:	00005097          	auipc	ra,0x5
   15820:	6ca080e7          	jalr	1738(ra) # 1aee6 <_ZN9allow_pin12full_dynamic17unshare_if_shared17h3ae8596986353d28E>
   15824:	00198513          	addi	a0,s3,1
   15828:	04100613          	li	a2,65
   1582c:	85ca                	mv	a1,s2
   1582e:	00005097          	auipc	ra,0x5
   15832:	744080e7          	jalr	1860(ra) # 1af72 <memcpy>
   15836:	4501                	li	a0,0
   15838:	b765                	j	157e0 <_ZN20complex_full_dynamic3app17hc6d73a41d38d3ed5E+0xa2>

0001583a <_ZN20complex_full_dynamic3app17hccf9113eaf109e13E>:
   1583a:	7135                	addi	sp,sp,-160
   1583c:	cf06                	sw	ra,156(sp)
   1583e:	cd22                	sw	s0,152(sp)
   15840:	cb26                	sw	s1,148(sp)
   15842:	c94a                	sw	s2,144(sp)
   15844:	c74e                	sw	s3,140(sp)
   15846:	892a                	mv	s2,a0
   15848:	4409                	li	s0,2
   1584a:	00810423          	sb	s0,8(sp)
   1584e:	0064                	addi	s1,sp,12
   15850:	05d00613          	li	a2,93
   15854:	8526                	mv	a0,s1
   15856:	00005097          	auipc	ra,0x5
   1585a:	71c080e7          	jalr	1820(ra) # 1af72 <memcpy>
   1585e:	4581                	li	a1,0
   15860:	8626                	mv	a2,s1
   15862:	c302                	sw	zero,132(sp)
   15864:	08011423          	sh	zero,136(sp)
   15868:	06810a23          	sb	s0,116(sp)
   1586c:	dc82                	sw	zero,120(sp)
   1586e:	de82                	sw	zero,124(sp)
   15870:	c102                	sw	zero,128(sp)
   15872:	6505                	lui	a0,0x1
   15874:	4491                	li	s1,4
   15876:	5f150793          	addi	a5,a0,1521 # 15f1 <.Lline_table_start1+0x13c6>
   1587a:	05d00693          	li	a3,93
   1587e:	4711                	li	a4,4
   15880:	853e                	mv	a0,a5
   15882:	00000073          	ecall
   15886:	04850463          	beq	a0,s0,158ce <_ZN20complex_full_dynamic3app17hccf9113eaf109e13E+0x94>
   1588a:	853e                	mv	a0,a5
   1588c:	07810993          	addi	s3,sp,120
   15890:	c03e                	sw	a5,0(sp)
   15892:	c202                	sw	zero,4(sp)
   15894:	00910423          	sb	s1,8(sp)
   15898:	448d                	li	s1,3
   1589a:	4589                	li	a1,2
   1589c:	46c9                	li	a3,18
   1589e:	470d                	li	a4,3
   158a0:	864e                	mv	a2,s3
   158a2:	00000073          	ecall
   158a6:	02850463          	beq	a0,s0,158ce <_ZN20complex_full_dynamic3app17hccf9113eaf109e13E+0x94>
   158aa:	4509                	li	a0,2
   158ac:	6585                	lui	a1,0x1
   158ae:	4609                	li	a2,2
   158b0:	d6be                	sw	a5,108(sp)
   158b2:	d8aa                	sw	a0,112(sp)
   158b4:	06910a23          	sb	s1,116(sp)
   158b8:	5f158513          	addi	a0,a1,1521 # 15f1 <.Lline_table_start1+0x13c6>
   158bc:	4709                	li	a4,2
   158be:	07f00793          	li	a5,127
   158c2:	4581                	li	a1,0
   158c4:	4681                	li	a3,0
   158c6:	00000073          	ecall
   158ca:	02a7e863          	bltu	a5,a0,158fa <_ZN20complex_full_dynamic3app17hccf9113eaf109e13E+0xc0>
   158ce:	00b92223          	sw	a1,4(s2)
   158d2:	4505                	li	a0,1
   158d4:	00a90023          	sb	a0,0(s2)
   158d8:	10e8                	addi	a0,sp,108
   158da:	00005097          	auipc	ra,0x5
   158de:	60c080e7          	jalr	1548(ra) # 1aee6 <_ZN9allow_pin12full_dynamic17unshare_if_shared17h3ae8596986353d28E>
   158e2:	850a                	mv	a0,sp
   158e4:	00005097          	auipc	ra,0x5
   158e8:	602080e7          	jalr	1538(ra) # 1aee6 <_ZN9allow_pin12full_dynamic17unshare_if_shared17h3ae8596986353d28E>
   158ec:	40fa                	lw	ra,156(sp)
   158ee:	446a                	lw	s0,152(sp)
   158f0:	44da                	lw	s1,148(sp)
   158f2:	494a                	lw	s2,144(sp)
   158f4:	49ba                	lw	s3,140(sp)
   158f6:	610d                	addi	sp,sp,160
   158f8:	8082                	ret
   158fa:	850a                	mv	a0,sp
   158fc:	00005097          	auipc	ra,0x5
   15900:	5ea080e7          	jalr	1514(ra) # 1aee6 <_ZN9allow_pin12full_dynamic17unshare_if_shared17h3ae8596986353d28E>
   15904:	10e8                	addi	a0,sp,108
   15906:	00005097          	auipc	ra,0x5
   1590a:	5e0080e7          	jalr	1504(ra) # 1aee6 <_ZN9allow_pin12full_dynamic17unshare_if_shared17h3ae8596986353d28E>
   1590e:	10e8                	addi	a0,sp,108
   15910:	00005097          	auipc	ra,0x5
   15914:	5d6080e7          	jalr	1494(ra) # 1aee6 <_ZN9allow_pin12full_dynamic17unshare_if_shared17h3ae8596986353d28E>
   15918:	00190513          	addi	a0,s2,1
   1591c:	4649                	li	a2,18
   1591e:	85ce                	mv	a1,s3
   15920:	00005097          	auipc	ra,0x5
   15924:	652080e7          	jalr	1618(ra) # 1af72 <memcpy>
   15928:	4501                	li	a0,0
   1592a:	b76d                	j	158d4 <_ZN20complex_full_dynamic3app17hccf9113eaf109e13E+0x9a>

0001592c <_ZN20complex_full_dynamic3app17hce6a759c8d31d64aE>:
   1592c:	7119                	addi	sp,sp,-128
   1592e:	de86                	sw	ra,124(sp)
   15930:	dca2                	sw	s0,120(sp)
   15932:	daa6                	sw	s1,116(sp)
   15934:	d8ca                	sw	s2,112(sp)
   15936:	d6ce                	sw	s3,108(sp)
   15938:	89aa                	mv	s3,a0
   1593a:	4409                	li	s0,2
   1593c:	00810423          	sb	s0,8(sp)
   15940:	0064                	addi	s1,sp,12
   15942:	02c00613          	li	a2,44
   15946:	8526                	mv	a0,s1
   15948:	00005097          	auipc	ra,0x5
   1594c:	62a080e7          	jalr	1578(ra) # 1af72 <memcpy>
   15950:	04410913          	addi	s2,sp,68
   15954:	02700613          	li	a2,39
   15958:	854a                	mv	a0,s2
   1595a:	4581                	li	a1,0
   1595c:	00005097          	auipc	ra,0x5
   15960:	5aa080e7          	jalr	1450(ra) # 1af06 <memset>
   15964:	8626                	mv	a2,s1
   15966:	04810023          	sb	s0,64(sp)
   1596a:	6505                	lui	a0,0x1
   1596c:	4491                	li	s1,4
   1596e:	4591                	li	a1,4
   15970:	1b550793          	addi	a5,a0,437 # 11b5 <.Lline_table_start1+0xf8a>
   15974:	02c00693          	li	a3,44
   15978:	4711                	li	a4,4
   1597a:	853e                	mv	a0,a5
   1597c:	00000073          	ecall
   15980:	04850263          	beq	a0,s0,159c4 <_ZN20complex_full_dynamic3app17hce6a759c8d31d64aE+0x98>
   15984:	853e                	mv	a0,a5
   15986:	864a                	mv	a2,s2
   15988:	c03e                	sw	a5,0(sp)
   1598a:	c226                	sw	s1,4(sp)
   1598c:	00910423          	sb	s1,8(sp)
   15990:	448d                	li	s1,3
   15992:	458d                	li	a1,3
   15994:	02700693          	li	a3,39
   15998:	470d                	li	a4,3
   1599a:	00000073          	ecall
   1599e:	02850363          	beq	a0,s0,159c4 <_ZN20complex_full_dynamic3app17hce6a759c8d31d64aE+0x98>
   159a2:	dc3e                	sw	a5,56(sp)
   159a4:	de26                	sw	s1,60(sp)
   159a6:	04910023          	sb	s1,64(sp)
   159aa:	6505                	lui	a0,0x1
   159ac:	4591                	li	a1,4
   159ae:	460d                	li	a2,3
   159b0:	1b550513          	addi	a0,a0,437 # 11b5 <.Lline_table_start1+0xf8a>
   159b4:	4709                	li	a4,2
   159b6:	07f00793          	li	a5,127
   159ba:	4681                	li	a3,0
   159bc:	00000073          	ecall
   159c0:	02a7e863          	bltu	a5,a0,159f0 <_ZN20complex_full_dynamic3app17hce6a759c8d31d64aE+0xc4>
   159c4:	00b9a223          	sw	a1,4(s3)
   159c8:	4505                	li	a0,1
   159ca:	00a98023          	sb	a0,0(s3)
   159ce:	1828                	addi	a0,sp,56
   159d0:	00005097          	auipc	ra,0x5
   159d4:	516080e7          	jalr	1302(ra) # 1aee6 <_ZN9allow_pin12full_dynamic17unshare_if_shared17h3ae8596986353d28E>
   159d8:	850a                	mv	a0,sp
   159da:	00005097          	auipc	ra,0x5
   159de:	50c080e7          	jalr	1292(ra) # 1aee6 <_ZN9allow_pin12full_dynamic17unshare_if_shared17h3ae8596986353d28E>
   159e2:	50f6                	lw	ra,124(sp)
   159e4:	5466                	lw	s0,120(sp)
   159e6:	54d6                	lw	s1,116(sp)
   159e8:	5946                	lw	s2,112(sp)
   159ea:	59b6                	lw	s3,108(sp)
   159ec:	6109                	addi	sp,sp,128
   159ee:	8082                	ret
   159f0:	850a                	mv	a0,sp
   159f2:	00005097          	auipc	ra,0x5
   159f6:	4f4080e7          	jalr	1268(ra) # 1aee6 <_ZN9allow_pin12full_dynamic17unshare_if_shared17h3ae8596986353d28E>
   159fa:	1828                	addi	a0,sp,56
   159fc:	00005097          	auipc	ra,0x5
   15a00:	4ea080e7          	jalr	1258(ra) # 1aee6 <_ZN9allow_pin12full_dynamic17unshare_if_shared17h3ae8596986353d28E>
   15a04:	1828                	addi	a0,sp,56
   15a06:	00005097          	auipc	ra,0x5
   15a0a:	4e0080e7          	jalr	1248(ra) # 1aee6 <_ZN9allow_pin12full_dynamic17unshare_if_shared17h3ae8596986353d28E>
   15a0e:	00198513          	addi	a0,s3,1
   15a12:	02700613          	li	a2,39
   15a16:	85ca                	mv	a1,s2
   15a18:	00005097          	auipc	ra,0x5
   15a1c:	55a080e7          	jalr	1370(ra) # 1af72 <memcpy>
   15a20:	4501                	li	a0,0
   15a22:	b765                	j	159ca <_ZN20complex_full_dynamic3app17hce6a759c8d31d64aE+0x9e>

00015a24 <_ZN20complex_full_dynamic3app17hce9278bc9c8aea50E>:
   15a24:	7131                	addi	sp,sp,-192
   15a26:	df06                	sw	ra,188(sp)
   15a28:	dd22                	sw	s0,184(sp)
   15a2a:	db26                	sw	s1,180(sp)
   15a2c:	d94a                	sw	s2,176(sp)
   15a2e:	d74e                	sw	s3,172(sp)
   15a30:	89aa                	mv	s3,a0
   15a32:	4409                	li	s0,2
   15a34:	00810a23          	sb	s0,20(sp)
   15a38:	0824                	addi	s1,sp,24
   15a3a:	02a00613          	li	a2,42
   15a3e:	8526                	mv	a0,s1
   15a40:	00005097          	auipc	ra,0x5
   15a44:	532080e7          	jalr	1330(ra) # 1af72 <memcpy>
   15a48:	05010913          	addi	s2,sp,80
   15a4c:	05900613          	li	a2,89
   15a50:	854a                	mv	a0,s2
   15a52:	4581                	li	a1,0
   15a54:	00005097          	auipc	ra,0x5
   15a58:	4b2080e7          	jalr	1202(ra) # 1af06 <memset>
   15a5c:	8626                	mv	a2,s1
   15a5e:	04810623          	sb	s0,76(sp)
   15a62:	6505                	lui	a0,0x1
   15a64:	4485                	li	s1,1
   15a66:	4811                	li	a6,4
   15a68:	4585                	li	a1,1
   15a6a:	ed250793          	addi	a5,a0,-302 # ed2 <.Lline_table_start1+0xca7>
   15a6e:	02a00693          	li	a3,42
   15a72:	4711                	li	a4,4
   15a74:	853e                	mv	a0,a5
   15a76:	00000073          	ecall
   15a7a:	04850263          	beq	a0,s0,15abe <_ZN20complex_full_dynamic3app17hce9278bc9c8aea50E+0x9a>
   15a7e:	853e                	mv	a0,a5
   15a80:	864a                	mv	a2,s2
   15a82:	c63e                	sw	a5,12(sp)
   15a84:	c826                	sw	s1,16(sp)
   15a86:	01010a23          	sb	a6,20(sp)
   15a8a:	448d                	li	s1,3
   15a8c:	458d                	li	a1,3
   15a8e:	05900693          	li	a3,89
   15a92:	470d                	li	a4,3
   15a94:	00000073          	ecall
   15a98:	02850363          	beq	a0,s0,15abe <_ZN20complex_full_dynamic3app17hce9278bc9c8aea50E+0x9a>
   15a9c:	c2be                	sw	a5,68(sp)
   15a9e:	c4a6                	sw	s1,72(sp)
   15aa0:	04910623          	sb	s1,76(sp)
   15aa4:	6505                	lui	a0,0x1
   15aa6:	4585                	li	a1,1
   15aa8:	460d                	li	a2,3
   15aaa:	ed250513          	addi	a0,a0,-302 # ed2 <.Lline_table_start1+0xca7>
   15aae:	4709                	li	a4,2
   15ab0:	07f00793          	li	a5,127
   15ab4:	4681                	li	a3,0
   15ab6:	00000073          	ecall
   15aba:	02a7e863          	bltu	a5,a0,15aea <_ZN20complex_full_dynamic3app17hce9278bc9c8aea50E+0xc6>
   15abe:	00b9a223          	sw	a1,4(s3)
   15ac2:	4505                	li	a0,1
   15ac4:	00a98023          	sb	a0,0(s3)
   15ac8:	00c8                	addi	a0,sp,68
   15aca:	00005097          	auipc	ra,0x5
   15ace:	41c080e7          	jalr	1052(ra) # 1aee6 <_ZN9allow_pin12full_dynamic17unshare_if_shared17h3ae8596986353d28E>
   15ad2:	0068                	addi	a0,sp,12
   15ad4:	00005097          	auipc	ra,0x5
   15ad8:	412080e7          	jalr	1042(ra) # 1aee6 <_ZN9allow_pin12full_dynamic17unshare_if_shared17h3ae8596986353d28E>
   15adc:	50fa                	lw	ra,188(sp)
   15ade:	546a                	lw	s0,184(sp)
   15ae0:	54da                	lw	s1,180(sp)
   15ae2:	594a                	lw	s2,176(sp)
   15ae4:	59ba                	lw	s3,172(sp)
   15ae6:	6129                	addi	sp,sp,192
   15ae8:	8082                	ret
   15aea:	0068                	addi	a0,sp,12
   15aec:	00005097          	auipc	ra,0x5
   15af0:	3fa080e7          	jalr	1018(ra) # 1aee6 <_ZN9allow_pin12full_dynamic17unshare_if_shared17h3ae8596986353d28E>
   15af4:	00c8                	addi	a0,sp,68
   15af6:	00005097          	auipc	ra,0x5
   15afa:	3f0080e7          	jalr	1008(ra) # 1aee6 <_ZN9allow_pin12full_dynamic17unshare_if_shared17h3ae8596986353d28E>
   15afe:	00c8                	addi	a0,sp,68
   15b00:	00005097          	auipc	ra,0x5
   15b04:	3e6080e7          	jalr	998(ra) # 1aee6 <_ZN9allow_pin12full_dynamic17unshare_if_shared17h3ae8596986353d28E>
   15b08:	00198513          	addi	a0,s3,1
   15b0c:	05900613          	li	a2,89
   15b10:	85ca                	mv	a1,s2
   15b12:	00005097          	auipc	ra,0x5
   15b16:	460080e7          	jalr	1120(ra) # 1af72 <memcpy>
   15b1a:	4501                	li	a0,0
   15b1c:	b765                	j	15ac4 <_ZN20complex_full_dynamic3app17hce9278bc9c8aea50E+0xa0>

00015b1e <_ZN20complex_full_dynamic3app17hceceafce902a8a9cE>:
   15b1e:	7119                	addi	sp,sp,-128
   15b20:	de86                	sw	ra,124(sp)
   15b22:	dca2                	sw	s0,120(sp)
   15b24:	daa6                	sw	s1,116(sp)
   15b26:	d8ca                	sw	s2,112(sp)
   15b28:	d6ce                	sw	s3,108(sp)
   15b2a:	89aa                	mv	s3,a0
   15b2c:	4409                	li	s0,2
   15b2e:	00810623          	sb	s0,12(sp)
   15b32:	0804                	addi	s1,sp,16
   15b34:	02100613          	li	a2,33
   15b38:	8526                	mv	a0,s1
   15b3a:	00005097          	auipc	ra,0x5
   15b3e:	438080e7          	jalr	1080(ra) # 1af72 <memcpy>
   15b42:	04010913          	addi	s2,sp,64
   15b46:	02a00613          	li	a2,42
   15b4a:	854a                	mv	a0,s2
   15b4c:	4581                	li	a1,0
   15b4e:	00005097          	auipc	ra,0x5
   15b52:	3b8080e7          	jalr	952(ra) # 1af06 <memset>
   15b56:	8626                	mv	a2,s1
   15b58:	02810e23          	sb	s0,60(sp)
   15b5c:	6505                	lui	a0,0x1
   15b5e:	4485                	li	s1,1
   15b60:	4811                	li	a6,4
   15b62:	4585                	li	a1,1
   15b64:	5f350793          	addi	a5,a0,1523 # 15f3 <.Lline_table_start1+0x13c8>
   15b68:	02100693          	li	a3,33
   15b6c:	4711                	li	a4,4
   15b6e:	853e                	mv	a0,a5
   15b70:	00000073          	ecall
   15b74:	04850263          	beq	a0,s0,15bb8 <_ZN20complex_full_dynamic3app17hceceafce902a8a9cE+0x9a>
   15b78:	853e                	mv	a0,a5
   15b7a:	864a                	mv	a2,s2
   15b7c:	c23e                	sw	a5,4(sp)
   15b7e:	c426                	sw	s1,8(sp)
   15b80:	01010623          	sb	a6,12(sp)
   15b84:	448d                	li	s1,3
   15b86:	458d                	li	a1,3
   15b88:	02a00693          	li	a3,42
   15b8c:	470d                	li	a4,3
   15b8e:	00000073          	ecall
   15b92:	02850363          	beq	a0,s0,15bb8 <_ZN20complex_full_dynamic3app17hceceafce902a8a9cE+0x9a>
   15b96:	da3e                	sw	a5,52(sp)
   15b98:	dc26                	sw	s1,56(sp)
   15b9a:	02910e23          	sb	s1,60(sp)
   15b9e:	6505                	lui	a0,0x1
   15ba0:	4585                	li	a1,1
   15ba2:	460d                	li	a2,3
   15ba4:	5f350513          	addi	a0,a0,1523 # 15f3 <.Lline_table_start1+0x13c8>
   15ba8:	4709                	li	a4,2
   15baa:	07f00793          	li	a5,127
   15bae:	4681                	li	a3,0
   15bb0:	00000073          	ecall
   15bb4:	02a7e863          	bltu	a5,a0,15be4 <_ZN20complex_full_dynamic3app17hceceafce902a8a9cE+0xc6>
   15bb8:	00b9a223          	sw	a1,4(s3)
   15bbc:	4505                	li	a0,1
   15bbe:	00a98023          	sb	a0,0(s3)
   15bc2:	1848                	addi	a0,sp,52
   15bc4:	00005097          	auipc	ra,0x5
   15bc8:	322080e7          	jalr	802(ra) # 1aee6 <_ZN9allow_pin12full_dynamic17unshare_if_shared17h3ae8596986353d28E>
   15bcc:	0048                	addi	a0,sp,4
   15bce:	00005097          	auipc	ra,0x5
   15bd2:	318080e7          	jalr	792(ra) # 1aee6 <_ZN9allow_pin12full_dynamic17unshare_if_shared17h3ae8596986353d28E>
   15bd6:	50f6                	lw	ra,124(sp)
   15bd8:	5466                	lw	s0,120(sp)
   15bda:	54d6                	lw	s1,116(sp)
   15bdc:	5946                	lw	s2,112(sp)
   15bde:	59b6                	lw	s3,108(sp)
   15be0:	6109                	addi	sp,sp,128
   15be2:	8082                	ret
   15be4:	0048                	addi	a0,sp,4
   15be6:	00005097          	auipc	ra,0x5
   15bea:	300080e7          	jalr	768(ra) # 1aee6 <_ZN9allow_pin12full_dynamic17unshare_if_shared17h3ae8596986353d28E>
   15bee:	1848                	addi	a0,sp,52
   15bf0:	00005097          	auipc	ra,0x5
   15bf4:	2f6080e7          	jalr	758(ra) # 1aee6 <_ZN9allow_pin12full_dynamic17unshare_if_shared17h3ae8596986353d28E>
   15bf8:	1848                	addi	a0,sp,52
   15bfa:	00005097          	auipc	ra,0x5
   15bfe:	2ec080e7          	jalr	748(ra) # 1aee6 <_ZN9allow_pin12full_dynamic17unshare_if_shared17h3ae8596986353d28E>
   15c02:	00198513          	addi	a0,s3,1
   15c06:	02a00613          	li	a2,42
   15c0a:	85ca                	mv	a1,s2
   15c0c:	00005097          	auipc	ra,0x5
   15c10:	366080e7          	jalr	870(ra) # 1af72 <memcpy>
   15c14:	4501                	li	a0,0
   15c16:	b765                	j	15bbe <_ZN20complex_full_dynamic3app17hceceafce902a8a9cE+0xa0>

00015c18 <_ZN20complex_full_dynamic3app17hd80ec1605aea2678E>:
   15c18:	7135                	addi	sp,sp,-160
   15c1a:	cf06                	sw	ra,156(sp)
   15c1c:	cd22                	sw	s0,152(sp)
   15c1e:	cb26                	sw	s1,148(sp)
   15c20:	c94a                	sw	s2,144(sp)
   15c22:	c74e                	sw	s3,140(sp)
   15c24:	89aa                	mv	s3,a0
   15c26:	4409                	li	s0,2
   15c28:	00810a23          	sb	s0,20(sp)
   15c2c:	0824                	addi	s1,sp,24
   15c2e:	02e00613          	li	a2,46
   15c32:	8526                	mv	a0,s1
   15c34:	00005097          	auipc	ra,0x5
   15c38:	33e080e7          	jalr	830(ra) # 1af72 <memcpy>
   15c3c:	05410913          	addi	s2,sp,84
   15c40:	03800613          	li	a2,56
   15c44:	854a                	mv	a0,s2
   15c46:	4581                	li	a1,0
   15c48:	00005097          	auipc	ra,0x5
   15c4c:	2be080e7          	jalr	702(ra) # 1af06 <memset>
   15c50:	8626                	mv	a2,s1
   15c52:	04810823          	sb	s0,80(sp)
   15c56:	6505                	lui	a0,0x1
   15c58:	44a5                	li	s1,9
   15c5a:	4811                	li	a6,4
   15c5c:	45a5                	li	a1,9
   15c5e:	a9d50793          	addi	a5,a0,-1379 # a9d <.Lline_table_start1+0x872>
   15c62:	02e00693          	li	a3,46
   15c66:	4711                	li	a4,4
   15c68:	853e                	mv	a0,a5
   15c6a:	00000073          	ecall
   15c6e:	04850363          	beq	a0,s0,15cb4 <_ZN20complex_full_dynamic3app17hd80ec1605aea2678E+0x9c>
   15c72:	853e                	mv	a0,a5
   15c74:	864a                	mv	a2,s2
   15c76:	c63e                	sw	a5,12(sp)
   15c78:	c826                	sw	s1,16(sp)
   15c7a:	01010a23          	sb	a6,20(sp)
   15c7e:	448d                	li	s1,3
   15c80:	45a5                	li	a1,9
   15c82:	03800693          	li	a3,56
   15c86:	470d                	li	a4,3
   15c88:	00000073          	ecall
   15c8c:	02850463          	beq	a0,s0,15cb4 <_ZN20complex_full_dynamic3app17hd80ec1605aea2678E+0x9c>
   15c90:	4525                	li	a0,9
   15c92:	6685                	lui	a3,0x1
   15c94:	45a5                	li	a1,9
   15c96:	4625                	li	a2,9
   15c98:	c4be                	sw	a5,72(sp)
   15c9a:	c6aa                	sw	a0,76(sp)
   15c9c:	04910823          	sb	s1,80(sp)
   15ca0:	a9d68513          	addi	a0,a3,-1379 # a9d <.Lline_table_start1+0x872>
   15ca4:	4709                	li	a4,2
   15ca6:	07f00793          	li	a5,127
   15caa:	4681                	li	a3,0
   15cac:	00000073          	ecall
   15cb0:	02a7e863          	bltu	a5,a0,15ce0 <_ZN20complex_full_dynamic3app17hd80ec1605aea2678E+0xc8>
   15cb4:	00b9a223          	sw	a1,4(s3)
   15cb8:	4505                	li	a0,1
   15cba:	00a98023          	sb	a0,0(s3)
   15cbe:	00a8                	addi	a0,sp,72
   15cc0:	00005097          	auipc	ra,0x5
   15cc4:	226080e7          	jalr	550(ra) # 1aee6 <_ZN9allow_pin12full_dynamic17unshare_if_shared17h3ae8596986353d28E>
   15cc8:	0068                	addi	a0,sp,12
   15cca:	00005097          	auipc	ra,0x5
   15cce:	21c080e7          	jalr	540(ra) # 1aee6 <_ZN9allow_pin12full_dynamic17unshare_if_shared17h3ae8596986353d28E>
   15cd2:	40fa                	lw	ra,156(sp)
   15cd4:	446a                	lw	s0,152(sp)
   15cd6:	44da                	lw	s1,148(sp)
   15cd8:	494a                	lw	s2,144(sp)
   15cda:	49ba                	lw	s3,140(sp)
   15cdc:	610d                	addi	sp,sp,160
   15cde:	8082                	ret
   15ce0:	0068                	addi	a0,sp,12
   15ce2:	00005097          	auipc	ra,0x5
   15ce6:	204080e7          	jalr	516(ra) # 1aee6 <_ZN9allow_pin12full_dynamic17unshare_if_shared17h3ae8596986353d28E>
   15cea:	00a8                	addi	a0,sp,72
   15cec:	00005097          	auipc	ra,0x5
   15cf0:	1fa080e7          	jalr	506(ra) # 1aee6 <_ZN9allow_pin12full_dynamic17unshare_if_shared17h3ae8596986353d28E>
   15cf4:	00a8                	addi	a0,sp,72
   15cf6:	00005097          	auipc	ra,0x5
   15cfa:	1f0080e7          	jalr	496(ra) # 1aee6 <_ZN9allow_pin12full_dynamic17unshare_if_shared17h3ae8596986353d28E>
   15cfe:	00198513          	addi	a0,s3,1
   15d02:	03800613          	li	a2,56
   15d06:	85ca                	mv	a1,s2
   15d08:	00005097          	auipc	ra,0x5
   15d0c:	26a080e7          	jalr	618(ra) # 1af72 <memcpy>
   15d10:	4501                	li	a0,0
   15d12:	b765                	j	15cba <_ZN20complex_full_dynamic3app17hd80ec1605aea2678E+0xa2>

00015d14 <_ZN20complex_full_dynamic3app17hd8f08b9a95cee315E>:
   15d14:	7155                	addi	sp,sp,-208
   15d16:	c786                	sw	ra,204(sp)
   15d18:	c5a2                	sw	s0,200(sp)
   15d1a:	c3a6                	sw	s1,196(sp)
   15d1c:	c1ca                	sw	s2,192(sp)
   15d1e:	df4e                	sw	s3,188(sp)
   15d20:	89aa                	mv	s3,a0
   15d22:	4409                	li	s0,2
   15d24:	00810623          	sb	s0,12(sp)
   15d28:	0804                	addi	s1,sp,16
   15d2a:	04600613          	li	a2,70
   15d2e:	8526                	mv	a0,s1
   15d30:	00005097          	auipc	ra,0x5
   15d34:	242080e7          	jalr	578(ra) # 1af72 <memcpy>
   15d38:	06410913          	addi	s2,sp,100
   15d3c:	05600613          	li	a2,86
   15d40:	854a                	mv	a0,s2
   15d42:	4581                	li	a1,0
   15d44:	00005097          	auipc	ra,0x5
   15d48:	1c2080e7          	jalr	450(ra) # 1af06 <memset>
   15d4c:	8626                	mv	a2,s1
   15d4e:	06810023          	sb	s0,96(sp)
   15d52:	6509                	lui	a0,0x2
   15d54:	449d                	li	s1,7
   15d56:	4811                	li	a6,4
   15d58:	459d                	li	a1,7
   15d5a:	e5050793          	addi	a5,a0,-432 # 1e50 <.Lline_table_start1+0x1c25>
   15d5e:	04600693          	li	a3,70
   15d62:	4711                	li	a4,4
   15d64:	853e                	mv	a0,a5
   15d66:	00000073          	ecall
   15d6a:	04850263          	beq	a0,s0,15dae <_ZN20complex_full_dynamic3app17hd8f08b9a95cee315E+0x9a>
   15d6e:	853e                	mv	a0,a5
   15d70:	864a                	mv	a2,s2
   15d72:	c23e                	sw	a5,4(sp)
   15d74:	c426                	sw	s1,8(sp)
   15d76:	01010623          	sb	a6,12(sp)
   15d7a:	448d                	li	s1,3
   15d7c:	458d                	li	a1,3
   15d7e:	05600693          	li	a3,86
   15d82:	470d                	li	a4,3
   15d84:	00000073          	ecall
   15d88:	02850363          	beq	a0,s0,15dae <_ZN20complex_full_dynamic3app17hd8f08b9a95cee315E+0x9a>
   15d8c:	ccbe                	sw	a5,88(sp)
   15d8e:	cea6                	sw	s1,92(sp)
   15d90:	06910023          	sb	s1,96(sp)
   15d94:	6509                	lui	a0,0x2
   15d96:	459d                	li	a1,7
   15d98:	460d                	li	a2,3
   15d9a:	e5050513          	addi	a0,a0,-432 # 1e50 <.Lline_table_start1+0x1c25>
   15d9e:	4709                	li	a4,2
   15da0:	07f00793          	li	a5,127
   15da4:	4681                	li	a3,0
   15da6:	00000073          	ecall
   15daa:	02a7e863          	bltu	a5,a0,15dda <_ZN20complex_full_dynamic3app17hd8f08b9a95cee315E+0xc6>
   15dae:	00b9a223          	sw	a1,4(s3)
   15db2:	4505                	li	a0,1
   15db4:	00a98023          	sb	a0,0(s3)
   15db8:	08a8                	addi	a0,sp,88
   15dba:	00005097          	auipc	ra,0x5
   15dbe:	12c080e7          	jalr	300(ra) # 1aee6 <_ZN9allow_pin12full_dynamic17unshare_if_shared17h3ae8596986353d28E>
   15dc2:	0048                	addi	a0,sp,4
   15dc4:	00005097          	auipc	ra,0x5
   15dc8:	122080e7          	jalr	290(ra) # 1aee6 <_ZN9allow_pin12full_dynamic17unshare_if_shared17h3ae8596986353d28E>
   15dcc:	40be                	lw	ra,204(sp)
   15dce:	442e                	lw	s0,200(sp)
   15dd0:	449e                	lw	s1,196(sp)
   15dd2:	490e                	lw	s2,192(sp)
   15dd4:	59fa                	lw	s3,188(sp)
   15dd6:	6169                	addi	sp,sp,208
   15dd8:	8082                	ret
   15dda:	0048                	addi	a0,sp,4
   15ddc:	00005097          	auipc	ra,0x5
   15de0:	10a080e7          	jalr	266(ra) # 1aee6 <_ZN9allow_pin12full_dynamic17unshare_if_shared17h3ae8596986353d28E>
   15de4:	08a8                	addi	a0,sp,88
   15de6:	00005097          	auipc	ra,0x5
   15dea:	100080e7          	jalr	256(ra) # 1aee6 <_ZN9allow_pin12full_dynamic17unshare_if_shared17h3ae8596986353d28E>
   15dee:	08a8                	addi	a0,sp,88
   15df0:	00005097          	auipc	ra,0x5
   15df4:	0f6080e7          	jalr	246(ra) # 1aee6 <_ZN9allow_pin12full_dynamic17unshare_if_shared17h3ae8596986353d28E>
   15df8:	00198513          	addi	a0,s3,1
   15dfc:	05600613          	li	a2,86
   15e00:	85ca                	mv	a1,s2
   15e02:	00005097          	auipc	ra,0x5
   15e06:	170080e7          	jalr	368(ra) # 1af72 <memcpy>
   15e0a:	4501                	li	a0,0
   15e0c:	b765                	j	15db4 <_ZN20complex_full_dynamic3app17hd8f08b9a95cee315E+0xa0>

00015e0e <_ZN20complex_full_dynamic3app17hdf9ba28d926a7d44E>:
   15e0e:	7135                	addi	sp,sp,-160
   15e10:	cf06                	sw	ra,156(sp)
   15e12:	cd22                	sw	s0,152(sp)
   15e14:	cb26                	sw	s1,148(sp)
   15e16:	c94a                	sw	s2,144(sp)
   15e18:	c74e                	sw	s3,140(sp)
   15e1a:	89aa                	mv	s3,a0
   15e1c:	4409                	li	s0,2
   15e1e:	00810823          	sb	s0,16(sp)
   15e22:	0844                	addi	s1,sp,20
   15e24:	03800613          	li	a2,56
   15e28:	8526                	mv	a0,s1
   15e2a:	00005097          	auipc	ra,0x5
   15e2e:	148080e7          	jalr	328(ra) # 1af72 <memcpy>
   15e32:	05810913          	addi	s2,sp,88
   15e36:	03400613          	li	a2,52
   15e3a:	854a                	mv	a0,s2
   15e3c:	4581                	li	a1,0
   15e3e:	00005097          	auipc	ra,0x5
   15e42:	0c8080e7          	jalr	200(ra) # 1af06 <memset>
   15e46:	8626                	mv	a2,s1
   15e48:	04810a23          	sb	s0,84(sp)
   15e4c:	12e00793          	li	a5,302
   15e50:	44a1                	li	s1,8
   15e52:	4811                	li	a6,4
   15e54:	12e00513          	li	a0,302
   15e58:	45a1                	li	a1,8
   15e5a:	03800693          	li	a3,56
   15e5e:	4711                	li	a4,4
   15e60:	00000073          	ecall
   15e64:	04850463          	beq	a0,s0,15eac <_ZN20complex_full_dynamic3app17hdf9ba28d926a7d44E+0x9e>
   15e68:	864a                	mv	a2,s2
   15e6a:	c43e                	sw	a5,8(sp)
   15e6c:	c626                	sw	s1,12(sp)
   15e6e:	01010823          	sb	a6,16(sp)
   15e72:	478d                	li	a5,3
   15e74:	12e00513          	li	a0,302
   15e78:	458d                	li	a1,3
   15e7a:	03400693          	li	a3,52
   15e7e:	470d                	li	a4,3
   15e80:	00000073          	ecall
   15e84:	02850463          	beq	a0,s0,15eac <_ZN20complex_full_dynamic3app17hdf9ba28d926a7d44E+0x9e>
   15e88:	12e00693          	li	a3,302
   15e8c:	12e00513          	li	a0,302
   15e90:	45a1                	li	a1,8
   15e92:	460d                	li	a2,3
   15e94:	4709                	li	a4,2
   15e96:	07f00493          	li	s1,127
   15e9a:	c6b6                	sw	a3,76(sp)
   15e9c:	c8be                	sw	a5,80(sp)
   15e9e:	04f10a23          	sb	a5,84(sp)
   15ea2:	4681                	li	a3,0
   15ea4:	00000073          	ecall
   15ea8:	02a4e863          	bltu	s1,a0,15ed8 <_ZN20complex_full_dynamic3app17hdf9ba28d926a7d44E+0xca>
   15eac:	00b9a223          	sw	a1,4(s3)
   15eb0:	4505                	li	a0,1
   15eb2:	00a98023          	sb	a0,0(s3)
   15eb6:	00e8                	addi	a0,sp,76
   15eb8:	00005097          	auipc	ra,0x5
   15ebc:	02e080e7          	jalr	46(ra) # 1aee6 <_ZN9allow_pin12full_dynamic17unshare_if_shared17h3ae8596986353d28E>
   15ec0:	0028                	addi	a0,sp,8
   15ec2:	00005097          	auipc	ra,0x5
   15ec6:	024080e7          	jalr	36(ra) # 1aee6 <_ZN9allow_pin12full_dynamic17unshare_if_shared17h3ae8596986353d28E>
   15eca:	40fa                	lw	ra,156(sp)
   15ecc:	446a                	lw	s0,152(sp)
   15ece:	44da                	lw	s1,148(sp)
   15ed0:	494a                	lw	s2,144(sp)
   15ed2:	49ba                	lw	s3,140(sp)
   15ed4:	610d                	addi	sp,sp,160
   15ed6:	8082                	ret
   15ed8:	0028                	addi	a0,sp,8
   15eda:	00005097          	auipc	ra,0x5
   15ede:	00c080e7          	jalr	12(ra) # 1aee6 <_ZN9allow_pin12full_dynamic17unshare_if_shared17h3ae8596986353d28E>
   15ee2:	00e8                	addi	a0,sp,76
   15ee4:	00005097          	auipc	ra,0x5
   15ee8:	002080e7          	jalr	2(ra) # 1aee6 <_ZN9allow_pin12full_dynamic17unshare_if_shared17h3ae8596986353d28E>
   15eec:	00e8                	addi	a0,sp,76
   15eee:	00005097          	auipc	ra,0x5
   15ef2:	ff8080e7          	jalr	-8(ra) # 1aee6 <_ZN9allow_pin12full_dynamic17unshare_if_shared17h3ae8596986353d28E>
   15ef6:	00198513          	addi	a0,s3,1
   15efa:	03400613          	li	a2,52
   15efe:	85ca                	mv	a1,s2
   15f00:	00005097          	auipc	ra,0x5
   15f04:	072080e7          	jalr	114(ra) # 1af72 <memcpy>
   15f08:	4501                	li	a0,0
   15f0a:	b765                	j	15eb2 <_ZN20complex_full_dynamic3app17hdf9ba28d926a7d44E+0xa4>

00015f0c <_ZN20complex_full_dynamic3app17he0019a513bf0697cE>:
   15f0c:	7159                	addi	sp,sp,-112
   15f0e:	d686                	sw	ra,108(sp)
   15f10:	d4a2                	sw	s0,104(sp)
   15f12:	d2a6                	sw	s1,100(sp)
   15f14:	d0ca                	sw	s2,96(sp)
   15f16:	cece                	sw	s3,92(sp)
   15f18:	892a                	mv	s2,a0
   15f1a:	4409                	li	s0,2
   15f1c:	00810623          	sb	s0,12(sp)
   15f20:	0804                	addi	s1,sp,16
   15f22:	02500613          	li	a2,37
   15f26:	8526                	mv	a0,s1
   15f28:	00005097          	auipc	ra,0x5
   15f2c:	04a080e7          	jalr	74(ra) # 1af72 <memcpy>
   15f30:	8626                	mv	a2,s1
   15f32:	c882                	sw	zero,80(sp)
   15f34:	ca82                	sw	zero,84(sp)
   15f36:	cc82                	sw	zero,88(sp)
   15f38:	04810023          	sb	s0,64(sp)
   15f3c:	c282                	sw	zero,68(sp)
   15f3e:	c482                	sw	zero,72(sp)
   15f40:	c682                	sw	zero,76(sp)
   15f42:	6505                	lui	a0,0x1
   15f44:	44a5                	li	s1,9
   15f46:	4811                	li	a6,4
   15f48:	45a5                	li	a1,9
   15f4a:	a7050793          	addi	a5,a0,-1424 # a70 <.Lline_table_start1+0x845>
   15f4e:	02500693          	li	a3,37
   15f52:	4711                	li	a4,4
   15f54:	853e                	mv	a0,a5
   15f56:	00000073          	ecall
   15f5a:	04850463          	beq	a0,s0,15fa2 <_ZN20complex_full_dynamic3app17he0019a513bf0697cE+0x96>
   15f5e:	853e                	mv	a0,a5
   15f60:	04410993          	addi	s3,sp,68
   15f64:	c23e                	sw	a5,4(sp)
   15f66:	c426                	sw	s1,8(sp)
   15f68:	01010623          	sb	a6,12(sp)
   15f6c:	44a1                	li	s1,8
   15f6e:	480d                	li	a6,3
   15f70:	45a1                	li	a1,8
   15f72:	46e1                	li	a3,24
   15f74:	470d                	li	a4,3
   15f76:	864e                	mv	a2,s3
   15f78:	00000073          	ecall
   15f7c:	02850363          	beq	a0,s0,15fa2 <_ZN20complex_full_dynamic3app17he0019a513bf0697cE+0x96>
   15f80:	dc3e                	sw	a5,56(sp)
   15f82:	de26                	sw	s1,60(sp)
   15f84:	05010023          	sb	a6,64(sp)
   15f88:	6505                	lui	a0,0x1
   15f8a:	45a5                	li	a1,9
   15f8c:	4621                	li	a2,8
   15f8e:	a7050513          	addi	a0,a0,-1424 # a70 <.Lline_table_start1+0x845>
   15f92:	4709                	li	a4,2
   15f94:	07f00793          	li	a5,127
   15f98:	4681                	li	a3,0
   15f9a:	00000073          	ecall
   15f9e:	02a7e863          	bltu	a5,a0,15fce <_ZN20complex_full_dynamic3app17he0019a513bf0697cE+0xc2>
   15fa2:	00b92223          	sw	a1,4(s2)
   15fa6:	4505                	li	a0,1
   15fa8:	00a90023          	sb	a0,0(s2)
   15fac:	1828                	addi	a0,sp,56
   15fae:	00005097          	auipc	ra,0x5
   15fb2:	f38080e7          	jalr	-200(ra) # 1aee6 <_ZN9allow_pin12full_dynamic17unshare_if_shared17h3ae8596986353d28E>
   15fb6:	0048                	addi	a0,sp,4
   15fb8:	00005097          	auipc	ra,0x5
   15fbc:	f2e080e7          	jalr	-210(ra) # 1aee6 <_ZN9allow_pin12full_dynamic17unshare_if_shared17h3ae8596986353d28E>
   15fc0:	50b6                	lw	ra,108(sp)
   15fc2:	5426                	lw	s0,104(sp)
   15fc4:	5496                	lw	s1,100(sp)
   15fc6:	5906                	lw	s2,96(sp)
   15fc8:	49f6                	lw	s3,92(sp)
   15fca:	6165                	addi	sp,sp,112
   15fcc:	8082                	ret
   15fce:	0048                	addi	a0,sp,4
   15fd0:	00005097          	auipc	ra,0x5
   15fd4:	f16080e7          	jalr	-234(ra) # 1aee6 <_ZN9allow_pin12full_dynamic17unshare_if_shared17h3ae8596986353d28E>
   15fd8:	1828                	addi	a0,sp,56
   15fda:	00005097          	auipc	ra,0x5
   15fde:	f0c080e7          	jalr	-244(ra) # 1aee6 <_ZN9allow_pin12full_dynamic17unshare_if_shared17h3ae8596986353d28E>
   15fe2:	1828                	addi	a0,sp,56
   15fe4:	00005097          	auipc	ra,0x5
   15fe8:	f02080e7          	jalr	-254(ra) # 1aee6 <_ZN9allow_pin12full_dynamic17unshare_if_shared17h3ae8596986353d28E>
   15fec:	00190513          	addi	a0,s2,1
   15ff0:	4661                	li	a2,24
   15ff2:	85ce                	mv	a1,s3
   15ff4:	00005097          	auipc	ra,0x5
   15ff8:	f7e080e7          	jalr	-130(ra) # 1af72 <memcpy>
   15ffc:	4501                	li	a0,0
   15ffe:	b76d                	j	15fa8 <_ZN20complex_full_dynamic3app17he0019a513bf0697cE+0x9c>

00016000 <_ZN20complex_full_dynamic3app17he0a9c5166165c085E>:
   16000:	7151                	addi	sp,sp,-240
   16002:	d786                	sw	ra,236(sp)
   16004:	d5a2                	sw	s0,232(sp)
   16006:	d3a6                	sw	s1,228(sp)
   16008:	d1ca                	sw	s2,224(sp)
   1600a:	cfce                	sw	s3,220(sp)
   1600c:	89aa                	mv	s3,a0
   1600e:	4409                	li	s0,2
   16010:	00810a23          	sb	s0,20(sp)
   16014:	0824                	addi	s1,sp,24
   16016:	05e00613          	li	a2,94
   1601a:	8526                	mv	a0,s1
   1601c:	00005097          	auipc	ra,0x5
   16020:	f56080e7          	jalr	-170(ra) # 1af72 <memcpy>
   16024:	08410913          	addi	s2,sp,132
   16028:	05500613          	li	a2,85
   1602c:	854a                	mv	a0,s2
   1602e:	4581                	li	a1,0
   16030:	00005097          	auipc	ra,0x5
   16034:	ed6080e7          	jalr	-298(ra) # 1af06 <memset>
   16038:	8626                	mv	a2,s1
   1603a:	08810023          	sb	s0,128(sp)
   1603e:	6505                	lui	a0,0x1
   16040:	449d                	li	s1,7
   16042:	4811                	li	a6,4
   16044:	459d                	li	a1,7
   16046:	78a50793          	addi	a5,a0,1930 # 178a <.Lline_table_start1+0x155f>
   1604a:	05e00693          	li	a3,94
   1604e:	4711                	li	a4,4
   16050:	853e                	mv	a0,a5
   16052:	00000073          	ecall
   16056:	04850263          	beq	a0,s0,1609a <_ZN20complex_full_dynamic3app17he0a9c5166165c085E+0x9a>
   1605a:	853e                	mv	a0,a5
   1605c:	864a                	mv	a2,s2
   1605e:	c63e                	sw	a5,12(sp)
   16060:	c826                	sw	s1,16(sp)
   16062:	01010a23          	sb	a6,20(sp)
   16066:	448d                	li	s1,3
   16068:	458d                	li	a1,3
   1606a:	05500693          	li	a3,85
   1606e:	470d                	li	a4,3
   16070:	00000073          	ecall
   16074:	02850363          	beq	a0,s0,1609a <_ZN20complex_full_dynamic3app17he0a9c5166165c085E+0x9a>
   16078:	dcbe                	sw	a5,120(sp)
   1607a:	dea6                	sw	s1,124(sp)
   1607c:	08910023          	sb	s1,128(sp)
   16080:	6505                	lui	a0,0x1
   16082:	459d                	li	a1,7
   16084:	460d                	li	a2,3
   16086:	78a50513          	addi	a0,a0,1930 # 178a <.Lline_table_start1+0x155f>
   1608a:	4709                	li	a4,2
   1608c:	07f00793          	li	a5,127
   16090:	4681                	li	a3,0
   16092:	00000073          	ecall
   16096:	02a7e863          	bltu	a5,a0,160c6 <_ZN20complex_full_dynamic3app17he0a9c5166165c085E+0xc6>
   1609a:	00b9a223          	sw	a1,4(s3)
   1609e:	4505                	li	a0,1
   160a0:	00a98023          	sb	a0,0(s3)
   160a4:	18a8                	addi	a0,sp,120
   160a6:	00005097          	auipc	ra,0x5
   160aa:	e40080e7          	jalr	-448(ra) # 1aee6 <_ZN9allow_pin12full_dynamic17unshare_if_shared17h3ae8596986353d28E>
   160ae:	0068                	addi	a0,sp,12
   160b0:	00005097          	auipc	ra,0x5
   160b4:	e36080e7          	jalr	-458(ra) # 1aee6 <_ZN9allow_pin12full_dynamic17unshare_if_shared17h3ae8596986353d28E>
   160b8:	50be                	lw	ra,236(sp)
   160ba:	542e                	lw	s0,232(sp)
   160bc:	549e                	lw	s1,228(sp)
   160be:	590e                	lw	s2,224(sp)
   160c0:	49fe                	lw	s3,220(sp)
   160c2:	616d                	addi	sp,sp,240
   160c4:	8082                	ret
   160c6:	0068                	addi	a0,sp,12
   160c8:	00005097          	auipc	ra,0x5
   160cc:	e1e080e7          	jalr	-482(ra) # 1aee6 <_ZN9allow_pin12full_dynamic17unshare_if_shared17h3ae8596986353d28E>
   160d0:	18a8                	addi	a0,sp,120
   160d2:	00005097          	auipc	ra,0x5
   160d6:	e14080e7          	jalr	-492(ra) # 1aee6 <_ZN9allow_pin12full_dynamic17unshare_if_shared17h3ae8596986353d28E>
   160da:	18a8                	addi	a0,sp,120
   160dc:	00005097          	auipc	ra,0x5
   160e0:	e0a080e7          	jalr	-502(ra) # 1aee6 <_ZN9allow_pin12full_dynamic17unshare_if_shared17h3ae8596986353d28E>
   160e4:	00198513          	addi	a0,s3,1
   160e8:	05500613          	li	a2,85
   160ec:	85ca                	mv	a1,s2
   160ee:	00005097          	auipc	ra,0x5
   160f2:	e84080e7          	jalr	-380(ra) # 1af72 <memcpy>
   160f6:	4501                	li	a0,0
   160f8:	b765                	j	160a0 <_ZN20complex_full_dynamic3app17he0a9c5166165c085E+0xa0>

000160fa <_ZN20complex_full_dynamic3app17he93e3df085e0f642E>:
   160fa:	7119                	addi	sp,sp,-128
   160fc:	de86                	sw	ra,124(sp)
   160fe:	dca2                	sw	s0,120(sp)
   16100:	daa6                	sw	s1,116(sp)
   16102:	d8ca                	sw	s2,112(sp)
   16104:	d6ce                	sw	s3,108(sp)
   16106:	892a                	mv	s2,a0
   16108:	4409                	li	s0,2
   1610a:	00810623          	sb	s0,12(sp)
   1610e:	0804                	addi	s1,sp,16
   16110:	03400613          	li	a2,52
   16114:	8526                	mv	a0,s1
   16116:	00005097          	auipc	ra,0x5
   1611a:	e5c080e7          	jalr	-420(ra) # 1af72 <memcpy>
   1611e:	4581                	li	a1,0
   16120:	8626                	mv	a2,s1
   16122:	ce82                	sw	zero,92(sp)
   16124:	d082                	sw	zero,96(sp)
   16126:	d282                	sw	zero,100(sp)
   16128:	06011423          	sh	zero,104(sp)
   1612c:	04810623          	sb	s0,76(sp)
   16130:	c882                	sw	zero,80(sp)
   16132:	ca82                	sw	zero,84(sp)
   16134:	cc82                	sw	zero,88(sp)
   16136:	6505                	lui	a0,0x1
   16138:	4491                	li	s1,4
   1613a:	2cc50793          	addi	a5,a0,716 # 12cc <.Lline_table_start1+0x10a1>
   1613e:	03400693          	li	a3,52
   16142:	4711                	li	a4,4
   16144:	853e                	mv	a0,a5
   16146:	00000073          	ecall
   1614a:	04850463          	beq	a0,s0,16192 <_ZN20complex_full_dynamic3app17he93e3df085e0f642E+0x98>
   1614e:	853e                	mv	a0,a5
   16150:	05010993          	addi	s3,sp,80
   16154:	c23e                	sw	a5,4(sp)
   16156:	c402                	sw	zero,8(sp)
   16158:	00910623          	sb	s1,12(sp)
   1615c:	4495                	li	s1,5
   1615e:	480d                	li	a6,3
   16160:	4595                	li	a1,5
   16162:	46e9                	li	a3,26
   16164:	470d                	li	a4,3
   16166:	864e                	mv	a2,s3
   16168:	00000073          	ecall
   1616c:	02850363          	beq	a0,s0,16192 <_ZN20complex_full_dynamic3app17he93e3df085e0f642E+0x98>
   16170:	c2be                	sw	a5,68(sp)
   16172:	c4a6                	sw	s1,72(sp)
   16174:	05010623          	sb	a6,76(sp)
   16178:	6505                	lui	a0,0x1
   1617a:	4615                	li	a2,5
   1617c:	2cc50513          	addi	a0,a0,716 # 12cc <.Lline_table_start1+0x10a1>
   16180:	4709                	li	a4,2
   16182:	07f00793          	li	a5,127
   16186:	4581                	li	a1,0
   16188:	4681                	li	a3,0
   1618a:	00000073          	ecall
   1618e:	02a7e863          	bltu	a5,a0,161be <_ZN20complex_full_dynamic3app17he93e3df085e0f642E+0xc4>
   16192:	00b92223          	sw	a1,4(s2)
   16196:	4505                	li	a0,1
   16198:	00a90023          	sb	a0,0(s2)
   1619c:	00c8                	addi	a0,sp,68
   1619e:	00005097          	auipc	ra,0x5
   161a2:	d48080e7          	jalr	-696(ra) # 1aee6 <_ZN9allow_pin12full_dynamic17unshare_if_shared17h3ae8596986353d28E>
   161a6:	0048                	addi	a0,sp,4
   161a8:	00005097          	auipc	ra,0x5
   161ac:	d3e080e7          	jalr	-706(ra) # 1aee6 <_ZN9allow_pin12full_dynamic17unshare_if_shared17h3ae8596986353d28E>
   161b0:	50f6                	lw	ra,124(sp)
   161b2:	5466                	lw	s0,120(sp)
   161b4:	54d6                	lw	s1,116(sp)
   161b6:	5946                	lw	s2,112(sp)
   161b8:	59b6                	lw	s3,108(sp)
   161ba:	6109                	addi	sp,sp,128
   161bc:	8082                	ret
   161be:	0048                	addi	a0,sp,4
   161c0:	00005097          	auipc	ra,0x5
   161c4:	d26080e7          	jalr	-730(ra) # 1aee6 <_ZN9allow_pin12full_dynamic17unshare_if_shared17h3ae8596986353d28E>
   161c8:	00c8                	addi	a0,sp,68
   161ca:	00005097          	auipc	ra,0x5
   161ce:	d1c080e7          	jalr	-740(ra) # 1aee6 <_ZN9allow_pin12full_dynamic17unshare_if_shared17h3ae8596986353d28E>
   161d2:	00c8                	addi	a0,sp,68
   161d4:	00005097          	auipc	ra,0x5
   161d8:	d12080e7          	jalr	-750(ra) # 1aee6 <_ZN9allow_pin12full_dynamic17unshare_if_shared17h3ae8596986353d28E>
   161dc:	00190513          	addi	a0,s2,1
   161e0:	4669                	li	a2,26
   161e2:	85ce                	mv	a1,s3
   161e4:	00005097          	auipc	ra,0x5
   161e8:	d8e080e7          	jalr	-626(ra) # 1af72 <memcpy>
   161ec:	4501                	li	a0,0
   161ee:	b76d                	j	16198 <_ZN20complex_full_dynamic3app17he93e3df085e0f642E+0x9e>

000161f0 <_ZN20complex_full_dynamic3app17he9b092bc78a3dd6dE>:
   161f0:	7171                	addi	sp,sp,-176
   161f2:	d706                	sw	ra,172(sp)
   161f4:	d522                	sw	s0,168(sp)
   161f6:	d326                	sw	s1,164(sp)
   161f8:	d14a                	sw	s2,160(sp)
   161fa:	cf4e                	sw	s3,156(sp)
   161fc:	89aa                	mv	s3,a0
   161fe:	4409                	li	s0,2
   16200:	00810823          	sb	s0,16(sp)
   16204:	0844                	addi	s1,sp,20
   16206:	03100613          	li	a2,49
   1620a:	8526                	mv	a0,s1
   1620c:	00005097          	auipc	ra,0x5
   16210:	d66080e7          	jalr	-666(ra) # 1af72 <memcpy>
   16214:	05410913          	addi	s2,sp,84
   16218:	04800613          	li	a2,72
   1621c:	854a                	mv	a0,s2
   1621e:	4581                	li	a1,0
   16220:	00005097          	auipc	ra,0x5
   16224:	ce6080e7          	jalr	-794(ra) # 1af06 <memset>
   16228:	8626                	mv	a2,s1
   1622a:	04810823          	sb	s0,80(sp)
   1622e:	6509                	lui	a0,0x2
   16230:	4491                	li	s1,4
   16232:	4591                	li	a1,4
   16234:	80e50793          	addi	a5,a0,-2034 # 180e <.Lline_table_start1+0x15e3>
   16238:	03100693          	li	a3,49
   1623c:	4711                	li	a4,4
   1623e:	853e                	mv	a0,a5
   16240:	00000073          	ecall
   16244:	04850263          	beq	a0,s0,16288 <_ZN20complex_full_dynamic3app17he9b092bc78a3dd6dE+0x98>
   16248:	853e                	mv	a0,a5
   1624a:	864a                	mv	a2,s2
   1624c:	c43e                	sw	a5,8(sp)
   1624e:	c626                	sw	s1,12(sp)
   16250:	00910823          	sb	s1,16(sp)
   16254:	448d                	li	s1,3
   16256:	458d                	li	a1,3
   16258:	04800693          	li	a3,72
   1625c:	470d                	li	a4,3
   1625e:	00000073          	ecall
   16262:	02850363          	beq	a0,s0,16288 <_ZN20complex_full_dynamic3app17he9b092bc78a3dd6dE+0x98>
   16266:	c4be                	sw	a5,72(sp)
   16268:	c6a6                	sw	s1,76(sp)
   1626a:	04910823          	sb	s1,80(sp)
   1626e:	6509                	lui	a0,0x2
   16270:	4591                	li	a1,4
   16272:	460d                	li	a2,3
   16274:	80e50513          	addi	a0,a0,-2034 # 180e <.Lline_table_start1+0x15e3>
   16278:	4709                	li	a4,2
   1627a:	07f00793          	li	a5,127
   1627e:	4681                	li	a3,0
   16280:	00000073          	ecall
   16284:	02a7e863          	bltu	a5,a0,162b4 <_ZN20complex_full_dynamic3app17he9b092bc78a3dd6dE+0xc4>
   16288:	00b9a223          	sw	a1,4(s3)
   1628c:	4505                	li	a0,1
   1628e:	00a98023          	sb	a0,0(s3)
   16292:	00a8                	addi	a0,sp,72
   16294:	00005097          	auipc	ra,0x5
   16298:	c52080e7          	jalr	-942(ra) # 1aee6 <_ZN9allow_pin12full_dynamic17unshare_if_shared17h3ae8596986353d28E>
   1629c:	0028                	addi	a0,sp,8
   1629e:	00005097          	auipc	ra,0x5
   162a2:	c48080e7          	jalr	-952(ra) # 1aee6 <_ZN9allow_pin12full_dynamic17unshare_if_shared17h3ae8596986353d28E>
   162a6:	50ba                	lw	ra,172(sp)
   162a8:	542a                	lw	s0,168(sp)
   162aa:	549a                	lw	s1,164(sp)
   162ac:	590a                	lw	s2,160(sp)
   162ae:	49fa                	lw	s3,156(sp)
   162b0:	614d                	addi	sp,sp,176
   162b2:	8082                	ret
   162b4:	0028                	addi	a0,sp,8
   162b6:	00005097          	auipc	ra,0x5
   162ba:	c30080e7          	jalr	-976(ra) # 1aee6 <_ZN9allow_pin12full_dynamic17unshare_if_shared17h3ae8596986353d28E>
   162be:	00a8                	addi	a0,sp,72
   162c0:	00005097          	auipc	ra,0x5
   162c4:	c26080e7          	jalr	-986(ra) # 1aee6 <_ZN9allow_pin12full_dynamic17unshare_if_shared17h3ae8596986353d28E>
   162c8:	00a8                	addi	a0,sp,72
   162ca:	00005097          	auipc	ra,0x5
   162ce:	c1c080e7          	jalr	-996(ra) # 1aee6 <_ZN9allow_pin12full_dynamic17unshare_if_shared17h3ae8596986353d28E>
   162d2:	00198513          	addi	a0,s3,1
   162d6:	04800613          	li	a2,72
   162da:	85ca                	mv	a1,s2
   162dc:	00005097          	auipc	ra,0x5
   162e0:	c96080e7          	jalr	-874(ra) # 1af72 <memcpy>
   162e4:	4501                	li	a0,0
   162e6:	b765                	j	1628e <_ZN20complex_full_dynamic3app17he9b092bc78a3dd6dE+0x9e>

000162e8 <_ZN20complex_full_dynamic3app17hebe6c4b14ae0a8ceE>:
   162e8:	7171                	addi	sp,sp,-176
   162ea:	d706                	sw	ra,172(sp)
   162ec:	d522                	sw	s0,168(sp)
   162ee:	d326                	sw	s1,164(sp)
   162f0:	d14a                	sw	s2,160(sp)
   162f2:	cf4e                	sw	s3,156(sp)
   162f4:	89aa                	mv	s3,a0
   162f6:	4409                	li	s0,2
   162f8:	00810a23          	sb	s0,20(sp)
   162fc:	0824                	addi	s1,sp,24
   162fe:	03500613          	li	a2,53
   16302:	8526                	mv	a0,s1
   16304:	00005097          	auipc	ra,0x5
   16308:	c6e080e7          	jalr	-914(ra) # 1af72 <memcpy>
   1630c:	05c10913          	addi	s2,sp,92
   16310:	03f00613          	li	a2,63
   16314:	854a                	mv	a0,s2
   16316:	4581                	li	a1,0
   16318:	00005097          	auipc	ra,0x5
   1631c:	bee080e7          	jalr	-1042(ra) # 1af06 <memset>
   16320:	4581                	li	a1,0
   16322:	8626                	mv	a2,s1
   16324:	04810c23          	sb	s0,88(sp)
   16328:	6505                	lui	a0,0x1
   1632a:	4491                	li	s1,4
   1632c:	e5750793          	addi	a5,a0,-425 # e57 <.Lline_table_start1+0xc2c>
   16330:	03500693          	li	a3,53
   16334:	4711                	li	a4,4
   16336:	853e                	mv	a0,a5
   16338:	00000073          	ecall
   1633c:	04850263          	beq	a0,s0,16380 <_ZN20complex_full_dynamic3app17hebe6c4b14ae0a8ceE+0x98>
   16340:	853e                	mv	a0,a5
   16342:	864a                	mv	a2,s2
   16344:	c63e                	sw	a5,12(sp)
   16346:	c802                	sw	zero,16(sp)
   16348:	00910a23          	sb	s1,20(sp)
   1634c:	448d                	li	s1,3
   1634e:	458d                	li	a1,3
   16350:	03f00693          	li	a3,63
   16354:	470d                	li	a4,3
   16356:	00000073          	ecall
   1635a:	02850363          	beq	a0,s0,16380 <_ZN20complex_full_dynamic3app17hebe6c4b14ae0a8ceE+0x98>
   1635e:	c8be                	sw	a5,80(sp)
   16360:	caa6                	sw	s1,84(sp)
   16362:	04910c23          	sb	s1,88(sp)
   16366:	6505                	lui	a0,0x1
   16368:	460d                	li	a2,3
   1636a:	e5750513          	addi	a0,a0,-425 # e57 <.Lline_table_start1+0xc2c>
   1636e:	4709                	li	a4,2
   16370:	07f00793          	li	a5,127
   16374:	4581                	li	a1,0
   16376:	4681                	li	a3,0
   16378:	00000073          	ecall
   1637c:	02a7e863          	bltu	a5,a0,163ac <_ZN20complex_full_dynamic3app17hebe6c4b14ae0a8ceE+0xc4>
   16380:	00b9a223          	sw	a1,4(s3)
   16384:	4505                	li	a0,1
   16386:	00a98023          	sb	a0,0(s3)
   1638a:	0888                	addi	a0,sp,80
   1638c:	00005097          	auipc	ra,0x5
   16390:	b5a080e7          	jalr	-1190(ra) # 1aee6 <_ZN9allow_pin12full_dynamic17unshare_if_shared17h3ae8596986353d28E>
   16394:	0068                	addi	a0,sp,12
   16396:	00005097          	auipc	ra,0x5
   1639a:	b50080e7          	jalr	-1200(ra) # 1aee6 <_ZN9allow_pin12full_dynamic17unshare_if_shared17h3ae8596986353d28E>
   1639e:	50ba                	lw	ra,172(sp)
   163a0:	542a                	lw	s0,168(sp)
   163a2:	549a                	lw	s1,164(sp)
   163a4:	590a                	lw	s2,160(sp)
   163a6:	49fa                	lw	s3,156(sp)
   163a8:	614d                	addi	sp,sp,176
   163aa:	8082                	ret
   163ac:	0068                	addi	a0,sp,12
   163ae:	00005097          	auipc	ra,0x5
   163b2:	b38080e7          	jalr	-1224(ra) # 1aee6 <_ZN9allow_pin12full_dynamic17unshare_if_shared17h3ae8596986353d28E>
   163b6:	0888                	addi	a0,sp,80
   163b8:	00005097          	auipc	ra,0x5
   163bc:	b2e080e7          	jalr	-1234(ra) # 1aee6 <_ZN9allow_pin12full_dynamic17unshare_if_shared17h3ae8596986353d28E>
   163c0:	0888                	addi	a0,sp,80
   163c2:	00005097          	auipc	ra,0x5
   163c6:	b24080e7          	jalr	-1244(ra) # 1aee6 <_ZN9allow_pin12full_dynamic17unshare_if_shared17h3ae8596986353d28E>
   163ca:	00198513          	addi	a0,s3,1
   163ce:	03f00613          	li	a2,63
   163d2:	85ca                	mv	a1,s2
   163d4:	00005097          	auipc	ra,0x5
   163d8:	b9e080e7          	jalr	-1122(ra) # 1af72 <memcpy>
   163dc:	4501                	li	a0,0
   163de:	b765                	j	16386 <_ZN20complex_full_dynamic3app17hebe6c4b14ae0a8ceE+0x9e>

000163e0 <_ZN20complex_full_dynamic3app17hee4bb6d6dc14baf6E>:
   163e0:	7119                	addi	sp,sp,-128
   163e2:	de86                	sw	ra,124(sp)
   163e4:	dca2                	sw	s0,120(sp)
   163e6:	daa6                	sw	s1,116(sp)
   163e8:	d8ca                	sw	s2,112(sp)
   163ea:	d6ce                	sw	s3,108(sp)
   163ec:	89aa                	mv	s3,a0
   163ee:	4409                	li	s0,2
   163f0:	00810a23          	sb	s0,20(sp)
   163f4:	0824                	addi	s1,sp,24
   163f6:	4641                	li	a2,16
   163f8:	8526                	mv	a0,s1
   163fa:	00005097          	auipc	ra,0x5
   163fe:	b78080e7          	jalr	-1160(ra) # 1af72 <memcpy>
   16402:	03410913          	addi	s2,sp,52
   16406:	03600613          	li	a2,54
   1640a:	854a                	mv	a0,s2
   1640c:	4581                	li	a1,0
   1640e:	00005097          	auipc	ra,0x5
   16412:	af8080e7          	jalr	-1288(ra) # 1af06 <memset>
   16416:	8626                	mv	a2,s1
   16418:	02810823          	sb	s0,48(sp)
   1641c:	6509                	lui	a0,0x2
   1641e:	4485                	li	s1,1
   16420:	4811                	li	a6,4
   16422:	4585                	li	a1,1
   16424:	98950793          	addi	a5,a0,-1655 # 1989 <.Lline_table_start1+0x175e>
   16428:	46c1                	li	a3,16
   1642a:	4711                	li	a4,4
   1642c:	853e                	mv	a0,a5
   1642e:	00000073          	ecall
   16432:	04850363          	beq	a0,s0,16478 <_ZN20complex_full_dynamic3app17hee4bb6d6dc14baf6E+0x98>
   16436:	853e                	mv	a0,a5
   16438:	864a                	mv	a2,s2
   1643a:	c63e                	sw	a5,12(sp)
   1643c:	c826                	sw	s1,16(sp)
   1643e:	01010a23          	sb	a6,20(sp)
   16442:	449d                	li	s1,7
   16444:	480d                	li	a6,3
   16446:	459d                	li	a1,7
   16448:	03600693          	li	a3,54
   1644c:	470d                	li	a4,3
   1644e:	00000073          	ecall
   16452:	02850363          	beq	a0,s0,16478 <_ZN20complex_full_dynamic3app17hee4bb6d6dc14baf6E+0x98>
   16456:	d43e                	sw	a5,40(sp)
   16458:	d626                	sw	s1,44(sp)
   1645a:	03010823          	sb	a6,48(sp)
   1645e:	6509                	lui	a0,0x2
   16460:	4585                	li	a1,1
   16462:	461d                	li	a2,7
   16464:	98950513          	addi	a0,a0,-1655 # 1989 <.Lline_table_start1+0x175e>
   16468:	4709                	li	a4,2
   1646a:	07f00793          	li	a5,127
   1646e:	4681                	li	a3,0
   16470:	00000073          	ecall
   16474:	02a7e863          	bltu	a5,a0,164a4 <_ZN20complex_full_dynamic3app17hee4bb6d6dc14baf6E+0xc4>
   16478:	00b9a223          	sw	a1,4(s3)
   1647c:	4505                	li	a0,1
   1647e:	00a98023          	sb	a0,0(s3)
   16482:	1028                	addi	a0,sp,40
   16484:	00005097          	auipc	ra,0x5
   16488:	a62080e7          	jalr	-1438(ra) # 1aee6 <_ZN9allow_pin12full_dynamic17unshare_if_shared17h3ae8596986353d28E>
   1648c:	0068                	addi	a0,sp,12
   1648e:	00005097          	auipc	ra,0x5
   16492:	a58080e7          	jalr	-1448(ra) # 1aee6 <_ZN9allow_pin12full_dynamic17unshare_if_shared17h3ae8596986353d28E>
   16496:	50f6                	lw	ra,124(sp)
   16498:	5466                	lw	s0,120(sp)
   1649a:	54d6                	lw	s1,116(sp)
   1649c:	5946                	lw	s2,112(sp)
   1649e:	59b6                	lw	s3,108(sp)
   164a0:	6109                	addi	sp,sp,128
   164a2:	8082                	ret
   164a4:	0068                	addi	a0,sp,12
   164a6:	00005097          	auipc	ra,0x5
   164aa:	a40080e7          	jalr	-1472(ra) # 1aee6 <_ZN9allow_pin12full_dynamic17unshare_if_shared17h3ae8596986353d28E>
   164ae:	1028                	addi	a0,sp,40
   164b0:	00005097          	auipc	ra,0x5
   164b4:	a36080e7          	jalr	-1482(ra) # 1aee6 <_ZN9allow_pin12full_dynamic17unshare_if_shared17h3ae8596986353d28E>
   164b8:	1028                	addi	a0,sp,40
   164ba:	00005097          	auipc	ra,0x5
   164be:	a2c080e7          	jalr	-1492(ra) # 1aee6 <_ZN9allow_pin12full_dynamic17unshare_if_shared17h3ae8596986353d28E>
   164c2:	00198513          	addi	a0,s3,1
   164c6:	03600613          	li	a2,54
   164ca:	85ca                	mv	a1,s2
   164cc:	00005097          	auipc	ra,0x5
   164d0:	aa6080e7          	jalr	-1370(ra) # 1af72 <memcpy>
   164d4:	4501                	li	a0,0
   164d6:	b765                	j	1647e <_ZN20complex_full_dynamic3app17hee4bb6d6dc14baf6E+0x9e>

000164d8 <_ZN20complex_full_dynamic3app17hee9e5fda240fa764E>:
   164d8:	7155                	addi	sp,sp,-208
   164da:	c786                	sw	ra,204(sp)
   164dc:	c5a2                	sw	s0,200(sp)
   164de:	c3a6                	sw	s1,196(sp)
   164e0:	c1ca                	sw	s2,192(sp)
   164e2:	df4e                	sw	s3,188(sp)
   164e4:	89aa                	mv	s3,a0
   164e6:	4409                	li	s0,2
   164e8:	00810423          	sb	s0,8(sp)
   164ec:	0064                	addi	s1,sp,12
   164ee:	05100613          	li	a2,81
   164f2:	8526                	mv	a0,s1
   164f4:	00005097          	auipc	ra,0x5
   164f8:	a7e080e7          	jalr	-1410(ra) # 1af72 <memcpy>
   164fc:	06c10913          	addi	s2,sp,108
   16500:	04f00613          	li	a2,79
   16504:	854a                	mv	a0,s2
   16506:	4581                	li	a1,0
   16508:	00005097          	auipc	ra,0x5
   1650c:	9fe080e7          	jalr	-1538(ra) # 1af06 <memset>
   16510:	8626                	mv	a2,s1
   16512:	06810423          	sb	s0,104(sp)
   16516:	6509                	lui	a0,0x2
   16518:	4491                	li	s1,4
   1651a:	4591                	li	a1,4
   1651c:	0ee50793          	addi	a5,a0,238 # 20ee <.Lline_table_start1+0x1ec3>
   16520:	05100693          	li	a3,81
   16524:	4711                	li	a4,4
   16526:	853e                	mv	a0,a5
   16528:	00000073          	ecall
   1652c:	04850363          	beq	a0,s0,16572 <_ZN20complex_full_dynamic3app17hee9e5fda240fa764E+0x9a>
   16530:	853e                	mv	a0,a5
   16532:	864a                	mv	a2,s2
   16534:	c03e                	sw	a5,0(sp)
   16536:	c226                	sw	s1,4(sp)
   16538:	00910423          	sb	s1,8(sp)
   1653c:	44a5                	li	s1,9
   1653e:	480d                	li	a6,3
   16540:	45a5                	li	a1,9
   16542:	04f00693          	li	a3,79
   16546:	470d                	li	a4,3
   16548:	00000073          	ecall
   1654c:	02850363          	beq	a0,s0,16572 <_ZN20complex_full_dynamic3app17hee9e5fda240fa764E+0x9a>
   16550:	d0be                	sw	a5,96(sp)
   16552:	d2a6                	sw	s1,100(sp)
   16554:	07010423          	sb	a6,104(sp)
   16558:	6509                	lui	a0,0x2
   1655a:	4591                	li	a1,4
   1655c:	4625                	li	a2,9
   1655e:	0ee50513          	addi	a0,a0,238 # 20ee <.Lline_table_start1+0x1ec3>
   16562:	4709                	li	a4,2
   16564:	07f00793          	li	a5,127
   16568:	4681                	li	a3,0
   1656a:	00000073          	ecall
   1656e:	02a7e863          	bltu	a5,a0,1659e <_ZN20complex_full_dynamic3app17hee9e5fda240fa764E+0xc6>
   16572:	00b9a223          	sw	a1,4(s3)
   16576:	4505                	li	a0,1
   16578:	00a98023          	sb	a0,0(s3)
   1657c:	1088                	addi	a0,sp,96
   1657e:	00005097          	auipc	ra,0x5
   16582:	968080e7          	jalr	-1688(ra) # 1aee6 <_ZN9allow_pin12full_dynamic17unshare_if_shared17h3ae8596986353d28E>
   16586:	850a                	mv	a0,sp
   16588:	00005097          	auipc	ra,0x5
   1658c:	95e080e7          	jalr	-1698(ra) # 1aee6 <_ZN9allow_pin12full_dynamic17unshare_if_shared17h3ae8596986353d28E>
   16590:	40be                	lw	ra,204(sp)
   16592:	442e                	lw	s0,200(sp)
   16594:	449e                	lw	s1,196(sp)
   16596:	490e                	lw	s2,192(sp)
   16598:	59fa                	lw	s3,188(sp)
   1659a:	6169                	addi	sp,sp,208
   1659c:	8082                	ret
   1659e:	850a                	mv	a0,sp
   165a0:	00005097          	auipc	ra,0x5
   165a4:	946080e7          	jalr	-1722(ra) # 1aee6 <_ZN9allow_pin12full_dynamic17unshare_if_shared17h3ae8596986353d28E>
   165a8:	1088                	addi	a0,sp,96
   165aa:	00005097          	auipc	ra,0x5
   165ae:	93c080e7          	jalr	-1732(ra) # 1aee6 <_ZN9allow_pin12full_dynamic17unshare_if_shared17h3ae8596986353d28E>
   165b2:	1088                	addi	a0,sp,96
   165b4:	00005097          	auipc	ra,0x5
   165b8:	932080e7          	jalr	-1742(ra) # 1aee6 <_ZN9allow_pin12full_dynamic17unshare_if_shared17h3ae8596986353d28E>
   165bc:	00198513          	addi	a0,s3,1
   165c0:	04f00613          	li	a2,79
   165c4:	85ca                	mv	a1,s2
   165c6:	00005097          	auipc	ra,0x5
   165ca:	9ac080e7          	jalr	-1620(ra) # 1af72 <memcpy>
   165ce:	4501                	li	a0,0
   165d0:	b765                	j	16578 <_ZN20complex_full_dynamic3app17hee9e5fda240fa764E+0xa0>

000165d2 <_ZN20complex_full_dynamic3app17heff7bd4302ebc819E>:
   165d2:	7175                	addi	sp,sp,-144
   165d4:	c706                	sw	ra,140(sp)
   165d6:	c522                	sw	s0,136(sp)
   165d8:	c326                	sw	s1,132(sp)
   165da:	c14a                	sw	s2,128(sp)
   165dc:	dece                	sw	s3,124(sp)
   165de:	89aa                	mv	s3,a0
   165e0:	4409                	li	s0,2
   165e2:	00810a23          	sb	s0,20(sp)
   165e6:	0824                	addi	s1,sp,24
   165e8:	4649                	li	a2,18
   165ea:	8526                	mv	a0,s1
   165ec:	00005097          	auipc	ra,0x5
   165f0:	986080e7          	jalr	-1658(ra) # 1af72 <memcpy>
   165f4:	03810913          	addi	s2,sp,56
   165f8:	04400613          	li	a2,68
   165fc:	854a                	mv	a0,s2
   165fe:	4581                	li	a1,0
   16600:	00005097          	auipc	ra,0x5
   16604:	906080e7          	jalr	-1786(ra) # 1af06 <memset>
   16608:	8626                	mv	a2,s1
   1660a:	02810a23          	sb	s0,52(sp)
   1660e:	6509                	lui	a0,0x2
   16610:	4491                	li	s1,4
   16612:	4589                	li	a1,2
   16614:	43250793          	addi	a5,a0,1074 # 2432 <.Lline_table_start1+0x2207>
   16618:	46c9                	li	a3,18
   1661a:	4711                	li	a4,4
   1661c:	853e                	mv	a0,a5
   1661e:	00000073          	ecall
   16622:	04850363          	beq	a0,s0,16668 <_ZN20complex_full_dynamic3app17heff7bd4302ebc819E+0x96>
   16626:	853e                	mv	a0,a5
   16628:	864a                	mv	a2,s2
   1662a:	c63e                	sw	a5,12(sp)
   1662c:	c822                	sw	s0,16(sp)
   1662e:	00910a23          	sb	s1,20(sp)
   16632:	44a5                	li	s1,9
   16634:	480d                	li	a6,3
   16636:	45a5                	li	a1,9
   16638:	04400693          	li	a3,68
   1663c:	470d                	li	a4,3
   1663e:	00000073          	ecall
   16642:	02850363          	beq	a0,s0,16668 <_ZN20complex_full_dynamic3app17heff7bd4302ebc819E+0x96>
   16646:	d63e                	sw	a5,44(sp)
   16648:	d826                	sw	s1,48(sp)
   1664a:	03010a23          	sb	a6,52(sp)
   1664e:	6509                	lui	a0,0x2
   16650:	4589                	li	a1,2
   16652:	4625                	li	a2,9
   16654:	43250513          	addi	a0,a0,1074 # 2432 <.Lline_table_start1+0x2207>
   16658:	4709                	li	a4,2
   1665a:	07f00793          	li	a5,127
   1665e:	4681                	li	a3,0
   16660:	00000073          	ecall
   16664:	02a7e863          	bltu	a5,a0,16694 <_ZN20complex_full_dynamic3app17heff7bd4302ebc819E+0xc2>
   16668:	00b9a223          	sw	a1,4(s3)
   1666c:	4505                	li	a0,1
   1666e:	00a98023          	sb	a0,0(s3)
   16672:	1068                	addi	a0,sp,44
   16674:	00005097          	auipc	ra,0x5
   16678:	872080e7          	jalr	-1934(ra) # 1aee6 <_ZN9allow_pin12full_dynamic17unshare_if_shared17h3ae8596986353d28E>
   1667c:	0068                	addi	a0,sp,12
   1667e:	00005097          	auipc	ra,0x5
   16682:	868080e7          	jalr	-1944(ra) # 1aee6 <_ZN9allow_pin12full_dynamic17unshare_if_shared17h3ae8596986353d28E>
   16686:	40ba                	lw	ra,140(sp)
   16688:	442a                	lw	s0,136(sp)
   1668a:	449a                	lw	s1,132(sp)
   1668c:	490a                	lw	s2,128(sp)
   1668e:	59f6                	lw	s3,124(sp)
   16690:	6149                	addi	sp,sp,144
   16692:	8082                	ret
   16694:	0068                	addi	a0,sp,12
   16696:	00005097          	auipc	ra,0x5
   1669a:	850080e7          	jalr	-1968(ra) # 1aee6 <_ZN9allow_pin12full_dynamic17unshare_if_shared17h3ae8596986353d28E>
   1669e:	1068                	addi	a0,sp,44
   166a0:	00005097          	auipc	ra,0x5
   166a4:	846080e7          	jalr	-1978(ra) # 1aee6 <_ZN9allow_pin12full_dynamic17unshare_if_shared17h3ae8596986353d28E>
   166a8:	1068                	addi	a0,sp,44
   166aa:	00005097          	auipc	ra,0x5
   166ae:	83c080e7          	jalr	-1988(ra) # 1aee6 <_ZN9allow_pin12full_dynamic17unshare_if_shared17h3ae8596986353d28E>
   166b2:	00198513          	addi	a0,s3,1
   166b6:	04400613          	li	a2,68
   166ba:	85ca                	mv	a1,s2
   166bc:	00005097          	auipc	ra,0x5
   166c0:	8b6080e7          	jalr	-1866(ra) # 1af72 <memcpy>
   166c4:	4501                	li	a0,0
   166c6:	b765                	j	1666e <_ZN20complex_full_dynamic3app17heff7bd4302ebc819E+0x9c>

000166c8 <_ZN20complex_full_dynamic3app17hf55fd2d9c3cc8ce3E>:
   166c8:	7175                	addi	sp,sp,-144
   166ca:	c706                	sw	ra,140(sp)
   166cc:	c522                	sw	s0,136(sp)
   166ce:	c326                	sw	s1,132(sp)
   166d0:	c14a                	sw	s2,128(sp)
   166d2:	dece                	sw	s3,124(sp)
   166d4:	89aa                	mv	s3,a0
   166d6:	4409                	li	s0,2
   166d8:	00810623          	sb	s0,12(sp)
   166dc:	0804                	addi	s1,sp,16
   166de:	03800613          	li	a2,56
   166e2:	8526                	mv	a0,s1
   166e4:	00005097          	auipc	ra,0x5
   166e8:	88e080e7          	jalr	-1906(ra) # 1af72 <memcpy>
   166ec:	05410913          	addi	s2,sp,84
   166f0:	02700613          	li	a2,39
   166f4:	854a                	mv	a0,s2
   166f6:	4581                	li	a1,0
   166f8:	00005097          	auipc	ra,0x5
   166fc:	80e080e7          	jalr	-2034(ra) # 1af06 <memset>
   16700:	8626                	mv	a2,s1
   16702:	04810823          	sb	s0,80(sp)
   16706:	6505                	lui	a0,0x1
   16708:	4491                	li	s1,4
   1670a:	4589                	li	a1,2
   1670c:	e2b50793          	addi	a5,a0,-469 # e2b <.Lline_table_start1+0xc00>
   16710:	03800693          	li	a3,56
   16714:	4711                	li	a4,4
   16716:	853e                	mv	a0,a5
   16718:	00000073          	ecall
   1671c:	04850363          	beq	a0,s0,16762 <_ZN20complex_full_dynamic3app17hf55fd2d9c3cc8ce3E+0x9a>
   16720:	853e                	mv	a0,a5
   16722:	864a                	mv	a2,s2
   16724:	c23e                	sw	a5,4(sp)
   16726:	c422                	sw	s0,8(sp)
   16728:	00910623          	sb	s1,12(sp)
   1672c:	44a1                	li	s1,8
   1672e:	480d                	li	a6,3
   16730:	45a1                	li	a1,8
   16732:	02700693          	li	a3,39
   16736:	470d                	li	a4,3
   16738:	00000073          	ecall
   1673c:	02850363          	beq	a0,s0,16762 <_ZN20complex_full_dynamic3app17hf55fd2d9c3cc8ce3E+0x9a>
   16740:	c4be                	sw	a5,72(sp)
   16742:	c6a6                	sw	s1,76(sp)
   16744:	05010823          	sb	a6,80(sp)
   16748:	6505                	lui	a0,0x1
   1674a:	4589                	li	a1,2
   1674c:	4621                	li	a2,8
   1674e:	e2b50513          	addi	a0,a0,-469 # e2b <.Lline_table_start1+0xc00>
   16752:	4709                	li	a4,2
   16754:	07f00793          	li	a5,127
   16758:	4681                	li	a3,0
   1675a:	00000073          	ecall
   1675e:	02a7e863          	bltu	a5,a0,1678e <_ZN20complex_full_dynamic3app17hf55fd2d9c3cc8ce3E+0xc6>
   16762:	00b9a223          	sw	a1,4(s3)
   16766:	4505                	li	a0,1
   16768:	00a98023          	sb	a0,0(s3)
   1676c:	00a8                	addi	a0,sp,72
   1676e:	00004097          	auipc	ra,0x4
   16772:	778080e7          	jalr	1912(ra) # 1aee6 <_ZN9allow_pin12full_dynamic17unshare_if_shared17h3ae8596986353d28E>
   16776:	0048                	addi	a0,sp,4
   16778:	00004097          	auipc	ra,0x4
   1677c:	76e080e7          	jalr	1902(ra) # 1aee6 <_ZN9allow_pin12full_dynamic17unshare_if_shared17h3ae8596986353d28E>
   16780:	40ba                	lw	ra,140(sp)
   16782:	442a                	lw	s0,136(sp)
   16784:	449a                	lw	s1,132(sp)
   16786:	490a                	lw	s2,128(sp)
   16788:	59f6                	lw	s3,124(sp)
   1678a:	6149                	addi	sp,sp,144
   1678c:	8082                	ret
   1678e:	0048                	addi	a0,sp,4
   16790:	00004097          	auipc	ra,0x4
   16794:	756080e7          	jalr	1878(ra) # 1aee6 <_ZN9allow_pin12full_dynamic17unshare_if_shared17h3ae8596986353d28E>
   16798:	00a8                	addi	a0,sp,72
   1679a:	00004097          	auipc	ra,0x4
   1679e:	74c080e7          	jalr	1868(ra) # 1aee6 <_ZN9allow_pin12full_dynamic17unshare_if_shared17h3ae8596986353d28E>
   167a2:	00a8                	addi	a0,sp,72
   167a4:	00004097          	auipc	ra,0x4
   167a8:	742080e7          	jalr	1858(ra) # 1aee6 <_ZN9allow_pin12full_dynamic17unshare_if_shared17h3ae8596986353d28E>
   167ac:	00198513          	addi	a0,s3,1
   167b0:	02700613          	li	a2,39
   167b4:	85ca                	mv	a1,s2
   167b6:	00004097          	auipc	ra,0x4
   167ba:	7bc080e7          	jalr	1980(ra) # 1af72 <memcpy>
   167be:	4501                	li	a0,0
   167c0:	b765                	j	16768 <_ZN20complex_full_dynamic3app17hf55fd2d9c3cc8ce3E+0xa0>

000167c2 <_ZN20complex_full_dynamic3app17hf60cea69642a5d13E>:
   167c2:	7119                	addi	sp,sp,-128
   167c4:	de86                	sw	ra,124(sp)
   167c6:	dca2                	sw	s0,120(sp)
   167c8:	daa6                	sw	s1,116(sp)
   167ca:	d8ca                	sw	s2,112(sp)
   167cc:	d6ce                	sw	s3,108(sp)
   167ce:	892a                	mv	s2,a0
   167d0:	4409                	li	s0,2
   167d2:	00810a23          	sb	s0,20(sp)
   167d6:	0824                	addi	s1,sp,24
   167d8:	03600613          	li	a2,54
   167dc:	8526                	mv	a0,s1
   167de:	00004097          	auipc	ra,0x4
   167e2:	794080e7          	jalr	1940(ra) # 1af72 <memcpy>
   167e6:	8626                	mv	a2,s1
   167e8:	06011423          	sh	zero,104(sp)
   167ec:	06010523          	sb	zero,106(sp)
   167f0:	04810c23          	sb	s0,88(sp)
   167f4:	ce82                	sw	zero,92(sp)
   167f6:	d082                	sw	zero,96(sp)
   167f8:	d282                	sw	zero,100(sp)
   167fa:	65300793          	li	a5,1619
   167fe:	4495                	li	s1,5
   16800:	4811                	li	a6,4
   16802:	65300513          	li	a0,1619
   16806:	4595                	li	a1,5
   16808:	03600693          	li	a3,54
   1680c:	4711                	li	a4,4
   1680e:	00000073          	ecall
   16812:	04850563          	beq	a0,s0,1685c <_ZN20complex_full_dynamic3app17hf60cea69642a5d13E+0x9a>
   16816:	05c10993          	addi	s3,sp,92
   1681a:	c63e                	sw	a5,12(sp)
   1681c:	c826                	sw	s1,16(sp)
   1681e:	01010a23          	sb	a6,20(sp)
   16822:	478d                	li	a5,3
   16824:	65300513          	li	a0,1619
   16828:	458d                	li	a1,3
   1682a:	46bd                	li	a3,15
   1682c:	470d                	li	a4,3
   1682e:	864e                	mv	a2,s3
   16830:	00000073          	ecall
   16834:	02850463          	beq	a0,s0,1685c <_ZN20complex_full_dynamic3app17hf60cea69642a5d13E+0x9a>
   16838:	65300693          	li	a3,1619
   1683c:	65300513          	li	a0,1619
   16840:	4595                	li	a1,5
   16842:	460d                	li	a2,3
   16844:	4709                	li	a4,2
   16846:	07f00493          	li	s1,127
   1684a:	c8b6                	sw	a3,80(sp)
   1684c:	cabe                	sw	a5,84(sp)
   1684e:	04f10c23          	sb	a5,88(sp)
   16852:	4681                	li	a3,0
   16854:	00000073          	ecall
   16858:	02a4e863          	bltu	s1,a0,16888 <_ZN20complex_full_dynamic3app17hf60cea69642a5d13E+0xc6>
   1685c:	00b92223          	sw	a1,4(s2)
   16860:	4505                	li	a0,1
   16862:	00a90023          	sb	a0,0(s2)
   16866:	0888                	addi	a0,sp,80
   16868:	00004097          	auipc	ra,0x4
   1686c:	67e080e7          	jalr	1662(ra) # 1aee6 <_ZN9allow_pin12full_dynamic17unshare_if_shared17h3ae8596986353d28E>
   16870:	0068                	addi	a0,sp,12
   16872:	00004097          	auipc	ra,0x4
   16876:	674080e7          	jalr	1652(ra) # 1aee6 <_ZN9allow_pin12full_dynamic17unshare_if_shared17h3ae8596986353d28E>
   1687a:	50f6                	lw	ra,124(sp)
   1687c:	5466                	lw	s0,120(sp)
   1687e:	54d6                	lw	s1,116(sp)
   16880:	5946                	lw	s2,112(sp)
   16882:	59b6                	lw	s3,108(sp)
   16884:	6109                	addi	sp,sp,128
   16886:	8082                	ret
   16888:	0068                	addi	a0,sp,12
   1688a:	00004097          	auipc	ra,0x4
   1688e:	65c080e7          	jalr	1628(ra) # 1aee6 <_ZN9allow_pin12full_dynamic17unshare_if_shared17h3ae8596986353d28E>
   16892:	0888                	addi	a0,sp,80
   16894:	00004097          	auipc	ra,0x4
   16898:	652080e7          	jalr	1618(ra) # 1aee6 <_ZN9allow_pin12full_dynamic17unshare_if_shared17h3ae8596986353d28E>
   1689c:	0888                	addi	a0,sp,80
   1689e:	00004097          	auipc	ra,0x4
   168a2:	648080e7          	jalr	1608(ra) # 1aee6 <_ZN9allow_pin12full_dynamic17unshare_if_shared17h3ae8596986353d28E>
   168a6:	00190513          	addi	a0,s2,1
   168aa:	463d                	li	a2,15
   168ac:	85ce                	mv	a1,s3
   168ae:	00004097          	auipc	ra,0x4
   168b2:	6c4080e7          	jalr	1732(ra) # 1af72 <memcpy>
   168b6:	4501                	li	a0,0
   168b8:	b76d                	j	16862 <_ZN20complex_full_dynamic3app17hf60cea69642a5d13E+0xa0>

000168ba <_ZN20complex_full_dynamic3app17hfa74ef9bac71f765E>:
   168ba:	7135                	addi	sp,sp,-160
   168bc:	cf06                	sw	ra,156(sp)
   168be:	cd22                	sw	s0,152(sp)
   168c0:	cb26                	sw	s1,148(sp)
   168c2:	c94a                	sw	s2,144(sp)
   168c4:	c74e                	sw	s3,140(sp)
   168c6:	89aa                	mv	s3,a0
   168c8:	4409                	li	s0,2
   168ca:	00810823          	sb	s0,16(sp)
   168ce:	0844                	addi	s1,sp,20
   168d0:	4669                	li	a2,26
   168d2:	8526                	mv	a0,s1
   168d4:	00004097          	auipc	ra,0x4
   168d8:	69e080e7          	jalr	1694(ra) # 1af72 <memcpy>
   168dc:	03c10913          	addi	s2,sp,60
   168e0:	05000613          	li	a2,80
   168e4:	854a                	mv	a0,s2
   168e6:	4581                	li	a1,0
   168e8:	00004097          	auipc	ra,0x4
   168ec:	61e080e7          	jalr	1566(ra) # 1af06 <memset>
   168f0:	8626                	mv	a2,s1
   168f2:	02810c23          	sb	s0,56(sp)
   168f6:	6505                	lui	a0,0x1
   168f8:	449d                	li	s1,7
   168fa:	4811                	li	a6,4
   168fc:	459d                	li	a1,7
   168fe:	aee50793          	addi	a5,a0,-1298 # aee <.Lline_table_start1+0x8c3>
   16902:	46e9                	li	a3,26
   16904:	4711                	li	a4,4
   16906:	853e                	mv	a0,a5
   16908:	00000073          	ecall
   1690c:	04850363          	beq	a0,s0,16952 <_ZN20complex_full_dynamic3app17hfa74ef9bac71f765E+0x98>
   16910:	853e                	mv	a0,a5
   16912:	864a                	mv	a2,s2
   16914:	c43e                	sw	a5,8(sp)
   16916:	c626                	sw	s1,12(sp)
   16918:	01010823          	sb	a6,16(sp)
   1691c:	448d                	li	s1,3
   1691e:	4591                	li	a1,4
   16920:	05000693          	li	a3,80
   16924:	470d                	li	a4,3
   16926:	00000073          	ecall
   1692a:	02850463          	beq	a0,s0,16952 <_ZN20complex_full_dynamic3app17hfa74ef9bac71f765E+0x98>
   1692e:	4511                	li	a0,4
   16930:	6685                	lui	a3,0x1
   16932:	459d                	li	a1,7
   16934:	4611                	li	a2,4
   16936:	d83e                	sw	a5,48(sp)
   16938:	da2a                	sw	a0,52(sp)
   1693a:	02910c23          	sb	s1,56(sp)
   1693e:	aee68513          	addi	a0,a3,-1298 # aee <.Lline_table_start1+0x8c3>
   16942:	4709                	li	a4,2
   16944:	07f00793          	li	a5,127
   16948:	4681                	li	a3,0
   1694a:	00000073          	ecall
   1694e:	02a7e863          	bltu	a5,a0,1697e <_ZN20complex_full_dynamic3app17hfa74ef9bac71f765E+0xc4>
   16952:	00b9a223          	sw	a1,4(s3)
   16956:	4505                	li	a0,1
   16958:	00a98023          	sb	a0,0(s3)
   1695c:	1808                	addi	a0,sp,48
   1695e:	00004097          	auipc	ra,0x4
   16962:	588080e7          	jalr	1416(ra) # 1aee6 <_ZN9allow_pin12full_dynamic17unshare_if_shared17h3ae8596986353d28E>
   16966:	0028                	addi	a0,sp,8
   16968:	00004097          	auipc	ra,0x4
   1696c:	57e080e7          	jalr	1406(ra) # 1aee6 <_ZN9allow_pin12full_dynamic17unshare_if_shared17h3ae8596986353d28E>
   16970:	40fa                	lw	ra,156(sp)
   16972:	446a                	lw	s0,152(sp)
   16974:	44da                	lw	s1,148(sp)
   16976:	494a                	lw	s2,144(sp)
   16978:	49ba                	lw	s3,140(sp)
   1697a:	610d                	addi	sp,sp,160
   1697c:	8082                	ret
   1697e:	0028                	addi	a0,sp,8
   16980:	00004097          	auipc	ra,0x4
   16984:	566080e7          	jalr	1382(ra) # 1aee6 <_ZN9allow_pin12full_dynamic17unshare_if_shared17h3ae8596986353d28E>
   16988:	1808                	addi	a0,sp,48
   1698a:	00004097          	auipc	ra,0x4
   1698e:	55c080e7          	jalr	1372(ra) # 1aee6 <_ZN9allow_pin12full_dynamic17unshare_if_shared17h3ae8596986353d28E>
   16992:	1808                	addi	a0,sp,48
   16994:	00004097          	auipc	ra,0x4
   16998:	552080e7          	jalr	1362(ra) # 1aee6 <_ZN9allow_pin12full_dynamic17unshare_if_shared17h3ae8596986353d28E>
   1699c:	00198513          	addi	a0,s3,1
   169a0:	05000613          	li	a2,80
   169a4:	85ca                	mv	a1,s2
   169a6:	00004097          	auipc	ra,0x4
   169aa:	5cc080e7          	jalr	1484(ra) # 1af72 <memcpy>
   169ae:	4501                	li	a0,0
   169b0:	b765                	j	16958 <_ZN20complex_full_dynamic3app17hfa74ef9bac71f765E+0x9e>

000169b2 <_ZN20complex_full_dynamic3app17hfb912d6752143315E>:
   169b2:	7135                	addi	sp,sp,-160
   169b4:	cf06                	sw	ra,156(sp)
   169b6:	cd22                	sw	s0,152(sp)
   169b8:	cb26                	sw	s1,148(sp)
   169ba:	c94a                	sw	s2,144(sp)
   169bc:	c74e                	sw	s3,140(sp)
   169be:	89aa                	mv	s3,a0
   169c0:	4409                	li	s0,2
   169c2:	00810623          	sb	s0,12(sp)
   169c6:	0804                	addi	s1,sp,16
   169c8:	03c00613          	li	a2,60
   169cc:	8526                	mv	a0,s1
   169ce:	00004097          	auipc	ra,0x4
   169d2:	5a4080e7          	jalr	1444(ra) # 1af72 <memcpy>
   169d6:	05810913          	addi	s2,sp,88
   169da:	03200613          	li	a2,50
   169de:	854a                	mv	a0,s2
   169e0:	4581                	li	a1,0
   169e2:	00004097          	auipc	ra,0x4
   169e6:	524080e7          	jalr	1316(ra) # 1af06 <memset>
   169ea:	8626                	mv	a2,s1
   169ec:	04810a23          	sb	s0,84(sp)
   169f0:	6509                	lui	a0,0x2
   169f2:	4499                	li	s1,6
   169f4:	4811                	li	a6,4
   169f6:	4599                	li	a1,6
   169f8:	b1e50793          	addi	a5,a0,-1250 # 1b1e <.Lline_table_start1+0x18f3>
   169fc:	03c00693          	li	a3,60
   16a00:	4711                	li	a4,4
   16a02:	853e                	mv	a0,a5
   16a04:	00000073          	ecall
   16a08:	04850363          	beq	a0,s0,16a4e <_ZN20complex_full_dynamic3app17hfb912d6752143315E+0x9c>
   16a0c:	853e                	mv	a0,a5
   16a0e:	864a                	mv	a2,s2
   16a10:	c23e                	sw	a5,4(sp)
   16a12:	c426                	sw	s1,8(sp)
   16a14:	01010623          	sb	a6,12(sp)
   16a18:	44a1                	li	s1,8
   16a1a:	480d                	li	a6,3
   16a1c:	45a1                	li	a1,8
   16a1e:	03200693          	li	a3,50
   16a22:	470d                	li	a4,3
   16a24:	00000073          	ecall
   16a28:	02850363          	beq	a0,s0,16a4e <_ZN20complex_full_dynamic3app17hfb912d6752143315E+0x9c>
   16a2c:	c6be                	sw	a5,76(sp)
   16a2e:	c8a6                	sw	s1,80(sp)
   16a30:	05010a23          	sb	a6,84(sp)
   16a34:	6509                	lui	a0,0x2
   16a36:	4599                	li	a1,6
   16a38:	4621                	li	a2,8
   16a3a:	b1e50513          	addi	a0,a0,-1250 # 1b1e <.Lline_table_start1+0x18f3>
   16a3e:	4709                	li	a4,2
   16a40:	07f00793          	li	a5,127
   16a44:	4681                	li	a3,0
   16a46:	00000073          	ecall
   16a4a:	02a7e863          	bltu	a5,a0,16a7a <_ZN20complex_full_dynamic3app17hfb912d6752143315E+0xc8>
   16a4e:	00b9a223          	sw	a1,4(s3)
   16a52:	4505                	li	a0,1
   16a54:	00a98023          	sb	a0,0(s3)
   16a58:	00e8                	addi	a0,sp,76
   16a5a:	00004097          	auipc	ra,0x4
   16a5e:	48c080e7          	jalr	1164(ra) # 1aee6 <_ZN9allow_pin12full_dynamic17unshare_if_shared17h3ae8596986353d28E>
   16a62:	0048                	addi	a0,sp,4
   16a64:	00004097          	auipc	ra,0x4
   16a68:	482080e7          	jalr	1154(ra) # 1aee6 <_ZN9allow_pin12full_dynamic17unshare_if_shared17h3ae8596986353d28E>
   16a6c:	40fa                	lw	ra,156(sp)
   16a6e:	446a                	lw	s0,152(sp)
   16a70:	44da                	lw	s1,148(sp)
   16a72:	494a                	lw	s2,144(sp)
   16a74:	49ba                	lw	s3,140(sp)
   16a76:	610d                	addi	sp,sp,160
   16a78:	8082                	ret
   16a7a:	0048                	addi	a0,sp,4
   16a7c:	00004097          	auipc	ra,0x4
   16a80:	46a080e7          	jalr	1130(ra) # 1aee6 <_ZN9allow_pin12full_dynamic17unshare_if_shared17h3ae8596986353d28E>
   16a84:	00e8                	addi	a0,sp,76
   16a86:	00004097          	auipc	ra,0x4
   16a8a:	460080e7          	jalr	1120(ra) # 1aee6 <_ZN9allow_pin12full_dynamic17unshare_if_shared17h3ae8596986353d28E>
   16a8e:	00e8                	addi	a0,sp,76
   16a90:	00004097          	auipc	ra,0x4
   16a94:	456080e7          	jalr	1110(ra) # 1aee6 <_ZN9allow_pin12full_dynamic17unshare_if_shared17h3ae8596986353d28E>
   16a98:	00198513          	addi	a0,s3,1
   16a9c:	03200613          	li	a2,50
   16aa0:	85ca                	mv	a1,s2
   16aa2:	00004097          	auipc	ra,0x4
   16aa6:	4d0080e7          	jalr	1232(ra) # 1af72 <memcpy>
   16aaa:	4501                	li	a0,0
   16aac:	b765                	j	16a54 <_ZN20complex_full_dynamic3app17hfb912d6752143315E+0xa2>

00016aae <_ZN20complex_full_dynamic3app17hfd716ea993af3074E>:
   16aae:	7119                	addi	sp,sp,-128
   16ab0:	de86                	sw	ra,124(sp)
   16ab2:	dca2                	sw	s0,120(sp)
   16ab4:	daa6                	sw	s1,116(sp)
   16ab6:	d8ca                	sw	s2,112(sp)
   16ab8:	d6ce                	sw	s3,108(sp)
   16aba:	89aa                	mv	s3,a0
   16abc:	4409                	li	s0,2
   16abe:	00810a23          	sb	s0,20(sp)
   16ac2:	0824                	addi	s1,sp,24
   16ac4:	02300613          	li	a2,35
   16ac8:	8526                	mv	a0,s1
   16aca:	00004097          	auipc	ra,0x4
   16ace:	4a8080e7          	jalr	1192(ra) # 1af72 <memcpy>
   16ad2:	04810913          	addi	s2,sp,72
   16ad6:	02400613          	li	a2,36
   16ada:	854a                	mv	a0,s2
   16adc:	4581                	li	a1,0
   16ade:	00004097          	auipc	ra,0x4
   16ae2:	428080e7          	jalr	1064(ra) # 1af06 <memset>
   16ae6:	8626                	mv	a2,s1
   16ae8:	04810223          	sb	s0,68(sp)
   16aec:	6509                	lui	a0,0x2
   16aee:	4491                	li	s1,4
   16af0:	4591                	li	a1,4
   16af2:	bd650793          	addi	a5,a0,-1066 # 1bd6 <.Lline_table_start1+0x19ab>
   16af6:	02300693          	li	a3,35
   16afa:	4711                	li	a4,4
   16afc:	853e                	mv	a0,a5
   16afe:	00000073          	ecall
   16b02:	04850363          	beq	a0,s0,16b48 <_ZN20complex_full_dynamic3app17hfd716ea993af3074E+0x9a>
   16b06:	853e                	mv	a0,a5
   16b08:	864a                	mv	a2,s2
   16b0a:	c63e                	sw	a5,12(sp)
   16b0c:	c826                	sw	s1,16(sp)
   16b0e:	00910a23          	sb	s1,20(sp)
   16b12:	44a1                	li	s1,8
   16b14:	480d                	li	a6,3
   16b16:	45a1                	li	a1,8
   16b18:	02400693          	li	a3,36
   16b1c:	470d                	li	a4,3
   16b1e:	00000073          	ecall
   16b22:	02850363          	beq	a0,s0,16b48 <_ZN20complex_full_dynamic3app17hfd716ea993af3074E+0x9a>
   16b26:	de3e                	sw	a5,60(sp)
   16b28:	c0a6                	sw	s1,64(sp)
   16b2a:	05010223          	sb	a6,68(sp)
   16b2e:	6509                	lui	a0,0x2
   16b30:	4591                	li	a1,4
   16b32:	4621                	li	a2,8
   16b34:	bd650513          	addi	a0,a0,-1066 # 1bd6 <.Lline_table_start1+0x19ab>
   16b38:	4709                	li	a4,2
   16b3a:	07f00793          	li	a5,127
   16b3e:	4681                	li	a3,0
   16b40:	00000073          	ecall
   16b44:	02a7e863          	bltu	a5,a0,16b74 <_ZN20complex_full_dynamic3app17hfd716ea993af3074E+0xc6>
   16b48:	00b9a223          	sw	a1,4(s3)
   16b4c:	4505                	li	a0,1
   16b4e:	00a98023          	sb	a0,0(s3)
   16b52:	1868                	addi	a0,sp,60
   16b54:	00004097          	auipc	ra,0x4
   16b58:	392080e7          	jalr	914(ra) # 1aee6 <_ZN9allow_pin12full_dynamic17unshare_if_shared17h3ae8596986353d28E>
   16b5c:	0068                	addi	a0,sp,12
   16b5e:	00004097          	auipc	ra,0x4
   16b62:	388080e7          	jalr	904(ra) # 1aee6 <_ZN9allow_pin12full_dynamic17unshare_if_shared17h3ae8596986353d28E>
   16b66:	50f6                	lw	ra,124(sp)
   16b68:	5466                	lw	s0,120(sp)
   16b6a:	54d6                	lw	s1,116(sp)
   16b6c:	5946                	lw	s2,112(sp)
   16b6e:	59b6                	lw	s3,108(sp)
   16b70:	6109                	addi	sp,sp,128
   16b72:	8082                	ret
   16b74:	0068                	addi	a0,sp,12
   16b76:	00004097          	auipc	ra,0x4
   16b7a:	370080e7          	jalr	880(ra) # 1aee6 <_ZN9allow_pin12full_dynamic17unshare_if_shared17h3ae8596986353d28E>
   16b7e:	1868                	addi	a0,sp,60
   16b80:	00004097          	auipc	ra,0x4
   16b84:	366080e7          	jalr	870(ra) # 1aee6 <_ZN9allow_pin12full_dynamic17unshare_if_shared17h3ae8596986353d28E>
   16b88:	1868                	addi	a0,sp,60
   16b8a:	00004097          	auipc	ra,0x4
   16b8e:	35c080e7          	jalr	860(ra) # 1aee6 <_ZN9allow_pin12full_dynamic17unshare_if_shared17h3ae8596986353d28E>
   16b92:	00198513          	addi	a0,s3,1
   16b96:	02400613          	li	a2,36
   16b9a:	85ca                	mv	a1,s2
   16b9c:	00004097          	auipc	ra,0x4
   16ba0:	3d6080e7          	jalr	982(ra) # 1af72 <memcpy>
   16ba4:	4501                	li	a0,0
   16ba6:	b765                	j	16b4e <_ZN20complex_full_dynamic3app17hfd716ea993af3074E+0xa0>

00016ba8 <_ZN20complex_full_dynamic3app17hffd3bb81067d25fcE>:
   16ba8:	7135                	addi	sp,sp,-160
   16baa:	cf06                	sw	ra,156(sp)
   16bac:	cd22                	sw	s0,152(sp)
   16bae:	cb26                	sw	s1,148(sp)
   16bb0:	c94a                	sw	s2,144(sp)
   16bb2:	c74e                	sw	s3,140(sp)
   16bb4:	89aa                	mv	s3,a0
   16bb6:	4409                	li	s0,2
   16bb8:	00810a23          	sb	s0,20(sp)
   16bbc:	0824                	addi	s1,sp,24
   16bbe:	04400613          	li	a2,68
   16bc2:	8526                	mv	a0,s1
   16bc4:	00004097          	auipc	ra,0x4
   16bc8:	3ae080e7          	jalr	942(ra) # 1af72 <memcpy>
   16bcc:	06810913          	addi	s2,sp,104
   16bd0:	02300613          	li	a2,35
   16bd4:	854a                	mv	a0,s2
   16bd6:	4581                	li	a1,0
   16bd8:	00004097          	auipc	ra,0x4
   16bdc:	32e080e7          	jalr	814(ra) # 1af06 <memset>
   16be0:	8626                	mv	a2,s1
   16be2:	06810223          	sb	s0,100(sp)
   16be6:	6505                	lui	a0,0x1
   16be8:	4499                	li	s1,6
   16bea:	4811                	li	a6,4
   16bec:	4599                	li	a1,6
   16bee:	9bf50793          	addi	a5,a0,-1601 # 9bf <.Lline_table_start1+0x794>
   16bf2:	04400693          	li	a3,68
   16bf6:	4711                	li	a4,4
   16bf8:	853e                	mv	a0,a5
   16bfa:	00000073          	ecall
   16bfe:	04850263          	beq	a0,s0,16c42 <_ZN20complex_full_dynamic3app17hffd3bb81067d25fcE+0x9a>
   16c02:	853e                	mv	a0,a5
   16c04:	864a                	mv	a2,s2
   16c06:	c63e                	sw	a5,12(sp)
   16c08:	c826                	sw	s1,16(sp)
   16c0a:	01010a23          	sb	a6,20(sp)
   16c0e:	448d                	li	s1,3
   16c10:	458d                	li	a1,3
   16c12:	02300693          	li	a3,35
   16c16:	470d                	li	a4,3
   16c18:	00000073          	ecall
   16c1c:	02850363          	beq	a0,s0,16c42 <_ZN20complex_full_dynamic3app17hffd3bb81067d25fcE+0x9a>
   16c20:	cebe                	sw	a5,92(sp)
   16c22:	d0a6                	sw	s1,96(sp)
   16c24:	06910223          	sb	s1,100(sp)
   16c28:	6505                	lui	a0,0x1
   16c2a:	4599                	li	a1,6
   16c2c:	460d                	li	a2,3
   16c2e:	9bf50513          	addi	a0,a0,-1601 # 9bf <.Lline_table_start1+0x794>
   16c32:	4709                	li	a4,2
   16c34:	07f00793          	li	a5,127
   16c38:	4681                	li	a3,0
   16c3a:	00000073          	ecall
   16c3e:	02a7e863          	bltu	a5,a0,16c6e <_ZN20complex_full_dynamic3app17hffd3bb81067d25fcE+0xc6>
   16c42:	00b9a223          	sw	a1,4(s3)
   16c46:	4505                	li	a0,1
   16c48:	00a98023          	sb	a0,0(s3)
   16c4c:	08e8                	addi	a0,sp,92
   16c4e:	00004097          	auipc	ra,0x4
   16c52:	298080e7          	jalr	664(ra) # 1aee6 <_ZN9allow_pin12full_dynamic17unshare_if_shared17h3ae8596986353d28E>
   16c56:	0068                	addi	a0,sp,12
   16c58:	00004097          	auipc	ra,0x4
   16c5c:	28e080e7          	jalr	654(ra) # 1aee6 <_ZN9allow_pin12full_dynamic17unshare_if_shared17h3ae8596986353d28E>
   16c60:	40fa                	lw	ra,156(sp)
   16c62:	446a                	lw	s0,152(sp)
   16c64:	44da                	lw	s1,148(sp)
   16c66:	494a                	lw	s2,144(sp)
   16c68:	49ba                	lw	s3,140(sp)
   16c6a:	610d                	addi	sp,sp,160
   16c6c:	8082                	ret
   16c6e:	0068                	addi	a0,sp,12
   16c70:	00004097          	auipc	ra,0x4
   16c74:	276080e7          	jalr	630(ra) # 1aee6 <_ZN9allow_pin12full_dynamic17unshare_if_shared17h3ae8596986353d28E>
   16c78:	08e8                	addi	a0,sp,92
   16c7a:	00004097          	auipc	ra,0x4
   16c7e:	26c080e7          	jalr	620(ra) # 1aee6 <_ZN9allow_pin12full_dynamic17unshare_if_shared17h3ae8596986353d28E>
   16c82:	08e8                	addi	a0,sp,92
   16c84:	00004097          	auipc	ra,0x4
   16c88:	262080e7          	jalr	610(ra) # 1aee6 <_ZN9allow_pin12full_dynamic17unshare_if_shared17h3ae8596986353d28E>
   16c8c:	00198513          	addi	a0,s3,1
   16c90:	02300613          	li	a2,35
   16c94:	85ca                	mv	a1,s2
   16c96:	00004097          	auipc	ra,0x4
   16c9a:	2dc080e7          	jalr	732(ra) # 1af72 <memcpy>
   16c9e:	4501                	li	a0,0
   16ca0:	b765                	j	16c48 <_ZN20complex_full_dynamic3app17hffd3bb81067d25fcE+0xa0>

00016ca2 <_start>:
   16ca2:	81010113          	addi	sp,sp,-2032
   16ca6:	7e112623          	sw	ra,2028(sp)
   16caa:	7e812423          	sw	s0,2024(sp)
   16cae:	7e912223          	sw	s1,2020(sp)
   16cb2:	7f212023          	sw	s2,2016(sp)
   16cb6:	7d312e23          	sw	s3,2012(sp)
   16cba:	7d412c23          	sw	s4,2008(sp)
   16cbe:	7d512a23          	sw	s5,2004(sp)
   16cc2:	7d612823          	sw	s6,2000(sp)
   16cc6:	7d712623          	sw	s7,1996(sp)
   16cca:	7d812423          	sw	s8,1992(sp)
   16cce:	7d912223          	sw	s9,1988(sp)
   16cd2:	7da12023          	sw	s10,1984(sp)
   16cd6:	7bb12e23          	sw	s11,1980(sp)
   16cda:	80010113          	addi	sp,sp,-2048
   16cde:	b2010113          	addi	sp,sp,-1248
   16ce2:	7ff10a13          	addi	s4,sp,2047
   16ce6:	791a0a13          	addi	s4,s4,1937
   16cea:	08e4                	addi	s1,sp,92
   16cec:	02800613          	li	a2,40
   16cf0:	8526                	mv	a0,s1
   16cf2:	4581                	li	a1,0
   16cf4:	00004097          	auipc	ra,0x4
   16cf8:	212080e7          	jalr	530(ra) # 1af06 <memset>
   16cfc:	4409                	li	s0,2
   16cfe:	04810c23          	sb	s0,88(sp)
   16d02:	6505                	lui	a0,0x1
   16d04:	38850513          	addi	a0,a0,904 # 1388 <.Lline_table_start1+0x115d>
   16d08:	00a10933          	add	s2,sp,a0
   16d0c:	05100613          	li	a2,81
   16d10:	854a                	mv	a0,s2
   16d12:	4581                	li	a1,0
   16d14:	00004097          	auipc	ra,0x4
   16d18:	1f2080e7          	jalr	498(ra) # 1af06 <memset>
   16d1c:	8626                	mv	a2,s1
   16d1e:	3e8a0a23          	sb	s0,1012(s4)
   16d22:	6789                	lui	a5,0x2
   16d24:	44a5                	li	s1,9
   16d26:	4811                	li	a6,4
   16d28:	45a5                	li	a1,9
   16d2a:	0799                	addi	a5,a5,6 # 2006 <.Lline_table_start1+0x1ddb>
   16d2c:	02800693          	li	a3,40
   16d30:	4711                	li	a4,4
   16d32:	853e                	mv	a0,a5
   16d34:	00000073          	ecall
   16d38:	04850763          	beq	a0,s0,16d86 <_start+0xe4>
   16d3c:	853e                	mv	a0,a5
   16d3e:	864a                	mv	a2,s2
   16d40:	c8be                	sw	a5,80(sp)
   16d42:	caa6                	sw	s1,84(sp)
   16d44:	05010c23          	sb	a6,88(sp)
   16d48:	448d                	li	s1,3
   16d4a:	45a5                	li	a1,9
   16d4c:	05100693          	li	a3,81
   16d50:	470d                	li	a4,3
   16d52:	00000073          	ecall
   16d56:	02850863          	beq	a0,s0,16d86 <_start+0xe4>
   16d5a:	4525                	li	a0,9
   16d5c:	6689                	lui	a3,0x2
   16d5e:	45a5                	li	a1,9
   16d60:	4625                	li	a2,9
   16d62:	3efa2623          	sw	a5,1004(s4)
   16d66:	3eaa2823          	sw	a0,1008(s4)
   16d6a:	3e9a0a23          	sb	s1,1012(s4)
   16d6e:	00668513          	addi	a0,a3,6 # 2006 <.Lline_table_start1+0x1ddb>
   16d72:	4709                	li	a4,2
   16d74:	07f00793          	li	a5,127
   16d78:	4681                	li	a3,0
   16d7a:	00000073          	ecall
   16d7e:	00a7f463          	bgeu	a5,a0,16d86 <_start+0xe4>
   16d82:	4330306f          	j	1a9b4 <_start+0x3d12>
   16d86:	8aae                	mv	s5,a1
   16d88:	4405                	li	s0,1
   16d8a:	6505                	lui	a0,0x1
   16d8c:	37c50513          	addi	a0,a0,892 # 137c <.Lline_table_start1+0x1151>
   16d90:	950a                	add	a0,a0,sp
   16d92:	00004097          	auipc	ra,0x4
   16d96:	154080e7          	jalr	340(ra) # 1aee6 <_ZN9allow_pin12full_dynamic17unshare_if_shared17h3ae8596986353d28E>
   16d9a:	0888                	addi	a0,sp,80
   16d9c:	00004097          	auipc	ra,0x4
   16da0:	14a080e7          	jalr	330(ra) # 1aee6 <_ZN9allow_pin12full_dynamic17unshare_if_shared17h3ae8596986353d28E>
   16da4:	c019                	beqz	s0,16daa <_start+0x108>
   16da6:	3c90306f          	j	1a96e <_start+0x3ccc>
   16daa:	09011503          	lh	a0,144(sp)
   16dae:	09214583          	lbu	a1,146(sp)
   16db2:	6605                	lui	a2,0x1
   16db4:	38860613          	addi	a2,a2,904 # 1388 <.Lline_table_start1+0x115d>
   16db8:	00c10433          	add	s0,sp,a2
   16dbc:	3eaa1c23          	sh	a0,1016(s4)
   16dc0:	3eba0d23          	sb	a1,1018(s4)
   16dc4:	6505                	lui	a0,0x1
   16dc6:	32050513          	addi	a0,a0,800 # 1320 <.Lline_table_start1+0x10f5>
   16dca:	950a                	add	a0,a0,sp
   16dcc:	004c                	addi	a1,sp,4
   16dce:	04a00613          	li	a2,74
   16dd2:	00004097          	auipc	ra,0x4
   16dd6:	1a0080e7          	jalr	416(ra) # 1af72 <memcpy>
   16dda:	6505                	lui	a0,0x1
   16ddc:	38f50513          	addi	a0,a0,911 # 138f <.Lline_table_start1+0x1164>
   16de0:	950a                	add	a0,a0,sp
   16de2:	6585                	lui	a1,0x1
   16de4:	32058593          	addi	a1,a1,800 # 1320 <.Lline_table_start1+0x10f5>
   16de8:	958a                	add	a1,a1,sp
   16dea:	04a00613          	li	a2,74
   16dee:	00004097          	auipc	ra,0x4
   16df2:	184080e7          	jalr	388(ra) # 1af72 <memcpy>
   16df6:	4489                	li	s1,2
   16df8:	018ad513          	srli	a0,s5,0x18
   16dfc:	010ad593          	srli	a1,s5,0x10
   16e00:	3eaa0f23          	sb	a0,1022(s4)
   16e04:	008ad513          	srli	a0,s5,0x8
   16e08:	3e9a0a23          	sb	s1,1012(s4)
   16e0c:	3f5a0da3          	sb	s5,1019(s4)
   16e10:	3eaa0e23          	sb	a0,1020(s4)
   16e14:	3eba0ea3          	sb	a1,1021(s4)
   16e18:	6505                	lui	a0,0x1
   16e1a:	32c50513          	addi	a0,a0,812 # 132c <.Lline_table_start1+0x1101>
   16e1e:	00a10933          	add	s2,sp,a0
   16e22:	04600613          	li	a2,70
   16e26:	854a                	mv	a0,s2
   16e28:	4581                	li	a1,0
   16e2a:	00004097          	auipc	ra,0x4
   16e2e:	0dc080e7          	jalr	220(ra) # 1af06 <memset>
   16e32:	8622                	mv	a2,s0
   16e34:	389a0c23          	sb	s1,920(s4)
   16e38:	6409                	lui	s0,0x2
   16e3a:	489d                	li	a7,7
   16e3c:	4811                	li	a6,4
   16e3e:	459d                	li	a1,7
   16e40:	0c440793          	addi	a5,s0,196 # 20c4 <.Lline_table_start1+0x1e99>
   16e44:	05100693          	li	a3,81
   16e48:	4711                	li	a4,4
   16e4a:	853e                	mv	a0,a5
   16e4c:	00000073          	ecall
   16e50:	04950b63          	beq	a0,s1,16ea6 <_start+0x204>
   16e54:	853e                	mv	a0,a5
   16e56:	4581                	li	a1,0
   16e58:	864a                	mv	a2,s2
   16e5a:	0419                	addi	s0,s0,6
   16e5c:	478d                	li	a5,3
   16e5e:	04600693          	li	a3,70
   16e62:	0be40413          	addi	s0,s0,190
   16e66:	3e8a2623          	sw	s0,1004(s4)
   16e6a:	3f1a2823          	sw	a7,1008(s4)
   16e6e:	3f0a0a23          	sb	a6,1012(s4)
   16e72:	470d                	li	a4,3
   16e74:	00000073          	ecall
   16e78:	02950763          	beq	a0,s1,16ea6 <_start+0x204>
   16e7c:	388a2823          	sw	s0,912(s4)
   16e80:	380a2a23          	sw	zero,916(s4)
   16e84:	38fa0c23          	sb	a5,920(s4)
   16e88:	6509                	lui	a0,0x2
   16e8a:	459d                	li	a1,7
   16e8c:	0c450513          	addi	a0,a0,196 # 20c4 <.Lline_table_start1+0x1e99>
   16e90:	4709                	li	a4,2
   16e92:	07f00793          	li	a5,127
   16e96:	4601                	li	a2,0
   16e98:	4681                	li	a3,0
   16e9a:	00000073          	ecall
   16e9e:	00a7f463          	bgeu	a5,a0,16ea6 <_start+0x204>
   16ea2:	3910306f          	j	1aa32 <_start+0x3d90>
   16ea6:	8aae                	mv	s5,a1
   16ea8:	4405                	li	s0,1
   16eaa:	6505                	lui	a0,0x1
   16eac:	32050513          	addi	a0,a0,800 # 1320 <.Lline_table_start1+0x10f5>
   16eb0:	950a                	add	a0,a0,sp
   16eb2:	00004097          	auipc	ra,0x4
   16eb6:	034080e7          	jalr	52(ra) # 1aee6 <_ZN9allow_pin12full_dynamic17unshare_if_shared17h3ae8596986353d28E>
   16eba:	6505                	lui	a0,0x1
   16ebc:	37c50513          	addi	a0,a0,892 # 137c <.Lline_table_start1+0x1151>
   16ec0:	950a                	add	a0,a0,sp
   16ec2:	00004097          	auipc	ra,0x4
   16ec6:	024080e7          	jalr	36(ra) # 1aee6 <_ZN9allow_pin12full_dynamic17unshare_if_shared17h3ae8596986353d28E>
   16eca:	c019                	beqz	s0,16ed0 <_start+0x22e>
   16ecc:	2a30306f          	j	1a96e <_start+0x3ccc>
   16ed0:	09011503          	lh	a0,144(sp)
   16ed4:	09214583          	lbu	a1,146(sp)
   16ed8:	6605                	lui	a2,0x1
   16eda:	38860613          	addi	a2,a2,904 # 1388 <.Lline_table_start1+0x115d>
   16ede:	00c109b3          	add	s3,sp,a2
   16ee2:	3eaa1c23          	sh	a0,1016(s4)
   16ee6:	3eba0d23          	sb	a1,1018(s4)
   16eea:	0048                	addi	a0,sp,4
   16eec:	088c                	addi	a1,sp,80
   16eee:	03f00613          	li	a2,63
   16ef2:	00004097          	auipc	ra,0x4
   16ef6:	080080e7          	jalr	128(ra) # 1af72 <memcpy>
   16efa:	6505                	lui	a0,0x1
   16efc:	38f50513          	addi	a0,a0,911 # 138f <.Lline_table_start1+0x1164>
   16f00:	950a                	add	a0,a0,sp
   16f02:	004c                	addi	a1,sp,4
   16f04:	03f00613          	li	a2,63
   16f08:	00004097          	auipc	ra,0x4
   16f0c:	06a080e7          	jalr	106(ra) # 1af72 <memcpy>
   16f10:	864e                	mv	a2,s3
   16f12:	4489                	li	s1,2
   16f14:	018ad513          	srli	a0,s5,0x18
   16f18:	010ad693          	srli	a3,s5,0x10
   16f1c:	008ad713          	srli	a4,s5,0x8
   16f20:	3a0a2423          	sw	zero,936(s4)
   16f24:	3a0a2623          	sw	zero,940(s4)
   16f28:	3a0a2823          	sw	zero,944(s4)
   16f2c:	6409                	lui	s0,0x2
   16f2e:	488d                	li	a7,3
   16f30:	4811                	li	a6,4
   16f32:	458d                	li	a1,3
   16f34:	3eaa0f23          	sb	a0,1022(s4)
   16f38:	3e9a0a23          	sb	s1,1012(s4)
   16f3c:	3f5a0da3          	sb	s5,1019(s4)
   16f40:	3eea0e23          	sb	a4,1020(s4)
   16f44:	3eda0ea3          	sb	a3,1021(s4)
   16f48:	389a0c23          	sb	s1,920(s4)
   16f4c:	380a2e23          	sw	zero,924(s4)
   16f50:	3a0a2023          	sw	zero,928(s4)
   16f54:	3a0a2223          	sw	zero,932(s4)
   16f58:	3cf40793          	addi	a5,s0,975 # 23cf <.Lline_table_start1+0x21a4>
   16f5c:	04600693          	li	a3,70
   16f60:	4711                	li	a4,4
   16f62:	853e                	mv	a0,a5
   16f64:	00000073          	ecall
   16f68:	04950b63          	beq	a0,s1,16fbe <_start+0x31c>
   16f6c:	0419                	addi	s0,s0,6
   16f6e:	4589                	li	a1,2
   16f70:	46e1                	li	a3,24
   16f72:	3c940413          	addi	s0,s0,969
   16f76:	3e8a2623          	sw	s0,1004(s4)
   16f7a:	3f1a2823          	sw	a7,1008(s4)
   16f7e:	3f0a0a23          	sb	a6,1012(s4)
   16f82:	470d                	li	a4,3
   16f84:	853e                	mv	a0,a5
   16f86:	864a                	mv	a2,s2
   16f88:	00000073          	ecall
   16f8c:	02950963          	beq	a0,s1,16fbe <_start+0x31c>
   16f90:	4509                	li	a0,2
   16f92:	468d                	li	a3,3
   16f94:	6709                	lui	a4,0x2
   16f96:	458d                	li	a1,3
   16f98:	4609                	li	a2,2
   16f9a:	388a2823          	sw	s0,912(s4)
   16f9e:	38aa2a23          	sw	a0,916(s4)
   16fa2:	38da0c23          	sb	a3,920(s4)
   16fa6:	3cf70513          	addi	a0,a4,975 # 23cf <.Lline_table_start1+0x21a4>
   16faa:	4709                	li	a4,2
   16fac:	07f00793          	li	a5,127
   16fb0:	4681                	li	a3,0
   16fb2:	00000073          	ecall
   16fb6:	00a7f463          	bgeu	a5,a0,16fbe <_start+0x31c>
   16fba:	2fd0306f          	j	1aab6 <_start+0x3e14>
   16fbe:	8aae                	mv	s5,a1
   16fc0:	4405                	li	s0,1
   16fc2:	6505                	lui	a0,0x1
   16fc4:	32050513          	addi	a0,a0,800 # 1320 <.Lline_table_start1+0x10f5>
   16fc8:	950a                	add	a0,a0,sp
   16fca:	00004097          	auipc	ra,0x4
   16fce:	f1c080e7          	jalr	-228(ra) # 1aee6 <_ZN9allow_pin12full_dynamic17unshare_if_shared17h3ae8596986353d28E>
   16fd2:	6505                	lui	a0,0x1
   16fd4:	37c50513          	addi	a0,a0,892 # 137c <.Lline_table_start1+0x1151>
   16fd8:	950a                	add	a0,a0,sp
   16fda:	00004097          	auipc	ra,0x4
   16fde:	f0c080e7          	jalr	-244(ra) # 1aee6 <_ZN9allow_pin12full_dynamic17unshare_if_shared17h3ae8596986353d28E>
   16fe2:	c019                	beqz	s0,16fe8 <_start+0x346>
   16fe4:	18b0306f          	j	1a96e <_start+0x3ccc>
   16fe8:	0a411503          	lh	a0,164(sp)
   16fec:	0a614583          	lbu	a1,166(sp)
   16ff0:	464a                	lw	a2,144(sp)
   16ff2:	46da                	lw	a3,148(sp)
   16ff4:	476a                	lw	a4,152(sp)
   16ff6:	47fa                	lw	a5,156(sp)
   16ff8:	04a11e23          	sh	a0,92(sp)
   16ffc:	04b10f23          	sb	a1,94(sp)
   17000:	0a014503          	lbu	a0,160(sp)
   17004:	c232                	sw	a2,4(sp)
   17006:	c436                	sw	a3,8(sp)
   17008:	c63a                	sw	a4,12(sp)
   1700a:	c83e                	sw	a5,16(sp)
   1700c:	08e0                	addi	s0,sp,92
   1700e:	00a10a23          	sb	a0,20(sp)
   17012:	06310513          	addi	a0,sp,99
   17016:	004c                	addi	a1,sp,4
   17018:	4645                	li	a2,17
   1701a:	00004097          	auipc	ra,0x4
   1701e:	f58080e7          	jalr	-168(ra) # 1af72 <memcpy>
   17022:	4489                	li	s1,2
   17024:	018ad513          	srli	a0,s5,0x18
   17028:	010ad593          	srli	a1,s5,0x10
   1702c:	06a10123          	sb	a0,98(sp)
   17030:	008ad513          	srli	a0,s5,0x8
   17034:	04910c23          	sb	s1,88(sp)
   17038:	05510fa3          	sb	s5,95(sp)
   1703c:	06a10023          	sb	a0,96(sp)
   17040:	06b100a3          	sb	a1,97(sp)
   17044:	03600613          	li	a2,54
   17048:	854e                	mv	a0,s3
   1704a:	4581                	li	a1,0
   1704c:	00004097          	auipc	ra,0x4
   17050:	eba080e7          	jalr	-326(ra) # 1af06 <memset>
   17054:	4581                	li	a1,0
   17056:	8622                	mv	a2,s0
   17058:	3e9a0a23          	sb	s1,1012(s4)
   1705c:	21f00413          	li	s0,543
   17060:	4791                	li	a5,4
   17062:	21f00513          	li	a0,543
   17066:	46e1                	li	a3,24
   17068:	4711                	li	a4,4
   1706a:	00000073          	ecall
   1706e:	04950963          	beq	a0,s1,170c0 <_start+0x41e>
   17072:	864e                	mv	a2,s3
   17074:	c8a2                	sw	s0,80(sp)
   17076:	ca82                	sw	zero,84(sp)
   17078:	04f10c23          	sb	a5,88(sp)
   1707c:	479d                	li	a5,7
   1707e:	440d                	li	s0,3
   17080:	21f00513          	li	a0,543
   17084:	459d                	li	a1,7
   17086:	03600693          	li	a3,54
   1708a:	470d                	li	a4,3
   1708c:	00000073          	ecall
   17090:	02950863          	beq	a0,s1,170c0 <_start+0x41e>
   17094:	21f00593          	li	a1,543
   17098:	21f00513          	li	a0,543
   1709c:	461d                	li	a2,7
   1709e:	4709                	li	a4,2
   170a0:	07f00493          	li	s1,127
   170a4:	3eba2623          	sw	a1,1004(s4)
   170a8:	3efa2823          	sw	a5,1008(s4)
   170ac:	3e8a0a23          	sb	s0,1012(s4)
   170b0:	4581                	li	a1,0
   170b2:	4681                	li	a3,0
   170b4:	00000073          	ecall
   170b8:	00a4f463          	bgeu	s1,a0,170c0 <_start+0x41e>
   170bc:	2f70306f          	j	1abb2 <_start+0x3f10>
   170c0:	8aae                	mv	s5,a1
   170c2:	4405                	li	s0,1
   170c4:	6505                	lui	a0,0x1
   170c6:	37c50513          	addi	a0,a0,892 # 137c <.Lline_table_start1+0x1151>
   170ca:	950a                	add	a0,a0,sp
   170cc:	00004097          	auipc	ra,0x4
   170d0:	e1a080e7          	jalr	-486(ra) # 1aee6 <_ZN9allow_pin12full_dynamic17unshare_if_shared17h3ae8596986353d28E>
   170d4:	0888                	addi	a0,sp,80
   170d6:	00004097          	auipc	ra,0x4
   170da:	e10080e7          	jalr	-496(ra) # 1aee6 <_ZN9allow_pin12full_dynamic17unshare_if_shared17h3ae8596986353d28E>
   170de:	c019                	beqz	s0,170e4 <_start+0x442>
   170e0:	08f0306f          	j	1a96e <_start+0x3ccc>
   170e4:	09011503          	lh	a0,144(sp)
   170e8:	09214583          	lbu	a1,146(sp)
   170ec:	6605                	lui	a2,0x1
   170ee:	38860613          	addi	a2,a2,904 # 1388 <.Lline_table_start1+0x115d>
   170f2:	00c10433          	add	s0,sp,a2
   170f6:	3eaa1c23          	sh	a0,1016(s4)
   170fa:	3eba0d23          	sb	a1,1018(s4)
   170fe:	6505                	lui	a0,0x1
   17100:	32050513          	addi	a0,a0,800 # 1320 <.Lline_table_start1+0x10f5>
   17104:	950a                	add	a0,a0,sp
   17106:	004c                	addi	a1,sp,4
   17108:	02f00613          	li	a2,47
   1710c:	00004097          	auipc	ra,0x4
   17110:	e66080e7          	jalr	-410(ra) # 1af72 <memcpy>
   17114:	6505                	lui	a0,0x1
   17116:	38f50513          	addi	a0,a0,911 # 138f <.Lline_table_start1+0x1164>
   1711a:	950a                	add	a0,a0,sp
   1711c:	6585                	lui	a1,0x1
   1711e:	32058593          	addi	a1,a1,800 # 1320 <.Lline_table_start1+0x10f5>
   17122:	958a                	add	a1,a1,sp
   17124:	02f00613          	li	a2,47
   17128:	00004097          	auipc	ra,0x4
   1712c:	e4a080e7          	jalr	-438(ra) # 1af72 <memcpy>
   17130:	4489                	li	s1,2
   17132:	018ad513          	srli	a0,s5,0x18
   17136:	010ad593          	srli	a1,s5,0x10
   1713a:	3eaa0f23          	sb	a0,1022(s4)
   1713e:	008ad513          	srli	a0,s5,0x8
   17142:	3e9a0a23          	sb	s1,1012(s4)
   17146:	3f5a0da3          	sb	s5,1019(s4)
   1714a:	3eaa0e23          	sb	a0,1020(s4)
   1714e:	3eba0ea3          	sb	a1,1021(s4)
   17152:	02500613          	li	a2,37
   17156:	854a                	mv	a0,s2
   17158:	4581                	li	a1,0
   1715a:	00004097          	auipc	ra,0x4
   1715e:	dac080e7          	jalr	-596(ra) # 1af06 <memset>
   17162:	8622                	mv	a2,s0
   17164:	389a0c23          	sb	s1,920(s4)
   17168:	6505                	lui	a0,0x1
   1716a:	441d                	li	s0,7
   1716c:	4811                	li	a6,4
   1716e:	459d                	li	a1,7
   17170:	59750793          	addi	a5,a0,1431 # 1597 <.Lline_table_start1+0x136c>
   17174:	03600693          	li	a3,54
   17178:	4711                	li	a4,4
   1717a:	853e                	mv	a0,a5
   1717c:	00000073          	ecall
   17180:	04950863          	beq	a0,s1,171d0 <_start+0x52e>
   17184:	853e                	mv	a0,a5
   17186:	4581                	li	a1,0
   17188:	864a                	mv	a2,s2
   1718a:	3efa2623          	sw	a5,1004(s4)
   1718e:	3e8a2823          	sw	s0,1008(s4)
   17192:	3f0a0a23          	sb	a6,1012(s4)
   17196:	440d                	li	s0,3
   17198:	02500693          	li	a3,37
   1719c:	470d                	li	a4,3
   1719e:	00000073          	ecall
   171a2:	02950763          	beq	a0,s1,171d0 <_start+0x52e>
   171a6:	38fa2823          	sw	a5,912(s4)
   171aa:	380a2a23          	sw	zero,916(s4)
   171ae:	388a0c23          	sb	s0,920(s4)
   171b2:	6505                	lui	a0,0x1
   171b4:	459d                	li	a1,7
   171b6:	59750513          	addi	a0,a0,1431 # 1597 <.Lline_table_start1+0x136c>
   171ba:	4709                	li	a4,2
   171bc:	07f00793          	li	a5,127
   171c0:	4601                	li	a2,0
   171c2:	4681                	li	a3,0
   171c4:	00000073          	ecall
   171c8:	00a7f463          	bgeu	a5,a0,171d0 <_start+0x52e>
   171cc:	2650306f          	j	1ac30 <_start+0x3f8e>
   171d0:	8aae                	mv	s5,a1
   171d2:	4405                	li	s0,1
   171d4:	6505                	lui	a0,0x1
   171d6:	32050513          	addi	a0,a0,800 # 1320 <.Lline_table_start1+0x10f5>
   171da:	950a                	add	a0,a0,sp
   171dc:	00004097          	auipc	ra,0x4
   171e0:	d0a080e7          	jalr	-758(ra) # 1aee6 <_ZN9allow_pin12full_dynamic17unshare_if_shared17h3ae8596986353d28E>
   171e4:	6505                	lui	a0,0x1
   171e6:	37c50513          	addi	a0,a0,892 # 137c <.Lline_table_start1+0x1151>
   171ea:	950a                	add	a0,a0,sp
   171ec:	00004097          	auipc	ra,0x4
   171f0:	cfa080e7          	jalr	-774(ra) # 1aee6 <_ZN9allow_pin12full_dynamic17unshare_if_shared17h3ae8596986353d28E>
   171f4:	c019                	beqz	s0,171fa <_start+0x558>
   171f6:	7780306f          	j	1a96e <_start+0x3ccc>
   171fa:	09011503          	lh	a0,144(sp)
   171fe:	09214583          	lbu	a1,146(sp)
   17202:	6605                	lui	a2,0x1
   17204:	38860613          	addi	a2,a2,904 # 1388 <.Lline_table_start1+0x115d>
   17208:	00c10433          	add	s0,sp,a2
   1720c:	3eaa1c23          	sh	a0,1016(s4)
   17210:	3eba0d23          	sb	a1,1018(s4)
   17214:	4546                	lw	a0,80(sp)
   17216:	45d6                	lw	a1,84(sp)
   17218:	4666                	lw	a2,88(sp)
   1721a:	46f6                	lw	a3,92(sp)
   1721c:	c22a                	sw	a0,4(sp)
   1721e:	c42e                	sw	a1,8(sp)
   17220:	c632                	sw	a2,12(sp)
   17222:	c836                	sw	a3,16(sp)
   17224:	5506                	lw	a0,96(sp)
   17226:	5596                	lw	a1,100(sp)
   17228:	5626                	lw	a2,104(sp)
   1722a:	06c11683          	lh	a3,108(sp)
   1722e:	ca2a                	sw	a0,20(sp)
   17230:	cc2e                	sw	a1,24(sp)
   17232:	ce32                	sw	a2,28(sp)
   17234:	02d11023          	sh	a3,32(sp)
   17238:	6505                	lui	a0,0x1
   1723a:	38f50513          	addi	a0,a0,911 # 138f <.Lline_table_start1+0x1164>
   1723e:	950a                	add	a0,a0,sp
   17240:	004c                	addi	a1,sp,4
   17242:	4679                	li	a2,30
   17244:	00004097          	auipc	ra,0x4
   17248:	d2e080e7          	jalr	-722(ra) # 1af72 <memcpy>
   1724c:	8622                	mv	a2,s0
   1724e:	4789                	li	a5,2
   17250:	018ad693          	srli	a3,s5,0x18
   17254:	010ad713          	srli	a4,s5,0x10
   17258:	008ad493          	srli	s1,s5,0x8
   1725c:	3a0a1423          	sh	zero,936(s4)
   17260:	66700413          	li	s0,1639
   17264:	4811                	li	a6,4
   17266:	66700513          	li	a0,1639
   1726a:	4589                	li	a1,2
   1726c:	3eda0f23          	sb	a3,1022(s4)
   17270:	02500693          	li	a3,37
   17274:	3efa0a23          	sb	a5,1012(s4)
   17278:	3f5a0da3          	sb	s5,1019(s4)
   1727c:	3e9a0e23          	sb	s1,1020(s4)
   17280:	3eea0ea3          	sb	a4,1021(s4)
   17284:	38fa0c23          	sb	a5,920(s4)
   17288:	380a2e23          	sw	zero,924(s4)
   1728c:	3a0a2023          	sw	zero,928(s4)
   17290:	3a0a2223          	sw	zero,932(s4)
   17294:	4711                	li	a4,4
   17296:	00000073          	ecall
   1729a:	04f50a63          	beq	a0,a5,172ee <_start+0x64c>
   1729e:	864a                	mv	a2,s2
   172a0:	3e8a2623          	sw	s0,1004(s4)
   172a4:	3efa2823          	sw	a5,1008(s4)
   172a8:	3f0a0a23          	sb	a6,1012(s4)
   172ac:	44a1                	li	s1,8
   172ae:	440d                	li	s0,3
   172b0:	66700513          	li	a0,1639
   172b4:	45a1                	li	a1,8
   172b6:	46b9                	li	a3,14
   172b8:	470d                	li	a4,3
   172ba:	00000073          	ecall
   172be:	02f50863          	beq	a0,a5,172ee <_start+0x64c>
   172c2:	66700693          	li	a3,1639
   172c6:	66700513          	li	a0,1639
   172ca:	4589                	li	a1,2
   172cc:	4621                	li	a2,8
   172ce:	4709                	li	a4,2
   172d0:	07f00793          	li	a5,127
   172d4:	38da2823          	sw	a3,912(s4)
   172d8:	389a2a23          	sw	s1,916(s4)
   172dc:	388a0c23          	sb	s0,920(s4)
   172e0:	4681                	li	a3,0
   172e2:	00000073          	ecall
   172e6:	00a7f463          	bgeu	a5,a0,172ee <_start+0x64c>
   172ea:	2c30306f          	j	1adac <_start+0x410a>
   172ee:	8aae                	mv	s5,a1
   172f0:	4405                	li	s0,1
   172f2:	6505                	lui	a0,0x1
   172f4:	32050513          	addi	a0,a0,800 # 1320 <.Lline_table_start1+0x10f5>
   172f8:	950a                	add	a0,a0,sp
   172fa:	00004097          	auipc	ra,0x4
   172fe:	bec080e7          	jalr	-1044(ra) # 1aee6 <_ZN9allow_pin12full_dynamic17unshare_if_shared17h3ae8596986353d28E>
   17302:	6505                	lui	a0,0x1
   17304:	37c50513          	addi	a0,a0,892 # 137c <.Lline_table_start1+0x1151>
   17308:	950a                	add	a0,a0,sp
   1730a:	00004097          	auipc	ra,0x4
   1730e:	bdc080e7          	jalr	-1060(ra) # 1aee6 <_ZN9allow_pin12full_dynamic17unshare_if_shared17h3ae8596986353d28E>
   17312:	c019                	beqz	s0,17318 <_start+0x676>
   17314:	65a0306f          	j	1a96e <_start+0x3ccc>
   17318:	09011503          	lh	a0,144(sp)
   1731c:	09214583          	lbu	a1,146(sp)
   17320:	4646                	lw	a2,80(sp)
   17322:	05411683          	lh	a3,84(sp)
   17326:	05614703          	lbu	a4,86(sp)
   1732a:	018ad793          	srli	a5,s5,0x18
   1732e:	010ad493          	srli	s1,s5,0x10
   17332:	c232                	sw	a2,4(sp)
   17334:	00d11423          	sh	a3,8(sp)
   17338:	008ad693          	srli	a3,s5,0x8
   1733c:	0aa11423          	sh	a0,168(sp)
   17340:	0ab10523          	sb	a1,170(sp)
   17344:	0b5105a3          	sb	s5,171(sp)
   17348:	0ad10623          	sb	a3,172(sp)
   1734c:	0ae10aa3          	sb	a4,181(sp)
   17350:	00514503          	lbu	a0,5(sp)
   17354:	00614583          	lbu	a1,6(sp)
   17358:	00714683          	lbu	a3,7(sp)
   1735c:	00814703          	lbu	a4,8(sp)
   17360:	0a9106a3          	sb	s1,173(sp)
   17364:	0af10723          	sb	a5,174(sp)
   17368:	0ac107a3          	sb	a2,175(sp)
   1736c:	0aa10823          	sb	a0,176(sp)
   17370:	00914503          	lbu	a0,9(sp)
   17374:	0ab108a3          	sb	a1,177(sp)
   17378:	0ad10923          	sb	a3,178(sp)
   1737c:	0ae109a3          	sb	a4,179(sp)
   17380:	0aa10a23          	sb	a0,180(sp)
   17384:	6505                	lui	a0,0x1
   17386:	37c50513          	addi	a0,a0,892 # 137c <.Lline_table_start1+0x1151>
   1738a:	950a                	add	a0,a0,sp
   1738c:	112c                	addi	a1,sp,168
   1738e:	ffffd097          	auipc	ra,0xffffd
   17392:	236080e7          	jalr	566(ra) # 145c4 <_ZN20complex_full_dynamic3app17h8bdc81589df0f56bE>
   17396:	3eca4503          	lbu	a0,1004(s4)
   1739a:	c119                	beqz	a0,173a0 <_start+0x6fe>
   1739c:	5ce0306f          	j	1a96a <_start+0x3cc8>
   173a0:	3eea4503          	lbu	a0,1006(s4)
   173a4:	3eda4583          	lbu	a1,1005(s4)
   173a8:	3efa4603          	lbu	a2,1007(s4)
   173ac:	3f0a2403          	lw	s0,1008(s4)
   173b0:	0522                	slli	a0,a0,0x8
   173b2:	8d4d                	or	a0,a0,a1
   173b4:	0aa11b23          	sh	a0,182(sp)
   173b8:	0ac10c23          	sb	a2,184(sp)
   173bc:	6505                	lui	a0,0x1
   173be:	38450513          	addi	a0,a0,900 # 1384 <.Lline_table_start1+0x1159>
   173c2:	00a105b3          	add	a1,sp,a0
   173c6:	6505                	lui	a0,0x1
   173c8:	32050513          	addi	a0,a0,800 # 1320 <.Lline_table_start1+0x10f5>
   173cc:	950a                	add	a0,a0,sp
   173ce:	04100613          	li	a2,65
   173d2:	00004097          	auipc	ra,0x4
   173d6:	ba0080e7          	jalr	-1120(ra) # 1af72 <memcpy>
   173da:	01845513          	srli	a0,s0,0x18
   173de:	01045593          	srli	a1,s0,0x10
   173e2:	00845613          	srli	a2,s0,0x8
   173e6:	0a810ca3          	sb	s0,185(sp)
   173ea:	0ac10d23          	sb	a2,186(sp)
   173ee:	0ab10da3          	sb	a1,187(sp)
   173f2:	0aa10e23          	sb	a0,188(sp)
   173f6:	0bd10513          	addi	a0,sp,189
   173fa:	6585                	lui	a1,0x1
   173fc:	32058593          	addi	a1,a1,800 # 1320 <.Lline_table_start1+0x10f5>
   17400:	958a                	add	a1,a1,sp
   17402:	04100613          	li	a2,65
   17406:	00004097          	auipc	ra,0x4
   1740a:	b6c080e7          	jalr	-1172(ra) # 1af72 <memcpy>
   1740e:	6505                	lui	a0,0x1
   17410:	37c50513          	addi	a0,a0,892 # 137c <.Lline_table_start1+0x1151>
   17414:	950a                	add	a0,a0,sp
   17416:	0b610593          	addi	a1,sp,182
   1741a:	ffffb097          	auipc	ra,0xffffb
   1741e:	f84080e7          	jalr	-124(ra) # 1239e <_ZN20complex_full_dynamic3app17h2689e4b8cf270b1eE>
   17422:	3eca4503          	lbu	a0,1004(s4)
   17426:	c119                	beqz	a0,1742c <_start+0x78a>
   17428:	5420306f          	j	1a96a <_start+0x3cc8>
   1742c:	3eda4503          	lbu	a0,1005(s4)
   17430:	3eea4583          	lbu	a1,1006(s4)
   17434:	3efa4803          	lbu	a6,1007(s4)
   17438:	3f0a2683          	lw	a3,1008(s4)
   1743c:	3f4a2703          	lw	a4,1012(s4)
   17440:	3f8a2783          	lw	a5,1016(s4)
   17444:	05a2                	slli	a1,a1,0x8
   17446:	0186d893          	srli	a7,a3,0x18
   1744a:	0106d293          	srli	t0,a3,0x10
   1744e:	0187d613          	srli	a2,a5,0x18
   17452:	0107d493          	srli	s1,a5,0x10
   17456:	0087d413          	srli	s0,a5,0x8
   1745a:	8d4d                	or	a0,a0,a1
   1745c:	01875593          	srli	a1,a4,0x18
   17460:	109105a3          	sb	s1,267(sp)
   17464:	10c10623          	sb	a2,268(sp)
   17468:	01075613          	srli	a2,a4,0x10
   1746c:	10c103a3          	sb	a2,263(sp)
   17470:	10b10423          	sb	a1,264(sp)
   17474:	10f104a3          	sb	a5,265(sp)
   17478:	10810523          	sb	s0,266(sp)
   1747c:	0086d593          	srli	a1,a3,0x8
   17480:	0ea11f23          	sh	a0,254(sp)
   17484:	11010023          	sb	a6,256(sp)
   17488:	10d100a3          	sb	a3,257(sp)
   1748c:	10b10123          	sb	a1,258(sp)
   17490:	00875513          	srli	a0,a4,0x8
   17494:	105101a3          	sb	t0,259(sp)
   17498:	11110223          	sb	a7,260(sp)
   1749c:	10e102a3          	sb	a4,261(sp)
   174a0:	10a10323          	sb	a0,262(sp)
   174a4:	6505                	lui	a0,0x1
   174a6:	37c50513          	addi	a0,a0,892 # 137c <.Lline_table_start1+0x1151>
   174aa:	950a                	add	a0,a0,sp
   174ac:	0fe10593          	addi	a1,sp,254
   174b0:	ffffa097          	auipc	ra,0xffffa
   174b4:	f6e080e7          	jalr	-146(ra) # 1141e <_ZN20complex_full_dynamic3app17h078e09842da22c0dE>
   174b8:	3eca4503          	lbu	a0,1004(s4)
   174bc:	c119                	beqz	a0,174c2 <_start+0x820>
   174be:	4ac0306f          	j	1a96a <_start+0x3cc8>
   174c2:	3eda4503          	lbu	a0,1005(s4)
   174c6:	3eea4583          	lbu	a1,1006(s4)
   174ca:	3efa4603          	lbu	a2,1007(s4)
   174ce:	3f0a2683          	lw	a3,1008(s4)
   174d2:	3f4a2703          	lw	a4,1012(s4)
   174d6:	3f8a2783          	lw	a5,1016(s4)
   174da:	3fca2483          	lw	s1,1020(s4)
   174de:	400a2403          	lw	s0,1024(s4)
   174e2:	38ea2823          	sw	a4,912(s4)
   174e6:	38fa2a23          	sw	a5,916(s4)
   174ea:	389a2c23          	sw	s1,920(s4)
   174ee:	388a2e23          	sw	s0,924(s4)
   174f2:	404a2703          	lw	a4,1028(s4)
   174f6:	408a2783          	lw	a5,1032(s4)
   174fa:	40ca2483          	lw	s1,1036(s4)
   174fe:	410a1403          	lh	s0,1040(s4)
   17502:	05a2                	slli	a1,a1,0x8
   17504:	3aea2023          	sw	a4,928(s4)
   17508:	3afa2223          	sw	a5,932(s4)
   1750c:	3a9a2423          	sw	s1,936(s4)
   17510:	3a8a1623          	sh	s0,940(s4)
   17514:	0186d713          	srli	a4,a3,0x18
   17518:	8d4d                	or	a0,a0,a1
   1751a:	0106d593          	srli	a1,a3,0x10
   1751e:	10b109a3          	sb	a1,275(sp)
   17522:	10e10a23          	sb	a4,276(sp)
   17526:	0086d593          	srli	a1,a3,0x8
   1752a:	10a11723          	sh	a0,270(sp)
   1752e:	10c10823          	sb	a2,272(sp)
   17532:	10d108a3          	sb	a3,273(sp)
   17536:	10b10923          	sb	a1,274(sp)
   1753a:	11510513          	addi	a0,sp,277
   1753e:	6585                	lui	a1,0x1
   17540:	32058593          	addi	a1,a1,800 # 1320 <.Lline_table_start1+0x10f5>
   17544:	958a                	add	a1,a1,sp
   17546:	4679                	li	a2,30
   17548:	00004097          	auipc	ra,0x4
   1754c:	a2a080e7          	jalr	-1494(ra) # 1af72 <memcpy>
   17550:	6505                	lui	a0,0x1
   17552:	37c50513          	addi	a0,a0,892 # 137c <.Lline_table_start1+0x1151>
   17556:	950a                	add	a0,a0,sp
   17558:	10e10593          	addi	a1,sp,270
   1755c:	ffffc097          	auipc	ra,0xffffc
   17560:	90e080e7          	jalr	-1778(ra) # 12e6a <_ZN20complex_full_dynamic3app17h4e9dfa3660b1ed96E>
   17564:	3eca4503          	lbu	a0,1004(s4)
   17568:	c119                	beqz	a0,1756e <_start+0x8cc>
   1756a:	4000306f          	j	1a96a <_start+0x3cc8>
   1756e:	3eea4503          	lbu	a0,1006(s4)
   17572:	3eda4583          	lbu	a1,1005(s4)
   17576:	3efa4603          	lbu	a2,1007(s4)
   1757a:	3f0a2403          	lw	s0,1008(s4)
   1757e:	0522                	slli	a0,a0,0x8
   17580:	8d4d                	or	a0,a0,a1
   17582:	12a11a23          	sh	a0,308(sp)
   17586:	12c10b23          	sb	a2,310(sp)
   1758a:	6505                	lui	a0,0x1
   1758c:	38450513          	addi	a0,a0,900 # 1384 <.Lline_table_start1+0x1159>
   17590:	00a105b3          	add	a1,sp,a0
   17594:	6505                	lui	a0,0x1
   17596:	32050513          	addi	a0,a0,800 # 1320 <.Lline_table_start1+0x10f5>
   1759a:	950a                	add	a0,a0,sp
   1759c:	02300613          	li	a2,35
   175a0:	00004097          	auipc	ra,0x4
   175a4:	9d2080e7          	jalr	-1582(ra) # 1af72 <memcpy>
   175a8:	01845513          	srli	a0,s0,0x18
   175ac:	01045593          	srli	a1,s0,0x10
   175b0:	00845613          	srli	a2,s0,0x8
   175b4:	12810ba3          	sb	s0,311(sp)
   175b8:	12c10c23          	sb	a2,312(sp)
   175bc:	12b10ca3          	sb	a1,313(sp)
   175c0:	12a10d23          	sb	a0,314(sp)
   175c4:	13b10513          	addi	a0,sp,315
   175c8:	6585                	lui	a1,0x1
   175ca:	32058593          	addi	a1,a1,800 # 1320 <.Lline_table_start1+0x10f5>
   175ce:	958a                	add	a1,a1,sp
   175d0:	02300613          	li	a2,35
   175d4:	00004097          	auipc	ra,0x4
   175d8:	99e080e7          	jalr	-1634(ra) # 1af72 <memcpy>
   175dc:	6505                	lui	a0,0x1
   175de:	37c50513          	addi	a0,a0,892 # 137c <.Lline_table_start1+0x1151>
   175e2:	950a                	add	a0,a0,sp
   175e4:	1a4c                	addi	a1,sp,308
   175e6:	ffffd097          	auipc	ra,0xffffd
   175ea:	90a080e7          	jalr	-1782(ra) # 13ef0 <_ZN20complex_full_dynamic3app17h7c365c257fcdd75eE>
   175ee:	3eca4503          	lbu	a0,1004(s4)
   175f2:	c119                	beqz	a0,175f8 <_start+0x956>
   175f4:	3760306f          	j	1a96a <_start+0x3cc8>
   175f8:	3eea4503          	lbu	a0,1006(s4)
   175fc:	3eda4583          	lbu	a1,1005(s4)
   17600:	3efa4603          	lbu	a2,1007(s4)
   17604:	3f0a2403          	lw	s0,1008(s4)
   17608:	0522                	slli	a0,a0,0x8
   1760a:	8d4d                	or	a0,a0,a1
   1760c:	14a11f23          	sh	a0,350(sp)
   17610:	16c10023          	sb	a2,352(sp)
   17614:	6505                	lui	a0,0x1
   17616:	38450513          	addi	a0,a0,900 # 1384 <.Lline_table_start1+0x1159>
   1761a:	00a105b3          	add	a1,sp,a0
   1761e:	6505                	lui	a0,0x1
   17620:	32050513          	addi	a0,a0,800 # 1320 <.Lline_table_start1+0x10f5>
   17624:	950a                	add	a0,a0,sp
   17626:	05c00613          	li	a2,92
   1762a:	00004097          	auipc	ra,0x4
   1762e:	948080e7          	jalr	-1720(ra) # 1af72 <memcpy>
   17632:	01845513          	srli	a0,s0,0x18
   17636:	01045593          	srli	a1,s0,0x10
   1763a:	00845613          	srli	a2,s0,0x8
   1763e:	168100a3          	sb	s0,353(sp)
   17642:	16c10123          	sb	a2,354(sp)
   17646:	16b101a3          	sb	a1,355(sp)
   1764a:	16a10223          	sb	a0,356(sp)
   1764e:	16510513          	addi	a0,sp,357
   17652:	6585                	lui	a1,0x1
   17654:	32058593          	addi	a1,a1,800 # 1320 <.Lline_table_start1+0x10f5>
   17658:	958a                	add	a1,a1,sp
   1765a:	05c00613          	li	a2,92
   1765e:	00004097          	auipc	ra,0x4
   17662:	914080e7          	jalr	-1772(ra) # 1af72 <memcpy>
   17666:	6505                	lui	a0,0x1
   17668:	37c50513          	addi	a0,a0,892 # 137c <.Lline_table_start1+0x1151>
   1766c:	950a                	add	a0,a0,sp
   1766e:	15e10593          	addi	a1,sp,350
   17672:	ffffd097          	auipc	ra,0xffffd
   17676:	976080e7          	jalr	-1674(ra) # 13fe8 <_ZN20complex_full_dynamic3app17h7c542c9653752907E>
   1767a:	3eca4503          	lbu	a0,1004(s4)
   1767e:	c119                	beqz	a0,17684 <_start+0x9e2>
   17680:	2ea0306f          	j	1a96a <_start+0x3cc8>
   17684:	3eda4503          	lbu	a0,1005(s4)
   17688:	3eea4583          	lbu	a1,1006(s4)
   1768c:	3efa4603          	lbu	a2,1007(s4)
   17690:	3f0a2683          	lw	a3,1008(s4)
   17694:	3f4a2703          	lw	a4,1012(s4)
   17698:	3f8a2783          	lw	a5,1016(s4)
   1769c:	3fca2483          	lw	s1,1020(s4)
   176a0:	400a2403          	lw	s0,1024(s4)
   176a4:	38ea2823          	sw	a4,912(s4)
   176a8:	38fa2a23          	sw	a5,916(s4)
   176ac:	389a2c23          	sw	s1,920(s4)
   176b0:	388a2e23          	sw	s0,924(s4)
   176b4:	404a2703          	lw	a4,1028(s4)
   176b8:	408a2783          	lw	a5,1032(s4)
   176bc:	40ca2483          	lw	s1,1036(s4)
   176c0:	410a2403          	lw	s0,1040(s4)
   176c4:	05a2                	slli	a1,a1,0x8
   176c6:	3aea2023          	sw	a4,928(s4)
   176ca:	3afa2223          	sw	a5,932(s4)
   176ce:	3a9a2423          	sw	s1,936(s4)
   176d2:	3a8a2623          	sw	s0,940(s4)
   176d6:	0186d713          	srli	a4,a3,0x18
   176da:	8d4d                	or	a0,a0,a1
   176dc:	0106d593          	srli	a1,a3,0x10
   176e0:	1cb103a3          	sb	a1,455(sp)
   176e4:	1ce10423          	sb	a4,456(sp)
   176e8:	0086d593          	srli	a1,a3,0x8
   176ec:	1ca11123          	sh	a0,450(sp)
   176f0:	1cc10223          	sb	a2,452(sp)
   176f4:	1cd102a3          	sb	a3,453(sp)
   176f8:	1cb10323          	sb	a1,454(sp)
   176fc:	1c910513          	addi	a0,sp,457
   17700:	6585                	lui	a1,0x1
   17702:	32058593          	addi	a1,a1,800 # 1320 <.Lline_table_start1+0x10f5>
   17706:	958a                	add	a1,a1,sp
   17708:	02000613          	li	a2,32
   1770c:	00004097          	auipc	ra,0x4
   17710:	866080e7          	jalr	-1946(ra) # 1af72 <memcpy>
   17714:	6505                	lui	a0,0x1
   17716:	37c50513          	addi	a0,a0,892 # 137c <.Lline_table_start1+0x1151>
   1771a:	950a                	add	a0,a0,sp
   1771c:	1c210593          	addi	a1,sp,450
   17720:	ffffb097          	auipc	ra,0xffffb
   17724:	a98080e7          	jalr	-1384(ra) # 121b8 <_ZN20complex_full_dynamic3app17h22bba4e91ccad10fE>
   17728:	3eca4503          	lbu	a0,1004(s4)
   1772c:	c119                	beqz	a0,17732 <_start+0xa90>
   1772e:	23c0306f          	j	1a96a <_start+0x3cc8>
   17732:	3eda4503          	lbu	a0,1005(s4)
   17736:	3eea4583          	lbu	a1,1006(s4)
   1773a:	3efa4603          	lbu	a2,1007(s4)
   1773e:	3f0a2683          	lw	a3,1008(s4)
   17742:	3f4a2703          	lw	a4,1012(s4)
   17746:	3f8a2783          	lw	a5,1016(s4)
   1774a:	3fca2483          	lw	s1,1020(s4)
   1774e:	400a2403          	lw	s0,1024(s4)
   17752:	38ea2823          	sw	a4,912(s4)
   17756:	38fa2a23          	sw	a5,916(s4)
   1775a:	389a2c23          	sw	s1,920(s4)
   1775e:	388a2e23          	sw	s0,924(s4)
   17762:	404a2703          	lw	a4,1028(s4)
   17766:	408a1783          	lh	a5,1032(s4)
   1776a:	40aa4483          	lbu	s1,1034(s4)
   1776e:	05a2                	slli	a1,a1,0x8
   17770:	3aea2023          	sw	a4,928(s4)
   17774:	3afa1223          	sh	a5,932(s4)
   17778:	3a9a0323          	sb	s1,934(s4)
   1777c:	0186d713          	srli	a4,a3,0x18
   17780:	8d4d                	or	a0,a0,a1
   17782:	0106d593          	srli	a1,a3,0x10
   17786:	1eb107a3          	sb	a1,495(sp)
   1778a:	1ee10823          	sb	a4,496(sp)
   1778e:	0086d593          	srli	a1,a3,0x8
   17792:	1ea11523          	sh	a0,490(sp)
   17796:	1ec10623          	sb	a2,492(sp)
   1779a:	1ed106a3          	sb	a3,493(sp)
   1779e:	1eb10723          	sb	a1,494(sp)
   177a2:	1f110513          	addi	a0,sp,497
   177a6:	6585                	lui	a1,0x1
   177a8:	32058593          	addi	a1,a1,800 # 1320 <.Lline_table_start1+0x10f5>
   177ac:	958a                	add	a1,a1,sp
   177ae:	465d                	li	a2,23
   177b0:	00003097          	auipc	ra,0x3
   177b4:	7c2080e7          	jalr	1986(ra) # 1af72 <memcpy>
   177b8:	6505                	lui	a0,0x1
   177ba:	37c50513          	addi	a0,a0,892 # 137c <.Lline_table_start1+0x1151>
   177be:	950a                	add	a0,a0,sp
   177c0:	1ea10593          	addi	a1,sp,490
   177c4:	ffffc097          	auipc	ra,0xffffc
   177c8:	a88080e7          	jalr	-1400(ra) # 1324c <_ZN20complex_full_dynamic3app17h5f421c9eff1637f5E>
   177cc:	3eca4503          	lbu	a0,1004(s4)
   177d0:	c119                	beqz	a0,177d6 <_start+0xb34>
   177d2:	1980306f          	j	1a96a <_start+0x3cc8>
   177d6:	3eea4503          	lbu	a0,1006(s4)
   177da:	3eda4583          	lbu	a1,1005(s4)
   177de:	3efa4603          	lbu	a2,1007(s4)
   177e2:	3f0a2403          	lw	s0,1008(s4)
   177e6:	0522                	slli	a0,a0,0x8
   177e8:	8d4d                	or	a0,a0,a1
   177ea:	20a11423          	sh	a0,520(sp)
   177ee:	20c10523          	sb	a2,522(sp)
   177f2:	6505                	lui	a0,0x1
   177f4:	38450513          	addi	a0,a0,900 # 1384 <.Lline_table_start1+0x1159>
   177f8:	00a105b3          	add	a1,sp,a0
   177fc:	6505                	lui	a0,0x1
   177fe:	32050513          	addi	a0,a0,800 # 1320 <.Lline_table_start1+0x10f5>
   17802:	950a                	add	a0,a0,sp
   17804:	02500613          	li	a2,37
   17808:	00003097          	auipc	ra,0x3
   1780c:	76a080e7          	jalr	1898(ra) # 1af72 <memcpy>
   17810:	01845513          	srli	a0,s0,0x18
   17814:	01045593          	srli	a1,s0,0x10
   17818:	00845613          	srli	a2,s0,0x8
   1781c:	208105a3          	sb	s0,523(sp)
   17820:	20c10623          	sb	a2,524(sp)
   17824:	20b106a3          	sb	a1,525(sp)
   17828:	20a10723          	sb	a0,526(sp)
   1782c:	20f10513          	addi	a0,sp,527
   17830:	6585                	lui	a1,0x1
   17832:	32058593          	addi	a1,a1,800 # 1320 <.Lline_table_start1+0x10f5>
   17836:	958a                	add	a1,a1,sp
   17838:	02500613          	li	a2,37
   1783c:	00003097          	auipc	ra,0x3
   17840:	736080e7          	jalr	1846(ra) # 1af72 <memcpy>
   17844:	6505                	lui	a0,0x1
   17846:	37c50513          	addi	a0,a0,892 # 137c <.Lline_table_start1+0x1151>
   1784a:	950a                	add	a0,a0,sp
   1784c:	042c                	addi	a1,sp,520
   1784e:	ffffe097          	auipc	ra,0xffffe
   17852:	c04080e7          	jalr	-1020(ra) # 15452 <_ZN20complex_full_dynamic3app17hbdd5bdb9be28df4bE>
   17856:	3eca4503          	lbu	a0,1004(s4)
   1785a:	c119                	beqz	a0,17860 <_start+0xbbe>
   1785c:	10e0306f          	j	1a96a <_start+0x3cc8>
   17860:	3eda4503          	lbu	a0,1005(s4)
   17864:	3eea4583          	lbu	a1,1006(s4)
   17868:	3efa4603          	lbu	a2,1007(s4)
   1786c:	3f0a2683          	lw	a3,1008(s4)
   17870:	3f4a2703          	lw	a4,1012(s4)
   17874:	3f8a2783          	lw	a5,1016(s4)
   17878:	3fca2483          	lw	s1,1020(s4)
   1787c:	400a2403          	lw	s0,1024(s4)
   17880:	38ea2823          	sw	a4,912(s4)
   17884:	38fa2a23          	sw	a5,916(s4)
   17888:	389a2c23          	sw	s1,920(s4)
   1788c:	388a2e23          	sw	s0,924(s4)
   17890:	404a2703          	lw	a4,1028(s4)
   17894:	408a2783          	lw	a5,1032(s4)
   17898:	40ca2483          	lw	s1,1036(s4)
   1789c:	410a1403          	lh	s0,1040(s4)
   178a0:	05a2                	slli	a1,a1,0x8
   178a2:	3aea2023          	sw	a4,928(s4)
   178a6:	3afa2223          	sw	a5,932(s4)
   178aa:	3a9a2423          	sw	s1,936(s4)
   178ae:	3a8a1623          	sh	s0,940(s4)
   178b2:	0186d713          	srli	a4,a3,0x18
   178b6:	8d4d                	or	a0,a0,a1
   178b8:	0106d593          	srli	a1,a3,0x10
   178bc:	22b10ca3          	sb	a1,569(sp)
   178c0:	22e10d23          	sb	a4,570(sp)
   178c4:	0086d593          	srli	a1,a3,0x8
   178c8:	22a11a23          	sh	a0,564(sp)
   178cc:	22c10b23          	sb	a2,566(sp)
   178d0:	22d10ba3          	sb	a3,567(sp)
   178d4:	22b10c23          	sb	a1,568(sp)
   178d8:	23b10513          	addi	a0,sp,571
   178dc:	6585                	lui	a1,0x1
   178de:	32058593          	addi	a1,a1,800 # 1320 <.Lline_table_start1+0x10f5>
   178e2:	958a                	add	a1,a1,sp
   178e4:	4679                	li	a2,30
   178e6:	00003097          	auipc	ra,0x3
   178ea:	68c080e7          	jalr	1676(ra) # 1af72 <memcpy>
   178ee:	6505                	lui	a0,0x1
   178f0:	37c50513          	addi	a0,a0,892 # 137c <.Lline_table_start1+0x1151>
   178f4:	950a                	add	a0,a0,sp
   178f6:	1c4c                	addi	a1,sp,564
   178f8:	ffffe097          	auipc	ra,0xffffe
   178fc:	614080e7          	jalr	1556(ra) # 15f0c <_ZN20complex_full_dynamic3app17he0019a513bf0697cE>
   17900:	3eca4503          	lbu	a0,1004(s4)
   17904:	c119                	beqz	a0,1790a <_start+0xc68>
   17906:	0640306f          	j	1a96a <_start+0x3cc8>
   1790a:	3eda4503          	lbu	a0,1005(s4)
   1790e:	3eea4583          	lbu	a1,1006(s4)
   17912:	3efa4803          	lbu	a6,1007(s4)
   17916:	3f0a2683          	lw	a3,1008(s4)
   1791a:	3f4a2703          	lw	a4,1012(s4)
   1791e:	3f8a2783          	lw	a5,1016(s4)
   17922:	3fca2483          	lw	s1,1020(s4)
   17926:	400a2403          	lw	s0,1024(s4)
   1792a:	404a4603          	lbu	a2,1028(s4)
   1792e:	38ea2823          	sw	a4,912(s4)
   17932:	38fa2a23          	sw	a5,916(s4)
   17936:	389a2c23          	sw	s1,920(s4)
   1793a:	388a2e23          	sw	s0,924(s4)
   1793e:	05a2                	slli	a1,a1,0x8
   17940:	3aca0023          	sb	a2,928(s4)
   17944:	0186d613          	srli	a2,a3,0x18
   17948:	8d4d                	or	a0,a0,a1
   1794a:	0106d593          	srli	a1,a3,0x10
   1794e:	24b10fa3          	sb	a1,607(sp)
   17952:	26c10023          	sb	a2,608(sp)
   17956:	0086d593          	srli	a1,a3,0x8
   1795a:	24a11d23          	sh	a0,602(sp)
   1795e:	25010e23          	sb	a6,604(sp)
   17962:	24d10ea3          	sb	a3,605(sp)
   17966:	24b10f23          	sb	a1,606(sp)
   1796a:	26110513          	addi	a0,sp,609
   1796e:	6585                	lui	a1,0x1
   17970:	32058593          	addi	a1,a1,800 # 1320 <.Lline_table_start1+0x10f5>
   17974:	958a                	add	a1,a1,sp
   17976:	4645                	li	a2,17
   17978:	00003097          	auipc	ra,0x3
   1797c:	5fa080e7          	jalr	1530(ra) # 1af72 <memcpy>
   17980:	6505                	lui	a0,0x1
   17982:	37c50513          	addi	a0,a0,892 # 137c <.Lline_table_start1+0x1151>
   17986:	950a                	add	a0,a0,sp
   17988:	25a10593          	addi	a1,sp,602
   1798c:	ffffa097          	auipc	ra,0xffffa
   17990:	638080e7          	jalr	1592(ra) # 11fc4 <_ZN20complex_full_dynamic3app17h20d94bf29d074cddE>
   17994:	3eca4503          	lbu	a0,1004(s4)
   17998:	c119                	beqz	a0,1799e <_start+0xcfc>
   1799a:	7d10206f          	j	1a96a <_start+0x3cc8>
   1799e:	3eea4503          	lbu	a0,1006(s4)
   179a2:	3eda4583          	lbu	a1,1005(s4)
   179a6:	3efa4603          	lbu	a2,1007(s4)
   179aa:	3f0a2403          	lw	s0,1008(s4)
   179ae:	0522                	slli	a0,a0,0x8
   179b0:	8d4d                	or	a0,a0,a1
   179b2:	26a11923          	sh	a0,626(sp)
   179b6:	26c10a23          	sb	a2,628(sp)
   179ba:	6505                	lui	a0,0x1
   179bc:	38450513          	addi	a0,a0,900 # 1384 <.Lline_table_start1+0x1159>
   179c0:	00a105b3          	add	a1,sp,a0
   179c4:	6505                	lui	a0,0x1
   179c6:	32050513          	addi	a0,a0,800 # 1320 <.Lline_table_start1+0x10f5>
   179ca:	950a                	add	a0,a0,sp
   179cc:	02f00613          	li	a2,47
   179d0:	00003097          	auipc	ra,0x3
   179d4:	5a2080e7          	jalr	1442(ra) # 1af72 <memcpy>
   179d8:	01845513          	srli	a0,s0,0x18
   179dc:	01045593          	srli	a1,s0,0x10
   179e0:	00845613          	srli	a2,s0,0x8
   179e4:	26810aa3          	sb	s0,629(sp)
   179e8:	26c10b23          	sb	a2,630(sp)
   179ec:	26b10ba3          	sb	a1,631(sp)
   179f0:	26a10c23          	sb	a0,632(sp)
   179f4:	27910513          	addi	a0,sp,633
   179f8:	6585                	lui	a1,0x1
   179fa:	32058593          	addi	a1,a1,800 # 1320 <.Lline_table_start1+0x10f5>
   179fe:	958a                	add	a1,a1,sp
   17a00:	02f00613          	li	a2,47
   17a04:	00003097          	auipc	ra,0x3
   17a08:	56e080e7          	jalr	1390(ra) # 1af72 <memcpy>
   17a0c:	6505                	lui	a0,0x1
   17a0e:	37c50513          	addi	a0,a0,892 # 137c <.Lline_table_start1+0x1151>
   17a12:	950a                	add	a0,a0,sp
   17a14:	27210593          	addi	a1,sp,626
   17a18:	ffffd097          	auipc	ra,0xffffd
   17a1c:	27e080e7          	jalr	638(ra) # 14c96 <_ZN20complex_full_dynamic3app17ha9e2d55699ee3c9eE>
   17a20:	3eca4503          	lbu	a0,1004(s4)
   17a24:	c119                	beqz	a0,17a2a <_start+0xd88>
   17a26:	7450206f          	j	1a96a <_start+0x3cc8>
   17a2a:	3eea4503          	lbu	a0,1006(s4)
   17a2e:	3eda4583          	lbu	a1,1005(s4)
   17a32:	3efa4603          	lbu	a2,1007(s4)
   17a36:	3f0a2403          	lw	s0,1008(s4)
   17a3a:	0522                	slli	a0,a0,0x8
   17a3c:	8d4d                	or	a0,a0,a1
   17a3e:	2aa11423          	sh	a0,680(sp)
   17a42:	2ac10523          	sb	a2,682(sp)
   17a46:	6505                	lui	a0,0x1
   17a48:	38450513          	addi	a0,a0,900 # 1384 <.Lline_table_start1+0x1159>
   17a4c:	00a105b3          	add	a1,sp,a0
   17a50:	6505                	lui	a0,0x1
   17a52:	32050513          	addi	a0,a0,800 # 1320 <.Lline_table_start1+0x10f5>
   17a56:	950a                	add	a0,a0,sp
   17a58:	02d00613          	li	a2,45
   17a5c:	00003097          	auipc	ra,0x3
   17a60:	516080e7          	jalr	1302(ra) # 1af72 <memcpy>
   17a64:	01845513          	srli	a0,s0,0x18
   17a68:	01045593          	srli	a1,s0,0x10
   17a6c:	00845613          	srli	a2,s0,0x8
   17a70:	2a8105a3          	sb	s0,683(sp)
   17a74:	2ac10623          	sb	a2,684(sp)
   17a78:	2ab106a3          	sb	a1,685(sp)
   17a7c:	2aa10723          	sb	a0,686(sp)
   17a80:	2af10513          	addi	a0,sp,687
   17a84:	6585                	lui	a1,0x1
   17a86:	32058593          	addi	a1,a1,800 # 1320 <.Lline_table_start1+0x10f5>
   17a8a:	958a                	add	a1,a1,sp
   17a8c:	02d00613          	li	a2,45
   17a90:	00003097          	auipc	ra,0x3
   17a94:	4e2080e7          	jalr	1250(ra) # 1af72 <memcpy>
   17a98:	6505                	lui	a0,0x1
   17a9a:	37c50513          	addi	a0,a0,892 # 137c <.Lline_table_start1+0x1151>
   17a9e:	950a                	add	a0,a0,sp
   17aa0:	152c                	addi	a1,sp,680
   17aa2:	ffffd097          	auipc	ra,0xffffd
   17aa6:	a24080e7          	jalr	-1500(ra) # 144c6 <_ZN20complex_full_dynamic3app17h86b6a4f7a94c4999E>
   17aaa:	3eca4503          	lbu	a0,1004(s4)
   17aae:	c119                	beqz	a0,17ab4 <_start+0xe12>
   17ab0:	6bb0206f          	j	1a96a <_start+0x3cc8>
   17ab4:	3eea4503          	lbu	a0,1006(s4)
   17ab8:	3eda4583          	lbu	a1,1005(s4)
   17abc:	3efa4603          	lbu	a2,1007(s4)
   17ac0:	3f0a2403          	lw	s0,1008(s4)
   17ac4:	0522                	slli	a0,a0,0x8
   17ac6:	8d4d                	or	a0,a0,a1
   17ac8:	2ca11e23          	sh	a0,732(sp)
   17acc:	2cc10f23          	sb	a2,734(sp)
   17ad0:	6505                	lui	a0,0x1
   17ad2:	38450513          	addi	a0,a0,900 # 1384 <.Lline_table_start1+0x1159>
   17ad6:	00a105b3          	add	a1,sp,a0
   17ada:	6505                	lui	a0,0x1
   17adc:	32050513          	addi	a0,a0,800 # 1320 <.Lline_table_start1+0x10f5>
   17ae0:	950a                	add	a0,a0,sp
   17ae2:	02700613          	li	a2,39
   17ae6:	00003097          	auipc	ra,0x3
   17aea:	48c080e7          	jalr	1164(ra) # 1af72 <memcpy>
   17aee:	01845513          	srli	a0,s0,0x18
   17af2:	01045593          	srli	a1,s0,0x10
   17af6:	00845613          	srli	a2,s0,0x8
   17afa:	2c810fa3          	sb	s0,735(sp)
   17afe:	2ec10023          	sb	a2,736(sp)
   17b02:	2eb100a3          	sb	a1,737(sp)
   17b06:	2ea10123          	sb	a0,738(sp)
   17b0a:	2e310513          	addi	a0,sp,739
   17b0e:	6585                	lui	a1,0x1
   17b10:	32058593          	addi	a1,a1,800 # 1320 <.Lline_table_start1+0x10f5>
   17b14:	958a                	add	a1,a1,sp
   17b16:	02700613          	li	a2,39
   17b1a:	00003097          	auipc	ra,0x3
   17b1e:	458080e7          	jalr	1112(ra) # 1af72 <memcpy>
   17b22:	6505                	lui	a0,0x1
   17b24:	37c50513          	addi	a0,a0,892 # 137c <.Lline_table_start1+0x1151>
   17b28:	950a                	add	a0,a0,sp
   17b2a:	0dec                	addi	a1,sp,732
   17b2c:	ffffe097          	auipc	ra,0xffffe
   17b30:	0ec080e7          	jalr	236(ra) # 15c18 <_ZN20complex_full_dynamic3app17hd80ec1605aea2678E>
   17b34:	3eca4503          	lbu	a0,1004(s4)
   17b38:	c119                	beqz	a0,17b3e <_start+0xe9c>
   17b3a:	6310206f          	j	1a96a <_start+0x3cc8>
   17b3e:	3eea4503          	lbu	a0,1006(s4)
   17b42:	3eda4583          	lbu	a1,1005(s4)
   17b46:	3efa4603          	lbu	a2,1007(s4)
   17b4a:	3f0a2403          	lw	s0,1008(s4)
   17b4e:	0522                	slli	a0,a0,0x8
   17b50:	8d4d                	or	a0,a0,a1
   17b52:	30a11523          	sh	a0,778(sp)
   17b56:	30c10623          	sb	a2,780(sp)
   17b5a:	6505                	lui	a0,0x1
   17b5c:	38450513          	addi	a0,a0,900 # 1384 <.Lline_table_start1+0x1159>
   17b60:	00a105b3          	add	a1,sp,a0
   17b64:	6505                	lui	a0,0x1
   17b66:	32050513          	addi	a0,a0,800 # 1320 <.Lline_table_start1+0x10f5>
   17b6a:	950a                	add	a0,a0,sp
   17b6c:	03100613          	li	a2,49
   17b70:	00003097          	auipc	ra,0x3
   17b74:	402080e7          	jalr	1026(ra) # 1af72 <memcpy>
   17b78:	01845513          	srli	a0,s0,0x18
   17b7c:	01045593          	srli	a1,s0,0x10
   17b80:	00845613          	srli	a2,s0,0x8
   17b84:	308106a3          	sb	s0,781(sp)
   17b88:	30c10723          	sb	a2,782(sp)
   17b8c:	30b107a3          	sb	a1,783(sp)
   17b90:	30a10823          	sb	a0,784(sp)
   17b94:	31110513          	addi	a0,sp,785
   17b98:	6585                	lui	a1,0x1
   17b9a:	32058593          	addi	a1,a1,800 # 1320 <.Lline_table_start1+0x10f5>
   17b9e:	958a                	add	a1,a1,sp
   17ba0:	03100613          	li	a2,49
   17ba4:	00003097          	auipc	ra,0x3
   17ba8:	3ce080e7          	jalr	974(ra) # 1af72 <memcpy>
   17bac:	6505                	lui	a0,0x1
   17bae:	37c50513          	addi	a0,a0,892 # 137c <.Lline_table_start1+0x1151>
   17bb2:	950a                	add	a0,a0,sp
   17bb4:	30a10593          	addi	a1,sp,778
   17bb8:	ffffe097          	auipc	ra,0xffffe
   17bbc:	256080e7          	jalr	598(ra) # 15e0e <_ZN20complex_full_dynamic3app17hdf9ba28d926a7d44E>
   17bc0:	3eca4503          	lbu	a0,1004(s4)
   17bc4:	c119                	beqz	a0,17bca <_start+0xf28>
   17bc6:	5a50206f          	j	1a96a <_start+0x3cc8>
   17bca:	3eea4503          	lbu	a0,1006(s4)
   17bce:	3eda4583          	lbu	a1,1005(s4)
   17bd2:	3efa4603          	lbu	a2,1007(s4)
   17bd6:	3f0a2403          	lw	s0,1008(s4)
   17bda:	0522                	slli	a0,a0,0x8
   17bdc:	8d4d                	or	a0,a0,a1
   17bde:	34a11123          	sh	a0,834(sp)
   17be2:	34c10223          	sb	a2,836(sp)
   17be6:	6505                	lui	a0,0x1
   17be8:	38450513          	addi	a0,a0,900 # 1384 <.Lline_table_start1+0x1159>
   17bec:	00a105b3          	add	a1,sp,a0
   17bf0:	6505                	lui	a0,0x1
   17bf2:	32050513          	addi	a0,a0,800 # 1320 <.Lline_table_start1+0x10f5>
   17bf6:	950a                	add	a0,a0,sp
   17bf8:	02d00613          	li	a2,45
   17bfc:	00003097          	auipc	ra,0x3
   17c00:	376080e7          	jalr	886(ra) # 1af72 <memcpy>
   17c04:	01845513          	srli	a0,s0,0x18
   17c08:	01045593          	srli	a1,s0,0x10
   17c0c:	00845613          	srli	a2,s0,0x8
   17c10:	348102a3          	sb	s0,837(sp)
   17c14:	34c10323          	sb	a2,838(sp)
   17c18:	34b103a3          	sb	a1,839(sp)
   17c1c:	34a10423          	sb	a0,840(sp)
   17c20:	34910513          	addi	a0,sp,841
   17c24:	6585                	lui	a1,0x1
   17c26:	32058593          	addi	a1,a1,800 # 1320 <.Lline_table_start1+0x10f5>
   17c2a:	958a                	add	a1,a1,sp
   17c2c:	02d00613          	li	a2,45
   17c30:	00003097          	auipc	ra,0x3
   17c34:	342080e7          	jalr	834(ra) # 1af72 <memcpy>
   17c38:	6505                	lui	a0,0x1
   17c3a:	37c50513          	addi	a0,a0,892 # 137c <.Lline_table_start1+0x1151>
   17c3e:	950a                	add	a0,a0,sp
   17c40:	34210593          	addi	a1,sp,834
   17c44:	ffffe097          	auipc	ra,0xffffe
   17c48:	4b6080e7          	jalr	1206(ra) # 160fa <_ZN20complex_full_dynamic3app17he93e3df085e0f642E>
   17c4c:	3eca4503          	lbu	a0,1004(s4)
   17c50:	c119                	beqz	a0,17c56 <_start+0xfb4>
   17c52:	5190206f          	j	1a96a <_start+0x3cc8>
   17c56:	3eda4503          	lbu	a0,1005(s4)
   17c5a:	3eea4583          	lbu	a1,1006(s4)
   17c5e:	3f4a2603          	lw	a2,1012(s4)
   17c62:	3f8a2683          	lw	a3,1016(s4)
   17c66:	3fca2703          	lw	a4,1020(s4)
   17c6a:	400a2783          	lw	a5,1024(s4)
   17c6e:	404a1483          	lh	s1,1028(s4)
   17c72:	406a4403          	lbu	s0,1030(s4)
   17c76:	38ca2823          	sw	a2,912(s4)
   17c7a:	38da2a23          	sw	a3,916(s4)
   17c7e:	38ea2c23          	sw	a4,920(s4)
   17c82:	38fa2e23          	sw	a5,924(s4)
   17c86:	3efa4603          	lbu	a2,1007(s4)
   17c8a:	3f0a2683          	lw	a3,1008(s4)
   17c8e:	05a2                	slli	a1,a1,0x8
   17c90:	3a9a1023          	sh	s1,928(s4)
   17c94:	3a8a0123          	sb	s0,930(s4)
   17c98:	0186d713          	srli	a4,a3,0x18
   17c9c:	8d4d                	or	a0,a0,a1
   17c9e:	0106d593          	srli	a1,a3,0x10
   17ca2:	36b10da3          	sb	a1,891(sp)
   17ca6:	36e10e23          	sb	a4,892(sp)
   17caa:	0086d593          	srli	a1,a3,0x8
   17cae:	36a11b23          	sh	a0,886(sp)
   17cb2:	36c10c23          	sb	a2,888(sp)
   17cb6:	36d10ca3          	sb	a3,889(sp)
   17cba:	36b10d23          	sb	a1,890(sp)
   17cbe:	37d10513          	addi	a0,sp,893
   17cc2:	6585                	lui	a1,0x1
   17cc4:	32058593          	addi	a1,a1,800 # 1320 <.Lline_table_start1+0x10f5>
   17cc8:	958a                	add	a1,a1,sp
   17cca:	464d                	li	a2,19
   17ccc:	00003097          	auipc	ra,0x3
   17cd0:	2a6080e7          	jalr	678(ra) # 1af72 <memcpy>
   17cd4:	6505                	lui	a0,0x1
   17cd6:	37c50513          	addi	a0,a0,892 # 137c <.Lline_table_start1+0x1151>
   17cda:	950a                	add	a0,a0,sp
   17cdc:	37610593          	addi	a1,sp,886
   17ce0:	fffff097          	auipc	ra,0xfffff
   17ce4:	bda080e7          	jalr	-1062(ra) # 168ba <_ZN20complex_full_dynamic3app17hfa74ef9bac71f765E>
   17ce8:	3eca4503          	lbu	a0,1004(s4)
   17cec:	c119                	beqz	a0,17cf2 <_start+0x1050>
   17cee:	47d0206f          	j	1a96a <_start+0x3cc8>
   17cf2:	3eea4503          	lbu	a0,1006(s4)
   17cf6:	3eda4583          	lbu	a1,1005(s4)
   17cfa:	3efa4603          	lbu	a2,1007(s4)
   17cfe:	3f0a2403          	lw	s0,1008(s4)
   17d02:	0522                	slli	a0,a0,0x8
   17d04:	8d4d                	or	a0,a0,a1
   17d06:	38a11823          	sh	a0,912(sp)
   17d0a:	38c10923          	sb	a2,914(sp)
   17d0e:	6505                	lui	a0,0x1
   17d10:	38450513          	addi	a0,a0,900 # 1384 <.Lline_table_start1+0x1159>
   17d14:	00a105b3          	add	a1,sp,a0
   17d18:	6505                	lui	a0,0x1
   17d1a:	32050513          	addi	a0,a0,800 # 1320 <.Lline_table_start1+0x10f5>
   17d1e:	950a                	add	a0,a0,sp
   17d20:	04900613          	li	a2,73
   17d24:	00003097          	auipc	ra,0x3
   17d28:	24e080e7          	jalr	590(ra) # 1af72 <memcpy>
   17d2c:	01845513          	srli	a0,s0,0x18
   17d30:	01045593          	srli	a1,s0,0x10
   17d34:	00845613          	srli	a2,s0,0x8
   17d38:	388109a3          	sb	s0,915(sp)
   17d3c:	38c10a23          	sb	a2,916(sp)
   17d40:	38b10aa3          	sb	a1,917(sp)
   17d44:	38a10b23          	sb	a0,918(sp)
   17d48:	39710513          	addi	a0,sp,919
   17d4c:	6585                	lui	a1,0x1
   17d4e:	32058593          	addi	a1,a1,800 # 1320 <.Lline_table_start1+0x10f5>
   17d52:	958a                	add	a1,a1,sp
   17d54:	04900613          	li	a2,73
   17d58:	00003097          	auipc	ra,0x3
   17d5c:	21a080e7          	jalr	538(ra) # 1af72 <memcpy>
   17d60:	6505                	lui	a0,0x1
   17d62:	37c50513          	addi	a0,a0,892 # 137c <.Lline_table_start1+0x1151>
   17d66:	950a                	add	a0,a0,sp
   17d68:	0f0c                	addi	a1,sp,912
   17d6a:	ffffa097          	auipc	ra,0xffffa
   17d6e:	8a2080e7          	jalr	-1886(ra) # 1160c <_ZN20complex_full_dynamic3app17h0f1cb326b048eff3E>
   17d72:	3eca4503          	lbu	a0,1004(s4)
   17d76:	c119                	beqz	a0,17d7c <_start+0x10da>
   17d78:	3f30206f          	j	1a96a <_start+0x3cc8>
   17d7c:	3eea4503          	lbu	a0,1006(s4)
   17d80:	3eda4583          	lbu	a1,1005(s4)
   17d84:	3efa4603          	lbu	a2,1007(s4)
   17d88:	3f0a2403          	lw	s0,1008(s4)
   17d8c:	0522                	slli	a0,a0,0x8
   17d8e:	8d4d                	or	a0,a0,a1
   17d90:	3ea11023          	sh	a0,992(sp)
   17d94:	3ec10123          	sb	a2,994(sp)
   17d98:	6505                	lui	a0,0x1
   17d9a:	38450513          	addi	a0,a0,900 # 1384 <.Lline_table_start1+0x1159>
   17d9e:	00a105b3          	add	a1,sp,a0
   17da2:	6505                	lui	a0,0x1
   17da4:	32050513          	addi	a0,a0,800 # 1320 <.Lline_table_start1+0x10f5>
   17da8:	950a                	add	a0,a0,sp
   17daa:	03500613          	li	a2,53
   17dae:	00003097          	auipc	ra,0x3
   17db2:	1c4080e7          	jalr	452(ra) # 1af72 <memcpy>
   17db6:	01845513          	srli	a0,s0,0x18
   17dba:	01045593          	srli	a1,s0,0x10
   17dbe:	00845613          	srli	a2,s0,0x8
   17dc2:	3e8101a3          	sb	s0,995(sp)
   17dc6:	3ec10223          	sb	a2,996(sp)
   17dca:	3eb102a3          	sb	a1,997(sp)
   17dce:	3ea10323          	sb	a0,998(sp)
   17dd2:	3e710513          	addi	a0,sp,999
   17dd6:	6585                	lui	a1,0x1
   17dd8:	32058593          	addi	a1,a1,800 # 1320 <.Lline_table_start1+0x10f5>
   17ddc:	958a                	add	a1,a1,sp
   17dde:	03500613          	li	a2,53
   17de2:	00003097          	auipc	ra,0x3
   17de6:	190080e7          	jalr	400(ra) # 1af72 <memcpy>
   17dea:	6505                	lui	a0,0x1
   17dec:	37c50513          	addi	a0,a0,892 # 137c <.Lline_table_start1+0x1151>
   17df0:	950a                	add	a0,a0,sp
   17df2:	178c                	addi	a1,sp,992
   17df4:	fffff097          	auipc	ra,0xfffff
   17df8:	bbe080e7          	jalr	-1090(ra) # 169b2 <_ZN20complex_full_dynamic3app17hfb912d6752143315E>
   17dfc:	3eca4503          	lbu	a0,1004(s4)
   17e00:	c119                	beqz	a0,17e06 <_start+0x1164>
   17e02:	3690206f          	j	1a96a <_start+0x3cc8>
   17e06:	3eea4503          	lbu	a0,1006(s4)
   17e0a:	3eda4583          	lbu	a1,1005(s4)
   17e0e:	3efa4603          	lbu	a2,1007(s4)
   17e12:	3f0a2403          	lw	s0,1008(s4)
   17e16:	0522                	slli	a0,a0,0x8
   17e18:	8d4d                	or	a0,a0,a1
   17e1a:	40a11e23          	sh	a0,1052(sp)
   17e1e:	40c10f23          	sb	a2,1054(sp)
   17e22:	6505                	lui	a0,0x1
   17e24:	38450513          	addi	a0,a0,900 # 1384 <.Lline_table_start1+0x1159>
   17e28:	00a105b3          	add	a1,sp,a0
   17e2c:	6505                	lui	a0,0x1
   17e2e:	32050513          	addi	a0,a0,800 # 1320 <.Lline_table_start1+0x10f5>
   17e32:	950a                	add	a0,a0,sp
   17e34:	02b00613          	li	a2,43
   17e38:	00003097          	auipc	ra,0x3
   17e3c:	13a080e7          	jalr	314(ra) # 1af72 <memcpy>
   17e40:	01845513          	srli	a0,s0,0x18
   17e44:	01045593          	srli	a1,s0,0x10
   17e48:	00845613          	srli	a2,s0,0x8
   17e4c:	40810fa3          	sb	s0,1055(sp)
   17e50:	42c10023          	sb	a2,1056(sp)
   17e54:	42b100a3          	sb	a1,1057(sp)
   17e58:	42a10123          	sb	a0,1058(sp)
   17e5c:	42310513          	addi	a0,sp,1059
   17e60:	6585                	lui	a1,0x1
   17e62:	32058593          	addi	a1,a1,800 # 1320 <.Lline_table_start1+0x10f5>
   17e66:	958a                	add	a1,a1,sp
   17e68:	02b00613          	li	a2,43
   17e6c:	00003097          	auipc	ra,0x3
   17e70:	106080e7          	jalr	262(ra) # 1af72 <memcpy>
   17e74:	6505                	lui	a0,0x1
   17e76:	37c50513          	addi	a0,a0,892 # 137c <.Lline_table_start1+0x1151>
   17e7a:	950a                	add	a0,a0,sp
   17e7c:	41c10593          	addi	a1,sp,1052
   17e80:	ffffb097          	auipc	ra,0xffffb
   17e84:	0e2080e7          	jalr	226(ra) # 12f62 <_ZN20complex_full_dynamic3app17h50570bc240cc493aE>
   17e88:	3eca4503          	lbu	a0,1004(s4)
   17e8c:	c119                	beqz	a0,17e92 <_start+0x11f0>
   17e8e:	2dd0206f          	j	1a96a <_start+0x3cc8>
   17e92:	3eea4503          	lbu	a0,1006(s4)
   17e96:	3eda4583          	lbu	a1,1005(s4)
   17e9a:	3efa4603          	lbu	a2,1007(s4)
   17e9e:	3f0a2403          	lw	s0,1008(s4)
   17ea2:	0522                	slli	a0,a0,0x8
   17ea4:	8d4d                	or	a0,a0,a1
   17ea6:	44a11723          	sh	a0,1102(sp)
   17eaa:	44c10823          	sb	a2,1104(sp)
   17eae:	6505                	lui	a0,0x1
   17eb0:	38450513          	addi	a0,a0,900 # 1384 <.Lline_table_start1+0x1159>
   17eb4:	00a105b3          	add	a1,sp,a0
   17eb8:	6505                	lui	a0,0x1
   17eba:	32050513          	addi	a0,a0,800 # 1320 <.Lline_table_start1+0x10f5>
   17ebe:	950a                	add	a0,a0,sp
   17ec0:	02b00613          	li	a2,43
   17ec4:	00003097          	auipc	ra,0x3
   17ec8:	0ae080e7          	jalr	174(ra) # 1af72 <memcpy>
   17ecc:	01845513          	srli	a0,s0,0x18
   17ed0:	01045593          	srli	a1,s0,0x10
   17ed4:	00845613          	srli	a2,s0,0x8
   17ed8:	448108a3          	sb	s0,1105(sp)
   17edc:	44c10923          	sb	a2,1106(sp)
   17ee0:	44b109a3          	sb	a1,1107(sp)
   17ee4:	44a10a23          	sb	a0,1108(sp)
   17ee8:	45510513          	addi	a0,sp,1109
   17eec:	6585                	lui	a1,0x1
   17eee:	32058593          	addi	a1,a1,800 # 1320 <.Lline_table_start1+0x10f5>
   17ef2:	958a                	add	a1,a1,sp
   17ef4:	02b00613          	li	a2,43
   17ef8:	00003097          	auipc	ra,0x3
   17efc:	07a080e7          	jalr	122(ra) # 1af72 <memcpy>
   17f00:	6505                	lui	a0,0x1
   17f02:	37c50513          	addi	a0,a0,892 # 137c <.Lline_table_start1+0x1151>
   17f06:	950a                	add	a0,a0,sp
   17f08:	44e10593          	addi	a1,sp,1102
   17f0c:	ffffa097          	auipc	ra,0xffffa
   17f10:	3a4080e7          	jalr	932(ra) # 122b0 <_ZN20complex_full_dynamic3app17h246d93ea47089129E>
   17f14:	3eca4503          	lbu	a0,1004(s4)
   17f18:	c119                	beqz	a0,17f1e <_start+0x127c>
   17f1a:	2510206f          	j	1a96a <_start+0x3cc8>
   17f1e:	3eda4503          	lbu	a0,1005(s4)
   17f22:	3eea4583          	lbu	a1,1006(s4)
   17f26:	3efa4603          	lbu	a2,1007(s4)
   17f2a:	3f0a2683          	lw	a3,1008(s4)
   17f2e:	3f4a2703          	lw	a4,1012(s4)
   17f32:	3f8a2783          	lw	a5,1016(s4)
   17f36:	3fca4483          	lbu	s1,1020(s4)
   17f3a:	05a2                	slli	a1,a1,0x8
   17f3c:	38ea2823          	sw	a4,912(s4)
   17f40:	38fa2a23          	sw	a5,916(s4)
   17f44:	389a0c23          	sb	s1,920(s4)
   17f48:	0186d713          	srli	a4,a3,0x18
   17f4c:	8d4d                	or	a0,a0,a1
   17f4e:	0106d593          	srli	a1,a3,0x10
   17f52:	48b102a3          	sb	a1,1157(sp)
   17f56:	48e10323          	sb	a4,1158(sp)
   17f5a:	0086d593          	srli	a1,a3,0x8
   17f5e:	48a11023          	sh	a0,1152(sp)
   17f62:	48c10123          	sb	a2,1154(sp)
   17f66:	48d101a3          	sb	a3,1155(sp)
   17f6a:	48b10223          	sb	a1,1156(sp)
   17f6e:	48710513          	addi	a0,sp,1159
   17f72:	6585                	lui	a1,0x1
   17f74:	32058593          	addi	a1,a1,800 # 1320 <.Lline_table_start1+0x10f5>
   17f78:	958a                	add	a1,a1,sp
   17f7a:	4625                	li	a2,9
   17f7c:	00003097          	auipc	ra,0x3
   17f80:	ff6080e7          	jalr	-10(ra) # 1af72 <memcpy>
   17f84:	6505                	lui	a0,0x1
   17f86:	37c50513          	addi	a0,a0,892 # 137c <.Lline_table_start1+0x1151>
   17f8a:	950a                	add	a0,a0,sp
   17f8c:	48010593          	addi	a1,sp,1152
   17f90:	ffffe097          	auipc	ra,0xffffe
   17f94:	450080e7          	jalr	1104(ra) # 163e0 <_ZN20complex_full_dynamic3app17hee4bb6d6dc14baf6E>
   17f98:	3eca4503          	lbu	a0,1004(s4)
   17f9c:	c119                	beqz	a0,17fa2 <_start+0x1300>
   17f9e:	1cd0206f          	j	1a96a <_start+0x3cc8>
   17fa2:	3eea4503          	lbu	a0,1006(s4)
   17fa6:	3eda4583          	lbu	a1,1005(s4)
   17faa:	3efa4603          	lbu	a2,1007(s4)
   17fae:	3f0a2403          	lw	s0,1008(s4)
   17fb2:	0522                	slli	a0,a0,0x8
   17fb4:	8d4d                	or	a0,a0,a1
   17fb6:	48a11823          	sh	a0,1168(sp)
   17fba:	48c10923          	sb	a2,1170(sp)
   17fbe:	6505                	lui	a0,0x1
   17fc0:	38450513          	addi	a0,a0,900 # 1384 <.Lline_table_start1+0x1159>
   17fc4:	00a105b3          	add	a1,sp,a0
   17fc8:	6505                	lui	a0,0x1
   17fca:	32050513          	addi	a0,a0,800 # 1320 <.Lline_table_start1+0x10f5>
   17fce:	950a                	add	a0,a0,sp
   17fd0:	02f00613          	li	a2,47
   17fd4:	00003097          	auipc	ra,0x3
   17fd8:	f9e080e7          	jalr	-98(ra) # 1af72 <memcpy>
   17fdc:	01845513          	srli	a0,s0,0x18
   17fe0:	01045593          	srli	a1,s0,0x10
   17fe4:	00845613          	srli	a2,s0,0x8
   17fe8:	488109a3          	sb	s0,1171(sp)
   17fec:	48c10a23          	sb	a2,1172(sp)
   17ff0:	48b10aa3          	sb	a1,1173(sp)
   17ff4:	48a10b23          	sb	a0,1174(sp)
   17ff8:	49710513          	addi	a0,sp,1175
   17ffc:	6585                	lui	a1,0x1
   17ffe:	32058593          	addi	a1,a1,800 # 1320 <.Lline_table_start1+0x10f5>
   18002:	958a                	add	a1,a1,sp
   18004:	02f00613          	li	a2,47
   18008:	00003097          	auipc	ra,0x3
   1800c:	f6a080e7          	jalr	-150(ra) # 1af72 <memcpy>
   18010:	6505                	lui	a0,0x1
   18012:	37c50513          	addi	a0,a0,892 # 137c <.Lline_table_start1+0x1151>
   18016:	950a                	add	a0,a0,sp
   18018:	49010593          	addi	a1,sp,1168
   1801c:	ffffe097          	auipc	ra,0xffffe
   18020:	7a6080e7          	jalr	1958(ra) # 167c2 <_ZN20complex_full_dynamic3app17hf60cea69642a5d13E>
   18024:	3eca4503          	lbu	a0,1004(s4)
   18028:	c119                	beqz	a0,1802e <_start+0x138c>
   1802a:	1410206f          	j	1a96a <_start+0x3cc8>
   1802e:	3eda4503          	lbu	a0,1005(s4)
   18032:	3eea4583          	lbu	a1,1006(s4)
   18036:	3efa4803          	lbu	a6,1007(s4)
   1803a:	3f0a2683          	lw	a3,1008(s4)
   1803e:	3f4a2703          	lw	a4,1012(s4)
   18042:	3f8a2783          	lw	a5,1016(s4)
   18046:	05a2                	slli	a1,a1,0x8
   18048:	0186d893          	srli	a7,a3,0x18
   1804c:	0106d293          	srli	t0,a3,0x10
   18050:	0187d613          	srli	a2,a5,0x18
   18054:	0107d493          	srli	s1,a5,0x10
   18058:	0087d413          	srli	s0,a5,0x8
   1805c:	8d4d                	or	a0,a0,a1
   1805e:	01875593          	srli	a1,a4,0x18
   18062:	4c9109a3          	sb	s1,1235(sp)
   18066:	4cc10a23          	sb	a2,1236(sp)
   1806a:	01075613          	srli	a2,a4,0x10
   1806e:	4cc107a3          	sb	a2,1231(sp)
   18072:	4cb10823          	sb	a1,1232(sp)
   18076:	4cf108a3          	sb	a5,1233(sp)
   1807a:	4c810923          	sb	s0,1234(sp)
   1807e:	0086d593          	srli	a1,a3,0x8
   18082:	4ca11323          	sh	a0,1222(sp)
   18086:	4d010423          	sb	a6,1224(sp)
   1808a:	4cd104a3          	sb	a3,1225(sp)
   1808e:	4cb10523          	sb	a1,1226(sp)
   18092:	00875513          	srli	a0,a4,0x8
   18096:	4c5105a3          	sb	t0,1227(sp)
   1809a:	4d110623          	sb	a7,1228(sp)
   1809e:	4ce106a3          	sb	a4,1229(sp)
   180a2:	4ca10723          	sb	a0,1230(sp)
   180a6:	6505                	lui	a0,0x1
   180a8:	37c50513          	addi	a0,a0,892 # 137c <.Lline_table_start1+0x1151>
   180ac:	950a                	add	a0,a0,sp
   180ae:	4c610593          	addi	a1,sp,1222
   180b2:	ffffa097          	auipc	ra,0xffffa
   180b6:	a38080e7          	jalr	-1480(ra) # 11aea <_ZN20complex_full_dynamic3app17h17cf9186bc7a1c29E>
   180ba:	3eca4503          	lbu	a0,1004(s4)
   180be:	c119                	beqz	a0,180c4 <_start+0x1422>
   180c0:	0ab0206f          	j	1a96a <_start+0x3cc8>
   180c4:	3eda4503          	lbu	a0,1005(s4)
   180c8:	3eea4583          	lbu	a1,1006(s4)
   180cc:	3efa4603          	lbu	a2,1007(s4)
   180d0:	3f0a2683          	lw	a3,1008(s4)
   180d4:	3f4a2703          	lw	a4,1012(s4)
   180d8:	3f8a2783          	lw	a5,1016(s4)
   180dc:	3fca2483          	lw	s1,1020(s4)
   180e0:	05a2                	slli	a1,a1,0x8
   180e2:	38ea2823          	sw	a4,912(s4)
   180e6:	38fa2a23          	sw	a5,916(s4)
   180ea:	389a2c23          	sw	s1,920(s4)
   180ee:	0186d713          	srli	a4,a3,0x18
   180f2:	8d4d                	or	a0,a0,a1
   180f4:	0106d593          	srli	a1,a3,0x10
   180f8:	4cb10da3          	sb	a1,1243(sp)
   180fc:	4ce10e23          	sb	a4,1244(sp)
   18100:	0086d593          	srli	a1,a3,0x8
   18104:	4ca11b23          	sh	a0,1238(sp)
   18108:	4cc10c23          	sb	a2,1240(sp)
   1810c:	4cd10ca3          	sb	a3,1241(sp)
   18110:	4cb10d23          	sb	a1,1242(sp)
   18114:	4dd10513          	addi	a0,sp,1245
   18118:	6585                	lui	a1,0x1
   1811a:	32058593          	addi	a1,a1,800 # 1320 <.Lline_table_start1+0x10f5>
   1811e:	958a                	add	a1,a1,sp
   18120:	4631                	li	a2,12
   18122:	00003097          	auipc	ra,0x3
   18126:	e50080e7          	jalr	-432(ra) # 1af72 <memcpy>
   1812a:	6505                	lui	a0,0x1
   1812c:	37c50513          	addi	a0,a0,892 # 137c <.Lline_table_start1+0x1151>
   18130:	950a                	add	a0,a0,sp
   18132:	4d610593          	addi	a1,sp,1238
   18136:	ffffa097          	auipc	ra,0xffffa
   1813a:	35e080e7          	jalr	862(ra) # 12494 <_ZN20complex_full_dynamic3app17h29bbdbfb7b7086daE>
   1813e:	3eca4503          	lbu	a0,1004(s4)
   18142:	c119                	beqz	a0,18148 <_start+0x14a6>
   18144:	0270206f          	j	1a96a <_start+0x3cc8>
   18148:	3eea4503          	lbu	a0,1006(s4)
   1814c:	3eda4583          	lbu	a1,1005(s4)
   18150:	3efa4603          	lbu	a2,1007(s4)
   18154:	3f0a2403          	lw	s0,1008(s4)
   18158:	0522                	slli	a0,a0,0x8
   1815a:	8d4d                	or	a0,a0,a1
   1815c:	4ea11523          	sh	a0,1258(sp)
   18160:	4ec10623          	sb	a2,1260(sp)
   18164:	6505                	lui	a0,0x1
   18166:	38450513          	addi	a0,a0,900 # 1384 <.Lline_table_start1+0x1159>
   1816a:	00a105b3          	add	a1,sp,a0
   1816e:	6505                	lui	a0,0x1
   18170:	32050513          	addi	a0,a0,800 # 1320 <.Lline_table_start1+0x10f5>
   18174:	950a                	add	a0,a0,sp
   18176:	04e00613          	li	a2,78
   1817a:	00003097          	auipc	ra,0x3
   1817e:	df8080e7          	jalr	-520(ra) # 1af72 <memcpy>
   18182:	01845513          	srli	a0,s0,0x18
   18186:	01045593          	srli	a1,s0,0x10
   1818a:	00845613          	srli	a2,s0,0x8
   1818e:	4e8106a3          	sb	s0,1261(sp)
   18192:	4ec10723          	sb	a2,1262(sp)
   18196:	4eb107a3          	sb	a1,1263(sp)
   1819a:	4ea10823          	sb	a0,1264(sp)
   1819e:	4f110513          	addi	a0,sp,1265
   181a2:	6585                	lui	a1,0x1
   181a4:	32058593          	addi	a1,a1,800 # 1320 <.Lline_table_start1+0x10f5>
   181a8:	958a                	add	a1,a1,sp
   181aa:	04e00613          	li	a2,78
   181ae:	00003097          	auipc	ra,0x3
   181b2:	dc4080e7          	jalr	-572(ra) # 1af72 <memcpy>
   181b6:	6505                	lui	a0,0x1
   181b8:	37c50513          	addi	a0,a0,892 # 137c <.Lline_table_start1+0x1151>
   181bc:	950a                	add	a0,a0,sp
   181be:	4ea10593          	addi	a1,sp,1258
   181c2:	ffffb097          	auipc	ra,0xffffb
   181c6:	752080e7          	jalr	1874(ra) # 13914 <_ZN20complex_full_dynamic3app17h6de85724dced86fcE>
   181ca:	3eca4503          	lbu	a0,1004(s4)
   181ce:	c119                	beqz	a0,181d4 <_start+0x1532>
   181d0:	79a0206f          	j	1a96a <_start+0x3cc8>
   181d4:	3eea4503          	lbu	a0,1006(s4)
   181d8:	3eda4583          	lbu	a1,1005(s4)
   181dc:	3efa4603          	lbu	a2,1007(s4)
   181e0:	3f0a2403          	lw	s0,1008(s4)
   181e4:	0522                	slli	a0,a0,0x8
   181e6:	8d4d                	or	a0,a0,a1
   181e8:	54a11023          	sh	a0,1344(sp)
   181ec:	54c10123          	sb	a2,1346(sp)
   181f0:	6505                	lui	a0,0x1
   181f2:	38450513          	addi	a0,a0,900 # 1384 <.Lline_table_start1+0x1159>
   181f6:	00a105b3          	add	a1,sp,a0
   181fa:	6505                	lui	a0,0x1
   181fc:	32050513          	addi	a0,a0,800 # 1320 <.Lline_table_start1+0x10f5>
   18200:	950a                	add	a0,a0,sp
   18202:	02b00613          	li	a2,43
   18206:	00003097          	auipc	ra,0x3
   1820a:	d6c080e7          	jalr	-660(ra) # 1af72 <memcpy>
   1820e:	01845513          	srli	a0,s0,0x18
   18212:	01045593          	srli	a1,s0,0x10
   18216:	00845613          	srli	a2,s0,0x8
   1821a:	548101a3          	sb	s0,1347(sp)
   1821e:	54c10223          	sb	a2,1348(sp)
   18222:	54b102a3          	sb	a1,1349(sp)
   18226:	54a10323          	sb	a0,1350(sp)
   1822a:	54710513          	addi	a0,sp,1351
   1822e:	6585                	lui	a1,0x1
   18230:	32058593          	addi	a1,a1,800 # 1320 <.Lline_table_start1+0x10f5>
   18234:	958a                	add	a1,a1,sp
   18236:	02b00613          	li	a2,43
   1823a:	00003097          	auipc	ra,0x3
   1823e:	d38080e7          	jalr	-712(ra) # 1af72 <memcpy>
   18242:	6505                	lui	a0,0x1
   18244:	37c50513          	addi	a0,a0,892 # 137c <.Lline_table_start1+0x1151>
   18248:	950a                	add	a0,a0,sp
   1824a:	54010593          	addi	a1,sp,1344
   1824e:	ffff9097          	auipc	ra,0xffff9
   18252:	fda080e7          	jalr	-38(ra) # 11228 <_ZN20complex_full_dynamic3app17h067349086c69ab83E>
   18256:	3eca4503          	lbu	a0,1004(s4)
   1825a:	c119                	beqz	a0,18260 <_start+0x15be>
   1825c:	70e0206f          	j	1a96a <_start+0x3cc8>
   18260:	3eea4503          	lbu	a0,1006(s4)
   18264:	3eda4583          	lbu	a1,1005(s4)
   18268:	3efa4603          	lbu	a2,1007(s4)
   1826c:	3f0a2403          	lw	s0,1008(s4)
   18270:	0522                	slli	a0,a0,0x8
   18272:	8d4d                	or	a0,a0,a1
   18274:	56a11923          	sh	a0,1394(sp)
   18278:	56c10a23          	sb	a2,1396(sp)
   1827c:	6505                	lui	a0,0x1
   1827e:	38450513          	addi	a0,a0,900 # 1384 <.Lline_table_start1+0x1159>
   18282:	00a105b3          	add	a1,sp,a0
   18286:	6505                	lui	a0,0x1
   18288:	32050513          	addi	a0,a0,800 # 1320 <.Lline_table_start1+0x10f5>
   1828c:	950a                	add	a0,a0,sp
   1828e:	03a00613          	li	a2,58
   18292:	00003097          	auipc	ra,0x3
   18296:	ce0080e7          	jalr	-800(ra) # 1af72 <memcpy>
   1829a:	01845513          	srli	a0,s0,0x18
   1829e:	01045593          	srli	a1,s0,0x10
   182a2:	00845613          	srli	a2,s0,0x8
   182a6:	56810aa3          	sb	s0,1397(sp)
   182aa:	56c10b23          	sb	a2,1398(sp)
   182ae:	56b10ba3          	sb	a1,1399(sp)
   182b2:	56a10c23          	sb	a0,1400(sp)
   182b6:	57910513          	addi	a0,sp,1401
   182ba:	6585                	lui	a1,0x1
   182bc:	32058593          	addi	a1,a1,800 # 1320 <.Lline_table_start1+0x10f5>
   182c0:	958a                	add	a1,a1,sp
   182c2:	03a00613          	li	a2,58
   182c6:	00003097          	auipc	ra,0x3
   182ca:	cac080e7          	jalr	-852(ra) # 1af72 <memcpy>
   182ce:	6505                	lui	a0,0x1
   182d0:	37c50513          	addi	a0,a0,892 # 137c <.Lline_table_start1+0x1151>
   182d4:	950a                	add	a0,a0,sp
   182d6:	57210593          	addi	a1,sp,1394
   182da:	ffffd097          	auipc	ra,0xffffd
   182de:	da0080e7          	jalr	-608(ra) # 1507a <_ZN20complex_full_dynamic3app17hb278029c01d2bea1E>
   182e2:	3eca4503          	lbu	a0,1004(s4)
   182e6:	c119                	beqz	a0,182ec <_start+0x164a>
   182e8:	6820206f          	j	1a96a <_start+0x3cc8>
   182ec:	3eda4503          	lbu	a0,1005(s4)
   182f0:	3eea4583          	lbu	a1,1006(s4)
   182f4:	3efa4603          	lbu	a2,1007(s4)
   182f8:	3f0a2683          	lw	a3,1008(s4)
   182fc:	3f4a2703          	lw	a4,1012(s4)
   18300:	3f8a2783          	lw	a5,1016(s4)
   18304:	3fca2483          	lw	s1,1020(s4)
   18308:	400a2403          	lw	s0,1024(s4)
   1830c:	38ea2823          	sw	a4,912(s4)
   18310:	38fa2a23          	sw	a5,916(s4)
   18314:	389a2c23          	sw	s1,920(s4)
   18318:	388a2e23          	sw	s0,924(s4)
   1831c:	404a2703          	lw	a4,1028(s4)
   18320:	408a2783          	lw	a5,1032(s4)
   18324:	40ca1483          	lh	s1,1036(s4)
   18328:	40ea4403          	lbu	s0,1038(s4)
   1832c:	05a2                	slli	a1,a1,0x8
   1832e:	3aea2023          	sw	a4,928(s4)
   18332:	3afa2223          	sw	a5,932(s4)
   18336:	3a9a1423          	sh	s1,936(s4)
   1833a:	3a8a0523          	sb	s0,938(s4)
   1833e:	0186d713          	srli	a4,a3,0x18
   18342:	8d4d                	or	a0,a0,a1
   18344:	0106d593          	srli	a1,a3,0x10
   18348:	5ab10ca3          	sb	a1,1465(sp)
   1834c:	5ae10d23          	sb	a4,1466(sp)
   18350:	0086d593          	srli	a1,a3,0x8
   18354:	5aa11a23          	sh	a0,1460(sp)
   18358:	5ac10b23          	sb	a2,1462(sp)
   1835c:	5ad10ba3          	sb	a3,1463(sp)
   18360:	5ab10c23          	sb	a1,1464(sp)
   18364:	5bb10513          	addi	a0,sp,1467
   18368:	6585                	lui	a1,0x1
   1836a:	32058593          	addi	a1,a1,800 # 1320 <.Lline_table_start1+0x10f5>
   1836e:	958a                	add	a1,a1,sp
   18370:	466d                	li	a2,27
   18372:	00003097          	auipc	ra,0x3
   18376:	c00080e7          	jalr	-1024(ra) # 1af72 <memcpy>
   1837a:	6505                	lui	a0,0x1
   1837c:	37c50513          	addi	a0,a0,892 # 137c <.Lline_table_start1+0x1151>
   18380:	950a                	add	a0,a0,sp
   18382:	5b410593          	addi	a1,sp,1460
   18386:	ffffb097          	auipc	ra,0xffffb
   1838a:	fc0080e7          	jalr	-64(ra) # 13346 <_ZN20complex_full_dynamic3app17h65a66e846b62284bE>
   1838e:	3eca4503          	lbu	a0,1004(s4)
   18392:	c119                	beqz	a0,18398 <_start+0x16f6>
   18394:	5d60206f          	j	1a96a <_start+0x3cc8>
   18398:	3eea4503          	lbu	a0,1006(s4)
   1839c:	3eda4583          	lbu	a1,1005(s4)
   183a0:	3efa4603          	lbu	a2,1007(s4)
   183a4:	3f0a2403          	lw	s0,1008(s4)
   183a8:	0522                	slli	a0,a0,0x8
   183aa:	8d4d                	or	a0,a0,a1
   183ac:	5ca11b23          	sh	a0,1494(sp)
   183b0:	5cc10c23          	sb	a2,1496(sp)
   183b4:	6505                	lui	a0,0x1
   183b6:	38450513          	addi	a0,a0,900 # 1384 <.Lline_table_start1+0x1159>
   183ba:	00a105b3          	add	a1,sp,a0
   183be:	6505                	lui	a0,0x1
   183c0:	32050513          	addi	a0,a0,800 # 1320 <.Lline_table_start1+0x10f5>
   183c4:	950a                	add	a0,a0,sp
   183c6:	04a00613          	li	a2,74
   183ca:	00003097          	auipc	ra,0x3
   183ce:	ba8080e7          	jalr	-1112(ra) # 1af72 <memcpy>
   183d2:	01845513          	srli	a0,s0,0x18
   183d6:	01045593          	srli	a1,s0,0x10
   183da:	00845613          	srli	a2,s0,0x8
   183de:	5c810ca3          	sb	s0,1497(sp)
   183e2:	5cc10d23          	sb	a2,1498(sp)
   183e6:	5cb10da3          	sb	a1,1499(sp)
   183ea:	5ca10e23          	sb	a0,1500(sp)
   183ee:	5dd10513          	addi	a0,sp,1501
   183f2:	6585                	lui	a1,0x1
   183f4:	32058593          	addi	a1,a1,800 # 1320 <.Lline_table_start1+0x10f5>
   183f8:	958a                	add	a1,a1,sp
   183fa:	04a00613          	li	a2,74
   183fe:	00003097          	auipc	ra,0x3
   18402:	b74080e7          	jalr	-1164(ra) # 1af72 <memcpy>
   18406:	6505                	lui	a0,0x1
   18408:	37c50513          	addi	a0,a0,892 # 137c <.Lline_table_start1+0x1151>
   1840c:	950a                	add	a0,a0,sp
   1840e:	5d610593          	addi	a1,sp,1494
   18412:	ffffa097          	auipc	ra,0xffffa
   18416:	378080e7          	jalr	888(ra) # 1278a <_ZN20complex_full_dynamic3app17h38420ad4236e0aa4E>
   1841a:	3eca4503          	lbu	a0,1004(s4)
   1841e:	c119                	beqz	a0,18424 <_start+0x1782>
   18420:	54a0206f          	j	1a96a <_start+0x3cc8>
   18424:	3eea4503          	lbu	a0,1006(s4)
   18428:	3eda4583          	lbu	a1,1005(s4)
   1842c:	3efa4603          	lbu	a2,1007(s4)
   18430:	3f0a2403          	lw	s0,1008(s4)
   18434:	0522                	slli	a0,a0,0x8
   18436:	8d4d                	or	a0,a0,a1
   18438:	62a11423          	sh	a0,1576(sp)
   1843c:	62c10523          	sb	a2,1578(sp)
   18440:	6505                	lui	a0,0x1
   18442:	38450513          	addi	a0,a0,900 # 1384 <.Lline_table_start1+0x1159>
   18446:	00a105b3          	add	a1,sp,a0
   1844a:	6505                	lui	a0,0x1
   1844c:	32050513          	addi	a0,a0,800 # 1320 <.Lline_table_start1+0x10f5>
   18450:	950a                	add	a0,a0,sp
   18452:	04800613          	li	a2,72
   18456:	00003097          	auipc	ra,0x3
   1845a:	b1c080e7          	jalr	-1252(ra) # 1af72 <memcpy>
   1845e:	01845513          	srli	a0,s0,0x18
   18462:	01045593          	srli	a1,s0,0x10
   18466:	00845613          	srli	a2,s0,0x8
   1846a:	628105a3          	sb	s0,1579(sp)
   1846e:	62c10623          	sb	a2,1580(sp)
   18472:	62b106a3          	sb	a1,1581(sp)
   18476:	62a10723          	sb	a0,1582(sp)
   1847a:	62f10513          	addi	a0,sp,1583
   1847e:	6585                	lui	a1,0x1
   18480:	32058593          	addi	a1,a1,800 # 1320 <.Lline_table_start1+0x10f5>
   18484:	958a                	add	a1,a1,sp
   18486:	04800613          	li	a2,72
   1848a:	00003097          	auipc	ra,0x3
   1848e:	ae8080e7          	jalr	-1304(ra) # 1af72 <memcpy>
   18492:	6505                	lui	a0,0x1
   18494:	37c50513          	addi	a0,a0,892 # 137c <.Lline_table_start1+0x1151>
   18498:	950a                	add	a0,a0,sp
   1849a:	62810593          	addi	a1,sp,1576
   1849e:	ffffb097          	auipc	ra,0xffffb
   184a2:	18e080e7          	jalr	398(ra) # 1362c <_ZN20complex_full_dynamic3app17h6789c25db9832d4eE>
   184a6:	3eca4503          	lbu	a0,1004(s4)
   184aa:	c119                	beqz	a0,184b0 <_start+0x180e>
   184ac:	4be0206f          	j	1a96a <_start+0x3cc8>
   184b0:	3eea4503          	lbu	a0,1006(s4)
   184b4:	3eda4583          	lbu	a1,1005(s4)
   184b8:	3efa4603          	lbu	a2,1007(s4)
   184bc:	3f0a2403          	lw	s0,1008(s4)
   184c0:	0522                	slli	a0,a0,0x8
   184c2:	8d4d                	or	a0,a0,a1
   184c4:	66a11c23          	sh	a0,1656(sp)
   184c8:	66c10d23          	sb	a2,1658(sp)
   184cc:	6505                	lui	a0,0x1
   184ce:	38450513          	addi	a0,a0,900 # 1384 <.Lline_table_start1+0x1159>
   184d2:	00a105b3          	add	a1,sp,a0
   184d6:	6505                	lui	a0,0x1
   184d8:	32050513          	addi	a0,a0,800 # 1320 <.Lline_table_start1+0x10f5>
   184dc:	950a                	add	a0,a0,sp
   184de:	03400613          	li	a2,52
   184e2:	00003097          	auipc	ra,0x3
   184e6:	a90080e7          	jalr	-1392(ra) # 1af72 <memcpy>
   184ea:	01845513          	srli	a0,s0,0x18
   184ee:	01045593          	srli	a1,s0,0x10
   184f2:	00845613          	srli	a2,s0,0x8
   184f6:	66810da3          	sb	s0,1659(sp)
   184fa:	66c10e23          	sb	a2,1660(sp)
   184fe:	66b10ea3          	sb	a1,1661(sp)
   18502:	66a10f23          	sb	a0,1662(sp)
   18506:	67f10513          	addi	a0,sp,1663
   1850a:	6585                	lui	a1,0x1
   1850c:	32058593          	addi	a1,a1,800 # 1320 <.Lline_table_start1+0x10f5>
   18510:	958a                	add	a1,a1,sp
   18512:	03400613          	li	a2,52
   18516:	00003097          	auipc	ra,0x3
   1851a:	a5c080e7          	jalr	-1444(ra) # 1af72 <memcpy>
   1851e:	6505                	lui	a0,0x1
   18520:	37c50513          	addi	a0,a0,892 # 137c <.Lline_table_start1+0x1151>
   18524:	950a                	add	a0,a0,sp
   18526:	67810593          	addi	a1,sp,1656
   1852a:	ffffc097          	auipc	ra,0xffffc
   1852e:	672080e7          	jalr	1650(ra) # 14b9c <_ZN20complex_full_dynamic3app17ha771beb6c60cd297E>
   18532:	3eca4503          	lbu	a0,1004(s4)
   18536:	c119                	beqz	a0,1853c <_start+0x189a>
   18538:	4320206f          	j	1a96a <_start+0x3cc8>
   1853c:	3eda4503          	lbu	a0,1005(s4)
   18540:	3eea4583          	lbu	a1,1006(s4)
   18544:	3efa4603          	lbu	a2,1007(s4)
   18548:	3f0a2683          	lw	a3,1008(s4)
   1854c:	3f4a2703          	lw	a4,1012(s4)
   18550:	3f8a2783          	lw	a5,1016(s4)
   18554:	3fca2483          	lw	s1,1020(s4)
   18558:	400a2403          	lw	s0,1024(s4)
   1855c:	38ea2823          	sw	a4,912(s4)
   18560:	38fa2a23          	sw	a5,916(s4)
   18564:	389a2c23          	sw	s1,920(s4)
   18568:	388a2e23          	sw	s0,924(s4)
   1856c:	404a2703          	lw	a4,1028(s4)
   18570:	408a2783          	lw	a5,1032(s4)
   18574:	40ca2483          	lw	s1,1036(s4)
   18578:	410a2403          	lw	s0,1040(s4)
   1857c:	05a2                	slli	a1,a1,0x8
   1857e:	3aea2023          	sw	a4,928(s4)
   18582:	3afa2223          	sw	a5,932(s4)
   18586:	3a9a2423          	sw	s1,936(s4)
   1858a:	3a8a2623          	sw	s0,940(s4)
   1858e:	0186d713          	srli	a4,a3,0x18
   18592:	8d4d                	or	a0,a0,a1
   18594:	0106d593          	srli	a1,a3,0x10
   18598:	6ab10ca3          	sb	a1,1721(sp)
   1859c:	6ae10d23          	sb	a4,1722(sp)
   185a0:	0086d593          	srli	a1,a3,0x8
   185a4:	6aa11a23          	sh	a0,1716(sp)
   185a8:	6ac10b23          	sb	a2,1718(sp)
   185ac:	6ad10ba3          	sb	a3,1719(sp)
   185b0:	6ab10c23          	sb	a1,1720(sp)
   185b4:	6bb10513          	addi	a0,sp,1723
   185b8:	6585                	lui	a1,0x1
   185ba:	32058593          	addi	a1,a1,800 # 1320 <.Lline_table_start1+0x10f5>
   185be:	958a                	add	a1,a1,sp
   185c0:	02000613          	li	a2,32
   185c4:	00003097          	auipc	ra,0x3
   185c8:	9ae080e7          	jalr	-1618(ra) # 1af72 <memcpy>
   185cc:	6505                	lui	a0,0x1
   185ce:	37c50513          	addi	a0,a0,892 # 137c <.Lline_table_start1+0x1151>
   185d2:	950a                	add	a0,a0,sp
   185d4:	6b410593          	addi	a1,sp,1716
   185d8:	ffffb097          	auipc	ra,0xffffb
   185dc:	b82080e7          	jalr	-1150(ra) # 1315a <_ZN20complex_full_dynamic3app17h5ccdd70e511613a3E>
   185e0:	3eca4503          	lbu	a0,1004(s4)
   185e4:	c119                	beqz	a0,185ea <_start+0x1948>
   185e6:	3840206f          	j	1a96a <_start+0x3cc8>
   185ea:	3eda4503          	lbu	a0,1005(s4)
   185ee:	3eea4583          	lbu	a1,1006(s4)
   185f2:	3efa4603          	lbu	a2,1007(s4)
   185f6:	3f0a2683          	lw	a3,1008(s4)
   185fa:	3f4a2703          	lw	a4,1012(s4)
   185fe:	3f8a2783          	lw	a5,1016(s4)
   18602:	3fca2483          	lw	s1,1020(s4)
   18606:	400a4403          	lbu	s0,1024(s4)
   1860a:	05a2                	slli	a1,a1,0x8
   1860c:	38ea2823          	sw	a4,912(s4)
   18610:	38fa2a23          	sw	a5,916(s4)
   18614:	389a2c23          	sw	s1,920(s4)
   18618:	388a0e23          	sb	s0,924(s4)
   1861c:	0186d713          	srli	a4,a3,0x18
   18620:	8d4d                	or	a0,a0,a1
   18622:	0106d593          	srli	a1,a3,0x10
   18626:	6eb100a3          	sb	a1,1761(sp)
   1862a:	6ee10123          	sb	a4,1762(sp)
   1862e:	0086d593          	srli	a1,a3,0x8
   18632:	6ca11e23          	sh	a0,1756(sp)
   18636:	6cc10f23          	sb	a2,1758(sp)
   1863a:	6cd10fa3          	sb	a3,1759(sp)
   1863e:	6eb10023          	sb	a1,1760(sp)
   18642:	6e310513          	addi	a0,sp,1763
   18646:	6585                	lui	a1,0x1
   18648:	32058593          	addi	a1,a1,800 # 1320 <.Lline_table_start1+0x10f5>
   1864c:	958a                	add	a1,a1,sp
   1864e:	4635                	li	a2,13
   18650:	00003097          	auipc	ra,0x3
   18654:	922080e7          	jalr	-1758(ra) # 1af72 <memcpy>
   18658:	6505                	lui	a0,0x1
   1865a:	37c50513          	addi	a0,a0,892 # 137c <.Lline_table_start1+0x1151>
   1865e:	950a                	add	a0,a0,sp
   18660:	6dc10593          	addi	a1,sp,1756
   18664:	ffffb097          	auipc	ra,0xffffb
   18668:	794080e7          	jalr	1940(ra) # 13df8 <_ZN20complex_full_dynamic3app17h7a3d8806911b5b6fE>
   1866c:	3eca4503          	lbu	a0,1004(s4)
   18670:	c119                	beqz	a0,18676 <_start+0x19d4>
   18672:	2f80206f          	j	1a96a <_start+0x3cc8>
   18676:	3eea4503          	lbu	a0,1006(s4)
   1867a:	3eda4583          	lbu	a1,1005(s4)
   1867e:	3efa4603          	lbu	a2,1007(s4)
   18682:	3f0a2403          	lw	s0,1008(s4)
   18686:	0522                	slli	a0,a0,0x8
   18688:	8d4d                	or	a0,a0,a1
   1868a:	6ea11823          	sh	a0,1776(sp)
   1868e:	6ec10923          	sb	a2,1778(sp)
   18692:	6505                	lui	a0,0x1
   18694:	38450513          	addi	a0,a0,900 # 1384 <.Lline_table_start1+0x1159>
   18698:	00a105b3          	add	a1,sp,a0
   1869c:	6505                	lui	a0,0x1
   1869e:	32050513          	addi	a0,a0,800 # 1320 <.Lline_table_start1+0x10f5>
   186a2:	950a                	add	a0,a0,sp
   186a4:	02400613          	li	a2,36
   186a8:	00003097          	auipc	ra,0x3
   186ac:	8ca080e7          	jalr	-1846(ra) # 1af72 <memcpy>
   186b0:	01845513          	srli	a0,s0,0x18
   186b4:	01045593          	srli	a1,s0,0x10
   186b8:	00845613          	srli	a2,s0,0x8
   186bc:	6e8109a3          	sb	s0,1779(sp)
   186c0:	6ec10a23          	sb	a2,1780(sp)
   186c4:	6eb10aa3          	sb	a1,1781(sp)
   186c8:	6ea10b23          	sb	a0,1782(sp)
   186cc:	6f710513          	addi	a0,sp,1783
   186d0:	6585                	lui	a1,0x1
   186d2:	32058593          	addi	a1,a1,800 # 1320 <.Lline_table_start1+0x10f5>
   186d6:	958a                	add	a1,a1,sp
   186d8:	02400613          	li	a2,36
   186dc:	00003097          	auipc	ra,0x3
   186e0:	896080e7          	jalr	-1898(ra) # 1af72 <memcpy>
   186e4:	6505                	lui	a0,0x1
   186e6:	37c50513          	addi	a0,a0,892 # 137c <.Lline_table_start1+0x1151>
   186ea:	950a                	add	a0,a0,sp
   186ec:	6f010593          	addi	a1,sp,1776
   186f0:	ffff9097          	auipc	ra,0xffff9
   186f4:	5e4080e7          	jalr	1508(ra) # 11cd4 <_ZN20complex_full_dynamic3app17h1a6d342e34f8c021E>
   186f8:	3eca4503          	lbu	a0,1004(s4)
   186fc:	c119                	beqz	a0,18702 <_start+0x1a60>
   186fe:	26c0206f          	j	1a96a <_start+0x3cc8>
   18702:	3eda4503          	lbu	a0,1005(s4)
   18706:	3eea4583          	lbu	a1,1006(s4)
   1870a:	3efa4603          	lbu	a2,1007(s4)
   1870e:	3f0a2683          	lw	a3,1008(s4)
   18712:	3f4a2703          	lw	a4,1012(s4)
   18716:	3f8a2783          	lw	a5,1016(s4)
   1871a:	3fca2483          	lw	s1,1020(s4)
   1871e:	400a2403          	lw	s0,1024(s4)
   18722:	38ea2823          	sw	a4,912(s4)
   18726:	38fa2a23          	sw	a5,916(s4)
   1872a:	389a2c23          	sw	s1,920(s4)
   1872e:	388a2e23          	sw	s0,924(s4)
   18732:	404a2703          	lw	a4,1028(s4)
   18736:	408a1783          	lh	a5,1032(s4)
   1873a:	40aa4483          	lbu	s1,1034(s4)
   1873e:	05a2                	slli	a1,a1,0x8
   18740:	3aea2023          	sw	a4,928(s4)
   18744:	3afa1223          	sh	a5,932(s4)
   18748:	3a9a0323          	sb	s1,934(s4)
   1874c:	0186d713          	srli	a4,a3,0x18
   18750:	8d4d                	or	a0,a0,a1
   18752:	0106d593          	srli	a1,a3,0x10
   18756:	72b100a3          	sb	a1,1825(sp)
   1875a:	72e10123          	sb	a4,1826(sp)
   1875e:	0086d593          	srli	a1,a3,0x8
   18762:	70a11e23          	sh	a0,1820(sp)
   18766:	70c10f23          	sb	a2,1822(sp)
   1876a:	70d10fa3          	sb	a3,1823(sp)
   1876e:	72b10023          	sb	a1,1824(sp)
   18772:	72310513          	addi	a0,sp,1827
   18776:	6585                	lui	a1,0x1
   18778:	32058593          	addi	a1,a1,800 # 1320 <.Lline_table_start1+0x10f5>
   1877c:	958a                	add	a1,a1,sp
   1877e:	465d                	li	a2,23
   18780:	00002097          	auipc	ra,0x2
   18784:	7f2080e7          	jalr	2034(ra) # 1af72 <memcpy>
   18788:	6505                	lui	a0,0x1
   1878a:	37c50513          	addi	a0,a0,892 # 137c <.Lline_table_start1+0x1151>
   1878e:	950a                	add	a0,a0,sp
   18790:	71c10593          	addi	a1,sp,1820
   18794:	ffffc097          	auipc	ra,0xffffc
   18798:	5fc080e7          	jalr	1532(ra) # 14d90 <_ZN20complex_full_dynamic3app17hac5d38cc211d84a3E>
   1879c:	3eca4503          	lbu	a0,1004(s4)
   187a0:	c119                	beqz	a0,187a6 <_start+0x1b04>
   187a2:	1c80206f          	j	1a96a <_start+0x3cc8>
   187a6:	3eea4503          	lbu	a0,1006(s4)
   187aa:	3eda4583          	lbu	a1,1005(s4)
   187ae:	3efa4603          	lbu	a2,1007(s4)
   187b2:	3f0a2403          	lw	s0,1008(s4)
   187b6:	0522                	slli	a0,a0,0x8
   187b8:	8d4d                	or	a0,a0,a1
   187ba:	72a11d23          	sh	a0,1850(sp)
   187be:	72c10e23          	sb	a2,1852(sp)
   187c2:	6505                	lui	a0,0x1
   187c4:	38450513          	addi	a0,a0,900 # 1384 <.Lline_table_start1+0x1159>
   187c8:	00a105b3          	add	a1,sp,a0
   187cc:	6505                	lui	a0,0x1
   187ce:	32050513          	addi	a0,a0,800 # 1320 <.Lline_table_start1+0x10f5>
   187d2:	950a                	add	a0,a0,sp
   187d4:	04a00613          	li	a2,74
   187d8:	00002097          	auipc	ra,0x2
   187dc:	79a080e7          	jalr	1946(ra) # 1af72 <memcpy>
   187e0:	01845513          	srli	a0,s0,0x18
   187e4:	01045593          	srli	a1,s0,0x10
   187e8:	00845613          	srli	a2,s0,0x8
   187ec:	72810ea3          	sb	s0,1853(sp)
   187f0:	72c10f23          	sb	a2,1854(sp)
   187f4:	72b10fa3          	sb	a1,1855(sp)
   187f8:	74a10023          	sb	a0,1856(sp)
   187fc:	74110513          	addi	a0,sp,1857
   18800:	6585                	lui	a1,0x1
   18802:	32058593          	addi	a1,a1,800 # 1320 <.Lline_table_start1+0x10f5>
   18806:	958a                	add	a1,a1,sp
   18808:	04a00613          	li	a2,74
   1880c:	00002097          	auipc	ra,0x2
   18810:	766080e7          	jalr	1894(ra) # 1af72 <memcpy>
   18814:	6505                	lui	a0,0x1
   18816:	37c50513          	addi	a0,a0,892 # 137c <.Lline_table_start1+0x1151>
   1881a:	950a                	add	a0,a0,sp
   1881c:	73a10593          	addi	a1,sp,1850
   18820:	ffffb097          	auipc	ra,0xffffb
   18824:	3e6080e7          	jalr	998(ra) # 13c06 <_ZN20complex_full_dynamic3app17h737f100c66612ac7E>
   18828:	3eca4503          	lbu	a0,1004(s4)
   1882c:	c119                	beqz	a0,18832 <_start+0x1b90>
   1882e:	13c0206f          	j	1a96a <_start+0x3cc8>
   18832:	78e10913          	addi	s2,sp,1934
   18836:	3eda4503          	lbu	a0,1005(s4)
   1883a:	3eea4583          	lbu	a1,1006(s4)
   1883e:	3efa4803          	lbu	a6,1007(s4)
   18842:	3f0a2683          	lw	a3,1008(s4)
   18846:	3f4a2703          	lw	a4,1012(s4)
   1884a:	3f8a2783          	lw	a5,1016(s4)
   1884e:	05a2                	slli	a1,a1,0x8
   18850:	0186d893          	srli	a7,a3,0x18
   18854:	0106d293          	srli	t0,a3,0x10
   18858:	0187d613          	srli	a2,a5,0x18
   1885c:	0107d493          	srli	s1,a5,0x10
   18860:	0087d413          	srli	s0,a5,0x8
   18864:	8d4d                	or	a0,a0,a1
   18866:	01875593          	srli	a1,a4,0x18
   1886a:	009905a3          	sb	s1,11(s2)
   1886e:	00c90623          	sb	a2,12(s2)
   18872:	01075613          	srli	a2,a4,0x10
   18876:	00c903a3          	sb	a2,7(s2)
   1887a:	00b90423          	sb	a1,8(s2)
   1887e:	00f904a3          	sb	a5,9(s2)
   18882:	00890523          	sb	s0,10(s2)
   18886:	0086d593          	srli	a1,a3,0x8
   1888a:	fea91f23          	sh	a0,-2(s2)
   1888e:	01090023          	sb	a6,0(s2)
   18892:	00d900a3          	sb	a3,1(s2)
   18896:	00b90123          	sb	a1,2(s2)
   1889a:	00875513          	srli	a0,a4,0x8
   1889e:	005901a3          	sb	t0,3(s2)
   188a2:	01190223          	sb	a7,4(s2)
   188a6:	00e902a3          	sb	a4,5(s2)
   188aa:	00a90323          	sb	a0,6(s2)
   188ae:	6505                	lui	a0,0x1
   188b0:	37c50513          	addi	a0,a0,892 # 137c <.Lline_table_start1+0x1151>
   188b4:	950a                	add	a0,a0,sp
   188b6:	78c10593          	addi	a1,sp,1932
   188ba:	ffffa097          	auipc	ra,0xffffa
   188be:	806080e7          	jalr	-2042(ra) # 120c0 <_ZN20complex_full_dynamic3app17h21fd502e786be3f0E>
   188c2:	3eca4503          	lbu	a0,1004(s4)
   188c6:	c119                	beqz	a0,188cc <_start+0x1c2a>
   188c8:	0a20206f          	j	1a96a <_start+0x3cc8>
   188cc:	3eea4503          	lbu	a0,1006(s4)
   188d0:	3eda4583          	lbu	a1,1005(s4)
   188d4:	3efa4603          	lbu	a2,1007(s4)
   188d8:	3f0a2403          	lw	s0,1008(s4)
   188dc:	0522                	slli	a0,a0,0x8
   188de:	8d4d                	or	a0,a0,a1
   188e0:	00a91723          	sh	a0,14(s2)
   188e4:	00c90823          	sb	a2,16(s2)
   188e8:	6505                	lui	a0,0x1
   188ea:	38450513          	addi	a0,a0,900 # 1384 <.Lline_table_start1+0x1159>
   188ee:	00a105b3          	add	a1,sp,a0
   188f2:	6505                	lui	a0,0x1
   188f4:	32050513          	addi	a0,a0,800 # 1320 <.Lline_table_start1+0x10f5>
   188f8:	950a                	add	a0,a0,sp
   188fa:	03f00613          	li	a2,63
   188fe:	00002097          	auipc	ra,0x2
   18902:	674080e7          	jalr	1652(ra) # 1af72 <memcpy>
   18906:	01845513          	srli	a0,s0,0x18
   1890a:	01045593          	srli	a1,s0,0x10
   1890e:	00845613          	srli	a2,s0,0x8
   18912:	008908a3          	sb	s0,17(s2)
   18916:	00c90923          	sb	a2,18(s2)
   1891a:	00b909a3          	sb	a1,19(s2)
   1891e:	00a90a23          	sb	a0,20(s2)
   18922:	7a310513          	addi	a0,sp,1955
   18926:	6585                	lui	a1,0x1
   18928:	32058593          	addi	a1,a1,800 # 1320 <.Lline_table_start1+0x10f5>
   1892c:	958a                	add	a1,a1,sp
   1892e:	03f00613          	li	a2,63
   18932:	00002097          	auipc	ra,0x2
   18936:	640080e7          	jalr	1600(ra) # 1af72 <memcpy>
   1893a:	6505                	lui	a0,0x1
   1893c:	37c50513          	addi	a0,a0,892 # 137c <.Lline_table_start1+0x1151>
   18940:	950a                	add	a0,a0,sp
   18942:	79c10593          	addi	a1,sp,1948
   18946:	ffffd097          	auipc	ra,0xffffd
   1894a:	3ce080e7          	jalr	974(ra) # 15d14 <_ZN20complex_full_dynamic3app17hd8f08b9a95cee315E>
   1894e:	3eca4503          	lbu	a0,1004(s4)
   18952:	c119                	beqz	a0,18958 <_start+0x1cb6>
   18954:	0160206f          	j	1a96a <_start+0x3cc8>
   18958:	3eea4503          	lbu	a0,1006(s4)
   1895c:	3eda4583          	lbu	a1,1005(s4)
   18960:	3efa4603          	lbu	a2,1007(s4)
   18964:	3f0a2403          	lw	s0,1008(s4)
   18968:	0522                	slli	a0,a0,0x8
   1896a:	8d4d                	or	a0,a0,a1
   1896c:	04a91a23          	sh	a0,84(s2)
   18970:	04c90b23          	sb	a2,86(s2)
   18974:	6505                	lui	a0,0x1
   18976:	38450513          	addi	a0,a0,900 # 1384 <.Lline_table_start1+0x1159>
   1897a:	00a105b3          	add	a1,sp,a0
   1897e:	6505                	lui	a0,0x1
   18980:	32050513          	addi	a0,a0,800 # 1320 <.Lline_table_start1+0x10f5>
   18984:	950a                	add	a0,a0,sp
   18986:	04f00613          	li	a2,79
   1898a:	00002097          	auipc	ra,0x2
   1898e:	5e8080e7          	jalr	1512(ra) # 1af72 <memcpy>
   18992:	01845513          	srli	a0,s0,0x18
   18996:	01045593          	srli	a1,s0,0x10
   1899a:	00845613          	srli	a2,s0,0x8
   1899e:	04890ba3          	sb	s0,87(s2)
   189a2:	04c90c23          	sb	a2,88(s2)
   189a6:	04b90ca3          	sb	a1,89(s2)
   189aa:	04a90d23          	sb	a0,90(s2)
   189ae:	7e910513          	addi	a0,sp,2025
   189b2:	6585                	lui	a1,0x1
   189b4:	32058593          	addi	a1,a1,800 # 1320 <.Lline_table_start1+0x10f5>
   189b8:	958a                	add	a1,a1,sp
   189ba:	04f00613          	li	a2,79
   189be:	00002097          	auipc	ra,0x2
   189c2:	5b4080e7          	jalr	1460(ra) # 1af72 <memcpy>
   189c6:	6505                	lui	a0,0x1
   189c8:	37c50513          	addi	a0,a0,892 # 137c <.Lline_table_start1+0x1151>
   189cc:	950a                	add	a0,a0,sp
   189ce:	7e210593          	addi	a1,sp,2018
   189d2:	ffffa097          	auipc	ra,0xffffa
   189d6:	0aa080e7          	jalr	170(ra) # 12a7c <_ZN20complex_full_dynamic3app17h41eebe53a81ab9c1E>
   189da:	3eca4503          	lbu	a0,1004(s4)
   189de:	c119                	beqz	a0,189e4 <_start+0x1d42>
   189e0:	78b0106f          	j	1a96a <_start+0x3cc8>
   189e4:	3eea4503          	lbu	a0,1006(s4)
   189e8:	3eda4583          	lbu	a1,1005(s4)
   189ec:	3efa4603          	lbu	a2,1007(s4)
   189f0:	3f0a2403          	lw	s0,1008(s4)
   189f4:	0522                	slli	a0,a0,0x8
   189f6:	8d4d                	or	a0,a0,a1
   189f8:	0aa91523          	sh	a0,170(s2)
   189fc:	0ac90623          	sb	a2,172(s2)
   18a00:	6505                	lui	a0,0x1
   18a02:	38450513          	addi	a0,a0,900 # 1384 <.Lline_table_start1+0x1159>
   18a06:	00a105b3          	add	a1,sp,a0
   18a0a:	6505                	lui	a0,0x1
   18a0c:	32050513          	addi	a0,a0,800 # 1320 <.Lline_table_start1+0x10f5>
   18a10:	950a                	add	a0,a0,sp
   18a12:	04200613          	li	a2,66
   18a16:	00002097          	auipc	ra,0x2
   18a1a:	55c080e7          	jalr	1372(ra) # 1af72 <memcpy>
   18a1e:	01845513          	srli	a0,s0,0x18
   18a22:	01045593          	srli	a1,s0,0x10
   18a26:	00845613          	srli	a2,s0,0x8
   18a2a:	0a8906a3          	sb	s0,173(s2)
   18a2e:	0ac90723          	sb	a2,174(s2)
   18a32:	0ab907a3          	sb	a1,175(s2)
   18a36:	0aa90823          	sb	a0,176(s2)
   18a3a:	7ff10513          	addi	a0,sp,2047
   18a3e:	04050513          	addi	a0,a0,64
   18a42:	6585                	lui	a1,0x1
   18a44:	32058593          	addi	a1,a1,800 # 1320 <.Lline_table_start1+0x10f5>
   18a48:	958a                	add	a1,a1,sp
   18a4a:	04200613          	li	a2,66
   18a4e:	00002097          	auipc	ra,0x2
   18a52:	524080e7          	jalr	1316(ra) # 1af72 <memcpy>
   18a56:	6505                	lui	a0,0x1
   18a58:	37c50513          	addi	a0,a0,892 # 137c <.Lline_table_start1+0x1151>
   18a5c:	950a                	add	a0,a0,sp
   18a5e:	7ff10593          	addi	a1,sp,2047
   18a62:	03958593          	addi	a1,a1,57
   18a66:	ffffa097          	auipc	ra,0xffffa
   18a6a:	e1e080e7          	jalr	-482(ra) # 12884 <_ZN20complex_full_dynamic3app17h3a207196075d5365E>
   18a6e:	3eca4503          	lbu	a0,1004(s4)
   18a72:	c119                	beqz	a0,18a78 <_start+0x1dd6>
   18a74:	6f70106f          	j	1a96a <_start+0x3cc8>
   18a78:	3eda4503          	lbu	a0,1005(s4)
   18a7c:	3eea4583          	lbu	a1,1006(s4)
   18a80:	3efa4603          	lbu	a2,1007(s4)
   18a84:	3f0a2683          	lw	a3,1008(s4)
   18a88:	3f4a2703          	lw	a4,1012(s4)
   18a8c:	3f8a2783          	lw	a5,1016(s4)
   18a90:	3fca2483          	lw	s1,1020(s4)
   18a94:	400a2403          	lw	s0,1024(s4)
   18a98:	38ea2823          	sw	a4,912(s4)
   18a9c:	38fa2a23          	sw	a5,916(s4)
   18aa0:	389a2c23          	sw	s1,920(s4)
   18aa4:	388a2e23          	sw	s0,924(s4)
   18aa8:	404a2703          	lw	a4,1028(s4)
   18aac:	408a2783          	lw	a5,1032(s4)
   18ab0:	40ca2483          	lw	s1,1036(s4)
   18ab4:	05a2                	slli	a1,a1,0x8
   18ab6:	3aea2023          	sw	a4,928(s4)
   18aba:	3afa2223          	sw	a5,932(s4)
   18abe:	3a9a2423          	sw	s1,936(s4)
   18ac2:	0186d713          	srli	a4,a3,0x18
   18ac6:	8d4d                	or	a0,a0,a1
   18ac8:	0106d593          	srli	a1,a3,0x10
   18acc:	0eb90ca3          	sb	a1,249(s2)
   18ad0:	0ee90d23          	sb	a4,250(s2)
   18ad4:	0086d593          	srli	a1,a3,0x8
   18ad8:	0ea91a23          	sh	a0,244(s2)
   18adc:	0ec90b23          	sb	a2,246(s2)
   18ae0:	0ed90ba3          	sb	a3,247(s2)
   18ae4:	0eb90c23          	sb	a1,248(s2)
   18ae8:	7ff10513          	addi	a0,sp,2047
   18aec:	08a50513          	addi	a0,a0,138
   18af0:	6585                	lui	a1,0x1
   18af2:	32058593          	addi	a1,a1,800 # 1320 <.Lline_table_start1+0x10f5>
   18af6:	958a                	add	a1,a1,sp
   18af8:	4671                	li	a2,28
   18afa:	00002097          	auipc	ra,0x2
   18afe:	478080e7          	jalr	1144(ra) # 1af72 <memcpy>
   18b02:	6505                	lui	a0,0x1
   18b04:	37c50513          	addi	a0,a0,892 # 137c <.Lline_table_start1+0x1151>
   18b08:	950a                	add	a0,a0,sp
   18b0a:	7ff10593          	addi	a1,sp,2047
   18b0e:	08358593          	addi	a1,a1,131
   18b12:	ffffb097          	auipc	ra,0xffffb
   18b16:	6ce080e7          	jalr	1742(ra) # 141e0 <_ZN20complex_full_dynamic3app17h801c5cde0de093a4E>
   18b1a:	3eca4503          	lbu	a0,1004(s4)
   18b1e:	c119                	beqz	a0,18b24 <_start+0x1e82>
   18b20:	64b0106f          	j	1a96a <_start+0x3cc8>
   18b24:	3eea4503          	lbu	a0,1006(s4)
   18b28:	3eda4583          	lbu	a1,1005(s4)
   18b2c:	3efa4603          	lbu	a2,1007(s4)
   18b30:	3f0a2403          	lw	s0,1008(s4)
   18b34:	0522                	slli	a0,a0,0x8
   18b36:	8d4d                	or	a0,a0,a1
   18b38:	10a91c23          	sh	a0,280(s2)
   18b3c:	10c90d23          	sb	a2,282(s2)
   18b40:	6505                	lui	a0,0x1
   18b42:	38450513          	addi	a0,a0,900 # 1384 <.Lline_table_start1+0x1159>
   18b46:	00a105b3          	add	a1,sp,a0
   18b4a:	6505                	lui	a0,0x1
   18b4c:	32050513          	addi	a0,a0,800 # 1320 <.Lline_table_start1+0x10f5>
   18b50:	950a                	add	a0,a0,sp
   18b52:	02400613          	li	a2,36
   18b56:	00002097          	auipc	ra,0x2
   18b5a:	41c080e7          	jalr	1052(ra) # 1af72 <memcpy>
   18b5e:	01845513          	srli	a0,s0,0x18
   18b62:	01045593          	srli	a1,s0,0x10
   18b66:	00845613          	srli	a2,s0,0x8
   18b6a:	10890da3          	sb	s0,283(s2)
   18b6e:	10c90e23          	sb	a2,284(s2)
   18b72:	10b90ea3          	sb	a1,285(s2)
   18b76:	10a90f23          	sb	a0,286(s2)
   18b7a:	7ff10513          	addi	a0,sp,2047
   18b7e:	0ae50513          	addi	a0,a0,174
   18b82:	6585                	lui	a1,0x1
   18b84:	32058593          	addi	a1,a1,800 # 1320 <.Lline_table_start1+0x10f5>
   18b88:	958a                	add	a1,a1,sp
   18b8a:	02400613          	li	a2,36
   18b8e:	00002097          	auipc	ra,0x2
   18b92:	3e4080e7          	jalr	996(ra) # 1af72 <memcpy>
   18b96:	6505                	lui	a0,0x1
   18b98:	37c50513          	addi	a0,a0,892 # 137c <.Lline_table_start1+0x1151>
   18b9c:	950a                	add	a0,a0,sp
   18b9e:	7ff10593          	addi	a1,sp,2047
   18ba2:	0a758593          	addi	a1,a1,167
   18ba6:	ffffb097          	auipc	ra,0xffffb
   18baa:	996080e7          	jalr	-1642(ra) # 1353c <_ZN20complex_full_dynamic3app17h663608b1da8046a4E>
   18bae:	3eca4503          	lbu	a0,1004(s4)
   18bb2:	c119                	beqz	a0,18bb8 <_start+0x1f16>
   18bb4:	5b70106f          	j	1a96a <_start+0x3cc8>
   18bb8:	3eda4503          	lbu	a0,1005(s4)
   18bbc:	3eea4583          	lbu	a1,1006(s4)
   18bc0:	3f4a2603          	lw	a2,1012(s4)
   18bc4:	3f8a1683          	lh	a3,1016(s4)
   18bc8:	3efa4703          	lbu	a4,1007(s4)
   18bcc:	3f0a2783          	lw	a5,1008(s4)
   18bd0:	05a2                	slli	a1,a1,0x8
   18bd2:	38ca2823          	sw	a2,912(s4)
   18bd6:	38da1a23          	sh	a3,916(s4)
   18bda:	0187d693          	srli	a3,a5,0x18
   18bde:	0107d493          	srli	s1,a5,0x10
   18be2:	8d4d                	or	a0,a0,a1
   18be4:	0087d593          	srli	a1,a5,0x8
   18be8:	14a91223          	sh	a0,324(s2)
   18bec:	14e90323          	sb	a4,326(s2)
   18bf0:	14f903a3          	sb	a5,327(s2)
   18bf4:	14b90423          	sb	a1,328(s2)
   18bf8:	391a4503          	lbu	a0,913(s4)
   18bfc:	392a4583          	lbu	a1,914(s4)
   18c00:	393a4703          	lbu	a4,915(s4)
   18c04:	394a4783          	lbu	a5,916(s4)
   18c08:	149904a3          	sb	s1,329(s2)
   18c0c:	14d90523          	sb	a3,330(s2)
   18c10:	14c905a3          	sb	a2,331(s2)
   18c14:	14a90623          	sb	a0,332(s2)
   18c18:	395a4503          	lbu	a0,917(s4)
   18c1c:	14b906a3          	sb	a1,333(s2)
   18c20:	14e90723          	sb	a4,334(s2)
   18c24:	14f907a3          	sb	a5,335(s2)
   18c28:	14a90823          	sb	a0,336(s2)
   18c2c:	6505                	lui	a0,0x1
   18c2e:	37c50513          	addi	a0,a0,892 # 137c <.Lline_table_start1+0x1151>
   18c32:	950a                	add	a0,a0,sp
   18c34:	7ff10593          	addi	a1,sp,2047
   18c38:	0d358593          	addi	a1,a1,211
   18c3c:	ffffc097          	auipc	ra,0xffffc
   18c40:	722080e7          	jalr	1826(ra) # 1535e <_ZN20complex_full_dynamic3app17hb588d360c63fe67cE>
   18c44:	3eca4503          	lbu	a0,1004(s4)
   18c48:	c119                	beqz	a0,18c4e <_start+0x1fac>
   18c4a:	5210106f          	j	1a96a <_start+0x3cc8>
   18c4e:	3eda4503          	lbu	a0,1005(s4)
   18c52:	3eea4583          	lbu	a1,1006(s4)
   18c56:	3efa4603          	lbu	a2,1007(s4)
   18c5a:	3f0a2683          	lw	a3,1008(s4)
   18c5e:	3f4a2703          	lw	a4,1012(s4)
   18c62:	3f8a2783          	lw	a5,1016(s4)
   18c66:	3fca2483          	lw	s1,1020(s4)
   18c6a:	400a2403          	lw	s0,1024(s4)
   18c6e:	38ea2823          	sw	a4,912(s4)
   18c72:	38fa2a23          	sw	a5,916(s4)
   18c76:	389a2c23          	sw	s1,920(s4)
   18c7a:	388a2e23          	sw	s0,924(s4)
   18c7e:	404a2703          	lw	a4,1028(s4)
   18c82:	408a2783          	lw	a5,1032(s4)
   18c86:	40ca1483          	lh	s1,1036(s4)
   18c8a:	05a2                	slli	a1,a1,0x8
   18c8c:	3aea2023          	sw	a4,928(s4)
   18c90:	3afa2223          	sw	a5,932(s4)
   18c94:	3a9a1423          	sh	s1,936(s4)
   18c98:	0186d713          	srli	a4,a3,0x18
   18c9c:	8d4d                	or	a0,a0,a1
   18c9e:	0106d593          	srli	a1,a3,0x10
   18ca2:	14b90ba3          	sb	a1,343(s2)
   18ca6:	14e90c23          	sb	a4,344(s2)
   18caa:	0086d593          	srli	a1,a3,0x8
   18cae:	14a91923          	sh	a0,338(s2)
   18cb2:	14c90a23          	sb	a2,340(s2)
   18cb6:	14d90aa3          	sb	a3,341(s2)
   18cba:	14b90b23          	sb	a1,342(s2)
   18cbe:	7ff10513          	addi	a0,sp,2047
   18cc2:	0e850513          	addi	a0,a0,232
   18cc6:	6585                	lui	a1,0x1
   18cc8:	32058593          	addi	a1,a1,800 # 1320 <.Lline_table_start1+0x10f5>
   18ccc:	958a                	add	a1,a1,sp
   18cce:	4669                	li	a2,26
   18cd0:	00002097          	auipc	ra,0x2
   18cd4:	2a2080e7          	jalr	674(ra) # 1af72 <memcpy>
   18cd8:	6505                	lui	a0,0x1
   18cda:	37c50513          	addi	a0,a0,892 # 137c <.Lline_table_start1+0x1151>
   18cde:	950a                	add	a0,a0,sp
   18ce0:	7ff10593          	addi	a1,sp,2047
   18ce4:	0e158593          	addi	a1,a1,225
   18ce8:	ffffb097          	auipc	ra,0xffffb
   18cec:	e24080e7          	jalr	-476(ra) # 13b0c <_ZN20complex_full_dynamic3app17h71ee51ef90915b43E>
   18cf0:	3eca4503          	lbu	a0,1004(s4)
   18cf4:	c119                	beqz	a0,18cfa <_start+0x2058>
   18cf6:	4750106f          	j	1a96a <_start+0x3cc8>
   18cfa:	3eea4503          	lbu	a0,1006(s4)
   18cfe:	3eda4583          	lbu	a1,1005(s4)
   18d02:	3efa4603          	lbu	a2,1007(s4)
   18d06:	3f0a2403          	lw	s0,1008(s4)
   18d0a:	0522                	slli	a0,a0,0x8
   18d0c:	8d4d                	or	a0,a0,a1
   18d0e:	16a91a23          	sh	a0,372(s2)
   18d12:	16c90b23          	sb	a2,374(s2)
   18d16:	6505                	lui	a0,0x1
   18d18:	38450513          	addi	a0,a0,900 # 1384 <.Lline_table_start1+0x1159>
   18d1c:	00a105b3          	add	a1,sp,a0
   18d20:	6505                	lui	a0,0x1
   18d22:	32050513          	addi	a0,a0,800 # 1320 <.Lline_table_start1+0x10f5>
   18d26:	950a                	add	a0,a0,sp
   18d28:	04c00613          	li	a2,76
   18d2c:	00002097          	auipc	ra,0x2
   18d30:	246080e7          	jalr	582(ra) # 1af72 <memcpy>
   18d34:	01845513          	srli	a0,s0,0x18
   18d38:	01045593          	srli	a1,s0,0x10
   18d3c:	00845613          	srli	a2,s0,0x8
   18d40:	16890ba3          	sb	s0,375(s2)
   18d44:	16c90c23          	sb	a2,376(s2)
   18d48:	16b90ca3          	sb	a1,377(s2)
   18d4c:	16a90d23          	sb	a0,378(s2)
   18d50:	7ff10513          	addi	a0,sp,2047
   18d54:	10a50513          	addi	a0,a0,266
   18d58:	6585                	lui	a1,0x1
   18d5a:	32058593          	addi	a1,a1,800 # 1320 <.Lline_table_start1+0x10f5>
   18d5e:	958a                	add	a1,a1,sp
   18d60:	04c00613          	li	a2,76
   18d64:	00002097          	auipc	ra,0x2
   18d68:	20e080e7          	jalr	526(ra) # 1af72 <memcpy>
   18d6c:	6505                	lui	a0,0x1
   18d6e:	37c50513          	addi	a0,a0,892 # 137c <.Lline_table_start1+0x1151>
   18d72:	950a                	add	a0,a0,sp
   18d74:	7ff10593          	addi	a1,sp,2047
   18d78:	10358593          	addi	a1,a1,259
   18d7c:	ffffa097          	auipc	ra,0xffffa
   18d80:	c04080e7          	jalr	-1020(ra) # 12980 <_ZN20complex_full_dynamic3app17h3aa7d5176f8b8ec8E>
   18d84:	3eca4503          	lbu	a0,1004(s4)
   18d88:	c119                	beqz	a0,18d8e <_start+0x20ec>
   18d8a:	3e10106f          	j	1a96a <_start+0x3cc8>
   18d8e:	3eea4503          	lbu	a0,1006(s4)
   18d92:	3eda4583          	lbu	a1,1005(s4)
   18d96:	3efa4603          	lbu	a2,1007(s4)
   18d9a:	3f0a2403          	lw	s0,1008(s4)
   18d9e:	0522                	slli	a0,a0,0x8
   18da0:	8d4d                	or	a0,a0,a1
   18da2:	1ca91423          	sh	a0,456(s2)
   18da6:	1cc90523          	sb	a2,458(s2)
   18daa:	6505                	lui	a0,0x1
   18dac:	38450513          	addi	a0,a0,900 # 1384 <.Lline_table_start1+0x1159>
   18db0:	00a105b3          	add	a1,sp,a0
   18db4:	6505                	lui	a0,0x1
   18db6:	32050513          	addi	a0,a0,800 # 1320 <.Lline_table_start1+0x10f5>
   18dba:	950a                	add	a0,a0,sp
   18dbc:	04600613          	li	a2,70
   18dc0:	00002097          	auipc	ra,0x2
   18dc4:	1b2080e7          	jalr	434(ra) # 1af72 <memcpy>
   18dc8:	01845513          	srli	a0,s0,0x18
   18dcc:	01045593          	srli	a1,s0,0x10
   18dd0:	00845613          	srli	a2,s0,0x8
   18dd4:	1c8905a3          	sb	s0,459(s2)
   18dd8:	1cc90623          	sb	a2,460(s2)
   18ddc:	1cb906a3          	sb	a1,461(s2)
   18de0:	1ca90723          	sb	a0,462(s2)
   18de4:	7ff10513          	addi	a0,sp,2047
   18de8:	15e50513          	addi	a0,a0,350
   18dec:	6585                	lui	a1,0x1
   18dee:	32058593          	addi	a1,a1,800 # 1320 <.Lline_table_start1+0x10f5>
   18df2:	958a                	add	a1,a1,sp
   18df4:	04600613          	li	a2,70
   18df8:	00002097          	auipc	ra,0x2
   18dfc:	17a080e7          	jalr	378(ra) # 1af72 <memcpy>
   18e00:	6505                	lui	a0,0x1
   18e02:	37c50513          	addi	a0,a0,892 # 137c <.Lline_table_start1+0x1151>
   18e06:	950a                	add	a0,a0,sp
   18e08:	7ff10593          	addi	a1,sp,2047
   18e0c:	15758593          	addi	a1,a1,343
   18e10:	ffffb097          	auipc	ra,0xffffb
   18e14:	5bc080e7          	jalr	1468(ra) # 143cc <_ZN20complex_full_dynamic3app17h8698e4e7a4c10cc2E>
   18e18:	3eca4503          	lbu	a0,1004(s4)
   18e1c:	c119                	beqz	a0,18e22 <_start+0x2180>
   18e1e:	34d0106f          	j	1a96a <_start+0x3cc8>
   18e22:	3eea4503          	lbu	a0,1006(s4)
   18e26:	3eda4583          	lbu	a1,1005(s4)
   18e2a:	3efa4603          	lbu	a2,1007(s4)
   18e2e:	3f0a2403          	lw	s0,1008(s4)
   18e32:	0522                	slli	a0,a0,0x8
   18e34:	8d4d                	or	a0,a0,a1
   18e36:	20a91b23          	sh	a0,534(s2)
   18e3a:	20c90c23          	sb	a2,536(s2)
   18e3e:	6505                	lui	a0,0x1
   18e40:	38450513          	addi	a0,a0,900 # 1384 <.Lline_table_start1+0x1159>
   18e44:	00a105b3          	add	a1,sp,a0
   18e48:	6505                	lui	a0,0x1
   18e4a:	32050513          	addi	a0,a0,800 # 1320 <.Lline_table_start1+0x10f5>
   18e4e:	950a                	add	a0,a0,sp
   18e50:	03500613          	li	a2,53
   18e54:	00002097          	auipc	ra,0x2
   18e58:	11e080e7          	jalr	286(ra) # 1af72 <memcpy>
   18e5c:	01845513          	srli	a0,s0,0x18
   18e60:	01045593          	srli	a1,s0,0x10
   18e64:	00845613          	srli	a2,s0,0x8
   18e68:	20890ca3          	sb	s0,537(s2)
   18e6c:	20c90d23          	sb	a2,538(s2)
   18e70:	20b90da3          	sb	a1,539(s2)
   18e74:	20a90e23          	sb	a0,540(s2)
   18e78:	7ff10513          	addi	a0,sp,2047
   18e7c:	1ac50513          	addi	a0,a0,428
   18e80:	6585                	lui	a1,0x1
   18e82:	32058593          	addi	a1,a1,800 # 1320 <.Lline_table_start1+0x10f5>
   18e86:	958a                	add	a1,a1,sp
   18e88:	03500613          	li	a2,53
   18e8c:	00002097          	auipc	ra,0x2
   18e90:	0e6080e7          	jalr	230(ra) # 1af72 <memcpy>
   18e94:	6505                	lui	a0,0x1
   18e96:	37c50513          	addi	a0,a0,892 # 137c <.Lline_table_start1+0x1151>
   18e9a:	950a                	add	a0,a0,sp
   18e9c:	7ff10593          	addi	a1,sp,2047
   18ea0:	1a558593          	addi	a1,a1,421
   18ea4:	ffff8097          	auipc	ra,0xffff8
   18ea8:	480080e7          	jalr	1152(ra) # 11324 <_ZN20complex_full_dynamic3app17h0779741d898456b9E>
   18eac:	3eca4503          	lbu	a0,1004(s4)
   18eb0:	c119                	beqz	a0,18eb6 <_start+0x2214>
   18eb2:	2b90106f          	j	1a96a <_start+0x3cc8>
   18eb6:	3eea4503          	lbu	a0,1006(s4)
   18eba:	3eda4583          	lbu	a1,1005(s4)
   18ebe:	3efa4603          	lbu	a2,1007(s4)
   18ec2:	3f0a2403          	lw	s0,1008(s4)
   18ec6:	0522                	slli	a0,a0,0x8
   18ec8:	8d4d                	or	a0,a0,a1
   18eca:	24a91923          	sh	a0,594(s2)
   18ece:	24c90a23          	sb	a2,596(s2)
   18ed2:	6505                	lui	a0,0x1
   18ed4:	38450513          	addi	a0,a0,900 # 1384 <.Lline_table_start1+0x1159>
   18ed8:	00a105b3          	add	a1,sp,a0
   18edc:	6505                	lui	a0,0x1
   18ede:	32050513          	addi	a0,a0,800 # 1320 <.Lline_table_start1+0x10f5>
   18ee2:	950a                	add	a0,a0,sp
   18ee4:	03100613          	li	a2,49
   18ee8:	00002097          	auipc	ra,0x2
   18eec:	08a080e7          	jalr	138(ra) # 1af72 <memcpy>
   18ef0:	01845513          	srli	a0,s0,0x18
   18ef4:	01045593          	srli	a1,s0,0x10
   18ef8:	00845613          	srli	a2,s0,0x8
   18efc:	24890aa3          	sb	s0,597(s2)
   18f00:	24c90b23          	sb	a2,598(s2)
   18f04:	24b90ba3          	sb	a1,599(s2)
   18f08:	24a90c23          	sb	a0,600(s2)
   18f0c:	7ff10513          	addi	a0,sp,2047
   18f10:	1e850513          	addi	a0,a0,488
   18f14:	6585                	lui	a1,0x1
   18f16:	32058593          	addi	a1,a1,800 # 1320 <.Lline_table_start1+0x10f5>
   18f1a:	958a                	add	a1,a1,sp
   18f1c:	03100613          	li	a2,49
   18f20:	00002097          	auipc	ra,0x2
   18f24:	052080e7          	jalr	82(ra) # 1af72 <memcpy>
   18f28:	6505                	lui	a0,0x1
   18f2a:	37c50513          	addi	a0,a0,892 # 137c <.Lline_table_start1+0x1151>
   18f2e:	950a                	add	a0,a0,sp
   18f30:	7ff10593          	addi	a1,sp,2047
   18f34:	1e158593          	addi	a1,a1,481
   18f38:	ffffd097          	auipc	ra,0xffffd
   18f3c:	790080e7          	jalr	1936(ra) # 166c8 <_ZN20complex_full_dynamic3app17hf55fd2d9c3cc8ce3E>
   18f40:	3eca4503          	lbu	a0,1004(s4)
   18f44:	c119                	beqz	a0,18f4a <_start+0x22a8>
   18f46:	2250106f          	j	1a96a <_start+0x3cc8>
   18f4a:	3eda4503          	lbu	a0,1005(s4)
   18f4e:	3eea4583          	lbu	a1,1006(s4)
   18f52:	3efa4603          	lbu	a2,1007(s4)
   18f56:	3f0a2683          	lw	a3,1008(s4)
   18f5a:	3f4a2703          	lw	a4,1012(s4)
   18f5e:	3f8a2783          	lw	a5,1016(s4)
   18f62:	3fca2483          	lw	s1,1020(s4)
   18f66:	400a2403          	lw	s0,1024(s4)
   18f6a:	38ea2823          	sw	a4,912(s4)
   18f6e:	38fa2a23          	sw	a5,916(s4)
   18f72:	389a2c23          	sw	s1,920(s4)
   18f76:	388a2e23          	sw	s0,924(s4)
   18f7a:	404a2703          	lw	a4,1028(s4)
   18f7e:	408a2783          	lw	a5,1032(s4)
   18f82:	40ca2483          	lw	s1,1036(s4)
   18f86:	410a2403          	lw	s0,1040(s4)
   18f8a:	05a2                	slli	a1,a1,0x8
   18f8c:	3aea2023          	sw	a4,928(s4)
   18f90:	3afa2223          	sw	a5,932(s4)
   18f94:	3a9a2423          	sw	s1,936(s4)
   18f98:	3a8a2623          	sw	s0,940(s4)
   18f9c:	0186d713          	srli	a4,a3,0x18
   18fa0:	8d4d                	or	a0,a0,a1
   18fa2:	0106d593          	srli	a1,a3,0x10
   18fa6:	28b907a3          	sb	a1,655(s2)
   18faa:	28e90823          	sb	a4,656(s2)
   18fae:	0086d593          	srli	a1,a3,0x8
   18fb2:	28a91523          	sh	a0,650(s2)
   18fb6:	28c90623          	sb	a2,652(s2)
   18fba:	28d906a3          	sb	a3,653(s2)
   18fbe:	28b90723          	sb	a1,654(s2)
   18fc2:	7ff10513          	addi	a0,sp,2047
   18fc6:	22050513          	addi	a0,a0,544
   18fca:	6585                	lui	a1,0x1
   18fcc:	32058593          	addi	a1,a1,800 # 1320 <.Lline_table_start1+0x10f5>
   18fd0:	958a                	add	a1,a1,sp
   18fd2:	02000613          	li	a2,32
   18fd6:	00002097          	auipc	ra,0x2
   18fda:	f9c080e7          	jalr	-100(ra) # 1af72 <memcpy>
   18fde:	6505                	lui	a0,0x1
   18fe0:	37c50513          	addi	a0,a0,892 # 137c <.Lline_table_start1+0x1151>
   18fe4:	950a                	add	a0,a0,sp
   18fe6:	7ff10593          	addi	a1,sp,2047
   18fea:	21958593          	addi	a1,a1,537
   18fee:	ffffc097          	auipc	ra,0xffffc
   18ff2:	ab4080e7          	jalr	-1356(ra) # 14aa2 <_ZN20complex_full_dynamic3app17h9ed6843b01ed39acE>
   18ff6:	3eca4503          	lbu	a0,1004(s4)
   18ffa:	c119                	beqz	a0,19000 <_start+0x235e>
   18ffc:	16f0106f          	j	1a96a <_start+0x3cc8>
   19000:	3eea4503          	lbu	a0,1006(s4)
   19004:	3eda4583          	lbu	a1,1005(s4)
   19008:	3efa4603          	lbu	a2,1007(s4)
   1900c:	3f0a2403          	lw	s0,1008(s4)
   19010:	0522                	slli	a0,a0,0x8
   19012:	8d4d                	or	a0,a0,a1
   19014:	2aa91923          	sh	a0,690(s2)
   19018:	2ac90a23          	sb	a2,692(s2)
   1901c:	6505                	lui	a0,0x1
   1901e:	38450513          	addi	a0,a0,900 # 1384 <.Lline_table_start1+0x1159>
   19022:	00a105b3          	add	a1,sp,a0
   19026:	6505                	lui	a0,0x1
   19028:	32050513          	addi	a0,a0,800 # 1320 <.Lline_table_start1+0x10f5>
   1902c:	950a                	add	a0,a0,sp
   1902e:	04a00613          	li	a2,74
   19032:	00002097          	auipc	ra,0x2
   19036:	f40080e7          	jalr	-192(ra) # 1af72 <memcpy>
   1903a:	01845513          	srli	a0,s0,0x18
   1903e:	01045593          	srli	a1,s0,0x10
   19042:	00845613          	srli	a2,s0,0x8
   19046:	2a890aa3          	sb	s0,693(s2)
   1904a:	2ac90b23          	sb	a2,694(s2)
   1904e:	2ab90ba3          	sb	a1,695(s2)
   19052:	2aa90c23          	sb	a0,696(s2)
   19056:	7ff10513          	addi	a0,sp,2047
   1905a:	24850513          	addi	a0,a0,584
   1905e:	6585                	lui	a1,0x1
   19060:	32058593          	addi	a1,a1,800 # 1320 <.Lline_table_start1+0x10f5>
   19064:	958a                	add	a1,a1,sp
   19066:	04a00613          	li	a2,74
   1906a:	00002097          	auipc	ra,0x2
   1906e:	f08080e7          	jalr	-248(ra) # 1af72 <memcpy>
   19072:	6505                	lui	a0,0x1
   19074:	37c50513          	addi	a0,a0,892 # 137c <.Lline_table_start1+0x1151>
   19078:	950a                	add	a0,a0,sp
   1907a:	7ff10593          	addi	a1,sp,2047
   1907e:	24158593          	addi	a1,a1,577
   19082:	ffffd097          	auipc	ra,0xffffd
   19086:	456080e7          	jalr	1110(ra) # 164d8 <_ZN20complex_full_dynamic3app17hee9e5fda240fa764E>
   1908a:	3eca4503          	lbu	a0,1004(s4)
   1908e:	c119                	beqz	a0,19094 <_start+0x23f2>
   19090:	0db0106f          	j	1a96a <_start+0x3cc8>
   19094:	3eea4503          	lbu	a0,1006(s4)
   19098:	3eda4583          	lbu	a1,1005(s4)
   1909c:	3efa4603          	lbu	a2,1007(s4)
   190a0:	3f0a2403          	lw	s0,1008(s4)
   190a4:	0522                	slli	a0,a0,0x8
   190a6:	8d4d                	or	a0,a0,a1
   190a8:	30a91223          	sh	a0,772(s2)
   190ac:	30c90323          	sb	a2,774(s2)
   190b0:	6505                	lui	a0,0x1
   190b2:	38450513          	addi	a0,a0,900 # 1384 <.Lline_table_start1+0x1159>
   190b6:	00a105b3          	add	a1,sp,a0
   190ba:	6505                	lui	a0,0x1
   190bc:	32050513          	addi	a0,a0,800 # 1320 <.Lline_table_start1+0x10f5>
   190c0:	950a                	add	a0,a0,sp
   190c2:	04800613          	li	a2,72
   190c6:	00002097          	auipc	ra,0x2
   190ca:	eac080e7          	jalr	-340(ra) # 1af72 <memcpy>
   190ce:	01845513          	srli	a0,s0,0x18
   190d2:	01045593          	srli	a1,s0,0x10
   190d6:	00845613          	srli	a2,s0,0x8
   190da:	308903a3          	sb	s0,775(s2)
   190de:	30c90423          	sb	a2,776(s2)
   190e2:	30b904a3          	sb	a1,777(s2)
   190e6:	30a90523          	sb	a0,778(s2)
   190ea:	7ff10513          	addi	a0,sp,2047
   190ee:	29a50513          	addi	a0,a0,666
   190f2:	6585                	lui	a1,0x1
   190f4:	32058593          	addi	a1,a1,800 # 1320 <.Lline_table_start1+0x10f5>
   190f8:	958a                	add	a1,a1,sp
   190fa:	04800613          	li	a2,72
   190fe:	00002097          	auipc	ra,0x2
   19102:	e74080e7          	jalr	-396(ra) # 1af72 <memcpy>
   19106:	6505                	lui	a0,0x1
   19108:	37c50513          	addi	a0,a0,892 # 137c <.Lline_table_start1+0x1151>
   1910c:	950a                	add	a0,a0,sp
   1910e:	7ff10593          	addi	a1,sp,2047
   19112:	29358593          	addi	a1,a1,659
   19116:	ffffb097          	auipc	ra,0xffffb
   1911a:	fcc080e7          	jalr	-52(ra) # 140e2 <_ZN20complex_full_dynamic3app17h7cfbe845dc8c8b21E>
   1911e:	3eca4503          	lbu	a0,1004(s4)
   19122:	c119                	beqz	a0,19128 <_start+0x2486>
   19124:	0470106f          	j	1a96a <_start+0x3cc8>
   19128:	3eea4503          	lbu	a0,1006(s4)
   1912c:	3eda4583          	lbu	a1,1005(s4)
   19130:	3efa4603          	lbu	a2,1007(s4)
   19134:	3f0a2403          	lw	s0,1008(s4)
   19138:	0522                	slli	a0,a0,0x8
   1913a:	8d4d                	or	a0,a0,a1
   1913c:	34a91a23          	sh	a0,852(s2)
   19140:	34c90b23          	sb	a2,854(s2)
   19144:	6505                	lui	a0,0x1
   19146:	38450513          	addi	a0,a0,900 # 1384 <.Lline_table_start1+0x1159>
   1914a:	00a105b3          	add	a1,sp,a0
   1914e:	6505                	lui	a0,0x1
   19150:	32050513          	addi	a0,a0,800 # 1320 <.Lline_table_start1+0x10f5>
   19154:	950a                	add	a0,a0,sp
   19156:	05a00613          	li	a2,90
   1915a:	00002097          	auipc	ra,0x2
   1915e:	e18080e7          	jalr	-488(ra) # 1af72 <memcpy>
   19162:	01845513          	srli	a0,s0,0x18
   19166:	01045593          	srli	a1,s0,0x10
   1916a:	00845613          	srli	a2,s0,0x8
   1916e:	34890ba3          	sb	s0,855(s2)
   19172:	34c90c23          	sb	a2,856(s2)
   19176:	34b90ca3          	sb	a1,857(s2)
   1917a:	34a90d23          	sb	a0,858(s2)
   1917e:	7ff10513          	addi	a0,sp,2047
   19182:	2ea50513          	addi	a0,a0,746
   19186:	6585                	lui	a1,0x1
   19188:	32058593          	addi	a1,a1,800 # 1320 <.Lline_table_start1+0x10f5>
   1918c:	958a                	add	a1,a1,sp
   1918e:	05a00613          	li	a2,90
   19192:	00002097          	auipc	ra,0x2
   19196:	de0080e7          	jalr	-544(ra) # 1af72 <memcpy>
   1919a:	6505                	lui	a0,0x1
   1919c:	37c50513          	addi	a0,a0,892 # 137c <.Lline_table_start1+0x1151>
   191a0:	950a                	add	a0,a0,sp
   191a2:	7ff10593          	addi	a1,sp,2047
   191a6:	2e358593          	addi	a1,a1,739
   191aa:	ffffa097          	auipc	ra,0xffffa
   191ae:	bc4080e7          	jalr	-1084(ra) # 12d6e <_ZN20complex_full_dynamic3app17h4c97096e31d208f7E>
   191b2:	3eca4503          	lbu	a0,1004(s4)
   191b6:	c119                	beqz	a0,191bc <_start+0x251a>
   191b8:	7b20106f          	j	1a96a <_start+0x3cc8>
   191bc:	3eda4503          	lbu	a0,1005(s4)
   191c0:	3eea4583          	lbu	a1,1006(s4)
   191c4:	3efa4603          	lbu	a2,1007(s4)
   191c8:	3f0a2683          	lw	a3,1008(s4)
   191cc:	3f4a2703          	lw	a4,1012(s4)
   191d0:	3f8a2783          	lw	a5,1016(s4)
   191d4:	3fca2483          	lw	s1,1020(s4)
   191d8:	400a2403          	lw	s0,1024(s4)
   191dc:	38ea2823          	sw	a4,912(s4)
   191e0:	38fa2a23          	sw	a5,916(s4)
   191e4:	389a2c23          	sw	s1,920(s4)
   191e8:	388a2e23          	sw	s0,924(s4)
   191ec:	404a2703          	lw	a4,1028(s4)
   191f0:	408a1783          	lh	a5,1032(s4)
   191f4:	40aa4483          	lbu	s1,1034(s4)
   191f8:	05a2                	slli	a1,a1,0x8
   191fa:	3aea2023          	sw	a4,928(s4)
   191fe:	3afa1223          	sh	a5,932(s4)
   19202:	3a9a0323          	sb	s1,934(s4)
   19206:	0186d713          	srli	a4,a3,0x18
   1920a:	8d4d                	or	a0,a0,a1
   1920c:	0106d593          	srli	a1,a3,0x10
   19210:	3ab90da3          	sb	a1,955(s2)
   19214:	3ae90e23          	sb	a4,956(s2)
   19218:	0086d593          	srli	a1,a3,0x8
   1921c:	3aa91b23          	sh	a0,950(s2)
   19220:	3ac90c23          	sb	a2,952(s2)
   19224:	3ad90ca3          	sb	a3,953(s2)
   19228:	3ab90d23          	sb	a1,954(s2)
   1922c:	7ff10513          	addi	a0,sp,2047
   19230:	34c50513          	addi	a0,a0,844
   19234:	6585                	lui	a1,0x1
   19236:	32058593          	addi	a1,a1,800 # 1320 <.Lline_table_start1+0x10f5>
   1923a:	958a                	add	a1,a1,sp
   1923c:	465d                	li	a2,23
   1923e:	00002097          	auipc	ra,0x2
   19242:	d34080e7          	jalr	-716(ra) # 1af72 <memcpy>
   19246:	6505                	lui	a0,0x1
   19248:	37c50513          	addi	a0,a0,892 # 137c <.Lline_table_start1+0x1151>
   1924c:	950a                	add	a0,a0,sp
   1924e:	7ff10593          	addi	a1,sp,2047
   19252:	34558593          	addi	a1,a1,837
   19256:	ffffc097          	auipc	ra,0xffffc
   1925a:	3f0080e7          	jalr	1008(ra) # 15646 <_ZN20complex_full_dynamic3app17hc5bcbe742c077244E>
   1925e:	3eca4503          	lbu	a0,1004(s4)
   19262:	c119                	beqz	a0,19268 <_start+0x25c6>
   19264:	7060106f          	j	1a96a <_start+0x3cc8>
   19268:	3eda4503          	lbu	a0,1005(s4)
   1926c:	3eea4583          	lbu	a1,1006(s4)
   19270:	3efa4603          	lbu	a2,1007(s4)
   19274:	3f0a2683          	lw	a3,1008(s4)
   19278:	3f4a2703          	lw	a4,1012(s4)
   1927c:	3f8a2783          	lw	a5,1016(s4)
   19280:	3fca2483          	lw	s1,1020(s4)
   19284:	400a2403          	lw	s0,1024(s4)
   19288:	38ea2823          	sw	a4,912(s4)
   1928c:	38fa2a23          	sw	a5,916(s4)
   19290:	389a2c23          	sw	s1,920(s4)
   19294:	388a2e23          	sw	s0,924(s4)
   19298:	404a2703          	lw	a4,1028(s4)
   1929c:	408a2783          	lw	a5,1032(s4)
   192a0:	40ca1483          	lh	s1,1036(s4)
   192a4:	05a2                	slli	a1,a1,0x8
   192a6:	3aea2023          	sw	a4,928(s4)
   192aa:	3afa2223          	sw	a5,932(s4)
   192ae:	3a9a1423          	sh	s1,936(s4)
   192b2:	0186d713          	srli	a4,a3,0x18
   192b6:	8d4d                	or	a0,a0,a1
   192b8:	0106d593          	srli	a1,a3,0x10
   192bc:	3cb90ca3          	sb	a1,985(s2)
   192c0:	3ce90d23          	sb	a4,986(s2)
   192c4:	0086d593          	srli	a1,a3,0x8
   192c8:	3ca91a23          	sh	a0,980(s2)
   192cc:	3cc90b23          	sb	a2,982(s2)
   192d0:	3cd90ba3          	sb	a3,983(s2)
   192d4:	3cb90c23          	sb	a1,984(s2)
   192d8:	7ff10513          	addi	a0,sp,2047
   192dc:	36a50513          	addi	a0,a0,874
   192e0:	6585                	lui	a1,0x1
   192e2:	32058593          	addi	a1,a1,800 # 1320 <.Lline_table_start1+0x10f5>
   192e6:	958a                	add	a1,a1,sp
   192e8:	4669                	li	a2,26
   192ea:	00002097          	auipc	ra,0x2
   192ee:	c88080e7          	jalr	-888(ra) # 1af72 <memcpy>
   192f2:	6505                	lui	a0,0x1
   192f4:	37c50513          	addi	a0,a0,892 # 137c <.Lline_table_start1+0x1151>
   192f8:	950a                	add	a0,a0,sp
   192fa:	7ff10593          	addi	a1,sp,2047
   192fe:	36358593          	addi	a1,a1,867
   19302:	ffffd097          	auipc	ra,0xffffd
   19306:	81c080e7          	jalr	-2020(ra) # 15b1e <_ZN20complex_full_dynamic3app17hceceafce902a8a9cE>
   1930a:	3eca4503          	lbu	a0,1004(s4)
   1930e:	c119                	beqz	a0,19314 <_start+0x2672>
   19310:	65a0106f          	j	1a96a <_start+0x3cc8>
   19314:	3eea4503          	lbu	a0,1006(s4)
   19318:	3eda4583          	lbu	a1,1005(s4)
   1931c:	3efa4603          	lbu	a2,1007(s4)
   19320:	3f0a2403          	lw	s0,1008(s4)
   19324:	0522                	slli	a0,a0,0x8
   19326:	8d4d                	or	a0,a0,a1
   19328:	3ea91b23          	sh	a0,1014(s2)
   1932c:	3ec90c23          	sb	a2,1016(s2)
   19330:	6505                	lui	a0,0x1
   19332:	38450513          	addi	a0,a0,900 # 1384 <.Lline_table_start1+0x1159>
   19336:	00a105b3          	add	a1,sp,a0
   1933a:	6505                	lui	a0,0x1
   1933c:	32050513          	addi	a0,a0,800 # 1320 <.Lline_table_start1+0x10f5>
   19340:	950a                	add	a0,a0,sp
   19342:	02300613          	li	a2,35
   19346:	00002097          	auipc	ra,0x2
   1934a:	c2c080e7          	jalr	-980(ra) # 1af72 <memcpy>
   1934e:	01845513          	srli	a0,s0,0x18
   19352:	01045593          	srli	a1,s0,0x10
   19356:	00845613          	srli	a2,s0,0x8
   1935a:	3e890ca3          	sb	s0,1017(s2)
   1935e:	3ec90d23          	sb	a2,1018(s2)
   19362:	3eb90da3          	sb	a1,1019(s2)
   19366:	3ea90e23          	sb	a0,1020(s2)
   1936a:	7ff10513          	addi	a0,sp,2047
   1936e:	38c50513          	addi	a0,a0,908
   19372:	6585                	lui	a1,0x1
   19374:	32058593          	addi	a1,a1,800 # 1320 <.Lline_table_start1+0x10f5>
   19378:	958a                	add	a1,a1,sp
   1937a:	02300613          	li	a2,35
   1937e:	00002097          	auipc	ra,0x2
   19382:	bf4080e7          	jalr	-1036(ra) # 1af72 <memcpy>
   19386:	6505                	lui	a0,0x1
   19388:	37c50513          	addi	a0,a0,892 # 137c <.Lline_table_start1+0x1151>
   1938c:	950a                	add	a0,a0,sp
   1938e:	7ff10593          	addi	a1,sp,2047
   19392:	38558593          	addi	a1,a1,901
   19396:	ffffc097          	auipc	ra,0xffffc
   1939a:	68e080e7          	jalr	1678(ra) # 15a24 <_ZN20complex_full_dynamic3app17hce9278bc9c8aea50E>
   1939e:	3eca4503          	lbu	a0,1004(s4)
   193a2:	c119                	beqz	a0,193a8 <_start+0x2706>
   193a4:	5c60106f          	j	1a96a <_start+0x3cc8>
   193a8:	3eea4503          	lbu	a0,1006(s4)
   193ac:	3eda4583          	lbu	a1,1005(s4)
   193b0:	3efa4603          	lbu	a2,1007(s4)
   193b4:	3f0a2403          	lw	s0,1008(s4)
   193b8:	0522                	slli	a0,a0,0x8
   193ba:	8d4d                	or	a0,a0,a1
   193bc:	42a91023          	sh	a0,1056(s2)
   193c0:	42c90123          	sb	a2,1058(s2)
   193c4:	6505                	lui	a0,0x1
   193c6:	38450513          	addi	a0,a0,900 # 1384 <.Lline_table_start1+0x1159>
   193ca:	00a105b3          	add	a1,sp,a0
   193ce:	6505                	lui	a0,0x1
   193d0:	32050513          	addi	a0,a0,800 # 1320 <.Lline_table_start1+0x10f5>
   193d4:	950a                	add	a0,a0,sp
   193d6:	05200613          	li	a2,82
   193da:	00002097          	auipc	ra,0x2
   193de:	b98080e7          	jalr	-1128(ra) # 1af72 <memcpy>
   193e2:	01845513          	srli	a0,s0,0x18
   193e6:	01045593          	srli	a1,s0,0x10
   193ea:	00845613          	srli	a2,s0,0x8
   193ee:	428901a3          	sb	s0,1059(s2)
   193f2:	42c90223          	sb	a2,1060(s2)
   193f6:	42b902a3          	sb	a1,1061(s2)
   193fa:	42a90323          	sb	a0,1062(s2)
   193fe:	7ff10513          	addi	a0,sp,2047
   19402:	3b650513          	addi	a0,a0,950
   19406:	6585                	lui	a1,0x1
   19408:	32058593          	addi	a1,a1,800 # 1320 <.Lline_table_start1+0x10f5>
   1940c:	958a                	add	a1,a1,sp
   1940e:	05200613          	li	a2,82
   19412:	00002097          	auipc	ra,0x2
   19416:	b60080e7          	jalr	-1184(ra) # 1af72 <memcpy>
   1941a:	6505                	lui	a0,0x1
   1941c:	37c50513          	addi	a0,a0,892 # 137c <.Lline_table_start1+0x1151>
   19420:	950a                	add	a0,a0,sp
   19422:	7ff10593          	addi	a1,sp,2047
   19426:	3af58593          	addi	a1,a1,943
   1942a:	ffff8097          	auipc	ra,0xffff8
   1942e:	4cc080e7          	jalr	1228(ra) # 118f6 <_ZN20complex_full_dynamic3app17h12e754b9bd091674E>
   19432:	3eca4503          	lbu	a0,1004(s4)
   19436:	c119                	beqz	a0,1943c <_start+0x279a>
   19438:	5320106f          	j	1a96a <_start+0x3cc8>
   1943c:	3eea4503          	lbu	a0,1006(s4)
   19440:	3eda4583          	lbu	a1,1005(s4)
   19444:	3efa4603          	lbu	a2,1007(s4)
   19448:	3f0a2403          	lw	s0,1008(s4)
   1944c:	0522                	slli	a0,a0,0x8
   1944e:	8d4d                	or	a0,a0,a1
   19450:	46a91d23          	sh	a0,1146(s2)
   19454:	46c90e23          	sb	a2,1148(s2)
   19458:	6505                	lui	a0,0x1
   1945a:	38450513          	addi	a0,a0,900 # 1384 <.Lline_table_start1+0x1159>
   1945e:	00a105b3          	add	a1,sp,a0
   19462:	6505                	lui	a0,0x1
   19464:	32050513          	addi	a0,a0,800 # 1320 <.Lline_table_start1+0x10f5>
   19468:	950a                	add	a0,a0,sp
   1946a:	04300613          	li	a2,67
   1946e:	00002097          	auipc	ra,0x2
   19472:	b04080e7          	jalr	-1276(ra) # 1af72 <memcpy>
   19476:	01845513          	srli	a0,s0,0x18
   1947a:	01045593          	srli	a1,s0,0x10
   1947e:	00845613          	srli	a2,s0,0x8
   19482:	46890ea3          	sb	s0,1149(s2)
   19486:	46c90f23          	sb	a2,1150(s2)
   1948a:	46b90fa3          	sb	a1,1151(s2)
   1948e:	48a90023          	sb	a0,1152(s2)
   19492:	7ff10513          	addi	a0,sp,2047
   19496:	41050513          	addi	a0,a0,1040
   1949a:	6585                	lui	a1,0x1
   1949c:	32058593          	addi	a1,a1,800 # 1320 <.Lline_table_start1+0x10f5>
   194a0:	958a                	add	a1,a1,sp
   194a2:	04300613          	li	a2,67
   194a6:	00002097          	auipc	ra,0x2
   194aa:	acc080e7          	jalr	-1332(ra) # 1af72 <memcpy>
   194ae:	6505                	lui	a0,0x1
   194b0:	37c50513          	addi	a0,a0,892 # 137c <.Lline_table_start1+0x1151>
   194b4:	950a                	add	a0,a0,sp
   194b6:	7ff10593          	addi	a1,sp,2047
   194ba:	40958593          	addi	a1,a1,1033
   194be:	ffff8097          	auipc	ra,0xffff8
   194c2:	340080e7          	jalr	832(ra) # 117fe <_ZN20complex_full_dynamic3app17h10371af6d1d11d1fE>
   194c6:	3eca4503          	lbu	a0,1004(s4)
   194ca:	c119                	beqz	a0,194d0 <_start+0x282e>
   194cc:	49e0106f          	j	1a96a <_start+0x3cc8>
   194d0:	3eea4503          	lbu	a0,1006(s4)
   194d4:	3eda4583          	lbu	a1,1005(s4)
   194d8:	3efa4603          	lbu	a2,1007(s4)
   194dc:	3f0a2403          	lw	s0,1008(s4)
   194e0:	0522                	slli	a0,a0,0x8
   194e2:	8d4d                	or	a0,a0,a1
   194e4:	4ca91223          	sh	a0,1220(s2)
   194e8:	4cc90323          	sb	a2,1222(s2)
   194ec:	6505                	lui	a0,0x1
   194ee:	38450513          	addi	a0,a0,900 # 1384 <.Lline_table_start1+0x1159>
   194f2:	00a105b3          	add	a1,sp,a0
   194f6:	6505                	lui	a0,0x1
   194f8:	32050513          	addi	a0,a0,800 # 1320 <.Lline_table_start1+0x10f5>
   194fc:	950a                	add	a0,a0,sp
   194fe:	02600613          	li	a2,38
   19502:	00002097          	auipc	ra,0x2
   19506:	a70080e7          	jalr	-1424(ra) # 1af72 <memcpy>
   1950a:	01845513          	srli	a0,s0,0x18
   1950e:	01045593          	srli	a1,s0,0x10
   19512:	00845613          	srli	a2,s0,0x8
   19516:	4c8903a3          	sb	s0,1223(s2)
   1951a:	4cc90423          	sb	a2,1224(s2)
   1951e:	4cb904a3          	sb	a1,1225(s2)
   19522:	4ca90523          	sb	a0,1226(s2)
   19526:	7ff10513          	addi	a0,sp,2047
   1952a:	45a50513          	addi	a0,a0,1114
   1952e:	6585                	lui	a1,0x1
   19530:	32058593          	addi	a1,a1,800 # 1320 <.Lline_table_start1+0x10f5>
   19534:	958a                	add	a1,a1,sp
   19536:	02600613          	li	a2,38
   1953a:	00002097          	auipc	ra,0x2
   1953e:	a38080e7          	jalr	-1480(ra) # 1af72 <memcpy>
   19542:	6505                	lui	a0,0x1
   19544:	37c50513          	addi	a0,a0,892 # 137c <.Lline_table_start1+0x1151>
   19548:	950a                	add	a0,a0,sp
   1954a:	7ff10593          	addi	a1,sp,2047
   1954e:	45358593          	addi	a1,a1,1107
   19552:	ffff8097          	auipc	ra,0xffff8
   19556:	49e080e7          	jalr	1182(ra) # 119f0 <_ZN20complex_full_dynamic3app17h13ab51d56169627eE>
   1955a:	3eca4503          	lbu	a0,1004(s4)
   1955e:	c119                	beqz	a0,19564 <_start+0x28c2>
   19560:	40a0106f          	j	1a96a <_start+0x3cc8>
   19564:	3eea4503          	lbu	a0,1006(s4)
   19568:	3eda4583          	lbu	a1,1005(s4)
   1956c:	3efa4603          	lbu	a2,1007(s4)
   19570:	3f0a2403          	lw	s0,1008(s4)
   19574:	0522                	slli	a0,a0,0x8
   19576:	8d4d                	or	a0,a0,a1
   19578:	4ea91923          	sh	a0,1266(s2)
   1957c:	4ec90a23          	sb	a2,1268(s2)
   19580:	6505                	lui	a0,0x1
   19582:	38450513          	addi	a0,a0,900 # 1384 <.Lline_table_start1+0x1159>
   19586:	00a105b3          	add	a1,sp,a0
   1958a:	6505                	lui	a0,0x1
   1958c:	32050513          	addi	a0,a0,800 # 1320 <.Lline_table_start1+0x10f5>
   19590:	950a                	add	a0,a0,sp
   19592:	04c00613          	li	a2,76
   19596:	00002097          	auipc	ra,0x2
   1959a:	9dc080e7          	jalr	-1572(ra) # 1af72 <memcpy>
   1959e:	01845513          	srli	a0,s0,0x18
   195a2:	01045593          	srli	a1,s0,0x10
   195a6:	00845613          	srli	a2,s0,0x8
   195aa:	4e890aa3          	sb	s0,1269(s2)
   195ae:	4ec90b23          	sb	a2,1270(s2)
   195b2:	4eb90ba3          	sb	a1,1271(s2)
   195b6:	4ea90c23          	sb	a0,1272(s2)
   195ba:	7ff10513          	addi	a0,sp,2047
   195be:	48850513          	addi	a0,a0,1160
   195c2:	6585                	lui	a1,0x1
   195c4:	32058593          	addi	a1,a1,800 # 1320 <.Lline_table_start1+0x10f5>
   195c8:	958a                	add	a1,a1,sp
   195ca:	04c00613          	li	a2,76
   195ce:	00002097          	auipc	ra,0x2
   195d2:	9a4080e7          	jalr	-1628(ra) # 1af72 <memcpy>
   195d6:	6505                	lui	a0,0x1
   195d8:	37c50513          	addi	a0,a0,892 # 137c <.Lline_table_start1+0x1151>
   195dc:	950a                	add	a0,a0,sp
   195de:	7ff10593          	addi	a1,sp,2047
   195e2:	48158593          	addi	a1,a1,1153
   195e6:	ffffa097          	auipc	ra,0xffffa
   195ea:	42a080e7          	jalr	1066(ra) # 13a10 <_ZN20complex_full_dynamic3app17h70de7c9e8bea423eE>
   195ee:	3eca4503          	lbu	a0,1004(s4)
   195f2:	c119                	beqz	a0,195f8 <_start+0x2956>
   195f4:	3760106f          	j	1a96a <_start+0x3cc8>
   195f8:	3eea4503          	lbu	a0,1006(s4)
   195fc:	3eda4583          	lbu	a1,1005(s4)
   19600:	3efa4603          	lbu	a2,1007(s4)
   19604:	3f0a2403          	lw	s0,1008(s4)
   19608:	0522                	slli	a0,a0,0x8
   1960a:	8d4d                	or	a0,a0,a1
   1960c:	54a91323          	sh	a0,1350(s2)
   19610:	54c90423          	sb	a2,1352(s2)
   19614:	6505                	lui	a0,0x1
   19616:	38450513          	addi	a0,a0,900 # 1384 <.Lline_table_start1+0x1159>
   1961a:	00a105b3          	add	a1,sp,a0
   1961e:	6505                	lui	a0,0x1
   19620:	32050513          	addi	a0,a0,800 # 1320 <.Lline_table_start1+0x10f5>
   19624:	950a                	add	a0,a0,sp
   19626:	03300613          	li	a2,51
   1962a:	00002097          	auipc	ra,0x2
   1962e:	948080e7          	jalr	-1720(ra) # 1af72 <memcpy>
   19632:	01845513          	srli	a0,s0,0x18
   19636:	01045593          	srli	a1,s0,0x10
   1963a:	00845613          	srli	a2,s0,0x8
   1963e:	548904a3          	sb	s0,1353(s2)
   19642:	54c90523          	sb	a2,1354(s2)
   19646:	54b905a3          	sb	a1,1355(s2)
   1964a:	54a90623          	sb	a0,1356(s2)
   1964e:	7ff10513          	addi	a0,sp,2047
   19652:	4dc50513          	addi	a0,a0,1244
   19656:	6585                	lui	a1,0x1
   19658:	32058593          	addi	a1,a1,800 # 1320 <.Lline_table_start1+0x10f5>
   1965c:	958a                	add	a1,a1,sp
   1965e:	03300613          	li	a2,51
   19662:	00002097          	auipc	ra,0x2
   19666:	910080e7          	jalr	-1776(ra) # 1af72 <memcpy>
   1966a:	6505                	lui	a0,0x1
   1966c:	37c50513          	addi	a0,a0,892 # 137c <.Lline_table_start1+0x1151>
   19670:	950a                	add	a0,a0,sp
   19672:	7ff10593          	addi	a1,sp,2047
   19676:	4d558593          	addi	a1,a1,1237
   1967a:	ffff9097          	auipc	ra,0xffff9
   1967e:	f16080e7          	jalr	-234(ra) # 12590 <_ZN20complex_full_dynamic3app17h2e05ac0be9f80869E>
   19682:	3eca4503          	lbu	a0,1004(s4)
   19686:	c119                	beqz	a0,1968c <_start+0x29ea>
   19688:	2e20106f          	j	1a96a <_start+0x3cc8>
   1968c:	3eea4503          	lbu	a0,1006(s4)
   19690:	3eda4583          	lbu	a1,1005(s4)
   19694:	3efa4603          	lbu	a2,1007(s4)
   19698:	3f0a2403          	lw	s0,1008(s4)
   1969c:	0522                	slli	a0,a0,0x8
   1969e:	8d4d                	or	a0,a0,a1
   196a0:	58a91023          	sh	a0,1408(s2)
   196a4:	58c90123          	sb	a2,1410(s2)
   196a8:	6505                	lui	a0,0x1
   196aa:	38450513          	addi	a0,a0,900 # 1384 <.Lline_table_start1+0x1159>
   196ae:	00a105b3          	add	a1,sp,a0
   196b2:	6505                	lui	a0,0x1
   196b4:	32050513          	addi	a0,a0,800 # 1320 <.Lline_table_start1+0x10f5>
   196b8:	950a                	add	a0,a0,sp
   196ba:	05600613          	li	a2,86
   196be:	00002097          	auipc	ra,0x2
   196c2:	8b4080e7          	jalr	-1868(ra) # 1af72 <memcpy>
   196c6:	01845513          	srli	a0,s0,0x18
   196ca:	01045593          	srli	a1,s0,0x10
   196ce:	00845613          	srli	a2,s0,0x8
   196d2:	588901a3          	sb	s0,1411(s2)
   196d6:	58c90223          	sb	a2,1412(s2)
   196da:	58b902a3          	sb	a1,1413(s2)
   196de:	58a90323          	sb	a0,1414(s2)
   196e2:	7ff10513          	addi	a0,sp,2047
   196e6:	51650513          	addi	a0,a0,1302
   196ea:	6585                	lui	a1,0x1
   196ec:	32058593          	addi	a1,a1,800 # 1320 <.Lline_table_start1+0x10f5>
   196f0:	958a                	add	a1,a1,sp
   196f2:	05600613          	li	a2,86
   196f6:	00002097          	auipc	ra,0x2
   196fa:	87c080e7          	jalr	-1924(ra) # 1af72 <memcpy>
   196fe:	6505                	lui	a0,0x1
   19700:	37c50513          	addi	a0,a0,892 # 137c <.Lline_table_start1+0x1151>
   19704:	950a                	add	a0,a0,sp
   19706:	7ff10593          	addi	a1,sp,2047
   1970a:	50f58593          	addi	a1,a1,1295
   1970e:	ffffa097          	auipc	ra,0xffffa
   19712:	950080e7          	jalr	-1712(ra) # 1305e <_ZN20complex_full_dynamic3app17h54837dbdd4e7ae3bE>
   19716:	3eca4503          	lbu	a0,1004(s4)
   1971a:	c119                	beqz	a0,19720 <_start+0x2a7e>
   1971c:	24e0106f          	j	1a96a <_start+0x3cc8>
   19720:	3eea4503          	lbu	a0,1006(s4)
   19724:	3eda4583          	lbu	a1,1005(s4)
   19728:	3efa4603          	lbu	a2,1007(s4)
   1972c:	3f0a2403          	lw	s0,1008(s4)
   19730:	0522                	slli	a0,a0,0x8
   19732:	8d4d                	or	a0,a0,a1
   19734:	5ca91f23          	sh	a0,1502(s2)
   19738:	5ec90023          	sb	a2,1504(s2)
   1973c:	6505                	lui	a0,0x1
   1973e:	38450513          	addi	a0,a0,900 # 1384 <.Lline_table_start1+0x1159>
   19742:	00a105b3          	add	a1,sp,a0
   19746:	6505                	lui	a0,0x1
   19748:	32050513          	addi	a0,a0,800 # 1320 <.Lline_table_start1+0x10f5>
   1974c:	950a                	add	a0,a0,sp
   1974e:	03900613          	li	a2,57
   19752:	00002097          	auipc	ra,0x2
   19756:	820080e7          	jalr	-2016(ra) # 1af72 <memcpy>
   1975a:	01845513          	srli	a0,s0,0x18
   1975e:	01045593          	srli	a1,s0,0x10
   19762:	00845613          	srli	a2,s0,0x8
   19766:	5e8900a3          	sb	s0,1505(s2)
   1976a:	5ec90123          	sb	a2,1506(s2)
   1976e:	5eb901a3          	sb	a1,1507(s2)
   19772:	5ea90223          	sb	a0,1508(s2)
   19776:	7ff10513          	addi	a0,sp,2047
   1977a:	57450513          	addi	a0,a0,1396
   1977e:	6585                	lui	a1,0x1
   19780:	32058593          	addi	a1,a1,800 # 1320 <.Lline_table_start1+0x10f5>
   19784:	958a                	add	a1,a1,sp
   19786:	03900613          	li	a2,57
   1978a:	00001097          	auipc	ra,0x1
   1978e:	7e8080e7          	jalr	2024(ra) # 1af72 <memcpy>
   19792:	6505                	lui	a0,0x1
   19794:	37c50513          	addi	a0,a0,892 # 137c <.Lline_table_start1+0x1151>
   19798:	950a                	add	a0,a0,sp
   1979a:	7ff10593          	addi	a1,sp,2047
   1979e:	56d58593          	addi	a1,a1,1389
   197a2:	ffff9097          	auipc	ra,0xffff9
   197a6:	4d0080e7          	jalr	1232(ra) # 12c72 <_ZN20complex_full_dynamic3app17h490cab217b5aff55E>
   197aa:	3eca4503          	lbu	a0,1004(s4)
   197ae:	c119                	beqz	a0,197b4 <_start+0x2b12>
   197b0:	1ba0106f          	j	1a96a <_start+0x3cc8>
   197b4:	3eea4503          	lbu	a0,1006(s4)
   197b8:	3eda4583          	lbu	a1,1005(s4)
   197bc:	3efa4603          	lbu	a2,1007(s4)
   197c0:	3f0a2403          	lw	s0,1008(s4)
   197c4:	0522                	slli	a0,a0,0x8
   197c6:	8d4d                	or	a0,a0,a1
   197c8:	60a91f23          	sh	a0,1566(s2)
   197cc:	62c90023          	sb	a2,1568(s2)
   197d0:	6505                	lui	a0,0x1
   197d2:	38450513          	addi	a0,a0,900 # 1384 <.Lline_table_start1+0x1159>
   197d6:	00a105b3          	add	a1,sp,a0
   197da:	6505                	lui	a0,0x1
   197dc:	32050513          	addi	a0,a0,800 # 1320 <.Lline_table_start1+0x10f5>
   197e0:	950a                	add	a0,a0,sp
   197e2:	02a00613          	li	a2,42
   197e6:	00001097          	auipc	ra,0x1
   197ea:	78c080e7          	jalr	1932(ra) # 1af72 <memcpy>
   197ee:	01845513          	srli	a0,s0,0x18
   197f2:	01045593          	srli	a1,s0,0x10
   197f6:	00845613          	srli	a2,s0,0x8
   197fa:	628900a3          	sb	s0,1569(s2)
   197fe:	62c90123          	sb	a2,1570(s2)
   19802:	62b901a3          	sb	a1,1571(s2)
   19806:	62a90223          	sb	a0,1572(s2)
   1980a:	7ff10513          	addi	a0,sp,2047
   1980e:	5b450513          	addi	a0,a0,1460
   19812:	6585                	lui	a1,0x1
   19814:	32058593          	addi	a1,a1,800 # 1320 <.Lline_table_start1+0x10f5>
   19818:	958a                	add	a1,a1,sp
   1981a:	02a00613          	li	a2,42
   1981e:	00001097          	auipc	ra,0x1
   19822:	754080e7          	jalr	1876(ra) # 1af72 <memcpy>
   19826:	6505                	lui	a0,0x1
   19828:	37c50513          	addi	a0,a0,892 # 137c <.Lline_table_start1+0x1151>
   1982c:	950a                	add	a0,a0,sp
   1982e:	7ff10593          	addi	a1,sp,2047
   19832:	5ad58593          	addi	a1,a1,1453
   19836:	ffffd097          	auipc	ra,0xffffd
   1983a:	9ba080e7          	jalr	-1606(ra) # 161f0 <_ZN20complex_full_dynamic3app17he9b092bc78a3dd6dE>
   1983e:	3eca4503          	lbu	a0,1004(s4)
   19842:	c119                	beqz	a0,19848 <_start+0x2ba6>
   19844:	1260106f          	j	1a96a <_start+0x3cc8>
   19848:	3eea4503          	lbu	a0,1006(s4)
   1984c:	3eda4583          	lbu	a1,1005(s4)
   19850:	3efa4603          	lbu	a2,1007(s4)
   19854:	3f0a2403          	lw	s0,1008(s4)
   19858:	0522                	slli	a0,a0,0x8
   1985a:	8d4d                	or	a0,a0,a1
   1985c:	64a91823          	sh	a0,1616(s2)
   19860:	64c90923          	sb	a2,1618(s2)
   19864:	6505                	lui	a0,0x1
   19866:	38450513          	addi	a0,a0,900 # 1384 <.Lline_table_start1+0x1159>
   1986a:	00a105b3          	add	a1,sp,a0
   1986e:	6505                	lui	a0,0x1
   19870:	32050513          	addi	a0,a0,800 # 1320 <.Lline_table_start1+0x10f5>
   19874:	950a                	add	a0,a0,sp
   19876:	04100613          	li	a2,65
   1987a:	00001097          	auipc	ra,0x1
   1987e:	6f8080e7          	jalr	1784(ra) # 1af72 <memcpy>
   19882:	01845513          	srli	a0,s0,0x18
   19886:	01045593          	srli	a1,s0,0x10
   1988a:	00845613          	srli	a2,s0,0x8
   1988e:	648909a3          	sb	s0,1619(s2)
   19892:	64c90a23          	sb	a2,1620(s2)
   19896:	64b90aa3          	sb	a1,1621(s2)
   1989a:	64a90b23          	sb	a0,1622(s2)
   1989e:	7ff10513          	addi	a0,sp,2047
   198a2:	5e650513          	addi	a0,a0,1510
   198a6:	6585                	lui	a1,0x1
   198a8:	32058593          	addi	a1,a1,800 # 1320 <.Lline_table_start1+0x10f5>
   198ac:	958a                	add	a1,a1,sp
   198ae:	04100613          	li	a2,65
   198b2:	00001097          	auipc	ra,0x1
   198b6:	6c0080e7          	jalr	1728(ra) # 1af72 <memcpy>
   198ba:	6505                	lui	a0,0x1
   198bc:	37c50513          	addi	a0,a0,892 # 137c <.Lline_table_start1+0x1151>
   198c0:	950a                	add	a0,a0,sp
   198c2:	7ff10593          	addi	a1,sp,2047
   198c6:	5df58593          	addi	a1,a1,1503
   198ca:	ffffb097          	auipc	ra,0xffffb
   198ce:	5ba080e7          	jalr	1466(ra) # 14e84 <_ZN20complex_full_dynamic3app17hadd6e4fd2d82935fE>
   198d2:	3eca4503          	lbu	a0,1004(s4)
   198d6:	c119                	beqz	a0,198dc <_start+0x2c3a>
   198d8:	0920106f          	j	1a96a <_start+0x3cc8>
   198dc:	3eea4503          	lbu	a0,1006(s4)
   198e0:	3eda4583          	lbu	a1,1005(s4)
   198e4:	3efa4603          	lbu	a2,1007(s4)
   198e8:	3f0a2403          	lw	s0,1008(s4)
   198ec:	0522                	slli	a0,a0,0x8
   198ee:	8d4d                	or	a0,a0,a1
   198f0:	68a91c23          	sh	a0,1688(s2)
   198f4:	68c90d23          	sb	a2,1690(s2)
   198f8:	6505                	lui	a0,0x1
   198fa:	38450513          	addi	a0,a0,900 # 1384 <.Lline_table_start1+0x1159>
   198fe:	00a105b3          	add	a1,sp,a0
   19902:	6505                	lui	a0,0x1
   19904:	32050513          	addi	a0,a0,800 # 1320 <.Lline_table_start1+0x10f5>
   19908:	950a                	add	a0,a0,sp
   1990a:	02200613          	li	a2,34
   1990e:	00001097          	auipc	ra,0x1
   19912:	664080e7          	jalr	1636(ra) # 1af72 <memcpy>
   19916:	01845513          	srli	a0,s0,0x18
   1991a:	01045593          	srli	a1,s0,0x10
   1991e:	00845613          	srli	a2,s0,0x8
   19922:	68890da3          	sb	s0,1691(s2)
   19926:	68c90e23          	sb	a2,1692(s2)
   1992a:	68b90ea3          	sb	a1,1693(s2)
   1992e:	68a90f23          	sb	a0,1694(s2)
   19932:	7ff10513          	addi	a0,sp,2047
   19936:	62e50513          	addi	a0,a0,1582
   1993a:	6585                	lui	a1,0x1
   1993c:	32058593          	addi	a1,a1,800 # 1320 <.Lline_table_start1+0x10f5>
   19940:	958a                	add	a1,a1,sp
   19942:	02200613          	li	a2,34
   19946:	00001097          	auipc	ra,0x1
   1994a:	62c080e7          	jalr	1580(ra) # 1af72 <memcpy>
   1994e:	6505                	lui	a0,0x1
   19950:	37c50513          	addi	a0,a0,892 # 137c <.Lline_table_start1+0x1151>
   19954:	950a                	add	a0,a0,sp
   19956:	7ff10593          	addi	a1,sp,2047
   1995a:	62758593          	addi	a1,a1,1575
   1995e:	ffffc097          	auipc	ra,0xffffc
   19962:	bf2080e7          	jalr	-1038(ra) # 15550 <_ZN20complex_full_dynamic3app17hc0c3d3bb5c5064d1E>
   19966:	3eca4503          	lbu	a0,1004(s4)
   1996a:	c119                	beqz	a0,19970 <_start+0x2cce>
   1996c:	7ff0006f          	j	1a96a <_start+0x3cc8>
   19970:	3eda4503          	lbu	a0,1005(s4)
   19974:	3eea4583          	lbu	a1,1006(s4)
   19978:	3f4a2603          	lw	a2,1012(s4)
   1997c:	3f8a2683          	lw	a3,1016(s4)
   19980:	3fca2703          	lw	a4,1020(s4)
   19984:	400a2783          	lw	a5,1024(s4)
   19988:	404a1483          	lh	s1,1028(s4)
   1998c:	406a4403          	lbu	s0,1030(s4)
   19990:	38ca2823          	sw	a2,912(s4)
   19994:	38da2a23          	sw	a3,916(s4)
   19998:	38ea2c23          	sw	a4,920(s4)
   1999c:	38fa2e23          	sw	a5,924(s4)
   199a0:	3efa4603          	lbu	a2,1007(s4)
   199a4:	3f0a2683          	lw	a3,1008(s4)
   199a8:	05a2                	slli	a1,a1,0x8
   199aa:	3a9a1023          	sh	s1,928(s4)
   199ae:	3a8a0123          	sb	s0,930(s4)
   199b2:	0186d713          	srli	a4,a3,0x18
   199b6:	8d4d                	or	a0,a0,a1
   199b8:	0106d593          	srli	a1,a3,0x10
   199bc:	6cb903a3          	sb	a1,1735(s2)
   199c0:	6ce90423          	sb	a4,1736(s2)
   199c4:	0086d593          	srli	a1,a3,0x8
   199c8:	6ca91123          	sh	a0,1730(s2)
   199cc:	6cc90223          	sb	a2,1732(s2)
   199d0:	6cd902a3          	sb	a3,1733(s2)
   199d4:	6cb90323          	sb	a1,1734(s2)
   199d8:	7ff10513          	addi	a0,sp,2047
   199dc:	65850513          	addi	a0,a0,1624
   199e0:	6585                	lui	a1,0x1
   199e2:	32058593          	addi	a1,a1,800 # 1320 <.Lline_table_start1+0x10f5>
   199e6:	958a                	add	a1,a1,sp
   199e8:	464d                	li	a2,19
   199ea:	00001097          	auipc	ra,0x1
   199ee:	588080e7          	jalr	1416(ra) # 1af72 <memcpy>
   199f2:	6505                	lui	a0,0x1
   199f4:	37c50513          	addi	a0,a0,892 # 137c <.Lline_table_start1+0x1151>
   199f8:	950a                	add	a0,a0,sp
   199fa:	7ff10593          	addi	a1,sp,2047
   199fe:	65158593          	addi	a1,a1,1617
   19a02:	ffffb097          	auipc	ra,0xffffb
   19a06:	db0080e7          	jalr	-592(ra) # 147b2 <_ZN20complex_full_dynamic3app17h92bdc1a4ab331708E>
   19a0a:	3eca4503          	lbu	a0,1004(s4)
   19a0e:	74051ee3          	bnez	a0,1a96a <_start+0x3cc8>
   19a12:	3eda4503          	lbu	a0,1005(s4)
   19a16:	3eea4583          	lbu	a1,1006(s4)
   19a1a:	3efa4803          	lbu	a6,1007(s4)
   19a1e:	3f0a2683          	lw	a3,1008(s4)
   19a22:	3f4a2703          	lw	a4,1012(s4)
   19a26:	3f8a2783          	lw	a5,1016(s4)
   19a2a:	3fca2483          	lw	s1,1020(s4)
   19a2e:	400a2403          	lw	s0,1024(s4)
   19a32:	404a2603          	lw	a2,1028(s4)
   19a36:	38ea2823          	sw	a4,912(s4)
   19a3a:	38fa2a23          	sw	a5,916(s4)
   19a3e:	389a2c23          	sw	s1,920(s4)
   19a42:	388a2e23          	sw	s0,924(s4)
   19a46:	05a2                	slli	a1,a1,0x8
   19a48:	3aca2023          	sw	a2,928(s4)
   19a4c:	0186d613          	srli	a2,a3,0x18
   19a50:	8d4d                	or	a0,a0,a1
   19a52:	0106d593          	srli	a1,a3,0x10
   19a56:	6eb900a3          	sb	a1,1761(s2)
   19a5a:	6ec90123          	sb	a2,1762(s2)
   19a5e:	0086d593          	srli	a1,a3,0x8
   19a62:	6ca91e23          	sh	a0,1756(s2)
   19a66:	6d090f23          	sb	a6,1758(s2)
   19a6a:	6cd90fa3          	sb	a3,1759(s2)
   19a6e:	6eb90023          	sb	a1,1760(s2)
   19a72:	7ff10513          	addi	a0,sp,2047
   19a76:	67250513          	addi	a0,a0,1650
   19a7a:	6585                	lui	a1,0x1
   19a7c:	32058593          	addi	a1,a1,800 # 1320 <.Lline_table_start1+0x10f5>
   19a80:	958a                	add	a1,a1,sp
   19a82:	4651                	li	a2,20
   19a84:	00001097          	auipc	ra,0x1
   19a88:	4ee080e7          	jalr	1262(ra) # 1af72 <memcpy>
   19a8c:	6505                	lui	a0,0x1
   19a8e:	37c50513          	addi	a0,a0,892 # 137c <.Lline_table_start1+0x1151>
   19a92:	950a                	add	a0,a0,sp
   19a94:	7ff10593          	addi	a1,sp,2047
   19a98:	66b58593          	addi	a1,a1,1643
   19a9c:	ffffc097          	auipc	ra,0xffffc
   19aa0:	ca2080e7          	jalr	-862(ra) # 1573e <_ZN20complex_full_dynamic3app17hc6d73a41d38d3ed5E>
   19aa4:	3eca4503          	lbu	a0,1004(s4)
   19aa8:	6c0511e3          	bnez	a0,1a96a <_start+0x3cc8>
   19aac:	3eea4503          	lbu	a0,1006(s4)
   19ab0:	3eda4583          	lbu	a1,1005(s4)
   19ab4:	3efa4603          	lbu	a2,1007(s4)
   19ab8:	3f0a2403          	lw	s0,1008(s4)
   19abc:	0522                	slli	a0,a0,0x8
   19abe:	8d4d                	or	a0,a0,a1
   19ac0:	6ea91c23          	sh	a0,1784(s2)
   19ac4:	6ec90d23          	sb	a2,1786(s2)
   19ac8:	6505                	lui	a0,0x1
   19aca:	38450513          	addi	a0,a0,900 # 1384 <.Lline_table_start1+0x1159>
   19ace:	00a105b3          	add	a1,sp,a0
   19ad2:	6505                	lui	a0,0x1
   19ad4:	32050513          	addi	a0,a0,800 # 1320 <.Lline_table_start1+0x10f5>
   19ad8:	950a                	add	a0,a0,sp
   19ada:	03a00613          	li	a2,58
   19ade:	00001097          	auipc	ra,0x1
   19ae2:	494080e7          	jalr	1172(ra) # 1af72 <memcpy>
   19ae6:	01845513          	srli	a0,s0,0x18
   19aea:	01045593          	srli	a1,s0,0x10
   19aee:	00845613          	srli	a2,s0,0x8
   19af2:	6e890da3          	sb	s0,1787(s2)
   19af6:	6ec90e23          	sb	a2,1788(s2)
   19afa:	6eb90ea3          	sb	a1,1789(s2)
   19afe:	6ea90f23          	sb	a0,1790(s2)
   19b02:	7ff10513          	addi	a0,sp,2047
   19b06:	68e50513          	addi	a0,a0,1678
   19b0a:	6585                	lui	a1,0x1
   19b0c:	32058593          	addi	a1,a1,800 # 1320 <.Lline_table_start1+0x10f5>
   19b10:	958a                	add	a1,a1,sp
   19b12:	03a00613          	li	a2,58
   19b16:	00001097          	auipc	ra,0x1
   19b1a:	45c080e7          	jalr	1116(ra) # 1af72 <memcpy>
   19b1e:	6505                	lui	a0,0x1
   19b20:	37c50513          	addi	a0,a0,892 # 137c <.Lline_table_start1+0x1151>
   19b24:	950a                	add	a0,a0,sp
   19b26:	7ff10593          	addi	a1,sp,2047
   19b2a:	68758593          	addi	a1,a1,1671
   19b2e:	ffff7097          	auipc	ra,0xffff7
   19b32:	606080e7          	jalr	1542(ra) # 11134 <_ZN20complex_full_dynamic3app17h01ee66be6d45ae44E>
   19b36:	3eca4503          	lbu	a0,1004(s4)
   19b3a:	620518e3          	bnez	a0,1a96a <_start+0x3cc8>
   19b3e:	3eda4503          	lbu	a0,1005(s4)
   19b42:	3eea4583          	lbu	a1,1006(s4)
   19b46:	3efa4803          	lbu	a6,1007(s4)
   19b4a:	3f0a2683          	lw	a3,1008(s4)
   19b4e:	3f4a2703          	lw	a4,1012(s4)
   19b52:	3f8a2783          	lw	a5,1016(s4)
   19b56:	3fca2483          	lw	s1,1020(s4)
   19b5a:	400a2403          	lw	s0,1024(s4)
   19b5e:	404a4603          	lbu	a2,1028(s4)
   19b62:	38ea2823          	sw	a4,912(s4)
   19b66:	38fa2a23          	sw	a5,916(s4)
   19b6a:	389a2c23          	sw	s1,920(s4)
   19b6e:	388a2e23          	sw	s0,924(s4)
   19b72:	05a2                	slli	a1,a1,0x8
   19b74:	3aca0023          	sb	a2,928(s4)
   19b78:	0186d613          	srli	a2,a3,0x18
   19b7c:	8d4d                	or	a0,a0,a1
   19b7e:	0106d593          	srli	a1,a3,0x10
   19b82:	72b90fa3          	sb	a1,1855(s2)
   19b86:	74c90023          	sb	a2,1856(s2)
   19b8a:	0086d593          	srli	a1,a3,0x8
   19b8e:	72a91d23          	sh	a0,1850(s2)
   19b92:	73090e23          	sb	a6,1852(s2)
   19b96:	72d90ea3          	sb	a3,1853(s2)
   19b9a:	72b90f23          	sb	a1,1854(s2)
   19b9e:	7ff10513          	addi	a0,sp,2047
   19ba2:	6d050513          	addi	a0,a0,1744
   19ba6:	6585                	lui	a1,0x1
   19ba8:	32058593          	addi	a1,a1,800 # 1320 <.Lline_table_start1+0x10f5>
   19bac:	958a                	add	a1,a1,sp
   19bae:	4645                	li	a2,17
   19bb0:	00001097          	auipc	ra,0x1
   19bb4:	3c2080e7          	jalr	962(ra) # 1af72 <memcpy>
   19bb8:	6505                	lui	a0,0x1
   19bba:	37c50513          	addi	a0,a0,892 # 137c <.Lline_table_start1+0x1151>
   19bbe:	950a                	add	a0,a0,sp
   19bc0:	7ff10593          	addi	a1,sp,2047
   19bc4:	6c958593          	addi	a1,a1,1737
   19bc8:	ffff8097          	auipc	ra,0xffff8
   19bcc:	b40080e7          	jalr	-1216(ra) # 11708 <_ZN20complex_full_dynamic3app17h0f9c47301dabcf42E>
   19bd0:	3eca4503          	lbu	a0,1004(s4)
   19bd4:	58051be3          	bnez	a0,1a96a <_start+0x3cc8>
   19bd8:	3eda4503          	lbu	a0,1005(s4)
   19bdc:	3eea4583          	lbu	a1,1006(s4)
   19be0:	3efa4603          	lbu	a2,1007(s4)
   19be4:	3f0a2683          	lw	a3,1008(s4)
   19be8:	3f4a2703          	lw	a4,1012(s4)
   19bec:	3f8a2783          	lw	a5,1016(s4)
   19bf0:	3fca2483          	lw	s1,1020(s4)
   19bf4:	400a2403          	lw	s0,1024(s4)
   19bf8:	38ea2823          	sw	a4,912(s4)
   19bfc:	38fa2a23          	sw	a5,916(s4)
   19c00:	389a2c23          	sw	s1,920(s4)
   19c04:	388a2e23          	sw	s0,924(s4)
   19c08:	404a2703          	lw	a4,1028(s4)
   19c0c:	408a1783          	lh	a5,1032(s4)
   19c10:	40aa4483          	lbu	s1,1034(s4)
   19c14:	05a2                	slli	a1,a1,0x8
   19c16:	3aea2023          	sw	a4,928(s4)
   19c1a:	3afa1223          	sh	a5,932(s4)
   19c1e:	3a9a0323          	sb	s1,934(s4)
   19c22:	0186d713          	srli	a4,a3,0x18
   19c26:	8d4d                	or	a0,a0,a1
   19c28:	0106d593          	srli	a1,a3,0x10
   19c2c:	74b90ba3          	sb	a1,1879(s2)
   19c30:	74e90c23          	sb	a4,1880(s2)
   19c34:	0086d593          	srli	a1,a3,0x8
   19c38:	74a91923          	sh	a0,1874(s2)
   19c3c:	74c90a23          	sb	a2,1876(s2)
   19c40:	74d90aa3          	sb	a3,1877(s2)
   19c44:	74b90b23          	sb	a1,1878(s2)
   19c48:	7ff10513          	addi	a0,sp,2047
   19c4c:	6e850513          	addi	a0,a0,1768
   19c50:	6585                	lui	a1,0x1
   19c52:	32058593          	addi	a1,a1,800 # 1320 <.Lline_table_start1+0x10f5>
   19c56:	958a                	add	a1,a1,sp
   19c58:	465d                	li	a2,23
   19c5a:	00001097          	auipc	ra,0x1
   19c5e:	318080e7          	jalr	792(ra) # 1af72 <memcpy>
   19c62:	6505                	lui	a0,0x1
   19c64:	37c50513          	addi	a0,a0,892 # 137c <.Lline_table_start1+0x1151>
   19c68:	950a                	add	a0,a0,sp
   19c6a:	7ff10593          	addi	a1,sp,2047
   19c6e:	6e158593          	addi	a1,a1,1761
   19c72:	ffffa097          	auipc	ra,0xffffa
   19c76:	666080e7          	jalr	1638(ra) # 142d8 <_ZN20complex_full_dynamic3app17h860bf58e6bbd4fb8E>
   19c7a:	3eca4503          	lbu	a0,1004(s4)
   19c7e:	4e0516e3          	bnez	a0,1a96a <_start+0x3cc8>
   19c82:	3eea4503          	lbu	a0,1006(s4)
   19c86:	3eda4583          	lbu	a1,1005(s4)
   19c8a:	3efa4603          	lbu	a2,1007(s4)
   19c8e:	3f0a2403          	lw	s0,1008(s4)
   19c92:	0522                	slli	a0,a0,0x8
   19c94:	8d4d                	or	a0,a0,a1
   19c96:	76a91823          	sh	a0,1904(s2)
   19c9a:	76c90923          	sb	a2,1906(s2)
   19c9e:	6505                	lui	a0,0x1
   19ca0:	38450513          	addi	a0,a0,900 # 1384 <.Lline_table_start1+0x1159>
   19ca4:	00a105b3          	add	a1,sp,a0
   19ca8:	6505                	lui	a0,0x1
   19caa:	32050513          	addi	a0,a0,800 # 1320 <.Lline_table_start1+0x10f5>
   19cae:	950a                	add	a0,a0,sp
   19cb0:	03500613          	li	a2,53
   19cb4:	00001097          	auipc	ra,0x1
   19cb8:	2be080e7          	jalr	702(ra) # 1af72 <memcpy>
   19cbc:	01845513          	srli	a0,s0,0x18
   19cc0:	01045593          	srli	a1,s0,0x10
   19cc4:	00845613          	srli	a2,s0,0x8
   19cc8:	768909a3          	sb	s0,1907(s2)
   19ccc:	76c90a23          	sb	a2,1908(s2)
   19cd0:	76b90aa3          	sb	a1,1909(s2)
   19cd4:	76a90b23          	sb	a0,1910(s2)
   19cd8:	7ff10513          	addi	a0,sp,2047
   19cdc:	70650513          	addi	a0,a0,1798
   19ce0:	6585                	lui	a1,0x1
   19ce2:	32058593          	addi	a1,a1,800 # 1320 <.Lline_table_start1+0x10f5>
   19ce6:	958a                	add	a1,a1,sp
   19ce8:	03500613          	li	a2,53
   19cec:	00001097          	auipc	ra,0x1
   19cf0:	286080e7          	jalr	646(ra) # 1af72 <memcpy>
   19cf4:	6505                	lui	a0,0x1
   19cf6:	37c50513          	addi	a0,a0,892 # 137c <.Lline_table_start1+0x1151>
   19cfa:	950a                	add	a0,a0,sp
   19cfc:	7ff10593          	addi	a1,sp,2047
   19d00:	6ff58593          	addi	a1,a1,1791
   19d04:	ffffb097          	auipc	ra,0xffffb
   19d08:	ba6080e7          	jalr	-1114(ra) # 148aa <_ZN20complex_full_dynamic3app17h974ad76dc273766aE>
   19d0c:	3eca4503          	lbu	a0,1004(s4)
   19d10:	44051de3          	bnez	a0,1a96a <_start+0x3cc8>
   19d14:	3eea4503          	lbu	a0,1006(s4)
   19d18:	3eda4583          	lbu	a1,1005(s4)
   19d1c:	3efa4603          	lbu	a2,1007(s4)
   19d20:	3f0a2403          	lw	s0,1008(s4)
   19d24:	0522                	slli	a0,a0,0x8
   19d26:	8d4d                	or	a0,a0,a1
   19d28:	7aa91623          	sh	a0,1964(s2)
   19d2c:	7ac90723          	sb	a2,1966(s2)
   19d30:	6505                	lui	a0,0x1
   19d32:	38450513          	addi	a0,a0,900 # 1384 <.Lline_table_start1+0x1159>
   19d36:	00a105b3          	add	a1,sp,a0
   19d3a:	6505                	lui	a0,0x1
   19d3c:	32050513          	addi	a0,a0,800 # 1320 <.Lline_table_start1+0x10f5>
   19d40:	950a                	add	a0,a0,sp
   19d42:	02500613          	li	a2,37
   19d46:	00001097          	auipc	ra,0x1
   19d4a:	22c080e7          	jalr	556(ra) # 1af72 <memcpy>
   19d4e:	01845513          	srli	a0,s0,0x18
   19d52:	01045593          	srli	a1,s0,0x10
   19d56:	00845613          	srli	a2,s0,0x8
   19d5a:	7a8907a3          	sb	s0,1967(s2)
   19d5e:	7ac90823          	sb	a2,1968(s2)
   19d62:	7ab908a3          	sb	a1,1969(s2)
   19d66:	7aa90923          	sb	a0,1970(s2)
   19d6a:	7ff10513          	addi	a0,sp,2047
   19d6e:	74250513          	addi	a0,a0,1858
   19d72:	6585                	lui	a1,0x1
   19d74:	32058593          	addi	a1,a1,800 # 1320 <.Lline_table_start1+0x10f5>
   19d78:	958a                	add	a1,a1,sp
   19d7a:	02500613          	li	a2,37
   19d7e:	00001097          	auipc	ra,0x1
   19d82:	1f4080e7          	jalr	500(ra) # 1af72 <memcpy>
   19d86:	6505                	lui	a0,0x1
   19d88:	37c50513          	addi	a0,a0,892 # 137c <.Lline_table_start1+0x1151>
   19d8c:	950a                	add	a0,a0,sp
   19d8e:	7ff10593          	addi	a1,sp,2047
   19d92:	73b58593          	addi	a1,a1,1851
   19d96:	ffffc097          	auipc	ra,0xffffc
   19d9a:	b96080e7          	jalr	-1130(ra) # 1592c <_ZN20complex_full_dynamic3app17hce6a759c8d31d64aE>
   19d9e:	3eca4503          	lbu	a0,1004(s4)
   19da2:	3c0514e3          	bnez	a0,1a96a <_start+0x3cc8>
   19da6:	3eda4503          	lbu	a0,1005(s4)
   19daa:	3eea4583          	lbu	a1,1006(s4)
   19dae:	3efa4603          	lbu	a2,1007(s4)
   19db2:	3f0a2683          	lw	a3,1008(s4)
   19db6:	3f4a2703          	lw	a4,1012(s4)
   19dba:	3f8a2783          	lw	a5,1016(s4)
   19dbe:	3fca2483          	lw	s1,1020(s4)
   19dc2:	400a2403          	lw	s0,1024(s4)
   19dc6:	38ea2823          	sw	a4,912(s4)
   19dca:	38fa2a23          	sw	a5,916(s4)
   19dce:	389a2c23          	sw	s1,920(s4)
   19dd2:	388a2e23          	sw	s0,924(s4)
   19dd6:	404a2703          	lw	a4,1028(s4)
   19dda:	408a2783          	lw	a5,1032(s4)
   19dde:	40ca2483          	lw	s1,1036(s4)
   19de2:	410a2403          	lw	s0,1040(s4)
   19de6:	05a2                	slli	a1,a1,0x8
   19de8:	3aea2023          	sw	a4,928(s4)
   19dec:	3afa2223          	sw	a5,932(s4)
   19df0:	3a9a2423          	sw	s1,936(s4)
   19df4:	3a8a2623          	sw	s0,940(s4)
   19df8:	0186d713          	srli	a4,a3,0x18
   19dfc:	8d4d                	or	a0,a0,a1
   19dfe:	0106d593          	srli	a1,a3,0x10
   19e02:	7cb90ea3          	sb	a1,2013(s2)
   19e06:	7ce90f23          	sb	a4,2014(s2)
   19e0a:	0086d593          	srli	a1,a3,0x8
   19e0e:	7ca91c23          	sh	a0,2008(s2)
   19e12:	7cc90d23          	sb	a2,2010(s2)
   19e16:	7cd90da3          	sb	a3,2011(s2)
   19e1a:	7cb90e23          	sb	a1,2012(s2)
   19e1e:	7ff10513          	addi	a0,sp,2047
   19e22:	76e50513          	addi	a0,a0,1902
   19e26:	6585                	lui	a1,0x1
   19e28:	32058593          	addi	a1,a1,800 # 1320 <.Lline_table_start1+0x10f5>
   19e2c:	958a                	add	a1,a1,sp
   19e2e:	02000613          	li	a2,32
   19e32:	00001097          	auipc	ra,0x1
   19e36:	140080e7          	jalr	320(ra) # 1af72 <memcpy>
   19e3a:	6505                	lui	a0,0x1
   19e3c:	37c50513          	addi	a0,a0,892 # 137c <.Lline_table_start1+0x1151>
   19e40:	950a                	add	a0,a0,sp
   19e42:	7ff10593          	addi	a1,sp,2047
   19e46:	76758593          	addi	a1,a1,1895
   19e4a:	ffff8097          	auipc	ra,0xffff8
   19e4e:	080080e7          	jalr	128(ra) # 11eca <_ZN20complex_full_dynamic3app17h1e20a8cd901ed96aE>
   19e52:	3eca4503          	lbu	a0,1004(s4)
   19e56:	30051ae3          	bnez	a0,1a96a <_start+0x3cc8>
   19e5a:	3eea4503          	lbu	a0,1006(s4)
   19e5e:	3eda4583          	lbu	a1,1005(s4)
   19e62:	3efa4603          	lbu	a2,1007(s4)
   19e66:	3f0a2403          	lw	s0,1008(s4)
   19e6a:	0522                	slli	a0,a0,0x8
   19e6c:	8d4d                	or	a0,a0,a1
   19e6e:	feaa1f23          	sh	a0,-2(s4)
   19e72:	00ca0023          	sb	a2,0(s4)
   19e76:	6505                	lui	a0,0x1
   19e78:	38450513          	addi	a0,a0,900 # 1384 <.Lline_table_start1+0x1159>
   19e7c:	00a105b3          	add	a1,sp,a0
   19e80:	6505                	lui	a0,0x1
   19e82:	32050513          	addi	a0,a0,800 # 1320 <.Lline_table_start1+0x10f5>
   19e86:	950a                	add	a0,a0,sp
   19e88:	04800613          	li	a2,72
   19e8c:	00001097          	auipc	ra,0x1
   19e90:	0e6080e7          	jalr	230(ra) # 1af72 <memcpy>
   19e94:	01845513          	srli	a0,s0,0x18
   19e98:	01045593          	srli	a1,s0,0x10
   19e9c:	00845613          	srli	a2,s0,0x8
   19ea0:	008a00a3          	sb	s0,1(s4)
   19ea4:	00ca0123          	sb	a2,2(s4)
   19ea8:	00ba01a3          	sb	a1,3(s4)
   19eac:	00aa0223          	sb	a0,4(s4)
   19eb0:	7ff10513          	addi	a0,sp,2047
   19eb4:	79650513          	addi	a0,a0,1942
   19eb8:	6585                	lui	a1,0x1
   19eba:	32058593          	addi	a1,a1,800 # 1320 <.Lline_table_start1+0x10f5>
   19ebe:	958a                	add	a1,a1,sp
   19ec0:	04800613          	li	a2,72
   19ec4:	00001097          	auipc	ra,0x1
   19ec8:	0ae080e7          	jalr	174(ra) # 1af72 <memcpy>
   19ecc:	6505                	lui	a0,0x1
   19ece:	37c50513          	addi	a0,a0,892 # 137c <.Lline_table_start1+0x1151>
   19ed2:	950a                	add	a0,a0,sp
   19ed4:	7ff10593          	addi	a1,sp,2047
   19ed8:	78f58593          	addi	a1,a1,1935
   19edc:	ffffa097          	auipc	ra,0xffffa
   19ee0:	84c080e7          	jalr	-1972(ra) # 13728 <_ZN20complex_full_dynamic3app17h683878e367986755E>
   19ee4:	3eca4503          	lbu	a0,1004(s4)
   19ee8:	280511e3          	bnez	a0,1a96a <_start+0x3cc8>
   19eec:	3eea4503          	lbu	a0,1006(s4)
   19ef0:	3eda4583          	lbu	a1,1005(s4)
   19ef4:	3efa4603          	lbu	a2,1007(s4)
   19ef8:	3f0a2403          	lw	s0,1008(s4)
   19efc:	0522                	slli	a0,a0,0x8
   19efe:	8d4d                	or	a0,a0,a1
   19f00:	04aa1723          	sh	a0,78(s4)
   19f04:	04ca0823          	sb	a2,80(s4)
   19f08:	6505                	lui	a0,0x1
   19f0a:	38450513          	addi	a0,a0,900 # 1384 <.Lline_table_start1+0x1159>
   19f0e:	00a105b3          	add	a1,sp,a0
   19f12:	6505                	lui	a0,0x1
   19f14:	32050513          	addi	a0,a0,800 # 1320 <.Lline_table_start1+0x10f5>
   19f18:	950a                	add	a0,a0,sp
   19f1a:	02e00613          	li	a2,46
   19f1e:	00001097          	auipc	ra,0x1
   19f22:	054080e7          	jalr	84(ra) # 1af72 <memcpy>
   19f26:	01845513          	srli	a0,s0,0x18
   19f2a:	01045593          	srli	a1,s0,0x10
   19f2e:	00845613          	srli	a2,s0,0x8
   19f32:	048a08a3          	sb	s0,81(s4)
   19f36:	04ca0923          	sb	a2,82(s4)
   19f3a:	04ba09a3          	sb	a1,83(s4)
   19f3e:	04aa0a23          	sb	a0,84(s4)
   19f42:	7ff10513          	addi	a0,sp,2047
   19f46:	7e650513          	addi	a0,a0,2022
   19f4a:	6585                	lui	a1,0x1
   19f4c:	32058593          	addi	a1,a1,800 # 1320 <.Lline_table_start1+0x10f5>
   19f50:	958a                	add	a1,a1,sp
   19f52:	02e00613          	li	a2,46
   19f56:	00001097          	auipc	ra,0x1
   19f5a:	01c080e7          	jalr	28(ra) # 1af72 <memcpy>
   19f5e:	6505                	lui	a0,0x1
   19f60:	37c50513          	addi	a0,a0,892 # 137c <.Lline_table_start1+0x1151>
   19f64:	950a                	add	a0,a0,sp
   19f66:	7ff10593          	addi	a1,sp,2047
   19f6a:	7df58593          	addi	a1,a1,2015
   19f6e:	ffffc097          	auipc	ra,0xffffc
   19f72:	37a080e7          	jalr	890(ra) # 162e8 <_ZN20complex_full_dynamic3app17hebe6c4b14ae0a8ceE>
   19f76:	3eca4503          	lbu	a0,1004(s4)
   19f7a:	1e0518e3          	bnez	a0,1a96a <_start+0x3cc8>
   19f7e:	3eea4503          	lbu	a0,1006(s4)
   19f82:	3eda4583          	lbu	a1,1005(s4)
   19f86:	3efa4603          	lbu	a2,1007(s4)
   19f8a:	3f0a2403          	lw	s0,1008(s4)
   19f8e:	0522                	slli	a0,a0,0x8
   19f90:	8d4d                	or	a0,a0,a1
   19f92:	08aa1223          	sh	a0,132(s4)
   19f96:	08ca0323          	sb	a2,134(s4)
   19f9a:	6505                	lui	a0,0x1
   19f9c:	38450513          	addi	a0,a0,900 # 1384 <.Lline_table_start1+0x1159>
   19fa0:	00a105b3          	add	a1,sp,a0
   19fa4:	6505                	lui	a0,0x1
   19fa6:	32050513          	addi	a0,a0,800 # 1320 <.Lline_table_start1+0x10f5>
   19faa:	950a                	add	a0,a0,sp
   19fac:	03800613          	li	a2,56
   19fb0:	00001097          	auipc	ra,0x1
   19fb4:	fc2080e7          	jalr	-62(ra) # 1af72 <memcpy>
   19fb8:	01845513          	srli	a0,s0,0x18
   19fbc:	01045593          	srli	a1,s0,0x10
   19fc0:	00845613          	srli	a2,s0,0x8
   19fc4:	088a03a3          	sb	s0,135(s4)
   19fc8:	08ca0423          	sb	a2,136(s4)
   19fcc:	08ba04a3          	sb	a1,137(s4)
   19fd0:	08aa0523          	sb	a0,138(s4)
   19fd4:	6505                	lui	a0,0x1
   19fd6:	056d                	addi	a0,a0,27 # 101b <.Lline_table_start1+0xdf0>
   19fd8:	950a                	add	a0,a0,sp
   19fda:	6585                	lui	a1,0x1
   19fdc:	32058593          	addi	a1,a1,800 # 1320 <.Lline_table_start1+0x10f5>
   19fe0:	958a                	add	a1,a1,sp
   19fe2:	03800613          	li	a2,56
   19fe6:	00001097          	auipc	ra,0x1
   19fea:	f8c080e7          	jalr	-116(ra) # 1af72 <memcpy>
   19fee:	6505                	lui	a0,0x1
   19ff0:	37c50513          	addi	a0,a0,892 # 137c <.Lline_table_start1+0x1151>
   19ff4:	950a                	add	a0,a0,sp
   19ff6:	6585                	lui	a1,0x1
   19ff8:	05d1                	addi	a1,a1,20 # 1014 <.Lline_table_start1+0xde9>
   19ffa:	958a                	add	a1,a1,sp
   19ffc:	ffffa097          	auipc	ra,0xffffa
   1a000:	828080e7          	jalr	-2008(ra) # 13824 <_ZN20complex_full_dynamic3app17h6d45b41a517dc24fE>
   1a004:	3eca4503          	lbu	a0,1004(s4)
   1a008:	160511e3          	bnez	a0,1a96a <_start+0x3cc8>
   1a00c:	3eda4503          	lbu	a0,1005(s4)
   1a010:	3eea4583          	lbu	a1,1006(s4)
   1a014:	3efa4603          	lbu	a2,1007(s4)
   1a018:	3f0a2683          	lw	a3,1008(s4)
   1a01c:	3f4a2703          	lw	a4,1012(s4)
   1a020:	3f8a2783          	lw	a5,1016(s4)
   1a024:	3fca1483          	lh	s1,1020(s4)
   1a028:	05a2                	slli	a1,a1,0x8
   1a02a:	38ea2823          	sw	a4,912(s4)
   1a02e:	38fa2a23          	sw	a5,916(s4)
   1a032:	389a1c23          	sh	s1,920(s4)
   1a036:	0186d713          	srli	a4,a3,0x18
   1a03a:	8d4d                	or	a0,a0,a1
   1a03c:	0106d593          	srli	a1,a3,0x10
   1a040:	0cba04a3          	sb	a1,201(s4)
   1a044:	0cea0523          	sb	a4,202(s4)
   1a048:	0086d593          	srli	a1,a3,0x8
   1a04c:	0caa1223          	sh	a0,196(s4)
   1a050:	0cca0323          	sb	a2,198(s4)
   1a054:	0cda03a3          	sb	a3,199(s4)
   1a058:	0cba0423          	sb	a1,200(s4)
   1a05c:	6505                	lui	a0,0x1
   1a05e:	05b50513          	addi	a0,a0,91 # 105b <.Lline_table_start1+0xe30>
   1a062:	950a                	add	a0,a0,sp
   1a064:	6585                	lui	a1,0x1
   1a066:	32058593          	addi	a1,a1,800 # 1320 <.Lline_table_start1+0x10f5>
   1a06a:	958a                	add	a1,a1,sp
   1a06c:	4629                	li	a2,10
   1a06e:	00001097          	auipc	ra,0x1
   1a072:	f04080e7          	jalr	-252(ra) # 1af72 <memcpy>
   1a076:	6505                	lui	a0,0x1
   1a078:	37c50513          	addi	a0,a0,892 # 137c <.Lline_table_start1+0x1151>
   1a07c:	950a                	add	a0,a0,sp
   1a07e:	6585                	lui	a1,0x1
   1a080:	05458593          	addi	a1,a1,84 # 1054 <.Lline_table_start1+0xe29>
   1a084:	958a                	add	a1,a1,sp
   1a086:	ffffb097          	auipc	ra,0xffffb
   1a08a:	1e0080e7          	jalr	480(ra) # 15266 <_ZN20complex_full_dynamic3app17hb4b867df5ea095c4E>
   1a08e:	3eca4503          	lbu	a0,1004(s4)
   1a092:	0c051ce3          	bnez	a0,1a96a <_start+0x3cc8>
   1a096:	3eea4503          	lbu	a0,1006(s4)
   1a09a:	3eda4583          	lbu	a1,1005(s4)
   1a09e:	3efa4603          	lbu	a2,1007(s4)
   1a0a2:	3f0a2403          	lw	s0,1008(s4)
   1a0a6:	0522                	slli	a0,a0,0x8
   1a0a8:	8d4d                	or	a0,a0,a1
   1a0aa:	0caa1b23          	sh	a0,214(s4)
   1a0ae:	0cca0c23          	sb	a2,216(s4)
   1a0b2:	6505                	lui	a0,0x1
   1a0b4:	38450513          	addi	a0,a0,900 # 1384 <.Lline_table_start1+0x1159>
   1a0b8:	00a105b3          	add	a1,sp,a0
   1a0bc:	6505                	lui	a0,0x1
   1a0be:	32050513          	addi	a0,a0,800 # 1320 <.Lline_table_start1+0x10f5>
   1a0c2:	950a                	add	a0,a0,sp
   1a0c4:	03800613          	li	a2,56
   1a0c8:	00001097          	auipc	ra,0x1
   1a0cc:	eaa080e7          	jalr	-342(ra) # 1af72 <memcpy>
   1a0d0:	01845513          	srli	a0,s0,0x18
   1a0d4:	01045593          	srli	a1,s0,0x10
   1a0d8:	00845613          	srli	a2,s0,0x8
   1a0dc:	0c8a0ca3          	sb	s0,217(s4)
   1a0e0:	0cca0d23          	sb	a2,218(s4)
   1a0e4:	0cba0da3          	sb	a1,219(s4)
   1a0e8:	0caa0e23          	sb	a0,220(s4)
   1a0ec:	6505                	lui	a0,0x1
   1a0ee:	06d50513          	addi	a0,a0,109 # 106d <.Lline_table_start1+0xe42>
   1a0f2:	950a                	add	a0,a0,sp
   1a0f4:	6585                	lui	a1,0x1
   1a0f6:	32058593          	addi	a1,a1,800 # 1320 <.Lline_table_start1+0x10f5>
   1a0fa:	958a                	add	a1,a1,sp
   1a0fc:	03800613          	li	a2,56
   1a100:	00001097          	auipc	ra,0x1
   1a104:	e72080e7          	jalr	-398(ra) # 1af72 <memcpy>
   1a108:	6505                	lui	a0,0x1
   1a10a:	37c50513          	addi	a0,a0,892 # 137c <.Lline_table_start1+0x1151>
   1a10e:	950a                	add	a0,a0,sp
   1a110:	6585                	lui	a1,0x1
   1a112:	06658593          	addi	a1,a1,102 # 1066 <.Lline_table_start1+0xe3b>
   1a116:	958a                	add	a1,a1,sp
   1a118:	ffff9097          	auipc	ra,0xffff9
   1a11c:	32e080e7          	jalr	814(ra) # 13446 <_ZN20complex_full_dynamic3app17h65f14d0ff0606077E>
   1a120:	3eca4503          	lbu	a0,1004(s4)
   1a124:	040513e3          	bnez	a0,1a96a <_start+0x3cc8>
   1a128:	3eda4503          	lbu	a0,1005(s4)
   1a12c:	3eea4583          	lbu	a1,1006(s4)
   1a130:	3f4a2603          	lw	a2,1012(s4)
   1a134:	3f8a2683          	lw	a3,1016(s4)
   1a138:	3fca2703          	lw	a4,1020(s4)
   1a13c:	400a2783          	lw	a5,1024(s4)
   1a140:	404a2483          	lw	s1,1028(s4)
   1a144:	408a4403          	lbu	s0,1032(s4)
   1a148:	38ca2823          	sw	a2,912(s4)
   1a14c:	38da2a23          	sw	a3,916(s4)
   1a150:	38ea2c23          	sw	a4,920(s4)
   1a154:	38fa2e23          	sw	a5,924(s4)
   1a158:	3efa4603          	lbu	a2,1007(s4)
   1a15c:	3f0a2683          	lw	a3,1008(s4)
   1a160:	05a2                	slli	a1,a1,0x8
   1a162:	3a9a2023          	sw	s1,928(s4)
   1a166:	3a8a0223          	sb	s0,932(s4)
   1a16a:	0186d713          	srli	a4,a3,0x18
   1a16e:	8d4d                	or	a0,a0,a1
   1a170:	0106d593          	srli	a1,a3,0x10
   1a174:	10ba0da3          	sb	a1,283(s4)
   1a178:	10ea0e23          	sb	a4,284(s4)
   1a17c:	0086d593          	srli	a1,a3,0x8
   1a180:	10aa1b23          	sh	a0,278(s4)
   1a184:	10ca0c23          	sb	a2,280(s4)
   1a188:	10da0ca3          	sb	a3,281(s4)
   1a18c:	10ba0d23          	sb	a1,282(s4)
   1a190:	6505                	lui	a0,0x1
   1a192:	0ad50513          	addi	a0,a0,173 # 10ad <.Lline_table_start1+0xe82>
   1a196:	950a                	add	a0,a0,sp
   1a198:	6585                	lui	a1,0x1
   1a19a:	32058593          	addi	a1,a1,800 # 1320 <.Lline_table_start1+0x10f5>
   1a19e:	958a                	add	a1,a1,sp
   1a1a0:	4655                	li	a2,21
   1a1a2:	00001097          	auipc	ra,0x1
   1a1a6:	dd0080e7          	jalr	-560(ra) # 1af72 <memcpy>
   1a1aa:	6505                	lui	a0,0x1
   1a1ac:	37c50513          	addi	a0,a0,892 # 137c <.Lline_table_start1+0x1151>
   1a1b0:	950a                	add	a0,a0,sp
   1a1b2:	6585                	lui	a1,0x1
   1a1b4:	0a658593          	addi	a1,a1,166 # 10a6 <.Lline_table_start1+0xe7b>
   1a1b8:	958a                	add	a1,a1,sp
   1a1ba:	ffff8097          	auipc	ra,0xffff8
   1a1be:	a22080e7          	jalr	-1502(ra) # 11bdc <_ZN20complex_full_dynamic3app17h17f00b5b3f789598E>
   1a1c2:	3eca4503          	lbu	a0,1004(s4)
   1a1c6:	7a051263          	bnez	a0,1a96a <_start+0x3cc8>
   1a1ca:	3eea4503          	lbu	a0,1006(s4)
   1a1ce:	3eda4583          	lbu	a1,1005(s4)
   1a1d2:	3efa4603          	lbu	a2,1007(s4)
   1a1d6:	3f0a2403          	lw	s0,1008(s4)
   1a1da:	0522                	slli	a0,a0,0x8
   1a1dc:	8d4d                	or	a0,a0,a1
   1a1de:	12aa1923          	sh	a0,306(s4)
   1a1e2:	12ca0a23          	sb	a2,308(s4)
   1a1e6:	6505                	lui	a0,0x1
   1a1e8:	38450513          	addi	a0,a0,900 # 1384 <.Lline_table_start1+0x1159>
   1a1ec:	00a105b3          	add	a1,sp,a0
   1a1f0:	6505                	lui	a0,0x1
   1a1f2:	32050513          	addi	a0,a0,800 # 1320 <.Lline_table_start1+0x10f5>
   1a1f6:	950a                	add	a0,a0,sp
   1a1f8:	05600613          	li	a2,86
   1a1fc:	00001097          	auipc	ra,0x1
   1a200:	d76080e7          	jalr	-650(ra) # 1af72 <memcpy>
   1a204:	01845513          	srli	a0,s0,0x18
   1a208:	01045593          	srli	a1,s0,0x10
   1a20c:	00845613          	srli	a2,s0,0x8
   1a210:	128a0aa3          	sb	s0,309(s4)
   1a214:	12ca0b23          	sb	a2,310(s4)
   1a218:	12ba0ba3          	sb	a1,311(s4)
   1a21c:	12aa0c23          	sb	a0,312(s4)
   1a220:	6505                	lui	a0,0x1
   1a222:	0c950513          	addi	a0,a0,201 # 10c9 <.Lline_table_start1+0xe9e>
   1a226:	950a                	add	a0,a0,sp
   1a228:	6585                	lui	a1,0x1
   1a22a:	32058593          	addi	a1,a1,800 # 1320 <.Lline_table_start1+0x10f5>
   1a22e:	958a                	add	a1,a1,sp
   1a230:	05600613          	li	a2,86
   1a234:	00001097          	auipc	ra,0x1
   1a238:	d3e080e7          	jalr	-706(ra) # 1af72 <memcpy>
   1a23c:	6505                	lui	a0,0x1
   1a23e:	37c50513          	addi	a0,a0,892 # 137c <.Lline_table_start1+0x1151>
   1a242:	950a                	add	a0,a0,sp
   1a244:	6585                	lui	a1,0x1
   1a246:	0c258593          	addi	a1,a1,194 # 10c2 <.Lline_table_start1+0xe97>
   1a24a:	958a                	add	a1,a1,sp
   1a24c:	ffffb097          	auipc	ra,0xffffb
   1a250:	5ee080e7          	jalr	1518(ra) # 1583a <_ZN20complex_full_dynamic3app17hccf9113eaf109e13E>
   1a254:	3eca4503          	lbu	a0,1004(s4)
   1a258:	70051963          	bnez	a0,1a96a <_start+0x3cc8>
   1a25c:	3eda4503          	lbu	a0,1005(s4)
   1a260:	3eea4583          	lbu	a1,1006(s4)
   1a264:	3efa4603          	lbu	a2,1007(s4)
   1a268:	3f0a2683          	lw	a3,1008(s4)
   1a26c:	3f4a2703          	lw	a4,1012(s4)
   1a270:	3f8a2783          	lw	a5,1016(s4)
   1a274:	3fca1483          	lh	s1,1020(s4)
   1a278:	3fea4403          	lbu	s0,1022(s4)
   1a27c:	05a2                	slli	a1,a1,0x8
   1a27e:	38ea2823          	sw	a4,912(s4)
   1a282:	38fa2a23          	sw	a5,916(s4)
   1a286:	389a1c23          	sh	s1,920(s4)
   1a28a:	388a0d23          	sb	s0,922(s4)
   1a28e:	0186d713          	srli	a4,a3,0x18
   1a292:	8d4d                	or	a0,a0,a1
   1a294:	0106d593          	srli	a1,a3,0x10
   1a298:	18ba0aa3          	sb	a1,405(s4)
   1a29c:	18ea0b23          	sb	a4,406(s4)
   1a2a0:	0086d593          	srli	a1,a3,0x8
   1a2a4:	18aa1823          	sh	a0,400(s4)
   1a2a8:	18ca0923          	sb	a2,402(s4)
   1a2ac:	18da09a3          	sb	a3,403(s4)
   1a2b0:	18ba0a23          	sb	a1,404(s4)
   1a2b4:	6505                	lui	a0,0x1
   1a2b6:	12750513          	addi	a0,a0,295 # 1127 <.Lline_table_start1+0xefc>
   1a2ba:	950a                	add	a0,a0,sp
   1a2bc:	6585                	lui	a1,0x1
   1a2be:	32058593          	addi	a1,a1,800 # 1320 <.Lline_table_start1+0x10f5>
   1a2c2:	958a                	add	a1,a1,sp
   1a2c4:	462d                	li	a2,11
   1a2c6:	00001097          	auipc	ra,0x1
   1a2ca:	cac080e7          	jalr	-852(ra) # 1af72 <memcpy>
   1a2ce:	6505                	lui	a0,0x1
   1a2d0:	37c50513          	addi	a0,a0,892 # 137c <.Lline_table_start1+0x1151>
   1a2d4:	950a                	add	a0,a0,sp
   1a2d6:	6585                	lui	a1,0x1
   1a2d8:	12058593          	addi	a1,a1,288 # 1120 <.Lline_table_start1+0xef5>
   1a2dc:	958a                	add	a1,a1,sp
   1a2de:	ffffc097          	auipc	ra,0xffffc
   1a2e2:	2f4080e7          	jalr	756(ra) # 165d2 <_ZN20complex_full_dynamic3app17heff7bd4302ebc819E>
   1a2e6:	3eca4503          	lbu	a0,1004(s4)
   1a2ea:	68051063          	bnez	a0,1a96a <_start+0x3cc8>
   1a2ee:	3eea4503          	lbu	a0,1006(s4)
   1a2f2:	3eda4583          	lbu	a1,1005(s4)
   1a2f6:	3efa4603          	lbu	a2,1007(s4)
   1a2fa:	3f0a2403          	lw	s0,1008(s4)
   1a2fe:	0522                	slli	a0,a0,0x8
   1a300:	8d4d                	or	a0,a0,a1
   1a302:	1aaa1123          	sh	a0,418(s4)
   1a306:	1aca0223          	sb	a2,420(s4)
   1a30a:	6505                	lui	a0,0x1
   1a30c:	38450513          	addi	a0,a0,900 # 1384 <.Lline_table_start1+0x1159>
   1a310:	00a105b3          	add	a1,sp,a0
   1a314:	6505                	lui	a0,0x1
   1a316:	32050513          	addi	a0,a0,800 # 1320 <.Lline_table_start1+0x10f5>
   1a31a:	950a                	add	a0,a0,sp
   1a31c:	03d00613          	li	a2,61
   1a320:	00001097          	auipc	ra,0x1
   1a324:	c52080e7          	jalr	-942(ra) # 1af72 <memcpy>
   1a328:	01845513          	srli	a0,s0,0x18
   1a32c:	01045593          	srli	a1,s0,0x10
   1a330:	00845613          	srli	a2,s0,0x8
   1a334:	1a8a02a3          	sb	s0,421(s4)
   1a338:	1aca0323          	sb	a2,422(s4)
   1a33c:	1aba03a3          	sb	a1,423(s4)
   1a340:	1aaa0423          	sb	a0,424(s4)
   1a344:	6505                	lui	a0,0x1
   1a346:	13950513          	addi	a0,a0,313 # 1139 <.Lline_table_start1+0xf0e>
   1a34a:	950a                	add	a0,a0,sp
   1a34c:	6585                	lui	a1,0x1
   1a34e:	32058593          	addi	a1,a1,800 # 1320 <.Lline_table_start1+0x10f5>
   1a352:	958a                	add	a1,a1,sp
   1a354:	03d00613          	li	a2,61
   1a358:	00001097          	auipc	ra,0x1
   1a35c:	c1a080e7          	jalr	-998(ra) # 1af72 <memcpy>
   1a360:	6505                	lui	a0,0x1
   1a362:	37c50513          	addi	a0,a0,892 # 137c <.Lline_table_start1+0x1151>
   1a366:	950a                	add	a0,a0,sp
   1a368:	6585                	lui	a1,0x1
   1a36a:	13258593          	addi	a1,a1,306 # 1132 <.Lline_table_start1+0xf07>
   1a36e:	958a                	add	a1,a1,sp
   1a370:	ffffd097          	auipc	ra,0xffffd
   1a374:	838080e7          	jalr	-1992(ra) # 16ba8 <_ZN20complex_full_dynamic3app17hffd3bb81067d25fcE>
   1a378:	3eca4503          	lbu	a0,1004(s4)
   1a37c:	5e051763          	bnez	a0,1a96a <_start+0x3cc8>
   1a380:	3eda4503          	lbu	a0,1005(s4)
   1a384:	3eea4583          	lbu	a1,1006(s4)
   1a388:	3efa4603          	lbu	a2,1007(s4)
   1a38c:	3f0a2683          	lw	a3,1008(s4)
   1a390:	3f4a2703          	lw	a4,1012(s4)
   1a394:	3f8a2783          	lw	a5,1016(s4)
   1a398:	3fca2483          	lw	s1,1020(s4)
   1a39c:	400a2403          	lw	s0,1024(s4)
   1a3a0:	38ea2823          	sw	a4,912(s4)
   1a3a4:	38fa2a23          	sw	a5,916(s4)
   1a3a8:	389a2c23          	sw	s1,920(s4)
   1a3ac:	388a2e23          	sw	s0,924(s4)
   1a3b0:	404a2703          	lw	a4,1028(s4)
   1a3b4:	408a2783          	lw	a5,1032(s4)
   1a3b8:	40ca2483          	lw	s1,1036(s4)
   1a3bc:	05a2                	slli	a1,a1,0x8
   1a3be:	3aea2023          	sw	a4,928(s4)
   1a3c2:	3afa2223          	sw	a5,932(s4)
   1a3c6:	3a9a2423          	sw	s1,936(s4)
   1a3ca:	0186d713          	srli	a4,a3,0x18
   1a3ce:	8d4d                	or	a0,a0,a1
   1a3d0:	0106d593          	srli	a1,a3,0x10
   1a3d4:	1eba05a3          	sb	a1,491(s4)
   1a3d8:	1eea0623          	sb	a4,492(s4)
   1a3dc:	0086d593          	srli	a1,a3,0x8
   1a3e0:	1eaa1323          	sh	a0,486(s4)
   1a3e4:	1eca0423          	sb	a2,488(s4)
   1a3e8:	1eda04a3          	sb	a3,489(s4)
   1a3ec:	1eba0523          	sb	a1,490(s4)
   1a3f0:	6505                	lui	a0,0x1
   1a3f2:	17d50513          	addi	a0,a0,381 # 117d <.Lline_table_start1+0xf52>
   1a3f6:	950a                	add	a0,a0,sp
   1a3f8:	6585                	lui	a1,0x1
   1a3fa:	32058593          	addi	a1,a1,800 # 1320 <.Lline_table_start1+0x10f5>
   1a3fe:	958a                	add	a1,a1,sp
   1a400:	4671                	li	a2,28
   1a402:	00001097          	auipc	ra,0x1
   1a406:	b70080e7          	jalr	-1168(ra) # 1af72 <memcpy>
   1a40a:	6505                	lui	a0,0x1
   1a40c:	37c50513          	addi	a0,a0,892 # 137c <.Lline_table_start1+0x1151>
   1a410:	950a                	add	a0,a0,sp
   1a412:	6585                	lui	a1,0x1
   1a414:	17658593          	addi	a1,a1,374 # 1176 <.Lline_table_start1+0xf4b>
   1a418:	958a                	add	a1,a1,sp
   1a41a:	ffffc097          	auipc	ra,0xffffc
   1a41e:	694080e7          	jalr	1684(ra) # 16aae <_ZN20complex_full_dynamic3app17hfd716ea993af3074E>
   1a422:	3eca4503          	lbu	a0,1004(s4)
   1a426:	54051263          	bnez	a0,1a96a <_start+0x3cc8>
   1a42a:	3eda4503          	lbu	a0,1005(s4)
   1a42e:	3eea4583          	lbu	a1,1006(s4)
   1a432:	3efa4603          	lbu	a2,1007(s4)
   1a436:	3f0a2683          	lw	a3,1008(s4)
   1a43a:	3f4a2703          	lw	a4,1012(s4)
   1a43e:	3f8a2783          	lw	a5,1016(s4)
   1a442:	3fca2483          	lw	s1,1020(s4)
   1a446:	400a2403          	lw	s0,1024(s4)
   1a44a:	38ea2823          	sw	a4,912(s4)
   1a44e:	38fa2a23          	sw	a5,916(s4)
   1a452:	389a2c23          	sw	s1,920(s4)
   1a456:	388a2e23          	sw	s0,924(s4)
   1a45a:	404a2703          	lw	a4,1028(s4)
   1a45e:	408a2783          	lw	a5,1032(s4)
   1a462:	40ca2483          	lw	s1,1036(s4)
   1a466:	410a4403          	lbu	s0,1040(s4)
   1a46a:	05a2                	slli	a1,a1,0x8
   1a46c:	3aea2023          	sw	a4,928(s4)
   1a470:	3afa2223          	sw	a5,932(s4)
   1a474:	3a9a2423          	sw	s1,936(s4)
   1a478:	3a8a0623          	sb	s0,940(s4)
   1a47c:	0186d713          	srli	a4,a3,0x18
   1a480:	8d4d                	or	a0,a0,a1
   1a482:	0106d593          	srli	a1,a3,0x10
   1a486:	20ba07a3          	sb	a1,527(s4)
   1a48a:	20ea0823          	sb	a4,528(s4)
   1a48e:	0086d593          	srli	a1,a3,0x8
   1a492:	20aa1523          	sh	a0,522(s4)
   1a496:	20ca0623          	sb	a2,524(s4)
   1a49a:	20da06a3          	sb	a3,525(s4)
   1a49e:	20ba0723          	sb	a1,526(s4)
   1a4a2:	6505                	lui	a0,0x1
   1a4a4:	1a150513          	addi	a0,a0,417 # 11a1 <.Lline_table_start1+0xf76>
   1a4a8:	950a                	add	a0,a0,sp
   1a4aa:	6585                	lui	a1,0x1
   1a4ac:	32058593          	addi	a1,a1,800 # 1320 <.Lline_table_start1+0x10f5>
   1a4b0:	958a                	add	a1,a1,sp
   1a4b2:	4675                	li	a2,29
   1a4b4:	00001097          	auipc	ra,0x1
   1a4b8:	abe080e7          	jalr	-1346(ra) # 1af72 <memcpy>
   1a4bc:	6505                	lui	a0,0x1
   1a4be:	37c50513          	addi	a0,a0,892 # 137c <.Lline_table_start1+0x1151>
   1a4c2:	950a                	add	a0,a0,sp
   1a4c4:	6585                	lui	a1,0x1
   1a4c6:	19a58593          	addi	a1,a1,410 # 119a <.Lline_table_start1+0xf6f>
   1a4ca:	958a                	add	a1,a1,sp
   1a4cc:	ffffa097          	auipc	ra,0xffffa
   1a4d0:	4da080e7          	jalr	1242(ra) # 149a6 <_ZN20complex_full_dynamic3app17h97ae5af537735097E>
   1a4d4:	3eca4503          	lbu	a0,1004(s4)
   1a4d8:	48051963          	bnez	a0,1a96a <_start+0x3cc8>
   1a4dc:	3eea4503          	lbu	a0,1006(s4)
   1a4e0:	3eda4583          	lbu	a1,1005(s4)
   1a4e4:	3efa4603          	lbu	a2,1007(s4)
   1a4e8:	3f0a2403          	lw	s0,1008(s4)
   1a4ec:	0522                	slli	a0,a0,0x8
   1a4ee:	8d4d                	or	a0,a0,a1
   1a4f0:	22aa1723          	sh	a0,558(s4)
   1a4f4:	22ca0823          	sb	a2,560(s4)
   1a4f8:	6505                	lui	a0,0x1
   1a4fa:	38450513          	addi	a0,a0,900 # 1384 <.Lline_table_start1+0x1159>
   1a4fe:	00a105b3          	add	a1,sp,a0
   1a502:	6505                	lui	a0,0x1
   1a504:	32050513          	addi	a0,a0,800 # 1320 <.Lline_table_start1+0x10f5>
   1a508:	950a                	add	a0,a0,sp
   1a50a:	02800613          	li	a2,40
   1a50e:	00001097          	auipc	ra,0x1
   1a512:	a64080e7          	jalr	-1436(ra) # 1af72 <memcpy>
   1a516:	01845513          	srli	a0,s0,0x18
   1a51a:	01045593          	srli	a1,s0,0x10
   1a51e:	00845613          	srli	a2,s0,0x8
   1a522:	228a08a3          	sb	s0,561(s4)
   1a526:	22ca0923          	sb	a2,562(s4)
   1a52a:	22ba09a3          	sb	a1,563(s4)
   1a52e:	22aa0a23          	sb	a0,564(s4)
   1a532:	6505                	lui	a0,0x1
   1a534:	1c550513          	addi	a0,a0,453 # 11c5 <.Lline_table_start1+0xf9a>
   1a538:	950a                	add	a0,a0,sp
   1a53a:	6585                	lui	a1,0x1
   1a53c:	32058593          	addi	a1,a1,800 # 1320 <.Lline_table_start1+0x10f5>
   1a540:	958a                	add	a1,a1,sp
   1a542:	02800613          	li	a2,40
   1a546:	00001097          	auipc	ra,0x1
   1a54a:	a2c080e7          	jalr	-1492(ra) # 1af72 <memcpy>
   1a54e:	6505                	lui	a0,0x1
   1a550:	37c50513          	addi	a0,a0,892 # 137c <.Lline_table_start1+0x1151>
   1a554:	950a                	add	a0,a0,sp
   1a556:	6585                	lui	a1,0x1
   1a558:	1be58593          	addi	a1,a1,446 # 11be <.Lline_table_start1+0xf93>
   1a55c:	958a                	add	a1,a1,sp
   1a55e:	ffff9097          	auipc	ra,0xffff9
   1a562:	79a080e7          	jalr	1946(ra) # 13cf8 <_ZN20complex_full_dynamic3app17h74447211b42c5b25E>
   1a566:	3eca4503          	lbu	a0,1004(s4)
   1a56a:	40051063          	bnez	a0,1a96a <_start+0x3cc8>
   1a56e:	3eea4503          	lbu	a0,1006(s4)
   1a572:	3eda4583          	lbu	a1,1005(s4)
   1a576:	3efa4603          	lbu	a2,1007(s4)
   1a57a:	3f0a2403          	lw	s0,1008(s4)
   1a57e:	0522                	slli	a0,a0,0x8
   1a580:	8d4d                	or	a0,a0,a1
   1a582:	24aa1f23          	sh	a0,606(s4)
   1a586:	26ca0023          	sb	a2,608(s4)
   1a58a:	6505                	lui	a0,0x1
   1a58c:	38450513          	addi	a0,a0,900 # 1384 <.Lline_table_start1+0x1159>
   1a590:	00a105b3          	add	a1,sp,a0
   1a594:	6505                	lui	a0,0x1
   1a596:	32050513          	addi	a0,a0,800 # 1320 <.Lline_table_start1+0x10f5>
   1a59a:	950a                	add	a0,a0,sp
   1a59c:	05700613          	li	a2,87
   1a5a0:	00001097          	auipc	ra,0x1
   1a5a4:	9d2080e7          	jalr	-1582(ra) # 1af72 <memcpy>
   1a5a8:	01845513          	srli	a0,s0,0x18
   1a5ac:	01045593          	srli	a1,s0,0x10
   1a5b0:	00845613          	srli	a2,s0,0x8
   1a5b4:	268a00a3          	sb	s0,609(s4)
   1a5b8:	26ca0123          	sb	a2,610(s4)
   1a5bc:	26ba01a3          	sb	a1,611(s4)
   1a5c0:	26aa0223          	sb	a0,612(s4)
   1a5c4:	6505                	lui	a0,0x1
   1a5c6:	1f550513          	addi	a0,a0,501 # 11f5 <.Lline_table_start1+0xfca>
   1a5ca:	950a                	add	a0,a0,sp
   1a5cc:	6585                	lui	a1,0x1
   1a5ce:	32058593          	addi	a1,a1,800 # 1320 <.Lline_table_start1+0x10f5>
   1a5d2:	958a                	add	a1,a1,sp
   1a5d4:	05700613          	li	a2,87
   1a5d8:	00001097          	auipc	ra,0x1
   1a5dc:	99a080e7          	jalr	-1638(ra) # 1af72 <memcpy>
   1a5e0:	6505                	lui	a0,0x1
   1a5e2:	37c50513          	addi	a0,a0,892 # 137c <.Lline_table_start1+0x1151>
   1a5e6:	950a                	add	a0,a0,sp
   1a5e8:	6585                	lui	a1,0x1
   1a5ea:	1ee58593          	addi	a1,a1,494 # 11ee <.Lline_table_start1+0xfc3>
   1a5ee:	958a                	add	a1,a1,sp
   1a5f0:	ffffc097          	auipc	ra,0xffffc
   1a5f4:	a10080e7          	jalr	-1520(ra) # 16000 <_ZN20complex_full_dynamic3app17he0a9c5166165c085E>
   1a5f8:	3eca4503          	lbu	a0,1004(s4)
   1a5fc:	36051763          	bnez	a0,1a96a <_start+0x3cc8>
   1a600:	3eea4503          	lbu	a0,1006(s4)
   1a604:	3eda4583          	lbu	a1,1005(s4)
   1a608:	3efa4603          	lbu	a2,1007(s4)
   1a60c:	3f0a2403          	lw	s0,1008(s4)
   1a610:	0522                	slli	a0,a0,0x8
   1a612:	8d4d                	or	a0,a0,a1
   1a614:	2aaa1e23          	sh	a0,700(s4)
   1a618:	2aca0f23          	sb	a2,702(s4)
   1a61c:	6505                	lui	a0,0x1
   1a61e:	38450513          	addi	a0,a0,900 # 1384 <.Lline_table_start1+0x1159>
   1a622:	00a105b3          	add	a1,sp,a0
   1a626:	6505                	lui	a0,0x1
   1a628:	32050513          	addi	a0,a0,800 # 1320 <.Lline_table_start1+0x10f5>
   1a62c:	950a                	add	a0,a0,sp
   1a62e:	04e00613          	li	a2,78
   1a632:	00001097          	auipc	ra,0x1
   1a636:	940080e7          	jalr	-1728(ra) # 1af72 <memcpy>
   1a63a:	01845513          	srli	a0,s0,0x18
   1a63e:	01045593          	srli	a1,s0,0x10
   1a642:	00845613          	srli	a2,s0,0x8
   1a646:	2a8a0fa3          	sb	s0,703(s4)
   1a64a:	2cca0023          	sb	a2,704(s4)
   1a64e:	2cba00a3          	sb	a1,705(s4)
   1a652:	2caa0123          	sb	a0,706(s4)
   1a656:	6505                	lui	a0,0x1
   1a658:	25350513          	addi	a0,a0,595 # 1253 <.Lline_table_start1+0x1028>
   1a65c:	950a                	add	a0,a0,sp
   1a65e:	6585                	lui	a1,0x1
   1a660:	32058593          	addi	a1,a1,800 # 1320 <.Lline_table_start1+0x10f5>
   1a664:	958a                	add	a1,a1,sp
   1a666:	04e00613          	li	a2,78
   1a66a:	00001097          	auipc	ra,0x1
   1a66e:	908080e7          	jalr	-1784(ra) # 1af72 <memcpy>
   1a672:	6505                	lui	a0,0x1
   1a674:	37c50513          	addi	a0,a0,892 # 137c <.Lline_table_start1+0x1151>
   1a678:	950a                	add	a0,a0,sp
   1a67a:	6585                	lui	a1,0x1
   1a67c:	24c58593          	addi	a1,a1,588 # 124c <.Lline_table_start1+0x1021>
   1a680:	958a                	add	a1,a1,sp
   1a682:	ffffb097          	auipc	ra,0xffffb
   1a686:	af2080e7          	jalr	-1294(ra) # 15174 <_ZN20complex_full_dynamic3app17hb320f7cc0cdab317E>
   1a68a:	3eca4503          	lbu	a0,1004(s4)
   1a68e:	2c051e63          	bnez	a0,1a96a <_start+0x3cc8>
   1a692:	3eda4503          	lbu	a0,1005(s4)
   1a696:	3eea4583          	lbu	a1,1006(s4)
   1a69a:	3efa4603          	lbu	a2,1007(s4)
   1a69e:	3f0a2683          	lw	a3,1008(s4)
   1a6a2:	3f4a2703          	lw	a4,1012(s4)
   1a6a6:	3f8a2783          	lw	a5,1016(s4)
   1a6aa:	3fca1483          	lh	s1,1020(s4)
   1a6ae:	05a2                	slli	a1,a1,0x8
   1a6b0:	38ea2823          	sw	a4,912(s4)
   1a6b4:	38fa2a23          	sw	a5,916(s4)
   1a6b8:	389a1c23          	sh	s1,920(s4)
   1a6bc:	0186d713          	srli	a4,a3,0x18
   1a6c0:	8d4d                	or	a0,a0,a1
   1a6c2:	0106d593          	srli	a1,a3,0x10
   1a6c6:	30ba0ba3          	sb	a1,791(s4)
   1a6ca:	30ea0c23          	sb	a4,792(s4)
   1a6ce:	0086d593          	srli	a1,a3,0x8
   1a6d2:	30aa1923          	sh	a0,786(s4)
   1a6d6:	30ca0a23          	sb	a2,788(s4)
   1a6da:	30da0aa3          	sb	a3,789(s4)
   1a6de:	30ba0b23          	sb	a1,790(s4)
   1a6e2:	6505                	lui	a0,0x1
   1a6e4:	2a950513          	addi	a0,a0,681 # 12a9 <.Lline_table_start1+0x107e>
   1a6e8:	950a                	add	a0,a0,sp
   1a6ea:	6585                	lui	a1,0x1
   1a6ec:	32058593          	addi	a1,a1,800 # 1320 <.Lline_table_start1+0x10f5>
   1a6f0:	958a                	add	a1,a1,sp
   1a6f2:	4629                	li	a2,10
   1a6f4:	00001097          	auipc	ra,0x1
   1a6f8:	87e080e7          	jalr	-1922(ra) # 1af72 <memcpy>
   1a6fc:	6505                	lui	a0,0x1
   1a6fe:	37c50513          	addi	a0,a0,892 # 137c <.Lline_table_start1+0x1151>
   1a702:	950a                	add	a0,a0,sp
   1a704:	6585                	lui	a1,0x1
   1a706:	2a258593          	addi	a1,a1,674 # 12a2 <.Lline_table_start1+0x1077>
   1a70a:	958a                	add	a1,a1,sp
   1a70c:	ffff7097          	auipc	ra,0xffff7
   1a710:	6c6080e7          	jalr	1734(ra) # 11dd2 <_ZN20complex_full_dynamic3app17h1ab5186166b3b793E>
   1a714:	3eca4503          	lbu	a0,1004(s4)
   1a718:	24051963          	bnez	a0,1a96a <_start+0x3cc8>
   1a71c:	3eea4503          	lbu	a0,1006(s4)
   1a720:	3eda4583          	lbu	a1,1005(s4)
   1a724:	3efa4603          	lbu	a2,1007(s4)
   1a728:	3f0a2403          	lw	s0,1008(s4)
   1a72c:	0522                	slli	a0,a0,0x8
   1a72e:	8d4d                	or	a0,a0,a1
   1a730:	32aa1223          	sh	a0,804(s4)
   1a734:	32ca0323          	sb	a2,806(s4)
   1a738:	6505                	lui	a0,0x1
   1a73a:	38450513          	addi	a0,a0,900 # 1384 <.Lline_table_start1+0x1159>
   1a73e:	00a105b3          	add	a1,sp,a0
   1a742:	6505                	lui	a0,0x1
   1a744:	32050513          	addi	a0,a0,800 # 1320 <.Lline_table_start1+0x10f5>
   1a748:	950a                	add	a0,a0,sp
   1a74a:	04900613          	li	a2,73
   1a74e:	00001097          	auipc	ra,0x1
   1a752:	824080e7          	jalr	-2012(ra) # 1af72 <memcpy>
   1a756:	01845513          	srli	a0,s0,0x18
   1a75a:	01045593          	srli	a1,s0,0x10
   1a75e:	00845613          	srli	a2,s0,0x8
   1a762:	328a03a3          	sb	s0,807(s4)
   1a766:	32ca0423          	sb	a2,808(s4)
   1a76a:	32ba04a3          	sb	a1,809(s4)
   1a76e:	32aa0523          	sb	a0,810(s4)
   1a772:	6505                	lui	a0,0x1
   1a774:	2bb50513          	addi	a0,a0,699 # 12bb <.Lline_table_start1+0x1090>
   1a778:	950a                	add	a0,a0,sp
   1a77a:	6585                	lui	a1,0x1
   1a77c:	32058593          	addi	a1,a1,800 # 1320 <.Lline_table_start1+0x10f5>
   1a780:	958a                	add	a1,a1,sp
   1a782:	04900613          	li	a2,73
   1a786:	00000097          	auipc	ra,0x0
   1a78a:	7ec080e7          	jalr	2028(ra) # 1af72 <memcpy>
   1a78e:	6505                	lui	a0,0x1
   1a790:	37c50513          	addi	a0,a0,892 # 137c <.Lline_table_start1+0x1151>
   1a794:	950a                	add	a0,a0,sp
   1a796:	6585                	lui	a1,0x1
   1a798:	2b458593          	addi	a1,a1,692 # 12b4 <.Lline_table_start1+0x1089>
   1a79c:	958a                	add	a1,a1,sp
   1a79e:	ffff8097          	auipc	ra,0xffff8
   1a7a2:	eec080e7          	jalr	-276(ra) # 1268a <_ZN20complex_full_dynamic3app17h3191e5166e932e0cE>
   1a7a6:	3eca4503          	lbu	a0,1004(s4)
   1a7aa:	1c051063          	bnez	a0,1a96a <_start+0x3cc8>
   1a7ae:	3eda4503          	lbu	a0,1005(s4)
   1a7b2:	3eea4583          	lbu	a1,1006(s4)
   1a7b6:	3efa4803          	lbu	a6,1007(s4)
   1a7ba:	3f0a2683          	lw	a3,1008(s4)
   1a7be:	3f4a2703          	lw	a4,1012(s4)
   1a7c2:	3f8a2783          	lw	a5,1016(s4)
   1a7c6:	3fca2483          	lw	s1,1020(s4)
   1a7ca:	400a2403          	lw	s0,1024(s4)
   1a7ce:	404a2603          	lw	a2,1028(s4)
   1a7d2:	05a2                	slli	a1,a1,0x8
   1a7d4:	389a2c23          	sw	s1,920(s4)
   1a7d8:	388a2e23          	sw	s0,924(s4)
   1a7dc:	3aca2023          	sw	a2,928(s4)
   1a7e0:	0186d613          	srli	a2,a3,0x18
   1a7e4:	8d4d                	or	a0,a0,a1
   1a7e6:	0106d593          	srli	a1,a3,0x10
   1a7ea:	36ba0ca3          	sb	a1,889(s4)
   1a7ee:	36ca0d23          	sb	a2,890(s4)
   1a7f2:	38ea2823          	sw	a4,912(s4)
   1a7f6:	38fa2a23          	sw	a5,916(s4)
   1a7fa:	0086d593          	srli	a1,a3,0x8
   1a7fe:	36aa1a23          	sh	a0,884(s4)
   1a802:	370a0b23          	sb	a6,886(s4)
   1a806:	36da0ba3          	sb	a3,887(s4)
   1a80a:	36ba0c23          	sb	a1,888(s4)
   1a80e:	6505                	lui	a0,0x1
   1a810:	30b50513          	addi	a0,a0,779 # 130b <.Lline_table_start1+0x10e0>
   1a814:	950a                	add	a0,a0,sp
   1a816:	6585                	lui	a1,0x1
   1a818:	32058593          	addi	a1,a1,800 # 1320 <.Lline_table_start1+0x10f5>
   1a81c:	958a                	add	a1,a1,sp
   1a81e:	4651                	li	a2,20
   1a820:	00000097          	auipc	ra,0x0
   1a824:	752080e7          	jalr	1874(ra) # 1af72 <memcpy>
   1a828:	6505                	lui	a0,0x1
   1a82a:	37c50513          	addi	a0,a0,892 # 137c <.Lline_table_start1+0x1151>
   1a82e:	950a                	add	a0,a0,sp
   1a830:	6585                	lui	a1,0x1
   1a832:	30458593          	addi	a1,a1,772 # 1304 <.Lline_table_start1+0x10d9>
   1a836:	958a                	add	a1,a1,sp
   1a838:	ffffa097          	auipc	ra,0xffffa
   1a83c:	e84080e7          	jalr	-380(ra) # 146bc <_ZN20complex_full_dynamic3app17h8c2ce55f3fa1d871E>
   1a840:	3eca4503          	lbu	a0,1004(s4)
   1a844:	12051363          	bnez	a0,1a96a <_start+0x3cc8>
   1a848:	3eea4503          	lbu	a0,1006(s4)
   1a84c:	3eda4583          	lbu	a1,1005(s4)
   1a850:	3efa4603          	lbu	a2,1007(s4)
   1a854:	3f0a2403          	lw	s0,1008(s4)
   1a858:	0522                	slli	a0,a0,0x8
   1a85a:	8d4d                	or	a0,a0,a1
   1a85c:	44aa1923          	sh	a0,1106(s4)
   1a860:	44ca0a23          	sb	a2,1108(s4)
   1a864:	6505                	lui	a0,0x1
   1a866:	38450513          	addi	a0,a0,900 # 1384 <.Lline_table_start1+0x1159>
   1a86a:	00a105b3          	add	a1,sp,a0
   1a86e:	6505                	lui	a0,0x1
   1a870:	32050513          	addi	a0,a0,800 # 1320 <.Lline_table_start1+0x10f5>
   1a874:	950a                	add	a0,a0,sp
   1a876:	05c00613          	li	a2,92
   1a87a:	00000097          	auipc	ra,0x0
   1a87e:	6f8080e7          	jalr	1784(ra) # 1af72 <memcpy>
   1a882:	01845513          	srli	a0,s0,0x18
   1a886:	01045593          	srli	a1,s0,0x10
   1a88a:	00845613          	srli	a2,s0,0x8
   1a88e:	448a0aa3          	sb	s0,1109(s4)
   1a892:	44ca0b23          	sb	a2,1110(s4)
   1a896:	44ba0ba3          	sb	a1,1111(s4)
   1a89a:	44aa0c23          	sb	a0,1112(s4)
   1a89e:	6505                	lui	a0,0x1
   1a8a0:	3e950513          	addi	a0,a0,1001 # 13e9 <.Lline_table_start1+0x11be>
   1a8a4:	950a                	add	a0,a0,sp
   1a8a6:	6585                	lui	a1,0x1
   1a8a8:	32058593          	addi	a1,a1,800 # 1320 <.Lline_table_start1+0x10f5>
   1a8ac:	958a                	add	a1,a1,sp
   1a8ae:	05c00613          	li	a2,92
   1a8b2:	00000097          	auipc	ra,0x0
   1a8b6:	6c0080e7          	jalr	1728(ra) # 1af72 <memcpy>
   1a8ba:	6505                	lui	a0,0x1
   1a8bc:	37c50513          	addi	a0,a0,892 # 137c <.Lline_table_start1+0x1151>
   1a8c0:	950a                	add	a0,a0,sp
   1a8c2:	6585                	lui	a1,0x1
   1a8c4:	3e258593          	addi	a1,a1,994 # 13e2 <.Lline_table_start1+0x11b7>
   1a8c8:	958a                	add	a1,a1,sp
   1a8ca:	ffff7097          	auipc	ra,0xffff7
   1a8ce:	c4e080e7          	jalr	-946(ra) # 11518 <_ZN20complex_full_dynamic3app17h0cb2b5f2c7bba0a4E>
   1a8d2:	3eca4503          	lbu	a0,1004(s4)
   1a8d6:	e951                	bnez	a0,1a96a <_start+0x3cc8>
   1a8d8:	3eea4503          	lbu	a0,1006(s4)
   1a8dc:	3eda4583          	lbu	a1,1005(s4)
   1a8e0:	3efa4603          	lbu	a2,1007(s4)
   1a8e4:	3f0a2403          	lw	s0,1008(s4)
   1a8e8:	0522                	slli	a0,a0,0x8
   1a8ea:	8d4d                	or	a0,a0,a1
   1a8ec:	4aaa1b23          	sh	a0,1206(s4)
   1a8f0:	4aca0c23          	sb	a2,1208(s4)
   1a8f4:	6505                	lui	a0,0x1
   1a8f6:	38450513          	addi	a0,a0,900 # 1384 <.Lline_table_start1+0x1159>
   1a8fa:	00a105b3          	add	a1,sp,a0
   1a8fe:	6505                	lui	a0,0x1
   1a900:	32050513          	addi	a0,a0,800 # 1320 <.Lline_table_start1+0x10f5>
   1a904:	950a                	add	a0,a0,sp
   1a906:	02500613          	li	a2,37
   1a90a:	00000097          	auipc	ra,0x0
   1a90e:	668080e7          	jalr	1640(ra) # 1af72 <memcpy>
   1a912:	01845513          	srli	a0,s0,0x18
   1a916:	01045593          	srli	a1,s0,0x10
   1a91a:	00845613          	srli	a2,s0,0x8
   1a91e:	4a8a0ca3          	sb	s0,1209(s4)
   1a922:	4aca0d23          	sb	a2,1210(s4)
   1a926:	4aba0da3          	sb	a1,1211(s4)
   1a92a:	4aaa0e23          	sb	a0,1212(s4)
   1a92e:	6505                	lui	a0,0x1
   1a930:	44d50513          	addi	a0,a0,1101 # 144d <.Lline_table_start1+0x1222>
   1a934:	950a                	add	a0,a0,sp
   1a936:	6585                	lui	a1,0x1
   1a938:	32058593          	addi	a1,a1,800 # 1320 <.Lline_table_start1+0x10f5>
   1a93c:	958a                	add	a1,a1,sp
   1a93e:	02500613          	li	a2,37
   1a942:	00000097          	auipc	ra,0x0
   1a946:	630080e7          	jalr	1584(ra) # 1af72 <memcpy>
   1a94a:	6505                	lui	a0,0x1
   1a94c:	37c50513          	addi	a0,a0,892 # 137c <.Lline_table_start1+0x1151>
   1a950:	950a                	add	a0,a0,sp
   1a952:	6585                	lui	a1,0x1
   1a954:	44658593          	addi	a1,a1,1094 # 1446 <.Lline_table_start1+0x121b>
   1a958:	958a                	add	a1,a1,sp
   1a95a:	ffffa097          	auipc	ra,0xffffa
   1a95e:	626080e7          	jalr	1574(ra) # 14f80 <_ZN20complex_full_dynamic3app17haf66a5350c367c0bE>
   1a962:	3eca4503          	lbu	a0,1004(s4)
   1a966:	4e050663          	beqz	a0,1ae52 <_start+0x41b0>
   1a96a:	3f0a2a83          	lw	s5,1008(s4)
   1a96e:	4505                	li	a0,1
   1a970:	85d6                	mv	a1,s5
   1a972:	7f010113          	addi	sp,sp,2032
   1a976:	4f010113          	addi	sp,sp,1264
   1a97a:	7ec12083          	lw	ra,2028(sp)
   1a97e:	7e812403          	lw	s0,2024(sp)
   1a982:	7e412483          	lw	s1,2020(sp)
   1a986:	7e012903          	lw	s2,2016(sp)
   1a98a:	7dc12983          	lw	s3,2012(sp)
   1a98e:	7d812a03          	lw	s4,2008(sp)
   1a992:	7d412a83          	lw	s5,2004(sp)
   1a996:	7d012b03          	lw	s6,2000(sp)
   1a99a:	7cc12b83          	lw	s7,1996(sp)
   1a99e:	7c812c03          	lw	s8,1992(sp)
   1a9a2:	7c412c83          	lw	s9,1988(sp)
   1a9a6:	7c012d03          	lw	s10,1984(sp)
   1a9aa:	7bc12d83          	lw	s11,1980(sp)
   1a9ae:	7f010113          	addi	sp,sp,2032
   1a9b2:	8082                	ret
   1a9b4:	0888                	addi	a0,sp,80
   1a9b6:	00000097          	auipc	ra,0x0
   1a9ba:	530080e7          	jalr	1328(ra) # 1aee6 <_ZN9allow_pin12full_dynamic17unshare_if_shared17h3ae8596986353d28E>
   1a9be:	6505                	lui	a0,0x1
   1a9c0:	37c50513          	addi	a0,a0,892 # 137c <.Lline_table_start1+0x1151>
   1a9c4:	950a                	add	a0,a0,sp
   1a9c6:	00000097          	auipc	ra,0x0
   1a9ca:	520080e7          	jalr	1312(ra) # 1aee6 <_ZN9allow_pin12full_dynamic17unshare_if_shared17h3ae8596986353d28E>
   1a9ce:	6505                	lui	a0,0x1
   1a9d0:	37c50513          	addi	a0,a0,892 # 137c <.Lline_table_start1+0x1151>
   1a9d4:	950a                	add	a0,a0,sp
   1a9d6:	00000097          	auipc	ra,0x0
   1a9da:	510080e7          	jalr	1296(ra) # 1aee6 <_ZN9allow_pin12full_dynamic17unshare_if_shared17h3ae8596986353d28E>
   1a9de:	00194503          	lbu	a0,1(s2)
   1a9e2:	00094583          	lbu	a1,0(s2)
   1a9e6:	00294603          	lbu	a2,2(s2)
   1a9ea:	0522                	slli	a0,a0,0x8
   1a9ec:	3fba4683          	lbu	a3,1019(s4)
   1a9f0:	3fca4703          	lbu	a4,1020(s4)
   1a9f4:	8d4d                	or	a0,a0,a1
   1a9f6:	3fda4583          	lbu	a1,1021(s4)
   1a9fa:	3fea4783          	lbu	a5,1022(s4)
   1a9fe:	0722                	slli	a4,a4,0x8
   1aa00:	8ed9                	or	a3,a3,a4
   1aa02:	05c2                	slli	a1,a1,0x10
   1aa04:	07e2                	slli	a5,a5,0x18
   1aa06:	8ddd                	or	a1,a1,a5
   1aa08:	08a11823          	sh	a0,144(sp)
   1aa0c:	08c10923          	sb	a2,146(sp)
   1aa10:	00d5eab3          	or	s5,a1,a3
   1aa14:	6505                	lui	a0,0x1
   1aa16:	38f50513          	addi	a0,a0,911 # 138f <.Lline_table_start1+0x1164>
   1aa1a:	00a105b3          	add	a1,sp,a0
   1aa1e:	0048                	addi	a0,sp,4
   1aa20:	04a00613          	li	a2,74
   1aa24:	00000097          	auipc	ra,0x0
   1aa28:	54e080e7          	jalr	1358(ra) # 1af72 <memcpy>
   1aa2c:	4401                	li	s0,0
   1aa2e:	b5cfc06f          	j	16d8a <_start+0xe8>
   1aa32:	6505                	lui	a0,0x1
   1aa34:	37c50513          	addi	a0,a0,892 # 137c <.Lline_table_start1+0x1151>
   1aa38:	950a                	add	a0,a0,sp
   1aa3a:	00000097          	auipc	ra,0x0
   1aa3e:	4ac080e7          	jalr	1196(ra) # 1aee6 <_ZN9allow_pin12full_dynamic17unshare_if_shared17h3ae8596986353d28E>
   1aa42:	6505                	lui	a0,0x1
   1aa44:	32050513          	addi	a0,a0,800 # 1320 <.Lline_table_start1+0x10f5>
   1aa48:	950a                	add	a0,a0,sp
   1aa4a:	00000097          	auipc	ra,0x0
   1aa4e:	49c080e7          	jalr	1180(ra) # 1aee6 <_ZN9allow_pin12full_dynamic17unshare_if_shared17h3ae8596986353d28E>
   1aa52:	6505                	lui	a0,0x1
   1aa54:	32050513          	addi	a0,a0,800 # 1320 <.Lline_table_start1+0x10f5>
   1aa58:	950a                	add	a0,a0,sp
   1aa5a:	00000097          	auipc	ra,0x0
   1aa5e:	48c080e7          	jalr	1164(ra) # 1aee6 <_ZN9allow_pin12full_dynamic17unshare_if_shared17h3ae8596986353d28E>
   1aa62:	00194503          	lbu	a0,1(s2)
   1aa66:	00094583          	lbu	a1,0(s2)
   1aa6a:	00294603          	lbu	a2,2(s2)
   1aa6e:	0522                	slli	a0,a0,0x8
   1aa70:	39fa4683          	lbu	a3,927(s4)
   1aa74:	3a0a4703          	lbu	a4,928(s4)
   1aa78:	8d4d                	or	a0,a0,a1
   1aa7a:	3a1a4583          	lbu	a1,929(s4)
   1aa7e:	3a2a4783          	lbu	a5,930(s4)
   1aa82:	0722                	slli	a4,a4,0x8
   1aa84:	8ed9                	or	a3,a3,a4
   1aa86:	05c2                	slli	a1,a1,0x10
   1aa88:	07e2                	slli	a5,a5,0x18
   1aa8a:	8ddd                	or	a1,a1,a5
   1aa8c:	08a11823          	sh	a0,144(sp)
   1aa90:	08c10923          	sb	a2,146(sp)
   1aa94:	00d5eab3          	or	s5,a1,a3
   1aa98:	6505                	lui	a0,0x1
   1aa9a:	33350513          	addi	a0,a0,819 # 1333 <.Lline_table_start1+0x1108>
   1aa9e:	00a105b3          	add	a1,sp,a0
   1aaa2:	0888                	addi	a0,sp,80
   1aaa4:	03f00613          	li	a2,63
   1aaa8:	00000097          	auipc	ra,0x0
   1aaac:	4ca080e7          	jalr	1226(ra) # 1af72 <memcpy>
   1aab0:	4401                	li	s0,0
   1aab2:	bf8fc06f          	j	16eaa <_start+0x208>
   1aab6:	6505                	lui	a0,0x1
   1aab8:	37c50513          	addi	a0,a0,892 # 137c <.Lline_table_start1+0x1151>
   1aabc:	950a                	add	a0,a0,sp
   1aabe:	00000097          	auipc	ra,0x0
   1aac2:	428080e7          	jalr	1064(ra) # 1aee6 <_ZN9allow_pin12full_dynamic17unshare_if_shared17h3ae8596986353d28E>
   1aac6:	6505                	lui	a0,0x1
   1aac8:	32050513          	addi	a0,a0,800 # 1320 <.Lline_table_start1+0x10f5>
   1aacc:	950a                	add	a0,a0,sp
   1aace:	00000097          	auipc	ra,0x0
   1aad2:	418080e7          	jalr	1048(ra) # 1aee6 <_ZN9allow_pin12full_dynamic17unshare_if_shared17h3ae8596986353d28E>
   1aad6:	6505                	lui	a0,0x1
   1aad8:	32050513          	addi	a0,a0,800 # 1320 <.Lline_table_start1+0x10f5>
   1aadc:	950a                	add	a0,a0,sp
   1aade:	00000097          	auipc	ra,0x0
   1aae2:	408080e7          	jalr	1032(ra) # 1aee6 <_ZN9allow_pin12full_dynamic17unshare_if_shared17h3ae8596986353d28E>
   1aae6:	4401                	li	s0,0
   1aae8:	00094583          	lbu	a1,0(s2)
   1aaec:	00194603          	lbu	a2,1(s2)
   1aaf0:	00294803          	lbu	a6,2(s2)
   1aaf4:	39fa4883          	lbu	a7,927(s4)
   1aaf8:	3a0a4283          	lbu	t0,928(s4)
   1aafc:	3a1a4303          	lbu	t1,929(s4)
   1ab00:	3a2a4383          	lbu	t2,930(s4)
   1ab04:	3b3a4503          	lbu	a0,947(s4)
   1ab08:	3a3a4683          	lbu	a3,931(s4)
   1ab0c:	3a4a4703          	lbu	a4,932(s4)
   1ab10:	3a5a4783          	lbu	a5,933(s4)
   1ab14:	3a6a4483          	lbu	s1,934(s4)
   1ab18:	0622                	slli	a2,a2,0x8
   1ab1a:	0aa10023          	sb	a0,160(sp)
   1ab1e:	00b66e33          	or	t3,a2,a1
   1ab22:	3a7a4e83          	lbu	t4,935(s4)
   1ab26:	3a8a4603          	lbu	a2,936(s4)
   1ab2a:	3a9a4583          	lbu	a1,937(s4)
   1ab2e:	3aaa4503          	lbu	a0,938(s4)
   1ab32:	02a2                	slli	t0,t0,0x8
   1ab34:	0342                	slli	t1,t1,0x10
   1ab36:	03e2                	slli	t2,t2,0x18
   1ab38:	0722                	slli	a4,a4,0x8
   1ab3a:	07c2                	slli	a5,a5,0x10
   1ab3c:	04e2                	slli	s1,s1,0x18
   1ab3e:	0112e8b3          	or	a7,t0,a7
   1ab42:	0063e2b3          	or	t0,t2,t1
   1ab46:	00d76333          	or	t1,a4,a3
   1ab4a:	00f4e3b3          	or	t2,s1,a5
   1ab4e:	3aba4703          	lbu	a4,939(s4)
   1ab52:	3aca4483          	lbu	s1,940(s4)
   1ab56:	3ada4683          	lbu	a3,941(s4)
   1ab5a:	3aea4783          	lbu	a5,942(s4)
   1ab5e:	0622                	slli	a2,a2,0x8
   1ab60:	05c2                	slli	a1,a1,0x10
   1ab62:	0562                	slli	a0,a0,0x18
   1ab64:	04a2                	slli	s1,s1,0x8
   1ab66:	06c2                	slli	a3,a3,0x10
   1ab68:	07e2                	slli	a5,a5,0x18
   1ab6a:	01d66eb3          	or	t4,a2,t4
   1ab6e:	8d4d                	or	a0,a0,a1
   1ab70:	8f45                	or	a4,a4,s1
   1ab72:	3afa4583          	lbu	a1,943(s4)
   1ab76:	3b0a4483          	lbu	s1,944(s4)
   1ab7a:	8edd                	or	a3,a3,a5
   1ab7c:	3b1a4783          	lbu	a5,945(s4)
   1ab80:	3b2a4603          	lbu	a2,946(s4)
   1ab84:	04a2                	slli	s1,s1,0x8
   1ab86:	8dc5                	or	a1,a1,s1
   1ab88:	07c2                	slli	a5,a5,0x10
   1ab8a:	0662                	slli	a2,a2,0x18
   1ab8c:	8e5d                	or	a2,a2,a5
   1ab8e:	0bc11223          	sh	t3,164(sp)
   1ab92:	0b010323          	sb	a6,166(sp)
   1ab96:	0112eab3          	or	s5,t0,a7
   1ab9a:	0063e7b3          	or	a5,t2,t1
   1ab9e:	01d56533          	or	a0,a0,t4
   1aba2:	8ed9                	or	a3,a3,a4
   1aba4:	8dd1                	or	a1,a1,a2
   1aba6:	c93e                	sw	a5,144(sp)
   1aba8:	cb2a                	sw	a0,148(sp)
   1abaa:	cd36                	sw	a3,152(sp)
   1abac:	cf2e                	sw	a1,156(sp)
   1abae:	c14fc06f          	j	16fc2 <_start+0x320>
   1abb2:	0888                	addi	a0,sp,80
   1abb4:	00000097          	auipc	ra,0x0
   1abb8:	332080e7          	jalr	818(ra) # 1aee6 <_ZN9allow_pin12full_dynamic17unshare_if_shared17h3ae8596986353d28E>
   1abbc:	6505                	lui	a0,0x1
   1abbe:	37c50513          	addi	a0,a0,892 # 137c <.Lline_table_start1+0x1151>
   1abc2:	950a                	add	a0,a0,sp
   1abc4:	00000097          	auipc	ra,0x0
   1abc8:	322080e7          	jalr	802(ra) # 1aee6 <_ZN9allow_pin12full_dynamic17unshare_if_shared17h3ae8596986353d28E>
   1abcc:	6505                	lui	a0,0x1
   1abce:	37c50513          	addi	a0,a0,892 # 137c <.Lline_table_start1+0x1151>
   1abd2:	950a                	add	a0,a0,sp
   1abd4:	00000097          	auipc	ra,0x0
   1abd8:	312080e7          	jalr	786(ra) # 1aee6 <_ZN9allow_pin12full_dynamic17unshare_if_shared17h3ae8596986353d28E>
   1abdc:	0019c503          	lbu	a0,1(s3)
   1abe0:	0009c583          	lbu	a1,0(s3)
   1abe4:	0029c603          	lbu	a2,2(s3)
   1abe8:	0522                	slli	a0,a0,0x8
   1abea:	3fba4683          	lbu	a3,1019(s4)
   1abee:	3fca4703          	lbu	a4,1020(s4)
   1abf2:	8d4d                	or	a0,a0,a1
   1abf4:	3fda4583          	lbu	a1,1021(s4)
   1abf8:	3fea4783          	lbu	a5,1022(s4)
   1abfc:	0722                	slli	a4,a4,0x8
   1abfe:	8ed9                	or	a3,a3,a4
   1ac00:	05c2                	slli	a1,a1,0x10
   1ac02:	07e2                	slli	a5,a5,0x18
   1ac04:	8ddd                	or	a1,a1,a5
   1ac06:	08a11823          	sh	a0,144(sp)
   1ac0a:	08c10923          	sb	a2,146(sp)
   1ac0e:	00d5eab3          	or	s5,a1,a3
   1ac12:	6505                	lui	a0,0x1
   1ac14:	38f50513          	addi	a0,a0,911 # 138f <.Lline_table_start1+0x1164>
   1ac18:	00a105b3          	add	a1,sp,a0
   1ac1c:	0048                	addi	a0,sp,4
   1ac1e:	02f00613          	li	a2,47
   1ac22:	00000097          	auipc	ra,0x0
   1ac26:	350080e7          	jalr	848(ra) # 1af72 <memcpy>
   1ac2a:	4401                	li	s0,0
   1ac2c:	c98fc06f          	j	170c4 <_start+0x422>
   1ac30:	6505                	lui	a0,0x1
   1ac32:	37c50513          	addi	a0,a0,892 # 137c <.Lline_table_start1+0x1151>
   1ac36:	950a                	add	a0,a0,sp
   1ac38:	00000097          	auipc	ra,0x0
   1ac3c:	2ae080e7          	jalr	686(ra) # 1aee6 <_ZN9allow_pin12full_dynamic17unshare_if_shared17h3ae8596986353d28E>
   1ac40:	6505                	lui	a0,0x1
   1ac42:	32050513          	addi	a0,a0,800 # 1320 <.Lline_table_start1+0x10f5>
   1ac46:	950a                	add	a0,a0,sp
   1ac48:	00000097          	auipc	ra,0x0
   1ac4c:	29e080e7          	jalr	670(ra) # 1aee6 <_ZN9allow_pin12full_dynamic17unshare_if_shared17h3ae8596986353d28E>
   1ac50:	6505                	lui	a0,0x1
   1ac52:	32050513          	addi	a0,a0,800 # 1320 <.Lline_table_start1+0x10f5>
   1ac56:	950a                	add	a0,a0,sp
   1ac58:	00000097          	auipc	ra,0x0
   1ac5c:	28e080e7          	jalr	654(ra) # 1aee6 <_ZN9allow_pin12full_dynamic17unshare_if_shared17h3ae8596986353d28E>
   1ac60:	4401                	li	s0,0
   1ac62:	00094883          	lbu	a7,0(s2)
   1ac66:	00194303          	lbu	t1,1(s2)
   1ac6a:	00294803          	lbu	a6,2(s2)
   1ac6e:	39fa4383          	lbu	t2,927(s4)
   1ac72:	3a0a4f83          	lbu	t6,928(s4)
   1ac76:	3a1a4c83          	lbu	s9,929(s4)
   1ac7a:	3a2a4483          	lbu	s1,930(s4)
   1ac7e:	3bfa4503          	lbu	a0,959(s4)
   1ac82:	3c0a4583          	lbu	a1,960(s4)
   1ac86:	3a3a4283          	lbu	t0,931(s4)
   1ac8a:	3a4a4e03          	lbu	t3,932(s4)
   1ac8e:	3a5a4e83          	lbu	t4,933(s4)
   1ac92:	3a6a4f03          	lbu	t5,934(s4)
   1ac96:	3a7a4983          	lbu	s3,935(s4)
   1ac9a:	3a8a4703          	lbu	a4,936(s4)
   1ac9e:	3a9a4683          	lbu	a3,937(s4)
   1aca2:	3aaa4603          	lbu	a2,938(s4)
   1aca6:	3aba4a83          	lbu	s5,939(s4)
   1acaa:	3aca4b03          	lbu	s6,940(s4)
   1acae:	3ada4b83          	lbu	s7,941(s4)
   1acb2:	3aea4c03          	lbu	s8,942(s4)
   1acb6:	0322                	slli	t1,t1,0x8
   1acb8:	008f9793          	slli	a5,t6,0x8
   1acbc:	0cc2                	slli	s9,s9,0x10
   1acbe:	04e2                	slli	s1,s1,0x18
   1acc0:	05a2                	slli	a1,a1,0x8
   1acc2:	01136fb3          	or	t6,t1,a7
   1acc6:	0077e333          	or	t1,a5,t2
   1acca:	0194e3b3          	or	t2,s1,s9
   1acce:	00a5e8b3          	or	a7,a1,a0
   1acd2:	3afa4c83          	lbu	s9,943(s4)
   1acd6:	3b0a4503          	lbu	a0,944(s4)
   1acda:	3b1a4783          	lbu	a5,945(s4)
   1acde:	3b2a4583          	lbu	a1,946(s4)
   1ace2:	0e22                	slli	t3,t3,0x8
   1ace4:	0ec2                	slli	t4,t4,0x10
   1ace6:	0f62                	slli	t5,t5,0x18
   1ace8:	0722                	slli	a4,a4,0x8
   1acea:	06c2                	slli	a3,a3,0x10
   1acec:	0662                	slli	a2,a2,0x18
   1acee:	005e62b3          	or	t0,t3,t0
   1acf2:	01df6eb3          	or	t4,t5,t4
   1acf6:	01376e33          	or	t3,a4,s3
   1acfa:	00d66f33          	or	t5,a2,a3
   1acfe:	3b3a4d03          	lbu	s10,947(s4)
   1ad02:	3b4a4703          	lbu	a4,948(s4)
   1ad06:	3b5a4603          	lbu	a2,949(s4)
   1ad0a:	3b6a4483          	lbu	s1,950(s4)
   1ad0e:	0b22                	slli	s6,s6,0x8
   1ad10:	0bc2                	slli	s7,s7,0x10
   1ad12:	0c62                	slli	s8,s8,0x18
   1ad14:	0522                	slli	a0,a0,0x8
   1ad16:	07c2                	slli	a5,a5,0x10
   1ad18:	05e2                	slli	a1,a1,0x18
   1ad1a:	015b69b3          	or	s3,s6,s5
   1ad1e:	017c6b33          	or	s6,s8,s7
   1ad22:	01956bb3          	or	s7,a0,s9
   1ad26:	00f5ec33          	or	s8,a1,a5
   1ad2a:	3b7a4783          	lbu	a5,951(s4)
   1ad2e:	3b8a4503          	lbu	a0,952(s4)
   1ad32:	3b9a4583          	lbu	a1,953(s4)
   1ad36:	3baa4683          	lbu	a3,954(s4)
   1ad3a:	0722                	slli	a4,a4,0x8
   1ad3c:	0642                	slli	a2,a2,0x10
   1ad3e:	04e2                	slli	s1,s1,0x18
   1ad40:	0522                	slli	a0,a0,0x8
   1ad42:	05c2                	slli	a1,a1,0x10
   1ad44:	06e2                	slli	a3,a3,0x18
   1ad46:	01a76cb3          	or	s9,a4,s10
   1ad4a:	00c4edb3          	or	s11,s1,a2
   1ad4e:	00f56d33          	or	s10,a0,a5
   1ad52:	3bba4783          	lbu	a5,955(s4)
   1ad56:	3bca4483          	lbu	s1,956(s4)
   1ad5a:	00b6e0b3          	or	ra,a3,a1
   1ad5e:	3bda4683          	lbu	a3,957(s4)
   1ad62:	3bea4703          	lbu	a4,958(s4)
   1ad66:	04a2                	slli	s1,s1,0x8
   1ad68:	8fc5                	or	a5,a5,s1
   1ad6a:	06c2                	slli	a3,a3,0x10
   1ad6c:	0762                	slli	a4,a4,0x18
   1ad6e:	8ed9                	or	a3,a3,a4
   1ad70:	09f11823          	sh	t6,144(sp)
   1ad74:	09010923          	sb	a6,146(sp)
   1ad78:	0063eab3          	or	s5,t2,t1
   1ad7c:	005ee733          	or	a4,t4,t0
   1ad80:	01cf64b3          	or	s1,t5,t3
   1ad84:	013b6833          	or	a6,s6,s3
   1ad88:	017c6633          	or	a2,s8,s7
   1ad8c:	019de5b3          	or	a1,s11,s9
   1ad90:	01a0e533          	or	a0,ra,s10
   1ad94:	8edd                	or	a3,a3,a5
   1ad96:	d0ae                	sw	a1,96(sp)
   1ad98:	d2aa                	sw	a0,100(sp)
   1ad9a:	d4b6                	sw	a3,104(sp)
   1ad9c:	07111623          	sh	a7,108(sp)
   1ada0:	c8ba                	sw	a4,80(sp)
   1ada2:	caa6                	sw	s1,84(sp)
   1ada4:	ccc2                	sw	a6,88(sp)
   1ada6:	ceb2                	sw	a2,92(sp)
   1ada8:	c2cfc06f          	j	171d4 <_start+0x532>
   1adac:	6505                	lui	a0,0x1
   1adae:	37c50513          	addi	a0,a0,892 # 137c <.Lline_table_start1+0x1151>
   1adb2:	950a                	add	a0,a0,sp
   1adb4:	00000097          	auipc	ra,0x0
   1adb8:	132080e7          	jalr	306(ra) # 1aee6 <_ZN9allow_pin12full_dynamic17unshare_if_shared17h3ae8596986353d28E>
   1adbc:	6505                	lui	a0,0x1
   1adbe:	32050513          	addi	a0,a0,800 # 1320 <.Lline_table_start1+0x10f5>
   1adc2:	950a                	add	a0,a0,sp
   1adc4:	00000097          	auipc	ra,0x0
   1adc8:	122080e7          	jalr	290(ra) # 1aee6 <_ZN9allow_pin12full_dynamic17unshare_if_shared17h3ae8596986353d28E>
   1adcc:	6505                	lui	a0,0x1
   1adce:	32050513          	addi	a0,a0,800 # 1320 <.Lline_table_start1+0x10f5>
   1add2:	950a                	add	a0,a0,sp
   1add4:	00000097          	auipc	ra,0x0
   1add8:	112080e7          	jalr	274(ra) # 1aee6 <_ZN9allow_pin12full_dynamic17unshare_if_shared17h3ae8596986353d28E>
   1addc:	4401                	li	s0,0
   1adde:	00094883          	lbu	a7,0(s2)
   1ade2:	00194583          	lbu	a1,1(s2)
   1ade6:	00294803          	lbu	a6,2(s2)
   1adea:	39fa4683          	lbu	a3,927(s4)
   1adee:	3a0a4703          	lbu	a4,928(s4)
   1adf2:	3a1a4783          	lbu	a5,929(s4)
   1adf6:	3a2a4483          	lbu	s1,930(s4)
   1adfa:	3a7a4603          	lbu	a2,935(s4)
   1adfe:	3a8a4503          	lbu	a0,936(s4)
   1ae02:	3a9a4283          	lbu	t0,937(s4)
   1ae06:	05a2                	slli	a1,a1,0x8
   1ae08:	0722                	slli	a4,a4,0x8
   1ae0a:	07c2                	slli	a5,a5,0x10
   1ae0c:	04e2                	slli	s1,s1,0x18
   1ae0e:	0522                	slli	a0,a0,0x8
   1ae10:	0115e5b3          	or	a1,a1,a7
   1ae14:	00d768b3          	or	a7,a4,a3
   1ae18:	8fc5                	or	a5,a5,s1
   1ae1a:	3a3a4703          	lbu	a4,931(s4)
   1ae1e:	3a4a4483          	lbu	s1,932(s4)
   1ae22:	8d51                	or	a0,a0,a2
   1ae24:	3a5a4603          	lbu	a2,933(s4)
   1ae28:	3a6a4683          	lbu	a3,934(s4)
   1ae2c:	04a2                	slli	s1,s1,0x8
   1ae2e:	8f45                	or	a4,a4,s1
   1ae30:	0642                	slli	a2,a2,0x10
   1ae32:	06e2                	slli	a3,a3,0x18
   1ae34:	8e55                	or	a2,a2,a3
   1ae36:	08b11823          	sh	a1,144(sp)
   1ae3a:	09010923          	sb	a6,146(sp)
   1ae3e:	0117eab3          	or	s5,a5,a7
   1ae42:	8e59                	or	a2,a2,a4
   1ae44:	c8b2                	sw	a2,80(sp)
   1ae46:	04a11a23          	sh	a0,84(sp)
   1ae4a:	04510b23          	sb	t0,86(sp)
   1ae4e:	ca4fc06f          	j	172f2 <_start+0x650>
   1ae52:	3eea4503          	lbu	a0,1006(s4)
   1ae56:	3eda4583          	lbu	a1,1005(s4)
   1ae5a:	3efa4603          	lbu	a2,1007(s4)
   1ae5e:	3f0a2403          	lw	s0,1008(s4)
   1ae62:	0522                	slli	a0,a0,0x8
   1ae64:	8d4d                	or	a0,a0,a1
   1ae66:	4eaa1123          	sh	a0,1250(s4)
   1ae6a:	4eca0223          	sb	a2,1252(s4)
   1ae6e:	6505                	lui	a0,0x1
   1ae70:	38450513          	addi	a0,a0,900 # 1384 <.Lline_table_start1+0x1159>
   1ae74:	00a105b3          	add	a1,sp,a0
   1ae78:	6505                	lui	a0,0x1
   1ae7a:	32050513          	addi	a0,a0,800 # 1320 <.Lline_table_start1+0x10f5>
   1ae7e:	950a                	add	a0,a0,sp
   1ae80:	02300613          	li	a2,35
   1ae84:	00000097          	auipc	ra,0x0
   1ae88:	0ee080e7          	jalr	238(ra) # 1af72 <memcpy>
   1ae8c:	01845513          	srli	a0,s0,0x18
   1ae90:	01045593          	srli	a1,s0,0x10
   1ae94:	00845613          	srli	a2,s0,0x8
   1ae98:	4e8a02a3          	sb	s0,1253(s4)
   1ae9c:	4eca0323          	sb	a2,1254(s4)
   1aea0:	4eba03a3          	sb	a1,1255(s4)
   1aea4:	4eaa0423          	sb	a0,1256(s4)
   1aea8:	6505                	lui	a0,0x1
   1aeaa:	47950513          	addi	a0,a0,1145 # 1479 <.Lline_table_start1+0x124e>
   1aeae:	950a                	add	a0,a0,sp
   1aeb0:	6585                	lui	a1,0x1
   1aeb2:	32058593          	addi	a1,a1,800 # 1320 <.Lline_table_start1+0x10f5>
   1aeb6:	958a                	add	a1,a1,sp
   1aeb8:	02300613          	li	a2,35
   1aebc:	00000097          	auipc	ra,0x0
   1aec0:	0b6080e7          	jalr	182(ra) # 1af72 <memcpy>
   1aec4:	6505                	lui	a0,0x1
   1aec6:	37c50513          	addi	a0,a0,892 # 137c <.Lline_table_start1+0x1151>
   1aeca:	950a                	add	a0,a0,sp
   1aecc:	6585                	lui	a1,0x1
   1aece:	47258593          	addi	a1,a1,1138 # 1472 <.Lline_table_start1+0x1247>
   1aed2:	958a                	add	a1,a1,sp
   1aed4:	ffff8097          	auipc	ra,0xffff8
   1aed8:	ca4080e7          	jalr	-860(ra) # 12b78 <_ZN20complex_full_dynamic3app17h475a14ff046dcf5cE>
   1aedc:	3eca4503          	lbu	a0,1004(s4)
   1aee0:	3f0a2a83          	lw	s5,1008(s4)
   1aee4:	b471                	j	1a970 <_start+0x3cce>

0001aee6 <_ZN9allow_pin12full_dynamic17unshare_if_shared17h3ae8596986353d28E>:
   1aee6:	00854703          	lbu	a4,8(a0)
   1aeea:	4789                	li	a5,2
   1aeec:	00f70c63          	beq	a4,a5,1af04 <_ZN9allow_pin12full_dynamic17unshare_if_shared17h3ae8596986353d28E+0x1e>
   1aef0:	4110                	lw	a2,0(a0)
   1aef2:	414c                	lw	a1,4(a0)
   1aef4:	882a                	mv	a6,a0
   1aef6:	8532                	mv	a0,a2
   1aef8:	4601                	li	a2,0
   1aefa:	4681                	li	a3,0
   1aefc:	00000073          	ecall
   1af00:	00f80423          	sb	a5,8(a6)
   1af04:	8082                	ret

0001af06 <memset>:
   1af06:	46c1                	li	a3,16
   1af08:	04d66f63          	bltu	a2,a3,1af66 <memset+0x60>
   1af0c:	40a006b3          	neg	a3,a0
   1af10:	0036f813          	andi	a6,a3,3
   1af14:	01050733          	add	a4,a0,a6
   1af18:	00e57963          	bgeu	a0,a4,1af2a <memset+0x24>
   1af1c:	87c2                	mv	a5,a6
   1af1e:	86aa                	mv	a3,a0
   1af20:	00b68023          	sb	a1,0(a3)
   1af24:	17fd                	addi	a5,a5,-1
   1af26:	0685                	addi	a3,a3,1
   1af28:	ffe5                	bnez	a5,1af20 <memset+0x1a>
   1af2a:	41060633          	sub	a2,a2,a6
   1af2e:	ffc67693          	andi	a3,a2,-4
   1af32:	96ba                	add	a3,a3,a4
   1af34:	00d77e63          	bgeu	a4,a3,1af50 <memset+0x4a>
   1af38:	0ff5f813          	zext.b	a6,a1
   1af3c:	010107b7          	lui	a5,0x1010
   1af40:	10178793          	addi	a5,a5,257 # 1010101 <_ZN17compiler_builtins3mem6memcpy17h90d0c987d2ef5a79E+0xff5187>
   1af44:	02f807b3          	mul	a5,a6,a5
   1af48:	c31c                	sw	a5,0(a4)
   1af4a:	0711                	addi	a4,a4,4
   1af4c:	fed76ee3          	bltu	a4,a3,1af48 <memset+0x42>
   1af50:	8a0d                	andi	a2,a2,3
   1af52:	00c68733          	add	a4,a3,a2
   1af56:	00e6f763          	bgeu	a3,a4,1af64 <memset+0x5e>
   1af5a:	00b68023          	sb	a1,0(a3)
   1af5e:	167d                	addi	a2,a2,-1
   1af60:	0685                	addi	a3,a3,1
   1af62:	fe65                	bnez	a2,1af5a <memset+0x54>
   1af64:	8082                	ret
   1af66:	86aa                	mv	a3,a0
   1af68:	00c50733          	add	a4,a0,a2
   1af6c:	fee567e3          	bltu	a0,a4,1af5a <memset+0x54>
   1af70:	bfd5                	j	1af64 <memset+0x5e>

0001af72 <memcpy>:
   1af72:	00000317          	auipc	t1,0x0
   1af76:	00830067          	jr	8(t1) # 1af7a <_ZN17compiler_builtins3mem6memcpy17h90d0c987d2ef5a79E>

0001af7a <_ZN17compiler_builtins3mem6memcpy17h90d0c987d2ef5a79E>:
   1af7a:	1141                	addi	sp,sp,-16
   1af7c:	c622                	sw	s0,12(sp)
   1af7e:	46c1                	li	a3,16
   1af80:	06d66363          	bltu	a2,a3,1afe6 <_ZN17compiler_builtins3mem6memcpy17h90d0c987d2ef5a79E+0x6c>
   1af84:	40a006b3          	neg	a3,a0
   1af88:	0036f813          	andi	a6,a3,3
   1af8c:	01050fb3          	add	t6,a0,a6
   1af90:	01f57d63          	bgeu	a0,t6,1afaa <_ZN17compiler_builtins3mem6memcpy17h90d0c987d2ef5a79E+0x30>
   1af94:	8742                	mv	a4,a6
   1af96:	86aa                	mv	a3,a0
   1af98:	87ae                	mv	a5,a1
   1af9a:	0007c883          	lbu	a7,0(a5)
   1af9e:	177d                	addi	a4,a4,-1
   1afa0:	01168023          	sb	a7,0(a3)
   1afa4:	0685                	addi	a3,a3,1
   1afa6:	0785                	addi	a5,a5,1
   1afa8:	fb6d                	bnez	a4,1af9a <_ZN17compiler_builtins3mem6memcpy17h90d0c987d2ef5a79E+0x20>
   1afaa:	01058433          	add	s0,a1,a6
   1afae:	410608b3          	sub	a7,a2,a6
   1afb2:	ffc8f713          	andi	a4,a7,-4
   1afb6:	00347613          	andi	a2,s0,3
   1afba:	00ef86b3          	add	a3,t6,a4
   1afbe:	e621                	bnez	a2,1b006 <_ZN17compiler_builtins3mem6memcpy17h90d0c987d2ef5a79E+0x8c>
   1afc0:	00dffa63          	bgeu	t6,a3,1afd4 <_ZN17compiler_builtins3mem6memcpy17h90d0c987d2ef5a79E+0x5a>
   1afc4:	8622                	mv	a2,s0
   1afc6:	421c                	lw	a5,0(a2)
   1afc8:	00ffa023          	sw	a5,0(t6)
   1afcc:	0f91                	addi	t6,t6,4
   1afce:	0611                	addi	a2,a2,4
   1afd0:	fedfebe3          	bltu	t6,a3,1afc6 <_ZN17compiler_builtins3mem6memcpy17h90d0c987d2ef5a79E+0x4c>
   1afd4:	00e405b3          	add	a1,s0,a4
   1afd8:	0038f613          	andi	a2,a7,3
   1afdc:	00c68733          	add	a4,a3,a2
   1afe0:	00e6e863          	bltu	a3,a4,1aff0 <_ZN17compiler_builtins3mem6memcpy17h90d0c987d2ef5a79E+0x76>
   1afe4:	a831                	j	1b000 <_ZN17compiler_builtins3mem6memcpy17h90d0c987d2ef5a79E+0x86>
   1afe6:	86aa                	mv	a3,a0
   1afe8:	00c50733          	add	a4,a0,a2
   1afec:	00e57a63          	bgeu	a0,a4,1b000 <_ZN17compiler_builtins3mem6memcpy17h90d0c987d2ef5a79E+0x86>
   1aff0:	0005c703          	lbu	a4,0(a1)
   1aff4:	167d                	addi	a2,a2,-1
   1aff6:	00e68023          	sb	a4,0(a3)
   1affa:	0685                	addi	a3,a3,1
   1affc:	0585                	addi	a1,a1,1
   1affe:	fa6d                	bnez	a2,1aff0 <_ZN17compiler_builtins3mem6memcpy17h90d0c987d2ef5a79E+0x76>
   1b000:	4432                	lw	s0,12(sp)
   1b002:	0141                	addi	sp,sp,16
   1b004:	8082                	ret
   1b006:	4801                	li	a6,0
   1b008:	4791                	li	a5,4
   1b00a:	c402                	sw	zero,8(sp)
   1b00c:	40c783b3          	sub	t2,a5,a2
   1b010:	00810293          	addi	t0,sp,8
   1b014:	0013f313          	andi	t1,t2,1
   1b018:	00c2e2b3          	or	t0,t0,a2
   1b01c:	04031763          	bnez	t1,1b06a <_ZN17compiler_builtins3mem6memcpy17h90d0c987d2ef5a79E+0xf0>
   1b020:	0023f793          	andi	a5,t2,2
   1b024:	ebb9                	bnez	a5,1b07a <_ZN17compiler_builtins3mem6memcpy17h90d0c987d2ef5a79E+0x100>
   1b026:	4ea2                	lw	t4,8(sp)
   1b028:	00361813          	slli	a6,a2,0x3
   1b02c:	004f8793          	addi	a5,t6,4
   1b030:	40c40f33          	sub	t5,s0,a2
   1b034:	06d7f363          	bgeu	a5,a3,1b09a <_ZN17compiler_builtins3mem6memcpy17h90d0c987d2ef5a79E+0x120>
   1b038:	410007b3          	neg	a5,a6
   1b03c:	0187fe13          	andi	t3,a5,24
   1b040:	004f2283          	lw	t0,4(t5)
   1b044:	004f0393          	addi	t2,t5,4
   1b048:	010ed5b3          	srl	a1,t4,a6
   1b04c:	004f8313          	addi	t1,t6,4
   1b050:	01c297b3          	sll	a5,t0,t3
   1b054:	8ddd                	or	a1,a1,a5
   1b056:	008f8793          	addi	a5,t6,8
   1b05a:	00bfa023          	sw	a1,0(t6)
   1b05e:	8f9a                	mv	t6,t1
   1b060:	8f1e                	mv	t5,t2
   1b062:	8e96                	mv	t4,t0
   1b064:	fcd7eee3          	bltu	a5,a3,1b040 <_ZN17compiler_builtins3mem6memcpy17h90d0c987d2ef5a79E+0xc6>
   1b068:	a825                	j	1b0a0 <_ZN17compiler_builtins3mem6memcpy17h90d0c987d2ef5a79E+0x126>
   1b06a:	00044783          	lbu	a5,0(s0)
   1b06e:	00f28023          	sb	a5,0(t0)
   1b072:	4805                	li	a6,1
   1b074:	0023f793          	andi	a5,t2,2
   1b078:	d7dd                	beqz	a5,1b026 <_ZN17compiler_builtins3mem6memcpy17h90d0c987d2ef5a79E+0xac>
   1b07a:	010407b3          	add	a5,s0,a6
   1b07e:	00079783          	lh	a5,0(a5)
   1b082:	9816                	add	a6,a6,t0
   1b084:	00f81023          	sh	a5,0(a6)
   1b088:	4ea2                	lw	t4,8(sp)
   1b08a:	00361813          	slli	a6,a2,0x3
   1b08e:	004f8793          	addi	a5,t6,4
   1b092:	40c40f33          	sub	t5,s0,a2
   1b096:	fad7e1e3          	bltu	a5,a3,1b038 <_ZN17compiler_builtins3mem6memcpy17h90d0c987d2ef5a79E+0xbe>
   1b09a:	82f6                	mv	t0,t4
   1b09c:	83fa                	mv	t2,t5
   1b09e:	837e                	mv	t1,t6
   1b0a0:	00010223          	sb	zero,4(sp)
   1b0a4:	4785                	li	a5,1
   1b0a6:	00010123          	sb	zero,2(sp)
   1b0aa:	00f61763          	bne	a2,a5,1b0b8 <_ZN17compiler_builtins3mem6memcpy17h90d0c987d2ef5a79E+0x13e>
   1b0ae:	4781                	li	a5,0
   1b0b0:	4e01                	li	t3,0
   1b0b2:	4e81                	li	t4,0
   1b0b4:	0050                	addi	a2,sp,4
   1b0b6:	a819                	j	1b0cc <_ZN17compiler_builtins3mem6memcpy17h90d0c987d2ef5a79E+0x152>
   1b0b8:	0043c783          	lbu	a5,4(t2)
   1b0bc:	0053ce03          	lbu	t3,5(t2)
   1b0c0:	4e89                	li	t4,2
   1b0c2:	00f10223          	sb	a5,4(sp)
   1b0c6:	0e22                	slli	t3,t3,0x8
   1b0c8:	00210613          	addi	a2,sp,2
   1b0cc:	00147593          	andi	a1,s0,1
   1b0d0:	e199                	bnez	a1,1b0d6 <_ZN17compiler_builtins3mem6memcpy17h90d0c987d2ef5a79E+0x15c>
   1b0d2:	4601                	li	a2,0
   1b0d4:	a821                	j	1b0ec <_ZN17compiler_builtins3mem6memcpy17h90d0c987d2ef5a79E+0x172>
   1b0d6:	0391                	addi	t2,t2,4
   1b0d8:	93f6                	add	t2,t2,t4
   1b0da:	0003c583          	lbu	a1,0(t2)
   1b0de:	00b60023          	sb	a1,0(a2)
   1b0e2:	00214603          	lbu	a2,2(sp)
   1b0e6:	00414783          	lbu	a5,4(sp)
   1b0ea:	0642                	slli	a2,a2,0x10
   1b0ec:	8e5d                	or	a2,a2,a5
   1b0ee:	0102d5b3          	srl	a1,t0,a6
   1b0f2:	410007b3          	neg	a5,a6
   1b0f6:	00ce6633          	or	a2,t3,a2
   1b0fa:	8be1                	andi	a5,a5,24
   1b0fc:	00f61633          	sll	a2,a2,a5
   1b100:	8dd1                	or	a1,a1,a2
   1b102:	00b32023          	sw	a1,0(t1)
   1b106:	00e405b3          	add	a1,s0,a4
   1b10a:	0038f613          	andi	a2,a7,3
   1b10e:	00c68733          	add	a4,a3,a2
   1b112:	ece6efe3          	bltu	a3,a4,1aff0 <_ZN17compiler_builtins3mem6memcpy17h90d0c987d2ef5a79E+0x76>
   1b116:	b5ed                	j	1b000 <_ZN17compiler_builtins3mem6memcpy17h90d0c987d2ef5a79E+0x86>
