
target/riscv32imc-unknown-none-elf/opt-2/examples/print_rng_dynamic_type:     file format elf32-littleriscv

Sections:
Idx Name          Size      VMA       LMA       File off  Algn
  0 .text         0000015e  000110d4  000110d4  000000d4  2**1
                  CONTENTS, ALLOC, LOAD, READONLY, CODE
  1 .comment      0000008b  00000000  00000000  00000232  2**0
                  CONTENTS, READONLY
  2 .riscv.attributes 0000002f  00000000  00000000  000002bd  2**0
                  CONTENTS, READONLY

Disassembly of section .text:

000110d4 <_start>:
   110d4:	1101                	addi	sp,sp,-32
   110d6:	4581                	li	a1,0
   110d8:	4809                	li	a6,2
   110da:	00f10613          	addi	a2,sp,15
   110de:	00010b23          	sb	zero,22(sp)
   110e2:	00010923          	sb	zero,18(sp)
   110e6:	000109a3          	sb	zero,19(sp)
   110ea:	00010a23          	sb	zero,20(sp)
   110ee:	00010aa3          	sb	zero,21(sp)
   110f2:	000407b7          	lui	a5,0x40
   110f6:	488d                	li	a7,3
   110f8:	01010723          	sb	a6,14(sp)
   110fc:	000107a3          	sb	zero,15(sp)
   11100:	00010823          	sb	zero,16(sp)
   11104:	000108a3          	sb	zero,17(sp)
   11108:	0785                	addi	a5,a5,1 # 40001 <_start+0x2ef2d>
   1110a:	46a1                	li	a3,8
   1110c:	470d                	li	a4,3
   1110e:	853e                	mv	a0,a5
   11110:	00000073          	ecall
   11114:	0d050663          	beq	a0,a6,111e0 <_start+0x10c>
   11118:	853e                	mv	a0,a5
   1111a:	4681                	li	a3,0
   1111c:	01110723          	sb	a7,14(sp)
   11120:	4585                	li	a1,1
   11122:	4621                	li	a2,8
   11124:	4709                	li	a4,2
   11126:	07f00793          	li	a5,127
   1112a:	00000073          	ecall
   1112e:	4309                	li	t1,2
   11130:	0aa7f863          	bgeu	a5,a0,111e0 <_start+0x10c>
   11134:	4581                	li	a1,0
   11136:	4601                	li	a2,0
   11138:	4681                	li	a3,0
   1113a:	00040537          	lui	a0,0x40
   1113e:	470d                	li	a4,3
   11140:	01810893          	addi	a7,sp,24
   11144:	0505                	addi	a0,a0,1 # 40001 <_start+0x2ef2d>
   11146:	4291                	li	t0,4
   11148:	00000073          	ecall
   1114c:	00610723          	sb	t1,14(sp)
   11150:	01314f03          	lbu	t5,19(sp)
   11154:	01414703          	lbu	a4,20(sp)
   11158:	01514783          	lbu	a5,21(sp)
   1115c:	01614683          	lbu	a3,22(sp)
   11160:	00f14383          	lbu	t2,15(sp)
   11164:	01014e03          	lbu	t3,16(sp)
   11168:	01114e83          	lbu	t4,17(sp)
   1116c:	01214603          	lbu	a2,18(sp)
   11170:	4505                	li	a0,1
   11172:	4585                	li	a1,1
   11174:	00d10fa3          	sb	a3,31(sp)
   11178:	46a1                	li	a3,8
   1117a:	00c10da3          	sb	a2,27(sp)
   1117e:	01e10e23          	sb	t5,28(sp)
   11182:	00e10ea3          	sb	a4,29(sp)
   11186:	00f10f23          	sb	a5,30(sp)
   1118a:	00610ba3          	sb	t1,23(sp)
   1118e:	00710c23          	sb	t2,24(sp)
   11192:	01c10ca3          	sb	t3,25(sp)
   11196:	01d10d23          	sb	t4,26(sp)
   1119a:	4711                	li	a4,4
   1119c:	8646                	mv	a2,a7
   1119e:	00000073          	ecall
   111a2:	00651863          	bne	a0,t1,111b2 <_start+0xde>
   111a6:	01714703          	lbu	a4,23(sp)
   111aa:	4509                	li	a0,2
   111ac:	02a71263          	bne	a4,a0,111d0 <_start+0xfc>
   111b0:	a805                	j	111e0 <_start+0x10c>
   111b2:	4681                	li	a3,0
   111b4:	00510ba3          	sb	t0,23(sp)
   111b8:	4505                	li	a0,1
   111ba:	4585                	li	a1,1
   111bc:	4621                	li	a2,8
   111be:	4709                	li	a4,2
   111c0:	08000793          	li	a5,128
   111c4:	00000073          	ecall
   111c8:	4889                	li	a7,2
   111ca:	02f57d63          	bgeu	a0,a5,11204 <_start+0x130>
   111ce:	4711                	li	a4,4
   111d0:	4505                	li	a0,1
   111d2:	87ae                	mv	a5,a1
   111d4:	4585                	li	a1,1
   111d6:	4601                	li	a2,0
   111d8:	4681                	li	a3,0
   111da:	00000073          	ecall
   111de:	85be                	mv	a1,a5
   111e0:	00e14703          	lbu	a4,14(sp)
   111e4:	4785                	li	a5,1
   111e6:	01070c63          	beq	a4,a6,111fe <_start+0x12a>
   111ea:	00040537          	lui	a0,0x40
   111ee:	0505                	addi	a0,a0,1 # 40001 <_start+0x2ef2d>
   111f0:	882e                	mv	a6,a1
   111f2:	4581                	li	a1,0
   111f4:	4601                	li	a2,0
   111f6:	4681                	li	a3,0
   111f8:	00000073          	ecall
   111fc:	85c2                	mv	a1,a6
   111fe:	853e                	mv	a0,a5
   11200:	6105                	addi	sp,sp,32
   11202:	8082                	ret
   11204:	4505                	li	a0,1
   11206:	4585                	li	a1,1
   11208:	4711                	li	a4,4
   1120a:	4601                	li	a2,0
   1120c:	4681                	li	a3,0
   1120e:	00000073          	ecall
   11212:	00e14703          	lbu	a4,14(sp)
   11216:	01171463          	bne	a4,a7,1121e <_start+0x14a>
   1121a:	4781                	li	a5,0
   1121c:	a811                	j	11230 <_start+0x15c>
   1121e:	4581                	li	a1,0
   11220:	4601                	li	a2,0
   11222:	4681                	li	a3,0
   11224:	4781                	li	a5,0
   11226:	00040537          	lui	a0,0x40
   1122a:	0505                	addi	a0,a0,1 # 40001 <_start+0x2ef2d>
   1122c:	00000073          	ecall
   11230:	b7f9                	j	111fe <_start+0x12a>
